ARM GAS  C:\Users\Nathan\AppData\Local\Temp\ccVM5ua8.s 			page 1


   1              		.cpu cortex-m4
   2              		.arch armv7e-m
   3              		.fpu fpv4-sp-d16
   4              		.eabi_attribute 27, 1
   5              		.eabi_attribute 28, 1
   6              		.eabi_attribute 20, 1
   7              		.eabi_attribute 21, 1
   8              		.eabi_attribute 23, 3
   9              		.eabi_attribute 24, 1
  10              		.eabi_attribute 25, 1
  11              		.eabi_attribute 26, 1
  12              		.eabi_attribute 30, 1
  13              		.eabi_attribute 34, 1
  14              		.eabi_attribute 18, 4
  15              		.file	"app_ble.c"
  16              		.text
  17              	.Ltext0:
  18              		.cfi_sections	.debug_frame
  19              		.file 1 "STM32_WPAN/App/app_ble.c"
  20              		.section	.text.Adv_Cancel,"ax",%progbits
  21              		.align	1
  22              		.syntax unified
  23              		.thumb
  24              		.thumb_func
  26              	Adv_Cancel:
  27              	.LFB1424:
   1:STM32_WPAN/App/app_ble.c **** /* USER CODE BEGIN Header */
   2:STM32_WPAN/App/app_ble.c **** /**
   3:STM32_WPAN/App/app_ble.c ****   ******************************************************************************
   4:STM32_WPAN/App/app_ble.c ****   * @file    App/app_ble.c
   5:STM32_WPAN/App/app_ble.c ****   * @author  MCD Application Team
   6:STM32_WPAN/App/app_ble.c ****   * @brief   BLE Application
   7:STM32_WPAN/App/app_ble.c ****   *****************************************************************************
   8:STM32_WPAN/App/app_ble.c ****   * @attention
   9:STM32_WPAN/App/app_ble.c ****   *
  10:STM32_WPAN/App/app_ble.c ****   * Copyright (c) 2025 STMicroelectronics.
  11:STM32_WPAN/App/app_ble.c ****   * All rights reserved.
  12:STM32_WPAN/App/app_ble.c ****   *
  13:STM32_WPAN/App/app_ble.c ****   * This software is licensed under terms that can be found in the LICENSE file
  14:STM32_WPAN/App/app_ble.c ****   * in the root directory of this software component.
  15:STM32_WPAN/App/app_ble.c ****   * If no LICENSE file comes with this software, it is provided AS-IS.
  16:STM32_WPAN/App/app_ble.c ****   *
  17:STM32_WPAN/App/app_ble.c ****   ******************************************************************************
  18:STM32_WPAN/App/app_ble.c ****   */
  19:STM32_WPAN/App/app_ble.c **** /* USER CODE END Header */
  20:STM32_WPAN/App/app_ble.c **** 
  21:STM32_WPAN/App/app_ble.c **** /* Includes ------------------------------------------------------------------*/
  22:STM32_WPAN/App/app_ble.c **** #include "main.h"
  23:STM32_WPAN/App/app_ble.c **** 
  24:STM32_WPAN/App/app_ble.c **** #include "app_common.h"
  25:STM32_WPAN/App/app_ble.c **** 
  26:STM32_WPAN/App/app_ble.c **** #include "dbg_trace.h"
  27:STM32_WPAN/App/app_ble.c **** #include "ble.h"
  28:STM32_WPAN/App/app_ble.c **** #include "tl.h"
  29:STM32_WPAN/App/app_ble.c **** #include "app_ble.h"
  30:STM32_WPAN/App/app_ble.c **** 
  31:STM32_WPAN/App/app_ble.c **** #include "stm32_seq.h"
ARM GAS  C:\Users\Nathan\AppData\Local\Temp\ccVM5ua8.s 			page 2


  32:STM32_WPAN/App/app_ble.c **** #include "shci.h"
  33:STM32_WPAN/App/app_ble.c **** #include "stm32_lpm.h"
  34:STM32_WPAN/App/app_ble.c **** #include "otp.h"
  35:STM32_WPAN/App/app_ble.c **** 
  36:STM32_WPAN/App/app_ble.c **** #include "custom_app.h"
  37:STM32_WPAN/App/app_ble.c **** 
  38:STM32_WPAN/App/app_ble.c **** /* Private includes ----------------------------------------------------------*/
  39:STM32_WPAN/App/app_ble.c **** /* USER CODE BEGIN Includes */
  40:STM32_WPAN/App/app_ble.c **** 
  41:STM32_WPAN/App/app_ble.c **** /* USER CODE END Includes */
  42:STM32_WPAN/App/app_ble.c **** 
  43:STM32_WPAN/App/app_ble.c **** /* Private typedef -----------------------------------------------------------*/
  44:STM32_WPAN/App/app_ble.c **** 
  45:STM32_WPAN/App/app_ble.c **** /**
  46:STM32_WPAN/App/app_ble.c ****  * security parameters structure
  47:STM32_WPAN/App/app_ble.c ****  */
  48:STM32_WPAN/App/app_ble.c **** typedef struct _tSecurityParams
  49:STM32_WPAN/App/app_ble.c **** {
  50:STM32_WPAN/App/app_ble.c ****   /**
  51:STM32_WPAN/App/app_ble.c ****    * IO capability of the device
  52:STM32_WPAN/App/app_ble.c ****    */
  53:STM32_WPAN/App/app_ble.c ****   uint8_t ioCapability;
  54:STM32_WPAN/App/app_ble.c **** 
  55:STM32_WPAN/App/app_ble.c ****   /**
  56:STM32_WPAN/App/app_ble.c ****    * Authentication requirement of the device
  57:STM32_WPAN/App/app_ble.c ****    * Man In the Middle protection required?
  58:STM32_WPAN/App/app_ble.c ****    */
  59:STM32_WPAN/App/app_ble.c ****   uint8_t mitm_mode;
  60:STM32_WPAN/App/app_ble.c **** 
  61:STM32_WPAN/App/app_ble.c ****   /**
  62:STM32_WPAN/App/app_ble.c ****    * bonding mode of the device
  63:STM32_WPAN/App/app_ble.c ****    */
  64:STM32_WPAN/App/app_ble.c ****   uint8_t bonding_mode;
  65:STM32_WPAN/App/app_ble.c **** 
  66:STM32_WPAN/App/app_ble.c ****   /**
  67:STM32_WPAN/App/app_ble.c ****    * this variable indicates whether to use a fixed pin
  68:STM32_WPAN/App/app_ble.c ****    * during the pairing process or a passkey has to be
  69:STM32_WPAN/App/app_ble.c ****    * requested to the application during the pairing process
  70:STM32_WPAN/App/app_ble.c ****    * 0 implies use fixed pin and 1 implies request for passkey
  71:STM32_WPAN/App/app_ble.c ****    */
  72:STM32_WPAN/App/app_ble.c ****   uint8_t Use_Fixed_Pin;
  73:STM32_WPAN/App/app_ble.c **** 
  74:STM32_WPAN/App/app_ble.c ****   /**
  75:STM32_WPAN/App/app_ble.c ****    * minimum encryption key size requirement
  76:STM32_WPAN/App/app_ble.c ****    */
  77:STM32_WPAN/App/app_ble.c ****   uint8_t encryptionKeySizeMin;
  78:STM32_WPAN/App/app_ble.c **** 
  79:STM32_WPAN/App/app_ble.c ****   /**
  80:STM32_WPAN/App/app_ble.c ****    * maximum encryption key size requirement
  81:STM32_WPAN/App/app_ble.c ****    */
  82:STM32_WPAN/App/app_ble.c ****   uint8_t encryptionKeySizeMax;
  83:STM32_WPAN/App/app_ble.c **** 
  84:STM32_WPAN/App/app_ble.c ****   /**
  85:STM32_WPAN/App/app_ble.c ****    * fixed pin to be used in the pairing process if
  86:STM32_WPAN/App/app_ble.c ****    * Use_Fixed_Pin is set to 1
  87:STM32_WPAN/App/app_ble.c ****    */
  88:STM32_WPAN/App/app_ble.c ****   uint32_t Fixed_Pin;
ARM GAS  C:\Users\Nathan\AppData\Local\Temp\ccVM5ua8.s 			page 3


  89:STM32_WPAN/App/app_ble.c **** 
  90:STM32_WPAN/App/app_ble.c ****   /**
  91:STM32_WPAN/App/app_ble.c ****    * this flag indicates whether the host has to initiate
  92:STM32_WPAN/App/app_ble.c ****    * the security, wait for pairing or does not have any security
  93:STM32_WPAN/App/app_ble.c ****    * requirements.
  94:STM32_WPAN/App/app_ble.c ****    * 0x00 : no security required
  95:STM32_WPAN/App/app_ble.c ****    * 0x01 : host should initiate security by sending the slave security
  96:STM32_WPAN/App/app_ble.c ****    *        request command
  97:STM32_WPAN/App/app_ble.c ****    * 0x02 : host need not send the clave security request but it
  98:STM32_WPAN/App/app_ble.c ****    * has to wait for paiirng to complete before doing any other
  99:STM32_WPAN/App/app_ble.c ****    * processing
 100:STM32_WPAN/App/app_ble.c ****    */
 101:STM32_WPAN/App/app_ble.c ****   uint8_t initiateSecurity;
 102:STM32_WPAN/App/app_ble.c ****   /* USER CODE BEGIN tSecurityParams*/
 103:STM32_WPAN/App/app_ble.c **** 
 104:STM32_WPAN/App/app_ble.c ****   /* USER CODE END tSecurityParams */
 105:STM32_WPAN/App/app_ble.c **** }tSecurityParams;
 106:STM32_WPAN/App/app_ble.c **** 
 107:STM32_WPAN/App/app_ble.c **** /**
 108:STM32_WPAN/App/app_ble.c ****  * global context
 109:STM32_WPAN/App/app_ble.c ****  * contains the variables common to all
 110:STM32_WPAN/App/app_ble.c ****  * services
 111:STM32_WPAN/App/app_ble.c ****  */
 112:STM32_WPAN/App/app_ble.c **** typedef struct _tBLEProfileGlobalContext
 113:STM32_WPAN/App/app_ble.c **** {
 114:STM32_WPAN/App/app_ble.c ****   /**
 115:STM32_WPAN/App/app_ble.c ****    * security requirements of the host
 116:STM32_WPAN/App/app_ble.c ****    */
 117:STM32_WPAN/App/app_ble.c ****   tSecurityParams bleSecurityParam;
 118:STM32_WPAN/App/app_ble.c **** 
 119:STM32_WPAN/App/app_ble.c ****   /**
 120:STM32_WPAN/App/app_ble.c ****    * gap service handle
 121:STM32_WPAN/App/app_ble.c ****    */
 122:STM32_WPAN/App/app_ble.c ****   uint16_t gapServiceHandle;
 123:STM32_WPAN/App/app_ble.c **** 
 124:STM32_WPAN/App/app_ble.c ****   /**
 125:STM32_WPAN/App/app_ble.c ****    * device name characteristic handle
 126:STM32_WPAN/App/app_ble.c ****    */
 127:STM32_WPAN/App/app_ble.c ****   uint16_t devNameCharHandle;
 128:STM32_WPAN/App/app_ble.c **** 
 129:STM32_WPAN/App/app_ble.c ****   /**
 130:STM32_WPAN/App/app_ble.c ****    * appearance characteristic handle
 131:STM32_WPAN/App/app_ble.c ****    */
 132:STM32_WPAN/App/app_ble.c ****   uint16_t appearanceCharHandle;
 133:STM32_WPAN/App/app_ble.c **** 
 134:STM32_WPAN/App/app_ble.c ****   /**
 135:STM32_WPAN/App/app_ble.c ****    * connection handle of the current active connection
 136:STM32_WPAN/App/app_ble.c ****    * When not in connection, the handle is set to 0xFFFF
 137:STM32_WPAN/App/app_ble.c ****    */
 138:STM32_WPAN/App/app_ble.c ****   uint16_t connectionHandle;
 139:STM32_WPAN/App/app_ble.c **** 
 140:STM32_WPAN/App/app_ble.c ****   /**
 141:STM32_WPAN/App/app_ble.c ****    * length of the UUID list to be used while advertising
 142:STM32_WPAN/App/app_ble.c ****    */
 143:STM32_WPAN/App/app_ble.c ****   uint8_t advtServUUIDlen;
 144:STM32_WPAN/App/app_ble.c **** 
 145:STM32_WPAN/App/app_ble.c ****   /**
ARM GAS  C:\Users\Nathan\AppData\Local\Temp\ccVM5ua8.s 			page 4


 146:STM32_WPAN/App/app_ble.c ****    * the UUID list to be used while advertising
 147:STM32_WPAN/App/app_ble.c ****    */
 148:STM32_WPAN/App/app_ble.c ****   uint8_t advtServUUID[100];
 149:STM32_WPAN/App/app_ble.c ****   /* USER CODE BEGIN BleGlobalContext_t*/
 150:STM32_WPAN/App/app_ble.c **** 
 151:STM32_WPAN/App/app_ble.c ****   /* USER CODE END BleGlobalContext_t */
 152:STM32_WPAN/App/app_ble.c **** }BleGlobalContext_t;
 153:STM32_WPAN/App/app_ble.c **** 
 154:STM32_WPAN/App/app_ble.c **** typedef struct
 155:STM32_WPAN/App/app_ble.c **** {
 156:STM32_WPAN/App/app_ble.c ****   BleGlobalContext_t BleApplicationContext_legacy;
 157:STM32_WPAN/App/app_ble.c ****   APP_BLE_ConnStatus_t Device_Connection_Status;
 158:STM32_WPAN/App/app_ble.c ****   /* USER CODE BEGIN PTD_1*/
 159:STM32_WPAN/App/app_ble.c **** 
 160:STM32_WPAN/App/app_ble.c ****   /* USER CODE END PTD_1 */
 161:STM32_WPAN/App/app_ble.c **** }BleApplicationContext_t;
 162:STM32_WPAN/App/app_ble.c **** 
 163:STM32_WPAN/App/app_ble.c **** /* USER CODE BEGIN PTD */
 164:STM32_WPAN/App/app_ble.c **** 
 165:STM32_WPAN/App/app_ble.c **** /* USER CODE END PTD */
 166:STM32_WPAN/App/app_ble.c **** 
 167:STM32_WPAN/App/app_ble.c **** /* Private defines -----------------------------------------------------------*/
 168:STM32_WPAN/App/app_ble.c **** #define FAST_ADV_TIMEOUT               (30*1000*1000/CFG_TS_TICK_VAL) /**< 30s */
 169:STM32_WPAN/App/app_ble.c **** #define INITIAL_ADV_TIMEOUT            (60*1000*1000/CFG_TS_TICK_VAL) /**< 60s */
 170:STM32_WPAN/App/app_ble.c **** 
 171:STM32_WPAN/App/app_ble.c **** #define BD_ADDR_SIZE_LOCAL    6
 172:STM32_WPAN/App/app_ble.c **** 
 173:STM32_WPAN/App/app_ble.c **** /* USER CODE BEGIN PD */
 174:STM32_WPAN/App/app_ble.c **** 
 175:STM32_WPAN/App/app_ble.c **** /* USER CODE END PD */
 176:STM32_WPAN/App/app_ble.c **** 
 177:STM32_WPAN/App/app_ble.c **** /* Private macro -------------------------------------------------------------*/
 178:STM32_WPAN/App/app_ble.c **** /* USER CODE BEGIN PM */
 179:STM32_WPAN/App/app_ble.c **** 
 180:STM32_WPAN/App/app_ble.c **** /* USER CODE END PM */
 181:STM32_WPAN/App/app_ble.c **** 
 182:STM32_WPAN/App/app_ble.c **** /* Private variables ---------------------------------------------------------*/
 183:STM32_WPAN/App/app_ble.c **** PLACE_IN_SECTION("MB_MEM1") ALIGN(4) static TL_CmdPacket_t BleCmdBuffer;
 184:STM32_WPAN/App/app_ble.c **** 
 185:STM32_WPAN/App/app_ble.c **** static const uint8_t a_MBdAddr[BD_ADDR_SIZE_LOCAL] =
 186:STM32_WPAN/App/app_ble.c **** {
 187:STM32_WPAN/App/app_ble.c ****   (uint8_t)((CFG_ADV_BD_ADDRESS & 0x0000000000FF)),
 188:STM32_WPAN/App/app_ble.c ****   (uint8_t)((CFG_ADV_BD_ADDRESS & 0x00000000FF00) >> 8),
 189:STM32_WPAN/App/app_ble.c ****   (uint8_t)((CFG_ADV_BD_ADDRESS & 0x000000FF0000) >> 16),
 190:STM32_WPAN/App/app_ble.c ****   (uint8_t)((CFG_ADV_BD_ADDRESS & 0x0000FF000000) >> 24),
 191:STM32_WPAN/App/app_ble.c ****   (uint8_t)((CFG_ADV_BD_ADDRESS & 0x00FF00000000) >> 32),
 192:STM32_WPAN/App/app_ble.c ****   (uint8_t)((CFG_ADV_BD_ADDRESS & 0xFF0000000000) >> 40)
 193:STM32_WPAN/App/app_ble.c **** };
 194:STM32_WPAN/App/app_ble.c **** 
 195:STM32_WPAN/App/app_ble.c **** static uint8_t a_BdAddrUdn[BD_ADDR_SIZE_LOCAL];
 196:STM32_WPAN/App/app_ble.c **** 
 197:STM32_WPAN/App/app_ble.c **** /**
 198:STM32_WPAN/App/app_ble.c ****  *   Identity root key used to derive IRK and DHK(Legacy)
 199:STM32_WPAN/App/app_ble.c ****  */
 200:STM32_WPAN/App/app_ble.c **** static const uint8_t a_BLE_CfgIrValue[16] = CFG_BLE_IR;
 201:STM32_WPAN/App/app_ble.c **** 
 202:STM32_WPAN/App/app_ble.c **** /**
ARM GAS  C:\Users\Nathan\AppData\Local\Temp\ccVM5ua8.s 			page 5


 203:STM32_WPAN/App/app_ble.c ****  * Encryption root key used to derive LTK(Legacy) and CSRK
 204:STM32_WPAN/App/app_ble.c ****  */
 205:STM32_WPAN/App/app_ble.c **** static const uint8_t a_BLE_CfgErValue[16] = CFG_BLE_ER;
 206:STM32_WPAN/App/app_ble.c **** 
 207:STM32_WPAN/App/app_ble.c **** /**
 208:STM32_WPAN/App/app_ble.c ****  * These are the two tags used to manage a power failure during OTA
 209:STM32_WPAN/App/app_ble.c ****  * The MagicKeywordAdress shall be mapped @0x140 from start of the binary image
 210:STM32_WPAN/App/app_ble.c ****  * The MagicKeywordvalue is checked in the ble_ota application
 211:STM32_WPAN/App/app_ble.c ****  */
 212:STM32_WPAN/App/app_ble.c **** PLACE_IN_SECTION("TAG_OTA_END") const uint32_t MagicKeywordValue = 0x94448A29 ;
 213:STM32_WPAN/App/app_ble.c **** PLACE_IN_SECTION("TAG_OTA_START") const uint32_t MagicKeywordAddress = (uint32_t)&MagicKeywordValue
 214:STM32_WPAN/App/app_ble.c **** 
 215:STM32_WPAN/App/app_ble.c **** static BleApplicationContext_t BleApplicationContext;
 216:STM32_WPAN/App/app_ble.c **** 
 217:STM32_WPAN/App/app_ble.c **** Custom_App_ConnHandle_Not_evt_t HandleNotification;
 218:STM32_WPAN/App/app_ble.c **** 
 219:STM32_WPAN/App/app_ble.c **** #if (L2CAP_REQUEST_NEW_CONN_PARAM != 0)
 220:STM32_WPAN/App/app_ble.c **** #define SIZE_TAB_CONN_INT            2
 221:STM32_WPAN/App/app_ble.c **** float a_ConnInterval[SIZE_TAB_CONN_INT] = {50, 1000}; /* ms */
 222:STM32_WPAN/App/app_ble.c **** uint8_t index_con_int, mutex;
 223:STM32_WPAN/App/app_ble.c **** #endif /* L2CAP_REQUEST_NEW_CONN_PARAM != 0 */
 224:STM32_WPAN/App/app_ble.c **** 
 225:STM32_WPAN/App/app_ble.c **** /**
 226:STM32_WPAN/App/app_ble.c ****  * Advertising Data
 227:STM32_WPAN/App/app_ble.c ****  */
 228:STM32_WPAN/App/app_ble.c **** uint8_t a_AdvData[7] =
 229:STM32_WPAN/App/app_ble.c **** {
 230:STM32_WPAN/App/app_ble.c ****   6, AD_TYPE_COMPLETE_LOCAL_NAME, 'L', 'i', 'n', 'e', 'a',  /* Complete name */
 231:STM32_WPAN/App/app_ble.c **** 
 232:STM32_WPAN/App/app_ble.c **** };
 233:STM32_WPAN/App/app_ble.c **** 
 234:STM32_WPAN/App/app_ble.c **** /* USER CODE BEGIN PV */
 235:STM32_WPAN/App/app_ble.c **** 
 236:STM32_WPAN/App/app_ble.c **** /* USER CODE END PV */
 237:STM32_WPAN/App/app_ble.c **** 
 238:STM32_WPAN/App/app_ble.c **** /* Private function prototypes -----------------------------------------------*/
 239:STM32_WPAN/App/app_ble.c **** static void BLE_UserEvtRx(void *p_Payload);
 240:STM32_WPAN/App/app_ble.c **** static void BLE_StatusNot(HCI_TL_CmdStatus_t Status);
 241:STM32_WPAN/App/app_ble.c **** static void Ble_Tl_Init(void);
 242:STM32_WPAN/App/app_ble.c **** static void Ble_Hci_Gap_Gatt_Init(void);
 243:STM32_WPAN/App/app_ble.c **** static const uint8_t* BleGetBdAddress(void);
 244:STM32_WPAN/App/app_ble.c **** static void Adv_Request(APP_BLE_ConnStatus_t NewStatus);
 245:STM32_WPAN/App/app_ble.c **** static void Adv_Cancel(void);
 246:STM32_WPAN/App/app_ble.c **** #if (L2CAP_REQUEST_NEW_CONN_PARAM != 0)
 247:STM32_WPAN/App/app_ble.c **** static void BLE_SVC_L2CAP_Conn_Update(uint16_t ConnectionHandle);
 248:STM32_WPAN/App/app_ble.c **** static void Connection_Interval_Update_Req(void);
 249:STM32_WPAN/App/app_ble.c **** #endif /* L2CAP_REQUEST_NEW_CONN_PARAM != 0 */
 250:STM32_WPAN/App/app_ble.c **** 
 251:STM32_WPAN/App/app_ble.c **** /* USER CODE BEGIN PFP */
 252:STM32_WPAN/App/app_ble.c **** 
 253:STM32_WPAN/App/app_ble.c **** /* USER CODE END PFP */
 254:STM32_WPAN/App/app_ble.c **** 
 255:STM32_WPAN/App/app_ble.c **** /* External variables --------------------------------------------------------*/
 256:STM32_WPAN/App/app_ble.c **** 
 257:STM32_WPAN/App/app_ble.c **** /* USER CODE BEGIN EV */
 258:STM32_WPAN/App/app_ble.c **** 
 259:STM32_WPAN/App/app_ble.c **** /* USER CODE END EV */
ARM GAS  C:\Users\Nathan\AppData\Local\Temp\ccVM5ua8.s 			page 6


 260:STM32_WPAN/App/app_ble.c **** 
 261:STM32_WPAN/App/app_ble.c **** /* Functions Definition ------------------------------------------------------*/
 262:STM32_WPAN/App/app_ble.c **** void APP_BLE_Init(void)
 263:STM32_WPAN/App/app_ble.c **** {
 264:STM32_WPAN/App/app_ble.c ****   SHCI_CmdStatus_t status;
 265:STM32_WPAN/App/app_ble.c **** #if (RADIO_ACTIVITY_EVENT != 0)
 266:STM32_WPAN/App/app_ble.c ****   tBleStatus ret = BLE_STATUS_INVALID_PARAMS;
 267:STM32_WPAN/App/app_ble.c **** #endif /* RADIO_ACTIVITY_EVENT != 0 */
 268:STM32_WPAN/App/app_ble.c ****   /* USER CODE BEGIN APP_BLE_Init_1 */
 269:STM32_WPAN/App/app_ble.c **** 
 270:STM32_WPAN/App/app_ble.c ****   /* USER CODE END APP_BLE_Init_1 */
 271:STM32_WPAN/App/app_ble.c ****   SHCI_C2_Ble_Init_Cmd_Packet_t ble_init_cmd_packet =
 272:STM32_WPAN/App/app_ble.c ****   {
 273:STM32_WPAN/App/app_ble.c ****     {{0,0,0}},                          /**< Header unused */
 274:STM32_WPAN/App/app_ble.c ****     {0,                                 /** pBleBufferAddress not used */
 275:STM32_WPAN/App/app_ble.c ****      0,                                 /** BleBufferSize not used */
 276:STM32_WPAN/App/app_ble.c ****      CFG_BLE_NUM_GATT_ATTRIBUTES,
 277:STM32_WPAN/App/app_ble.c ****      CFG_BLE_NUM_GATT_SERVICES,
 278:STM32_WPAN/App/app_ble.c ****      CFG_BLE_ATT_VALUE_ARRAY_SIZE,
 279:STM32_WPAN/App/app_ble.c ****      CFG_BLE_NUM_LINK,
 280:STM32_WPAN/App/app_ble.c ****      CFG_BLE_DATA_LENGTH_EXTENSION,
 281:STM32_WPAN/App/app_ble.c ****      CFG_BLE_PREPARE_WRITE_LIST_SIZE,
 282:STM32_WPAN/App/app_ble.c ****      CFG_BLE_MBLOCK_COUNT,
 283:STM32_WPAN/App/app_ble.c ****      CFG_BLE_MAX_ATT_MTU,
 284:STM32_WPAN/App/app_ble.c ****      CFG_BLE_PERIPHERAL_SCA,
 285:STM32_WPAN/App/app_ble.c ****      CFG_BLE_CENTRAL_SCA,
 286:STM32_WPAN/App/app_ble.c ****      CFG_BLE_LS_SOURCE,
 287:STM32_WPAN/App/app_ble.c ****      CFG_BLE_MAX_CONN_EVENT_LENGTH,
 288:STM32_WPAN/App/app_ble.c ****      CFG_BLE_HSE_STARTUP_TIME,
 289:STM32_WPAN/App/app_ble.c ****      CFG_BLE_VITERBI_MODE,
 290:STM32_WPAN/App/app_ble.c ****      CFG_BLE_OPTIONS,
 291:STM32_WPAN/App/app_ble.c ****      0,
 292:STM32_WPAN/App/app_ble.c ****      CFG_BLE_MAX_COC_INITIATOR_NBR,
 293:STM32_WPAN/App/app_ble.c ****      CFG_BLE_MIN_TX_POWER,
 294:STM32_WPAN/App/app_ble.c ****      CFG_BLE_MAX_TX_POWER,
 295:STM32_WPAN/App/app_ble.c ****      CFG_BLE_RX_MODEL_CONFIG,
 296:STM32_WPAN/App/app_ble.c ****      CFG_BLE_MAX_ADV_SET_NBR,
 297:STM32_WPAN/App/app_ble.c ****      CFG_BLE_MAX_ADV_DATA_LEN,
 298:STM32_WPAN/App/app_ble.c ****      CFG_BLE_TX_PATH_COMPENS,
 299:STM32_WPAN/App/app_ble.c ****      CFG_BLE_RX_PATH_COMPENS,
 300:STM32_WPAN/App/app_ble.c ****      CFG_BLE_CORE_VERSION,
 301:STM32_WPAN/App/app_ble.c ****      CFG_BLE_OPTIONS_EXT
 302:STM32_WPAN/App/app_ble.c ****     }
 303:STM32_WPAN/App/app_ble.c ****   };
 304:STM32_WPAN/App/app_ble.c **** 
 305:STM32_WPAN/App/app_ble.c ****   /**
 306:STM32_WPAN/App/app_ble.c ****    * Initialize Ble Transport Layer
 307:STM32_WPAN/App/app_ble.c ****    */
 308:STM32_WPAN/App/app_ble.c ****   Ble_Tl_Init();
 309:STM32_WPAN/App/app_ble.c **** 
 310:STM32_WPAN/App/app_ble.c ****   /**
 311:STM32_WPAN/App/app_ble.c ****    * Do not allow standby in the application
 312:STM32_WPAN/App/app_ble.c ****    */
 313:STM32_WPAN/App/app_ble.c ****   UTIL_LPM_SetOffMode(1 << CFG_LPM_APP_BLE, UTIL_LPM_DISABLE);
 314:STM32_WPAN/App/app_ble.c **** 
 315:STM32_WPAN/App/app_ble.c ****   /**
 316:STM32_WPAN/App/app_ble.c ****    * Register the hci transport layer to handle BLE User Asynchronous Events
ARM GAS  C:\Users\Nathan\AppData\Local\Temp\ccVM5ua8.s 			page 7


 317:STM32_WPAN/App/app_ble.c ****    */
 318:STM32_WPAN/App/app_ble.c ****   UTIL_SEQ_RegTask(1<<CFG_TASK_HCI_ASYNCH_EVT_ID, UTIL_SEQ_RFU, hci_user_evt_proc);
 319:STM32_WPAN/App/app_ble.c **** 
 320:STM32_WPAN/App/app_ble.c ****   /**
 321:STM32_WPAN/App/app_ble.c ****    * Starts the BLE Stack on CPU2
 322:STM32_WPAN/App/app_ble.c ****    */
 323:STM32_WPAN/App/app_ble.c ****   status = SHCI_C2_BLE_Init(&ble_init_cmd_packet);
 324:STM32_WPAN/App/app_ble.c ****   if (status != SHCI_Success)
 325:STM32_WPAN/App/app_ble.c ****   {
 326:STM32_WPAN/App/app_ble.c ****     APP_DBG_MSG("  Fail   : SHCI_C2_BLE_Init command, result: 0x%02x\n\r", status);
 327:STM32_WPAN/App/app_ble.c ****     /* if you are here, maybe CPU2 doesn't contain STM32WB_Copro_Wireless_Binaries, see Release_Not
 328:STM32_WPAN/App/app_ble.c ****     Error_Handler();
 329:STM32_WPAN/App/app_ble.c ****   }
 330:STM32_WPAN/App/app_ble.c ****   else
 331:STM32_WPAN/App/app_ble.c ****   {
 332:STM32_WPAN/App/app_ble.c ****     APP_DBG_MSG("  Success: SHCI_C2_BLE_Init command\n\r");
 333:STM32_WPAN/App/app_ble.c ****   }
 334:STM32_WPAN/App/app_ble.c **** 
 335:STM32_WPAN/App/app_ble.c ****   /**
 336:STM32_WPAN/App/app_ble.c ****    * Initialization of HCI & GATT & GAP layer
 337:STM32_WPAN/App/app_ble.c ****    */
 338:STM32_WPAN/App/app_ble.c ****   Ble_Hci_Gap_Gatt_Init();
 339:STM32_WPAN/App/app_ble.c **** 
 340:STM32_WPAN/App/app_ble.c ****   /**
 341:STM32_WPAN/App/app_ble.c ****    * Initialization of the BLE Services
 342:STM32_WPAN/App/app_ble.c ****    */
 343:STM32_WPAN/App/app_ble.c ****   SVCCTL_Init();
 344:STM32_WPAN/App/app_ble.c **** 
 345:STM32_WPAN/App/app_ble.c ****   /**
 346:STM32_WPAN/App/app_ble.c ****    * Initialization of the BLE App Context
 347:STM32_WPAN/App/app_ble.c ****    */
 348:STM32_WPAN/App/app_ble.c ****   BleApplicationContext.Device_Connection_Status = APP_BLE_IDLE;
 349:STM32_WPAN/App/app_ble.c ****   BleApplicationContext.BleApplicationContext_legacy.connectionHandle = 0xFFFF;
 350:STM32_WPAN/App/app_ble.c **** 
 351:STM32_WPAN/App/app_ble.c ****   /**
 352:STM32_WPAN/App/app_ble.c ****    * From here, all initialization are BLE application specific
 353:STM32_WPAN/App/app_ble.c ****    */
 354:STM32_WPAN/App/app_ble.c **** 
 355:STM32_WPAN/App/app_ble.c ****   UTIL_SEQ_RegTask(1<<CFG_TASK_ADV_CANCEL_ID, UTIL_SEQ_RFU, Adv_Cancel);
 356:STM32_WPAN/App/app_ble.c **** 
 357:STM32_WPAN/App/app_ble.c ****   /* USER CODE BEGIN APP_BLE_Init_4 */
 358:STM32_WPAN/App/app_ble.c **** 
 359:STM32_WPAN/App/app_ble.c ****   /* USER CODE END APP_BLE_Init_4 */
 360:STM32_WPAN/App/app_ble.c **** 
 361:STM32_WPAN/App/app_ble.c ****   /**
 362:STM32_WPAN/App/app_ble.c ****    * Initialization of ADV - Ad Manufacturer Element - Support OTA Bit Mask
 363:STM32_WPAN/App/app_ble.c ****    */
 364:STM32_WPAN/App/app_ble.c **** #if (RADIO_ACTIVITY_EVENT != 0)
 365:STM32_WPAN/App/app_ble.c ****   ret = aci_hal_set_radio_activity_mask(0x0006);
 366:STM32_WPAN/App/app_ble.c ****   if (ret != BLE_STATUS_SUCCESS)
 367:STM32_WPAN/App/app_ble.c ****   {
 368:STM32_WPAN/App/app_ble.c ****     APP_DBG_MSG("  Fail   : aci_hal_set_radio_activity_mask command, result: 0x%x \n\r", ret);
 369:STM32_WPAN/App/app_ble.c ****   }
 370:STM32_WPAN/App/app_ble.c ****   else
 371:STM32_WPAN/App/app_ble.c ****   {
 372:STM32_WPAN/App/app_ble.c ****     APP_DBG_MSG("  Success: aci_hal_set_radio_activity_mask command\n\r");
 373:STM32_WPAN/App/app_ble.c ****   }
ARM GAS  C:\Users\Nathan\AppData\Local\Temp\ccVM5ua8.s 			page 8


 374:STM32_WPAN/App/app_ble.c **** #endif /* RADIO_ACTIVITY_EVENT != 0 */
 375:STM32_WPAN/App/app_ble.c **** 
 376:STM32_WPAN/App/app_ble.c **** #if (L2CAP_REQUEST_NEW_CONN_PARAM != 0)
 377:STM32_WPAN/App/app_ble.c ****   index_con_int = 0;
 378:STM32_WPAN/App/app_ble.c ****   mutex = 1;
 379:STM32_WPAN/App/app_ble.c **** #endif /* L2CAP_REQUEST_NEW_CONN_PARAM != 0 */
 380:STM32_WPAN/App/app_ble.c **** 
 381:STM32_WPAN/App/app_ble.c ****   /**
 382:STM32_WPAN/App/app_ble.c ****    * Initialize Custom Template Application
 383:STM32_WPAN/App/app_ble.c ****    */
 384:STM32_WPAN/App/app_ble.c ****   Custom_APP_Init();
 385:STM32_WPAN/App/app_ble.c **** 
 386:STM32_WPAN/App/app_ble.c ****   /* USER CODE BEGIN APP_BLE_Init_3 */
 387:STM32_WPAN/App/app_ble.c **** 
 388:STM32_WPAN/App/app_ble.c ****   /* USER CODE END APP_BLE_Init_3 */
 389:STM32_WPAN/App/app_ble.c **** 
 390:STM32_WPAN/App/app_ble.c ****   /**
 391:STM32_WPAN/App/app_ble.c ****    * Make device discoverable
 392:STM32_WPAN/App/app_ble.c ****    */
 393:STM32_WPAN/App/app_ble.c ****   BleApplicationContext.BleApplicationContext_legacy.advtServUUID[0] = NULL;
 394:STM32_WPAN/App/app_ble.c ****   BleApplicationContext.BleApplicationContext_legacy.advtServUUIDlen = 0;
 395:STM32_WPAN/App/app_ble.c **** 
 396:STM32_WPAN/App/app_ble.c ****   /**
 397:STM32_WPAN/App/app_ble.c ****    * Start to Advertise to be connected by a Client
 398:STM32_WPAN/App/app_ble.c ****    */
 399:STM32_WPAN/App/app_ble.c ****   Adv_Request(APP_BLE_FAST_ADV);
 400:STM32_WPAN/App/app_ble.c **** 
 401:STM32_WPAN/App/app_ble.c ****   /* USER CODE BEGIN APP_BLE_Init_2 */
 402:STM32_WPAN/App/app_ble.c **** 
 403:STM32_WPAN/App/app_ble.c ****   /* USER CODE END APP_BLE_Init_2 */
 404:STM32_WPAN/App/app_ble.c **** 
 405:STM32_WPAN/App/app_ble.c ****   return;
 406:STM32_WPAN/App/app_ble.c **** }
 407:STM32_WPAN/App/app_ble.c **** 
 408:STM32_WPAN/App/app_ble.c **** SVCCTL_UserEvtFlowStatus_t SVCCTL_App_Notification(void *p_Pckt)
 409:STM32_WPAN/App/app_ble.c **** {
 410:STM32_WPAN/App/app_ble.c ****   hci_event_pckt    *p_event_pckt;
 411:STM32_WPAN/App/app_ble.c ****   evt_le_meta_event *p_meta_evt;
 412:STM32_WPAN/App/app_ble.c ****   evt_blecore_aci   *p_blecore_evt;
 413:STM32_WPAN/App/app_ble.c ****   tBleStatus        ret = BLE_STATUS_INVALID_PARAMS;
 414:STM32_WPAN/App/app_ble.c ****   hci_le_connection_complete_event_rp0        *p_connection_complete_event;
 415:STM32_WPAN/App/app_ble.c ****   hci_disconnection_complete_event_rp0        *p_disconnection_complete_event;
 416:STM32_WPAN/App/app_ble.c **** #if (CFG_DEBUG_APP_TRACE != 0)
 417:STM32_WPAN/App/app_ble.c ****   hci_le_connection_update_complete_event_rp0 *p_connection_update_complete_event;
 418:STM32_WPAN/App/app_ble.c **** #endif /* CFG_DEBUG_APP_TRACE != 0 */
 419:STM32_WPAN/App/app_ble.c **** 
 420:STM32_WPAN/App/app_ble.c ****   /* PAIRING */
 421:STM32_WPAN/App/app_ble.c ****   aci_gap_pairing_complete_event_rp0          *p_pairing_complete;
 422:STM32_WPAN/App/app_ble.c ****   /* PAIRING */
 423:STM32_WPAN/App/app_ble.c **** 
 424:STM32_WPAN/App/app_ble.c ****   /* USER CODE BEGIN SVCCTL_App_Notification */
 425:STM32_WPAN/App/app_ble.c **** 
 426:STM32_WPAN/App/app_ble.c ****   /* USER CODE END SVCCTL_App_Notification */
 427:STM32_WPAN/App/app_ble.c **** 
 428:STM32_WPAN/App/app_ble.c ****   p_event_pckt = (hci_event_pckt*) ((hci_uart_pckt *) p_Pckt)->data;
 429:STM32_WPAN/App/app_ble.c **** 
 430:STM32_WPAN/App/app_ble.c ****   switch (p_event_pckt->evt)
ARM GAS  C:\Users\Nathan\AppData\Local\Temp\ccVM5ua8.s 			page 9


 431:STM32_WPAN/App/app_ble.c ****   {
 432:STM32_WPAN/App/app_ble.c ****     case HCI_DISCONNECTION_COMPLETE_EVT_CODE:
 433:STM32_WPAN/App/app_ble.c ****     {
 434:STM32_WPAN/App/app_ble.c ****       p_disconnection_complete_event = (hci_disconnection_complete_event_rp0 *) p_event_pckt->data;
 435:STM32_WPAN/App/app_ble.c **** 
 436:STM32_WPAN/App/app_ble.c ****       if (p_disconnection_complete_event->Connection_Handle == BleApplicationContext.BleApplication
 437:STM32_WPAN/App/app_ble.c ****       {
 438:STM32_WPAN/App/app_ble.c ****         BleApplicationContext.BleApplicationContext_legacy.connectionHandle = 0;
 439:STM32_WPAN/App/app_ble.c ****         BleApplicationContext.Device_Connection_Status = APP_BLE_IDLE;
 440:STM32_WPAN/App/app_ble.c ****         APP_DBG_MSG(">>== HCI_DISCONNECTION_COMPLETE_EVT_CODE\n");
 441:STM32_WPAN/App/app_ble.c ****         APP_DBG_MSG("     - Connection Handle:   0x%x\n     - Reason:    0x%x\n\r",
 442:STM32_WPAN/App/app_ble.c ****                     p_disconnection_complete_event->Connection_Handle,
 443:STM32_WPAN/App/app_ble.c ****                     p_disconnection_complete_event->Reason);
 444:STM32_WPAN/App/app_ble.c **** 
 445:STM32_WPAN/App/app_ble.c ****         /* USER CODE BEGIN EVT_DISCONN_COMPLETE_2 */
 446:STM32_WPAN/App/app_ble.c **** 
 447:STM32_WPAN/App/app_ble.c ****         /* USER CODE END EVT_DISCONN_COMPLETE_2 */
 448:STM32_WPAN/App/app_ble.c ****       }
 449:STM32_WPAN/App/app_ble.c **** 
 450:STM32_WPAN/App/app_ble.c ****       /* USER CODE BEGIN EVT_DISCONN_COMPLETE_1 */
 451:STM32_WPAN/App/app_ble.c **** 
 452:STM32_WPAN/App/app_ble.c ****       /* USER CODE END EVT_DISCONN_COMPLETE_1 */
 453:STM32_WPAN/App/app_ble.c **** 
 454:STM32_WPAN/App/app_ble.c ****       /* restart advertising */
 455:STM32_WPAN/App/app_ble.c ****       Adv_Request(APP_BLE_FAST_ADV);
 456:STM32_WPAN/App/app_ble.c **** 
 457:STM32_WPAN/App/app_ble.c ****       /**
 458:STM32_WPAN/App/app_ble.c ****        * SPECIFIC to Custom Template APP
 459:STM32_WPAN/App/app_ble.c ****        */
 460:STM32_WPAN/App/app_ble.c ****       HandleNotification.Custom_Evt_Opcode = CUSTOM_DISCON_HANDLE_EVT;
 461:STM32_WPAN/App/app_ble.c ****       HandleNotification.ConnectionHandle = BleApplicationContext.BleApplicationContext_legacy.conn
 462:STM32_WPAN/App/app_ble.c ****       Custom_APP_Notification(&HandleNotification);
 463:STM32_WPAN/App/app_ble.c ****       /* USER CODE BEGIN EVT_DISCONN_COMPLETE */
 464:STM32_WPAN/App/app_ble.c **** 
 465:STM32_WPAN/App/app_ble.c ****       /* USER CODE END EVT_DISCONN_COMPLETE */
 466:STM32_WPAN/App/app_ble.c ****       break; /* HCI_DISCONNECTION_COMPLETE_EVT_CODE */
 467:STM32_WPAN/App/app_ble.c ****     }
 468:STM32_WPAN/App/app_ble.c **** 
 469:STM32_WPAN/App/app_ble.c ****     case HCI_HARDWARE_ERROR_EVT_CODE:
 470:STM32_WPAN/App/app_ble.c ****     {
 471:STM32_WPAN/App/app_ble.c ****       hci_hardware_error_event_rp0 *p_hardware_error_event;
 472:STM32_WPAN/App/app_ble.c **** 
 473:STM32_WPAN/App/app_ble.c ****       p_hardware_error_event = (hci_hardware_error_event_rp0 *)p_event_pckt->data;
 474:STM32_WPAN/App/app_ble.c **** 	  UNUSED(p_hardware_error_event);
 475:STM32_WPAN/App/app_ble.c ****       APP_DBG_MSG(">>== HCI_HARDWARE_ERROR_EVT_CODE\n");
 476:STM32_WPAN/App/app_ble.c ****       APP_DBG_MSG("Hardware Code = 0x%02X\n",p_hardware_error_event->Hardware_Code);
 477:STM32_WPAN/App/app_ble.c ****       /* USER CODE BEGIN HCI_EVT_LE_HARDWARE_ERROR */
 478:STM32_WPAN/App/app_ble.c **** 
 479:STM32_WPAN/App/app_ble.c ****       /* USER CODE END HCI_EVT_LE_HARDWARE_ERROR */
 480:STM32_WPAN/App/app_ble.c ****       break; /* HCI_HARDWARE_ERROR_EVT_CODE */
 481:STM32_WPAN/App/app_ble.c ****     }
 482:STM32_WPAN/App/app_ble.c **** 
 483:STM32_WPAN/App/app_ble.c ****     case HCI_LE_META_EVT_CODE:
 484:STM32_WPAN/App/app_ble.c ****     {
 485:STM32_WPAN/App/app_ble.c ****       p_meta_evt = (evt_le_meta_event*) p_event_pckt->data;
 486:STM32_WPAN/App/app_ble.c ****       /* USER CODE BEGIN EVT_LE_META_EVENT */
 487:STM32_WPAN/App/app_ble.c **** 
ARM GAS  C:\Users\Nathan\AppData\Local\Temp\ccVM5ua8.s 			page 10


 488:STM32_WPAN/App/app_ble.c ****       /* USER CODE END EVT_LE_META_EVENT */
 489:STM32_WPAN/App/app_ble.c ****       switch (p_meta_evt->subevent)
 490:STM32_WPAN/App/app_ble.c ****       {
 491:STM32_WPAN/App/app_ble.c ****         case HCI_LE_CONNECTION_UPDATE_COMPLETE_SUBEVT_CODE:
 492:STM32_WPAN/App/app_ble.c **** #if (CFG_DEBUG_APP_TRACE != 0)
 493:STM32_WPAN/App/app_ble.c ****           p_connection_update_complete_event = (hci_le_connection_update_complete_event_rp0 *) p_me
 494:STM32_WPAN/App/app_ble.c ****           APP_DBG_MSG(">>== HCI_LE_CONNECTION_UPDATE_COMPLETE_SUBEVT_CODE\n");
 495:STM32_WPAN/App/app_ble.c ****           APP_DBG_MSG("     - Connection Interval:   %.2f ms\n     - Connection latency:    %d\n   
 496:STM32_WPAN/App/app_ble.c ****                        p_connection_update_complete_event->Conn_Interval*1.25,
 497:STM32_WPAN/App/app_ble.c ****                        p_connection_update_complete_event->Conn_Latency,
 498:STM32_WPAN/App/app_ble.c ****                        p_connection_update_complete_event->Supervision_Timeout*10);
 499:STM32_WPAN/App/app_ble.c **** #endif /* CFG_DEBUG_APP_TRACE != 0 */
 500:STM32_WPAN/App/app_ble.c **** 
 501:STM32_WPAN/App/app_ble.c ****           /* USER CODE BEGIN EVT_LE_CONN_UPDATE_COMPLETE */
 502:STM32_WPAN/App/app_ble.c **** 
 503:STM32_WPAN/App/app_ble.c ****           /* USER CODE END EVT_LE_CONN_UPDATE_COMPLETE */
 504:STM32_WPAN/App/app_ble.c ****           break;
 505:STM32_WPAN/App/app_ble.c **** 
 506:STM32_WPAN/App/app_ble.c ****         case HCI_LE_CONNECTION_COMPLETE_SUBEVT_CODE:
 507:STM32_WPAN/App/app_ble.c ****         {
 508:STM32_WPAN/App/app_ble.c ****           p_connection_complete_event = (hci_le_connection_complete_event_rp0 *) p_meta_evt->data;
 509:STM32_WPAN/App/app_ble.c ****           /**
 510:STM32_WPAN/App/app_ble.c ****            * The connection is done, there is no need anymore to schedule the LP ADV
 511:STM32_WPAN/App/app_ble.c ****            */
 512:STM32_WPAN/App/app_ble.c **** 
 513:STM32_WPAN/App/app_ble.c ****           APP_DBG_MSG(">>== HCI_LE_CONNECTION_COMPLETE_SUBEVT_CODE - Connection handle: 0x%x\n", p_
 514:STM32_WPAN/App/app_ble.c ****           APP_DBG_MSG("     - Connection established with Central: @:%02x:%02x:%02x:%02x:%02x:%02x\
 515:STM32_WPAN/App/app_ble.c ****                       p_connection_complete_event->Peer_Address[5],
 516:STM32_WPAN/App/app_ble.c ****                       p_connection_complete_event->Peer_Address[4],
 517:STM32_WPAN/App/app_ble.c ****                       p_connection_complete_event->Peer_Address[3],
 518:STM32_WPAN/App/app_ble.c ****                       p_connection_complete_event->Peer_Address[2],
 519:STM32_WPAN/App/app_ble.c ****                       p_connection_complete_event->Peer_Address[1],
 520:STM32_WPAN/App/app_ble.c ****                       p_connection_complete_event->Peer_Address[0]);
 521:STM32_WPAN/App/app_ble.c ****           APP_DBG_MSG("     - Connection Interval:   %.2f ms\n     - Connection latency:    %d\n   
 522:STM32_WPAN/App/app_ble.c ****                       p_connection_complete_event->Conn_Interval*1.25,
 523:STM32_WPAN/App/app_ble.c ****                       p_connection_complete_event->Conn_Latency,
 524:STM32_WPAN/App/app_ble.c ****                       p_connection_complete_event->Supervision_Timeout*10
 525:STM32_WPAN/App/app_ble.c ****                      );
 526:STM32_WPAN/App/app_ble.c **** 
 527:STM32_WPAN/App/app_ble.c ****           if (BleApplicationContext.Device_Connection_Status == APP_BLE_LP_CONNECTING)
 528:STM32_WPAN/App/app_ble.c ****           {
 529:STM32_WPAN/App/app_ble.c ****             /* Connection as client */
 530:STM32_WPAN/App/app_ble.c ****             BleApplicationContext.Device_Connection_Status = APP_BLE_CONNECTED_CLIENT;
 531:STM32_WPAN/App/app_ble.c ****           }
 532:STM32_WPAN/App/app_ble.c ****           else
 533:STM32_WPAN/App/app_ble.c ****           {
 534:STM32_WPAN/App/app_ble.c ****             /* Connection as server */
 535:STM32_WPAN/App/app_ble.c ****             BleApplicationContext.Device_Connection_Status = APP_BLE_CONNECTED_SERVER;
 536:STM32_WPAN/App/app_ble.c ****           }
 537:STM32_WPAN/App/app_ble.c ****           BleApplicationContext.BleApplicationContext_legacy.connectionHandle = p_connection_comple
 538:STM32_WPAN/App/app_ble.c ****           /**
 539:STM32_WPAN/App/app_ble.c ****            * SPECIFIC to Custom Template APP
 540:STM32_WPAN/App/app_ble.c ****            */
 541:STM32_WPAN/App/app_ble.c ****           HandleNotification.Custom_Evt_Opcode = CUSTOM_CONN_HANDLE_EVT;
 542:STM32_WPAN/App/app_ble.c ****           HandleNotification.ConnectionHandle = BleApplicationContext.BleApplicationContext_legacy.
 543:STM32_WPAN/App/app_ble.c ****           Custom_APP_Notification(&HandleNotification);
 544:STM32_WPAN/App/app_ble.c ****           /* USER CODE BEGIN HCI_EVT_LE_CONN_COMPLETE */
ARM GAS  C:\Users\Nathan\AppData\Local\Temp\ccVM5ua8.s 			page 11


 545:STM32_WPAN/App/app_ble.c **** 
 546:STM32_WPAN/App/app_ble.c ****           /* USER CODE END HCI_EVT_LE_CONN_COMPLETE */
 547:STM32_WPAN/App/app_ble.c ****           break; /* HCI_LE_CONNECTION_COMPLETE_SUBEVT_CODE */
 548:STM32_WPAN/App/app_ble.c ****         }
 549:STM32_WPAN/App/app_ble.c **** 
 550:STM32_WPAN/App/app_ble.c ****         default:
 551:STM32_WPAN/App/app_ble.c ****           /* USER CODE BEGIN SUBEVENT_DEFAULT */
 552:STM32_WPAN/App/app_ble.c **** 
 553:STM32_WPAN/App/app_ble.c ****           /* USER CODE END SUBEVENT_DEFAULT */
 554:STM32_WPAN/App/app_ble.c ****           break;
 555:STM32_WPAN/App/app_ble.c ****       }
 556:STM32_WPAN/App/app_ble.c **** 
 557:STM32_WPAN/App/app_ble.c ****       /* USER CODE BEGIN META_EVT */
 558:STM32_WPAN/App/app_ble.c **** 
 559:STM32_WPAN/App/app_ble.c ****       /* USER CODE END META_EVT */
 560:STM32_WPAN/App/app_ble.c ****       break; /* HCI_LE_META_EVT_CODE */
 561:STM32_WPAN/App/app_ble.c ****     }
 562:STM32_WPAN/App/app_ble.c **** 
 563:STM32_WPAN/App/app_ble.c ****     case HCI_VENDOR_SPECIFIC_DEBUG_EVT_CODE:
 564:STM32_WPAN/App/app_ble.c ****       p_blecore_evt = (evt_blecore_aci*) p_event_pckt->data;
 565:STM32_WPAN/App/app_ble.c ****       /* USER CODE BEGIN EVT_VENDOR */
 566:STM32_WPAN/App/app_ble.c **** 
 567:STM32_WPAN/App/app_ble.c ****       /* USER CODE END EVT_VENDOR */
 568:STM32_WPAN/App/app_ble.c ****       switch (p_blecore_evt->ecode)
 569:STM32_WPAN/App/app_ble.c ****       {
 570:STM32_WPAN/App/app_ble.c ****         /* USER CODE BEGIN ecode */
 571:STM32_WPAN/App/app_ble.c **** 
 572:STM32_WPAN/App/app_ble.c ****         /* USER CODE END ecode */
 573:STM32_WPAN/App/app_ble.c **** 
 574:STM32_WPAN/App/app_ble.c ****         /**
 575:STM32_WPAN/App/app_ble.c ****          * SPECIFIC to Custom Template APP
 576:STM32_WPAN/App/app_ble.c ****          */
 577:STM32_WPAN/App/app_ble.c ****         case ACI_L2CAP_CONNECTION_UPDATE_RESP_VSEVT_CODE:
 578:STM32_WPAN/App/app_ble.c **** #if (L2CAP_REQUEST_NEW_CONN_PARAM != 0)
 579:STM32_WPAN/App/app_ble.c ****           mutex = 1;
 580:STM32_WPAN/App/app_ble.c **** #endif /* L2CAP_REQUEST_NEW_CONN_PARAM != 0 */
 581:STM32_WPAN/App/app_ble.c ****           /* USER CODE BEGIN EVT_BLUE_L2CAP_CONNECTION_UPDATE_RESP */
 582:STM32_WPAN/App/app_ble.c **** 
 583:STM32_WPAN/App/app_ble.c ****           /* USER CODE END EVT_BLUE_L2CAP_CONNECTION_UPDATE_RESP */
 584:STM32_WPAN/App/app_ble.c ****           break;
 585:STM32_WPAN/App/app_ble.c **** 
 586:STM32_WPAN/App/app_ble.c ****         case ACI_GAP_PROC_COMPLETE_VSEVT_CODE:
 587:STM32_WPAN/App/app_ble.c ****           APP_DBG_MSG(">>== ACI_GAP_PROC_COMPLETE_VSEVT_CODE \r");
 588:STM32_WPAN/App/app_ble.c ****           /* USER CODE BEGIN EVT_BLUE_GAP_PROCEDURE_COMPLETE */
 589:STM32_WPAN/App/app_ble.c **** 
 590:STM32_WPAN/App/app_ble.c ****           /* USER CODE END EVT_BLUE_GAP_PROCEDURE_COMPLETE */
 591:STM32_WPAN/App/app_ble.c ****           break; /* ACI_GAP_PROC_COMPLETE_VSEVT_CODE */
 592:STM32_WPAN/App/app_ble.c **** 
 593:STM32_WPAN/App/app_ble.c **** #if (RADIO_ACTIVITY_EVENT != 0)
 594:STM32_WPAN/App/app_ble.c ****         case ACI_HAL_END_OF_RADIO_ACTIVITY_VSEVT_CODE:
 595:STM32_WPAN/App/app_ble.c ****           /* USER CODE BEGIN RADIO_ACTIVITY_EVENT*/
 596:STM32_WPAN/App/app_ble.c **** 
 597:STM32_WPAN/App/app_ble.c ****           /* USER CODE END RADIO_ACTIVITY_EVENT*/
 598:STM32_WPAN/App/app_ble.c ****           break; /* ACI_HAL_END_OF_RADIO_ACTIVITY_VSEVT_CODE */
 599:STM32_WPAN/App/app_ble.c **** #endif /* RADIO_ACTIVITY_EVENT != 0 */
 600:STM32_WPAN/App/app_ble.c **** 
 601:STM32_WPAN/App/app_ble.c ****         /* PAIRING */
ARM GAS  C:\Users\Nathan\AppData\Local\Temp\ccVM5ua8.s 			page 12


 602:STM32_WPAN/App/app_ble.c ****         case (ACI_GAP_KEYPRESS_NOTIFICATION_VSEVT_CODE):
 603:STM32_WPAN/App/app_ble.c ****           APP_DBG_MSG(">>== ACI_GAP_KEYPRESS_NOTIFICATION_VSEVT_CODE\n");
 604:STM32_WPAN/App/app_ble.c ****           /* USER CODE BEGIN ACI_GAP_KEYPRESS_NOTIFICATION_VSEVT_CODE*/
 605:STM32_WPAN/App/app_ble.c **** 
 606:STM32_WPAN/App/app_ble.c ****           /* USER CODE END ACI_GAP_KEYPRESS_NOTIFICATION_VSEVT_CODE*/
 607:STM32_WPAN/App/app_ble.c ****           break;
 608:STM32_WPAN/App/app_ble.c **** 
 609:STM32_WPAN/App/app_ble.c ****         case ACI_GAP_PASS_KEY_REQ_VSEVT_CODE:
 610:STM32_WPAN/App/app_ble.c ****           APP_DBG_MSG(">>== ACI_GAP_PASS_KEY_REQ_VSEVT_CODE \n");
 611:STM32_WPAN/App/app_ble.c **** 
 612:STM32_WPAN/App/app_ble.c ****           ret = aci_gap_pass_key_resp(BleApplicationContext.BleApplicationContext_legacy.connection
 613:STM32_WPAN/App/app_ble.c ****           if (ret != BLE_STATUS_SUCCESS)
 614:STM32_WPAN/App/app_ble.c ****           {
 615:STM32_WPAN/App/app_ble.c ****             APP_DBG_MSG("==>> aci_gap_pass_key_resp : Fail, reason: 0x%x\n", ret);
 616:STM32_WPAN/App/app_ble.c ****           }
 617:STM32_WPAN/App/app_ble.c ****           else
 618:STM32_WPAN/App/app_ble.c ****           {
 619:STM32_WPAN/App/app_ble.c ****             APP_DBG_MSG("==>> aci_gap_pass_key_resp : Success \n");
 620:STM32_WPAN/App/app_ble.c ****           }
 621:STM32_WPAN/App/app_ble.c ****           /* USER CODE BEGIN ACI_GAP_PASS_KEY_REQ_VSEVT_CODE*/
 622:STM32_WPAN/App/app_ble.c **** 
 623:STM32_WPAN/App/app_ble.c ****           /* USER CODE END ACI_GAP_PASS_KEY_REQ_VSEVT_CODE*/
 624:STM32_WPAN/App/app_ble.c ****           break;
 625:STM32_WPAN/App/app_ble.c **** 
 626:STM32_WPAN/App/app_ble.c ****         case ACI_GAP_NUMERIC_COMPARISON_VALUE_VSEVT_CODE:
 627:STM32_WPAN/App/app_ble.c ****           APP_DBG_MSG(">>== ACI_GAP_NUMERIC_COMPARISON_VALUE_VSEVT_CODE\n");
 628:STM32_WPAN/App/app_ble.c ****           APP_DBG_MSG("     - numeric_value = %ld\n",
 629:STM32_WPAN/App/app_ble.c ****                       ((aci_gap_numeric_comparison_value_event_rp0 *)(p_blecore_evt->data))->Numeri
 630:STM32_WPAN/App/app_ble.c ****           APP_DBG_MSG("     - Hex_value = %lx\n",
 631:STM32_WPAN/App/app_ble.c ****                       ((aci_gap_numeric_comparison_value_event_rp0 *)(p_blecore_evt->data))->Numeri
 632:STM32_WPAN/App/app_ble.c ****           ret = aci_gap_numeric_comparison_value_confirm_yesno(BleApplicationContext.BleApplication
 633:STM32_WPAN/App/app_ble.c ****           if (ret != BLE_STATUS_SUCCESS)
 634:STM32_WPAN/App/app_ble.c ****           {
 635:STM32_WPAN/App/app_ble.c ****             APP_DBG_MSG("==>> aci_gap_numeric_comparison_value_confirm_yesno-->YES : Fail, reason: 
 636:STM32_WPAN/App/app_ble.c ****           }
 637:STM32_WPAN/App/app_ble.c ****           else
 638:STM32_WPAN/App/app_ble.c ****           {
 639:STM32_WPAN/App/app_ble.c ****             APP_DBG_MSG("==>> aci_gap_numeric_comparison_value_confirm_yesno-->YES : Success \n");
 640:STM32_WPAN/App/app_ble.c ****           }
 641:STM32_WPAN/App/app_ble.c ****           /* USER CODE BEGIN ACI_GAP_NUMERIC_COMPARISON_VALUE_VSEVT_CODE*/
 642:STM32_WPAN/App/app_ble.c **** 
 643:STM32_WPAN/App/app_ble.c ****           /* USER CODE END ACI_GAP_NUMERIC_COMPARISON_VALUE_VSEVT_CODE*/
 644:STM32_WPAN/App/app_ble.c ****           break;
 645:STM32_WPAN/App/app_ble.c **** 
 646:STM32_WPAN/App/app_ble.c ****         case ACI_GAP_PAIRING_COMPLETE_VSEVT_CODE:
 647:STM32_WPAN/App/app_ble.c ****           p_pairing_complete = (aci_gap_pairing_complete_event_rp0*)p_blecore_evt->data;
 648:STM32_WPAN/App/app_ble.c **** 
 649:STM32_WPAN/App/app_ble.c ****           APP_DBG_MSG(">>== ACI_GAP_PAIRING_COMPLETE_VSEVT_CODE\n");
 650:STM32_WPAN/App/app_ble.c ****           if (p_pairing_complete->Status != 0)
 651:STM32_WPAN/App/app_ble.c ****           {
 652:STM32_WPAN/App/app_ble.c ****             APP_DBG_MSG("     - Pairing KO \n     - Status: 0x%x\n     - Reason: 0x%x\n", p_pairing
 653:STM32_WPAN/App/app_ble.c ****           }
 654:STM32_WPAN/App/app_ble.c ****           else
 655:STM32_WPAN/App/app_ble.c ****           {
 656:STM32_WPAN/App/app_ble.c ****             APP_DBG_MSG("     - Pairing Success\n");
 657:STM32_WPAN/App/app_ble.c ****           }
 658:STM32_WPAN/App/app_ble.c ****           APP_DBG_MSG("\n");
ARM GAS  C:\Users\Nathan\AppData\Local\Temp\ccVM5ua8.s 			page 13


 659:STM32_WPAN/App/app_ble.c **** 
 660:STM32_WPAN/App/app_ble.c ****           /* USER CODE BEGIN ACI_GAP_PAIRING_COMPLETE_VSEVT_CODE*/
 661:STM32_WPAN/App/app_ble.c **** 
 662:STM32_WPAN/App/app_ble.c ****           /* USER CODE END ACI_GAP_PAIRING_COMPLETE_VSEVT_CODE*/
 663:STM32_WPAN/App/app_ble.c ****           break;
 664:STM32_WPAN/App/app_ble.c ****         /* PAIRING */
 665:STM32_WPAN/App/app_ble.c ****         case ACI_GATT_INDICATION_VSEVT_CODE:
 666:STM32_WPAN/App/app_ble.c ****         {
 667:STM32_WPAN/App/app_ble.c ****           APP_DBG_MSG(">>== ACI_GATT_INDICATION_VSEVT_CODE \r");
 668:STM32_WPAN/App/app_ble.c ****           aci_gatt_confirm_indication(BleApplicationContext.BleApplicationContext_legacy.connection
 669:STM32_WPAN/App/app_ble.c ****         }
 670:STM32_WPAN/App/app_ble.c ****         break;
 671:STM32_WPAN/App/app_ble.c **** 
 672:STM32_WPAN/App/app_ble.c ****         case ACI_HAL_WARNING_VSEVT_CODE:
 673:STM32_WPAN/App/app_ble.c ****         {
 674:STM32_WPAN/App/app_ble.c ****           aci_hal_warning_event_rp0 *p_warning_event;
 675:STM32_WPAN/App/app_ble.c **** 
 676:STM32_WPAN/App/app_ble.c **** 	      p_warning_event = (aci_hal_warning_event_rp0 *)p_blecore_evt->data;
 677:STM32_WPAN/App/app_ble.c **** 		  UNUSED(p_warning_event);
 678:STM32_WPAN/App/app_ble.c ****           APP_DBG_MSG(">>== ACI_HAL_WARNING_VSEVT_CODE\n");
 679:STM32_WPAN/App/app_ble.c ****           APP_DBG_MSG("Warning Type = 0x%02X\n", p_warning_event->Warning_Type);
 680:STM32_WPAN/App/app_ble.c **** 	      /* USER CODE BEGIN ACI_HAL_WARNING_VSEVT_CODE */
 681:STM32_WPAN/App/app_ble.c **** 
 682:STM32_WPAN/App/app_ble.c ****           /* USER CODE END ACI_HAL_WARNING_VSEVT_CODE */
 683:STM32_WPAN/App/app_ble.c ****           break;
 684:STM32_WPAN/App/app_ble.c ****         }
 685:STM32_WPAN/App/app_ble.c ****         /* USER CODE BEGIN BLUE_EVT */
 686:STM32_WPAN/App/app_ble.c **** 
 687:STM32_WPAN/App/app_ble.c ****         /* USER CODE END BLUE_EVT */
 688:STM32_WPAN/App/app_ble.c ****       }
 689:STM32_WPAN/App/app_ble.c ****       break; /* HCI_VENDOR_SPECIFIC_DEBUG_EVT_CODE */
 690:STM32_WPAN/App/app_ble.c **** 
 691:STM32_WPAN/App/app_ble.c ****       /* USER CODE BEGIN EVENT_PCKT */
 692:STM32_WPAN/App/app_ble.c **** 
 693:STM32_WPAN/App/app_ble.c ****       /* USER CODE END EVENT_PCKT */
 694:STM32_WPAN/App/app_ble.c **** 
 695:STM32_WPAN/App/app_ble.c ****     default:
 696:STM32_WPAN/App/app_ble.c ****       /* USER CODE BEGIN ECODE_DEFAULT*/
 697:STM32_WPAN/App/app_ble.c **** 
 698:STM32_WPAN/App/app_ble.c ****       /* USER CODE END ECODE_DEFAULT*/
 699:STM32_WPAN/App/app_ble.c ****       break;
 700:STM32_WPAN/App/app_ble.c ****   }
 701:STM32_WPAN/App/app_ble.c **** 
 702:STM32_WPAN/App/app_ble.c ****   return (SVCCTL_UserEvtFlowEnable);
 703:STM32_WPAN/App/app_ble.c **** }
 704:STM32_WPAN/App/app_ble.c **** 
 705:STM32_WPAN/App/app_ble.c **** APP_BLE_ConnStatus_t APP_BLE_Get_Server_Connection_Status(void)
 706:STM32_WPAN/App/app_ble.c **** {
 707:STM32_WPAN/App/app_ble.c ****   return BleApplicationContext.Device_Connection_Status;
 708:STM32_WPAN/App/app_ble.c **** }
 709:STM32_WPAN/App/app_ble.c **** 
 710:STM32_WPAN/App/app_ble.c **** /* USER CODE BEGIN FD*/
 711:STM32_WPAN/App/app_ble.c **** 
 712:STM32_WPAN/App/app_ble.c **** /* USER CODE END FD*/
 713:STM32_WPAN/App/app_ble.c **** 
 714:STM32_WPAN/App/app_ble.c **** /*************************************************************
 715:STM32_WPAN/App/app_ble.c ****  *
ARM GAS  C:\Users\Nathan\AppData\Local\Temp\ccVM5ua8.s 			page 14


 716:STM32_WPAN/App/app_ble.c ****  * LOCAL FUNCTIONS
 717:STM32_WPAN/App/app_ble.c ****  *
 718:STM32_WPAN/App/app_ble.c ****  *************************************************************/
 719:STM32_WPAN/App/app_ble.c **** static void Ble_Tl_Init(void)
 720:STM32_WPAN/App/app_ble.c **** {
 721:STM32_WPAN/App/app_ble.c ****   HCI_TL_HciInitConf_t Hci_Tl_Init_Conf;
 722:STM32_WPAN/App/app_ble.c **** 
 723:STM32_WPAN/App/app_ble.c ****   Hci_Tl_Init_Conf.p_cmdbuffer = (uint8_t*)&BleCmdBuffer;
 724:STM32_WPAN/App/app_ble.c ****   Hci_Tl_Init_Conf.StatusNotCallBack = BLE_StatusNot;
 725:STM32_WPAN/App/app_ble.c ****   hci_init(BLE_UserEvtRx, (void*) &Hci_Tl_Init_Conf);
 726:STM32_WPAN/App/app_ble.c **** 
 727:STM32_WPAN/App/app_ble.c ****   return;
 728:STM32_WPAN/App/app_ble.c **** }
 729:STM32_WPAN/App/app_ble.c **** 
 730:STM32_WPAN/App/app_ble.c **** static void Ble_Hci_Gap_Gatt_Init(void)
 731:STM32_WPAN/App/app_ble.c **** {
 732:STM32_WPAN/App/app_ble.c ****   uint8_t role;
 733:STM32_WPAN/App/app_ble.c ****   uint16_t gap_service_handle, gap_dev_name_char_handle, gap_appearance_char_handle;
 734:STM32_WPAN/App/app_ble.c ****   const uint8_t *p_bd_addr;
 735:STM32_WPAN/App/app_ble.c ****   uint16_t a_appearance[1] = {BLE_CFG_GAP_APPEARANCE};
 736:STM32_WPAN/App/app_ble.c ****   tBleStatus ret = BLE_STATUS_INVALID_PARAMS;
 737:STM32_WPAN/App/app_ble.c ****   /* USER CODE BEGIN Ble_Hci_Gap_Gatt_Init*/
 738:STM32_WPAN/App/app_ble.c **** 
 739:STM32_WPAN/App/app_ble.c ****   /* USER CODE END Ble_Hci_Gap_Gatt_Init*/
 740:STM32_WPAN/App/app_ble.c **** 
 741:STM32_WPAN/App/app_ble.c ****   APP_DBG_MSG("==>> Start Ble_Hci_Gap_Gatt_Init function\n");
 742:STM32_WPAN/App/app_ble.c **** 
 743:STM32_WPAN/App/app_ble.c ****   /**
 744:STM32_WPAN/App/app_ble.c ****    * Initialize HCI layer
 745:STM32_WPAN/App/app_ble.c ****    */
 746:STM32_WPAN/App/app_ble.c ****   /*HCI Reset to synchronise BLE Stack*/
 747:STM32_WPAN/App/app_ble.c ****   ret = hci_reset();
 748:STM32_WPAN/App/app_ble.c ****   if (ret != BLE_STATUS_SUCCESS)
 749:STM32_WPAN/App/app_ble.c ****   {
 750:STM32_WPAN/App/app_ble.c ****     APP_DBG_MSG("  Fail   : hci_reset command, result: 0x%x \n", ret);
 751:STM32_WPAN/App/app_ble.c ****   }
 752:STM32_WPAN/App/app_ble.c ****   else
 753:STM32_WPAN/App/app_ble.c ****   {
 754:STM32_WPAN/App/app_ble.c ****     APP_DBG_MSG("  Success: hci_reset command\n");
 755:STM32_WPAN/App/app_ble.c ****   }
 756:STM32_WPAN/App/app_ble.c **** 
 757:STM32_WPAN/App/app_ble.c ****   /**
 758:STM32_WPAN/App/app_ble.c ****    * Write the BD Address
 759:STM32_WPAN/App/app_ble.c ****    */
 760:STM32_WPAN/App/app_ble.c ****   p_bd_addr = BleGetBdAddress();
 761:STM32_WPAN/App/app_ble.c ****   ret = aci_hal_write_config_data(CONFIG_DATA_PUBLIC_ADDRESS_OFFSET, CONFIG_DATA_PUBLIC_ADDRESS_LEN
 762:STM32_WPAN/App/app_ble.c ****   if (ret != BLE_STATUS_SUCCESS)
 763:STM32_WPAN/App/app_ble.c ****   {
 764:STM32_WPAN/App/app_ble.c ****     APP_DBG_MSG("  Fail   : aci_hal_write_config_data command - CONFIG_DATA_PUBLIC_ADDRESS_OFFSET, 
 765:STM32_WPAN/App/app_ble.c ****   }
 766:STM32_WPAN/App/app_ble.c ****   else
 767:STM32_WPAN/App/app_ble.c ****   {
 768:STM32_WPAN/App/app_ble.c ****     APP_DBG_MSG("  Success: aci_hal_write_config_data command - CONFIG_DATA_PUBLIC_ADDRESS_OFFSET\n
 769:STM32_WPAN/App/app_ble.c ****     APP_DBG_MSG("  Public Bluetooth Address: %02x:%02x:%02x:%02x:%02x:%02x\n",p_bd_addr[5],p_bd_add
 770:STM32_WPAN/App/app_ble.c ****   }
 771:STM32_WPAN/App/app_ble.c **** 
 772:STM32_WPAN/App/app_ble.c ****   /**
ARM GAS  C:\Users\Nathan\AppData\Local\Temp\ccVM5ua8.s 			page 15


 773:STM32_WPAN/App/app_ble.c ****    * Static random Address
 774:STM32_WPAN/App/app_ble.c ****    * The two upper bits shall be set to 1
 775:STM32_WPAN/App/app_ble.c ****    * The lowest 32bits is read from the UDN to differentiate between devices
 776:STM32_WPAN/App/app_ble.c ****    * The RNG may be used to provide a random number on each power on
 777:STM32_WPAN/App/app_ble.c ****    */
 778:STM32_WPAN/App/app_ble.c **** #if (CFG_BLE_ADDRESS_TYPE != GAP_PUBLIC_ADDR)
 779:STM32_WPAN/App/app_ble.c **** 
 780:STM32_WPAN/App/app_ble.c ****   ret = aci_hal_write_config_data(CONFIG_DATA_RANDOM_ADDRESS_OFFSET, CONFIG_DATA_RANDOM_ADDRESS_LEN
 781:STM32_WPAN/App/app_ble.c ****   if (ret != BLE_STATUS_SUCCESS)
 782:STM32_WPAN/App/app_ble.c ****   {
 783:STM32_WPAN/App/app_ble.c ****     APP_DBG_MSG("  Fail   : aci_hal_write_config_data command - CONFIG_DATA_RANDOM_ADDRESS_OFFSET, 
 784:STM32_WPAN/App/app_ble.c ****   }
 785:STM32_WPAN/App/app_ble.c ****   else
 786:STM32_WPAN/App/app_ble.c ****   {
 787:STM32_WPAN/App/app_ble.c ****     APP_DBG_MSG("  Success: aci_hal_write_config_data command - CONFIG_DATA_RANDOM_ADDRESS_OFFSET\n
 788:STM32_WPAN/App/app_ble.c ****     APP_DBG_MSG("  Random Bluetooth Address: %02x:%02x:%02x:%02x:%02x:%02x\n", (uint8_t)(a_srd_bd_a
 789:STM32_WPAN/App/app_ble.c ****                                                                                (uint8_t)(a_srd_bd_a
 790:STM32_WPAN/App/app_ble.c ****                                                                                (uint8_t)(a_srd_bd_a
 791:STM32_WPAN/App/app_ble.c ****                                                                                (uint8_t)(a_srd_bd_a
 792:STM32_WPAN/App/app_ble.c ****                                                                                (uint8_t)(a_srd_bd_a
 793:STM32_WPAN/App/app_ble.c ****                                                                                (uint8_t)(a_srd_bd_a
 794:STM32_WPAN/App/app_ble.c ****   }
 795:STM32_WPAN/App/app_ble.c **** #endif /* CFG_BLE_ADDRESS_TYPE != GAP_PUBLIC_ADDR */
 796:STM32_WPAN/App/app_ble.c **** 
 797:STM32_WPAN/App/app_ble.c ****   /**
 798:STM32_WPAN/App/app_ble.c ****    * Write Identity root key used to derive IRK and DHK(Legacy)
 799:STM32_WPAN/App/app_ble.c ****    */
 800:STM32_WPAN/App/app_ble.c ****   ret = aci_hal_write_config_data(CONFIG_DATA_IR_OFFSET, CONFIG_DATA_IR_LEN, (uint8_t*)a_BLE_CfgIrV
 801:STM32_WPAN/App/app_ble.c ****   if (ret != BLE_STATUS_SUCCESS)
 802:STM32_WPAN/App/app_ble.c ****   {
 803:STM32_WPAN/App/app_ble.c ****     APP_DBG_MSG("  Fail   : aci_hal_write_config_data command - CONFIG_DATA_IR_OFFSET, result: 0x%x
 804:STM32_WPAN/App/app_ble.c ****   }
 805:STM32_WPAN/App/app_ble.c ****   else
 806:STM32_WPAN/App/app_ble.c ****   {
 807:STM32_WPAN/App/app_ble.c ****     APP_DBG_MSG("  Success: aci_hal_write_config_data command - CONFIG_DATA_IR_OFFSET\n");
 808:STM32_WPAN/App/app_ble.c ****   }
 809:STM32_WPAN/App/app_ble.c **** 
 810:STM32_WPAN/App/app_ble.c ****   /**
 811:STM32_WPAN/App/app_ble.c ****    * Write Encryption root key used to derive LTK and CSRK
 812:STM32_WPAN/App/app_ble.c ****    */
 813:STM32_WPAN/App/app_ble.c ****   ret = aci_hal_write_config_data(CONFIG_DATA_ER_OFFSET, CONFIG_DATA_ER_LEN, (uint8_t*)a_BLE_CfgErV
 814:STM32_WPAN/App/app_ble.c ****   if (ret != BLE_STATUS_SUCCESS)
 815:STM32_WPAN/App/app_ble.c ****   {
 816:STM32_WPAN/App/app_ble.c ****     APP_DBG_MSG("  Fail   : aci_hal_write_config_data command - CONFIG_DATA_ER_OFFSET, result: 0x%x
 817:STM32_WPAN/App/app_ble.c ****   }
 818:STM32_WPAN/App/app_ble.c ****   else
 819:STM32_WPAN/App/app_ble.c ****   {
 820:STM32_WPAN/App/app_ble.c ****     APP_DBG_MSG("  Success: aci_hal_write_config_data command - CONFIG_DATA_ER_OFFSET\n");
 821:STM32_WPAN/App/app_ble.c ****   }
 822:STM32_WPAN/App/app_ble.c **** 
 823:STM32_WPAN/App/app_ble.c ****   /**
 824:STM32_WPAN/App/app_ble.c ****    * Set TX Power.
 825:STM32_WPAN/App/app_ble.c ****    */
 826:STM32_WPAN/App/app_ble.c ****   ret = aci_hal_set_tx_power_level(1, CFG_TX_POWER);
 827:STM32_WPAN/App/app_ble.c ****   if (ret != BLE_STATUS_SUCCESS)
 828:STM32_WPAN/App/app_ble.c ****   {
 829:STM32_WPAN/App/app_ble.c ****     APP_DBG_MSG("  Fail   : aci_hal_set_tx_power_level command, result: 0x%x \n", ret);
ARM GAS  C:\Users\Nathan\AppData\Local\Temp\ccVM5ua8.s 			page 16


 830:STM32_WPAN/App/app_ble.c ****   }
 831:STM32_WPAN/App/app_ble.c ****   else
 832:STM32_WPAN/App/app_ble.c ****   {
 833:STM32_WPAN/App/app_ble.c ****     APP_DBG_MSG("  Success: aci_hal_set_tx_power_level command\n");
 834:STM32_WPAN/App/app_ble.c ****   }
 835:STM32_WPAN/App/app_ble.c **** 
 836:STM32_WPAN/App/app_ble.c ****   /**
 837:STM32_WPAN/App/app_ble.c ****    * Initialize GATT interface
 838:STM32_WPAN/App/app_ble.c ****    */
 839:STM32_WPAN/App/app_ble.c ****   ret = aci_gatt_init();
 840:STM32_WPAN/App/app_ble.c ****   if (ret != BLE_STATUS_SUCCESS)
 841:STM32_WPAN/App/app_ble.c ****   {
 842:STM32_WPAN/App/app_ble.c ****     APP_DBG_MSG("  Fail   : aci_gatt_init command, result: 0x%x \n", ret);
 843:STM32_WPAN/App/app_ble.c ****   }
 844:STM32_WPAN/App/app_ble.c ****   else
 845:STM32_WPAN/App/app_ble.c ****   {
 846:STM32_WPAN/App/app_ble.c ****     APP_DBG_MSG("  Success: aci_gatt_init command\n");
 847:STM32_WPAN/App/app_ble.c ****   }
 848:STM32_WPAN/App/app_ble.c **** 
 849:STM32_WPAN/App/app_ble.c ****   /**
 850:STM32_WPAN/App/app_ble.c ****    * Initialize GAP interface
 851:STM32_WPAN/App/app_ble.c ****    */
 852:STM32_WPAN/App/app_ble.c ****   role = 0;
 853:STM32_WPAN/App/app_ble.c **** 
 854:STM32_WPAN/App/app_ble.c **** #if (BLE_CFG_PERIPHERAL == 1)
 855:STM32_WPAN/App/app_ble.c ****   role |= GAP_PERIPHERAL_ROLE;
 856:STM32_WPAN/App/app_ble.c **** #endif /* BLE_CFG_PERIPHERAL == 1 */
 857:STM32_WPAN/App/app_ble.c **** 
 858:STM32_WPAN/App/app_ble.c **** #if (BLE_CFG_CENTRAL == 1)
 859:STM32_WPAN/App/app_ble.c ****   role |= GAP_CENTRAL_ROLE;
 860:STM32_WPAN/App/app_ble.c **** #endif /* BLE_CFG_CENTRAL == 1 */
 861:STM32_WPAN/App/app_ble.c **** 
 862:STM32_WPAN/App/app_ble.c **** /* USER CODE BEGIN Role_Mngt*/
 863:STM32_WPAN/App/app_ble.c **** 
 864:STM32_WPAN/App/app_ble.c **** /* USER CODE END Role_Mngt */
 865:STM32_WPAN/App/app_ble.c **** 
 866:STM32_WPAN/App/app_ble.c ****   if (role > 0)
 867:STM32_WPAN/App/app_ble.c ****   {
 868:STM32_WPAN/App/app_ble.c ****     const char *name = CFG_GAP_DEVICE_NAME;
 869:STM32_WPAN/App/app_ble.c ****     ret = aci_gap_init(role,
 870:STM32_WPAN/App/app_ble.c ****                        CFG_PRIVACY,
 871:STM32_WPAN/App/app_ble.c ****                        CFG_GAP_DEVICE_NAME_LENGTH,
 872:STM32_WPAN/App/app_ble.c ****                        &gap_service_handle,
 873:STM32_WPAN/App/app_ble.c ****                        &gap_dev_name_char_handle,
 874:STM32_WPAN/App/app_ble.c ****                        &gap_appearance_char_handle);
 875:STM32_WPAN/App/app_ble.c **** 
 876:STM32_WPAN/App/app_ble.c ****     if (ret != BLE_STATUS_SUCCESS)
 877:STM32_WPAN/App/app_ble.c ****     {
 878:STM32_WPAN/App/app_ble.c ****       APP_DBG_MSG("  Fail   : aci_gap_init command, result: 0x%x \n", ret);
 879:STM32_WPAN/App/app_ble.c ****     }
 880:STM32_WPAN/App/app_ble.c ****     else
 881:STM32_WPAN/App/app_ble.c ****     {
 882:STM32_WPAN/App/app_ble.c ****       APP_DBG_MSG("  Success: aci_gap_init command\n");
 883:STM32_WPAN/App/app_ble.c ****     }
 884:STM32_WPAN/App/app_ble.c **** 
 885:STM32_WPAN/App/app_ble.c ****     ret = aci_gatt_update_char_value(gap_service_handle, gap_dev_name_char_handle, 0, strlen(name),
 886:STM32_WPAN/App/app_ble.c ****     if (ret != BLE_STATUS_SUCCESS)
ARM GAS  C:\Users\Nathan\AppData\Local\Temp\ccVM5ua8.s 			page 17


 887:STM32_WPAN/App/app_ble.c ****     {
 888:STM32_WPAN/App/app_ble.c ****       BLE_DBG_SVCCTL_MSG("  Fail   : aci_gatt_update_char_value - Device Name\n");
 889:STM32_WPAN/App/app_ble.c ****     }
 890:STM32_WPAN/App/app_ble.c ****     else
 891:STM32_WPAN/App/app_ble.c ****     {
 892:STM32_WPAN/App/app_ble.c ****       BLE_DBG_SVCCTL_MSG("  Success: aci_gatt_update_char_value - Device Name\n");
 893:STM32_WPAN/App/app_ble.c ****     }
 894:STM32_WPAN/App/app_ble.c ****   }
 895:STM32_WPAN/App/app_ble.c **** 
 896:STM32_WPAN/App/app_ble.c ****   ret = aci_gatt_update_char_value(gap_service_handle,
 897:STM32_WPAN/App/app_ble.c ****                                    gap_appearance_char_handle,
 898:STM32_WPAN/App/app_ble.c ****                                    0,
 899:STM32_WPAN/App/app_ble.c ****                                    2,
 900:STM32_WPAN/App/app_ble.c ****                                    (uint8_t *)&a_appearance);
 901:STM32_WPAN/App/app_ble.c ****   if (ret != BLE_STATUS_SUCCESS)
 902:STM32_WPAN/App/app_ble.c ****   {
 903:STM32_WPAN/App/app_ble.c ****     BLE_DBG_SVCCTL_MSG("  Fail   : aci_gatt_update_char_value - Appearance\n");
 904:STM32_WPAN/App/app_ble.c ****   }
 905:STM32_WPAN/App/app_ble.c ****   else
 906:STM32_WPAN/App/app_ble.c ****   {
 907:STM32_WPAN/App/app_ble.c ****     BLE_DBG_SVCCTL_MSG("  Success: aci_gatt_update_char_value - Appearance\n");
 908:STM32_WPAN/App/app_ble.c ****   }
 909:STM32_WPAN/App/app_ble.c **** 
 910:STM32_WPAN/App/app_ble.c ****   /**
 911:STM32_WPAN/App/app_ble.c ****    * Initialize Default PHY
 912:STM32_WPAN/App/app_ble.c ****    */
 913:STM32_WPAN/App/app_ble.c ****   ret = hci_le_set_default_phy(ALL_PHYS_PREFERENCE,TX_2M_PREFERRED,RX_2M_PREFERRED);
 914:STM32_WPAN/App/app_ble.c ****   if (ret != BLE_STATUS_SUCCESS)
 915:STM32_WPAN/App/app_ble.c ****   {
 916:STM32_WPAN/App/app_ble.c ****     APP_DBG_MSG("  Fail   : hci_le_set_default_phy command, result: 0x%x \n", ret);
 917:STM32_WPAN/App/app_ble.c ****   }
 918:STM32_WPAN/App/app_ble.c ****   else
 919:STM32_WPAN/App/app_ble.c ****   {
 920:STM32_WPAN/App/app_ble.c ****     APP_DBG_MSG("  Success: hci_le_set_default_phy command\n");
 921:STM32_WPAN/App/app_ble.c ****   }
 922:STM32_WPAN/App/app_ble.c **** 
 923:STM32_WPAN/App/app_ble.c ****   /**
 924:STM32_WPAN/App/app_ble.c ****    * Initialize IO capability
 925:STM32_WPAN/App/app_ble.c ****    */
 926:STM32_WPAN/App/app_ble.c ****   BleApplicationContext.BleApplicationContext_legacy.bleSecurityParam.ioCapability = CFG_IO_CAPABIL
 927:STM32_WPAN/App/app_ble.c ****   ret = aci_gap_set_io_capability(BleApplicationContext.BleApplicationContext_legacy.bleSecurityPar
 928:STM32_WPAN/App/app_ble.c ****   if (ret != BLE_STATUS_SUCCESS)
 929:STM32_WPAN/App/app_ble.c ****   {
 930:STM32_WPAN/App/app_ble.c ****     APP_DBG_MSG("  Fail   : aci_gap_set_io_capability command, result: 0x%x \n", ret);
 931:STM32_WPAN/App/app_ble.c ****   }
 932:STM32_WPAN/App/app_ble.c ****   else
 933:STM32_WPAN/App/app_ble.c ****   {
 934:STM32_WPAN/App/app_ble.c ****     APP_DBG_MSG("  Success: aci_gap_set_io_capability command\n");
 935:STM32_WPAN/App/app_ble.c ****   }
 936:STM32_WPAN/App/app_ble.c **** 
 937:STM32_WPAN/App/app_ble.c ****   /**
 938:STM32_WPAN/App/app_ble.c ****    * Initialize authentication
 939:STM32_WPAN/App/app_ble.c ****    */
 940:STM32_WPAN/App/app_ble.c ****   BleApplicationContext.BleApplicationContext_legacy.bleSecurityParam.mitm_mode = CFG_MITM_PROTECTI
 941:STM32_WPAN/App/app_ble.c ****   BleApplicationContext.BleApplicationContext_legacy.bleSecurityParam.encryptionKeySizeMin = CFG_EN
 942:STM32_WPAN/App/app_ble.c ****   BleApplicationContext.BleApplicationContext_legacy.bleSecurityParam.encryptionKeySizeMax = CFG_EN
 943:STM32_WPAN/App/app_ble.c ****   BleApplicationContext.BleApplicationContext_legacy.bleSecurityParam.Use_Fixed_Pin = CFG_USED_FIXE
ARM GAS  C:\Users\Nathan\AppData\Local\Temp\ccVM5ua8.s 			page 18


 944:STM32_WPAN/App/app_ble.c ****   BleApplicationContext.BleApplicationContext_legacy.bleSecurityParam.Fixed_Pin = CFG_FIXED_PIN;
 945:STM32_WPAN/App/app_ble.c ****   BleApplicationContext.BleApplicationContext_legacy.bleSecurityParam.bonding_mode = CFG_BONDING_MO
 946:STM32_WPAN/App/app_ble.c ****   /* USER CODE BEGIN Ble_Hci_Gap_Gatt_Init_1*/
 947:STM32_WPAN/App/app_ble.c **** 
 948:STM32_WPAN/App/app_ble.c ****   /* USER CODE END Ble_Hci_Gap_Gatt_Init_1*/
 949:STM32_WPAN/App/app_ble.c **** 
 950:STM32_WPAN/App/app_ble.c ****   ret = aci_gap_set_authentication_requirement(BleApplicationContext.BleApplicationContext_legacy.b
 951:STM32_WPAN/App/app_ble.c ****                                                BleApplicationContext.BleApplicationContext_legacy.b
 952:STM32_WPAN/App/app_ble.c ****                                                CFG_SC_SUPPORT,
 953:STM32_WPAN/App/app_ble.c ****                                                CFG_KEYPRESS_NOTIFICATION_SUPPORT,
 954:STM32_WPAN/App/app_ble.c ****                                                BleApplicationContext.BleApplicationContext_legacy.b
 955:STM32_WPAN/App/app_ble.c ****                                                BleApplicationContext.BleApplicationContext_legacy.b
 956:STM32_WPAN/App/app_ble.c ****                                                BleApplicationContext.BleApplicationContext_legacy.b
 957:STM32_WPAN/App/app_ble.c ****                                                BleApplicationContext.BleApplicationContext_legacy.b
 958:STM32_WPAN/App/app_ble.c ****                                                CFG_IDENTITY_ADDRESS);
 959:STM32_WPAN/App/app_ble.c ****   if (ret != BLE_STATUS_SUCCESS)
 960:STM32_WPAN/App/app_ble.c ****   {
 961:STM32_WPAN/App/app_ble.c ****     APP_DBG_MSG("  Fail   : aci_gap_set_authentication_requirement command, result: 0x%x \n", ret);
 962:STM32_WPAN/App/app_ble.c ****   }
 963:STM32_WPAN/App/app_ble.c ****   else
 964:STM32_WPAN/App/app_ble.c ****   {
 965:STM32_WPAN/App/app_ble.c ****     APP_DBG_MSG("  Success: aci_gap_set_authentication_requirement command\n");
 966:STM32_WPAN/App/app_ble.c ****   }
 967:STM32_WPAN/App/app_ble.c **** 
 968:STM32_WPAN/App/app_ble.c ****   /**
 969:STM32_WPAN/App/app_ble.c ****    * Initialize whitelist
 970:STM32_WPAN/App/app_ble.c ****    */
 971:STM32_WPAN/App/app_ble.c ****   if (BleApplicationContext.BleApplicationContext_legacy.bleSecurityParam.bonding_mode)
 972:STM32_WPAN/App/app_ble.c ****   {
 973:STM32_WPAN/App/app_ble.c ****     ret = aci_gap_configure_whitelist();
 974:STM32_WPAN/App/app_ble.c ****     if (ret != BLE_STATUS_SUCCESS)
 975:STM32_WPAN/App/app_ble.c ****     {
 976:STM32_WPAN/App/app_ble.c ****       APP_DBG_MSG("  Fail   : aci_gap_configure_whitelist command, result: 0x%x \n", ret);
 977:STM32_WPAN/App/app_ble.c ****     }
 978:STM32_WPAN/App/app_ble.c ****     else
 979:STM32_WPAN/App/app_ble.c ****     {
 980:STM32_WPAN/App/app_ble.c ****       APP_DBG_MSG("  Success: aci_gap_configure_whitelist command\n");
 981:STM32_WPAN/App/app_ble.c ****     }
 982:STM32_WPAN/App/app_ble.c ****   }
 983:STM32_WPAN/App/app_ble.c ****   APP_DBG_MSG("==>> End Ble_Hci_Gap_Gatt_Init function\n\r");
 984:STM32_WPAN/App/app_ble.c **** }
 985:STM32_WPAN/App/app_ble.c **** 
 986:STM32_WPAN/App/app_ble.c **** static void Adv_Request(APP_BLE_ConnStatus_t NewStatus)
 987:STM32_WPAN/App/app_ble.c **** {
 988:STM32_WPAN/App/app_ble.c ****   tBleStatus ret = BLE_STATUS_INVALID_PARAMS;
 989:STM32_WPAN/App/app_ble.c **** 
 990:STM32_WPAN/App/app_ble.c ****   BleApplicationContext.Device_Connection_Status = NewStatus;
 991:STM32_WPAN/App/app_ble.c ****   /* Start Fast or Low Power Advertising */
 992:STM32_WPAN/App/app_ble.c ****   ret = aci_gap_set_discoverable(ADV_TYPE,
 993:STM32_WPAN/App/app_ble.c ****                                  CFG_FAST_CONN_ADV_INTERVAL_MIN,
 994:STM32_WPAN/App/app_ble.c ****                                  CFG_FAST_CONN_ADV_INTERVAL_MAX,
 995:STM32_WPAN/App/app_ble.c ****                                  CFG_BLE_ADDRESS_TYPE,
 996:STM32_WPAN/App/app_ble.c ****                                  ADV_FILTER,
 997:STM32_WPAN/App/app_ble.c ****                                  0,
 998:STM32_WPAN/App/app_ble.c ****                                  0,
 999:STM32_WPAN/App/app_ble.c ****                                  0,
1000:STM32_WPAN/App/app_ble.c ****                                  0,
ARM GAS  C:\Users\Nathan\AppData\Local\Temp\ccVM5ua8.s 			page 19


1001:STM32_WPAN/App/app_ble.c ****                                  0,
1002:STM32_WPAN/App/app_ble.c ****                                  0);
1003:STM32_WPAN/App/app_ble.c ****   if (ret != BLE_STATUS_SUCCESS)
1004:STM32_WPAN/App/app_ble.c ****   {
1005:STM32_WPAN/App/app_ble.c ****     APP_DBG_MSG("==>> aci_gap_set_discoverable - fail, result: 0x%x \n", ret);
1006:STM32_WPAN/App/app_ble.c ****   }
1007:STM32_WPAN/App/app_ble.c ****   else
1008:STM32_WPAN/App/app_ble.c ****   {
1009:STM32_WPAN/App/app_ble.c ****     APP_DBG_MSG("==>> aci_gap_set_discoverable - Success\n");
1010:STM32_WPAN/App/app_ble.c ****   }
1011:STM32_WPAN/App/app_ble.c **** 
1012:STM32_WPAN/App/app_ble.c **** /* USER CODE BEGIN Adv_Request_1*/
1013:STM32_WPAN/App/app_ble.c **** 
1014:STM32_WPAN/App/app_ble.c **** /* USER CODE END Adv_Request_1*/
1015:STM32_WPAN/App/app_ble.c **** 
1016:STM32_WPAN/App/app_ble.c ****   /* Update Advertising data */
1017:STM32_WPAN/App/app_ble.c ****   ret = aci_gap_update_adv_data(sizeof(a_AdvData), (uint8_t*) a_AdvData);
1018:STM32_WPAN/App/app_ble.c ****   if (ret != BLE_STATUS_SUCCESS)
1019:STM32_WPAN/App/app_ble.c ****   {
1020:STM32_WPAN/App/app_ble.c ****       APP_DBG_MSG("==>> Start Fast Advertising Failed , result: %d \n\r", ret);
1021:STM32_WPAN/App/app_ble.c ****   }
1022:STM32_WPAN/App/app_ble.c ****   else
1023:STM32_WPAN/App/app_ble.c ****   {
1024:STM32_WPAN/App/app_ble.c ****       APP_DBG_MSG("==>> Success: Start Fast Advertising \n\r");
1025:STM32_WPAN/App/app_ble.c ****   }
1026:STM32_WPAN/App/app_ble.c **** 
1027:STM32_WPAN/App/app_ble.c ****   return;
1028:STM32_WPAN/App/app_ble.c **** }
1029:STM32_WPAN/App/app_ble.c **** 
1030:STM32_WPAN/App/app_ble.c **** const uint8_t* BleGetBdAddress(void)
1031:STM32_WPAN/App/app_ble.c **** {
1032:STM32_WPAN/App/app_ble.c ****   uint8_t *p_otp_addr;
1033:STM32_WPAN/App/app_ble.c ****   const uint8_t *p_bd_addr;
1034:STM32_WPAN/App/app_ble.c ****   uint32_t udn;
1035:STM32_WPAN/App/app_ble.c ****   uint32_t company_id;
1036:STM32_WPAN/App/app_ble.c ****   uint32_t device_id;
1037:STM32_WPAN/App/app_ble.c **** 
1038:STM32_WPAN/App/app_ble.c ****   udn = LL_FLASH_GetUDN();
1039:STM32_WPAN/App/app_ble.c **** 
1040:STM32_WPAN/App/app_ble.c ****   if (udn != 0xFFFFFFFF)
1041:STM32_WPAN/App/app_ble.c ****   {
1042:STM32_WPAN/App/app_ble.c ****     company_id = LL_FLASH_GetSTCompanyID();
1043:STM32_WPAN/App/app_ble.c ****     device_id = LL_FLASH_GetDeviceID();
1044:STM32_WPAN/App/app_ble.c **** 
1045:STM32_WPAN/App/app_ble.c ****     /**
1046:STM32_WPAN/App/app_ble.c ****      * Public Address with the ST company ID
1047:STM32_WPAN/App/app_ble.c ****      * bit[47:24] : 24bits (OUI) equal to the company ID
1048:STM32_WPAN/App/app_ble.c ****      * bit[23:16] : Device ID.
1049:STM32_WPAN/App/app_ble.c ****      * bit[15:0] : The last 16bits from the UDN
1050:STM32_WPAN/App/app_ble.c ****      * Note: In order to use the Public Address in a final product, a dedicated
1051:STM32_WPAN/App/app_ble.c ****      * 24bits company ID (OUI) shall be bought.
1052:STM32_WPAN/App/app_ble.c ****      */
1053:STM32_WPAN/App/app_ble.c ****     a_BdAddrUdn[0] = (uint8_t)(udn & 0x000000FF);
1054:STM32_WPAN/App/app_ble.c ****     a_BdAddrUdn[1] = (uint8_t)((udn & 0x0000FF00) >> 8);
1055:STM32_WPAN/App/app_ble.c ****     a_BdAddrUdn[2] = (uint8_t)device_id;
1056:STM32_WPAN/App/app_ble.c ****     a_BdAddrUdn[3] = (uint8_t)(company_id & 0x000000FF);
1057:STM32_WPAN/App/app_ble.c ****     a_BdAddrUdn[4] = (uint8_t)((company_id & 0x0000FF00) >> 8);
ARM GAS  C:\Users\Nathan\AppData\Local\Temp\ccVM5ua8.s 			page 20


1058:STM32_WPAN/App/app_ble.c ****     a_BdAddrUdn[5] = (uint8_t)((company_id & 0x00FF0000) >> 16);
1059:STM32_WPAN/App/app_ble.c **** 
1060:STM32_WPAN/App/app_ble.c ****     p_bd_addr = (const uint8_t *)a_BdAddrUdn;
1061:STM32_WPAN/App/app_ble.c ****   }
1062:STM32_WPAN/App/app_ble.c ****   else
1063:STM32_WPAN/App/app_ble.c ****   {
1064:STM32_WPAN/App/app_ble.c ****     p_otp_addr = OTP_Read(0);
1065:STM32_WPAN/App/app_ble.c ****     if (p_otp_addr)
1066:STM32_WPAN/App/app_ble.c ****     {
1067:STM32_WPAN/App/app_ble.c ****       p_bd_addr = ((OTP_ID0_t*)p_otp_addr)->bd_address;
1068:STM32_WPAN/App/app_ble.c ****     }
1069:STM32_WPAN/App/app_ble.c ****     else
1070:STM32_WPAN/App/app_ble.c ****     {
1071:STM32_WPAN/App/app_ble.c ****       p_bd_addr = a_MBdAddr;
1072:STM32_WPAN/App/app_ble.c ****     }
1073:STM32_WPAN/App/app_ble.c ****   }
1074:STM32_WPAN/App/app_ble.c **** 
1075:STM32_WPAN/App/app_ble.c ****   return p_bd_addr;
1076:STM32_WPAN/App/app_ble.c **** }
1077:STM32_WPAN/App/app_ble.c **** 
1078:STM32_WPAN/App/app_ble.c **** /* USER CODE BEGIN FD_LOCAL_FUNCTION */
1079:STM32_WPAN/App/app_ble.c **** 
1080:STM32_WPAN/App/app_ble.c **** /* USER CODE END FD_LOCAL_FUNCTION */
1081:STM32_WPAN/App/app_ble.c **** 
1082:STM32_WPAN/App/app_ble.c **** /*************************************************************
1083:STM32_WPAN/App/app_ble.c ****  *
1084:STM32_WPAN/App/app_ble.c ****  * SPECIFIC FUNCTIONS FOR CUSTOM
1085:STM32_WPAN/App/app_ble.c ****  *
1086:STM32_WPAN/App/app_ble.c ****  *************************************************************/
1087:STM32_WPAN/App/app_ble.c **** static void Adv_Cancel(void)
1088:STM32_WPAN/App/app_ble.c **** {
  28              		.loc 1 1088 1 view -0
  29              		.cfi_startproc
  30              		@ args = 0, pretend = 0, frame = 0
  31              		@ frame_needed = 0, uses_anonymous_args = 0
  32 0000 08B5     		push	{r3, lr}
  33              		.cfi_def_cfa_offset 8
  34              		.cfi_offset 3, -8
  35              		.cfi_offset 14, -4
1089:STM32_WPAN/App/app_ble.c ****   /* USER CODE BEGIN Adv_Cancel_1 */
1090:STM32_WPAN/App/app_ble.c **** 
1091:STM32_WPAN/App/app_ble.c ****   /* USER CODE END Adv_Cancel_1 */
1092:STM32_WPAN/App/app_ble.c **** 
1093:STM32_WPAN/App/app_ble.c ****   if (BleApplicationContext.Device_Connection_Status != APP_BLE_CONNECTED_SERVER)
  36              		.loc 1 1093 3 view .LVU1
  37              		.loc 1 1093 28 is_stmt 0 view .LVU2
  38 0002 064B     		ldr	r3, .L5
  39 0004 93F88030 		ldrb	r3, [r3, #128]	@ zero_extendqisi2
  40              		.loc 1 1093 6 view .LVU3
  41 0008 052B     		cmp	r3, #5
  42 000a 00D1     		bne	.L4
  43              	.L1:
1094:STM32_WPAN/App/app_ble.c ****   {
1095:STM32_WPAN/App/app_ble.c ****     tBleStatus ret = BLE_STATUS_INVALID_PARAMS;
1096:STM32_WPAN/App/app_ble.c **** 
1097:STM32_WPAN/App/app_ble.c ****     ret = aci_gap_set_non_discoverable();
1098:STM32_WPAN/App/app_ble.c **** 
ARM GAS  C:\Users\Nathan\AppData\Local\Temp\ccVM5ua8.s 			page 21


1099:STM32_WPAN/App/app_ble.c ****     BleApplicationContext.Device_Connection_Status = APP_BLE_IDLE;
1100:STM32_WPAN/App/app_ble.c ****     if (ret != BLE_STATUS_SUCCESS)
1101:STM32_WPAN/App/app_ble.c ****     {
1102:STM32_WPAN/App/app_ble.c ****       APP_DBG_MSG("** STOP ADVERTISING **  Failed \r\n\r");
1103:STM32_WPAN/App/app_ble.c ****     }
1104:STM32_WPAN/App/app_ble.c ****     else
1105:STM32_WPAN/App/app_ble.c ****     {
1106:STM32_WPAN/App/app_ble.c ****       APP_DBG_MSG("  \r\n\r");
1107:STM32_WPAN/App/app_ble.c ****       APP_DBG_MSG("** STOP ADVERTISING **  \r\n\r");
1108:STM32_WPAN/App/app_ble.c ****     }
1109:STM32_WPAN/App/app_ble.c ****   }
1110:STM32_WPAN/App/app_ble.c **** 
1111:STM32_WPAN/App/app_ble.c ****   /* USER CODE BEGIN Adv_Cancel_2 */
1112:STM32_WPAN/App/app_ble.c **** 
1113:STM32_WPAN/App/app_ble.c ****   /* USER CODE END Adv_Cancel_2 */
1114:STM32_WPAN/App/app_ble.c **** 
1115:STM32_WPAN/App/app_ble.c ****   return;
1116:STM32_WPAN/App/app_ble.c **** }
  44              		.loc 1 1116 1 view .LVU4
  45 000c 08BD     		pop	{r3, pc}
  46              	.L4:
  47              	.LBB8:
1095:STM32_WPAN/App/app_ble.c **** 
  48              		.loc 1 1095 5 is_stmt 1 view .LVU5
  49              	.LVL0:
1097:STM32_WPAN/App/app_ble.c **** 
  50              		.loc 1 1097 5 view .LVU6
1097:STM32_WPAN/App/app_ble.c **** 
  51              		.loc 1 1097 11 is_stmt 0 view .LVU7
  52 000e FFF7FEFF 		bl	aci_gap_set_non_discoverable
  53              	.LVL1:
1099:STM32_WPAN/App/app_ble.c ****     if (ret != BLE_STATUS_SUCCESS)
  54              		.loc 1 1099 5 is_stmt 1 view .LVU8
1099:STM32_WPAN/App/app_ble.c ****     if (ret != BLE_STATUS_SUCCESS)
  55              		.loc 1 1099 52 is_stmt 0 view .LVU9
  56 0012 024B     		ldr	r3, .L5
  57 0014 0022     		movs	r2, #0
  58 0016 83F88020 		strb	r2, [r3, #128]
1100:STM32_WPAN/App/app_ble.c ****     {
  59              		.loc 1 1100 5 is_stmt 1 view .LVU10
1102:STM32_WPAN/App/app_ble.c ****     }
  60              		.loc 1 1102 59 view .LVU11
1106:STM32_WPAN/App/app_ble.c ****       APP_DBG_MSG("** STOP ADVERTISING **  \r\n\r");
  61              		.loc 1 1106 30 view .LVU12
1107:STM32_WPAN/App/app_ble.c ****     }
  62              		.loc 1 1107 52 view .LVU13
  63              	.LBE8:
1115:STM32_WPAN/App/app_ble.c **** }
  64              		.loc 1 1115 3 view .LVU14
  65 001a F7E7     		b	.L1
  66              	.L6:
  67              		.align	2
  68              	.L5:
  69 001c 00000000 		.word	BleApplicationContext
  70              		.cfi_endproc
  71              	.LFE1424:
  73              		.section	.text.Ble_Tl_Init,"ax",%progbits
ARM GAS  C:\Users\Nathan\AppData\Local\Temp\ccVM5ua8.s 			page 22


  74              		.align	1
  75              		.syntax unified
  76              		.thumb
  77              		.thumb_func
  79              	Ble_Tl_Init:
  80              	.LFB1420:
 720:STM32_WPAN/App/app_ble.c ****   HCI_TL_HciInitConf_t Hci_Tl_Init_Conf;
  81              		.loc 1 720 1 view -0
  82              		.cfi_startproc
  83              		@ args = 0, pretend = 0, frame = 8
  84              		@ frame_needed = 0, uses_anonymous_args = 0
  85 0000 00B5     		push	{lr}
  86              		.cfi_def_cfa_offset 4
  87              		.cfi_offset 14, -4
  88 0002 83B0     		sub	sp, sp, #12
  89              		.cfi_def_cfa_offset 16
 721:STM32_WPAN/App/app_ble.c **** 
  90              		.loc 1 721 3 view .LVU16
 723:STM32_WPAN/App/app_ble.c ****   Hci_Tl_Init_Conf.StatusNotCallBack = BLE_StatusNot;
  91              		.loc 1 723 3 view .LVU17
 723:STM32_WPAN/App/app_ble.c ****   Hci_Tl_Init_Conf.StatusNotCallBack = BLE_StatusNot;
  92              		.loc 1 723 32 is_stmt 0 view .LVU18
  93 0004 054B     		ldr	r3, .L9
  94 0006 0093     		str	r3, [sp]
 724:STM32_WPAN/App/app_ble.c ****   hci_init(BLE_UserEvtRx, (void*) &Hci_Tl_Init_Conf);
  95              		.loc 1 724 3 is_stmt 1 view .LVU19
 724:STM32_WPAN/App/app_ble.c ****   hci_init(BLE_UserEvtRx, (void*) &Hci_Tl_Init_Conf);
  96              		.loc 1 724 38 is_stmt 0 view .LVU20
  97 0008 054B     		ldr	r3, .L9+4
  98 000a 0193     		str	r3, [sp, #4]
 725:STM32_WPAN/App/app_ble.c **** 
  99              		.loc 1 725 3 is_stmt 1 view .LVU21
 100 000c 6946     		mov	r1, sp
 101 000e 0548     		ldr	r0, .L9+8
 102 0010 FFF7FEFF 		bl	hci_init
 103              	.LVL2:
 727:STM32_WPAN/App/app_ble.c **** }
 104              		.loc 1 727 3 view .LVU22
 728:STM32_WPAN/App/app_ble.c **** 
 105              		.loc 1 728 1 is_stmt 0 view .LVU23
 106 0014 03B0     		add	sp, sp, #12
 107              		.cfi_def_cfa_offset 4
 108              		@ sp needed
 109 0016 5DF804FB 		ldr	pc, [sp], #4
 110              	.L10:
 111 001a 00BF     		.align	2
 112              	.L9:
 113 001c 00000000 		.word	BleCmdBuffer
 114 0020 00000000 		.word	BLE_StatusNot
 115 0024 00000000 		.word	BLE_UserEvtRx
 116              		.cfi_endproc
 117              	.LFE1420:
 119              		.section	.text.BLE_UserEvtRx,"ax",%progbits
 120              		.align	1
 121              		.syntax unified
 122              		.thumb
 123              		.thumb_func
ARM GAS  C:\Users\Nathan\AppData\Local\Temp\ccVM5ua8.s 			page 23


 125              	BLE_UserEvtRx:
 126              	.LVL3:
 127              	.LFB1428:
1117:STM32_WPAN/App/app_ble.c **** 
1118:STM32_WPAN/App/app_ble.c **** #if (L2CAP_REQUEST_NEW_CONN_PARAM != 0)
1119:STM32_WPAN/App/app_ble.c **** void BLE_SVC_L2CAP_Conn_Update(uint16_t ConnectionHandle)
1120:STM32_WPAN/App/app_ble.c **** {
1121:STM32_WPAN/App/app_ble.c ****   /* USER CODE BEGIN BLE_SVC_L2CAP_Conn_Update_1 */
1122:STM32_WPAN/App/app_ble.c **** 
1123:STM32_WPAN/App/app_ble.c ****   /* USER CODE END BLE_SVC_L2CAP_Conn_Update_1 */
1124:STM32_WPAN/App/app_ble.c **** 
1125:STM32_WPAN/App/app_ble.c ****   if (mutex == 1)
1126:STM32_WPAN/App/app_ble.c ****   {
1127:STM32_WPAN/App/app_ble.c ****     mutex = 0;
1128:STM32_WPAN/App/app_ble.c ****     index_con_int = (index_con_int + 1)%SIZE_TAB_CONN_INT;
1129:STM32_WPAN/App/app_ble.c ****     uint16_t interval_min = CONN_P(a_ConnInterval[index_con_int]);
1130:STM32_WPAN/App/app_ble.c ****     uint16_t interval_max = CONN_P(a_ConnInterval[index_con_int]);
1131:STM32_WPAN/App/app_ble.c ****     uint16_t peripheral_latency = L2CAP_PERIPHERAL_LATENCY;
1132:STM32_WPAN/App/app_ble.c ****     uint16_t timeout_multiplier = L2CAP_TIMEOUT_MULTIPLIER;
1133:STM32_WPAN/App/app_ble.c ****     tBleStatus ret;
1134:STM32_WPAN/App/app_ble.c **** 
1135:STM32_WPAN/App/app_ble.c ****     ret = aci_l2cap_connection_parameter_update_req(BleApplicationContext.BleApplicationContext_leg
1136:STM32_WPAN/App/app_ble.c ****                                                     interval_min, interval_max,
1137:STM32_WPAN/App/app_ble.c ****                                                     peripheral_latency, timeout_multiplier);
1138:STM32_WPAN/App/app_ble.c ****     if (ret != BLE_STATUS_SUCCESS)
1139:STM32_WPAN/App/app_ble.c ****     {
1140:STM32_WPAN/App/app_ble.c ****       APP_DBG_MSG("BLE_SVC_L2CAP_Conn_Update(), Failed \r\n\r");
1141:STM32_WPAN/App/app_ble.c ****     }
1142:STM32_WPAN/App/app_ble.c ****     else
1143:STM32_WPAN/App/app_ble.c ****     {
1144:STM32_WPAN/App/app_ble.c ****       APP_DBG_MSG("BLE_SVC_L2CAP_Conn_Update(), Successfully \r\n\r");
1145:STM32_WPAN/App/app_ble.c ****     }
1146:STM32_WPAN/App/app_ble.c ****   }
1147:STM32_WPAN/App/app_ble.c **** 
1148:STM32_WPAN/App/app_ble.c ****   /* USER CODE BEGIN BLE_SVC_L2CAP_Conn_Update_2 */
1149:STM32_WPAN/App/app_ble.c **** 
1150:STM32_WPAN/App/app_ble.c ****   /* USER CODE END BLE_SVC_L2CAP_Conn_Update_2 */
1151:STM32_WPAN/App/app_ble.c **** 
1152:STM32_WPAN/App/app_ble.c ****   return;
1153:STM32_WPAN/App/app_ble.c **** }
1154:STM32_WPAN/App/app_ble.c **** #endif /* L2CAP_REQUEST_NEW_CONN_PARAM != 0 */
1155:STM32_WPAN/App/app_ble.c **** 
1156:STM32_WPAN/App/app_ble.c **** #if (L2CAP_REQUEST_NEW_CONN_PARAM != 0)
1157:STM32_WPAN/App/app_ble.c **** static void Connection_Interval_Update_Req(void)
1158:STM32_WPAN/App/app_ble.c **** {
1159:STM32_WPAN/App/app_ble.c ****   if (BleApplicationContext.Device_Connection_Status != APP_BLE_FAST_ADV && BleApplicationContext.D
1160:STM32_WPAN/App/app_ble.c ****   {
1161:STM32_WPAN/App/app_ble.c ****     BLE_SVC_L2CAP_Conn_Update(BleApplicationContext.BleApplicationContext_legacy.connectionHandle);
1162:STM32_WPAN/App/app_ble.c ****   }
1163:STM32_WPAN/App/app_ble.c **** 
1164:STM32_WPAN/App/app_ble.c ****   return;
1165:STM32_WPAN/App/app_ble.c **** }
1166:STM32_WPAN/App/app_ble.c **** #endif /* L2CAP_REQUEST_NEW_CONN_PARAM != 0 */
1167:STM32_WPAN/App/app_ble.c **** 
1168:STM32_WPAN/App/app_ble.c **** /* USER CODE BEGIN FD_SPECIFIC_FUNCTIONS */
1169:STM32_WPAN/App/app_ble.c **** 
1170:STM32_WPAN/App/app_ble.c **** /* USER CODE END FD_SPECIFIC_FUNCTIONS */
ARM GAS  C:\Users\Nathan\AppData\Local\Temp\ccVM5ua8.s 			page 24


1171:STM32_WPAN/App/app_ble.c **** /*************************************************************
1172:STM32_WPAN/App/app_ble.c ****  *
1173:STM32_WPAN/App/app_ble.c ****  * WRAP FUNCTIONS
1174:STM32_WPAN/App/app_ble.c ****  *
1175:STM32_WPAN/App/app_ble.c ****  *************************************************************/
1176:STM32_WPAN/App/app_ble.c **** void hci_notify_asynch_evt(void* p_Data)
1177:STM32_WPAN/App/app_ble.c **** {
1178:STM32_WPAN/App/app_ble.c ****   UTIL_SEQ_SetTask(1 << CFG_TASK_HCI_ASYNCH_EVT_ID, CFG_SCH_PRIO_0);
1179:STM32_WPAN/App/app_ble.c **** 
1180:STM32_WPAN/App/app_ble.c ****   return;
1181:STM32_WPAN/App/app_ble.c **** }
1182:STM32_WPAN/App/app_ble.c **** 
1183:STM32_WPAN/App/app_ble.c **** void hci_cmd_resp_release(uint32_t Flag)
1184:STM32_WPAN/App/app_ble.c **** {
1185:STM32_WPAN/App/app_ble.c ****   UTIL_SEQ_SetEvt(1 << CFG_IDLEEVT_HCI_CMD_EVT_RSP_ID);
1186:STM32_WPAN/App/app_ble.c **** 
1187:STM32_WPAN/App/app_ble.c ****   return;
1188:STM32_WPAN/App/app_ble.c **** }
1189:STM32_WPAN/App/app_ble.c **** 
1190:STM32_WPAN/App/app_ble.c **** void hci_cmd_resp_wait(uint32_t Timeout)
1191:STM32_WPAN/App/app_ble.c **** {
1192:STM32_WPAN/App/app_ble.c ****   UTIL_SEQ_WaitEvt(1 << CFG_IDLEEVT_HCI_CMD_EVT_RSP_ID);
1193:STM32_WPAN/App/app_ble.c **** 
1194:STM32_WPAN/App/app_ble.c ****   return;
1195:STM32_WPAN/App/app_ble.c **** }
1196:STM32_WPAN/App/app_ble.c **** 
1197:STM32_WPAN/App/app_ble.c **** static void BLE_UserEvtRx(void *p_Payload)
1198:STM32_WPAN/App/app_ble.c **** {
 128              		.loc 1 1198 1 is_stmt 1 view -0
 129              		.cfi_startproc
 130              		@ args = 0, pretend = 0, frame = 0
 131              		@ frame_needed = 0, uses_anonymous_args = 0
 132              		.loc 1 1198 1 is_stmt 0 view .LVU25
 133 0000 10B5     		push	{r4, lr}
 134              		.cfi_def_cfa_offset 8
 135              		.cfi_offset 4, -8
 136              		.cfi_offset 14, -4
 137 0002 0446     		mov	r4, r0
1199:STM32_WPAN/App/app_ble.c ****   SVCCTL_UserEvtFlowStatus_t svctl_return_status;
 138              		.loc 1 1199 3 is_stmt 1 view .LVU26
1200:STM32_WPAN/App/app_ble.c ****   tHCI_UserEvtRxParam *p_param;
 139              		.loc 1 1200 3 view .LVU27
1201:STM32_WPAN/App/app_ble.c **** 
1202:STM32_WPAN/App/app_ble.c ****   p_param = (tHCI_UserEvtRxParam *)p_Payload;
 140              		.loc 1 1202 3 view .LVU28
 141              	.LVL4:
1203:STM32_WPAN/App/app_ble.c **** 
1204:STM32_WPAN/App/app_ble.c ****   svctl_return_status = SVCCTL_UserEvtRx((void *)&(p_param->pckt->evtserial));
 142              		.loc 1 1204 3 view .LVU29
 143              		.loc 1 1204 59 is_stmt 0 view .LVU30
 144 0004 4068     		ldr	r0, [r0, #4]
 145              	.LVL5:
 146              		.loc 1 1204 25 view .LVU31
 147 0006 0830     		adds	r0, r0, #8
 148 0008 FFF7FEFF 		bl	SVCCTL_UserEvtRx
 149              	.LVL6:
1205:STM32_WPAN/App/app_ble.c ****   if (svctl_return_status != SVCCTL_UserEvtFlowDisable)
ARM GAS  C:\Users\Nathan\AppData\Local\Temp\ccVM5ua8.s 			page 25


 150              		.loc 1 1205 3 is_stmt 1 view .LVU32
 151              		.loc 1 1205 6 is_stmt 0 view .LVU33
 152 000c 10B1     		cbz	r0, .L12
1206:STM32_WPAN/App/app_ble.c ****   {
1207:STM32_WPAN/App/app_ble.c ****     p_param->status = HCI_TL_UserEventFlow_Enable;
 153              		.loc 1 1207 5 is_stmt 1 view .LVU34
 154              		.loc 1 1207 21 is_stmt 0 view .LVU35
 155 000e 0123     		movs	r3, #1
 156 0010 2370     		strb	r3, [r4]
 157              	.L11:
1208:STM32_WPAN/App/app_ble.c ****   }
1209:STM32_WPAN/App/app_ble.c ****   else
1210:STM32_WPAN/App/app_ble.c ****   {
1211:STM32_WPAN/App/app_ble.c ****     p_param->status = HCI_TL_UserEventFlow_Disable;
1212:STM32_WPAN/App/app_ble.c ****   }
1213:STM32_WPAN/App/app_ble.c **** 
1214:STM32_WPAN/App/app_ble.c ****   return;
1215:STM32_WPAN/App/app_ble.c **** }
 158              		.loc 1 1215 1 view .LVU36
 159 0012 10BD     		pop	{r4, pc}
 160              	.LVL7:
 161              	.L12:
1211:STM32_WPAN/App/app_ble.c ****   }
 162              		.loc 1 1211 5 is_stmt 1 view .LVU37
1211:STM32_WPAN/App/app_ble.c ****   }
 163              		.loc 1 1211 21 is_stmt 0 view .LVU38
 164 0014 0023     		movs	r3, #0
 165 0016 2370     		strb	r3, [r4]
1214:STM32_WPAN/App/app_ble.c **** }
 166              		.loc 1 1214 3 is_stmt 1 view .LVU39
 167 0018 FBE7     		b	.L11
 168              		.cfi_endproc
 169              	.LFE1428:
 171              		.section	.text.BLE_StatusNot,"ax",%progbits
 172              		.align	1
 173              		.syntax unified
 174              		.thumb
 175              		.thumb_func
 177              	BLE_StatusNot:
 178              	.LVL8:
 179              	.LFB1429:
1216:STM32_WPAN/App/app_ble.c **** 
1217:STM32_WPAN/App/app_ble.c **** static void BLE_StatusNot(HCI_TL_CmdStatus_t Status)
1218:STM32_WPAN/App/app_ble.c **** {
 180              		.loc 1 1218 1 view -0
 181              		.cfi_startproc
 182              		@ args = 0, pretend = 0, frame = 0
 183              		@ frame_needed = 0, uses_anonymous_args = 0
 184              		.loc 1 1218 1 is_stmt 0 view .LVU41
 185 0000 08B5     		push	{r3, lr}
 186              		.cfi_def_cfa_offset 8
 187              		.cfi_offset 3, -8
 188              		.cfi_offset 14, -4
1219:STM32_WPAN/App/app_ble.c ****   uint32_t task_id_list;
 189              		.loc 1 1219 3 is_stmt 1 view .LVU42
1220:STM32_WPAN/App/app_ble.c ****   switch (Status)
 190              		.loc 1 1220 3 view .LVU43
ARM GAS  C:\Users\Nathan\AppData\Local\Temp\ccVM5ua8.s 			page 26


 191 0002 28B1     		cbz	r0, .L16
 192 0004 0128     		cmp	r0, #1
 193 0006 06D1     		bne	.L15
1221:STM32_WPAN/App/app_ble.c ****   {
1222:STM32_WPAN/App/app_ble.c ****     case HCI_TL_CmdBusy:
1223:STM32_WPAN/App/app_ble.c ****       /**
1224:STM32_WPAN/App/app_ble.c ****        * All tasks that may send an aci/hci commands shall be listed here
1225:STM32_WPAN/App/app_ble.c ****        * This is to prevent a new command is sent while one is already pending
1226:STM32_WPAN/App/app_ble.c ****        */
1227:STM32_WPAN/App/app_ble.c ****       task_id_list = (1 << CFG_LAST_TASK_ID_WITH_HCICMD) - 1;
1228:STM32_WPAN/App/app_ble.c ****       UTIL_SEQ_PauseTask(task_id_list);
1229:STM32_WPAN/App/app_ble.c ****       /* USER CODE BEGIN HCI_TL_CmdBusy */
1230:STM32_WPAN/App/app_ble.c **** 
1231:STM32_WPAN/App/app_ble.c ****       /* USER CODE END HCI_TL_CmdBusy */
1232:STM32_WPAN/App/app_ble.c ****       break;
1233:STM32_WPAN/App/app_ble.c **** 
1234:STM32_WPAN/App/app_ble.c ****     case HCI_TL_CmdAvailable:
1235:STM32_WPAN/App/app_ble.c ****       /**
1236:STM32_WPAN/App/app_ble.c ****        * All tasks that may send an aci/hci commands shall be listed here
1237:STM32_WPAN/App/app_ble.c ****        * This is to prevent a new command is sent while one is already pending
1238:STM32_WPAN/App/app_ble.c ****        */
1239:STM32_WPAN/App/app_ble.c ****       task_id_list = (1 << CFG_LAST_TASK_ID_WITH_HCICMD) - 1;
 194              		.loc 1 1239 7 view .LVU44
 195              	.LVL9:
1240:STM32_WPAN/App/app_ble.c ****       UTIL_SEQ_ResumeTask(task_id_list);
 196              		.loc 1 1240 7 view .LVU45
 197 0008 0320     		movs	r0, #3
 198              	.LVL10:
 199              		.loc 1 1240 7 is_stmt 0 view .LVU46
 200 000a FFF7FEFF 		bl	UTIL_SEQ_ResumeTask
 201              	.LVL11:
1241:STM32_WPAN/App/app_ble.c ****       /* USER CODE BEGIN HCI_TL_CmdAvailable */
1242:STM32_WPAN/App/app_ble.c **** 
1243:STM32_WPAN/App/app_ble.c ****       /* USER CODE END HCI_TL_CmdAvailable */
1244:STM32_WPAN/App/app_ble.c ****       break;
 202              		.loc 1 1244 7 is_stmt 1 view .LVU47
1245:STM32_WPAN/App/app_ble.c **** 
1246:STM32_WPAN/App/app_ble.c ****     default:
1247:STM32_WPAN/App/app_ble.c ****       /* USER CODE BEGIN Status */
1248:STM32_WPAN/App/app_ble.c **** 
1249:STM32_WPAN/App/app_ble.c ****       /* USER CODE END Status */
1250:STM32_WPAN/App/app_ble.c ****       break;
1251:STM32_WPAN/App/app_ble.c ****   }
1252:STM32_WPAN/App/app_ble.c **** 
1253:STM32_WPAN/App/app_ble.c ****   return;
 203              		.loc 1 1253 3 view .LVU48
 204 000e 02E0     		b	.L15
 205              	.LVL12:
 206              	.L16:
1227:STM32_WPAN/App/app_ble.c ****       UTIL_SEQ_PauseTask(task_id_list);
 207              		.loc 1 1227 7 view .LVU49
1228:STM32_WPAN/App/app_ble.c ****       /* USER CODE BEGIN HCI_TL_CmdBusy */
 208              		.loc 1 1228 7 view .LVU50
 209 0010 0320     		movs	r0, #3
 210              	.LVL13:
1228:STM32_WPAN/App/app_ble.c ****       /* USER CODE BEGIN HCI_TL_CmdBusy */
 211              		.loc 1 1228 7 is_stmt 0 view .LVU51
ARM GAS  C:\Users\Nathan\AppData\Local\Temp\ccVM5ua8.s 			page 27


 212 0012 FFF7FEFF 		bl	UTIL_SEQ_PauseTask
 213              	.LVL14:
1232:STM32_WPAN/App/app_ble.c **** 
 214              		.loc 1 1232 7 is_stmt 1 view .LVU52
 215              	.L15:
1254:STM32_WPAN/App/app_ble.c **** }
 216              		.loc 1 1254 1 is_stmt 0 view .LVU53
 217 0016 08BD     		pop	{r3, pc}
 218              		.cfi_endproc
 219              	.LFE1429:
 221              		.section	.text.BleGetBdAddress,"ax",%progbits
 222              		.align	1
 223              		.syntax unified
 224              		.thumb
 225              		.thumb_func
 227              	BleGetBdAddress:
 228              	.LFB1423:
1031:STM32_WPAN/App/app_ble.c ****   uint8_t *p_otp_addr;
 229              		.loc 1 1031 1 is_stmt 1 view -0
 230              		.cfi_startproc
 231              		@ args = 0, pretend = 0, frame = 0
 232              		@ frame_needed = 0, uses_anonymous_args = 0
 233 0000 08B5     		push	{r3, lr}
 234              		.cfi_def_cfa_offset 8
 235              		.cfi_offset 3, -8
 236              		.cfi_offset 14, -4
1032:STM32_WPAN/App/app_ble.c ****   const uint8_t *p_bd_addr;
 237              		.loc 1 1032 3 view .LVU55
1033:STM32_WPAN/App/app_ble.c ****   uint32_t udn;
 238              		.loc 1 1033 3 view .LVU56
1034:STM32_WPAN/App/app_ble.c ****   uint32_t company_id;
 239              		.loc 1 1034 3 view .LVU57
1035:STM32_WPAN/App/app_ble.c ****   uint32_t device_id;
 240              		.loc 1 1035 3 view .LVU58
1036:STM32_WPAN/App/app_ble.c **** 
 241              		.loc 1 1036 3 view .LVU59
1038:STM32_WPAN/App/app_ble.c **** 
 242              		.loc 1 1038 3 view .LVU60
 243              	.LBB9:
 244              	.LBI9:
 245              		.file 2 "Drivers/STM32WBxx_HAL_Driver/Inc/stm32wbxx_ll_system.h"
   1:Drivers/STM32WBxx_HAL_Driver/Inc/stm32wbxx_ll_system.h **** /**
   2:Drivers/STM32WBxx_HAL_Driver/Inc/stm32wbxx_ll_system.h ****   ******************************************************************************
   3:Drivers/STM32WBxx_HAL_Driver/Inc/stm32wbxx_ll_system.h ****   * @file    stm32wbxx_ll_system.h
   4:Drivers/STM32WBxx_HAL_Driver/Inc/stm32wbxx_ll_system.h ****   * @author  MCD Application Team
   5:Drivers/STM32WBxx_HAL_Driver/Inc/stm32wbxx_ll_system.h ****   * @brief   Header file of SYSTEM LL module.
   6:Drivers/STM32WBxx_HAL_Driver/Inc/stm32wbxx_ll_system.h ****   ******************************************************************************
   7:Drivers/STM32WBxx_HAL_Driver/Inc/stm32wbxx_ll_system.h ****   * @attention
   8:Drivers/STM32WBxx_HAL_Driver/Inc/stm32wbxx_ll_system.h ****   *
   9:Drivers/STM32WBxx_HAL_Driver/Inc/stm32wbxx_ll_system.h ****   * Copyright (c) 2019 STMicroelectronics.
  10:Drivers/STM32WBxx_HAL_Driver/Inc/stm32wbxx_ll_system.h ****   * All rights reserved.
  11:Drivers/STM32WBxx_HAL_Driver/Inc/stm32wbxx_ll_system.h ****   *
  12:Drivers/STM32WBxx_HAL_Driver/Inc/stm32wbxx_ll_system.h ****   * This software is licensed under terms that can be found in the LICENSE file
  13:Drivers/STM32WBxx_HAL_Driver/Inc/stm32wbxx_ll_system.h ****   * in the root directory of this software component.
  14:Drivers/STM32WBxx_HAL_Driver/Inc/stm32wbxx_ll_system.h ****   * If no LICENSE file comes with this software, it is provided AS-IS.
  15:Drivers/STM32WBxx_HAL_Driver/Inc/stm32wbxx_ll_system.h ****   *
  16:Drivers/STM32WBxx_HAL_Driver/Inc/stm32wbxx_ll_system.h ****   ******************************************************************************
ARM GAS  C:\Users\Nathan\AppData\Local\Temp\ccVM5ua8.s 			page 28


  17:Drivers/STM32WBxx_HAL_Driver/Inc/stm32wbxx_ll_system.h ****   @verbatim
  18:Drivers/STM32WBxx_HAL_Driver/Inc/stm32wbxx_ll_system.h ****   ==============================================================================
  19:Drivers/STM32WBxx_HAL_Driver/Inc/stm32wbxx_ll_system.h ****                      ##### How to use this driver #####
  20:Drivers/STM32WBxx_HAL_Driver/Inc/stm32wbxx_ll_system.h ****   ==============================================================================
  21:Drivers/STM32WBxx_HAL_Driver/Inc/stm32wbxx_ll_system.h ****     [..]
  22:Drivers/STM32WBxx_HAL_Driver/Inc/stm32wbxx_ll_system.h ****     The LL SYSTEM driver contains a set of generic APIs that can be
  23:Drivers/STM32WBxx_HAL_Driver/Inc/stm32wbxx_ll_system.h ****     used by user:
  24:Drivers/STM32WBxx_HAL_Driver/Inc/stm32wbxx_ll_system.h ****       (+) Some of the FLASH features need to be handled in the SYSTEM file.
  25:Drivers/STM32WBxx_HAL_Driver/Inc/stm32wbxx_ll_system.h ****       (+) Access to DBGCMU registers
  26:Drivers/STM32WBxx_HAL_Driver/Inc/stm32wbxx_ll_system.h ****       (+) Access to SYSCFG registers
  27:Drivers/STM32WBxx_HAL_Driver/Inc/stm32wbxx_ll_system.h ****       (+) Access to VREFBUF registers
  28:Drivers/STM32WBxx_HAL_Driver/Inc/stm32wbxx_ll_system.h **** 
  29:Drivers/STM32WBxx_HAL_Driver/Inc/stm32wbxx_ll_system.h ****   @endverbatim
  30:Drivers/STM32WBxx_HAL_Driver/Inc/stm32wbxx_ll_system.h ****   ******************************************************************************
  31:Drivers/STM32WBxx_HAL_Driver/Inc/stm32wbxx_ll_system.h ****   */
  32:Drivers/STM32WBxx_HAL_Driver/Inc/stm32wbxx_ll_system.h **** 
  33:Drivers/STM32WBxx_HAL_Driver/Inc/stm32wbxx_ll_system.h **** /* Define to prevent recursive inclusion -------------------------------------*/
  34:Drivers/STM32WBxx_HAL_Driver/Inc/stm32wbxx_ll_system.h **** #ifndef STM32WBxx_LL_SYSTEM_H
  35:Drivers/STM32WBxx_HAL_Driver/Inc/stm32wbxx_ll_system.h **** #define STM32WBxx_LL_SYSTEM_H
  36:Drivers/STM32WBxx_HAL_Driver/Inc/stm32wbxx_ll_system.h **** 
  37:Drivers/STM32WBxx_HAL_Driver/Inc/stm32wbxx_ll_system.h **** #ifdef __cplusplus
  38:Drivers/STM32WBxx_HAL_Driver/Inc/stm32wbxx_ll_system.h **** extern "C" {
  39:Drivers/STM32WBxx_HAL_Driver/Inc/stm32wbxx_ll_system.h **** #endif
  40:Drivers/STM32WBxx_HAL_Driver/Inc/stm32wbxx_ll_system.h **** 
  41:Drivers/STM32WBxx_HAL_Driver/Inc/stm32wbxx_ll_system.h **** /* Includes ------------------------------------------------------------------*/
  42:Drivers/STM32WBxx_HAL_Driver/Inc/stm32wbxx_ll_system.h **** #include "stm32wbxx.h"
  43:Drivers/STM32WBxx_HAL_Driver/Inc/stm32wbxx_ll_system.h **** 
  44:Drivers/STM32WBxx_HAL_Driver/Inc/stm32wbxx_ll_system.h **** /** @addtogroup STM32WBxx_LL_Driver
  45:Drivers/STM32WBxx_HAL_Driver/Inc/stm32wbxx_ll_system.h ****   * @{
  46:Drivers/STM32WBxx_HAL_Driver/Inc/stm32wbxx_ll_system.h ****   */
  47:Drivers/STM32WBxx_HAL_Driver/Inc/stm32wbxx_ll_system.h **** 
  48:Drivers/STM32WBxx_HAL_Driver/Inc/stm32wbxx_ll_system.h **** #if defined (FLASH) || defined (SYSCFG) || defined (DBGMCU) || defined (VREFBUF)
  49:Drivers/STM32WBxx_HAL_Driver/Inc/stm32wbxx_ll_system.h **** 
  50:Drivers/STM32WBxx_HAL_Driver/Inc/stm32wbxx_ll_system.h **** /** @defgroup SYSTEM_LL SYSTEM
  51:Drivers/STM32WBxx_HAL_Driver/Inc/stm32wbxx_ll_system.h ****   * @{
  52:Drivers/STM32WBxx_HAL_Driver/Inc/stm32wbxx_ll_system.h ****   */
  53:Drivers/STM32WBxx_HAL_Driver/Inc/stm32wbxx_ll_system.h **** 
  54:Drivers/STM32WBxx_HAL_Driver/Inc/stm32wbxx_ll_system.h **** /* Private types -------------------------------------------------------------*/
  55:Drivers/STM32WBxx_HAL_Driver/Inc/stm32wbxx_ll_system.h **** /* Private variables ---------------------------------------------------------*/
  56:Drivers/STM32WBxx_HAL_Driver/Inc/stm32wbxx_ll_system.h **** 
  57:Drivers/STM32WBxx_HAL_Driver/Inc/stm32wbxx_ll_system.h **** /* Private constants ---------------------------------------------------------*/
  58:Drivers/STM32WBxx_HAL_Driver/Inc/stm32wbxx_ll_system.h **** /** @defgroup SYSTEM_LL_Private_Constants SYSTEM Private Constants
  59:Drivers/STM32WBxx_HAL_Driver/Inc/stm32wbxx_ll_system.h ****   * @{
  60:Drivers/STM32WBxx_HAL_Driver/Inc/stm32wbxx_ll_system.h ****   */
  61:Drivers/STM32WBxx_HAL_Driver/Inc/stm32wbxx_ll_system.h **** /**
  62:Drivers/STM32WBxx_HAL_Driver/Inc/stm32wbxx_ll_system.h ****   * @brief VREFBUF VREF_SC0 & VREF_SC1 calibration values
  63:Drivers/STM32WBxx_HAL_Driver/Inc/stm32wbxx_ll_system.h ****   */
  64:Drivers/STM32WBxx_HAL_Driver/Inc/stm32wbxx_ll_system.h **** #define VREFBUF_SC0_CAL_ADDR   ((uint8_t*) (0x1FFF75F0UL)) /*!<  Address of VREFBUF trimming value 
  65:Drivers/STM32WBxx_HAL_Driver/Inc/stm32wbxx_ll_system.h ****                                                                  VREF_SC0 in STM32WB datasheet */
  66:Drivers/STM32WBxx_HAL_Driver/Inc/stm32wbxx_ll_system.h **** #define VREFBUF_SC1_CAL_ADDR   ((uint8_t*) (0x1FFF7530UL)) /*!<  Address of VREFBUF trimming value 
  67:Drivers/STM32WBxx_HAL_Driver/Inc/stm32wbxx_ll_system.h ****                                                                  VREF_SC1 in STM32WB datasheet */
  68:Drivers/STM32WBxx_HAL_Driver/Inc/stm32wbxx_ll_system.h **** /**
  69:Drivers/STM32WBxx_HAL_Driver/Inc/stm32wbxx_ll_system.h ****   * @}
  70:Drivers/STM32WBxx_HAL_Driver/Inc/stm32wbxx_ll_system.h ****   */
  71:Drivers/STM32WBxx_HAL_Driver/Inc/stm32wbxx_ll_system.h **** 
  72:Drivers/STM32WBxx_HAL_Driver/Inc/stm32wbxx_ll_system.h **** /* Private macros ------------------------------------------------------------*/
  73:Drivers/STM32WBxx_HAL_Driver/Inc/stm32wbxx_ll_system.h **** 
ARM GAS  C:\Users\Nathan\AppData\Local\Temp\ccVM5ua8.s 			page 29


  74:Drivers/STM32WBxx_HAL_Driver/Inc/stm32wbxx_ll_system.h **** /* Exported types ------------------------------------------------------------*/
  75:Drivers/STM32WBxx_HAL_Driver/Inc/stm32wbxx_ll_system.h **** /* Exported constants --------------------------------------------------------*/
  76:Drivers/STM32WBxx_HAL_Driver/Inc/stm32wbxx_ll_system.h **** /** @defgroup SYSTEM_LL_Exported_Constants SYSTEM Exported Constants
  77:Drivers/STM32WBxx_HAL_Driver/Inc/stm32wbxx_ll_system.h ****   * @{
  78:Drivers/STM32WBxx_HAL_Driver/Inc/stm32wbxx_ll_system.h ****   */
  79:Drivers/STM32WBxx_HAL_Driver/Inc/stm32wbxx_ll_system.h **** 
  80:Drivers/STM32WBxx_HAL_Driver/Inc/stm32wbxx_ll_system.h **** /** @defgroup SYSTEM_LL_EC_REMAP SYSCFG REMAP
  81:Drivers/STM32WBxx_HAL_Driver/Inc/stm32wbxx_ll_system.h ****   * @{
  82:Drivers/STM32WBxx_HAL_Driver/Inc/stm32wbxx_ll_system.h ****   */
  83:Drivers/STM32WBxx_HAL_Driver/Inc/stm32wbxx_ll_system.h **** #define LL_SYSCFG_REMAP_FLASH                   0x00000000U                                        
  84:Drivers/STM32WBxx_HAL_Driver/Inc/stm32wbxx_ll_system.h **** #define LL_SYSCFG_REMAP_SYSTEMFLASH             SYSCFG_MEMRMP_MEM_MODE_0                           
  85:Drivers/STM32WBxx_HAL_Driver/Inc/stm32wbxx_ll_system.h **** #define LL_SYSCFG_REMAP_SRAM                    (SYSCFG_MEMRMP_MEM_MODE_1 | SYSCFG_MEMRMP_MEM_MODE_
  86:Drivers/STM32WBxx_HAL_Driver/Inc/stm32wbxx_ll_system.h **** #if defined(QUADSPI)
  87:Drivers/STM32WBxx_HAL_Driver/Inc/stm32wbxx_ll_system.h **** #define LL_SYSCFG_REMAP_QUADSPI                 (SYSCFG_MEMRMP_MEM_MODE_2 | SYSCFG_MEMRMP_MEM_MODE_
  88:Drivers/STM32WBxx_HAL_Driver/Inc/stm32wbxx_ll_system.h **** #endif /* QUADSPI */
  89:Drivers/STM32WBxx_HAL_Driver/Inc/stm32wbxx_ll_system.h **** /**
  90:Drivers/STM32WBxx_HAL_Driver/Inc/stm32wbxx_ll_system.h ****   * @}
  91:Drivers/STM32WBxx_HAL_Driver/Inc/stm32wbxx_ll_system.h ****   */
  92:Drivers/STM32WBxx_HAL_Driver/Inc/stm32wbxx_ll_system.h **** 
  93:Drivers/STM32WBxx_HAL_Driver/Inc/stm32wbxx_ll_system.h **** /** @defgroup SYSTEM_LL_EC_I2C_FASTMODEPLUS SYSCFG I2C FASTMODEPLUS
  94:Drivers/STM32WBxx_HAL_Driver/Inc/stm32wbxx_ll_system.h ****   * @{
  95:Drivers/STM32WBxx_HAL_Driver/Inc/stm32wbxx_ll_system.h ****   */
  96:Drivers/STM32WBxx_HAL_Driver/Inc/stm32wbxx_ll_system.h **** #define LL_SYSCFG_I2C_FASTMODEPLUS_PB6          SYSCFG_CFGR1_I2C_PB6_FMP /*!< Enable Fast Mode Plus
  97:Drivers/STM32WBxx_HAL_Driver/Inc/stm32wbxx_ll_system.h **** #define LL_SYSCFG_I2C_FASTMODEPLUS_PB7          SYSCFG_CFGR1_I2C_PB7_FMP /*!< Enable Fast Mode Plus
  98:Drivers/STM32WBxx_HAL_Driver/Inc/stm32wbxx_ll_system.h **** #define LL_SYSCFG_I2C_FASTMODEPLUS_PB8          SYSCFG_CFGR1_I2C_PB8_FMP /*!< Enable Fast Mode Plus
  99:Drivers/STM32WBxx_HAL_Driver/Inc/stm32wbxx_ll_system.h **** #define LL_SYSCFG_I2C_FASTMODEPLUS_PB9          SYSCFG_CFGR1_I2C_PB9_FMP /*!< Enable Fast Mode Plus
 100:Drivers/STM32WBxx_HAL_Driver/Inc/stm32wbxx_ll_system.h **** #define LL_SYSCFG_I2C_FASTMODEPLUS_I2C1         SYSCFG_CFGR1_I2C1_FMP    /*!< Enable Fast Mode Plus
 101:Drivers/STM32WBxx_HAL_Driver/Inc/stm32wbxx_ll_system.h **** #if defined(I2C3)
 102:Drivers/STM32WBxx_HAL_Driver/Inc/stm32wbxx_ll_system.h **** #define LL_SYSCFG_I2C_FASTMODEPLUS_I2C3         SYSCFG_CFGR1_I2C3_FMP    /*!< Enable Fast Mode Plus
 103:Drivers/STM32WBxx_HAL_Driver/Inc/stm32wbxx_ll_system.h **** #endif /* I2C3 */
 104:Drivers/STM32WBxx_HAL_Driver/Inc/stm32wbxx_ll_system.h **** /**
 105:Drivers/STM32WBxx_HAL_Driver/Inc/stm32wbxx_ll_system.h ****   * @}
 106:Drivers/STM32WBxx_HAL_Driver/Inc/stm32wbxx_ll_system.h ****   */
 107:Drivers/STM32WBxx_HAL_Driver/Inc/stm32wbxx_ll_system.h **** 
 108:Drivers/STM32WBxx_HAL_Driver/Inc/stm32wbxx_ll_system.h **** /** @defgroup SYSTEM_LL_EC_EXTI_PORT SYSCFG EXTI PORT
 109:Drivers/STM32WBxx_HAL_Driver/Inc/stm32wbxx_ll_system.h ****   * @{
 110:Drivers/STM32WBxx_HAL_Driver/Inc/stm32wbxx_ll_system.h ****   */
 111:Drivers/STM32WBxx_HAL_Driver/Inc/stm32wbxx_ll_system.h **** #define LL_SYSCFG_EXTI_PORTA                    0U /*!< EXTI PORT A */
 112:Drivers/STM32WBxx_HAL_Driver/Inc/stm32wbxx_ll_system.h **** #define LL_SYSCFG_EXTI_PORTB                    1U /*!< EXTI PORT B */
 113:Drivers/STM32WBxx_HAL_Driver/Inc/stm32wbxx_ll_system.h **** #define LL_SYSCFG_EXTI_PORTC                    2U /*!< EXTI PORT C */
 114:Drivers/STM32WBxx_HAL_Driver/Inc/stm32wbxx_ll_system.h **** #define LL_SYSCFG_EXTI_PORTD                    3U /*!< EXTI PORT D */
 115:Drivers/STM32WBxx_HAL_Driver/Inc/stm32wbxx_ll_system.h **** #define LL_SYSCFG_EXTI_PORTE                    4U /*!< EXTI PORT E */
 116:Drivers/STM32WBxx_HAL_Driver/Inc/stm32wbxx_ll_system.h **** #define LL_SYSCFG_EXTI_PORTH                    7U /*!< EXTI PORT H */
 117:Drivers/STM32WBxx_HAL_Driver/Inc/stm32wbxx_ll_system.h **** /**
 118:Drivers/STM32WBxx_HAL_Driver/Inc/stm32wbxx_ll_system.h ****   * @}
 119:Drivers/STM32WBxx_HAL_Driver/Inc/stm32wbxx_ll_system.h ****   */
 120:Drivers/STM32WBxx_HAL_Driver/Inc/stm32wbxx_ll_system.h **** 
 121:Drivers/STM32WBxx_HAL_Driver/Inc/stm32wbxx_ll_system.h **** /** @defgroup SYSTEM_LL_EC_EXTI_LINE SYSCFG EXTI LINE
 122:Drivers/STM32WBxx_HAL_Driver/Inc/stm32wbxx_ll_system.h ****   * @{
 123:Drivers/STM32WBxx_HAL_Driver/Inc/stm32wbxx_ll_system.h ****   */
 124:Drivers/STM32WBxx_HAL_Driver/Inc/stm32wbxx_ll_system.h **** #define LL_SYSCFG_EXTI_LINE0                    (uint32_t)((0x000FU << 16U) | 0U) /*!< EXTI_POSITIO
 125:Drivers/STM32WBxx_HAL_Driver/Inc/stm32wbxx_ll_system.h **** #define LL_SYSCFG_EXTI_LINE1                    (uint32_t)((0x00F0U << 16U) | 0U) /*!< EXTI_POSITIO
 126:Drivers/STM32WBxx_HAL_Driver/Inc/stm32wbxx_ll_system.h **** #define LL_SYSCFG_EXTI_LINE2                    (uint32_t)((0x0F00U << 16U) | 0U) /*!< EXTI_POSITIO
 127:Drivers/STM32WBxx_HAL_Driver/Inc/stm32wbxx_ll_system.h **** #define LL_SYSCFG_EXTI_LINE3                    (uint32_t)((0xF000U << 16U) | 0U) /*!< EXTI_POSITIO
 128:Drivers/STM32WBxx_HAL_Driver/Inc/stm32wbxx_ll_system.h **** #define LL_SYSCFG_EXTI_LINE4                    (uint32_t)((0x000FU << 16U) | 1U) /*!< EXTI_POSITIO
 129:Drivers/STM32WBxx_HAL_Driver/Inc/stm32wbxx_ll_system.h **** #define LL_SYSCFG_EXTI_LINE5                    (uint32_t)((0x00F0U << 16U) | 1U) /*!< EXTI_POSITIO
 130:Drivers/STM32WBxx_HAL_Driver/Inc/stm32wbxx_ll_system.h **** #define LL_SYSCFG_EXTI_LINE6                    (uint32_t)((0x0F00U << 16U) | 1U) /*!< EXTI_POSITIO
ARM GAS  C:\Users\Nathan\AppData\Local\Temp\ccVM5ua8.s 			page 30


 131:Drivers/STM32WBxx_HAL_Driver/Inc/stm32wbxx_ll_system.h **** #define LL_SYSCFG_EXTI_LINE7                    (uint32_t)((0xF000U << 16U) | 1U) /*!< EXTI_POSITIO
 132:Drivers/STM32WBxx_HAL_Driver/Inc/stm32wbxx_ll_system.h **** #define LL_SYSCFG_EXTI_LINE8                    (uint32_t)((0x000FU << 16U) | 2U) /*!< EXTI_POSITIO
 133:Drivers/STM32WBxx_HAL_Driver/Inc/stm32wbxx_ll_system.h **** #define LL_SYSCFG_EXTI_LINE9                    (uint32_t)((0x00F0U << 16U) | 2U) /*!< EXTI_POSITIO
 134:Drivers/STM32WBxx_HAL_Driver/Inc/stm32wbxx_ll_system.h **** #define LL_SYSCFG_EXTI_LINE10                   (uint32_t)((0x0F00U << 16U) | 2U) /*!< EXTI_POSITIO
 135:Drivers/STM32WBxx_HAL_Driver/Inc/stm32wbxx_ll_system.h **** #define LL_SYSCFG_EXTI_LINE11                   (uint32_t)((0xF000U << 16U) | 2U) /*!< EXTI_POSITIO
 136:Drivers/STM32WBxx_HAL_Driver/Inc/stm32wbxx_ll_system.h **** #define LL_SYSCFG_EXTI_LINE12                   (uint32_t)((0x000FU << 16U) | 3U) /*!< EXTI_POSITIO
 137:Drivers/STM32WBxx_HAL_Driver/Inc/stm32wbxx_ll_system.h **** #define LL_SYSCFG_EXTI_LINE13                   (uint32_t)((0x00F0U << 16U) | 3U) /*!< EXTI_POSITIO
 138:Drivers/STM32WBxx_HAL_Driver/Inc/stm32wbxx_ll_system.h **** #define LL_SYSCFG_EXTI_LINE14                   (uint32_t)((0x0F00U << 16U) | 3U) /*!< EXTI_POSITIO
 139:Drivers/STM32WBxx_HAL_Driver/Inc/stm32wbxx_ll_system.h **** #define LL_SYSCFG_EXTI_LINE15                   (uint32_t)((0xF000U << 16U) | 3U) /*!< EXTI_POSITIO
 140:Drivers/STM32WBxx_HAL_Driver/Inc/stm32wbxx_ll_system.h **** /**
 141:Drivers/STM32WBxx_HAL_Driver/Inc/stm32wbxx_ll_system.h ****   * @}
 142:Drivers/STM32WBxx_HAL_Driver/Inc/stm32wbxx_ll_system.h ****   */
 143:Drivers/STM32WBxx_HAL_Driver/Inc/stm32wbxx_ll_system.h **** 
 144:Drivers/STM32WBxx_HAL_Driver/Inc/stm32wbxx_ll_system.h **** /** @defgroup SYSTEM_LL_EC_TIMBREAK SYSCFG TIMER BREAK
 145:Drivers/STM32WBxx_HAL_Driver/Inc/stm32wbxx_ll_system.h ****   * @{
 146:Drivers/STM32WBxx_HAL_Driver/Inc/stm32wbxx_ll_system.h ****   */
 147:Drivers/STM32WBxx_HAL_Driver/Inc/stm32wbxx_ll_system.h **** #define LL_SYSCFG_TIMBREAK_ECC                  SYSCFG_CFGR2_ECCL   /*!< Enables and locks the ECC 
 148:Drivers/STM32WBxx_HAL_Driver/Inc/stm32wbxx_ll_system.h ****                                                                          with Break Input of TIM1/1
 149:Drivers/STM32WBxx_HAL_Driver/Inc/stm32wbxx_ll_system.h **** #define LL_SYSCFG_TIMBREAK_PVD                  SYSCFG_CFGR2_PVDL   /*!< Enables and locks the PVD 
 150:Drivers/STM32WBxx_HAL_Driver/Inc/stm32wbxx_ll_system.h ****                                                                          with TIM1/16/17 Break Inpu
 151:Drivers/STM32WBxx_HAL_Driver/Inc/stm32wbxx_ll_system.h ****                                                                          and also the PVDE
 152:Drivers/STM32WBxx_HAL_Driver/Inc/stm32wbxx_ll_system.h ****                                                                          and PLS bits of the Power 
 153:Drivers/STM32WBxx_HAL_Driver/Inc/stm32wbxx_ll_system.h **** #define LL_SYSCFG_TIMBREAK_SRAM2_PARITY         SYSCFG_CFGR2_SPL    /*!< Enables and locks the SRAM
 154:Drivers/STM32WBxx_HAL_Driver/Inc/stm32wbxx_ll_system.h ****                                                                          with Break Input of TIM1/1
 155:Drivers/STM32WBxx_HAL_Driver/Inc/stm32wbxx_ll_system.h **** #define LL_SYSCFG_TIMBREAK_LOCKUP               SYSCFG_CFGR2_CLL    /*!< Enables and locks the LOCK
 156:Drivers/STM32WBxx_HAL_Driver/Inc/stm32wbxx_ll_system.h ****                                                                          with Break Input of TIM1/1
 157:Drivers/STM32WBxx_HAL_Driver/Inc/stm32wbxx_ll_system.h **** /**
 158:Drivers/STM32WBxx_HAL_Driver/Inc/stm32wbxx_ll_system.h ****   * @}
 159:Drivers/STM32WBxx_HAL_Driver/Inc/stm32wbxx_ll_system.h ****   */
 160:Drivers/STM32WBxx_HAL_Driver/Inc/stm32wbxx_ll_system.h **** 
 161:Drivers/STM32WBxx_HAL_Driver/Inc/stm32wbxx_ll_system.h **** /** @defgroup SYSTEM_LL_EC_SRAM2WRP SYSCFG SRAM2 WRITE PROTECTION
 162:Drivers/STM32WBxx_HAL_Driver/Inc/stm32wbxx_ll_system.h ****   * @{
 163:Drivers/STM32WBxx_HAL_Driver/Inc/stm32wbxx_ll_system.h ****   */
 164:Drivers/STM32WBxx_HAL_Driver/Inc/stm32wbxx_ll_system.h **** #define LL_SYSCFG_SRAM2WRP_PAGE0                SYSCFG_SWPR1_PAGE0       /*!< SRAM2A Write protecti
 165:Drivers/STM32WBxx_HAL_Driver/Inc/stm32wbxx_ll_system.h **** #define LL_SYSCFG_SRAM2WRP_PAGE1                SYSCFG_SWPR1_PAGE1       /*!< SRAM2A Write protecti
 166:Drivers/STM32WBxx_HAL_Driver/Inc/stm32wbxx_ll_system.h **** #define LL_SYSCFG_SRAM2WRP_PAGE2                SYSCFG_SWPR1_PAGE2       /*!< SRAM2A Write protecti
 167:Drivers/STM32WBxx_HAL_Driver/Inc/stm32wbxx_ll_system.h **** #define LL_SYSCFG_SRAM2WRP_PAGE3                SYSCFG_SWPR1_PAGE3       /*!< SRAM2A Write protecti
 168:Drivers/STM32WBxx_HAL_Driver/Inc/stm32wbxx_ll_system.h **** #define LL_SYSCFG_SRAM2WRP_PAGE4                SYSCFG_SWPR1_PAGE4       /*!< SRAM2A Write protecti
 169:Drivers/STM32WBxx_HAL_Driver/Inc/stm32wbxx_ll_system.h **** #define LL_SYSCFG_SRAM2WRP_PAGE5                SYSCFG_SWPR1_PAGE5       /*!< SRAM2A Write protecti
 170:Drivers/STM32WBxx_HAL_Driver/Inc/stm32wbxx_ll_system.h **** #define LL_SYSCFG_SRAM2WRP_PAGE6                SYSCFG_SWPR1_PAGE6       /*!< SRAM2A Write protecti
 171:Drivers/STM32WBxx_HAL_Driver/Inc/stm32wbxx_ll_system.h **** #define LL_SYSCFG_SRAM2WRP_PAGE7                SYSCFG_SWPR1_PAGE7       /*!< SRAM2A Write protecti
 172:Drivers/STM32WBxx_HAL_Driver/Inc/stm32wbxx_ll_system.h **** #define LL_SYSCFG_SRAM2WRP_PAGE8                SYSCFG_SWPR1_PAGE8       /*!< SRAM2A Write protecti
 173:Drivers/STM32WBxx_HAL_Driver/Inc/stm32wbxx_ll_system.h **** #define LL_SYSCFG_SRAM2WRP_PAGE9                SYSCFG_SWPR1_PAGE9       /*!< SRAM2A Write protecti
 174:Drivers/STM32WBxx_HAL_Driver/Inc/stm32wbxx_ll_system.h **** #define LL_SYSCFG_SRAM2WRP_PAGE10               SYSCFG_SWPR1_PAGE10      /*!< SRAM2A Write protecti
 175:Drivers/STM32WBxx_HAL_Driver/Inc/stm32wbxx_ll_system.h **** #define LL_SYSCFG_SRAM2WRP_PAGE11               SYSCFG_SWPR1_PAGE11      /*!< SRAM2A Write protecti
 176:Drivers/STM32WBxx_HAL_Driver/Inc/stm32wbxx_ll_system.h **** #define LL_SYSCFG_SRAM2WRP_PAGE12               SYSCFG_SWPR1_PAGE12      /*!< SRAM2A Write protecti
 177:Drivers/STM32WBxx_HAL_Driver/Inc/stm32wbxx_ll_system.h **** #define LL_SYSCFG_SRAM2WRP_PAGE13               SYSCFG_SWPR1_PAGE13      /*!< SRAM2A Write protecti
 178:Drivers/STM32WBxx_HAL_Driver/Inc/stm32wbxx_ll_system.h **** #define LL_SYSCFG_SRAM2WRP_PAGE14               SYSCFG_SWPR1_PAGE14      /*!< SRAM2A Write protecti
 179:Drivers/STM32WBxx_HAL_Driver/Inc/stm32wbxx_ll_system.h **** #define LL_SYSCFG_SRAM2WRP_PAGE15               SYSCFG_SWPR1_PAGE15      /*!< SRAM2A Write protecti
 180:Drivers/STM32WBxx_HAL_Driver/Inc/stm32wbxx_ll_system.h **** #define LL_SYSCFG_SRAM2WRP_PAGE16               SYSCFG_SWPR1_PAGE16      /*!< SRAM2A Write protecti
 181:Drivers/STM32WBxx_HAL_Driver/Inc/stm32wbxx_ll_system.h **** #define LL_SYSCFG_SRAM2WRP_PAGE17               SYSCFG_SWPR1_PAGE17      /*!< SRAM2A Write protecti
 182:Drivers/STM32WBxx_HAL_Driver/Inc/stm32wbxx_ll_system.h **** #define LL_SYSCFG_SRAM2WRP_PAGE18               SYSCFG_SWPR1_PAGE18      /*!< SRAM2A Write protecti
 183:Drivers/STM32WBxx_HAL_Driver/Inc/stm32wbxx_ll_system.h **** #define LL_SYSCFG_SRAM2WRP_PAGE19               SYSCFG_SWPR1_PAGE19      /*!< SRAM2A Write protecti
 184:Drivers/STM32WBxx_HAL_Driver/Inc/stm32wbxx_ll_system.h **** #define LL_SYSCFG_SRAM2WRP_PAGE20               SYSCFG_SWPR1_PAGE20      /*!< SRAM2A Write protecti
 185:Drivers/STM32WBxx_HAL_Driver/Inc/stm32wbxx_ll_system.h **** #define LL_SYSCFG_SRAM2WRP_PAGE21               SYSCFG_SWPR1_PAGE21      /*!< SRAM2A Write protecti
 186:Drivers/STM32WBxx_HAL_Driver/Inc/stm32wbxx_ll_system.h **** #define LL_SYSCFG_SRAM2WRP_PAGE22               SYSCFG_SWPR1_PAGE22      /*!< SRAM2A Write protecti
 187:Drivers/STM32WBxx_HAL_Driver/Inc/stm32wbxx_ll_system.h **** #define LL_SYSCFG_SRAM2WRP_PAGE23               SYSCFG_SWPR1_PAGE23      /*!< SRAM2A Write protecti
ARM GAS  C:\Users\Nathan\AppData\Local\Temp\ccVM5ua8.s 			page 31


 188:Drivers/STM32WBxx_HAL_Driver/Inc/stm32wbxx_ll_system.h **** #define LL_SYSCFG_SRAM2WRP_PAGE24               SYSCFG_SWPR1_PAGE24      /*!< SRAM2A Write protecti
 189:Drivers/STM32WBxx_HAL_Driver/Inc/stm32wbxx_ll_system.h **** #define LL_SYSCFG_SRAM2WRP_PAGE25               SYSCFG_SWPR1_PAGE25      /*!< SRAM2A Write protecti
 190:Drivers/STM32WBxx_HAL_Driver/Inc/stm32wbxx_ll_system.h **** #define LL_SYSCFG_SRAM2WRP_PAGE26               SYSCFG_SWPR1_PAGE26      /*!< SRAM2A Write protecti
 191:Drivers/STM32WBxx_HAL_Driver/Inc/stm32wbxx_ll_system.h **** #define LL_SYSCFG_SRAM2WRP_PAGE27               SYSCFG_SWPR1_PAGE27      /*!< SRAM2A Write protecti
 192:Drivers/STM32WBxx_HAL_Driver/Inc/stm32wbxx_ll_system.h **** #define LL_SYSCFG_SRAM2WRP_PAGE28               SYSCFG_SWPR1_PAGE28      /*!< SRAM2A Write protecti
 193:Drivers/STM32WBxx_HAL_Driver/Inc/stm32wbxx_ll_system.h **** #define LL_SYSCFG_SRAM2WRP_PAGE29               SYSCFG_SWPR1_PAGE29      /*!< SRAM2A Write protecti
 194:Drivers/STM32WBxx_HAL_Driver/Inc/stm32wbxx_ll_system.h **** #define LL_SYSCFG_SRAM2WRP_PAGE30               SYSCFG_SWPR1_PAGE30      /*!< SRAM2A Write protecti
 195:Drivers/STM32WBxx_HAL_Driver/Inc/stm32wbxx_ll_system.h **** #define LL_SYSCFG_SRAM2WRP_PAGE31               SYSCFG_SWPR1_PAGE31      /*!< SRAM2A Write protecti
 196:Drivers/STM32WBxx_HAL_Driver/Inc/stm32wbxx_ll_system.h **** 
 197:Drivers/STM32WBxx_HAL_Driver/Inc/stm32wbxx_ll_system.h **** #define LL_SYSCFG_SRAM2WRP_PAGE32               SYSCFG_SWPR2_PAGE32      /*!< SRAM2B Write protecti
 198:Drivers/STM32WBxx_HAL_Driver/Inc/stm32wbxx_ll_system.h **** #define LL_SYSCFG_SRAM2WRP_PAGE33               SYSCFG_SWPR2_PAGE33      /*!< SRAM2B Write protecti
 199:Drivers/STM32WBxx_HAL_Driver/Inc/stm32wbxx_ll_system.h **** #define LL_SYSCFG_SRAM2WRP_PAGE34               SYSCFG_SWPR2_PAGE34      /*!< SRAM2B Write protecti
 200:Drivers/STM32WBxx_HAL_Driver/Inc/stm32wbxx_ll_system.h **** #define LL_SYSCFG_SRAM2WRP_PAGE35               SYSCFG_SWPR2_PAGE35      /*!< SRAM2B Write protecti
 201:Drivers/STM32WBxx_HAL_Driver/Inc/stm32wbxx_ll_system.h **** #if defined(SYSCFG_SWPR2_PAGE36)
 202:Drivers/STM32WBxx_HAL_Driver/Inc/stm32wbxx_ll_system.h **** #define LL_SYSCFG_SRAM2WRP_PAGE36               SYSCFG_SWPR2_PAGE36      /*!< SRAM2B Write protecti
 203:Drivers/STM32WBxx_HAL_Driver/Inc/stm32wbxx_ll_system.h **** #define LL_SYSCFG_SRAM2WRP_PAGE37               SYSCFG_SWPR2_PAGE37      /*!< SRAM2B Write protecti
 204:Drivers/STM32WBxx_HAL_Driver/Inc/stm32wbxx_ll_system.h **** #define LL_SYSCFG_SRAM2WRP_PAGE38               SYSCFG_SWPR2_PAGE38      /*!< SRAM2B Write protecti
 205:Drivers/STM32WBxx_HAL_Driver/Inc/stm32wbxx_ll_system.h **** #define LL_SYSCFG_SRAM2WRP_PAGE39               SYSCFG_SWPR2_PAGE39      /*!< SRAM2B Write protecti
 206:Drivers/STM32WBxx_HAL_Driver/Inc/stm32wbxx_ll_system.h **** #define LL_SYSCFG_SRAM2WRP_PAGE40               SYSCFG_SWPR2_PAGE40      /*!< SRAM2B Write protecti
 207:Drivers/STM32WBxx_HAL_Driver/Inc/stm32wbxx_ll_system.h **** #define LL_SYSCFG_SRAM2WRP_PAGE41               SYSCFG_SWPR2_PAGE41      /*!< SRAM2B Write protecti
 208:Drivers/STM32WBxx_HAL_Driver/Inc/stm32wbxx_ll_system.h **** #define LL_SYSCFG_SRAM2WRP_PAGE42               SYSCFG_SWPR2_PAGE42      /*!< SRAM2B Write protecti
 209:Drivers/STM32WBxx_HAL_Driver/Inc/stm32wbxx_ll_system.h **** #define LL_SYSCFG_SRAM2WRP_PAGE43               SYSCFG_SWPR2_PAGE43      /*!< SRAM2B Write protecti
 210:Drivers/STM32WBxx_HAL_Driver/Inc/stm32wbxx_ll_system.h **** #define LL_SYSCFG_SRAM2WRP_PAGE44               SYSCFG_SWPR2_PAGE44      /*!< SRAM2B Write protecti
 211:Drivers/STM32WBxx_HAL_Driver/Inc/stm32wbxx_ll_system.h **** #define LL_SYSCFG_SRAM2WRP_PAGE45               SYSCFG_SWPR2_PAGE45      /*!< SRAM2B Write protecti
 212:Drivers/STM32WBxx_HAL_Driver/Inc/stm32wbxx_ll_system.h **** #define LL_SYSCFG_SRAM2WRP_PAGE46               SYSCFG_SWPR2_PAGE46      /*!< SRAM2B Write protecti
 213:Drivers/STM32WBxx_HAL_Driver/Inc/stm32wbxx_ll_system.h **** #define LL_SYSCFG_SRAM2WRP_PAGE47               SYSCFG_SWPR2_PAGE47      /*!< SRAM2B Write protecti
 214:Drivers/STM32WBxx_HAL_Driver/Inc/stm32wbxx_ll_system.h **** #define LL_SYSCFG_SRAM2WRP_PAGE48               SYSCFG_SWPR2_PAGE48      /*!< SRAM2B Write protecti
 215:Drivers/STM32WBxx_HAL_Driver/Inc/stm32wbxx_ll_system.h **** #define LL_SYSCFG_SRAM2WRP_PAGE49               SYSCFG_SWPR2_PAGE49      /*!< SRAM2B Write protecti
 216:Drivers/STM32WBxx_HAL_Driver/Inc/stm32wbxx_ll_system.h **** #define LL_SYSCFG_SRAM2WRP_PAGE50               SYSCFG_SWPR2_PAGE50      /*!< SRAM2B Write protecti
 217:Drivers/STM32WBxx_HAL_Driver/Inc/stm32wbxx_ll_system.h **** #define LL_SYSCFG_SRAM2WRP_PAGE51               SYSCFG_SWPR2_PAGE51      /*!< SRAM2B Write protecti
 218:Drivers/STM32WBxx_HAL_Driver/Inc/stm32wbxx_ll_system.h **** #define LL_SYSCFG_SRAM2WRP_PAGE52               SYSCFG_SWPR2_PAGE52      /*!< SRAM2B Write protecti
 219:Drivers/STM32WBxx_HAL_Driver/Inc/stm32wbxx_ll_system.h **** #define LL_SYSCFG_SRAM2WRP_PAGE53               SYSCFG_SWPR2_PAGE53      /*!< SRAM2B Write protecti
 220:Drivers/STM32WBxx_HAL_Driver/Inc/stm32wbxx_ll_system.h **** #define LL_SYSCFG_SRAM2WRP_PAGE54               SYSCFG_SWPR2_PAGE54      /*!< SRAM2B Write protecti
 221:Drivers/STM32WBxx_HAL_Driver/Inc/stm32wbxx_ll_system.h **** #define LL_SYSCFG_SRAM2WRP_PAGE55               SYSCFG_SWPR2_PAGE55      /*!< SRAM2B Write protecti
 222:Drivers/STM32WBxx_HAL_Driver/Inc/stm32wbxx_ll_system.h **** #define LL_SYSCFG_SRAM2WRP_PAGE56               SYSCFG_SWPR2_PAGE56      /*!< SRAM2B Write protecti
 223:Drivers/STM32WBxx_HAL_Driver/Inc/stm32wbxx_ll_system.h **** #define LL_SYSCFG_SRAM2WRP_PAGE57               SYSCFG_SWPR2_PAGE57      /*!< SRAM2B Write protecti
 224:Drivers/STM32WBxx_HAL_Driver/Inc/stm32wbxx_ll_system.h **** #define LL_SYSCFG_SRAM2WRP_PAGE58               SYSCFG_SWPR2_PAGE58      /*!< SRAM2B Write protecti
 225:Drivers/STM32WBxx_HAL_Driver/Inc/stm32wbxx_ll_system.h **** #define LL_SYSCFG_SRAM2WRP_PAGE59               SYSCFG_SWPR2_PAGE59      /*!< SRAM2B Write protecti
 226:Drivers/STM32WBxx_HAL_Driver/Inc/stm32wbxx_ll_system.h **** #define LL_SYSCFG_SRAM2WRP_PAGE60               SYSCFG_SWPR2_PAGE60      /*!< SRAM2B Write protecti
 227:Drivers/STM32WBxx_HAL_Driver/Inc/stm32wbxx_ll_system.h **** #define LL_SYSCFG_SRAM2WRP_PAGE61               SYSCFG_SWPR2_PAGE61      /*!< SRAM2B Write protecti
 228:Drivers/STM32WBxx_HAL_Driver/Inc/stm32wbxx_ll_system.h **** #define LL_SYSCFG_SRAM2WRP_PAGE62               SYSCFG_SWPR2_PAGE62      /*!< SRAM2B Write protecti
 229:Drivers/STM32WBxx_HAL_Driver/Inc/stm32wbxx_ll_system.h **** #define LL_SYSCFG_SRAM2WRP_PAGE63               SYSCFG_SWPR2_PAGE63      /*!< SRAM2B Write protecti
 230:Drivers/STM32WBxx_HAL_Driver/Inc/stm32wbxx_ll_system.h **** #endif /* SYSCFG_SWPR2_PAGE36 */
 231:Drivers/STM32WBxx_HAL_Driver/Inc/stm32wbxx_ll_system.h **** /**
 232:Drivers/STM32WBxx_HAL_Driver/Inc/stm32wbxx_ll_system.h ****   * @}
 233:Drivers/STM32WBxx_HAL_Driver/Inc/stm32wbxx_ll_system.h ****   */
 234:Drivers/STM32WBxx_HAL_Driver/Inc/stm32wbxx_ll_system.h **** 
 235:Drivers/STM32WBxx_HAL_Driver/Inc/stm32wbxx_ll_system.h **** /** @defgroup SYSTEM_LL_EC_IM SYSCFG CPU1 INTERRUPT MASK
 236:Drivers/STM32WBxx_HAL_Driver/Inc/stm32wbxx_ll_system.h ****   * @{
 237:Drivers/STM32WBxx_HAL_Driver/Inc/stm32wbxx_ll_system.h ****   */
 238:Drivers/STM32WBxx_HAL_Driver/Inc/stm32wbxx_ll_system.h **** #define LL_SYSCFG_GRP1_TIM1                     SYSCFG_IMR1_TIM1IM     /*!< Enabling of interrupt f
 239:Drivers/STM32WBxx_HAL_Driver/Inc/stm32wbxx_ll_system.h **** #if defined(TIM16)
 240:Drivers/STM32WBxx_HAL_Driver/Inc/stm32wbxx_ll_system.h **** #define LL_SYSCFG_GRP1_TIM16                    SYSCFG_IMR1_TIM16IM    /*!< Enabling of interrupt f
 241:Drivers/STM32WBxx_HAL_Driver/Inc/stm32wbxx_ll_system.h **** #endif /* TIM16 */
 242:Drivers/STM32WBxx_HAL_Driver/Inc/stm32wbxx_ll_system.h **** #if defined(TIM17)
 243:Drivers/STM32WBxx_HAL_Driver/Inc/stm32wbxx_ll_system.h **** #define LL_SYSCFG_GRP1_TIM17                    SYSCFG_IMR1_TIM17IM    /*!< Enabling of interrupt f
 244:Drivers/STM32WBxx_HAL_Driver/Inc/stm32wbxx_ll_system.h **** #endif /* TIM17 */
ARM GAS  C:\Users\Nathan\AppData\Local\Temp\ccVM5ua8.s 			page 32


 245:Drivers/STM32WBxx_HAL_Driver/Inc/stm32wbxx_ll_system.h **** 
 246:Drivers/STM32WBxx_HAL_Driver/Inc/stm32wbxx_ll_system.h **** #define LL_SYSCFG_GRP1_EXTI5                    SYSCFG_IMR1_EXTI5IM    /*!< Enabling of interrupt f
 247:Drivers/STM32WBxx_HAL_Driver/Inc/stm32wbxx_ll_system.h **** #define LL_SYSCFG_GRP1_EXTI6                    SYSCFG_IMR1_EXTI6IM    /*!< Enabling of interrupt f
 248:Drivers/STM32WBxx_HAL_Driver/Inc/stm32wbxx_ll_system.h **** #define LL_SYSCFG_GRP1_EXTI7                    SYSCFG_IMR1_EXTI7IM    /*!< Enabling of interrupt f
 249:Drivers/STM32WBxx_HAL_Driver/Inc/stm32wbxx_ll_system.h **** #define LL_SYSCFG_GRP1_EXTI8                    SYSCFG_IMR1_EXTI8IM    /*!< Enabling of interrupt f
 250:Drivers/STM32WBxx_HAL_Driver/Inc/stm32wbxx_ll_system.h **** #define LL_SYSCFG_GRP1_EXTI9                    SYSCFG_IMR1_EXTI9IM    /*!< Enabling of interrupt f
 251:Drivers/STM32WBxx_HAL_Driver/Inc/stm32wbxx_ll_system.h **** #define LL_SYSCFG_GRP1_EXTI10                   SYSCFG_IMR1_EXTI10IM   /*!< Enabling of interrupt f
 252:Drivers/STM32WBxx_HAL_Driver/Inc/stm32wbxx_ll_system.h **** #define LL_SYSCFG_GRP1_EXTI11                   SYSCFG_IMR1_EXTI11IM   /*!< Enabling of interrupt f
 253:Drivers/STM32WBxx_HAL_Driver/Inc/stm32wbxx_ll_system.h **** #define LL_SYSCFG_GRP1_EXTI12                   SYSCFG_IMR1_EXTI12IM   /*!< Enabling of interrupt f
 254:Drivers/STM32WBxx_HAL_Driver/Inc/stm32wbxx_ll_system.h **** #define LL_SYSCFG_GRP1_EXTI13                   SYSCFG_IMR1_EXTI13IM   /*!< Enabling of interrupt f
 255:Drivers/STM32WBxx_HAL_Driver/Inc/stm32wbxx_ll_system.h **** #define LL_SYSCFG_GRP1_EXTI14                   SYSCFG_IMR1_EXTI14IM   /*!< Enabling of interrupt f
 256:Drivers/STM32WBxx_HAL_Driver/Inc/stm32wbxx_ll_system.h **** #define LL_SYSCFG_GRP1_EXTI15                   SYSCFG_IMR1_EXTI15IM   /*!< Enabling of interrupt f
 257:Drivers/STM32WBxx_HAL_Driver/Inc/stm32wbxx_ll_system.h **** 
 258:Drivers/STM32WBxx_HAL_Driver/Inc/stm32wbxx_ll_system.h **** #if defined(SYSCFG_IMR2_PVM1IM)
 259:Drivers/STM32WBxx_HAL_Driver/Inc/stm32wbxx_ll_system.h **** #define LL_SYSCFG_GRP2_PVM1                     SYSCFG_IMR2_PVM1IM     /*!< Enabling of interrupt f
 260:Drivers/STM32WBxx_HAL_Driver/Inc/stm32wbxx_ll_system.h **** #endif /* SYSCFG_IMR2_PVM1IM */
 261:Drivers/STM32WBxx_HAL_Driver/Inc/stm32wbxx_ll_system.h **** #define LL_SYSCFG_GRP2_PVM3                     SYSCFG_IMR2_PVM3IM     /*!< Enabling of interrupt f
 262:Drivers/STM32WBxx_HAL_Driver/Inc/stm32wbxx_ll_system.h **** #define LL_SYSCFG_GRP2_PVD                      SYSCFG_IMR2_PVDIM      /*!< Enabling of interrupt f
 263:Drivers/STM32WBxx_HAL_Driver/Inc/stm32wbxx_ll_system.h **** /**
 264:Drivers/STM32WBxx_HAL_Driver/Inc/stm32wbxx_ll_system.h ****   * @}
 265:Drivers/STM32WBxx_HAL_Driver/Inc/stm32wbxx_ll_system.h ****   */
 266:Drivers/STM32WBxx_HAL_Driver/Inc/stm32wbxx_ll_system.h **** 
 267:Drivers/STM32WBxx_HAL_Driver/Inc/stm32wbxx_ll_system.h **** /** @defgroup SYSTEM_LL_EC_C2_IM SYSCFG CPU2 INTERRUPT MASK
 268:Drivers/STM32WBxx_HAL_Driver/Inc/stm32wbxx_ll_system.h ****   * @{
 269:Drivers/STM32WBxx_HAL_Driver/Inc/stm32wbxx_ll_system.h ****   */
 270:Drivers/STM32WBxx_HAL_Driver/Inc/stm32wbxx_ll_system.h **** #define LL_C2_SYSCFG_GRP1_RTCSTAMP_RTCTAMP_LSECSS  SYSCFG_C2IMR1_RTCSTAMPTAMPLSECSSIM /*!< Enabling
 271:Drivers/STM32WBxx_HAL_Driver/Inc/stm32wbxx_ll_system.h ****                                                                                       and LSE Clock
 272:Drivers/STM32WBxx_HAL_Driver/Inc/stm32wbxx_ll_system.h **** #define LL_C2_SYSCFG_GRP1_RTCWKUP               SYSCFG_C2IMR1_RTCWKUPIM  /*!< Enabling of interrupt
 273:Drivers/STM32WBxx_HAL_Driver/Inc/stm32wbxx_ll_system.h **** #define LL_C2_SYSCFG_GRP1_RTCALARM              SYSCFG_C2IMR1_RTCALARMIM /*!< Enabling of interrupt
 274:Drivers/STM32WBxx_HAL_Driver/Inc/stm32wbxx_ll_system.h **** #define LL_C2_SYSCFG_GRP1_RCC                   SYSCFG_C2IMR1_RCCIM      /*!< Enabling of interrupt
 275:Drivers/STM32WBxx_HAL_Driver/Inc/stm32wbxx_ll_system.h **** #define LL_C2_SYSCFG_GRP1_FLASH                 SYSCFG_C2IMR1_FLASHIM    /*!< Enabling of interrupt
 276:Drivers/STM32WBxx_HAL_Driver/Inc/stm32wbxx_ll_system.h **** #define LL_C2_SYSCFG_GRP1_PKA                   SYSCFG_C2IMR1_PKAIM      /*!< Enabling of interrupt
 277:Drivers/STM32WBxx_HAL_Driver/Inc/stm32wbxx_ll_system.h **** #define LL_C2_SYSCFG_GRP1_RNG                   SYSCFG_C2IMR1_RNGIM      /*!< Enabling of interrupt
 278:Drivers/STM32WBxx_HAL_Driver/Inc/stm32wbxx_ll_system.h **** #if defined(AES1)
 279:Drivers/STM32WBxx_HAL_Driver/Inc/stm32wbxx_ll_system.h **** #define LL_C2_SYSCFG_GRP1_AES1                  SYSCFG_C2IMR1_AES1IM     /*!< Enabling of interrupt
 280:Drivers/STM32WBxx_HAL_Driver/Inc/stm32wbxx_ll_system.h **** #endif /* AES1 */
 281:Drivers/STM32WBxx_HAL_Driver/Inc/stm32wbxx_ll_system.h **** #if defined(COMP1)
 282:Drivers/STM32WBxx_HAL_Driver/Inc/stm32wbxx_ll_system.h **** #define LL_C2_SYSCFG_GRP1_COMP                  SYSCFG_C2IMR1_COMPIM     /*!< Enabling of interrupt
 283:Drivers/STM32WBxx_HAL_Driver/Inc/stm32wbxx_ll_system.h **** #endif /* COMP1 */
 284:Drivers/STM32WBxx_HAL_Driver/Inc/stm32wbxx_ll_system.h **** #define LL_C2_SYSCFG_GRP1_ADC                   SYSCFG_C2IMR1_ADCIM      /*!< Enabling of interrupt
 285:Drivers/STM32WBxx_HAL_Driver/Inc/stm32wbxx_ll_system.h **** 
 286:Drivers/STM32WBxx_HAL_Driver/Inc/stm32wbxx_ll_system.h **** #define LL_C2_SYSCFG_GRP1_EXTI0                 SYSCFG_C2IMR1_EXTI0IM    /*!< Enabling of interrupt
 287:Drivers/STM32WBxx_HAL_Driver/Inc/stm32wbxx_ll_system.h **** #define LL_C2_SYSCFG_GRP1_EXTI1                 SYSCFG_C2IMR1_EXTI1IM    /*!< Enabling of interrupt
 288:Drivers/STM32WBxx_HAL_Driver/Inc/stm32wbxx_ll_system.h **** #define LL_C2_SYSCFG_GRP1_EXTI2                 SYSCFG_C2IMR1_EXTI2IM    /*!< Enabling of interrupt
 289:Drivers/STM32WBxx_HAL_Driver/Inc/stm32wbxx_ll_system.h **** #define LL_C2_SYSCFG_GRP1_EXTI3                 SYSCFG_C2IMR1_EXTI3IM    /*!< Enabling of interrupt
 290:Drivers/STM32WBxx_HAL_Driver/Inc/stm32wbxx_ll_system.h **** #define LL_C2_SYSCFG_GRP1_EXTI4                 SYSCFG_C2IMR1_EXTI4IM    /*!< Enabling of interrupt
 291:Drivers/STM32WBxx_HAL_Driver/Inc/stm32wbxx_ll_system.h **** #define LL_C2_SYSCFG_GRP1_EXTI5                 SYSCFG_C2IMR1_EXTI5IM    /*!< Enabling of interrupt
 292:Drivers/STM32WBxx_HAL_Driver/Inc/stm32wbxx_ll_system.h **** #define LL_C2_SYSCFG_GRP1_EXTI6                 SYSCFG_C2IMR1_EXTI6IM    /*!< Enabling of interrupt
 293:Drivers/STM32WBxx_HAL_Driver/Inc/stm32wbxx_ll_system.h **** #define LL_C2_SYSCFG_GRP1_EXTI7                 SYSCFG_C2IMR1_EXTI7IM    /*!< Enabling of interrupt
 294:Drivers/STM32WBxx_HAL_Driver/Inc/stm32wbxx_ll_system.h **** #define LL_C2_SYSCFG_GRP1_EXTI8                 SYSCFG_C2IMR1_EXTI8IM    /*!< Enabling of interrupt
 295:Drivers/STM32WBxx_HAL_Driver/Inc/stm32wbxx_ll_system.h **** #define LL_C2_SYSCFG_GRP1_EXTI9                 SYSCFG_C2IMR1_EXTI9IM    /*!< Enabling of interrupt
 296:Drivers/STM32WBxx_HAL_Driver/Inc/stm32wbxx_ll_system.h **** #define LL_C2_SYSCFG_GRP1_EXTI10                SYSCFG_C2IMR1_EXTI10IM   /*!< Enabling of interrupt
 297:Drivers/STM32WBxx_HAL_Driver/Inc/stm32wbxx_ll_system.h **** #define LL_C2_SYSCFG_GRP1_EXTI11                SYSCFG_C2IMR1_EXTI11IM   /*!< Enabling of interrupt
 298:Drivers/STM32WBxx_HAL_Driver/Inc/stm32wbxx_ll_system.h **** #define LL_C2_SYSCFG_GRP1_EXTI12                SYSCFG_C2IMR1_EXTI12IM   /*!< Enabling of interrupt
 299:Drivers/STM32WBxx_HAL_Driver/Inc/stm32wbxx_ll_system.h **** #define LL_C2_SYSCFG_GRP1_EXTI13                SYSCFG_C2IMR1_EXTI13IM   /*!< Enabling of interrupt
 300:Drivers/STM32WBxx_HAL_Driver/Inc/stm32wbxx_ll_system.h **** #define LL_C2_SYSCFG_GRP1_EXTI14                SYSCFG_C2IMR1_EXTI14IM   /*!< Enabling of interrupt
 301:Drivers/STM32WBxx_HAL_Driver/Inc/stm32wbxx_ll_system.h **** #define LL_C2_SYSCFG_GRP1_EXTI15                SYSCFG_C2IMR1_EXTI15IM   /*!< Enabling of interrupt
ARM GAS  C:\Users\Nathan\AppData\Local\Temp\ccVM5ua8.s 			page 33


 302:Drivers/STM32WBxx_HAL_Driver/Inc/stm32wbxx_ll_system.h **** 
 303:Drivers/STM32WBxx_HAL_Driver/Inc/stm32wbxx_ll_system.h **** #define LL_C2_SYSCFG_GRP2_DMA1CH1               SYSCFG_C2IMR2_DMA1CH1IM  /*!< Enabling of interrupt
 304:Drivers/STM32WBxx_HAL_Driver/Inc/stm32wbxx_ll_system.h **** #define LL_C2_SYSCFG_GRP2_DMA1CH2               SYSCFG_C2IMR2_DMA1CH2IM  /*!< Enabling of interrupt
 305:Drivers/STM32WBxx_HAL_Driver/Inc/stm32wbxx_ll_system.h **** #define LL_C2_SYSCFG_GRP2_DMA1CH3               SYSCFG_C2IMR2_DMA1CH3IM  /*!< Enabling of interrupt
 306:Drivers/STM32WBxx_HAL_Driver/Inc/stm32wbxx_ll_system.h **** #define LL_C2_SYSCFG_GRP2_DMA1CH4               SYSCFG_C2IMR2_DMA1CH4IM  /*!< Enabling of interrupt
 307:Drivers/STM32WBxx_HAL_Driver/Inc/stm32wbxx_ll_system.h **** #define LL_C2_SYSCFG_GRP2_DMA1CH5               SYSCFG_C2IMR2_DMA1CH5IM  /*!< Enabling of interrupt
 308:Drivers/STM32WBxx_HAL_Driver/Inc/stm32wbxx_ll_system.h **** #define LL_C2_SYSCFG_GRP2_DMA1CH6               SYSCFG_C2IMR2_DMA1CH6IM  /*!< Enabling of interrupt
 309:Drivers/STM32WBxx_HAL_Driver/Inc/stm32wbxx_ll_system.h **** #define LL_C2_SYSCFG_GRP2_DMA1CH7               SYSCFG_C2IMR2_DMA1CH7IM  /*!< Enabling of interrupt
 310:Drivers/STM32WBxx_HAL_Driver/Inc/stm32wbxx_ll_system.h **** 
 311:Drivers/STM32WBxx_HAL_Driver/Inc/stm32wbxx_ll_system.h **** #if defined(DMA2)
 312:Drivers/STM32WBxx_HAL_Driver/Inc/stm32wbxx_ll_system.h **** #define LL_C2_SYSCFG_GRP2_DMA2CH1               SYSCFG_C2IMR2_DMA2CH1IM  /*!< Enabling of interrupt
 313:Drivers/STM32WBxx_HAL_Driver/Inc/stm32wbxx_ll_system.h **** #define LL_C2_SYSCFG_GRP2_DMA2CH2               SYSCFG_C2IMR2_DMA2CH2IM  /*!< Enabling of interrupt
 314:Drivers/STM32WBxx_HAL_Driver/Inc/stm32wbxx_ll_system.h **** #define LL_C2_SYSCFG_GRP2_DMA2CH3               SYSCFG_C2IMR2_DMA2CH3IM  /*!< Enabling of interrupt
 315:Drivers/STM32WBxx_HAL_Driver/Inc/stm32wbxx_ll_system.h **** #define LL_C2_SYSCFG_GRP2_DMA2CH4               SYSCFG_C2IMR2_DMA2CH4IM  /*!< Enabling of interrupt
 316:Drivers/STM32WBxx_HAL_Driver/Inc/stm32wbxx_ll_system.h **** #define LL_C2_SYSCFG_GRP2_DMA2CH5               SYSCFG_C2IMR2_DMA2CH5IM  /*!< Enabling of interrupt
 317:Drivers/STM32WBxx_HAL_Driver/Inc/stm32wbxx_ll_system.h **** #define LL_C2_SYSCFG_GRP2_DMA2CH6               SYSCFG_C2IMR2_DMA2CH6IM  /*!< Enabling of interrupt
 318:Drivers/STM32WBxx_HAL_Driver/Inc/stm32wbxx_ll_system.h **** #define LL_C2_SYSCFG_GRP2_DMA2CH7               SYSCFG_C2IMR2_DMA2CH7IM  /*!< Enabling of interrupt
 319:Drivers/STM32WBxx_HAL_Driver/Inc/stm32wbxx_ll_system.h **** #endif /* DMA2 */
 320:Drivers/STM32WBxx_HAL_Driver/Inc/stm32wbxx_ll_system.h **** 
 321:Drivers/STM32WBxx_HAL_Driver/Inc/stm32wbxx_ll_system.h **** #define LL_C2_SYSCFG_GRP2_DMAMUX1               SYSCFG_C2IMR2_DMAMUX1IM  /*!< Enabling of interrupt
 322:Drivers/STM32WBxx_HAL_Driver/Inc/stm32wbxx_ll_system.h **** #if defined(SYSCFG_C2IMR2_PVM1IM)
 323:Drivers/STM32WBxx_HAL_Driver/Inc/stm32wbxx_ll_system.h **** #define LL_C2_SYSCFG_GRP2_PVM1                  SYSCFG_C2IMR2_PVM1IM     /*!< Enabling of interrupt
 324:Drivers/STM32WBxx_HAL_Driver/Inc/stm32wbxx_ll_system.h **** #endif /* SYSCFG_C2IMR2_PVM1IM */
 325:Drivers/STM32WBxx_HAL_Driver/Inc/stm32wbxx_ll_system.h **** #define LL_C2_SYSCFG_GRP2_PVM3                  SYSCFG_C2IMR2_PVM3IM     /*!< Enabling of interrupt
 326:Drivers/STM32WBxx_HAL_Driver/Inc/stm32wbxx_ll_system.h **** #define LL_C2_SYSCFG_GRP2_PVD                   SYSCFG_C2IMR2_PVDIM      /*!< Enabling of interrupt
 327:Drivers/STM32WBxx_HAL_Driver/Inc/stm32wbxx_ll_system.h **** #define LL_C2_SYSCFG_GRP2_TSC                   SYSCFG_C2IMR2_TSCIM      /*!< Enabling of interrupt
 328:Drivers/STM32WBxx_HAL_Driver/Inc/stm32wbxx_ll_system.h **** #if defined(LCD)
 329:Drivers/STM32WBxx_HAL_Driver/Inc/stm32wbxx_ll_system.h **** #define LL_C2_SYSCFG_GRP2_LCD                   SYSCFG_C2IMR2_LCDIM      /*!< Enabling of interrupt
 330:Drivers/STM32WBxx_HAL_Driver/Inc/stm32wbxx_ll_system.h **** #endif /* LCD */
 331:Drivers/STM32WBxx_HAL_Driver/Inc/stm32wbxx_ll_system.h **** /**
 332:Drivers/STM32WBxx_HAL_Driver/Inc/stm32wbxx_ll_system.h ****   * @}
 333:Drivers/STM32WBxx_HAL_Driver/Inc/stm32wbxx_ll_system.h ****   */
 334:Drivers/STM32WBxx_HAL_Driver/Inc/stm32wbxx_ll_system.h **** 
 335:Drivers/STM32WBxx_HAL_Driver/Inc/stm32wbxx_ll_system.h **** /** @defgroup SYSTEM_LL_EC_SECURE_IP_ACCESS SYSCFG SECURE IP ACCESS
 336:Drivers/STM32WBxx_HAL_Driver/Inc/stm32wbxx_ll_system.h ****   * @{
 337:Drivers/STM32WBxx_HAL_Driver/Inc/stm32wbxx_ll_system.h ****   */
 338:Drivers/STM32WBxx_HAL_Driver/Inc/stm32wbxx_ll_system.h **** #if defined(AES1)
 339:Drivers/STM32WBxx_HAL_Driver/Inc/stm32wbxx_ll_system.h **** #define LL_SYSCFG_SECURE_ACCESS_AES1            SYSCFG_SIPCR_SAES1       /*!< Enabling the security
 340:Drivers/STM32WBxx_HAL_Driver/Inc/stm32wbxx_ll_system.h **** #endif /* AES1 */
 341:Drivers/STM32WBxx_HAL_Driver/Inc/stm32wbxx_ll_system.h **** #define LL_SYSCFG_SECURE_ACCESS_AES2            SYSCFG_SIPCR_SAES2       /*!< Enabling the security
 342:Drivers/STM32WBxx_HAL_Driver/Inc/stm32wbxx_ll_system.h **** #define LL_SYSCFG_SECURE_ACCESS_PKA             SYSCFG_SIPCR_SPKA        /*!< Enabling the security
 343:Drivers/STM32WBxx_HAL_Driver/Inc/stm32wbxx_ll_system.h **** #define LL_SYSCFG_SECURE_ACCESS_RNG             SYSCFG_SIPCR_SRNG        /*!< Enabling the security
 344:Drivers/STM32WBxx_HAL_Driver/Inc/stm32wbxx_ll_system.h **** /**
 345:Drivers/STM32WBxx_HAL_Driver/Inc/stm32wbxx_ll_system.h ****   * @}
 346:Drivers/STM32WBxx_HAL_Driver/Inc/stm32wbxx_ll_system.h ****   */
 347:Drivers/STM32WBxx_HAL_Driver/Inc/stm32wbxx_ll_system.h **** 
 348:Drivers/STM32WBxx_HAL_Driver/Inc/stm32wbxx_ll_system.h **** /** @defgroup SYSTEM_LL_EC_APB1_GRP1_STOP_IP DBGMCU CPU1 APB1 GRP1 STOP IP
 349:Drivers/STM32WBxx_HAL_Driver/Inc/stm32wbxx_ll_system.h ****   * @{
 350:Drivers/STM32WBxx_HAL_Driver/Inc/stm32wbxx_ll_system.h ****   */
 351:Drivers/STM32WBxx_HAL_Driver/Inc/stm32wbxx_ll_system.h **** #define LL_DBGMCU_APB1_GRP1_TIM2_STOP      DBGMCU_APB1FZR1_DBG_TIM2_STOP   /*!< The counter clock o
 352:Drivers/STM32WBxx_HAL_Driver/Inc/stm32wbxx_ll_system.h **** #define LL_DBGMCU_APB1_GRP1_RTC_STOP       DBGMCU_APB1FZR1_DBG_RTC_STOP    /*!< The clock of the RT
 353:Drivers/STM32WBxx_HAL_Driver/Inc/stm32wbxx_ll_system.h **** #define LL_DBGMCU_APB1_GRP1_WWDG_STOP      DBGMCU_APB1FZR1_DBG_WWDG_STOP   /*!< The window watchdog
 354:Drivers/STM32WBxx_HAL_Driver/Inc/stm32wbxx_ll_system.h **** #define LL_DBGMCU_APB1_GRP1_IWDG_STOP      DBGMCU_APB1FZR1_DBG_IWDG_STOP   /*!< The independent wat
 355:Drivers/STM32WBxx_HAL_Driver/Inc/stm32wbxx_ll_system.h **** #define LL_DBGMCU_APB1_GRP1_I2C1_STOP      DBGMCU_APB1FZR1_DBG_I2C1_STOP   /*!< The I2C1 SMBus time
 356:Drivers/STM32WBxx_HAL_Driver/Inc/stm32wbxx_ll_system.h **** #if defined(I2C3)
 357:Drivers/STM32WBxx_HAL_Driver/Inc/stm32wbxx_ll_system.h **** #define LL_DBGMCU_APB1_GRP1_I2C3_STOP      DBGMCU_APB1FZR1_DBG_I2C3_STOP   /*!< The I2C3 SMBus time
 358:Drivers/STM32WBxx_HAL_Driver/Inc/stm32wbxx_ll_system.h **** #endif /* I2C3 */
ARM GAS  C:\Users\Nathan\AppData\Local\Temp\ccVM5ua8.s 			page 34


 359:Drivers/STM32WBxx_HAL_Driver/Inc/stm32wbxx_ll_system.h **** #define LL_DBGMCU_APB1_GRP1_LPTIM1_STOP    DBGMCU_APB1FZR1_DBG_LPTIM1_STOP /*!< The counter clock o
 360:Drivers/STM32WBxx_HAL_Driver/Inc/stm32wbxx_ll_system.h **** /**
 361:Drivers/STM32WBxx_HAL_Driver/Inc/stm32wbxx_ll_system.h ****   * @}
 362:Drivers/STM32WBxx_HAL_Driver/Inc/stm32wbxx_ll_system.h ****   */
 363:Drivers/STM32WBxx_HAL_Driver/Inc/stm32wbxx_ll_system.h **** 
 364:Drivers/STM32WBxx_HAL_Driver/Inc/stm32wbxx_ll_system.h **** /** @defgroup SYSTEM_LL_EC_C2_APB1_GRP1_STOP_IP DBGMCU CPU2 APB1 GRP1 STOP IP
 365:Drivers/STM32WBxx_HAL_Driver/Inc/stm32wbxx_ll_system.h ****   * @{
 366:Drivers/STM32WBxx_HAL_Driver/Inc/stm32wbxx_ll_system.h ****   */
 367:Drivers/STM32WBxx_HAL_Driver/Inc/stm32wbxx_ll_system.h **** #define LL_C2_DBGMCU_APB1_GRP1_TIM2_STOP   DBGMCU_C2APB1FZR1_DBG_TIM2_STOP   /*!< The counter clock
 368:Drivers/STM32WBxx_HAL_Driver/Inc/stm32wbxx_ll_system.h **** #define LL_C2_DBGMCU_APB1_GRP1_RTC_STOP    DBGMCU_C2APB1FZR1_DBG_RTC_STOP    /*!< The clock of the 
 369:Drivers/STM32WBxx_HAL_Driver/Inc/stm32wbxx_ll_system.h **** #define LL_C2_DBGMCU_APB1_GRP1_IWDG_STOP   DBGMCU_C2APB1FZR1_DBG_IWDG_STOP   /*!< The independent w
 370:Drivers/STM32WBxx_HAL_Driver/Inc/stm32wbxx_ll_system.h **** #define LL_C2_DBGMCU_APB1_GRP1_I2C1_STOP   DBGMCU_C2APB1FZR1_DBG_I2C1_STOP   /*!< The I2C1 SMBus ti
 371:Drivers/STM32WBxx_HAL_Driver/Inc/stm32wbxx_ll_system.h **** #if defined(I2C3)
 372:Drivers/STM32WBxx_HAL_Driver/Inc/stm32wbxx_ll_system.h **** #define LL_C2_DBGMCU_APB1_GRP1_I2C3_STOP   DBGMCU_C2APB1FZR1_DBG_I2C3_STOP   /*!< The I2C3 SMBus ti
 373:Drivers/STM32WBxx_HAL_Driver/Inc/stm32wbxx_ll_system.h **** #endif /* I2C3 */
 374:Drivers/STM32WBxx_HAL_Driver/Inc/stm32wbxx_ll_system.h **** #define LL_C2_DBGMCU_APB1_GRP1_LPTIM1_STOP DBGMCU_C2APB1FZR1_DBG_LPTIM1_STOP /*!< The counter clock
 375:Drivers/STM32WBxx_HAL_Driver/Inc/stm32wbxx_ll_system.h **** /**
 376:Drivers/STM32WBxx_HAL_Driver/Inc/stm32wbxx_ll_system.h ****   * @}
 377:Drivers/STM32WBxx_HAL_Driver/Inc/stm32wbxx_ll_system.h ****   */
 378:Drivers/STM32WBxx_HAL_Driver/Inc/stm32wbxx_ll_system.h **** 
 379:Drivers/STM32WBxx_HAL_Driver/Inc/stm32wbxx_ll_system.h **** /** @defgroup SYSTEM_LL_EC_APB1_GRP2_STOP_IP DBGMCU CPU1 APB1 GRP2 STOP IP
 380:Drivers/STM32WBxx_HAL_Driver/Inc/stm32wbxx_ll_system.h ****   * @{
 381:Drivers/STM32WBxx_HAL_Driver/Inc/stm32wbxx_ll_system.h ****   */
 382:Drivers/STM32WBxx_HAL_Driver/Inc/stm32wbxx_ll_system.h **** #define LL_DBGMCU_APB1_GRP2_LPTIM2_STOP    DBGMCU_APB1FZR2_DBG_LPTIM2_STOP /*!< The counter clock o
 383:Drivers/STM32WBxx_HAL_Driver/Inc/stm32wbxx_ll_system.h **** /**
 384:Drivers/STM32WBxx_HAL_Driver/Inc/stm32wbxx_ll_system.h ****   * @}
 385:Drivers/STM32WBxx_HAL_Driver/Inc/stm32wbxx_ll_system.h ****   */
 386:Drivers/STM32WBxx_HAL_Driver/Inc/stm32wbxx_ll_system.h **** 
 387:Drivers/STM32WBxx_HAL_Driver/Inc/stm32wbxx_ll_system.h **** /** @defgroup SYSTEM_LL_EC_C2_APB1_GRP2_STOP_IP DBGMCU CPU2 APB1 GRP2 STOP IP
 388:Drivers/STM32WBxx_HAL_Driver/Inc/stm32wbxx_ll_system.h ****   * @{
 389:Drivers/STM32WBxx_HAL_Driver/Inc/stm32wbxx_ll_system.h ****   */
 390:Drivers/STM32WBxx_HAL_Driver/Inc/stm32wbxx_ll_system.h **** #define LL_C2_DBGMCU_APB1_GRP2_LPTIM2_STOP DBGMCU_C2APB1FZR2_DBG_LPTIM2_STOP /*!< The counter clock
 391:Drivers/STM32WBxx_HAL_Driver/Inc/stm32wbxx_ll_system.h **** /**
 392:Drivers/STM32WBxx_HAL_Driver/Inc/stm32wbxx_ll_system.h ****   * @}
 393:Drivers/STM32WBxx_HAL_Driver/Inc/stm32wbxx_ll_system.h ****   */
 394:Drivers/STM32WBxx_HAL_Driver/Inc/stm32wbxx_ll_system.h **** 
 395:Drivers/STM32WBxx_HAL_Driver/Inc/stm32wbxx_ll_system.h **** /** @defgroup SYSTEM_LL_EC_APB2_GRP1_STOP_IP DBGMCU CPU1 APB2 GRP1 STOP IP
 396:Drivers/STM32WBxx_HAL_Driver/Inc/stm32wbxx_ll_system.h ****   * @{
 397:Drivers/STM32WBxx_HAL_Driver/Inc/stm32wbxx_ll_system.h ****   */
 398:Drivers/STM32WBxx_HAL_Driver/Inc/stm32wbxx_ll_system.h **** #define LL_DBGMCU_APB2_GRP1_TIM1_STOP      DBGMCU_APB2FZR_DBG_TIM1_STOP   /*!< The counter clock of
 399:Drivers/STM32WBxx_HAL_Driver/Inc/stm32wbxx_ll_system.h **** #if defined(TIM16)
 400:Drivers/STM32WBxx_HAL_Driver/Inc/stm32wbxx_ll_system.h **** #define LL_DBGMCU_APB2_GRP1_TIM16_STOP     DBGMCU_APB2FZR_DBG_TIM16_STOP  /*!< The counter clock of
 401:Drivers/STM32WBxx_HAL_Driver/Inc/stm32wbxx_ll_system.h **** #endif /* TIM16 */
 402:Drivers/STM32WBxx_HAL_Driver/Inc/stm32wbxx_ll_system.h **** #if defined(TIM17)
 403:Drivers/STM32WBxx_HAL_Driver/Inc/stm32wbxx_ll_system.h **** #define LL_DBGMCU_APB2_GRP1_TIM17_STOP     DBGMCU_APB2FZR_DBG_TIM17_STOP  /*!< The counter clock of
 404:Drivers/STM32WBxx_HAL_Driver/Inc/stm32wbxx_ll_system.h **** #endif /* TIM17 */
 405:Drivers/STM32WBxx_HAL_Driver/Inc/stm32wbxx_ll_system.h **** /**
 406:Drivers/STM32WBxx_HAL_Driver/Inc/stm32wbxx_ll_system.h ****   * @}
 407:Drivers/STM32WBxx_HAL_Driver/Inc/stm32wbxx_ll_system.h ****   */
 408:Drivers/STM32WBxx_HAL_Driver/Inc/stm32wbxx_ll_system.h **** 
 409:Drivers/STM32WBxx_HAL_Driver/Inc/stm32wbxx_ll_system.h **** /** @defgroup SYSTEM_LL_EC_C2_APB2_GRP1_STOP_IP DBGMCU CPU2 APB2 GRP1 STOP IP
 410:Drivers/STM32WBxx_HAL_Driver/Inc/stm32wbxx_ll_system.h ****   * @{
 411:Drivers/STM32WBxx_HAL_Driver/Inc/stm32wbxx_ll_system.h ****   */
 412:Drivers/STM32WBxx_HAL_Driver/Inc/stm32wbxx_ll_system.h **** #define LL_C2_DBGMCU_APB2_GRP1_TIM1_STOP   DBGMCU_C2APB2FZR_DBG_TIM1_STOP   /*!< The counter clock 
 413:Drivers/STM32WBxx_HAL_Driver/Inc/stm32wbxx_ll_system.h **** #if defined(TIM16)
 414:Drivers/STM32WBxx_HAL_Driver/Inc/stm32wbxx_ll_system.h **** #define LL_C2_DBGMCU_APB2_GRP1_TIM16_STOP  DBGMCU_C2APB2FZR_DBG_TIM16_STOP  /*!< The counter clock 
 415:Drivers/STM32WBxx_HAL_Driver/Inc/stm32wbxx_ll_system.h **** #endif /* TIM16 */
ARM GAS  C:\Users\Nathan\AppData\Local\Temp\ccVM5ua8.s 			page 35


 416:Drivers/STM32WBxx_HAL_Driver/Inc/stm32wbxx_ll_system.h **** #if defined(TIM17)
 417:Drivers/STM32WBxx_HAL_Driver/Inc/stm32wbxx_ll_system.h **** #define LL_C2_DBGMCU_APB2_GRP1_TIM17_STOP  DBGMCU_C2APB2FZR_DBG_TIM17_STOP  /*!< The counter clock 
 418:Drivers/STM32WBxx_HAL_Driver/Inc/stm32wbxx_ll_system.h **** #endif /* TIM17 */
 419:Drivers/STM32WBxx_HAL_Driver/Inc/stm32wbxx_ll_system.h **** /**
 420:Drivers/STM32WBxx_HAL_Driver/Inc/stm32wbxx_ll_system.h ****   * @}
 421:Drivers/STM32WBxx_HAL_Driver/Inc/stm32wbxx_ll_system.h ****   */
 422:Drivers/STM32WBxx_HAL_Driver/Inc/stm32wbxx_ll_system.h **** 
 423:Drivers/STM32WBxx_HAL_Driver/Inc/stm32wbxx_ll_system.h **** #if defined(VREFBUF)
 424:Drivers/STM32WBxx_HAL_Driver/Inc/stm32wbxx_ll_system.h **** /** @defgroup SYSTEM_LL_EC_VOLTAGE VREFBUF VOLTAGE
 425:Drivers/STM32WBxx_HAL_Driver/Inc/stm32wbxx_ll_system.h ****   * @{
 426:Drivers/STM32WBxx_HAL_Driver/Inc/stm32wbxx_ll_system.h ****   */
 427:Drivers/STM32WBxx_HAL_Driver/Inc/stm32wbxx_ll_system.h **** #define LL_VREFBUF_VOLTAGE_SCALE0          0x00000000U     /*!< Voltage reference scale 0 (VREF_OUT
 428:Drivers/STM32WBxx_HAL_Driver/Inc/stm32wbxx_ll_system.h **** #define LL_VREFBUF_VOLTAGE_SCALE1          VREFBUF_CSR_VRS /*!< Voltage reference scale 1 (VREF_OUT
 429:Drivers/STM32WBxx_HAL_Driver/Inc/stm32wbxx_ll_system.h **** /**
 430:Drivers/STM32WBxx_HAL_Driver/Inc/stm32wbxx_ll_system.h ****   * @}
 431:Drivers/STM32WBxx_HAL_Driver/Inc/stm32wbxx_ll_system.h ****   */
 432:Drivers/STM32WBxx_HAL_Driver/Inc/stm32wbxx_ll_system.h **** #endif /* VREFBUF */
 433:Drivers/STM32WBxx_HAL_Driver/Inc/stm32wbxx_ll_system.h **** 
 434:Drivers/STM32WBxx_HAL_Driver/Inc/stm32wbxx_ll_system.h **** /** @defgroup SYSTEM_LL_EC_LATENCY FLASH LATENCY
 435:Drivers/STM32WBxx_HAL_Driver/Inc/stm32wbxx_ll_system.h ****   * @{
 436:Drivers/STM32WBxx_HAL_Driver/Inc/stm32wbxx_ll_system.h ****   */
 437:Drivers/STM32WBxx_HAL_Driver/Inc/stm32wbxx_ll_system.h **** #define LL_FLASH_LATENCY_0                 FLASH_ACR_LATENCY_0WS   /*!< FLASH Zero wait state   */
 438:Drivers/STM32WBxx_HAL_Driver/Inc/stm32wbxx_ll_system.h **** #define LL_FLASH_LATENCY_1                 FLASH_ACR_LATENCY_1WS   /*!< FLASH One wait state    */
 439:Drivers/STM32WBxx_HAL_Driver/Inc/stm32wbxx_ll_system.h **** #define LL_FLASH_LATENCY_2                 FLASH_ACR_LATENCY_2WS   /*!< FLASH Two wait states   */
 440:Drivers/STM32WBxx_HAL_Driver/Inc/stm32wbxx_ll_system.h **** #define LL_FLASH_LATENCY_3                 FLASH_ACR_LATENCY_3WS   /*!< FLASH Three wait states */
 441:Drivers/STM32WBxx_HAL_Driver/Inc/stm32wbxx_ll_system.h **** 
 442:Drivers/STM32WBxx_HAL_Driver/Inc/stm32wbxx_ll_system.h **** /**
 443:Drivers/STM32WBxx_HAL_Driver/Inc/stm32wbxx_ll_system.h ****   * @}
 444:Drivers/STM32WBxx_HAL_Driver/Inc/stm32wbxx_ll_system.h ****   */
 445:Drivers/STM32WBxx_HAL_Driver/Inc/stm32wbxx_ll_system.h **** 
 446:Drivers/STM32WBxx_HAL_Driver/Inc/stm32wbxx_ll_system.h **** /**
 447:Drivers/STM32WBxx_HAL_Driver/Inc/stm32wbxx_ll_system.h ****   * @}
 448:Drivers/STM32WBxx_HAL_Driver/Inc/stm32wbxx_ll_system.h ****   */
 449:Drivers/STM32WBxx_HAL_Driver/Inc/stm32wbxx_ll_system.h **** 
 450:Drivers/STM32WBxx_HAL_Driver/Inc/stm32wbxx_ll_system.h **** /* Exported macro ------------------------------------------------------------*/
 451:Drivers/STM32WBxx_HAL_Driver/Inc/stm32wbxx_ll_system.h **** 
 452:Drivers/STM32WBxx_HAL_Driver/Inc/stm32wbxx_ll_system.h **** /* Exported functions --------------------------------------------------------*/
 453:Drivers/STM32WBxx_HAL_Driver/Inc/stm32wbxx_ll_system.h **** /** @defgroup SYSTEM_LL_Exported_Functions SYSTEM Exported Functions
 454:Drivers/STM32WBxx_HAL_Driver/Inc/stm32wbxx_ll_system.h ****   * @{
 455:Drivers/STM32WBxx_HAL_Driver/Inc/stm32wbxx_ll_system.h ****   */
 456:Drivers/STM32WBxx_HAL_Driver/Inc/stm32wbxx_ll_system.h **** 
 457:Drivers/STM32WBxx_HAL_Driver/Inc/stm32wbxx_ll_system.h **** /** @defgroup SYSTEM_LL_EF_SYSCFG SYSCFG
 458:Drivers/STM32WBxx_HAL_Driver/Inc/stm32wbxx_ll_system.h ****   * @{
 459:Drivers/STM32WBxx_HAL_Driver/Inc/stm32wbxx_ll_system.h ****   */
 460:Drivers/STM32WBxx_HAL_Driver/Inc/stm32wbxx_ll_system.h **** 
 461:Drivers/STM32WBxx_HAL_Driver/Inc/stm32wbxx_ll_system.h **** /**
 462:Drivers/STM32WBxx_HAL_Driver/Inc/stm32wbxx_ll_system.h ****   * @brief  Set memory mapping at address 0x00000000
 463:Drivers/STM32WBxx_HAL_Driver/Inc/stm32wbxx_ll_system.h ****   * @rmtoll SYSCFG_MEMRMP MEM_MODE      LL_SYSCFG_SetRemapMemory
 464:Drivers/STM32WBxx_HAL_Driver/Inc/stm32wbxx_ll_system.h ****   * @param  Memory This parameter can be one of the following values:
 465:Drivers/STM32WBxx_HAL_Driver/Inc/stm32wbxx_ll_system.h ****   *         @arg @ref LL_SYSCFG_REMAP_FLASH
 466:Drivers/STM32WBxx_HAL_Driver/Inc/stm32wbxx_ll_system.h ****   *         @arg @ref LL_SYSCFG_REMAP_SYSTEMFLASH
 467:Drivers/STM32WBxx_HAL_Driver/Inc/stm32wbxx_ll_system.h ****   *         @arg @ref LL_SYSCFG_REMAP_SRAM
 468:Drivers/STM32WBxx_HAL_Driver/Inc/stm32wbxx_ll_system.h ****   *         @arg @ref LL_SYSCFG_REMAP_QUADSPI
 469:Drivers/STM32WBxx_HAL_Driver/Inc/stm32wbxx_ll_system.h ****   * @retval None
 470:Drivers/STM32WBxx_HAL_Driver/Inc/stm32wbxx_ll_system.h ****   */
 471:Drivers/STM32WBxx_HAL_Driver/Inc/stm32wbxx_ll_system.h **** __STATIC_INLINE void LL_SYSCFG_SetRemapMemory(uint32_t Memory)
 472:Drivers/STM32WBxx_HAL_Driver/Inc/stm32wbxx_ll_system.h **** {
ARM GAS  C:\Users\Nathan\AppData\Local\Temp\ccVM5ua8.s 			page 36


 473:Drivers/STM32WBxx_HAL_Driver/Inc/stm32wbxx_ll_system.h ****   MODIFY_REG(SYSCFG->MEMRMP, SYSCFG_MEMRMP_MEM_MODE, Memory);
 474:Drivers/STM32WBxx_HAL_Driver/Inc/stm32wbxx_ll_system.h **** }
 475:Drivers/STM32WBxx_HAL_Driver/Inc/stm32wbxx_ll_system.h **** 
 476:Drivers/STM32WBxx_HAL_Driver/Inc/stm32wbxx_ll_system.h **** /**
 477:Drivers/STM32WBxx_HAL_Driver/Inc/stm32wbxx_ll_system.h ****   * @brief  Get memory mapping at address 0x00000000
 478:Drivers/STM32WBxx_HAL_Driver/Inc/stm32wbxx_ll_system.h ****   * @rmtoll SYSCFG_MEMRMP MEM_MODE      LL_SYSCFG_GetRemapMemory
 479:Drivers/STM32WBxx_HAL_Driver/Inc/stm32wbxx_ll_system.h ****   * @retval Returned value can be one of the following values:
 480:Drivers/STM32WBxx_HAL_Driver/Inc/stm32wbxx_ll_system.h ****   *         @arg @ref LL_SYSCFG_REMAP_FLASH
 481:Drivers/STM32WBxx_HAL_Driver/Inc/stm32wbxx_ll_system.h ****   *         @arg @ref LL_SYSCFG_REMAP_SYSTEMFLASH
 482:Drivers/STM32WBxx_HAL_Driver/Inc/stm32wbxx_ll_system.h ****   *         @arg @ref LL_SYSCFG_REMAP_SRAM
 483:Drivers/STM32WBxx_HAL_Driver/Inc/stm32wbxx_ll_system.h ****   *         @arg @ref LL_SYSCFG_REMAP_QUADSPI
 484:Drivers/STM32WBxx_HAL_Driver/Inc/stm32wbxx_ll_system.h ****   */
 485:Drivers/STM32WBxx_HAL_Driver/Inc/stm32wbxx_ll_system.h **** __STATIC_INLINE uint32_t LL_SYSCFG_GetRemapMemory(void)
 486:Drivers/STM32WBxx_HAL_Driver/Inc/stm32wbxx_ll_system.h **** {
 487:Drivers/STM32WBxx_HAL_Driver/Inc/stm32wbxx_ll_system.h ****   return (uint32_t)(READ_BIT(SYSCFG->MEMRMP, SYSCFG_MEMRMP_MEM_MODE));
 488:Drivers/STM32WBxx_HAL_Driver/Inc/stm32wbxx_ll_system.h **** }
 489:Drivers/STM32WBxx_HAL_Driver/Inc/stm32wbxx_ll_system.h **** 
 490:Drivers/STM32WBxx_HAL_Driver/Inc/stm32wbxx_ll_system.h **** /**
 491:Drivers/STM32WBxx_HAL_Driver/Inc/stm32wbxx_ll_system.h ****   * @brief  Enable I/O analog switch voltage booster.
 492:Drivers/STM32WBxx_HAL_Driver/Inc/stm32wbxx_ll_system.h ****   * @note   When voltage booster is enabled, I/O analog switches are supplied
 493:Drivers/STM32WBxx_HAL_Driver/Inc/stm32wbxx_ll_system.h ****   *         by a dedicated voltage booster, from VDD power domain. This is
 494:Drivers/STM32WBxx_HAL_Driver/Inc/stm32wbxx_ll_system.h ****   *         the recommended configuration with low VDDA voltage operation.
 495:Drivers/STM32WBxx_HAL_Driver/Inc/stm32wbxx_ll_system.h ****   * @note   The I/O analog switch voltage booster is relevant for peripherals
 496:Drivers/STM32WBxx_HAL_Driver/Inc/stm32wbxx_ll_system.h ****   *         using I/O in analog input: ADC and COMP.
 497:Drivers/STM32WBxx_HAL_Driver/Inc/stm32wbxx_ll_system.h ****   *         However, COMP inputs have a high impedance and
 498:Drivers/STM32WBxx_HAL_Driver/Inc/stm32wbxx_ll_system.h ****   *         voltage booster do not impact performance significantly.
 499:Drivers/STM32WBxx_HAL_Driver/Inc/stm32wbxx_ll_system.h ****   *         Therefore, the voltage booster is mainly intended for
 500:Drivers/STM32WBxx_HAL_Driver/Inc/stm32wbxx_ll_system.h ****   *         usage with ADC.
 501:Drivers/STM32WBxx_HAL_Driver/Inc/stm32wbxx_ll_system.h ****   * @rmtoll SYSCFG_CFGR1 BOOSTEN       LL_SYSCFG_EnableAnalogBooster
 502:Drivers/STM32WBxx_HAL_Driver/Inc/stm32wbxx_ll_system.h ****   * @retval None
 503:Drivers/STM32WBxx_HAL_Driver/Inc/stm32wbxx_ll_system.h ****   */
 504:Drivers/STM32WBxx_HAL_Driver/Inc/stm32wbxx_ll_system.h **** __STATIC_INLINE void LL_SYSCFG_EnableAnalogBooster(void)
 505:Drivers/STM32WBxx_HAL_Driver/Inc/stm32wbxx_ll_system.h **** {
 506:Drivers/STM32WBxx_HAL_Driver/Inc/stm32wbxx_ll_system.h ****   SET_BIT(SYSCFG->CFGR1, SYSCFG_CFGR1_BOOSTEN);
 507:Drivers/STM32WBxx_HAL_Driver/Inc/stm32wbxx_ll_system.h **** }
 508:Drivers/STM32WBxx_HAL_Driver/Inc/stm32wbxx_ll_system.h **** 
 509:Drivers/STM32WBxx_HAL_Driver/Inc/stm32wbxx_ll_system.h **** /**
 510:Drivers/STM32WBxx_HAL_Driver/Inc/stm32wbxx_ll_system.h ****   * @brief  Disable I/O analog switch voltage booster.
 511:Drivers/STM32WBxx_HAL_Driver/Inc/stm32wbxx_ll_system.h ****   * @note   When voltage booster is enabled, I/O analog switches are supplied
 512:Drivers/STM32WBxx_HAL_Driver/Inc/stm32wbxx_ll_system.h ****   *         by a dedicated voltage booster, from VDD power domain. This is
 513:Drivers/STM32WBxx_HAL_Driver/Inc/stm32wbxx_ll_system.h ****   *         the recommended configuration with low VDDA voltage operation.
 514:Drivers/STM32WBxx_HAL_Driver/Inc/stm32wbxx_ll_system.h ****   * @note   The I/O analog switch voltage booster is relevant for peripherals
 515:Drivers/STM32WBxx_HAL_Driver/Inc/stm32wbxx_ll_system.h ****   *         using I/O in analog input: ADC and COMP.
 516:Drivers/STM32WBxx_HAL_Driver/Inc/stm32wbxx_ll_system.h ****   *         However, COMP inputs have a high impedance and
 517:Drivers/STM32WBxx_HAL_Driver/Inc/stm32wbxx_ll_system.h ****   *         voltage booster do not impact performance significantly.
 518:Drivers/STM32WBxx_HAL_Driver/Inc/stm32wbxx_ll_system.h ****   *         Therefore, the voltage booster is mainly intended for
 519:Drivers/STM32WBxx_HAL_Driver/Inc/stm32wbxx_ll_system.h ****   *         usage with ADC.
 520:Drivers/STM32WBxx_HAL_Driver/Inc/stm32wbxx_ll_system.h ****   * @rmtoll SYSCFG_CFGR1 BOOSTEN       LL_SYSCFG_DisableAnalogBooster
 521:Drivers/STM32WBxx_HAL_Driver/Inc/stm32wbxx_ll_system.h ****   * @retval None
 522:Drivers/STM32WBxx_HAL_Driver/Inc/stm32wbxx_ll_system.h ****   */
 523:Drivers/STM32WBxx_HAL_Driver/Inc/stm32wbxx_ll_system.h **** __STATIC_INLINE void LL_SYSCFG_DisableAnalogBooster(void)
 524:Drivers/STM32WBxx_HAL_Driver/Inc/stm32wbxx_ll_system.h **** {
 525:Drivers/STM32WBxx_HAL_Driver/Inc/stm32wbxx_ll_system.h ****   CLEAR_BIT(SYSCFG->CFGR1, SYSCFG_CFGR1_BOOSTEN);
 526:Drivers/STM32WBxx_HAL_Driver/Inc/stm32wbxx_ll_system.h **** }
 527:Drivers/STM32WBxx_HAL_Driver/Inc/stm32wbxx_ll_system.h **** 
 528:Drivers/STM32WBxx_HAL_Driver/Inc/stm32wbxx_ll_system.h **** #if defined(SYSCFG_CFGR1_ANASWVDD)
 529:Drivers/STM32WBxx_HAL_Driver/Inc/stm32wbxx_ll_system.h **** /**
ARM GAS  C:\Users\Nathan\AppData\Local\Temp\ccVM5ua8.s 			page 37


 530:Drivers/STM32WBxx_HAL_Driver/Inc/stm32wbxx_ll_system.h ****   * @brief  Enable the Analog GPIO switch to control voltage selection
 531:Drivers/STM32WBxx_HAL_Driver/Inc/stm32wbxx_ll_system.h ****   *         when the supply voltage is supplied by VDDA
 532:Drivers/STM32WBxx_HAL_Driver/Inc/stm32wbxx_ll_system.h ****   * @rmtoll SYSCFG_CFGR1   ANASWVDD   LL_SYSCFG_EnableAnalogGpioSwitch
 533:Drivers/STM32WBxx_HAL_Driver/Inc/stm32wbxx_ll_system.h ****   * @note   Activating the gpio switch enable IOs analog switches supplied by VDDA
 534:Drivers/STM32WBxx_HAL_Driver/Inc/stm32wbxx_ll_system.h ****   * @retval None
 535:Drivers/STM32WBxx_HAL_Driver/Inc/stm32wbxx_ll_system.h ****   */
 536:Drivers/STM32WBxx_HAL_Driver/Inc/stm32wbxx_ll_system.h **** __STATIC_INLINE void LL_SYSCFG_EnableAnalogGpioSwitch(void)
 537:Drivers/STM32WBxx_HAL_Driver/Inc/stm32wbxx_ll_system.h **** {
 538:Drivers/STM32WBxx_HAL_Driver/Inc/stm32wbxx_ll_system.h ****   SET_BIT(SYSCFG->CFGR1, SYSCFG_CFGR1_ANASWVDD);
 539:Drivers/STM32WBxx_HAL_Driver/Inc/stm32wbxx_ll_system.h **** }
 540:Drivers/STM32WBxx_HAL_Driver/Inc/stm32wbxx_ll_system.h **** 
 541:Drivers/STM32WBxx_HAL_Driver/Inc/stm32wbxx_ll_system.h **** /**
 542:Drivers/STM32WBxx_HAL_Driver/Inc/stm32wbxx_ll_system.h ****   * @brief  Disable the Analog GPIO switch to control voltage selection
 543:Drivers/STM32WBxx_HAL_Driver/Inc/stm32wbxx_ll_system.h ****   *         when the supply voltage is supplied by VDDA
 544:Drivers/STM32WBxx_HAL_Driver/Inc/stm32wbxx_ll_system.h ****   * @rmtoll SYSCFG_CFGR1   ANASWVDD   LL_SYSCFG_DisableAnalogGpioSwitch
 545:Drivers/STM32WBxx_HAL_Driver/Inc/stm32wbxx_ll_system.h ****   * @note   Activating the gpio switch enable IOs analog switches supplied by VDDA
 546:Drivers/STM32WBxx_HAL_Driver/Inc/stm32wbxx_ll_system.h ****   * @retval None
 547:Drivers/STM32WBxx_HAL_Driver/Inc/stm32wbxx_ll_system.h ****   */
 548:Drivers/STM32WBxx_HAL_Driver/Inc/stm32wbxx_ll_system.h **** __STATIC_INLINE void LL_SYSCFG_DisableAnalogGpioSwitch(void)
 549:Drivers/STM32WBxx_HAL_Driver/Inc/stm32wbxx_ll_system.h **** {
 550:Drivers/STM32WBxx_HAL_Driver/Inc/stm32wbxx_ll_system.h ****   CLEAR_BIT(SYSCFG->CFGR1, SYSCFG_CFGR1_ANASWVDD);
 551:Drivers/STM32WBxx_HAL_Driver/Inc/stm32wbxx_ll_system.h **** }
 552:Drivers/STM32WBxx_HAL_Driver/Inc/stm32wbxx_ll_system.h **** #endif /* SYSCFG_CFGR1_ANASWVDD */
 553:Drivers/STM32WBxx_HAL_Driver/Inc/stm32wbxx_ll_system.h **** 
 554:Drivers/STM32WBxx_HAL_Driver/Inc/stm32wbxx_ll_system.h **** /**
 555:Drivers/STM32WBxx_HAL_Driver/Inc/stm32wbxx_ll_system.h ****   * @brief  Enable the I2C fast mode plus driving capability.
 556:Drivers/STM32WBxx_HAL_Driver/Inc/stm32wbxx_ll_system.h ****   * @rmtoll SYSCFG_CFGR1 I2C_PBx_FMP   LL_SYSCFG_EnableFastModePlus\n
 557:Drivers/STM32WBxx_HAL_Driver/Inc/stm32wbxx_ll_system.h ****   *         SYSCFG_CFGR1 I2Cx_FMP      LL_SYSCFG_EnableFastModePlus
 558:Drivers/STM32WBxx_HAL_Driver/Inc/stm32wbxx_ll_system.h ****   * @param  ConfigFastModePlus This parameter can be a combination of the following values:
 559:Drivers/STM32WBxx_HAL_Driver/Inc/stm32wbxx_ll_system.h ****   *         @arg @ref LL_SYSCFG_I2C_FASTMODEPLUS_PB6
 560:Drivers/STM32WBxx_HAL_Driver/Inc/stm32wbxx_ll_system.h ****   *         @arg @ref LL_SYSCFG_I2C_FASTMODEPLUS_PB7
 561:Drivers/STM32WBxx_HAL_Driver/Inc/stm32wbxx_ll_system.h ****   *         @arg @ref LL_SYSCFG_I2C_FASTMODEPLUS_PB8
 562:Drivers/STM32WBxx_HAL_Driver/Inc/stm32wbxx_ll_system.h ****   *         @arg @ref LL_SYSCFG_I2C_FASTMODEPLUS_PB9
 563:Drivers/STM32WBxx_HAL_Driver/Inc/stm32wbxx_ll_system.h ****   *         @arg @ref LL_SYSCFG_I2C_FASTMODEPLUS_I2C1
 564:Drivers/STM32WBxx_HAL_Driver/Inc/stm32wbxx_ll_system.h ****   *         @arg @ref LL_SYSCFG_I2C_FASTMODEPLUS_I2C3
 565:Drivers/STM32WBxx_HAL_Driver/Inc/stm32wbxx_ll_system.h ****   * @retval None
 566:Drivers/STM32WBxx_HAL_Driver/Inc/stm32wbxx_ll_system.h ****   */
 567:Drivers/STM32WBxx_HAL_Driver/Inc/stm32wbxx_ll_system.h **** __STATIC_INLINE void LL_SYSCFG_EnableFastModePlus(uint32_t ConfigFastModePlus)
 568:Drivers/STM32WBxx_HAL_Driver/Inc/stm32wbxx_ll_system.h **** {
 569:Drivers/STM32WBxx_HAL_Driver/Inc/stm32wbxx_ll_system.h ****   SET_BIT(SYSCFG->CFGR1, ConfigFastModePlus);
 570:Drivers/STM32WBxx_HAL_Driver/Inc/stm32wbxx_ll_system.h **** }
 571:Drivers/STM32WBxx_HAL_Driver/Inc/stm32wbxx_ll_system.h **** 
 572:Drivers/STM32WBxx_HAL_Driver/Inc/stm32wbxx_ll_system.h **** /**
 573:Drivers/STM32WBxx_HAL_Driver/Inc/stm32wbxx_ll_system.h ****   * @brief  Disable the I2C fast mode plus driving capability.
 574:Drivers/STM32WBxx_HAL_Driver/Inc/stm32wbxx_ll_system.h ****   * @rmtoll SYSCFG_CFGR1 I2C_PBx_FMP   LL_SYSCFG_DisableFastModePlus\n
 575:Drivers/STM32WBxx_HAL_Driver/Inc/stm32wbxx_ll_system.h ****   *         SYSCFG_CFGR1 I2Cx_FMP      LL_SYSCFG_DisableFastModePlus
 576:Drivers/STM32WBxx_HAL_Driver/Inc/stm32wbxx_ll_system.h ****   * @param  ConfigFastModePlus This parameter can be a combination of the following values:
 577:Drivers/STM32WBxx_HAL_Driver/Inc/stm32wbxx_ll_system.h ****   *         @arg @ref LL_SYSCFG_I2C_FASTMODEPLUS_PB6
 578:Drivers/STM32WBxx_HAL_Driver/Inc/stm32wbxx_ll_system.h ****   *         @arg @ref LL_SYSCFG_I2C_FASTMODEPLUS_PB7
 579:Drivers/STM32WBxx_HAL_Driver/Inc/stm32wbxx_ll_system.h ****   *         @arg @ref LL_SYSCFG_I2C_FASTMODEPLUS_PB8
 580:Drivers/STM32WBxx_HAL_Driver/Inc/stm32wbxx_ll_system.h ****   *         @arg @ref LL_SYSCFG_I2C_FASTMODEPLUS_PB9
 581:Drivers/STM32WBxx_HAL_Driver/Inc/stm32wbxx_ll_system.h ****   *         @arg @ref LL_SYSCFG_I2C_FASTMODEPLUS_I2C1
 582:Drivers/STM32WBxx_HAL_Driver/Inc/stm32wbxx_ll_system.h ****   *         @arg @ref LL_SYSCFG_I2C_FASTMODEPLUS_I2C3
 583:Drivers/STM32WBxx_HAL_Driver/Inc/stm32wbxx_ll_system.h ****   * @retval None
 584:Drivers/STM32WBxx_HAL_Driver/Inc/stm32wbxx_ll_system.h ****   */
 585:Drivers/STM32WBxx_HAL_Driver/Inc/stm32wbxx_ll_system.h **** __STATIC_INLINE void LL_SYSCFG_DisableFastModePlus(uint32_t ConfigFastModePlus)
 586:Drivers/STM32WBxx_HAL_Driver/Inc/stm32wbxx_ll_system.h **** {
ARM GAS  C:\Users\Nathan\AppData\Local\Temp\ccVM5ua8.s 			page 38


 587:Drivers/STM32WBxx_HAL_Driver/Inc/stm32wbxx_ll_system.h ****   CLEAR_BIT(SYSCFG->CFGR1, ConfigFastModePlus);
 588:Drivers/STM32WBxx_HAL_Driver/Inc/stm32wbxx_ll_system.h **** }
 589:Drivers/STM32WBxx_HAL_Driver/Inc/stm32wbxx_ll_system.h **** 
 590:Drivers/STM32WBxx_HAL_Driver/Inc/stm32wbxx_ll_system.h **** /**
 591:Drivers/STM32WBxx_HAL_Driver/Inc/stm32wbxx_ll_system.h ****   * @brief  Enable Floating Point Unit Invalid operation Interrupt
 592:Drivers/STM32WBxx_HAL_Driver/Inc/stm32wbxx_ll_system.h ****   * @rmtoll SYSCFG_CFGR1 FPU_IE_0      LL_SYSCFG_EnableIT_FPU_IOC
 593:Drivers/STM32WBxx_HAL_Driver/Inc/stm32wbxx_ll_system.h ****   * @retval None
 594:Drivers/STM32WBxx_HAL_Driver/Inc/stm32wbxx_ll_system.h ****   */
 595:Drivers/STM32WBxx_HAL_Driver/Inc/stm32wbxx_ll_system.h **** __STATIC_INLINE void LL_SYSCFG_EnableIT_FPU_IOC(void)
 596:Drivers/STM32WBxx_HAL_Driver/Inc/stm32wbxx_ll_system.h **** {
 597:Drivers/STM32WBxx_HAL_Driver/Inc/stm32wbxx_ll_system.h ****   SET_BIT(SYSCFG->CFGR1, SYSCFG_CFGR1_FPU_IE_0);
 598:Drivers/STM32WBxx_HAL_Driver/Inc/stm32wbxx_ll_system.h **** }
 599:Drivers/STM32WBxx_HAL_Driver/Inc/stm32wbxx_ll_system.h **** 
 600:Drivers/STM32WBxx_HAL_Driver/Inc/stm32wbxx_ll_system.h **** /**
 601:Drivers/STM32WBxx_HAL_Driver/Inc/stm32wbxx_ll_system.h ****   * @brief  Enable Floating Point Unit Divide-by-zero Interrupt
 602:Drivers/STM32WBxx_HAL_Driver/Inc/stm32wbxx_ll_system.h ****   * @rmtoll SYSCFG_CFGR1 FPU_IE_1      LL_SYSCFG_EnableIT_FPU_DZC
 603:Drivers/STM32WBxx_HAL_Driver/Inc/stm32wbxx_ll_system.h ****   * @retval None
 604:Drivers/STM32WBxx_HAL_Driver/Inc/stm32wbxx_ll_system.h ****   */
 605:Drivers/STM32WBxx_HAL_Driver/Inc/stm32wbxx_ll_system.h **** __STATIC_INLINE void LL_SYSCFG_EnableIT_FPU_DZC(void)
 606:Drivers/STM32WBxx_HAL_Driver/Inc/stm32wbxx_ll_system.h **** {
 607:Drivers/STM32WBxx_HAL_Driver/Inc/stm32wbxx_ll_system.h ****   SET_BIT(SYSCFG->CFGR1, SYSCFG_CFGR1_FPU_IE_1);
 608:Drivers/STM32WBxx_HAL_Driver/Inc/stm32wbxx_ll_system.h **** }
 609:Drivers/STM32WBxx_HAL_Driver/Inc/stm32wbxx_ll_system.h **** 
 610:Drivers/STM32WBxx_HAL_Driver/Inc/stm32wbxx_ll_system.h **** /**
 611:Drivers/STM32WBxx_HAL_Driver/Inc/stm32wbxx_ll_system.h ****   * @brief  Enable Floating Point Unit Underflow Interrupt
 612:Drivers/STM32WBxx_HAL_Driver/Inc/stm32wbxx_ll_system.h ****   * @rmtoll SYSCFG_CFGR1 FPU_IE_2      LL_SYSCFG_EnableIT_FPU_UFC
 613:Drivers/STM32WBxx_HAL_Driver/Inc/stm32wbxx_ll_system.h ****   * @retval None
 614:Drivers/STM32WBxx_HAL_Driver/Inc/stm32wbxx_ll_system.h ****   */
 615:Drivers/STM32WBxx_HAL_Driver/Inc/stm32wbxx_ll_system.h **** __STATIC_INLINE void LL_SYSCFG_EnableIT_FPU_UFC(void)
 616:Drivers/STM32WBxx_HAL_Driver/Inc/stm32wbxx_ll_system.h **** {
 617:Drivers/STM32WBxx_HAL_Driver/Inc/stm32wbxx_ll_system.h ****   SET_BIT(SYSCFG->CFGR1, SYSCFG_CFGR1_FPU_IE_2);
 618:Drivers/STM32WBxx_HAL_Driver/Inc/stm32wbxx_ll_system.h **** }
 619:Drivers/STM32WBxx_HAL_Driver/Inc/stm32wbxx_ll_system.h **** 
 620:Drivers/STM32WBxx_HAL_Driver/Inc/stm32wbxx_ll_system.h **** /**
 621:Drivers/STM32WBxx_HAL_Driver/Inc/stm32wbxx_ll_system.h ****   * @brief  Enable Floating Point Unit Overflow Interrupt
 622:Drivers/STM32WBxx_HAL_Driver/Inc/stm32wbxx_ll_system.h ****   * @rmtoll SYSCFG_CFGR1 FPU_IE_3      LL_SYSCFG_EnableIT_FPU_OFC
 623:Drivers/STM32WBxx_HAL_Driver/Inc/stm32wbxx_ll_system.h ****   * @retval None
 624:Drivers/STM32WBxx_HAL_Driver/Inc/stm32wbxx_ll_system.h ****   */
 625:Drivers/STM32WBxx_HAL_Driver/Inc/stm32wbxx_ll_system.h **** __STATIC_INLINE void LL_SYSCFG_EnableIT_FPU_OFC(void)
 626:Drivers/STM32WBxx_HAL_Driver/Inc/stm32wbxx_ll_system.h **** {
 627:Drivers/STM32WBxx_HAL_Driver/Inc/stm32wbxx_ll_system.h ****   SET_BIT(SYSCFG->CFGR1, SYSCFG_CFGR1_FPU_IE_3);
 628:Drivers/STM32WBxx_HAL_Driver/Inc/stm32wbxx_ll_system.h **** }
 629:Drivers/STM32WBxx_HAL_Driver/Inc/stm32wbxx_ll_system.h **** 
 630:Drivers/STM32WBxx_HAL_Driver/Inc/stm32wbxx_ll_system.h **** /**
 631:Drivers/STM32WBxx_HAL_Driver/Inc/stm32wbxx_ll_system.h ****   * @brief  Enable Floating Point Unit Input denormal Interrupt
 632:Drivers/STM32WBxx_HAL_Driver/Inc/stm32wbxx_ll_system.h ****   * @rmtoll SYSCFG_CFGR1 FPU_IE_4      LL_SYSCFG_EnableIT_FPU_IDC
 633:Drivers/STM32WBxx_HAL_Driver/Inc/stm32wbxx_ll_system.h ****   * @retval None
 634:Drivers/STM32WBxx_HAL_Driver/Inc/stm32wbxx_ll_system.h ****   */
 635:Drivers/STM32WBxx_HAL_Driver/Inc/stm32wbxx_ll_system.h **** __STATIC_INLINE void LL_SYSCFG_EnableIT_FPU_IDC(void)
 636:Drivers/STM32WBxx_HAL_Driver/Inc/stm32wbxx_ll_system.h **** {
 637:Drivers/STM32WBxx_HAL_Driver/Inc/stm32wbxx_ll_system.h ****   SET_BIT(SYSCFG->CFGR1, SYSCFG_CFGR1_FPU_IE_4);
 638:Drivers/STM32WBxx_HAL_Driver/Inc/stm32wbxx_ll_system.h **** }
 639:Drivers/STM32WBxx_HAL_Driver/Inc/stm32wbxx_ll_system.h **** 
 640:Drivers/STM32WBxx_HAL_Driver/Inc/stm32wbxx_ll_system.h **** /**
 641:Drivers/STM32WBxx_HAL_Driver/Inc/stm32wbxx_ll_system.h ****   * @brief  Enable Floating Point Unit Inexact Interrupt
 642:Drivers/STM32WBxx_HAL_Driver/Inc/stm32wbxx_ll_system.h ****   * @rmtoll SYSCFG_CFGR1 FPU_IE_5      LL_SYSCFG_EnableIT_FPU_IXC
 643:Drivers/STM32WBxx_HAL_Driver/Inc/stm32wbxx_ll_system.h ****   * @retval None
ARM GAS  C:\Users\Nathan\AppData\Local\Temp\ccVM5ua8.s 			page 39


 644:Drivers/STM32WBxx_HAL_Driver/Inc/stm32wbxx_ll_system.h ****   */
 645:Drivers/STM32WBxx_HAL_Driver/Inc/stm32wbxx_ll_system.h **** __STATIC_INLINE void LL_SYSCFG_EnableIT_FPU_IXC(void)
 646:Drivers/STM32WBxx_HAL_Driver/Inc/stm32wbxx_ll_system.h **** {
 647:Drivers/STM32WBxx_HAL_Driver/Inc/stm32wbxx_ll_system.h ****   SET_BIT(SYSCFG->CFGR1, SYSCFG_CFGR1_FPU_IE_5);
 648:Drivers/STM32WBxx_HAL_Driver/Inc/stm32wbxx_ll_system.h **** }
 649:Drivers/STM32WBxx_HAL_Driver/Inc/stm32wbxx_ll_system.h **** 
 650:Drivers/STM32WBxx_HAL_Driver/Inc/stm32wbxx_ll_system.h **** /**
 651:Drivers/STM32WBxx_HAL_Driver/Inc/stm32wbxx_ll_system.h ****   * @brief  Disable Floating Point Unit Invalid operation Interrupt
 652:Drivers/STM32WBxx_HAL_Driver/Inc/stm32wbxx_ll_system.h ****   * @rmtoll SYSCFG_CFGR1 FPU_IE_0      LL_SYSCFG_DisableIT_FPU_IOC
 653:Drivers/STM32WBxx_HAL_Driver/Inc/stm32wbxx_ll_system.h ****   * @retval None
 654:Drivers/STM32WBxx_HAL_Driver/Inc/stm32wbxx_ll_system.h ****   */
 655:Drivers/STM32WBxx_HAL_Driver/Inc/stm32wbxx_ll_system.h **** __STATIC_INLINE void LL_SYSCFG_DisableIT_FPU_IOC(void)
 656:Drivers/STM32WBxx_HAL_Driver/Inc/stm32wbxx_ll_system.h **** {
 657:Drivers/STM32WBxx_HAL_Driver/Inc/stm32wbxx_ll_system.h ****   CLEAR_BIT(SYSCFG->CFGR1, SYSCFG_CFGR1_FPU_IE_0);
 658:Drivers/STM32WBxx_HAL_Driver/Inc/stm32wbxx_ll_system.h **** }
 659:Drivers/STM32WBxx_HAL_Driver/Inc/stm32wbxx_ll_system.h **** 
 660:Drivers/STM32WBxx_HAL_Driver/Inc/stm32wbxx_ll_system.h **** /**
 661:Drivers/STM32WBxx_HAL_Driver/Inc/stm32wbxx_ll_system.h ****   * @brief  Disable Floating Point Unit Divide-by-zero Interrupt
 662:Drivers/STM32WBxx_HAL_Driver/Inc/stm32wbxx_ll_system.h ****   * @rmtoll SYSCFG_CFGR1 FPU_IE_1      LL_SYSCFG_DisableIT_FPU_DZC
 663:Drivers/STM32WBxx_HAL_Driver/Inc/stm32wbxx_ll_system.h ****   * @retval None
 664:Drivers/STM32WBxx_HAL_Driver/Inc/stm32wbxx_ll_system.h ****   */
 665:Drivers/STM32WBxx_HAL_Driver/Inc/stm32wbxx_ll_system.h **** __STATIC_INLINE void LL_SYSCFG_DisableIT_FPU_DZC(void)
 666:Drivers/STM32WBxx_HAL_Driver/Inc/stm32wbxx_ll_system.h **** {
 667:Drivers/STM32WBxx_HAL_Driver/Inc/stm32wbxx_ll_system.h ****   CLEAR_BIT(SYSCFG->CFGR1, SYSCFG_CFGR1_FPU_IE_1);
 668:Drivers/STM32WBxx_HAL_Driver/Inc/stm32wbxx_ll_system.h **** }
 669:Drivers/STM32WBxx_HAL_Driver/Inc/stm32wbxx_ll_system.h **** 
 670:Drivers/STM32WBxx_HAL_Driver/Inc/stm32wbxx_ll_system.h **** /**
 671:Drivers/STM32WBxx_HAL_Driver/Inc/stm32wbxx_ll_system.h ****   * @brief  Disable Floating Point Unit Underflow Interrupt
 672:Drivers/STM32WBxx_HAL_Driver/Inc/stm32wbxx_ll_system.h ****   * @rmtoll SYSCFG_CFGR1 FPU_IE_2      LL_SYSCFG_DisableIT_FPU_UFC
 673:Drivers/STM32WBxx_HAL_Driver/Inc/stm32wbxx_ll_system.h ****   * @retval None
 674:Drivers/STM32WBxx_HAL_Driver/Inc/stm32wbxx_ll_system.h ****   */
 675:Drivers/STM32WBxx_HAL_Driver/Inc/stm32wbxx_ll_system.h **** __STATIC_INLINE void LL_SYSCFG_DisableIT_FPU_UFC(void)
 676:Drivers/STM32WBxx_HAL_Driver/Inc/stm32wbxx_ll_system.h **** {
 677:Drivers/STM32WBxx_HAL_Driver/Inc/stm32wbxx_ll_system.h ****   CLEAR_BIT(SYSCFG->CFGR1, SYSCFG_CFGR1_FPU_IE_2);
 678:Drivers/STM32WBxx_HAL_Driver/Inc/stm32wbxx_ll_system.h **** }
 679:Drivers/STM32WBxx_HAL_Driver/Inc/stm32wbxx_ll_system.h **** 
 680:Drivers/STM32WBxx_HAL_Driver/Inc/stm32wbxx_ll_system.h **** /**
 681:Drivers/STM32WBxx_HAL_Driver/Inc/stm32wbxx_ll_system.h ****   * @brief  Disable Floating Point Unit Overflow Interrupt
 682:Drivers/STM32WBxx_HAL_Driver/Inc/stm32wbxx_ll_system.h ****   * @rmtoll SYSCFG_CFGR1 FPU_IE_3      LL_SYSCFG_DisableIT_FPU_OFC
 683:Drivers/STM32WBxx_HAL_Driver/Inc/stm32wbxx_ll_system.h ****   * @retval None
 684:Drivers/STM32WBxx_HAL_Driver/Inc/stm32wbxx_ll_system.h ****   */
 685:Drivers/STM32WBxx_HAL_Driver/Inc/stm32wbxx_ll_system.h **** __STATIC_INLINE void LL_SYSCFG_DisableIT_FPU_OFC(void)
 686:Drivers/STM32WBxx_HAL_Driver/Inc/stm32wbxx_ll_system.h **** {
 687:Drivers/STM32WBxx_HAL_Driver/Inc/stm32wbxx_ll_system.h ****   CLEAR_BIT(SYSCFG->CFGR1, SYSCFG_CFGR1_FPU_IE_3);
 688:Drivers/STM32WBxx_HAL_Driver/Inc/stm32wbxx_ll_system.h **** }
 689:Drivers/STM32WBxx_HAL_Driver/Inc/stm32wbxx_ll_system.h **** 
 690:Drivers/STM32WBxx_HAL_Driver/Inc/stm32wbxx_ll_system.h **** /**
 691:Drivers/STM32WBxx_HAL_Driver/Inc/stm32wbxx_ll_system.h ****   * @brief  Disable Floating Point Unit Input denormal Interrupt
 692:Drivers/STM32WBxx_HAL_Driver/Inc/stm32wbxx_ll_system.h ****   * @rmtoll SYSCFG_CFGR1 FPU_IE_4      LL_SYSCFG_DisableIT_FPU_IDC
 693:Drivers/STM32WBxx_HAL_Driver/Inc/stm32wbxx_ll_system.h ****   * @retval None
 694:Drivers/STM32WBxx_HAL_Driver/Inc/stm32wbxx_ll_system.h ****   */
 695:Drivers/STM32WBxx_HAL_Driver/Inc/stm32wbxx_ll_system.h **** __STATIC_INLINE void LL_SYSCFG_DisableIT_FPU_IDC(void)
 696:Drivers/STM32WBxx_HAL_Driver/Inc/stm32wbxx_ll_system.h **** {
 697:Drivers/STM32WBxx_HAL_Driver/Inc/stm32wbxx_ll_system.h ****   CLEAR_BIT(SYSCFG->CFGR1, SYSCFG_CFGR1_FPU_IE_4);
 698:Drivers/STM32WBxx_HAL_Driver/Inc/stm32wbxx_ll_system.h **** }
 699:Drivers/STM32WBxx_HAL_Driver/Inc/stm32wbxx_ll_system.h **** 
 700:Drivers/STM32WBxx_HAL_Driver/Inc/stm32wbxx_ll_system.h **** /**
ARM GAS  C:\Users\Nathan\AppData\Local\Temp\ccVM5ua8.s 			page 40


 701:Drivers/STM32WBxx_HAL_Driver/Inc/stm32wbxx_ll_system.h ****   * @brief  Disable Floating Point Unit Inexact Interrupt
 702:Drivers/STM32WBxx_HAL_Driver/Inc/stm32wbxx_ll_system.h ****   * @rmtoll SYSCFG_CFGR1 FPU_IE_5      LL_SYSCFG_DisableIT_FPU_IXC
 703:Drivers/STM32WBxx_HAL_Driver/Inc/stm32wbxx_ll_system.h ****   * @retval None
 704:Drivers/STM32WBxx_HAL_Driver/Inc/stm32wbxx_ll_system.h ****   */
 705:Drivers/STM32WBxx_HAL_Driver/Inc/stm32wbxx_ll_system.h **** __STATIC_INLINE void LL_SYSCFG_DisableIT_FPU_IXC(void)
 706:Drivers/STM32WBxx_HAL_Driver/Inc/stm32wbxx_ll_system.h **** {
 707:Drivers/STM32WBxx_HAL_Driver/Inc/stm32wbxx_ll_system.h ****   CLEAR_BIT(SYSCFG->CFGR1, SYSCFG_CFGR1_FPU_IE_5);
 708:Drivers/STM32WBxx_HAL_Driver/Inc/stm32wbxx_ll_system.h **** }
 709:Drivers/STM32WBxx_HAL_Driver/Inc/stm32wbxx_ll_system.h **** 
 710:Drivers/STM32WBxx_HAL_Driver/Inc/stm32wbxx_ll_system.h **** /**
 711:Drivers/STM32WBxx_HAL_Driver/Inc/stm32wbxx_ll_system.h ****   * @brief  Check if Floating Point Unit Invalid operation Interrupt source is enabled or disabled.
 712:Drivers/STM32WBxx_HAL_Driver/Inc/stm32wbxx_ll_system.h ****   * @rmtoll SYSCFG_CFGR1 FPU_IE_0      LL_SYSCFG_IsEnabledIT_FPU_IOC
 713:Drivers/STM32WBxx_HAL_Driver/Inc/stm32wbxx_ll_system.h ****   * @retval State of bit (1 or 0).
 714:Drivers/STM32WBxx_HAL_Driver/Inc/stm32wbxx_ll_system.h ****   */
 715:Drivers/STM32WBxx_HAL_Driver/Inc/stm32wbxx_ll_system.h **** __STATIC_INLINE uint32_t LL_SYSCFG_IsEnabledIT_FPU_IOC(void)
 716:Drivers/STM32WBxx_HAL_Driver/Inc/stm32wbxx_ll_system.h **** {
 717:Drivers/STM32WBxx_HAL_Driver/Inc/stm32wbxx_ll_system.h ****   return ((READ_BIT(SYSCFG->CFGR1, SYSCFG_CFGR1_FPU_IE_0) == (SYSCFG_CFGR1_FPU_IE_0)) ? 1UL : 0UL);
 718:Drivers/STM32WBxx_HAL_Driver/Inc/stm32wbxx_ll_system.h **** }
 719:Drivers/STM32WBxx_HAL_Driver/Inc/stm32wbxx_ll_system.h **** 
 720:Drivers/STM32WBxx_HAL_Driver/Inc/stm32wbxx_ll_system.h **** /**
 721:Drivers/STM32WBxx_HAL_Driver/Inc/stm32wbxx_ll_system.h ****   * @brief  Check if Floating Point Unit Divide-by-zero Interrupt source is enabled or disabled.
 722:Drivers/STM32WBxx_HAL_Driver/Inc/stm32wbxx_ll_system.h ****   * @rmtoll SYSCFG_CFGR1 FPU_IE_1      LL_SYSCFG_IsEnabledIT_FPU_DZC
 723:Drivers/STM32WBxx_HAL_Driver/Inc/stm32wbxx_ll_system.h ****   * @retval State of bit (1 or 0).
 724:Drivers/STM32WBxx_HAL_Driver/Inc/stm32wbxx_ll_system.h ****   */
 725:Drivers/STM32WBxx_HAL_Driver/Inc/stm32wbxx_ll_system.h **** __STATIC_INLINE uint32_t LL_SYSCFG_IsEnabledIT_FPU_DZC(void)
 726:Drivers/STM32WBxx_HAL_Driver/Inc/stm32wbxx_ll_system.h **** {
 727:Drivers/STM32WBxx_HAL_Driver/Inc/stm32wbxx_ll_system.h ****   return ((READ_BIT(SYSCFG->CFGR1, SYSCFG_CFGR1_FPU_IE_1) == (SYSCFG_CFGR1_FPU_IE_1)) ? 1UL : 0UL);
 728:Drivers/STM32WBxx_HAL_Driver/Inc/stm32wbxx_ll_system.h **** }
 729:Drivers/STM32WBxx_HAL_Driver/Inc/stm32wbxx_ll_system.h **** 
 730:Drivers/STM32WBxx_HAL_Driver/Inc/stm32wbxx_ll_system.h **** /**
 731:Drivers/STM32WBxx_HAL_Driver/Inc/stm32wbxx_ll_system.h ****   * @brief  Check if Floating Point Unit Underflow Interrupt source is enabled or disabled.
 732:Drivers/STM32WBxx_HAL_Driver/Inc/stm32wbxx_ll_system.h ****   * @rmtoll SYSCFG_CFGR1 FPU_IE_2      LL_SYSCFG_IsEnabledIT_FPU_UFC
 733:Drivers/STM32WBxx_HAL_Driver/Inc/stm32wbxx_ll_system.h ****   * @retval State of bit (1 or 0).
 734:Drivers/STM32WBxx_HAL_Driver/Inc/stm32wbxx_ll_system.h ****   */
 735:Drivers/STM32WBxx_HAL_Driver/Inc/stm32wbxx_ll_system.h **** __STATIC_INLINE uint32_t LL_SYSCFG_IsEnabledIT_FPU_UFC(void)
 736:Drivers/STM32WBxx_HAL_Driver/Inc/stm32wbxx_ll_system.h **** {
 737:Drivers/STM32WBxx_HAL_Driver/Inc/stm32wbxx_ll_system.h ****   return ((READ_BIT(SYSCFG->CFGR1, SYSCFG_CFGR1_FPU_IE_2) == (SYSCFG_CFGR1_FPU_IE_2)) ? 1UL : 0UL);
 738:Drivers/STM32WBxx_HAL_Driver/Inc/stm32wbxx_ll_system.h **** }
 739:Drivers/STM32WBxx_HAL_Driver/Inc/stm32wbxx_ll_system.h **** 
 740:Drivers/STM32WBxx_HAL_Driver/Inc/stm32wbxx_ll_system.h **** /**
 741:Drivers/STM32WBxx_HAL_Driver/Inc/stm32wbxx_ll_system.h ****   * @brief  Check if Floating Point Unit Overflow Interrupt source is enabled or disabled.
 742:Drivers/STM32WBxx_HAL_Driver/Inc/stm32wbxx_ll_system.h ****   * @rmtoll SYSCFG_CFGR1 FPU_IE_3      LL_SYSCFG_IsEnabledIT_FPU_OFC
 743:Drivers/STM32WBxx_HAL_Driver/Inc/stm32wbxx_ll_system.h ****   * @retval State of bit (1 or 0).
 744:Drivers/STM32WBxx_HAL_Driver/Inc/stm32wbxx_ll_system.h ****   */
 745:Drivers/STM32WBxx_HAL_Driver/Inc/stm32wbxx_ll_system.h **** __STATIC_INLINE uint32_t LL_SYSCFG_IsEnabledIT_FPU_OFC(void)
 746:Drivers/STM32WBxx_HAL_Driver/Inc/stm32wbxx_ll_system.h **** {
 747:Drivers/STM32WBxx_HAL_Driver/Inc/stm32wbxx_ll_system.h ****   return ((READ_BIT(SYSCFG->CFGR1, SYSCFG_CFGR1_FPU_IE_3) == (SYSCFG_CFGR1_FPU_IE_3)) ? 1UL : 0UL);
 748:Drivers/STM32WBxx_HAL_Driver/Inc/stm32wbxx_ll_system.h **** }
 749:Drivers/STM32WBxx_HAL_Driver/Inc/stm32wbxx_ll_system.h **** 
 750:Drivers/STM32WBxx_HAL_Driver/Inc/stm32wbxx_ll_system.h **** /**
 751:Drivers/STM32WBxx_HAL_Driver/Inc/stm32wbxx_ll_system.h ****   * @brief  Check if Floating Point Unit Input denormal Interrupt source is enabled or disabled.
 752:Drivers/STM32WBxx_HAL_Driver/Inc/stm32wbxx_ll_system.h ****   * @rmtoll SYSCFG_CFGR1 FPU_IE_4      LL_SYSCFG_IsEnabledIT_FPU_IDC
 753:Drivers/STM32WBxx_HAL_Driver/Inc/stm32wbxx_ll_system.h ****   * @retval State of bit (1 or 0).
 754:Drivers/STM32WBxx_HAL_Driver/Inc/stm32wbxx_ll_system.h ****   */
 755:Drivers/STM32WBxx_HAL_Driver/Inc/stm32wbxx_ll_system.h **** __STATIC_INLINE uint32_t LL_SYSCFG_IsEnabledIT_FPU_IDC(void)
 756:Drivers/STM32WBxx_HAL_Driver/Inc/stm32wbxx_ll_system.h **** {
 757:Drivers/STM32WBxx_HAL_Driver/Inc/stm32wbxx_ll_system.h ****   return ((READ_BIT(SYSCFG->CFGR1, SYSCFG_CFGR1_FPU_IE_4) == (SYSCFG_CFGR1_FPU_IE_4)) ? 1UL : 0UL);
ARM GAS  C:\Users\Nathan\AppData\Local\Temp\ccVM5ua8.s 			page 41


 758:Drivers/STM32WBxx_HAL_Driver/Inc/stm32wbxx_ll_system.h **** }
 759:Drivers/STM32WBxx_HAL_Driver/Inc/stm32wbxx_ll_system.h **** 
 760:Drivers/STM32WBxx_HAL_Driver/Inc/stm32wbxx_ll_system.h **** /**
 761:Drivers/STM32WBxx_HAL_Driver/Inc/stm32wbxx_ll_system.h ****   * @brief  Check if Floating Point Unit Inexact Interrupt source is enabled or disabled.
 762:Drivers/STM32WBxx_HAL_Driver/Inc/stm32wbxx_ll_system.h ****   * @rmtoll SYSCFG_CFGR1 FPU_IE_5      LL_SYSCFG_IsEnabledIT_FPU_IXC
 763:Drivers/STM32WBxx_HAL_Driver/Inc/stm32wbxx_ll_system.h ****   * @retval State of bit (1 or 0).
 764:Drivers/STM32WBxx_HAL_Driver/Inc/stm32wbxx_ll_system.h ****   */
 765:Drivers/STM32WBxx_HAL_Driver/Inc/stm32wbxx_ll_system.h **** __STATIC_INLINE uint32_t LL_SYSCFG_IsEnabledIT_FPU_IXC(void)
 766:Drivers/STM32WBxx_HAL_Driver/Inc/stm32wbxx_ll_system.h **** {
 767:Drivers/STM32WBxx_HAL_Driver/Inc/stm32wbxx_ll_system.h ****   return ((READ_BIT(SYSCFG->CFGR1, SYSCFG_CFGR1_FPU_IE_5) == (SYSCFG_CFGR1_FPU_IE_5)) ? 1UL : 0UL);
 768:Drivers/STM32WBxx_HAL_Driver/Inc/stm32wbxx_ll_system.h **** }
 769:Drivers/STM32WBxx_HAL_Driver/Inc/stm32wbxx_ll_system.h **** 
 770:Drivers/STM32WBxx_HAL_Driver/Inc/stm32wbxx_ll_system.h **** 
 771:Drivers/STM32WBxx_HAL_Driver/Inc/stm32wbxx_ll_system.h **** /**
 772:Drivers/STM32WBxx_HAL_Driver/Inc/stm32wbxx_ll_system.h ****   * @brief  Configure source input for the EXTI external interrupt.
 773:Drivers/STM32WBxx_HAL_Driver/Inc/stm32wbxx_ll_system.h ****   * @rmtoll SYSCFG_EXTICR1 EXTIx         LL_SYSCFG_SetEXTISource\n
 774:Drivers/STM32WBxx_HAL_Driver/Inc/stm32wbxx_ll_system.h ****   *         SYSCFG_EXTICR2 EXTIx         LL_SYSCFG_SetEXTISource\n
 775:Drivers/STM32WBxx_HAL_Driver/Inc/stm32wbxx_ll_system.h ****   *         SYSCFG_EXTICR3 EXTIx         LL_SYSCFG_SetEXTISource\n
 776:Drivers/STM32WBxx_HAL_Driver/Inc/stm32wbxx_ll_system.h ****   *         SYSCFG_EXTICR4 EXTIx         LL_SYSCFG_SetEXTISource
 777:Drivers/STM32WBxx_HAL_Driver/Inc/stm32wbxx_ll_system.h ****   * @param  Port This parameter can be one of the following values:
 778:Drivers/STM32WBxx_HAL_Driver/Inc/stm32wbxx_ll_system.h ****   *         @arg @ref LL_SYSCFG_EXTI_PORTA
 779:Drivers/STM32WBxx_HAL_Driver/Inc/stm32wbxx_ll_system.h ****   *         @arg @ref LL_SYSCFG_EXTI_PORTB
 780:Drivers/STM32WBxx_HAL_Driver/Inc/stm32wbxx_ll_system.h ****   *         @arg @ref LL_SYSCFG_EXTI_PORTC
 781:Drivers/STM32WBxx_HAL_Driver/Inc/stm32wbxx_ll_system.h ****   *         @arg @ref LL_SYSCFG_EXTI_PORTD
 782:Drivers/STM32WBxx_HAL_Driver/Inc/stm32wbxx_ll_system.h ****   *         @arg @ref LL_SYSCFG_EXTI_PORTE
 783:Drivers/STM32WBxx_HAL_Driver/Inc/stm32wbxx_ll_system.h ****   *         @arg @ref LL_SYSCFG_EXTI_PORTH
 784:Drivers/STM32WBxx_HAL_Driver/Inc/stm32wbxx_ll_system.h ****   *
 785:Drivers/STM32WBxx_HAL_Driver/Inc/stm32wbxx_ll_system.h ****   * @param  Line This parameter can be one of the following values:
 786:Drivers/STM32WBxx_HAL_Driver/Inc/stm32wbxx_ll_system.h ****   *         @arg @ref LL_SYSCFG_EXTI_LINE0
 787:Drivers/STM32WBxx_HAL_Driver/Inc/stm32wbxx_ll_system.h ****   *         @arg @ref LL_SYSCFG_EXTI_LINE1
 788:Drivers/STM32WBxx_HAL_Driver/Inc/stm32wbxx_ll_system.h ****   *         @arg @ref LL_SYSCFG_EXTI_LINE2
 789:Drivers/STM32WBxx_HAL_Driver/Inc/stm32wbxx_ll_system.h ****   *         @arg @ref LL_SYSCFG_EXTI_LINE3
 790:Drivers/STM32WBxx_HAL_Driver/Inc/stm32wbxx_ll_system.h ****   *         @arg @ref LL_SYSCFG_EXTI_LINE4
 791:Drivers/STM32WBxx_HAL_Driver/Inc/stm32wbxx_ll_system.h ****   *         @arg @ref LL_SYSCFG_EXTI_LINE5
 792:Drivers/STM32WBxx_HAL_Driver/Inc/stm32wbxx_ll_system.h ****   *         @arg @ref LL_SYSCFG_EXTI_LINE6
 793:Drivers/STM32WBxx_HAL_Driver/Inc/stm32wbxx_ll_system.h ****   *         @arg @ref LL_SYSCFG_EXTI_LINE7
 794:Drivers/STM32WBxx_HAL_Driver/Inc/stm32wbxx_ll_system.h ****   *         @arg @ref LL_SYSCFG_EXTI_LINE8
 795:Drivers/STM32WBxx_HAL_Driver/Inc/stm32wbxx_ll_system.h ****   *         @arg @ref LL_SYSCFG_EXTI_LINE9
 796:Drivers/STM32WBxx_HAL_Driver/Inc/stm32wbxx_ll_system.h ****   *         @arg @ref LL_SYSCFG_EXTI_LINE10
 797:Drivers/STM32WBxx_HAL_Driver/Inc/stm32wbxx_ll_system.h ****   *         @arg @ref LL_SYSCFG_EXTI_LINE11
 798:Drivers/STM32WBxx_HAL_Driver/Inc/stm32wbxx_ll_system.h ****   *         @arg @ref LL_SYSCFG_EXTI_LINE12
 799:Drivers/STM32WBxx_HAL_Driver/Inc/stm32wbxx_ll_system.h ****   *         @arg @ref LL_SYSCFG_EXTI_LINE13
 800:Drivers/STM32WBxx_HAL_Driver/Inc/stm32wbxx_ll_system.h ****   *         @arg @ref LL_SYSCFG_EXTI_LINE14
 801:Drivers/STM32WBxx_HAL_Driver/Inc/stm32wbxx_ll_system.h ****   *         @arg @ref LL_SYSCFG_EXTI_LINE15
 802:Drivers/STM32WBxx_HAL_Driver/Inc/stm32wbxx_ll_system.h ****   * @retval None
 803:Drivers/STM32WBxx_HAL_Driver/Inc/stm32wbxx_ll_system.h ****   */
 804:Drivers/STM32WBxx_HAL_Driver/Inc/stm32wbxx_ll_system.h **** __STATIC_INLINE void LL_SYSCFG_SetEXTISource(uint32_t Port, uint32_t Line)
 805:Drivers/STM32WBxx_HAL_Driver/Inc/stm32wbxx_ll_system.h **** {
 806:Drivers/STM32WBxx_HAL_Driver/Inc/stm32wbxx_ll_system.h ****   MODIFY_REG(SYSCFG->EXTICR[Line & 0x03U], (Line >> 16U), (Port << ((POSITION_VAL((Line >> 16U))) &
 807:Drivers/STM32WBxx_HAL_Driver/Inc/stm32wbxx_ll_system.h **** }
 808:Drivers/STM32WBxx_HAL_Driver/Inc/stm32wbxx_ll_system.h **** 
 809:Drivers/STM32WBxx_HAL_Driver/Inc/stm32wbxx_ll_system.h **** /**
 810:Drivers/STM32WBxx_HAL_Driver/Inc/stm32wbxx_ll_system.h ****   * @brief  Get the configured defined for specific EXTI Line
 811:Drivers/STM32WBxx_HAL_Driver/Inc/stm32wbxx_ll_system.h ****   * @rmtoll SYSCFG_EXTICR1 EXTIx         LL_SYSCFG_GetEXTISource\n
 812:Drivers/STM32WBxx_HAL_Driver/Inc/stm32wbxx_ll_system.h ****   *         SYSCFG_EXTICR2 EXTIx         LL_SYSCFG_GetEXTISource\n
 813:Drivers/STM32WBxx_HAL_Driver/Inc/stm32wbxx_ll_system.h ****   *         SYSCFG_EXTICR3 EXTIx         LL_SYSCFG_GetEXTISource\n
 814:Drivers/STM32WBxx_HAL_Driver/Inc/stm32wbxx_ll_system.h ****   *         SYSCFG_EXTICR4 EXTIx         LL_SYSCFG_GetEXTISource
ARM GAS  C:\Users\Nathan\AppData\Local\Temp\ccVM5ua8.s 			page 42


 815:Drivers/STM32WBxx_HAL_Driver/Inc/stm32wbxx_ll_system.h ****   * @param  Line This parameter can be one of the following values:
 816:Drivers/STM32WBxx_HAL_Driver/Inc/stm32wbxx_ll_system.h ****   *         @arg @ref LL_SYSCFG_EXTI_LINE0
 817:Drivers/STM32WBxx_HAL_Driver/Inc/stm32wbxx_ll_system.h ****   *         @arg @ref LL_SYSCFG_EXTI_LINE1
 818:Drivers/STM32WBxx_HAL_Driver/Inc/stm32wbxx_ll_system.h ****   *         @arg @ref LL_SYSCFG_EXTI_LINE2
 819:Drivers/STM32WBxx_HAL_Driver/Inc/stm32wbxx_ll_system.h ****   *         @arg @ref LL_SYSCFG_EXTI_LINE3
 820:Drivers/STM32WBxx_HAL_Driver/Inc/stm32wbxx_ll_system.h ****   *         @arg @ref LL_SYSCFG_EXTI_LINE4
 821:Drivers/STM32WBxx_HAL_Driver/Inc/stm32wbxx_ll_system.h ****   *         @arg @ref LL_SYSCFG_EXTI_LINE5
 822:Drivers/STM32WBxx_HAL_Driver/Inc/stm32wbxx_ll_system.h ****   *         @arg @ref LL_SYSCFG_EXTI_LINE6
 823:Drivers/STM32WBxx_HAL_Driver/Inc/stm32wbxx_ll_system.h ****   *         @arg @ref LL_SYSCFG_EXTI_LINE7
 824:Drivers/STM32WBxx_HAL_Driver/Inc/stm32wbxx_ll_system.h ****   *         @arg @ref LL_SYSCFG_EXTI_LINE8
 825:Drivers/STM32WBxx_HAL_Driver/Inc/stm32wbxx_ll_system.h ****   *         @arg @ref LL_SYSCFG_EXTI_LINE9
 826:Drivers/STM32WBxx_HAL_Driver/Inc/stm32wbxx_ll_system.h ****   *         @arg @ref LL_SYSCFG_EXTI_LINE10
 827:Drivers/STM32WBxx_HAL_Driver/Inc/stm32wbxx_ll_system.h ****   *         @arg @ref LL_SYSCFG_EXTI_LINE11
 828:Drivers/STM32WBxx_HAL_Driver/Inc/stm32wbxx_ll_system.h ****   *         @arg @ref LL_SYSCFG_EXTI_LINE12
 829:Drivers/STM32WBxx_HAL_Driver/Inc/stm32wbxx_ll_system.h ****   *         @arg @ref LL_SYSCFG_EXTI_LINE13
 830:Drivers/STM32WBxx_HAL_Driver/Inc/stm32wbxx_ll_system.h ****   *         @arg @ref LL_SYSCFG_EXTI_LINE14
 831:Drivers/STM32WBxx_HAL_Driver/Inc/stm32wbxx_ll_system.h ****   *         @arg @ref LL_SYSCFG_EXTI_LINE15
 832:Drivers/STM32WBxx_HAL_Driver/Inc/stm32wbxx_ll_system.h ****   * @retval Returned value can be one of the following values:
 833:Drivers/STM32WBxx_HAL_Driver/Inc/stm32wbxx_ll_system.h ****   *         @arg @ref LL_SYSCFG_EXTI_PORTA
 834:Drivers/STM32WBxx_HAL_Driver/Inc/stm32wbxx_ll_system.h ****   *         @arg @ref LL_SYSCFG_EXTI_PORTB
 835:Drivers/STM32WBxx_HAL_Driver/Inc/stm32wbxx_ll_system.h ****   *         @arg @ref LL_SYSCFG_EXTI_PORTC
 836:Drivers/STM32WBxx_HAL_Driver/Inc/stm32wbxx_ll_system.h ****   *         @arg @ref LL_SYSCFG_EXTI_PORTD
 837:Drivers/STM32WBxx_HAL_Driver/Inc/stm32wbxx_ll_system.h ****   *         @arg @ref LL_SYSCFG_EXTI_PORTE
 838:Drivers/STM32WBxx_HAL_Driver/Inc/stm32wbxx_ll_system.h ****   *         @arg @ref LL_SYSCFG_EXTI_PORTH
 839:Drivers/STM32WBxx_HAL_Driver/Inc/stm32wbxx_ll_system.h ****   */
 840:Drivers/STM32WBxx_HAL_Driver/Inc/stm32wbxx_ll_system.h **** __STATIC_INLINE uint32_t LL_SYSCFG_GetEXTISource(uint32_t Line)
 841:Drivers/STM32WBxx_HAL_Driver/Inc/stm32wbxx_ll_system.h **** {
 842:Drivers/STM32WBxx_HAL_Driver/Inc/stm32wbxx_ll_system.h ****   return (uint32_t)(READ_BIT(SYSCFG->EXTICR[Line & 0x03U], (Line >> 16U)) >> (POSITION_VAL(Line >> 
 843:Drivers/STM32WBxx_HAL_Driver/Inc/stm32wbxx_ll_system.h **** }
 844:Drivers/STM32WBxx_HAL_Driver/Inc/stm32wbxx_ll_system.h **** 
 845:Drivers/STM32WBxx_HAL_Driver/Inc/stm32wbxx_ll_system.h **** /**
 846:Drivers/STM32WBxx_HAL_Driver/Inc/stm32wbxx_ll_system.h ****   * @brief  Enable SRAM2 Erase (starts a hardware SRAM2 erase operation. This bit is
 847:Drivers/STM32WBxx_HAL_Driver/Inc/stm32wbxx_ll_system.h ****   * automatically cleared at the end of the SRAM2 erase operation.)
 848:Drivers/STM32WBxx_HAL_Driver/Inc/stm32wbxx_ll_system.h ****   * @note This bit is write-protected: setting this bit is possible only after the
 849:Drivers/STM32WBxx_HAL_Driver/Inc/stm32wbxx_ll_system.h ****   *       correct key sequence is written in the SYSCFG_SKR register.
 850:Drivers/STM32WBxx_HAL_Driver/Inc/stm32wbxx_ll_system.h ****   * @rmtoll SYSCFG_SCSR  SRAM2ER       LL_SYSCFG_EnableSRAM2Erase
 851:Drivers/STM32WBxx_HAL_Driver/Inc/stm32wbxx_ll_system.h ****   * @retval None
 852:Drivers/STM32WBxx_HAL_Driver/Inc/stm32wbxx_ll_system.h ****   */
 853:Drivers/STM32WBxx_HAL_Driver/Inc/stm32wbxx_ll_system.h **** __STATIC_INLINE void LL_SYSCFG_EnableSRAM2Erase(void)
 854:Drivers/STM32WBxx_HAL_Driver/Inc/stm32wbxx_ll_system.h **** {
 855:Drivers/STM32WBxx_HAL_Driver/Inc/stm32wbxx_ll_system.h ****   SET_BIT(SYSCFG->SCSR, SYSCFG_SCSR_SRAM2ER);
 856:Drivers/STM32WBxx_HAL_Driver/Inc/stm32wbxx_ll_system.h **** }
 857:Drivers/STM32WBxx_HAL_Driver/Inc/stm32wbxx_ll_system.h **** 
 858:Drivers/STM32WBxx_HAL_Driver/Inc/stm32wbxx_ll_system.h **** /**
 859:Drivers/STM32WBxx_HAL_Driver/Inc/stm32wbxx_ll_system.h ****   * @brief  Check if SRAM2 erase operation is on going
 860:Drivers/STM32WBxx_HAL_Driver/Inc/stm32wbxx_ll_system.h ****   * @rmtoll SYSCFG_SCSR  SRAM2BSY      LL_SYSCFG_IsSRAM2EraseOngoing
 861:Drivers/STM32WBxx_HAL_Driver/Inc/stm32wbxx_ll_system.h ****   * @retval State of bit (1 or 0).
 862:Drivers/STM32WBxx_HAL_Driver/Inc/stm32wbxx_ll_system.h ****   */
 863:Drivers/STM32WBxx_HAL_Driver/Inc/stm32wbxx_ll_system.h **** __STATIC_INLINE uint32_t LL_SYSCFG_IsSRAM2EraseOngoing(void)
 864:Drivers/STM32WBxx_HAL_Driver/Inc/stm32wbxx_ll_system.h **** {
 865:Drivers/STM32WBxx_HAL_Driver/Inc/stm32wbxx_ll_system.h ****   return ((READ_BIT(SYSCFG->SCSR, SYSCFG_SCSR_SRAM2BSY) == (SYSCFG_SCSR_SRAM2BSY)) ? 1UL : 0UL);
 866:Drivers/STM32WBxx_HAL_Driver/Inc/stm32wbxx_ll_system.h **** }
 867:Drivers/STM32WBxx_HAL_Driver/Inc/stm32wbxx_ll_system.h **** 
 868:Drivers/STM32WBxx_HAL_Driver/Inc/stm32wbxx_ll_system.h **** /**
 869:Drivers/STM32WBxx_HAL_Driver/Inc/stm32wbxx_ll_system.h ****   * @brief  Disable CPU2 SRAM fetch (execution) (This bit can be set by Firmware
 870:Drivers/STM32WBxx_HAL_Driver/Inc/stm32wbxx_ll_system.h ****   *         and will only be reset by a Hardware reset, including a reset after Standby.)
 871:Drivers/STM32WBxx_HAL_Driver/Inc/stm32wbxx_ll_system.h ****   * @note Firmware writing 0 has no effect.
ARM GAS  C:\Users\Nathan\AppData\Local\Temp\ccVM5ua8.s 			page 43


 872:Drivers/STM32WBxx_HAL_Driver/Inc/stm32wbxx_ll_system.h ****   * @rmtoll SYSCFG_SCSR  C2RFD         LL_SYSCFG_DisableSRAMFetch
 873:Drivers/STM32WBxx_HAL_Driver/Inc/stm32wbxx_ll_system.h ****   * @retval None
 874:Drivers/STM32WBxx_HAL_Driver/Inc/stm32wbxx_ll_system.h ****   */
 875:Drivers/STM32WBxx_HAL_Driver/Inc/stm32wbxx_ll_system.h **** __STATIC_INLINE void LL_SYSCFG_DisableSRAMFetch(void)
 876:Drivers/STM32WBxx_HAL_Driver/Inc/stm32wbxx_ll_system.h **** {
 877:Drivers/STM32WBxx_HAL_Driver/Inc/stm32wbxx_ll_system.h ****   SET_BIT(SYSCFG->SCSR, SYSCFG_SCSR_C2RFD);
 878:Drivers/STM32WBxx_HAL_Driver/Inc/stm32wbxx_ll_system.h **** }
 879:Drivers/STM32WBxx_HAL_Driver/Inc/stm32wbxx_ll_system.h **** 
 880:Drivers/STM32WBxx_HAL_Driver/Inc/stm32wbxx_ll_system.h **** /**
 881:Drivers/STM32WBxx_HAL_Driver/Inc/stm32wbxx_ll_system.h ****   * @brief  Check if CPU2 SRAM fetch is enabled
 882:Drivers/STM32WBxx_HAL_Driver/Inc/stm32wbxx_ll_system.h ****   * @rmtoll SYSCFG_SCSR  C2RFD         LL_SYSCFG_IsEnabledSRAMFetch
 883:Drivers/STM32WBxx_HAL_Driver/Inc/stm32wbxx_ll_system.h ****   * @retval State of bit (1 or 0).
 884:Drivers/STM32WBxx_HAL_Driver/Inc/stm32wbxx_ll_system.h ****   */
 885:Drivers/STM32WBxx_HAL_Driver/Inc/stm32wbxx_ll_system.h **** __STATIC_INLINE uint32_t LL_SYSCFG_IsEnabledSRAMFetch(void)
 886:Drivers/STM32WBxx_HAL_Driver/Inc/stm32wbxx_ll_system.h **** {
 887:Drivers/STM32WBxx_HAL_Driver/Inc/stm32wbxx_ll_system.h ****   return ((READ_BIT(SYSCFG->SCSR, SYSCFG_SCSR_C2RFD) != (SYSCFG_SCSR_C2RFD)) ? 1UL : 0UL);
 888:Drivers/STM32WBxx_HAL_Driver/Inc/stm32wbxx_ll_system.h **** }
 889:Drivers/STM32WBxx_HAL_Driver/Inc/stm32wbxx_ll_system.h **** 
 890:Drivers/STM32WBxx_HAL_Driver/Inc/stm32wbxx_ll_system.h **** /**
 891:Drivers/STM32WBxx_HAL_Driver/Inc/stm32wbxx_ll_system.h ****   * @brief  Set connections to TIM1/16/17 Break inputs
 892:Drivers/STM32WBxx_HAL_Driver/Inc/stm32wbxx_ll_system.h ****   * @rmtoll SYSCFG_CFGR2 CLL           LL_SYSCFG_SetTIMBreakInputs\n
 893:Drivers/STM32WBxx_HAL_Driver/Inc/stm32wbxx_ll_system.h ****   *         SYSCFG_CFGR2 SPL           LL_SYSCFG_SetTIMBreakInputs\n
 894:Drivers/STM32WBxx_HAL_Driver/Inc/stm32wbxx_ll_system.h ****   *         SYSCFG_CFGR2 PVDL          LL_SYSCFG_SetTIMBreakInputs\n
 895:Drivers/STM32WBxx_HAL_Driver/Inc/stm32wbxx_ll_system.h ****   *         SYSCFG_CFGR2 ECCL          LL_SYSCFG_SetTIMBreakInputs
 896:Drivers/STM32WBxx_HAL_Driver/Inc/stm32wbxx_ll_system.h ****   * @param  Break This parameter can be a combination of the following values:
 897:Drivers/STM32WBxx_HAL_Driver/Inc/stm32wbxx_ll_system.h ****   *         @arg @ref LL_SYSCFG_TIMBREAK_ECC
 898:Drivers/STM32WBxx_HAL_Driver/Inc/stm32wbxx_ll_system.h ****   *         @arg @ref LL_SYSCFG_TIMBREAK_PVD
 899:Drivers/STM32WBxx_HAL_Driver/Inc/stm32wbxx_ll_system.h ****   *         @arg @ref LL_SYSCFG_TIMBREAK_SRAM2_PARITY
 900:Drivers/STM32WBxx_HAL_Driver/Inc/stm32wbxx_ll_system.h ****   *         @arg @ref LL_SYSCFG_TIMBREAK_LOCKUP
 901:Drivers/STM32WBxx_HAL_Driver/Inc/stm32wbxx_ll_system.h ****   * @retval None
 902:Drivers/STM32WBxx_HAL_Driver/Inc/stm32wbxx_ll_system.h ****   */
 903:Drivers/STM32WBxx_HAL_Driver/Inc/stm32wbxx_ll_system.h **** __STATIC_INLINE void LL_SYSCFG_SetTIMBreakInputs(uint32_t Break)
 904:Drivers/STM32WBxx_HAL_Driver/Inc/stm32wbxx_ll_system.h **** {
 905:Drivers/STM32WBxx_HAL_Driver/Inc/stm32wbxx_ll_system.h ****   MODIFY_REG(SYSCFG->CFGR2, SYSCFG_CFGR2_CLL | SYSCFG_CFGR2_SPL | SYSCFG_CFGR2_PVDL | SYSCFG_CFGR2_
 906:Drivers/STM32WBxx_HAL_Driver/Inc/stm32wbxx_ll_system.h **** }
 907:Drivers/STM32WBxx_HAL_Driver/Inc/stm32wbxx_ll_system.h **** 
 908:Drivers/STM32WBxx_HAL_Driver/Inc/stm32wbxx_ll_system.h **** /**
 909:Drivers/STM32WBxx_HAL_Driver/Inc/stm32wbxx_ll_system.h ****   * @brief  Get connections to TIM1/16/17 Break inputs
 910:Drivers/STM32WBxx_HAL_Driver/Inc/stm32wbxx_ll_system.h ****   * @rmtoll SYSCFG_CFGR2 CLL           LL_SYSCFG_GetTIMBreakInputs\n
 911:Drivers/STM32WBxx_HAL_Driver/Inc/stm32wbxx_ll_system.h ****   *         SYSCFG_CFGR2 SPL           LL_SYSCFG_GetTIMBreakInputs\n
 912:Drivers/STM32WBxx_HAL_Driver/Inc/stm32wbxx_ll_system.h ****   *         SYSCFG_CFGR2 PVDL          LL_SYSCFG_GetTIMBreakInputs\n
 913:Drivers/STM32WBxx_HAL_Driver/Inc/stm32wbxx_ll_system.h ****   *         SYSCFG_CFGR2 ECCL          LL_SYSCFG_GetTIMBreakInputs
 914:Drivers/STM32WBxx_HAL_Driver/Inc/stm32wbxx_ll_system.h ****   * @retval Returned value can be can be a combination of the following values:
 915:Drivers/STM32WBxx_HAL_Driver/Inc/stm32wbxx_ll_system.h ****   *         @arg @ref LL_SYSCFG_TIMBREAK_ECC
 916:Drivers/STM32WBxx_HAL_Driver/Inc/stm32wbxx_ll_system.h ****   *         @arg @ref LL_SYSCFG_TIMBREAK_PVD
 917:Drivers/STM32WBxx_HAL_Driver/Inc/stm32wbxx_ll_system.h ****   *         @arg @ref LL_SYSCFG_TIMBREAK_SRAM2_PARITY
 918:Drivers/STM32WBxx_HAL_Driver/Inc/stm32wbxx_ll_system.h ****   *         @arg @ref LL_SYSCFG_TIMBREAK_LOCKUP
 919:Drivers/STM32WBxx_HAL_Driver/Inc/stm32wbxx_ll_system.h ****   */
 920:Drivers/STM32WBxx_HAL_Driver/Inc/stm32wbxx_ll_system.h **** __STATIC_INLINE uint32_t LL_SYSCFG_GetTIMBreakInputs(void)
 921:Drivers/STM32WBxx_HAL_Driver/Inc/stm32wbxx_ll_system.h **** {
 922:Drivers/STM32WBxx_HAL_Driver/Inc/stm32wbxx_ll_system.h ****   return (uint32_t)(READ_BIT(SYSCFG->CFGR2, SYSCFG_CFGR2_CLL | SYSCFG_CFGR2_SPL | SYSCFG_CFGR2_PVDL
 923:Drivers/STM32WBxx_HAL_Driver/Inc/stm32wbxx_ll_system.h **** }
 924:Drivers/STM32WBxx_HAL_Driver/Inc/stm32wbxx_ll_system.h **** 
 925:Drivers/STM32WBxx_HAL_Driver/Inc/stm32wbxx_ll_system.h **** /**
 926:Drivers/STM32WBxx_HAL_Driver/Inc/stm32wbxx_ll_system.h ****   * @brief  Check if SRAM2 parity error detected
 927:Drivers/STM32WBxx_HAL_Driver/Inc/stm32wbxx_ll_system.h ****   * @rmtoll SYSCFG_CFGR2 SPF           LL_SYSCFG_IsActiveFlag_SP
 928:Drivers/STM32WBxx_HAL_Driver/Inc/stm32wbxx_ll_system.h ****   * @retval State of bit (1 or 0).
ARM GAS  C:\Users\Nathan\AppData\Local\Temp\ccVM5ua8.s 			page 44


 929:Drivers/STM32WBxx_HAL_Driver/Inc/stm32wbxx_ll_system.h ****   */
 930:Drivers/STM32WBxx_HAL_Driver/Inc/stm32wbxx_ll_system.h **** __STATIC_INLINE uint32_t LL_SYSCFG_IsActiveFlag_SP(void)
 931:Drivers/STM32WBxx_HAL_Driver/Inc/stm32wbxx_ll_system.h **** {
 932:Drivers/STM32WBxx_HAL_Driver/Inc/stm32wbxx_ll_system.h ****   return ((READ_BIT(SYSCFG->CFGR2, SYSCFG_CFGR2_SPF) == (SYSCFG_CFGR2_SPF)) ? 1UL : 0UL);
 933:Drivers/STM32WBxx_HAL_Driver/Inc/stm32wbxx_ll_system.h **** }
 934:Drivers/STM32WBxx_HAL_Driver/Inc/stm32wbxx_ll_system.h **** 
 935:Drivers/STM32WBxx_HAL_Driver/Inc/stm32wbxx_ll_system.h **** /**
 936:Drivers/STM32WBxx_HAL_Driver/Inc/stm32wbxx_ll_system.h ****   * @brief  Clear SRAM2 parity error flag
 937:Drivers/STM32WBxx_HAL_Driver/Inc/stm32wbxx_ll_system.h ****   * @rmtoll SYSCFG_CFGR2 SPF           LL_SYSCFG_ClearFlag_SP
 938:Drivers/STM32WBxx_HAL_Driver/Inc/stm32wbxx_ll_system.h ****   * @retval None
 939:Drivers/STM32WBxx_HAL_Driver/Inc/stm32wbxx_ll_system.h ****   */
 940:Drivers/STM32WBxx_HAL_Driver/Inc/stm32wbxx_ll_system.h **** __STATIC_INLINE void LL_SYSCFG_ClearFlag_SP(void)
 941:Drivers/STM32WBxx_HAL_Driver/Inc/stm32wbxx_ll_system.h **** {
 942:Drivers/STM32WBxx_HAL_Driver/Inc/stm32wbxx_ll_system.h ****   SET_BIT(SYSCFG->CFGR2, SYSCFG_CFGR2_SPF);
 943:Drivers/STM32WBxx_HAL_Driver/Inc/stm32wbxx_ll_system.h **** }
 944:Drivers/STM32WBxx_HAL_Driver/Inc/stm32wbxx_ll_system.h **** 
 945:Drivers/STM32WBxx_HAL_Driver/Inc/stm32wbxx_ll_system.h **** /**
 946:Drivers/STM32WBxx_HAL_Driver/Inc/stm32wbxx_ll_system.h ****   * @brief  Enable SRAM2 page write protection for Pages in range 0 to 31
 947:Drivers/STM32WBxx_HAL_Driver/Inc/stm32wbxx_ll_system.h ****   * @note Write protection is cleared only by a system reset
 948:Drivers/STM32WBxx_HAL_Driver/Inc/stm32wbxx_ll_system.h ****   * @rmtoll SYSCFG_SWPR1 PxWP          LL_SYSCFG_EnableSRAM2PageWRP_0_31
 949:Drivers/STM32WBxx_HAL_Driver/Inc/stm32wbxx_ll_system.h ****   * @param  SRAM2WRP This parameter can be a combination of the following values:
 950:Drivers/STM32WBxx_HAL_Driver/Inc/stm32wbxx_ll_system.h ****   *         @arg @ref LL_SYSCFG_SRAM2WRP_PAGE0
 951:Drivers/STM32WBxx_HAL_Driver/Inc/stm32wbxx_ll_system.h ****   *         @arg @ref LL_SYSCFG_SRAM2WRP_PAGE1
 952:Drivers/STM32WBxx_HAL_Driver/Inc/stm32wbxx_ll_system.h ****   *         @arg @ref LL_SYSCFG_SRAM2WRP_PAGE2
 953:Drivers/STM32WBxx_HAL_Driver/Inc/stm32wbxx_ll_system.h ****   *         @arg @ref LL_SYSCFG_SRAM2WRP_PAGE3
 954:Drivers/STM32WBxx_HAL_Driver/Inc/stm32wbxx_ll_system.h ****   *         @arg @ref LL_SYSCFG_SRAM2WRP_PAGE4
 955:Drivers/STM32WBxx_HAL_Driver/Inc/stm32wbxx_ll_system.h ****   *         @arg @ref LL_SYSCFG_SRAM2WRP_PAGE5
 956:Drivers/STM32WBxx_HAL_Driver/Inc/stm32wbxx_ll_system.h ****   *         @arg @ref LL_SYSCFG_SRAM2WRP_PAGE6
 957:Drivers/STM32WBxx_HAL_Driver/Inc/stm32wbxx_ll_system.h ****   *         @arg @ref LL_SYSCFG_SRAM2WRP_PAGE7
 958:Drivers/STM32WBxx_HAL_Driver/Inc/stm32wbxx_ll_system.h ****   *         @arg @ref LL_SYSCFG_SRAM2WRP_PAGE8
 959:Drivers/STM32WBxx_HAL_Driver/Inc/stm32wbxx_ll_system.h ****   *         @arg @ref LL_SYSCFG_SRAM2WRP_PAGE9
 960:Drivers/STM32WBxx_HAL_Driver/Inc/stm32wbxx_ll_system.h ****   *         @arg @ref LL_SYSCFG_SRAM2WRP_PAGE10
 961:Drivers/STM32WBxx_HAL_Driver/Inc/stm32wbxx_ll_system.h ****   *         @arg @ref LL_SYSCFG_SRAM2WRP_PAGE11
 962:Drivers/STM32WBxx_HAL_Driver/Inc/stm32wbxx_ll_system.h ****   *         @arg @ref LL_SYSCFG_SRAM2WRP_PAGE12
 963:Drivers/STM32WBxx_HAL_Driver/Inc/stm32wbxx_ll_system.h ****   *         @arg @ref LL_SYSCFG_SRAM2WRP_PAGE13
 964:Drivers/STM32WBxx_HAL_Driver/Inc/stm32wbxx_ll_system.h ****   *         @arg @ref LL_SYSCFG_SRAM2WRP_PAGE14
 965:Drivers/STM32WBxx_HAL_Driver/Inc/stm32wbxx_ll_system.h ****   *         @arg @ref LL_SYSCFG_SRAM2WRP_PAGE15
 966:Drivers/STM32WBxx_HAL_Driver/Inc/stm32wbxx_ll_system.h ****   *         @arg @ref LL_SYSCFG_SRAM2WRP_PAGE16
 967:Drivers/STM32WBxx_HAL_Driver/Inc/stm32wbxx_ll_system.h ****   *         @arg @ref LL_SYSCFG_SRAM2WRP_PAGE17
 968:Drivers/STM32WBxx_HAL_Driver/Inc/stm32wbxx_ll_system.h ****   *         @arg @ref LL_SYSCFG_SRAM2WRP_PAGE18
 969:Drivers/STM32WBxx_HAL_Driver/Inc/stm32wbxx_ll_system.h ****   *         @arg @ref LL_SYSCFG_SRAM2WRP_PAGE19
 970:Drivers/STM32WBxx_HAL_Driver/Inc/stm32wbxx_ll_system.h ****   *         @arg @ref LL_SYSCFG_SRAM2WRP_PAGE20
 971:Drivers/STM32WBxx_HAL_Driver/Inc/stm32wbxx_ll_system.h ****   *         @arg @ref LL_SYSCFG_SRAM2WRP_PAGE21
 972:Drivers/STM32WBxx_HAL_Driver/Inc/stm32wbxx_ll_system.h ****   *         @arg @ref LL_SYSCFG_SRAM2WRP_PAGE22
 973:Drivers/STM32WBxx_HAL_Driver/Inc/stm32wbxx_ll_system.h ****   *         @arg @ref LL_SYSCFG_SRAM2WRP_PAGE23
 974:Drivers/STM32WBxx_HAL_Driver/Inc/stm32wbxx_ll_system.h ****   *         @arg @ref LL_SYSCFG_SRAM2WRP_PAGE24
 975:Drivers/STM32WBxx_HAL_Driver/Inc/stm32wbxx_ll_system.h ****   *         @arg @ref LL_SYSCFG_SRAM2WRP_PAGE25
 976:Drivers/STM32WBxx_HAL_Driver/Inc/stm32wbxx_ll_system.h ****   *         @arg @ref LL_SYSCFG_SRAM2WRP_PAGE26
 977:Drivers/STM32WBxx_HAL_Driver/Inc/stm32wbxx_ll_system.h ****   *         @arg @ref LL_SYSCFG_SRAM2WRP_PAGE27
 978:Drivers/STM32WBxx_HAL_Driver/Inc/stm32wbxx_ll_system.h ****   *         @arg @ref LL_SYSCFG_SRAM2WRP_PAGE28
 979:Drivers/STM32WBxx_HAL_Driver/Inc/stm32wbxx_ll_system.h ****   *         @arg @ref LL_SYSCFG_SRAM2WRP_PAGE29
 980:Drivers/STM32WBxx_HAL_Driver/Inc/stm32wbxx_ll_system.h ****   *         @arg @ref LL_SYSCFG_SRAM2WRP_PAGE30
 981:Drivers/STM32WBxx_HAL_Driver/Inc/stm32wbxx_ll_system.h ****   *         @arg @ref LL_SYSCFG_SRAM2WRP_PAGE31
 982:Drivers/STM32WBxx_HAL_Driver/Inc/stm32wbxx_ll_system.h ****   * @retval None
 983:Drivers/STM32WBxx_HAL_Driver/Inc/stm32wbxx_ll_system.h ****   */
 984:Drivers/STM32WBxx_HAL_Driver/Inc/stm32wbxx_ll_system.h **** /* Legacy define */
 985:Drivers/STM32WBxx_HAL_Driver/Inc/stm32wbxx_ll_system.h **** #define LL_SYSCFG_EnableSRAM2PageWRP    LL_SYSCFG_EnableSRAM2PageWRP_0_31
ARM GAS  C:\Users\Nathan\AppData\Local\Temp\ccVM5ua8.s 			page 45


 986:Drivers/STM32WBxx_HAL_Driver/Inc/stm32wbxx_ll_system.h **** __STATIC_INLINE void LL_SYSCFG_EnableSRAM2PageWRP_0_31(uint32_t SRAM2WRP)
 987:Drivers/STM32WBxx_HAL_Driver/Inc/stm32wbxx_ll_system.h **** {
 988:Drivers/STM32WBxx_HAL_Driver/Inc/stm32wbxx_ll_system.h ****   SET_BIT(SYSCFG->SWPR1, SRAM2WRP);
 989:Drivers/STM32WBxx_HAL_Driver/Inc/stm32wbxx_ll_system.h **** }
 990:Drivers/STM32WBxx_HAL_Driver/Inc/stm32wbxx_ll_system.h **** 
 991:Drivers/STM32WBxx_HAL_Driver/Inc/stm32wbxx_ll_system.h **** /**
 992:Drivers/STM32WBxx_HAL_Driver/Inc/stm32wbxx_ll_system.h ****   * @brief  Enable SRAM2 page write protection for Pages in range 32 to 63
 993:Drivers/STM32WBxx_HAL_Driver/Inc/stm32wbxx_ll_system.h ****   * @note Write protection is cleared only by a system reset
 994:Drivers/STM32WBxx_HAL_Driver/Inc/stm32wbxx_ll_system.h ****   * @rmtoll SYSCFG_SWPR2 PxWP          LL_SYSCFG_EnableSRAM2PageWRP_32_63
 995:Drivers/STM32WBxx_HAL_Driver/Inc/stm32wbxx_ll_system.h ****   * @param  SRAM2WRP This parameter can be a combination of the following values:
 996:Drivers/STM32WBxx_HAL_Driver/Inc/stm32wbxx_ll_system.h ****   *         @arg @ref LL_SYSCFG_SRAM2WRP_PAGE32
 997:Drivers/STM32WBxx_HAL_Driver/Inc/stm32wbxx_ll_system.h ****   *         @arg @ref LL_SYSCFG_SRAM2WRP_PAGE33
 998:Drivers/STM32WBxx_HAL_Driver/Inc/stm32wbxx_ll_system.h ****   *         @arg @ref LL_SYSCFG_SRAM2WRP_PAGE34
 999:Drivers/STM32WBxx_HAL_Driver/Inc/stm32wbxx_ll_system.h ****   *         @arg @ref LL_SYSCFG_SRAM2WRP_PAGE35
1000:Drivers/STM32WBxx_HAL_Driver/Inc/stm32wbxx_ll_system.h ****   *         @arg @ref LL_SYSCFG_SRAM2WRP_PAGE36
1001:Drivers/STM32WBxx_HAL_Driver/Inc/stm32wbxx_ll_system.h ****   *         @arg @ref LL_SYSCFG_SRAM2WRP_PAGE37
1002:Drivers/STM32WBxx_HAL_Driver/Inc/stm32wbxx_ll_system.h ****   *         @arg @ref LL_SYSCFG_SRAM2WRP_PAGE38
1003:Drivers/STM32WBxx_HAL_Driver/Inc/stm32wbxx_ll_system.h ****   *         @arg @ref LL_SYSCFG_SRAM2WRP_PAGE39
1004:Drivers/STM32WBxx_HAL_Driver/Inc/stm32wbxx_ll_system.h ****   *         @arg @ref LL_SYSCFG_SRAM2WRP_PAGE40
1005:Drivers/STM32WBxx_HAL_Driver/Inc/stm32wbxx_ll_system.h ****   *         @arg @ref LL_SYSCFG_SRAM2WRP_PAGE41
1006:Drivers/STM32WBxx_HAL_Driver/Inc/stm32wbxx_ll_system.h ****   *         @arg @ref LL_SYSCFG_SRAM2WRP_PAGE42
1007:Drivers/STM32WBxx_HAL_Driver/Inc/stm32wbxx_ll_system.h ****   *         @arg @ref LL_SYSCFG_SRAM2WRP_PAGE43
1008:Drivers/STM32WBxx_HAL_Driver/Inc/stm32wbxx_ll_system.h ****   *         @arg @ref LL_SYSCFG_SRAM2WRP_PAGE44
1009:Drivers/STM32WBxx_HAL_Driver/Inc/stm32wbxx_ll_system.h ****   *         @arg @ref LL_SYSCFG_SRAM2WRP_PAGE45
1010:Drivers/STM32WBxx_HAL_Driver/Inc/stm32wbxx_ll_system.h ****   *         @arg @ref LL_SYSCFG_SRAM2WRP_PAGE46
1011:Drivers/STM32WBxx_HAL_Driver/Inc/stm32wbxx_ll_system.h ****   *         @arg @ref LL_SYSCFG_SRAM2WRP_PAGE47
1012:Drivers/STM32WBxx_HAL_Driver/Inc/stm32wbxx_ll_system.h ****   *         @arg @ref LL_SYSCFG_SRAM2WRP_PAGE48
1013:Drivers/STM32WBxx_HAL_Driver/Inc/stm32wbxx_ll_system.h ****   *         @arg @ref LL_SYSCFG_SRAM2WRP_PAGE49
1014:Drivers/STM32WBxx_HAL_Driver/Inc/stm32wbxx_ll_system.h ****   *         @arg @ref LL_SYSCFG_SRAM2WRP_PAGE50
1015:Drivers/STM32WBxx_HAL_Driver/Inc/stm32wbxx_ll_system.h ****   *         @arg @ref LL_SYSCFG_SRAM2WRP_PAGE51
1016:Drivers/STM32WBxx_HAL_Driver/Inc/stm32wbxx_ll_system.h ****   *         @arg @ref LL_SYSCFG_SRAM2WRP_PAGE52
1017:Drivers/STM32WBxx_HAL_Driver/Inc/stm32wbxx_ll_system.h ****   *         @arg @ref LL_SYSCFG_SRAM2WRP_PAGE53
1018:Drivers/STM32WBxx_HAL_Driver/Inc/stm32wbxx_ll_system.h ****   *         @arg @ref LL_SYSCFG_SRAM2WRP_PAGE54
1019:Drivers/STM32WBxx_HAL_Driver/Inc/stm32wbxx_ll_system.h ****   *         @arg @ref LL_SYSCFG_SRAM2WRP_PAGE55
1020:Drivers/STM32WBxx_HAL_Driver/Inc/stm32wbxx_ll_system.h ****   *         @arg @ref LL_SYSCFG_SRAM2WRP_PAGE56
1021:Drivers/STM32WBxx_HAL_Driver/Inc/stm32wbxx_ll_system.h ****   *         @arg @ref LL_SYSCFG_SRAM2WRP_PAGE57
1022:Drivers/STM32WBxx_HAL_Driver/Inc/stm32wbxx_ll_system.h ****   *         @arg @ref LL_SYSCFG_SRAM2WRP_PAGE58
1023:Drivers/STM32WBxx_HAL_Driver/Inc/stm32wbxx_ll_system.h ****   *         @arg @ref LL_SYSCFG_SRAM2WRP_PAGE59
1024:Drivers/STM32WBxx_HAL_Driver/Inc/stm32wbxx_ll_system.h ****   *         @arg @ref LL_SYSCFG_SRAM2WRP_PAGE60
1025:Drivers/STM32WBxx_HAL_Driver/Inc/stm32wbxx_ll_system.h ****   *         @arg @ref LL_SYSCFG_SRAM2WRP_PAGE61
1026:Drivers/STM32WBxx_HAL_Driver/Inc/stm32wbxx_ll_system.h ****   *         @arg @ref LL_SYSCFG_SRAM2WRP_PAGE62
1027:Drivers/STM32WBxx_HAL_Driver/Inc/stm32wbxx_ll_system.h ****   *         @arg @ref LL_SYSCFG_SRAM2WRP_PAGE63
1028:Drivers/STM32WBxx_HAL_Driver/Inc/stm32wbxx_ll_system.h ****   * @retval None
1029:Drivers/STM32WBxx_HAL_Driver/Inc/stm32wbxx_ll_system.h ****   */
1030:Drivers/STM32WBxx_HAL_Driver/Inc/stm32wbxx_ll_system.h **** __STATIC_INLINE void LL_SYSCFG_EnableSRAM2PageWRP_32_63(uint32_t SRAM2WRP)
1031:Drivers/STM32WBxx_HAL_Driver/Inc/stm32wbxx_ll_system.h **** {
1032:Drivers/STM32WBxx_HAL_Driver/Inc/stm32wbxx_ll_system.h ****   SET_BIT(SYSCFG->SWPR2, SRAM2WRP);
1033:Drivers/STM32WBxx_HAL_Driver/Inc/stm32wbxx_ll_system.h **** }
1034:Drivers/STM32WBxx_HAL_Driver/Inc/stm32wbxx_ll_system.h **** 
1035:Drivers/STM32WBxx_HAL_Driver/Inc/stm32wbxx_ll_system.h **** /**
1036:Drivers/STM32WBxx_HAL_Driver/Inc/stm32wbxx_ll_system.h ****   * @brief  SRAM2 page write protection lock prior to erase
1037:Drivers/STM32WBxx_HAL_Driver/Inc/stm32wbxx_ll_system.h ****   * @rmtoll SYSCFG_SKR   KEY           LL_SYSCFG_LockSRAM2WRP
1038:Drivers/STM32WBxx_HAL_Driver/Inc/stm32wbxx_ll_system.h ****   * @retval None
1039:Drivers/STM32WBxx_HAL_Driver/Inc/stm32wbxx_ll_system.h ****   */
1040:Drivers/STM32WBxx_HAL_Driver/Inc/stm32wbxx_ll_system.h **** __STATIC_INLINE void LL_SYSCFG_LockSRAM2WRP(void)
1041:Drivers/STM32WBxx_HAL_Driver/Inc/stm32wbxx_ll_system.h **** {
1042:Drivers/STM32WBxx_HAL_Driver/Inc/stm32wbxx_ll_system.h ****   /* Writing a wrong key reactivates the write protection */
ARM GAS  C:\Users\Nathan\AppData\Local\Temp\ccVM5ua8.s 			page 46


1043:Drivers/STM32WBxx_HAL_Driver/Inc/stm32wbxx_ll_system.h ****   WRITE_REG(SYSCFG->SKR, 0x00U);
1044:Drivers/STM32WBxx_HAL_Driver/Inc/stm32wbxx_ll_system.h **** }
1045:Drivers/STM32WBxx_HAL_Driver/Inc/stm32wbxx_ll_system.h **** 
1046:Drivers/STM32WBxx_HAL_Driver/Inc/stm32wbxx_ll_system.h **** /**
1047:Drivers/STM32WBxx_HAL_Driver/Inc/stm32wbxx_ll_system.h ****   * @brief  SRAM2 page write protection unlock prior to erase
1048:Drivers/STM32WBxx_HAL_Driver/Inc/stm32wbxx_ll_system.h ****   * @rmtoll SYSCFG_SKR   KEY           LL_SYSCFG_UnlockSRAM2WRP
1049:Drivers/STM32WBxx_HAL_Driver/Inc/stm32wbxx_ll_system.h ****   * @retval None
1050:Drivers/STM32WBxx_HAL_Driver/Inc/stm32wbxx_ll_system.h ****   */
1051:Drivers/STM32WBxx_HAL_Driver/Inc/stm32wbxx_ll_system.h **** __STATIC_INLINE void LL_SYSCFG_UnlockSRAM2WRP(void)
1052:Drivers/STM32WBxx_HAL_Driver/Inc/stm32wbxx_ll_system.h **** {
1053:Drivers/STM32WBxx_HAL_Driver/Inc/stm32wbxx_ll_system.h ****   /* unlock the write protection of the SRAM2ER bit */
1054:Drivers/STM32WBxx_HAL_Driver/Inc/stm32wbxx_ll_system.h ****   WRITE_REG(SYSCFG->SKR, 0xCAU);
1055:Drivers/STM32WBxx_HAL_Driver/Inc/stm32wbxx_ll_system.h ****   WRITE_REG(SYSCFG->SKR, 0x53U);
1056:Drivers/STM32WBxx_HAL_Driver/Inc/stm32wbxx_ll_system.h **** }
1057:Drivers/STM32WBxx_HAL_Driver/Inc/stm32wbxx_ll_system.h **** 
1058:Drivers/STM32WBxx_HAL_Driver/Inc/stm32wbxx_ll_system.h **** /**
1059:Drivers/STM32WBxx_HAL_Driver/Inc/stm32wbxx_ll_system.h ****   * @brief  Enable CPU1 Interrupt Mask
1060:Drivers/STM32WBxx_HAL_Driver/Inc/stm32wbxx_ll_system.h ****   * @rmtoll SYSCFG_IMR1  TIM1IM      LL_SYSCFG_GRP1_EnableIT\n
1061:Drivers/STM32WBxx_HAL_Driver/Inc/stm32wbxx_ll_system.h ****   *         SYSCFG_IMR1  TIM16IM     LL_SYSCFG_GRP1_EnableIT\n
1062:Drivers/STM32WBxx_HAL_Driver/Inc/stm32wbxx_ll_system.h ****   *         SYSCFG_IMR1  TIM17IM     LL_SYSCFG_GRP1_EnableIT\n
1063:Drivers/STM32WBxx_HAL_Driver/Inc/stm32wbxx_ll_system.h ****   *         SYSCFG_IMR1  EXTIxIM     LL_SYSCFG_GRP1_EnableIT
1064:Drivers/STM32WBxx_HAL_Driver/Inc/stm32wbxx_ll_system.h ****   * @param  Interrupt This parameter can be a combination of the following values:
1065:Drivers/STM32WBxx_HAL_Driver/Inc/stm32wbxx_ll_system.h ****   *         @arg @ref LL_SYSCFG_GRP1_TIM1
1066:Drivers/STM32WBxx_HAL_Driver/Inc/stm32wbxx_ll_system.h ****   *         @arg @ref LL_SYSCFG_GRP1_TIM16
1067:Drivers/STM32WBxx_HAL_Driver/Inc/stm32wbxx_ll_system.h ****   *         @arg @ref LL_SYSCFG_GRP1_TIM17
1068:Drivers/STM32WBxx_HAL_Driver/Inc/stm32wbxx_ll_system.h ****   *         @arg @ref LL_SYSCFG_GRP1_EXTI5
1069:Drivers/STM32WBxx_HAL_Driver/Inc/stm32wbxx_ll_system.h ****   *         @arg @ref LL_SYSCFG_GRP1_EXTI6
1070:Drivers/STM32WBxx_HAL_Driver/Inc/stm32wbxx_ll_system.h ****   *         @arg @ref LL_SYSCFG_GRP1_EXTI7
1071:Drivers/STM32WBxx_HAL_Driver/Inc/stm32wbxx_ll_system.h ****   *         @arg @ref LL_SYSCFG_GRP1_EXTI8
1072:Drivers/STM32WBxx_HAL_Driver/Inc/stm32wbxx_ll_system.h ****   *         @arg @ref LL_SYSCFG_GRP1_EXTI9
1073:Drivers/STM32WBxx_HAL_Driver/Inc/stm32wbxx_ll_system.h ****   *         @arg @ref LL_SYSCFG_GRP1_EXTI10
1074:Drivers/STM32WBxx_HAL_Driver/Inc/stm32wbxx_ll_system.h ****   *         @arg @ref LL_SYSCFG_GRP1_EXTI11
1075:Drivers/STM32WBxx_HAL_Driver/Inc/stm32wbxx_ll_system.h ****   *         @arg @ref LL_SYSCFG_GRP1_EXTI12
1076:Drivers/STM32WBxx_HAL_Driver/Inc/stm32wbxx_ll_system.h ****   *         @arg @ref LL_SYSCFG_GRP1_EXTI13
1077:Drivers/STM32WBxx_HAL_Driver/Inc/stm32wbxx_ll_system.h ****   *         @arg @ref LL_SYSCFG_GRP1_EXTI14
1078:Drivers/STM32WBxx_HAL_Driver/Inc/stm32wbxx_ll_system.h ****   *         @arg @ref LL_SYSCFG_GRP1_EXTI15
1079:Drivers/STM32WBxx_HAL_Driver/Inc/stm32wbxx_ll_system.h ****   * @retval None
1080:Drivers/STM32WBxx_HAL_Driver/Inc/stm32wbxx_ll_system.h ****   */
1081:Drivers/STM32WBxx_HAL_Driver/Inc/stm32wbxx_ll_system.h **** __STATIC_INLINE void LL_SYSCFG_GRP1_EnableIT(uint32_t Interrupt)
1082:Drivers/STM32WBxx_HAL_Driver/Inc/stm32wbxx_ll_system.h **** {
1083:Drivers/STM32WBxx_HAL_Driver/Inc/stm32wbxx_ll_system.h ****   CLEAR_BIT(SYSCFG->IMR1, Interrupt);
1084:Drivers/STM32WBxx_HAL_Driver/Inc/stm32wbxx_ll_system.h **** }
1085:Drivers/STM32WBxx_HAL_Driver/Inc/stm32wbxx_ll_system.h **** 
1086:Drivers/STM32WBxx_HAL_Driver/Inc/stm32wbxx_ll_system.h **** /**
1087:Drivers/STM32WBxx_HAL_Driver/Inc/stm32wbxx_ll_system.h ****   * @brief  Enable CPU1 Interrupt Mask
1088:Drivers/STM32WBxx_HAL_Driver/Inc/stm32wbxx_ll_system.h ****   * @rmtoll SYSCFG_IMR1  PVM1IM      LL_SYSCFG_GRP2_EnableIT\n
1089:Drivers/STM32WBxx_HAL_Driver/Inc/stm32wbxx_ll_system.h ****   *         SYSCFG_IMR1  PVM3IM      LL_SYSCFG_GRP2_EnableIT\n
1090:Drivers/STM32WBxx_HAL_Driver/Inc/stm32wbxx_ll_system.h ****   *         SYSCFG_IMR1  PVDIM       LL_SYSCFG_GRP2_EnableIT
1091:Drivers/STM32WBxx_HAL_Driver/Inc/stm32wbxx_ll_system.h ****   * @param  Interrupt This parameter can be a combination of the following values:
1092:Drivers/STM32WBxx_HAL_Driver/Inc/stm32wbxx_ll_system.h ****   *         @arg @ref LL_SYSCFG_GRP2_PVM1
1093:Drivers/STM32WBxx_HAL_Driver/Inc/stm32wbxx_ll_system.h ****   *         @arg @ref LL_SYSCFG_GRP2_PVM3
1094:Drivers/STM32WBxx_HAL_Driver/Inc/stm32wbxx_ll_system.h ****   *         @arg @ref LL_SYSCFG_GRP2_PVD
1095:Drivers/STM32WBxx_HAL_Driver/Inc/stm32wbxx_ll_system.h ****   * @retval None
1096:Drivers/STM32WBxx_HAL_Driver/Inc/stm32wbxx_ll_system.h ****   */
1097:Drivers/STM32WBxx_HAL_Driver/Inc/stm32wbxx_ll_system.h **** __STATIC_INLINE void LL_SYSCFG_GRP2_EnableIT(uint32_t Interrupt)
1098:Drivers/STM32WBxx_HAL_Driver/Inc/stm32wbxx_ll_system.h **** {
1099:Drivers/STM32WBxx_HAL_Driver/Inc/stm32wbxx_ll_system.h ****   CLEAR_BIT(SYSCFG->IMR2, Interrupt);
ARM GAS  C:\Users\Nathan\AppData\Local\Temp\ccVM5ua8.s 			page 47


1100:Drivers/STM32WBxx_HAL_Driver/Inc/stm32wbxx_ll_system.h **** }
1101:Drivers/STM32WBxx_HAL_Driver/Inc/stm32wbxx_ll_system.h **** 
1102:Drivers/STM32WBxx_HAL_Driver/Inc/stm32wbxx_ll_system.h **** /**
1103:Drivers/STM32WBxx_HAL_Driver/Inc/stm32wbxx_ll_system.h ****   * @brief  Disable CPU1 Interrupt Mask
1104:Drivers/STM32WBxx_HAL_Driver/Inc/stm32wbxx_ll_system.h ****   * @rmtoll SYSCFG_IMR1  TIM1IM      LL_SYSCFG_GRP1_DisableIT\n
1105:Drivers/STM32WBxx_HAL_Driver/Inc/stm32wbxx_ll_system.h ****   *         SYSCFG_IMR1  TIM16IM     LL_SYSCFG_GRP1_DisableIT\n
1106:Drivers/STM32WBxx_HAL_Driver/Inc/stm32wbxx_ll_system.h ****   *         SYSCFG_IMR1  TIM17IM     LL_SYSCFG_GRP1_DisableIT\n
1107:Drivers/STM32WBxx_HAL_Driver/Inc/stm32wbxx_ll_system.h ****   *         SYSCFG_IMR1  EXTIxIM     LL_SYSCFG_GRP1_DisableIT
1108:Drivers/STM32WBxx_HAL_Driver/Inc/stm32wbxx_ll_system.h ****   * @param  Interrupt This parameter can be a combination of the following values:
1109:Drivers/STM32WBxx_HAL_Driver/Inc/stm32wbxx_ll_system.h ****   *         @arg @ref LL_SYSCFG_GRP1_TIM1
1110:Drivers/STM32WBxx_HAL_Driver/Inc/stm32wbxx_ll_system.h ****   *         @arg @ref LL_SYSCFG_GRP1_TIM16
1111:Drivers/STM32WBxx_HAL_Driver/Inc/stm32wbxx_ll_system.h ****   *         @arg @ref LL_SYSCFG_GRP1_TIM17
1112:Drivers/STM32WBxx_HAL_Driver/Inc/stm32wbxx_ll_system.h ****   *         @arg @ref LL_SYSCFG_GRP1_EXTI5
1113:Drivers/STM32WBxx_HAL_Driver/Inc/stm32wbxx_ll_system.h ****   *         @arg @ref LL_SYSCFG_GRP1_EXTI6
1114:Drivers/STM32WBxx_HAL_Driver/Inc/stm32wbxx_ll_system.h ****   *         @arg @ref LL_SYSCFG_GRP1_EXTI7
1115:Drivers/STM32WBxx_HAL_Driver/Inc/stm32wbxx_ll_system.h ****   *         @arg @ref LL_SYSCFG_GRP1_EXTI8
1116:Drivers/STM32WBxx_HAL_Driver/Inc/stm32wbxx_ll_system.h ****   *         @arg @ref LL_SYSCFG_GRP1_EXTI9
1117:Drivers/STM32WBxx_HAL_Driver/Inc/stm32wbxx_ll_system.h ****   *         @arg @ref LL_SYSCFG_GRP1_EXTI10
1118:Drivers/STM32WBxx_HAL_Driver/Inc/stm32wbxx_ll_system.h ****   *         @arg @ref LL_SYSCFG_GRP1_EXTI11
1119:Drivers/STM32WBxx_HAL_Driver/Inc/stm32wbxx_ll_system.h ****   *         @arg @ref LL_SYSCFG_GRP1_EXTI12
1120:Drivers/STM32WBxx_HAL_Driver/Inc/stm32wbxx_ll_system.h ****   *         @arg @ref LL_SYSCFG_GRP1_EXTI13
1121:Drivers/STM32WBxx_HAL_Driver/Inc/stm32wbxx_ll_system.h ****   *         @arg @ref LL_SYSCFG_GRP1_EXTI14
1122:Drivers/STM32WBxx_HAL_Driver/Inc/stm32wbxx_ll_system.h ****   *         @arg @ref LL_SYSCFG_GRP1_EXTI15
1123:Drivers/STM32WBxx_HAL_Driver/Inc/stm32wbxx_ll_system.h ****   * @retval None
1124:Drivers/STM32WBxx_HAL_Driver/Inc/stm32wbxx_ll_system.h ****   */
1125:Drivers/STM32WBxx_HAL_Driver/Inc/stm32wbxx_ll_system.h **** __STATIC_INLINE void LL_SYSCFG_GRP1_DisableIT(uint32_t Interrupt)
1126:Drivers/STM32WBxx_HAL_Driver/Inc/stm32wbxx_ll_system.h **** {
1127:Drivers/STM32WBxx_HAL_Driver/Inc/stm32wbxx_ll_system.h ****   SET_BIT(SYSCFG->IMR1, Interrupt);
1128:Drivers/STM32WBxx_HAL_Driver/Inc/stm32wbxx_ll_system.h **** }
1129:Drivers/STM32WBxx_HAL_Driver/Inc/stm32wbxx_ll_system.h **** 
1130:Drivers/STM32WBxx_HAL_Driver/Inc/stm32wbxx_ll_system.h **** /**
1131:Drivers/STM32WBxx_HAL_Driver/Inc/stm32wbxx_ll_system.h ****   * @brief  Disable CPU1 Interrupt Mask
1132:Drivers/STM32WBxx_HAL_Driver/Inc/stm32wbxx_ll_system.h ****   * @rmtoll SYSCFG_IMR2  PVM1IM      LL_SYSCFG_GRP2_DisableIT\n
1133:Drivers/STM32WBxx_HAL_Driver/Inc/stm32wbxx_ll_system.h ****   *         SYSCFG_IMR2  PVM3IM      LL_SYSCFG_GRP2_DisableIT\n
1134:Drivers/STM32WBxx_HAL_Driver/Inc/stm32wbxx_ll_system.h ****   *         SYSCFG_IMR2  PVDIM       LL_SYSCFG_GRP2_DisableIT
1135:Drivers/STM32WBxx_HAL_Driver/Inc/stm32wbxx_ll_system.h ****   * @param  Interrupt This parameter can be a combination of the following values:
1136:Drivers/STM32WBxx_HAL_Driver/Inc/stm32wbxx_ll_system.h ****   *         @arg @ref LL_SYSCFG_GRP2_PVM1
1137:Drivers/STM32WBxx_HAL_Driver/Inc/stm32wbxx_ll_system.h ****   *         @arg @ref LL_SYSCFG_GRP2_PVM3
1138:Drivers/STM32WBxx_HAL_Driver/Inc/stm32wbxx_ll_system.h ****   *         @arg @ref LL_SYSCFG_GRP2_PVD
1139:Drivers/STM32WBxx_HAL_Driver/Inc/stm32wbxx_ll_system.h ****   * @retval None
1140:Drivers/STM32WBxx_HAL_Driver/Inc/stm32wbxx_ll_system.h ****   */
1141:Drivers/STM32WBxx_HAL_Driver/Inc/stm32wbxx_ll_system.h **** __STATIC_INLINE void LL_SYSCFG_GRP2_DisableIT(uint32_t Interrupt)
1142:Drivers/STM32WBxx_HAL_Driver/Inc/stm32wbxx_ll_system.h **** {
1143:Drivers/STM32WBxx_HAL_Driver/Inc/stm32wbxx_ll_system.h ****   SET_BIT(SYSCFG->IMR2, Interrupt);
1144:Drivers/STM32WBxx_HAL_Driver/Inc/stm32wbxx_ll_system.h **** }
1145:Drivers/STM32WBxx_HAL_Driver/Inc/stm32wbxx_ll_system.h **** 
1146:Drivers/STM32WBxx_HAL_Driver/Inc/stm32wbxx_ll_system.h **** /**
1147:Drivers/STM32WBxx_HAL_Driver/Inc/stm32wbxx_ll_system.h ****   * @brief  Indicate if CPU1 Interrupt Mask is enabled
1148:Drivers/STM32WBxx_HAL_Driver/Inc/stm32wbxx_ll_system.h ****   * @rmtoll SYSCFG_IMR1  TIM1IM      LL_SYSCFG_GRP1_IsEnabledIT\n
1149:Drivers/STM32WBxx_HAL_Driver/Inc/stm32wbxx_ll_system.h ****   *         SYSCFG_IMR1  TIM16IM     LL_SYSCFG_GRP1_IsEnabledIT\n
1150:Drivers/STM32WBxx_HAL_Driver/Inc/stm32wbxx_ll_system.h ****   *         SYSCFG_IMR1  TIM17IM     LL_SYSCFG_GRP1_IsEnabledIT\n
1151:Drivers/STM32WBxx_HAL_Driver/Inc/stm32wbxx_ll_system.h ****   *         SYSCFG_IMR1  EXTIxIM     LL_SYSCFG_GRP1_IsEnabledIT
1152:Drivers/STM32WBxx_HAL_Driver/Inc/stm32wbxx_ll_system.h ****   * @param  Interrupt This parameter can be one of the following values:
1153:Drivers/STM32WBxx_HAL_Driver/Inc/stm32wbxx_ll_system.h ****   *         @arg @ref LL_SYSCFG_GRP1_TIM1
1154:Drivers/STM32WBxx_HAL_Driver/Inc/stm32wbxx_ll_system.h ****   *         @arg @ref LL_SYSCFG_GRP1_TIM16
1155:Drivers/STM32WBxx_HAL_Driver/Inc/stm32wbxx_ll_system.h ****   *         @arg @ref LL_SYSCFG_GRP1_TIM17
1156:Drivers/STM32WBxx_HAL_Driver/Inc/stm32wbxx_ll_system.h ****   *         @arg @ref LL_SYSCFG_GRP1_EXTI5
ARM GAS  C:\Users\Nathan\AppData\Local\Temp\ccVM5ua8.s 			page 48


1157:Drivers/STM32WBxx_HAL_Driver/Inc/stm32wbxx_ll_system.h ****   *         @arg @ref LL_SYSCFG_GRP1_EXTI6
1158:Drivers/STM32WBxx_HAL_Driver/Inc/stm32wbxx_ll_system.h ****   *         @arg @ref LL_SYSCFG_GRP1_EXTI7
1159:Drivers/STM32WBxx_HAL_Driver/Inc/stm32wbxx_ll_system.h ****   *         @arg @ref LL_SYSCFG_GRP1_EXTI8
1160:Drivers/STM32WBxx_HAL_Driver/Inc/stm32wbxx_ll_system.h ****   *         @arg @ref LL_SYSCFG_GRP1_EXTI9
1161:Drivers/STM32WBxx_HAL_Driver/Inc/stm32wbxx_ll_system.h ****   *         @arg @ref LL_SYSCFG_GRP1_EXTI10
1162:Drivers/STM32WBxx_HAL_Driver/Inc/stm32wbxx_ll_system.h ****   *         @arg @ref LL_SYSCFG_GRP1_EXTI11
1163:Drivers/STM32WBxx_HAL_Driver/Inc/stm32wbxx_ll_system.h ****   *         @arg @ref LL_SYSCFG_GRP1_EXTI12
1164:Drivers/STM32WBxx_HAL_Driver/Inc/stm32wbxx_ll_system.h ****   *         @arg @ref LL_SYSCFG_GRP1_EXTI13
1165:Drivers/STM32WBxx_HAL_Driver/Inc/stm32wbxx_ll_system.h ****   *         @arg @ref LL_SYSCFG_GRP1_EXTI14
1166:Drivers/STM32WBxx_HAL_Driver/Inc/stm32wbxx_ll_system.h ****   *         @arg @ref LL_SYSCFG_GRP1_EXTI15
1167:Drivers/STM32WBxx_HAL_Driver/Inc/stm32wbxx_ll_system.h ****   * @retval State of bit (1 or 0).
1168:Drivers/STM32WBxx_HAL_Driver/Inc/stm32wbxx_ll_system.h ****   */
1169:Drivers/STM32WBxx_HAL_Driver/Inc/stm32wbxx_ll_system.h **** __STATIC_INLINE uint32_t LL_SYSCFG_GRP1_IsEnabledIT(uint32_t Interrupt)
1170:Drivers/STM32WBxx_HAL_Driver/Inc/stm32wbxx_ll_system.h **** {
1171:Drivers/STM32WBxx_HAL_Driver/Inc/stm32wbxx_ll_system.h ****   return ((READ_BIT(SYSCFG->IMR1, Interrupt) != (Interrupt)) ? 1UL : 0UL);
1172:Drivers/STM32WBxx_HAL_Driver/Inc/stm32wbxx_ll_system.h **** }
1173:Drivers/STM32WBxx_HAL_Driver/Inc/stm32wbxx_ll_system.h **** 
1174:Drivers/STM32WBxx_HAL_Driver/Inc/stm32wbxx_ll_system.h **** /**
1175:Drivers/STM32WBxx_HAL_Driver/Inc/stm32wbxx_ll_system.h ****   * @brief  Indicate if CPU1 Interrupt Mask is enabled
1176:Drivers/STM32WBxx_HAL_Driver/Inc/stm32wbxx_ll_system.h ****   * @rmtoll SYSCFG_IMR2  PVM1IM      LL_SYSCFG_GRP2_IsEnabledIT\n
1177:Drivers/STM32WBxx_HAL_Driver/Inc/stm32wbxx_ll_system.h ****   *         SYSCFG_IMR2  PVM3IM      LL_SYSCFG_GRP2_IsEnabledIT\n
1178:Drivers/STM32WBxx_HAL_Driver/Inc/stm32wbxx_ll_system.h ****   *         SYSCFG_IMR2  PVDIM       LL_SYSCFG_GRP2_IsEnabledIT
1179:Drivers/STM32WBxx_HAL_Driver/Inc/stm32wbxx_ll_system.h ****   * @param  Interrupt This parameter can be one of the following values:
1180:Drivers/STM32WBxx_HAL_Driver/Inc/stm32wbxx_ll_system.h ****   *         @arg @ref LL_SYSCFG_GRP2_PVM1
1181:Drivers/STM32WBxx_HAL_Driver/Inc/stm32wbxx_ll_system.h ****   *         @arg @ref LL_SYSCFG_GRP2_PVM3
1182:Drivers/STM32WBxx_HAL_Driver/Inc/stm32wbxx_ll_system.h ****   *         @arg @ref LL_SYSCFG_GRP2_PVD
1183:Drivers/STM32WBxx_HAL_Driver/Inc/stm32wbxx_ll_system.h ****   * @retval State of bit (1 or 0).
1184:Drivers/STM32WBxx_HAL_Driver/Inc/stm32wbxx_ll_system.h ****   */
1185:Drivers/STM32WBxx_HAL_Driver/Inc/stm32wbxx_ll_system.h **** __STATIC_INLINE uint32_t LL_SYSCFG_GRP2_IsEnabledIT(uint32_t Interrupt)
1186:Drivers/STM32WBxx_HAL_Driver/Inc/stm32wbxx_ll_system.h **** {
1187:Drivers/STM32WBxx_HAL_Driver/Inc/stm32wbxx_ll_system.h ****   return ((READ_BIT(SYSCFG->IMR2, Interrupt) != (Interrupt)) ? 1UL : 0UL);
1188:Drivers/STM32WBxx_HAL_Driver/Inc/stm32wbxx_ll_system.h **** }
1189:Drivers/STM32WBxx_HAL_Driver/Inc/stm32wbxx_ll_system.h **** 
1190:Drivers/STM32WBxx_HAL_Driver/Inc/stm32wbxx_ll_system.h **** /**
1191:Drivers/STM32WBxx_HAL_Driver/Inc/stm32wbxx_ll_system.h ****   * @brief  Enable CPU2 Interrupt Mask
1192:Drivers/STM32WBxx_HAL_Driver/Inc/stm32wbxx_ll_system.h ****   * @rmtoll SYSCFG_C2IMR1  RTCSTAMPTAMPLSECSSIM      LL_C2_SYSCFG_GRP1_EnableIT\n
1193:Drivers/STM32WBxx_HAL_Driver/Inc/stm32wbxx_ll_system.h ****   *         SYSCFG_C2IMR1  RTCWKUPIM   LL_C2_SYSCFG_GRP1_EnableIT\n
1194:Drivers/STM32WBxx_HAL_Driver/Inc/stm32wbxx_ll_system.h ****   *         SYSCFG_C2IMR1  RTCALARMIM  LL_C2_SYSCFG_GRP1_EnableIT\n
1195:Drivers/STM32WBxx_HAL_Driver/Inc/stm32wbxx_ll_system.h ****   *         SYSCFG_C2IMR1  RCCIM       LL_C2_SYSCFG_GRP1_EnableIT\n
1196:Drivers/STM32WBxx_HAL_Driver/Inc/stm32wbxx_ll_system.h ****   *         SYSCFG_C2IMR1  FLASHIM     LL_C2_SYSCFG_GRP1_EnableIT\n
1197:Drivers/STM32WBxx_HAL_Driver/Inc/stm32wbxx_ll_system.h ****   *         SYSCFG_C2IMR1  PKAIM       LL_C2_SYSCFG_GRP1_EnableIT\n
1198:Drivers/STM32WBxx_HAL_Driver/Inc/stm32wbxx_ll_system.h ****   *         SYSCFG_C2IMR1  RNGIM       LL_C2_SYSCFG_GRP1_EnableIT\n
1199:Drivers/STM32WBxx_HAL_Driver/Inc/stm32wbxx_ll_system.h ****   *         SYSCFG_C2IMR1  AES1IM      LL_C2_SYSCFG_GRP1_EnableIT\n
1200:Drivers/STM32WBxx_HAL_Driver/Inc/stm32wbxx_ll_system.h ****   *         SYSCFG_C2IMR1  COMPIM      LL_C2_SYSCFG_GRP1_EnableIT\n
1201:Drivers/STM32WBxx_HAL_Driver/Inc/stm32wbxx_ll_system.h ****   *         SYSCFG_C2IMR1  ADCIM       LL_C2_SYSCFG_GRP1_EnableIT\n
1202:Drivers/STM32WBxx_HAL_Driver/Inc/stm32wbxx_ll_system.h ****   *         SYSCFG_C2IMR1  EXTIxIM     LL_C2_SYSCFG_GRP1_EnableIT
1203:Drivers/STM32WBxx_HAL_Driver/Inc/stm32wbxx_ll_system.h ****   * @param  Interrupt This parameter can be a combination of the following values:
1204:Drivers/STM32WBxx_HAL_Driver/Inc/stm32wbxx_ll_system.h ****   *         @arg @ref LL_C2_SYSCFG_GRP1_RTCSTAMP_RTCTAMP_LSECSS
1205:Drivers/STM32WBxx_HAL_Driver/Inc/stm32wbxx_ll_system.h ****   *         @arg @ref LL_C2_SYSCFG_GRP1_RTCWKUP
1206:Drivers/STM32WBxx_HAL_Driver/Inc/stm32wbxx_ll_system.h ****   *         @arg @ref LL_C2_SYSCFG_GRP1_RTCALARM
1207:Drivers/STM32WBxx_HAL_Driver/Inc/stm32wbxx_ll_system.h ****   *         @arg @ref LL_C2_SYSCFG_GRP1_RCC
1208:Drivers/STM32WBxx_HAL_Driver/Inc/stm32wbxx_ll_system.h ****   *         @arg @ref LL_C2_SYSCFG_GRP1_FLASH
1209:Drivers/STM32WBxx_HAL_Driver/Inc/stm32wbxx_ll_system.h ****   *         @arg @ref LL_C2_SYSCFG_GRP1_PKA
1210:Drivers/STM32WBxx_HAL_Driver/Inc/stm32wbxx_ll_system.h ****   *         @arg @ref LL_C2_SYSCFG_GRP1_RNG
1211:Drivers/STM32WBxx_HAL_Driver/Inc/stm32wbxx_ll_system.h ****   *         @arg @ref LL_C2_SYSCFG_GRP1_AES1
1212:Drivers/STM32WBxx_HAL_Driver/Inc/stm32wbxx_ll_system.h ****   *         @arg @ref LL_C2_SYSCFG_GRP1_COMP
1213:Drivers/STM32WBxx_HAL_Driver/Inc/stm32wbxx_ll_system.h ****   *         @arg @ref LL_C2_SYSCFG_GRP1_ADC
ARM GAS  C:\Users\Nathan\AppData\Local\Temp\ccVM5ua8.s 			page 49


1214:Drivers/STM32WBxx_HAL_Driver/Inc/stm32wbxx_ll_system.h ****   *         @arg @ref LL_C2_SYSCFG_GRP1_EXTI0
1215:Drivers/STM32WBxx_HAL_Driver/Inc/stm32wbxx_ll_system.h ****   *         @arg @ref LL_C2_SYSCFG_GRP1_EXTI1
1216:Drivers/STM32WBxx_HAL_Driver/Inc/stm32wbxx_ll_system.h ****   *         @arg @ref LL_C2_SYSCFG_GRP1_EXTI2
1217:Drivers/STM32WBxx_HAL_Driver/Inc/stm32wbxx_ll_system.h ****   *         @arg @ref LL_C2_SYSCFG_GRP1_EXTI3
1218:Drivers/STM32WBxx_HAL_Driver/Inc/stm32wbxx_ll_system.h ****   *         @arg @ref LL_C2_SYSCFG_GRP1_EXTI4
1219:Drivers/STM32WBxx_HAL_Driver/Inc/stm32wbxx_ll_system.h ****   *         @arg @ref LL_C2_SYSCFG_GRP1_EXTI5
1220:Drivers/STM32WBxx_HAL_Driver/Inc/stm32wbxx_ll_system.h ****   *         @arg @ref LL_C2_SYSCFG_GRP1_EXTI6
1221:Drivers/STM32WBxx_HAL_Driver/Inc/stm32wbxx_ll_system.h ****   *         @arg @ref LL_C2_SYSCFG_GRP1_EXTI7
1222:Drivers/STM32WBxx_HAL_Driver/Inc/stm32wbxx_ll_system.h ****   *         @arg @ref LL_C2_SYSCFG_GRP1_EXTI8
1223:Drivers/STM32WBxx_HAL_Driver/Inc/stm32wbxx_ll_system.h ****   *         @arg @ref LL_C2_SYSCFG_GRP1_EXTI9
1224:Drivers/STM32WBxx_HAL_Driver/Inc/stm32wbxx_ll_system.h ****   *         @arg @ref LL_C2_SYSCFG_GRP1_EXTI10
1225:Drivers/STM32WBxx_HAL_Driver/Inc/stm32wbxx_ll_system.h ****   *         @arg @ref LL_C2_SYSCFG_GRP1_EXTI11
1226:Drivers/STM32WBxx_HAL_Driver/Inc/stm32wbxx_ll_system.h ****   *         @arg @ref LL_C2_SYSCFG_GRP1_EXTI12
1227:Drivers/STM32WBxx_HAL_Driver/Inc/stm32wbxx_ll_system.h ****   *         @arg @ref LL_C2_SYSCFG_GRP1_EXTI13
1228:Drivers/STM32WBxx_HAL_Driver/Inc/stm32wbxx_ll_system.h ****   *         @arg @ref LL_C2_SYSCFG_GRP1_EXTI14
1229:Drivers/STM32WBxx_HAL_Driver/Inc/stm32wbxx_ll_system.h ****   *         @arg @ref LL_C2_SYSCFG_GRP1_EXTI15
1230:Drivers/STM32WBxx_HAL_Driver/Inc/stm32wbxx_ll_system.h ****   * @retval None
1231:Drivers/STM32WBxx_HAL_Driver/Inc/stm32wbxx_ll_system.h ****   */
1232:Drivers/STM32WBxx_HAL_Driver/Inc/stm32wbxx_ll_system.h **** __STATIC_INLINE void LL_C2_SYSCFG_GRP1_EnableIT(uint32_t Interrupt)
1233:Drivers/STM32WBxx_HAL_Driver/Inc/stm32wbxx_ll_system.h **** {
1234:Drivers/STM32WBxx_HAL_Driver/Inc/stm32wbxx_ll_system.h ****   CLEAR_BIT(SYSCFG->C2IMR1, Interrupt);
1235:Drivers/STM32WBxx_HAL_Driver/Inc/stm32wbxx_ll_system.h **** }
1236:Drivers/STM32WBxx_HAL_Driver/Inc/stm32wbxx_ll_system.h **** 
1237:Drivers/STM32WBxx_HAL_Driver/Inc/stm32wbxx_ll_system.h **** /**
1238:Drivers/STM32WBxx_HAL_Driver/Inc/stm32wbxx_ll_system.h ****   * @brief  Enable CPU2 Interrupt Mask
1239:Drivers/STM32WBxx_HAL_Driver/Inc/stm32wbxx_ll_system.h ****   * @rmtoll SYSCFG_C2IMR2  DMA1CHxIM   LL_C2_SYSCFG_GRP2_EnableIT\n
1240:Drivers/STM32WBxx_HAL_Driver/Inc/stm32wbxx_ll_system.h ****   *         SYSCFG_C2IMR2  DMA2CHxIM   LL_C2_SYSCFG_GRP2_EnableIT\n
1241:Drivers/STM32WBxx_HAL_Driver/Inc/stm32wbxx_ll_system.h ****   *         SYSCFG_C2IMR2  PVM1IM      LL_C2_SYSCFG_GRP2_EnableIT\n
1242:Drivers/STM32WBxx_HAL_Driver/Inc/stm32wbxx_ll_system.h ****   *         SYSCFG_C2IMR2  PVM3IM      LL_C2_SYSCFG_GRP2_EnableIT\n
1243:Drivers/STM32WBxx_HAL_Driver/Inc/stm32wbxx_ll_system.h ****   *         SYSCFG_C2IMR2  PVDIM       LL_C2_SYSCFG_GRP2_EnableIT\n
1244:Drivers/STM32WBxx_HAL_Driver/Inc/stm32wbxx_ll_system.h ****   *         SYSCFG_C2IMR2  TSCIM       LL_C2_SYSCFG_GRP2_EnableIT\n
1245:Drivers/STM32WBxx_HAL_Driver/Inc/stm32wbxx_ll_system.h ****   *         SYSCFG_C2IMR2  LCDIM       LL_C2_SYSCFG_GRP2_EnableIT
1246:Drivers/STM32WBxx_HAL_Driver/Inc/stm32wbxx_ll_system.h ****   * @param  Interrupt This parameter can be a combination of the following values:
1247:Drivers/STM32WBxx_HAL_Driver/Inc/stm32wbxx_ll_system.h ****   *         @arg @ref LL_C2_SYSCFG_GRP2_DMA1CH1
1248:Drivers/STM32WBxx_HAL_Driver/Inc/stm32wbxx_ll_system.h ****   *         @arg @ref LL_C2_SYSCFG_GRP2_DMA1CH2
1249:Drivers/STM32WBxx_HAL_Driver/Inc/stm32wbxx_ll_system.h ****   *         @arg @ref LL_C2_SYSCFG_GRP2_DMA1CH3
1250:Drivers/STM32WBxx_HAL_Driver/Inc/stm32wbxx_ll_system.h ****   *         @arg @ref LL_C2_SYSCFG_GRP2_DMA1CH4
1251:Drivers/STM32WBxx_HAL_Driver/Inc/stm32wbxx_ll_system.h ****   *         @arg @ref LL_C2_SYSCFG_GRP2_DMA1CH5
1252:Drivers/STM32WBxx_HAL_Driver/Inc/stm32wbxx_ll_system.h ****   *         @arg @ref LL_C2_SYSCFG_GRP2_DMA1CH6
1253:Drivers/STM32WBxx_HAL_Driver/Inc/stm32wbxx_ll_system.h ****   *         @arg @ref LL_C2_SYSCFG_GRP2_DMA1CH7
1254:Drivers/STM32WBxx_HAL_Driver/Inc/stm32wbxx_ll_system.h ****   *         @arg @ref LL_C2_SYSCFG_GRP2_DMA2CH1
1255:Drivers/STM32WBxx_HAL_Driver/Inc/stm32wbxx_ll_system.h ****   *         @arg @ref LL_C2_SYSCFG_GRP2_DMA2CH2
1256:Drivers/STM32WBxx_HAL_Driver/Inc/stm32wbxx_ll_system.h ****   *         @arg @ref LL_C2_SYSCFG_GRP2_DMA2CH3
1257:Drivers/STM32WBxx_HAL_Driver/Inc/stm32wbxx_ll_system.h ****   *         @arg @ref LL_C2_SYSCFG_GRP2_DMA2CH4
1258:Drivers/STM32WBxx_HAL_Driver/Inc/stm32wbxx_ll_system.h ****   *         @arg @ref LL_C2_SYSCFG_GRP2_DMA2CH5
1259:Drivers/STM32WBxx_HAL_Driver/Inc/stm32wbxx_ll_system.h ****   *         @arg @ref LL_C2_SYSCFG_GRP2_DMA2CH6
1260:Drivers/STM32WBxx_HAL_Driver/Inc/stm32wbxx_ll_system.h ****   *         @arg @ref LL_C2_SYSCFG_GRP2_DMA2CH7
1261:Drivers/STM32WBxx_HAL_Driver/Inc/stm32wbxx_ll_system.h ****   *         @arg @ref LL_C2_SYSCFG_GRP2_DMAMUX1
1262:Drivers/STM32WBxx_HAL_Driver/Inc/stm32wbxx_ll_system.h ****   *         @arg @ref LL_C2_SYSCFG_GRP2_PVM1
1263:Drivers/STM32WBxx_HAL_Driver/Inc/stm32wbxx_ll_system.h ****   *         @arg @ref LL_C2_SYSCFG_GRP2_PVM3
1264:Drivers/STM32WBxx_HAL_Driver/Inc/stm32wbxx_ll_system.h ****   *         @arg @ref LL_C2_SYSCFG_GRP2_PVD
1265:Drivers/STM32WBxx_HAL_Driver/Inc/stm32wbxx_ll_system.h ****   *         @arg @ref LL_C2_SYSCFG_GRP2_TSC
1266:Drivers/STM32WBxx_HAL_Driver/Inc/stm32wbxx_ll_system.h ****   *         @arg @ref LL_C2_SYSCFG_GRP2_LCD
1267:Drivers/STM32WBxx_HAL_Driver/Inc/stm32wbxx_ll_system.h ****   * @retval None
1268:Drivers/STM32WBxx_HAL_Driver/Inc/stm32wbxx_ll_system.h ****   */
1269:Drivers/STM32WBxx_HAL_Driver/Inc/stm32wbxx_ll_system.h **** __STATIC_INLINE void LL_C2_SYSCFG_GRP2_EnableIT(uint32_t Interrupt)
1270:Drivers/STM32WBxx_HAL_Driver/Inc/stm32wbxx_ll_system.h **** {
ARM GAS  C:\Users\Nathan\AppData\Local\Temp\ccVM5ua8.s 			page 50


1271:Drivers/STM32WBxx_HAL_Driver/Inc/stm32wbxx_ll_system.h ****   CLEAR_BIT(SYSCFG->C2IMR2, Interrupt);
1272:Drivers/STM32WBxx_HAL_Driver/Inc/stm32wbxx_ll_system.h **** }
1273:Drivers/STM32WBxx_HAL_Driver/Inc/stm32wbxx_ll_system.h **** 
1274:Drivers/STM32WBxx_HAL_Driver/Inc/stm32wbxx_ll_system.h **** /**
1275:Drivers/STM32WBxx_HAL_Driver/Inc/stm32wbxx_ll_system.h ****   * @brief  Disable CPU2 Interrupt Mask
1276:Drivers/STM32WBxx_HAL_Driver/Inc/stm32wbxx_ll_system.h ****   * @rmtoll SYSCFG_C2IMR1  RTCSTAMPTAMPLSECSSIM      LL_C2_SYSCFG_GRP1_DisableIT\n
1277:Drivers/STM32WBxx_HAL_Driver/Inc/stm32wbxx_ll_system.h ****   *         SYSCFG_C2IMR1  RTCWKUPIM   LL_C2_SYSCFG_GRP1_DisableIT\n
1278:Drivers/STM32WBxx_HAL_Driver/Inc/stm32wbxx_ll_system.h ****   *         SYSCFG_C2IMR1  RTCALARMIM  LL_C2_SYSCFG_GRP1_DisableIT\n
1279:Drivers/STM32WBxx_HAL_Driver/Inc/stm32wbxx_ll_system.h ****   *         SYSCFG_C2IMR1  RCCIM       LL_C2_SYSCFG_GRP1_DisableIT\n
1280:Drivers/STM32WBxx_HAL_Driver/Inc/stm32wbxx_ll_system.h ****   *         SYSCFG_C2IMR1  FLASHIM     LL_C2_SYSCFG_GRP1_DisableIT\n
1281:Drivers/STM32WBxx_HAL_Driver/Inc/stm32wbxx_ll_system.h ****   *         SYSCFG_C2IMR1  PKAIM       LL_C2_SYSCFG_GRP1_DisableIT\n
1282:Drivers/STM32WBxx_HAL_Driver/Inc/stm32wbxx_ll_system.h ****   *         SYSCFG_C2IMR1  RNGIM       LL_C2_SYSCFG_GRP1_DisableIT\n
1283:Drivers/STM32WBxx_HAL_Driver/Inc/stm32wbxx_ll_system.h ****   *         SYSCFG_C2IMR1  AES1IM      LL_C2_SYSCFG_GRP1_DisableIT\n
1284:Drivers/STM32WBxx_HAL_Driver/Inc/stm32wbxx_ll_system.h ****   *         SYSCFG_C2IMR1  COMPIM      LL_C2_SYSCFG_GRP1_DisableIT\n
1285:Drivers/STM32WBxx_HAL_Driver/Inc/stm32wbxx_ll_system.h ****   *         SYSCFG_C2IMR1  ADCIM       LL_C2_SYSCFG_GRP1_DisableIT\n
1286:Drivers/STM32WBxx_HAL_Driver/Inc/stm32wbxx_ll_system.h ****   *         SYSCFG_C2IMR1  EXTIxIM     LL_C2_SYSCFG_GRP1_DisableIT
1287:Drivers/STM32WBxx_HAL_Driver/Inc/stm32wbxx_ll_system.h ****   * @param  Interrupt This parameter can be a combination of the following values:
1288:Drivers/STM32WBxx_HAL_Driver/Inc/stm32wbxx_ll_system.h ****   *         @arg @ref LL_C2_SYSCFG_GRP1_RTCSTAMP_RTCTAMP_LSECSS
1289:Drivers/STM32WBxx_HAL_Driver/Inc/stm32wbxx_ll_system.h ****   *         @arg @ref LL_C2_SYSCFG_GRP1_RTCWKUP
1290:Drivers/STM32WBxx_HAL_Driver/Inc/stm32wbxx_ll_system.h ****   *         @arg @ref LL_C2_SYSCFG_GRP1_RTCALARM
1291:Drivers/STM32WBxx_HAL_Driver/Inc/stm32wbxx_ll_system.h ****   *         @arg @ref LL_C2_SYSCFG_GRP1_RCC
1292:Drivers/STM32WBxx_HAL_Driver/Inc/stm32wbxx_ll_system.h ****   *         @arg @ref LL_C2_SYSCFG_GRP1_FLASH
1293:Drivers/STM32WBxx_HAL_Driver/Inc/stm32wbxx_ll_system.h ****   *         @arg @ref LL_C2_SYSCFG_GRP1_PKA
1294:Drivers/STM32WBxx_HAL_Driver/Inc/stm32wbxx_ll_system.h ****   *         @arg @ref LL_C2_SYSCFG_GRP1_RNG
1295:Drivers/STM32WBxx_HAL_Driver/Inc/stm32wbxx_ll_system.h ****   *         @arg @ref LL_C2_SYSCFG_GRP1_AES1
1296:Drivers/STM32WBxx_HAL_Driver/Inc/stm32wbxx_ll_system.h ****   *         @arg @ref LL_C2_SYSCFG_GRP1_COMP
1297:Drivers/STM32WBxx_HAL_Driver/Inc/stm32wbxx_ll_system.h ****   *         @arg @ref LL_C2_SYSCFG_GRP1_ADC
1298:Drivers/STM32WBxx_HAL_Driver/Inc/stm32wbxx_ll_system.h ****   *         @arg @ref LL_C2_SYSCFG_GRP1_EXTI0
1299:Drivers/STM32WBxx_HAL_Driver/Inc/stm32wbxx_ll_system.h ****   *         @arg @ref LL_C2_SYSCFG_GRP1_EXTI1
1300:Drivers/STM32WBxx_HAL_Driver/Inc/stm32wbxx_ll_system.h ****   *         @arg @ref LL_C2_SYSCFG_GRP1_EXTI2
1301:Drivers/STM32WBxx_HAL_Driver/Inc/stm32wbxx_ll_system.h ****   *         @arg @ref LL_C2_SYSCFG_GRP1_EXTI3
1302:Drivers/STM32WBxx_HAL_Driver/Inc/stm32wbxx_ll_system.h ****   *         @arg @ref LL_C2_SYSCFG_GRP1_EXTI4
1303:Drivers/STM32WBxx_HAL_Driver/Inc/stm32wbxx_ll_system.h ****   *         @arg @ref LL_C2_SYSCFG_GRP1_EXTI5
1304:Drivers/STM32WBxx_HAL_Driver/Inc/stm32wbxx_ll_system.h ****   *         @arg @ref LL_C2_SYSCFG_GRP1_EXTI6
1305:Drivers/STM32WBxx_HAL_Driver/Inc/stm32wbxx_ll_system.h ****   *         @arg @ref LL_C2_SYSCFG_GRP1_EXTI7
1306:Drivers/STM32WBxx_HAL_Driver/Inc/stm32wbxx_ll_system.h ****   *         @arg @ref LL_C2_SYSCFG_GRP1_EXTI8
1307:Drivers/STM32WBxx_HAL_Driver/Inc/stm32wbxx_ll_system.h ****   *         @arg @ref LL_C2_SYSCFG_GRP1_EXTI9
1308:Drivers/STM32WBxx_HAL_Driver/Inc/stm32wbxx_ll_system.h ****   *         @arg @ref LL_C2_SYSCFG_GRP1_EXTI10
1309:Drivers/STM32WBxx_HAL_Driver/Inc/stm32wbxx_ll_system.h ****   *         @arg @ref LL_C2_SYSCFG_GRP1_EXTI11
1310:Drivers/STM32WBxx_HAL_Driver/Inc/stm32wbxx_ll_system.h ****   *         @arg @ref LL_C2_SYSCFG_GRP1_EXTI12
1311:Drivers/STM32WBxx_HAL_Driver/Inc/stm32wbxx_ll_system.h ****   *         @arg @ref LL_C2_SYSCFG_GRP1_EXTI13
1312:Drivers/STM32WBxx_HAL_Driver/Inc/stm32wbxx_ll_system.h ****   *         @arg @ref LL_C2_SYSCFG_GRP1_EXTI14
1313:Drivers/STM32WBxx_HAL_Driver/Inc/stm32wbxx_ll_system.h ****   *         @arg @ref LL_C2_SYSCFG_GRP1_EXTI15
1314:Drivers/STM32WBxx_HAL_Driver/Inc/stm32wbxx_ll_system.h ****   * @retval None
1315:Drivers/STM32WBxx_HAL_Driver/Inc/stm32wbxx_ll_system.h ****   */
1316:Drivers/STM32WBxx_HAL_Driver/Inc/stm32wbxx_ll_system.h **** __STATIC_INLINE void LL_C2_SYSCFG_GRP1_DisableIT(uint32_t Interrupt)
1317:Drivers/STM32WBxx_HAL_Driver/Inc/stm32wbxx_ll_system.h **** {
1318:Drivers/STM32WBxx_HAL_Driver/Inc/stm32wbxx_ll_system.h ****   SET_BIT(SYSCFG->C2IMR1, Interrupt);
1319:Drivers/STM32WBxx_HAL_Driver/Inc/stm32wbxx_ll_system.h **** }
1320:Drivers/STM32WBxx_HAL_Driver/Inc/stm32wbxx_ll_system.h **** 
1321:Drivers/STM32WBxx_HAL_Driver/Inc/stm32wbxx_ll_system.h **** /**
1322:Drivers/STM32WBxx_HAL_Driver/Inc/stm32wbxx_ll_system.h ****   * @brief  Disable CPU2 Interrupt Mask
1323:Drivers/STM32WBxx_HAL_Driver/Inc/stm32wbxx_ll_system.h ****   * @rmtoll SYSCFG_C2IMR2  DMA1CHxIM   LL_C2_SYSCFG_GRP2_DisableIT\n
1324:Drivers/STM32WBxx_HAL_Driver/Inc/stm32wbxx_ll_system.h ****   *         SYSCFG_C2IMR2  DMA2CHxIM   LL_C2_SYSCFG_GRP2_DisableIT\n
1325:Drivers/STM32WBxx_HAL_Driver/Inc/stm32wbxx_ll_system.h ****   *         SYSCFG_C2IMR2  PVM1IM      LL_C2_SYSCFG_GRP2_DisableIT\n
1326:Drivers/STM32WBxx_HAL_Driver/Inc/stm32wbxx_ll_system.h ****   *         SYSCFG_C2IMR2  PVM3IM      LL_C2_SYSCFG_GRP2_DisableIT\n
1327:Drivers/STM32WBxx_HAL_Driver/Inc/stm32wbxx_ll_system.h ****   *         SYSCFG_C2IMR2  PVDIM       LL_C2_SYSCFG_GRP2_DisableIT\n
ARM GAS  C:\Users\Nathan\AppData\Local\Temp\ccVM5ua8.s 			page 51


1328:Drivers/STM32WBxx_HAL_Driver/Inc/stm32wbxx_ll_system.h ****   *         SYSCFG_C2IMR2  TSCIM       LL_C2_SYSCFG_GRP2_DisableIT\n
1329:Drivers/STM32WBxx_HAL_Driver/Inc/stm32wbxx_ll_system.h ****   *         SYSCFG_C2IMR2  LCDIM       LL_C2_SYSCFG_GRP2_DisableIT
1330:Drivers/STM32WBxx_HAL_Driver/Inc/stm32wbxx_ll_system.h ****   * @param  Interrupt This parameter can be a combination of the following values:
1331:Drivers/STM32WBxx_HAL_Driver/Inc/stm32wbxx_ll_system.h ****   *         @arg @ref LL_C2_SYSCFG_GRP2_DMA1CH1
1332:Drivers/STM32WBxx_HAL_Driver/Inc/stm32wbxx_ll_system.h ****   *         @arg @ref LL_C2_SYSCFG_GRP2_DMA1CH2
1333:Drivers/STM32WBxx_HAL_Driver/Inc/stm32wbxx_ll_system.h ****   *         @arg @ref LL_C2_SYSCFG_GRP2_DMA1CH3
1334:Drivers/STM32WBxx_HAL_Driver/Inc/stm32wbxx_ll_system.h ****   *         @arg @ref LL_C2_SYSCFG_GRP2_DMA1CH4
1335:Drivers/STM32WBxx_HAL_Driver/Inc/stm32wbxx_ll_system.h ****   *         @arg @ref LL_C2_SYSCFG_GRP2_DMA1CH5
1336:Drivers/STM32WBxx_HAL_Driver/Inc/stm32wbxx_ll_system.h ****   *         @arg @ref LL_C2_SYSCFG_GRP2_DMA1CH6
1337:Drivers/STM32WBxx_HAL_Driver/Inc/stm32wbxx_ll_system.h ****   *         @arg @ref LL_C2_SYSCFG_GRP2_DMA1CH7
1338:Drivers/STM32WBxx_HAL_Driver/Inc/stm32wbxx_ll_system.h ****   *         @arg @ref LL_C2_SYSCFG_GRP2_DMA2CH1
1339:Drivers/STM32WBxx_HAL_Driver/Inc/stm32wbxx_ll_system.h ****   *         @arg @ref LL_C2_SYSCFG_GRP2_DMA2CH2
1340:Drivers/STM32WBxx_HAL_Driver/Inc/stm32wbxx_ll_system.h ****   *         @arg @ref LL_C2_SYSCFG_GRP2_DMA2CH3
1341:Drivers/STM32WBxx_HAL_Driver/Inc/stm32wbxx_ll_system.h ****   *         @arg @ref LL_C2_SYSCFG_GRP2_DMA2CH4
1342:Drivers/STM32WBxx_HAL_Driver/Inc/stm32wbxx_ll_system.h ****   *         @arg @ref LL_C2_SYSCFG_GRP2_DMA2CH5
1343:Drivers/STM32WBxx_HAL_Driver/Inc/stm32wbxx_ll_system.h ****   *         @arg @ref LL_C2_SYSCFG_GRP2_DMA2CH6
1344:Drivers/STM32WBxx_HAL_Driver/Inc/stm32wbxx_ll_system.h ****   *         @arg @ref LL_C2_SYSCFG_GRP2_DMA2CH7
1345:Drivers/STM32WBxx_HAL_Driver/Inc/stm32wbxx_ll_system.h ****   *         @arg @ref LL_C2_SYSCFG_GRP2_DMAMUX1
1346:Drivers/STM32WBxx_HAL_Driver/Inc/stm32wbxx_ll_system.h ****   *         @arg @ref LL_C2_SYSCFG_GRP2_PVM1
1347:Drivers/STM32WBxx_HAL_Driver/Inc/stm32wbxx_ll_system.h ****   *         @arg @ref LL_C2_SYSCFG_GRP2_PVM3
1348:Drivers/STM32WBxx_HAL_Driver/Inc/stm32wbxx_ll_system.h ****   *         @arg @ref LL_C2_SYSCFG_GRP2_PVD
1349:Drivers/STM32WBxx_HAL_Driver/Inc/stm32wbxx_ll_system.h ****   *         @arg @ref LL_C2_SYSCFG_GRP2_TSC
1350:Drivers/STM32WBxx_HAL_Driver/Inc/stm32wbxx_ll_system.h ****   *         @arg @ref LL_C2_SYSCFG_GRP2_LCD
1351:Drivers/STM32WBxx_HAL_Driver/Inc/stm32wbxx_ll_system.h ****   * @retval None
1352:Drivers/STM32WBxx_HAL_Driver/Inc/stm32wbxx_ll_system.h ****   */
1353:Drivers/STM32WBxx_HAL_Driver/Inc/stm32wbxx_ll_system.h **** __STATIC_INLINE void LL_C2_SYSCFG_GRP2_DisableIT(uint32_t Interrupt)
1354:Drivers/STM32WBxx_HAL_Driver/Inc/stm32wbxx_ll_system.h **** {
1355:Drivers/STM32WBxx_HAL_Driver/Inc/stm32wbxx_ll_system.h ****   SET_BIT(SYSCFG->C2IMR2, Interrupt);
1356:Drivers/STM32WBxx_HAL_Driver/Inc/stm32wbxx_ll_system.h **** }
1357:Drivers/STM32WBxx_HAL_Driver/Inc/stm32wbxx_ll_system.h **** 
1358:Drivers/STM32WBxx_HAL_Driver/Inc/stm32wbxx_ll_system.h **** /**
1359:Drivers/STM32WBxx_HAL_Driver/Inc/stm32wbxx_ll_system.h ****   * @brief  Indicate if CPU2 Interrupt Mask is enabled
1360:Drivers/STM32WBxx_HAL_Driver/Inc/stm32wbxx_ll_system.h ****   * @rmtoll SYSCFG_C2IMR1  RTCSTAMPTAMPLSECSSIM      LL_C2_SYSCFG_GRP1_EnableIT\n
1361:Drivers/STM32WBxx_HAL_Driver/Inc/stm32wbxx_ll_system.h ****   *         SYSCFG_C2IMR1  RTCWKUPIM   LL_C2_SYSCFG_GRP1_IsEnabledIT\n
1362:Drivers/STM32WBxx_HAL_Driver/Inc/stm32wbxx_ll_system.h ****   *         SYSCFG_C2IMR1  RTCALARMIM  LL_C2_SYSCFG_GRP1_IsEnabledIT\n
1363:Drivers/STM32WBxx_HAL_Driver/Inc/stm32wbxx_ll_system.h ****   *         SYSCFG_C2IMR1  RCCIM       LL_C2_SYSCFG_GRP1_IsEnabledIT\n
1364:Drivers/STM32WBxx_HAL_Driver/Inc/stm32wbxx_ll_system.h ****   *         SYSCFG_C2IMR1  FLASHIM     LL_C2_SYSCFG_GRP1_IsEnabledIT\n
1365:Drivers/STM32WBxx_HAL_Driver/Inc/stm32wbxx_ll_system.h ****   *         SYSCFG_C2IMR1  PKAIM       LL_C2_SYSCFG_GRP1_IsEnabledIT\n
1366:Drivers/STM32WBxx_HAL_Driver/Inc/stm32wbxx_ll_system.h ****   *         SYSCFG_C2IMR1  RNGIM       LL_C2_SYSCFG_GRP1_IsEnabledIT\n
1367:Drivers/STM32WBxx_HAL_Driver/Inc/stm32wbxx_ll_system.h ****   *         SYSCFG_C2IMR1  AES1IM      LL_C2_SYSCFG_GRP1_IsEnabledIT\n
1368:Drivers/STM32WBxx_HAL_Driver/Inc/stm32wbxx_ll_system.h ****   *         SYSCFG_C2IMR1  COMPIM      LL_C2_SYSCFG_GRP1_IsEnabledIT\n
1369:Drivers/STM32WBxx_HAL_Driver/Inc/stm32wbxx_ll_system.h ****   *         SYSCFG_C2IMR1  ADCIM       LL_C2_SYSCFG_GRP1_IsEnabledIT\n
1370:Drivers/STM32WBxx_HAL_Driver/Inc/stm32wbxx_ll_system.h ****   *         SYSCFG_C2IMR1  EXTIxIM     LL_C2_SYSCFG_GRP1_IsEnabledIT
1371:Drivers/STM32WBxx_HAL_Driver/Inc/stm32wbxx_ll_system.h ****   * @param  Interrupt This parameter can be one of the following values:
1372:Drivers/STM32WBxx_HAL_Driver/Inc/stm32wbxx_ll_system.h ****   *         @arg @ref LL_C2_SYSCFG_GRP1_RTCSTAMP_RTCTAMP_LSECSS
1373:Drivers/STM32WBxx_HAL_Driver/Inc/stm32wbxx_ll_system.h ****   *         @arg @ref LL_C2_SYSCFG_GRP1_RTCWKUP
1374:Drivers/STM32WBxx_HAL_Driver/Inc/stm32wbxx_ll_system.h ****   *         @arg @ref LL_C2_SYSCFG_GRP1_RTCALARM
1375:Drivers/STM32WBxx_HAL_Driver/Inc/stm32wbxx_ll_system.h ****   *         @arg @ref LL_C2_SYSCFG_GRP1_RCC
1376:Drivers/STM32WBxx_HAL_Driver/Inc/stm32wbxx_ll_system.h ****   *         @arg @ref LL_C2_SYSCFG_GRP1_FLASH
1377:Drivers/STM32WBxx_HAL_Driver/Inc/stm32wbxx_ll_system.h ****   *         @arg @ref LL_C2_SYSCFG_GRP1_PKA
1378:Drivers/STM32WBxx_HAL_Driver/Inc/stm32wbxx_ll_system.h ****   *         @arg @ref LL_C2_SYSCFG_GRP1_RNG
1379:Drivers/STM32WBxx_HAL_Driver/Inc/stm32wbxx_ll_system.h ****   *         @arg @ref LL_C2_SYSCFG_GRP1_AES1
1380:Drivers/STM32WBxx_HAL_Driver/Inc/stm32wbxx_ll_system.h ****   *         @arg @ref LL_C2_SYSCFG_GRP1_COMP
1381:Drivers/STM32WBxx_HAL_Driver/Inc/stm32wbxx_ll_system.h ****   *         @arg @ref LL_C2_SYSCFG_GRP1_ADC
1382:Drivers/STM32WBxx_HAL_Driver/Inc/stm32wbxx_ll_system.h ****   *         @arg @ref LL_C2_SYSCFG_GRP1_EXTI0
1383:Drivers/STM32WBxx_HAL_Driver/Inc/stm32wbxx_ll_system.h ****   *         @arg @ref LL_C2_SYSCFG_GRP1_EXTI1
1384:Drivers/STM32WBxx_HAL_Driver/Inc/stm32wbxx_ll_system.h ****   *         @arg @ref LL_C2_SYSCFG_GRP1_EXTI2
ARM GAS  C:\Users\Nathan\AppData\Local\Temp\ccVM5ua8.s 			page 52


1385:Drivers/STM32WBxx_HAL_Driver/Inc/stm32wbxx_ll_system.h ****   *         @arg @ref LL_C2_SYSCFG_GRP1_EXTI3
1386:Drivers/STM32WBxx_HAL_Driver/Inc/stm32wbxx_ll_system.h ****   *         @arg @ref LL_C2_SYSCFG_GRP1_EXTI4
1387:Drivers/STM32WBxx_HAL_Driver/Inc/stm32wbxx_ll_system.h ****   *         @arg @ref LL_C2_SYSCFG_GRP1_EXTI5
1388:Drivers/STM32WBxx_HAL_Driver/Inc/stm32wbxx_ll_system.h ****   *         @arg @ref LL_C2_SYSCFG_GRP1_EXTI6
1389:Drivers/STM32WBxx_HAL_Driver/Inc/stm32wbxx_ll_system.h ****   *         @arg @ref LL_C2_SYSCFG_GRP1_EXTI7
1390:Drivers/STM32WBxx_HAL_Driver/Inc/stm32wbxx_ll_system.h ****   *         @arg @ref LL_C2_SYSCFG_GRP1_EXTI8
1391:Drivers/STM32WBxx_HAL_Driver/Inc/stm32wbxx_ll_system.h ****   *         @arg @ref LL_C2_SYSCFG_GRP1_EXTI9
1392:Drivers/STM32WBxx_HAL_Driver/Inc/stm32wbxx_ll_system.h ****   *         @arg @ref LL_C2_SYSCFG_GRP1_EXTI10
