ARM GAS  C:\Users\Nathan\AppData\Local\Temp\cce5o93m.s 			page 1


   1              		.cpu cortex-m4
   2              		.arch armv7e-m
   3              		.fpu fpv4-sp-d16
   4              		.eabi_attribute 27, 1
   5              		.eabi_attribute 28, 1
   6              		.eabi_attribute 20, 1
   7              		.eabi_attribute 21, 1
   8              		.eabi_attribute 23, 3
   9              		.eabi_attribute 24, 1
  10              		.eabi_attribute 25, 1
  11              		.eabi_attribute 26, 1
  12              		.eabi_attribute 30, 1
  13              		.eabi_attribute 34, 1
  14              		.eabi_attribute 18, 4
  15              		.file	"linea_math.c"
  16              		.text
  17              	.Ltext0:
  18              		.cfi_sections	.debug_frame
  19              		.file 1 "linea/src/linea_math.c"
  20              		.section	.text.linea_sin,"ax",%progbits
  21              		.align	1
  22              		.global	linea_sin
  23              		.syntax unified
  24              		.thumb
  25              		.thumb_func
  27              	linea_sin:
  28              	.LVL0:
  29              	.LFB0:
   1:linea/src/linea_math.c **** /*
   2:linea/src/linea_math.c **** * Project Linea
   3:linea/src/linea_math.c **** * Copyright (C) 2024 Anhang Li (thelithcore@gmail.com)
   4:linea/src/linea_math.c **** * Adapted for STM32WB55 by Nathan
   5:linea/src/linea_math.c **** *
   6:linea/src/linea_math.c **** * This program is free software: you can redistribute it and/or modify
   7:linea/src/linea_math.c **** * it under the terms of the GNU General Public License as published by
   8:linea/src/linea_math.c **** * the Free Software Foundation, either version 3 of the License, or
   9:linea/src/linea_math.c **** * (at your option) any later version.
  10:linea/src/linea_math.c **** *
  11:linea/src/linea_math.c **** * This program is distributed in the hope that it will be useful,
  12:linea/src/linea_math.c **** * but WITHOUT ANY WARRANTY; without even the implied warranty of
  13:linea/src/linea_math.c **** * MERCHANTABILITY or FITNESS FOR A PARTICULAR PURPOSE.  See the
  14:linea/src/linea_math.c **** * GNU General Public License for more details.
  15:linea/src/linea_math.c **** *
  16:linea/src/linea_math.c **** * You should have received a copy of the GNU General Public License
  17:linea/src/linea_math.c **** * along with this program.  If not, see <http://www.gnu.org/licenses/>.
  18:linea/src/linea_math.c **** */
  19:linea/src/linea_math.c **** 
  20:linea/src/linea_math.c **** #include "linea_math.h"
  21:linea/src/linea_math.c **** #include <string.h>
  22:linea/src/linea_math.c **** #include <stdlib.h>
  23:linea/src/linea_math.c **** 
  24:linea/src/linea_math.c **** // Mathematical functions - mostly wrappers around standard math library
  25:linea/src/linea_math.c **** float linea_sin(float x) { return sinf(x); }
  30              		.loc 1 25 26 view -0
  31              		.cfi_startproc
  32              		@ args = 0, pretend = 0, frame = 0
  33              		@ frame_needed = 0, uses_anonymous_args = 0
ARM GAS  C:\Users\Nathan\AppData\Local\Temp\cce5o93m.s 			page 2


  34              		.loc 1 25 26 is_stmt 0 view .LVU1
  35 0000 08B5     		push	{r3, lr}
  36              		.cfi_def_cfa_offset 8
  37              		.cfi_offset 3, -8
  38              		.cfi_offset 14, -4
  39              		.loc 1 25 28 is_stmt 1 view .LVU2
  40              		.loc 1 25 35 is_stmt 0 view .LVU3
  41 0002 FFF7FEFF 		bl	sinf
  42              	.LVL1:
  43              		.loc 1 25 44 view .LVU4
  44 0006 08BD     		pop	{r3, pc}
  45              		.cfi_endproc
  46              	.LFE0:
  48              		.section	.text.linea_cos,"ax",%progbits
  49              		.align	1
  50              		.global	linea_cos
  51              		.syntax unified
  52              		.thumb
  53              		.thumb_func
  55              	linea_cos:
  56              	.LVL2:
  57              	.LFB1:
  26:linea/src/linea_math.c **** float linea_cos(float x) { return cosf(x); }
  58              		.loc 1 26 26 is_stmt 1 view -0
  59              		.cfi_startproc
  60              		@ args = 0, pretend = 0, frame = 0
  61              		@ frame_needed = 0, uses_anonymous_args = 0
  62              		.loc 1 26 26 is_stmt 0 view .LVU6
  63 0000 08B5     		push	{r3, lr}
  64              		.cfi_def_cfa_offset 8
  65              		.cfi_offset 3, -8
  66              		.cfi_offset 14, -4
  67              		.loc 1 26 28 is_stmt 1 view .LVU7
  68              		.loc 1 26 35 is_stmt 0 view .LVU8
  69 0002 FFF7FEFF 		bl	cosf
  70              	.LVL3:
  71              		.loc 1 26 44 view .LVU9
  72 0006 08BD     		pop	{r3, pc}
  73              		.cfi_endproc
  74              	.LFE1:
  76              		.section	.text.linea_tan,"ax",%progbits
  77              		.align	1
  78              		.global	linea_tan
  79              		.syntax unified
  80              		.thumb
  81              		.thumb_func
  83              	linea_tan:
  84              	.LVL4:
  85              	.LFB2:
  27:linea/src/linea_math.c **** float linea_tan(float x) { return tanf(x); }
  86              		.loc 1 27 26 is_stmt 1 view -0
  87              		.cfi_startproc
  88              		@ args = 0, pretend = 0, frame = 0
  89              		@ frame_needed = 0, uses_anonymous_args = 0
  90              		.loc 1 27 26 is_stmt 0 view .LVU11
  91 0000 08B5     		push	{r3, lr}
  92              		.cfi_def_cfa_offset 8
ARM GAS  C:\Users\Nathan\AppData\Local\Temp\cce5o93m.s 			page 3


  93              		.cfi_offset 3, -8
  94              		.cfi_offset 14, -4
  95              		.loc 1 27 28 is_stmt 1 view .LVU12
  96              		.loc 1 27 35 is_stmt 0 view .LVU13
  97 0002 FFF7FEFF 		bl	tanf
  98              	.LVL5:
  99              		.loc 1 27 44 view .LVU14
 100 0006 08BD     		pop	{r3, pc}
 101              		.cfi_endproc
 102              	.LFE2:
 104              		.section	.text.linea_asin,"ax",%progbits
 105              		.align	1
 106              		.global	linea_asin
 107              		.syntax unified
 108              		.thumb
 109              		.thumb_func
 111              	linea_asin:
 112              	.LVL6:
 113              	.LFB3:
  28:linea/src/linea_math.c **** float linea_asin(float x) { return asinf(x); }
 114              		.loc 1 28 27 is_stmt 1 view -0
 115              		.cfi_startproc
 116              		@ args = 0, pretend = 0, frame = 0
 117              		@ frame_needed = 0, uses_anonymous_args = 0
 118              		.loc 1 28 27 is_stmt 0 view .LVU16
 119 0000 08B5     		push	{r3, lr}
 120              		.cfi_def_cfa_offset 8
 121              		.cfi_offset 3, -8
 122              		.cfi_offset 14, -4
 123              		.loc 1 28 29 is_stmt 1 view .LVU17
 124              		.loc 1 28 36 is_stmt 0 view .LVU18
 125 0002 FFF7FEFF 		bl	asinf
 126              	.LVL7:
 127              		.loc 1 28 46 view .LVU19
 128 0006 08BD     		pop	{r3, pc}
 129              		.cfi_endproc
 130              	.LFE3:
 132              		.section	.text.linea_acos,"ax",%progbits
 133              		.align	1
 134              		.global	linea_acos
 135              		.syntax unified
 136              		.thumb
 137              		.thumb_func
 139              	linea_acos:
 140              	.LVL8:
 141              	.LFB4:
  29:linea/src/linea_math.c **** float linea_acos(float x) { return acosf(x); }
 142              		.loc 1 29 27 is_stmt 1 view -0
 143              		.cfi_startproc
 144              		@ args = 0, pretend = 0, frame = 0
 145              		@ frame_needed = 0, uses_anonymous_args = 0
 146              		.loc 1 29 27 is_stmt 0 view .LVU21
 147 0000 08B5     		push	{r3, lr}
 148              		.cfi_def_cfa_offset 8
 149              		.cfi_offset 3, -8
 150              		.cfi_offset 14, -4
 151              		.loc 1 29 29 is_stmt 1 view .LVU22
ARM GAS  C:\Users\Nathan\AppData\Local\Temp\cce5o93m.s 			page 4


 152              		.loc 1 29 36 is_stmt 0 view .LVU23
 153 0002 FFF7FEFF 		bl	acosf
 154              	.LVL9:
 155              		.loc 1 29 46 view .LVU24
 156 0006 08BD     		pop	{r3, pc}
 157              		.cfi_endproc
 158              	.LFE4:
 160              		.section	.text.linea_atan,"ax",%progbits
 161              		.align	1
 162              		.global	linea_atan
 163              		.syntax unified
 164              		.thumb
 165              		.thumb_func
 167              	linea_atan:
 168              	.LVL10:
 169              	.LFB5:
  30:linea/src/linea_math.c **** float linea_atan(float x) { return atanf(x); }
 170              		.loc 1 30 27 is_stmt 1 view -0
 171              		.cfi_startproc
 172              		@ args = 0, pretend = 0, frame = 0
 173              		@ frame_needed = 0, uses_anonymous_args = 0
 174              		.loc 1 30 27 is_stmt 0 view .LVU26
 175 0000 08B5     		push	{r3, lr}
 176              		.cfi_def_cfa_offset 8
 177              		.cfi_offset 3, -8
 178              		.cfi_offset 14, -4
 179              		.loc 1 30 29 is_stmt 1 view .LVU27
 180              		.loc 1 30 36 is_stmt 0 view .LVU28
 181 0002 FFF7FEFF 		bl	atanf
 182              	.LVL11:
 183              		.loc 1 30 46 view .LVU29
 184 0006 08BD     		pop	{r3, pc}
 185              		.cfi_endproc
 186              	.LFE5:
 188              		.section	.text.linea_atan2,"ax",%progbits
 189              		.align	1
 190              		.global	linea_atan2
 191              		.syntax unified
 192              		.thumb
 193              		.thumb_func
 195              	linea_atan2:
 196              	.LVL12:
 197              	.LFB6:
  31:linea/src/linea_math.c **** float linea_atan2(float y, float x) { return atan2f(y, x); }
 198              		.loc 1 31 37 is_stmt 1 view -0
 199              		.cfi_startproc
 200              		@ args = 0, pretend = 0, frame = 0
 201              		@ frame_needed = 0, uses_anonymous_args = 0
 202              		.loc 1 31 37 is_stmt 0 view .LVU31
 203 0000 08B5     		push	{r3, lr}
 204              		.cfi_def_cfa_offset 8
 205              		.cfi_offset 3, -8
 206              		.cfi_offset 14, -4
 207              		.loc 1 31 39 is_stmt 1 view .LVU32
 208              		.loc 1 31 46 is_stmt 0 view .LVU33
 209 0002 FFF7FEFF 		bl	atan2f
 210              	.LVL13:
ARM GAS  C:\Users\Nathan\AppData\Local\Temp\cce5o93m.s 			page 5


 211              		.loc 1 31 60 view .LVU34
 212 0006 08BD     		pop	{r3, pc}
 213              		.cfi_endproc
 214              	.LFE6:
 216              		.section	.text.linea_sqrt,"ax",%progbits
 217              		.align	1
 218              		.global	linea_sqrt
 219              		.syntax unified
 220              		.thumb
 221              		.thumb_func
 223              	linea_sqrt:
 224              	.LVL14:
 225              	.LFB7:
  32:linea/src/linea_math.c **** float linea_sqrt(float x) { return sqrtf(x); }
 226              		.loc 1 32 27 is_stmt 1 view -0
 227              		.cfi_startproc
 228              		@ args = 0, pretend = 0, frame = 0
 229              		@ frame_needed = 0, uses_anonymous_args = 0
 230              		.loc 1 32 27 is_stmt 0 view .LVU36
 231 0000 08B5     		push	{r3, lr}
 232              		.cfi_def_cfa_offset 8
 233              		.cfi_offset 3, -8
 234              		.cfi_offset 14, -4
 235              		.loc 1 32 29 is_stmt 1 view .LVU37
 236              		.loc 1 32 36 is_stmt 0 view .LVU38
 237 0002 FFF7FEFF 		bl	sqrtf
 238              	.LVL15:
 239              		.loc 1 32 46 view .LVU39
 240 0006 08BD     		pop	{r3, pc}
 241              		.cfi_endproc
 242              	.LFE7:
 244              		.section	.text.linea_pow,"ax",%progbits
 245              		.align	1
 246              		.global	linea_pow
 247              		.syntax unified
 248              		.thumb
 249              		.thumb_func
 251              	linea_pow:
 252              	.LVL16:
 253              	.LFB8:
  33:linea/src/linea_math.c **** float linea_pow(float x, float y) { return powf(x, y); }
 254              		.loc 1 33 35 is_stmt 1 view -0
 255              		.cfi_startproc
 256              		@ args = 0, pretend = 0, frame = 0
 257              		@ frame_needed = 0, uses_anonymous_args = 0
 258              		.loc 1 33 35 is_stmt 0 view .LVU41
 259 0000 08B5     		push	{r3, lr}
 260              		.cfi_def_cfa_offset 8
 261              		.cfi_offset 3, -8
 262              		.cfi_offset 14, -4
 263              		.loc 1 33 37 is_stmt 1 view .LVU42
 264              		.loc 1 33 44 is_stmt 0 view .LVU43
 265 0002 FFF7FEFF 		bl	powf
 266              	.LVL17:
 267              		.loc 1 33 56 view .LVU44
 268 0006 08BD     		pop	{r3, pc}
 269              		.cfi_endproc
ARM GAS  C:\Users\Nathan\AppData\Local\Temp\cce5o93m.s 			page 6


 270              	.LFE8:
 272              		.section	.text.linea_exp,"ax",%progbits
 273              		.align	1
 274              		.global	linea_exp
 275              		.syntax unified
 276              		.thumb
 277              		.thumb_func
 279              	linea_exp:
 280              	.LVL18:
 281              	.LFB9:
  34:linea/src/linea_math.c **** float linea_exp(float x) { return expf(x); }
 282              		.loc 1 34 26 is_stmt 1 view -0
 283              		.cfi_startproc
 284              		@ args = 0, pretend = 0, frame = 0
 285              		@ frame_needed = 0, uses_anonymous_args = 0
 286              		.loc 1 34 26 is_stmt 0 view .LVU46
 287 0000 08B5     		push	{r3, lr}
 288              		.cfi_def_cfa_offset 8
 289              		.cfi_offset 3, -8
 290              		.cfi_offset 14, -4
 291              		.loc 1 34 28 is_stmt 1 view .LVU47
 292              		.loc 1 34 35 is_stmt 0 view .LVU48
 293 0002 FFF7FEFF 		bl	expf
 294              	.LVL19:
 295              		.loc 1 34 44 view .LVU49
 296 0006 08BD     		pop	{r3, pc}
 297              		.cfi_endproc
 298              	.LFE9:
 300              		.section	.text.linea_log,"ax",%progbits
 301              		.align	1
 302              		.global	linea_log
 303              		.syntax unified
 304              		.thumb
 305              		.thumb_func
 307              	linea_log:
 308              	.LVL20:
 309              	.LFB10:
  35:linea/src/linea_math.c **** float linea_log(float x) { return logf(x); }
 310              		.loc 1 35 26 is_stmt 1 view -0
 311              		.cfi_startproc
 312              		@ args = 0, pretend = 0, frame = 0
 313              		@ frame_needed = 0, uses_anonymous_args = 0
 314              		.loc 1 35 26 is_stmt 0 view .LVU51
 315 0000 08B5     		push	{r3, lr}
 316              		.cfi_def_cfa_offset 8
 317              		.cfi_offset 3, -8
 318              		.cfi_offset 14, -4
 319              		.loc 1 35 28 is_stmt 1 view .LVU52
 320              		.loc 1 35 35 is_stmt 0 view .LVU53
 321 0002 FFF7FEFF 		bl	logf
 322              	.LVL21:
 323              		.loc 1 35 44 view .LVU54
 324 0006 08BD     		pop	{r3, pc}
 325              		.cfi_endproc
 326              	.LFE10:
 328              		.section	.text.linea_log10,"ax",%progbits
 329              		.align	1
ARM GAS  C:\Users\Nathan\AppData\Local\Temp\cce5o93m.s 			page 7


 330              		.global	linea_log10
 331              		.syntax unified
 332              		.thumb
 333              		.thumb_func
 335              	linea_log10:
 336              	.LVL22:
 337              	.LFB11:
  36:linea/src/linea_math.c **** float linea_log10(float x) { return log10f(x); }
 338              		.loc 1 36 28 is_stmt 1 view -0
 339              		.cfi_startproc
 340              		@ args = 0, pretend = 0, frame = 0
 341              		@ frame_needed = 0, uses_anonymous_args = 0
 342              		.loc 1 36 28 is_stmt 0 view .LVU56
 343 0000 08B5     		push	{r3, lr}
 344              		.cfi_def_cfa_offset 8
 345              		.cfi_offset 3, -8
 346              		.cfi_offset 14, -4
 347              		.loc 1 36 30 is_stmt 1 view .LVU57
 348              		.loc 1 36 37 is_stmt 0 view .LVU58
 349 0002 FFF7FEFF 		bl	log10f
 350              	.LVL23:
 351              		.loc 1 36 48 view .LVU59
 352 0006 08BD     		pop	{r3, pc}
 353              		.cfi_endproc
 354              	.LFE11:
 356              		.section	.text.linea_abs,"ax",%progbits
 357              		.align	1
 358              		.global	linea_abs
 359              		.syntax unified
 360              		.thumb
 361              		.thumb_func
 363              	linea_abs:
 364              	.LVL24:
 365              	.LFB12:
  37:linea/src/linea_math.c **** float linea_abs(float x) { return fabsf(x); }
 366              		.loc 1 37 26 is_stmt 1 view -0
 367              		.cfi_startproc
 368              		@ args = 0, pretend = 0, frame = 0
 369              		@ frame_needed = 0, uses_anonymous_args = 0
 370              		@ link register save eliminated.
 371              		.loc 1 37 28 view .LVU61
 372              		.loc 1 37 45 is_stmt 0 view .LVU62
 373 0000 B0EEC00A 		vabs.f32	s0, s0
 374              	.LVL25:
 375              		.loc 1 37 45 view .LVU63
 376 0004 7047     		bx	lr
 377              		.cfi_endproc
 378              	.LFE12:
 380              		.section	.text.linea_floor,"ax",%progbits
 381              		.align	1
 382              		.global	linea_floor
 383              		.syntax unified
 384              		.thumb
 385              		.thumb_func
 387              	linea_floor:
 388              	.LVL26:
 389              	.LFB13:
ARM GAS  C:\Users\Nathan\AppData\Local\Temp\cce5o93m.s 			page 8


  38:linea/src/linea_math.c **** float linea_floor(float x) { return floorf(x); }
 390              		.loc 1 38 28 is_stmt 1 view -0
 391              		.cfi_startproc
 392              		@ args = 0, pretend = 0, frame = 0
 393              		@ frame_needed = 0, uses_anonymous_args = 0
 394              		.loc 1 38 28 is_stmt 0 view .LVU65
 395 0000 08B5     		push	{r3, lr}
 396              		.cfi_def_cfa_offset 8
 397              		.cfi_offset 3, -8
 398              		.cfi_offset 14, -4
 399              		.loc 1 38 30 is_stmt 1 view .LVU66
 400              		.loc 1 38 37 is_stmt 0 view .LVU67
 401 0002 FFF7FEFF 		bl	floorf
 402              	.LVL27:
 403              		.loc 1 38 48 view .LVU68
 404 0006 08BD     		pop	{r3, pc}
 405              		.cfi_endproc
 406              	.LFE13:
 408              		.section	.text.linea_ceil,"ax",%progbits
 409              		.align	1
 410              		.global	linea_ceil
 411              		.syntax unified
 412              		.thumb
 413              		.thumb_func
 415              	linea_ceil:
 416              	.LVL28:
 417              	.LFB14:
  39:linea/src/linea_math.c **** float linea_ceil(float x) { return ceilf(x); }
 418              		.loc 1 39 27 is_stmt 1 view -0
 419              		.cfi_startproc
 420              		@ args = 0, pretend = 0, frame = 0
 421              		@ frame_needed = 0, uses_anonymous_args = 0
 422              		.loc 1 39 27 is_stmt 0 view .LVU70
 423 0000 08B5     		push	{r3, lr}
 424              		.cfi_def_cfa_offset 8
 425              		.cfi_offset 3, -8
 426              		.cfi_offset 14, -4
 427              		.loc 1 39 29 is_stmt 1 view .LVU71
 428              		.loc 1 39 36 is_stmt 0 view .LVU72
 429 0002 FFF7FEFF 		bl	ceilf
 430              	.LVL29:
 431              		.loc 1 39 46 view .LVU73
 432 0006 08BD     		pop	{r3, pc}
 433              		.cfi_endproc
 434              	.LFE14:
 436              		.section	.text.linea_round,"ax",%progbits
 437              		.align	1
 438              		.global	linea_round
 439              		.syntax unified
 440              		.thumb
 441              		.thumb_func
 443              	linea_round:
 444              	.LVL30:
 445              	.LFB15:
  40:linea/src/linea_math.c **** float linea_round(float x) { return roundf(x); }
 446              		.loc 1 40 28 is_stmt 1 view -0
 447              		.cfi_startproc
ARM GAS  C:\Users\Nathan\AppData\Local\Temp\cce5o93m.s 			page 9


 448              		@ args = 0, pretend = 0, frame = 0
 449              		@ frame_needed = 0, uses_anonymous_args = 0
 450              		.loc 1 40 28 is_stmt 0 view .LVU75
 451 0000 08B5     		push	{r3, lr}
 452              		.cfi_def_cfa_offset 8
 453              		.cfi_offset 3, -8
 454              		.cfi_offset 14, -4
 455              		.loc 1 40 30 is_stmt 1 view .LVU76
 456              		.loc 1 40 37 is_stmt 0 view .LVU77
 457 0002 FFF7FEFF 		bl	roundf
 458              	.LVL31:
 459              		.loc 1 40 48 view .LVU78
 460 0006 08BD     		pop	{r3, pc}
 461              		.cfi_endproc
 462              	.LFE15:
 464              		.section	.text.linea_fmod,"ax",%progbits
 465              		.align	1
 466              		.global	linea_fmod
 467              		.syntax unified
 468              		.thumb
 469              		.thumb_func
 471              	linea_fmod:
 472              	.LVL32:
 473              	.LFB16:
  41:linea/src/linea_math.c **** float linea_fmod(float x, float y) { return fmodf(x, y); }
 474              		.loc 1 41 36 is_stmt 1 view -0
 475              		.cfi_startproc
 476              		@ args = 0, pretend = 0, frame = 0
 477              		@ frame_needed = 0, uses_anonymous_args = 0
 478              		.loc 1 41 36 is_stmt 0 view .LVU80
 479 0000 08B5     		push	{r3, lr}
 480              		.cfi_def_cfa_offset 8
 481              		.cfi_offset 3, -8
 482              		.cfi_offset 14, -4
 483              		.loc 1 41 38 is_stmt 1 view .LVU81
 484              		.loc 1 41 45 is_stmt 0 view .LVU82
 485 0002 FFF7FEFF 		bl	fmodf
 486              	.LVL33:
 487              		.loc 1 41 58 view .LVU83
 488 0006 08BD     		pop	{r3, pc}
 489              		.cfi_endproc
 490              	.LFE16:
 492              		.section	.text.linea_mean,"ax",%progbits
 493              		.align	1
 494              		.global	linea_mean
 495              		.syntax unified
 496              		.thumb
 497              		.thumb_func
 499              	linea_mean:
 500              	.LVL34:
 501              	.LFB17:
  42:linea/src/linea_math.c **** 
  43:linea/src/linea_math.c **** // Statistical functions
  44:linea/src/linea_math.c **** float linea_mean(float* data, uint16_t length) {
 502              		.loc 1 44 48 is_stmt 1 view -0
 503              		.cfi_startproc
 504              		@ args = 0, pretend = 0, frame = 0
ARM GAS  C:\Users\Nathan\AppData\Local\Temp\cce5o93m.s 			page 10


 505              		@ frame_needed = 0, uses_anonymous_args = 0
 506              		@ link register save eliminated.
  45:linea/src/linea_math.c ****     if (length == 0) return 0.0f;
 507              		.loc 1 45 5 view .LVU85
 508              		.loc 1 45 8 is_stmt 0 view .LVU86
 509 0000 8C46     		mov	ip, r1
 510 0002 A1B1     		cbz	r1, .L38
 511              	.LBB2:
  46:linea/src/linea_math.c ****     
  47:linea/src/linea_math.c ****     float sum = 0.0f;
  48:linea/src/linea_math.c ****     for (uint16_t i = 0; i < length; i++) {
 512              		.loc 1 48 19 view .LVU87
 513 0004 0023     		movs	r3, #0
 514              	.LBE2:
  47:linea/src/linea_math.c ****     for (uint16_t i = 0; i < length; i++) {
 515              		.loc 1 47 11 view .LVU88
 516 0006 DFED0B7A 		vldr.32	s15, .L39
 517 000a 07E0     		b	.L36
 518              	.LVL35:
 519              	.L37:
 520              	.LBB3:
  49:linea/src/linea_math.c ****         sum += data[i];
 521              		.loc 1 49 9 is_stmt 1 view .LVU89
 522              		.loc 1 49 20 is_stmt 0 view .LVU90
 523 000c 00EB8302 		add	r2, r0, r3, lsl #2
 524 0010 92ED007A 		vldr.32	s14, [r2]
 525              		.loc 1 49 13 view .LVU91
 526 0014 77EE877A 		vadd.f32	s15, s15, s14
 527              	.LVL36:
  48:linea/src/linea_math.c ****         sum += data[i];
 528              		.loc 1 48 39 is_stmt 1 discriminator 3 view .LVU92
 529 0018 0133     		adds	r3, r3, #1
 530              	.LVL37:
  48:linea/src/linea_math.c ****         sum += data[i];
 531              		.loc 1 48 39 is_stmt 0 discriminator 3 view .LVU93
 532 001a 9BB2     		uxth	r3, r3
 533              	.LVL38:
 534              	.L36:
  48:linea/src/linea_math.c ****         sum += data[i];
 535              		.loc 1 48 28 is_stmt 1 discriminator 1 view .LVU94
 536 001c 6345     		cmp	r3, ip
 537 001e F5D3     		bcc	.L37
 538              	.LBE3:
  50:linea/src/linea_math.c ****     }
  51:linea/src/linea_math.c ****     return sum / length;
 539              		.loc 1 51 5 view .LVU95
 540              		.loc 1 51 16 is_stmt 0 view .LVU96
 541 0020 07EE10CA 		vmov	s14, ip	@ int
 542 0024 B8EEC77A 		vcvt.f32.s32	s14, s14
 543 0028 87EE870A 		vdiv.f32	s0, s15, s14
 544 002c 7047     		bx	lr
 545              	.LVL39:
 546              	.L38:
  45:linea/src/linea_math.c ****     
 547              		.loc 1 45 29 discriminator 1 view .LVU97
 548 002e 9FED010A 		vldr.32	s0, .L39
  52:linea/src/linea_math.c **** }
ARM GAS  C:\Users\Nathan\AppData\Local\Temp\cce5o93m.s 			page 11


 549              		.loc 1 52 1 view .LVU98
 550 0032 7047     		bx	lr
 551              	.L40:
 552              		.align	2
 553              	.L39:
 554 0034 00000000 		.word	0
 555              		.cfi_endproc
 556              	.LFE17:
 558              		.section	.text.linea_variance,"ax",%progbits
 559              		.align	1
 560              		.global	linea_variance
 561              		.syntax unified
 562              		.thumb
 563              		.thumb_func
 565              	linea_variance:
 566              	.LVL40:
 567              	.LFB18:
  53:linea/src/linea_math.c **** 
  54:linea/src/linea_math.c **** float linea_variance(float* data, uint16_t length) {
 568              		.loc 1 54 52 is_stmt 1 view -0
 569              		.cfi_startproc
 570              		@ args = 0, pretend = 0, frame = 0
 571              		@ frame_needed = 0, uses_anonymous_args = 0
  55:linea/src/linea_math.c ****     if (length <= 1) return 0.0f;
 572              		.loc 1 55 5 view .LVU100
 573              		.loc 1 55 8 is_stmt 0 view .LVU101
 574 0000 0129     		cmp	r1, #1
 575 0002 1ED9     		bls	.L45
  54:linea/src/linea_math.c ****     if (length <= 1) return 0.0f;
 576              		.loc 1 54 52 view .LVU102
 577 0004 38B5     		push	{r3, r4, r5, lr}
 578              		.cfi_def_cfa_offset 16
 579              		.cfi_offset 3, -16
 580              		.cfi_offset 4, -12
 581              		.cfi_offset 5, -8
 582              		.cfi_offset 14, -4
 583 0006 0546     		mov	r5, r0
 584 0008 0C46     		mov	r4, r1
  56:linea/src/linea_math.c ****     
  57:linea/src/linea_math.c ****     float mean_val = linea_mean(data, length);
 585              		.loc 1 57 5 is_stmt 1 view .LVU103
 586              		.loc 1 57 22 is_stmt 0 view .LVU104
 587 000a FFF7FEFF 		bl	linea_mean
 588              	.LVL41:
  58:linea/src/linea_math.c ****     float sum_sq = 0.0f;
 589              		.loc 1 58 5 is_stmt 1 view .LVU105
  59:linea/src/linea_math.c ****     
  60:linea/src/linea_math.c ****     for (uint16_t i = 0; i < length; i++) {
 590              		.loc 1 60 5 view .LVU106
 591              	.LBB4:
 592              		.loc 1 60 10 view .LVU107
 593              		.loc 1 60 19 is_stmt 0 view .LVU108
 594 000e 0023     		movs	r3, #0
 595              	.LBE4:
  58:linea/src/linea_math.c ****     float sum_sq = 0.0f;
 596              		.loc 1 58 11 view .LVU109
 597 0010 9FED0D7A 		vldr.32	s14, .L50
ARM GAS  C:\Users\Nathan\AppData\Local\Temp\cce5o93m.s 			page 12


 598              	.LBB6:
 599              		.loc 1 60 5 view .LVU110
 600 0014 0BE0     		b	.L43
 601              	.LVL42:
 602              	.L44:
 603              	.LBB5:
  61:linea/src/linea_math.c ****         float diff = data[i] - mean_val;
 604              		.loc 1 61 9 is_stmt 1 view .LVU111
 605              		.loc 1 61 26 is_stmt 0 view .LVU112
 606 0016 05EB8302 		add	r2, r5, r3, lsl #2
 607 001a D2ED007A 		vldr.32	s15, [r2]
 608              		.loc 1 61 15 view .LVU113
 609 001e 77EEC07A 		vsub.f32	s15, s15, s0
 610              	.LVL43:
  62:linea/src/linea_math.c ****         sum_sq += diff * diff;
 611              		.loc 1 62 9 is_stmt 1 view .LVU114
 612              		.loc 1 62 24 is_stmt 0 view .LVU115
 613 0022 67EEA77A 		vmul.f32	s15, s15, s15
 614              	.LVL44:
 615              		.loc 1 62 16 view .LVU116
 616 0026 37EE277A 		vadd.f32	s14, s14, s15
 617              	.LVL45:
 618              		.loc 1 62 16 view .LVU117
 619              	.LBE5:
  60:linea/src/linea_math.c ****         float diff = data[i] - mean_val;
 620              		.loc 1 60 39 is_stmt 1 discriminator 3 view .LVU118
 621 002a 0133     		adds	r3, r3, #1
 622              	.LVL46:
  60:linea/src/linea_math.c ****         float diff = data[i] - mean_val;
 623              		.loc 1 60 39 is_stmt 0 discriminator 3 view .LVU119
 624 002c 9BB2     		uxth	r3, r3
 625              	.LVL47:
 626              	.L43:
  60:linea/src/linea_math.c ****         float diff = data[i] - mean_val;
 627              		.loc 1 60 28 is_stmt 1 discriminator 1 view .LVU120
 628 002e A342     		cmp	r3, r4
 629 0030 F1D3     		bcc	.L44
 630              	.LBE6:
  63:linea/src/linea_math.c ****     }
  64:linea/src/linea_math.c ****     
  65:linea/src/linea_math.c ****     return sum_sq / (length - 1);
 631              		.loc 1 65 5 view .LVU121
 632              		.loc 1 65 29 is_stmt 0 view .LVU122
 633 0032 013C     		subs	r4, r4, #1
 634              	.LVL48:
 635              		.loc 1 65 19 view .LVU123
 636 0034 07EE904A 		vmov	s15, r4	@ int
 637 0038 F8EEE77A 		vcvt.f32.s32	s15, s15
 638 003c 87EE270A 		vdiv.f32	s0, s14, s15
 639              	.LVL49:
  66:linea/src/linea_math.c **** }
 640              		.loc 1 66 1 view .LVU124
 641 0040 38BD     		pop	{r3, r4, r5, pc}
 642              	.LVL50:
 643              	.L45:
 644              		.cfi_def_cfa_offset 0
 645              		.cfi_restore 3
ARM GAS  C:\Users\Nathan\AppData\Local\Temp\cce5o93m.s 			page 13


 646              		.cfi_restore 4
 647              		.cfi_restore 5
 648              		.cfi_restore 14
  55:linea/src/linea_math.c ****     
 649              		.loc 1 55 29 discriminator 1 view .LVU125
 650 0042 9FED010A 		vldr.32	s0, .L50
 651              		.loc 1 66 1 view .LVU126
 652 0046 7047     		bx	lr
 653              	.L51:
 654              		.align	2
 655              	.L50:
 656 0048 00000000 		.word	0
 657              		.cfi_endproc
 658              	.LFE18:
 660              		.section	.text.linea_std,"ax",%progbits
 661              		.align	1
 662              		.global	linea_std
 663              		.syntax unified
 664              		.thumb
 665              		.thumb_func
 667              	linea_std:
 668              	.LVL51:
 669              	.LFB19:
  67:linea/src/linea_math.c **** 
  68:linea/src/linea_math.c **** float linea_std(float* data, uint16_t length) {
 670              		.loc 1 68 47 is_stmt 1 view -0
 671              		.cfi_startproc
 672              		@ args = 0, pretend = 0, frame = 0
 673              		@ frame_needed = 0, uses_anonymous_args = 0
 674              		.loc 1 68 47 is_stmt 0 view .LVU128
 675 0000 08B5     		push	{r3, lr}
 676              		.cfi_def_cfa_offset 8
 677              		.cfi_offset 3, -8
 678              		.cfi_offset 14, -4
  69:linea/src/linea_math.c ****     return sqrtf(linea_variance(data, length));
 679              		.loc 1 69 5 is_stmt 1 view .LVU129
 680              		.loc 1 69 12 is_stmt 0 view .LVU130
 681 0002 FFF7FEFF 		bl	linea_variance
 682              	.LVL52:
 683              		.loc 1 69 12 discriminator 1 view .LVU131
 684 0006 FFF7FEFF 		bl	sqrtf
 685              	.LVL53:
  70:linea/src/linea_math.c **** }
 686              		.loc 1 70 1 view .LVU132
 687 000a 08BD     		pop	{r3, pc}
 688              		.cfi_endproc
 689              	.LFE19:
 691              		.section	.text.linea_median,"ax",%progbits
 692              		.align	1
 693              		.global	linea_median
 694              		.syntax unified
 695              		.thumb
 696              		.thumb_func
 698              	linea_median:
 699              	.LVL54:
 700              	.LFB20:
  71:linea/src/linea_math.c **** 
ARM GAS  C:\Users\Nathan\AppData\Local\Temp\cce5o93m.s 			page 14


  72:linea/src/linea_math.c **** float linea_median(float* data, uint16_t length) {
 701              		.loc 1 72 50 is_stmt 1 view -0
 702              		.cfi_startproc
 703              		@ args = 0, pretend = 0, frame = 0
 704              		@ frame_needed = 0, uses_anonymous_args = 0
 705              		.loc 1 72 50 is_stmt 0 view .LVU134
 706 0000 F8B5     		push	{r3, r4, r5, r6, r7, lr}
 707              		.cfi_def_cfa_offset 24
 708              		.cfi_offset 3, -24
 709              		.cfi_offset 4, -20
 710              		.cfi_offset 5, -16
 711              		.cfi_offset 6, -12
 712              		.cfi_offset 7, -8
 713              		.cfi_offset 14, -4
 714 0002 2DED028B 		vpush.64	{d8}
 715              		.cfi_def_cfa_offset 32
 716              		.cfi_offset 80, -32
 717              		.cfi_offset 81, -28
  73:linea/src/linea_math.c ****     if (length == 0) return 0.0f;
 718              		.loc 1 73 5 is_stmt 1 view .LVU135
 719              		.loc 1 73 8 is_stmt 0 view .LVU136
 720 0006 0029     		cmp	r1, #0
 721 0008 5BD0     		beq	.L64
 722 000a 0646     		mov	r6, r0
 723 000c 0D46     		mov	r5, r1
  74:linea/src/linea_math.c ****     if (length == 1) return data[0];
 724              		.loc 1 74 5 is_stmt 1 view .LVU137
 725              		.loc 1 74 8 is_stmt 0 view .LVU138
 726 000e 0129     		cmp	r1, #1
 727 0010 0DD0     		beq	.L69
  75:linea/src/linea_math.c ****     
  76:linea/src/linea_math.c ****     // Create a copy to sort
  77:linea/src/linea_math.c ****     float* sorted = malloc(length * sizeof(float));
 728              		.loc 1 77 5 is_stmt 1 view .LVU139
 729              		.loc 1 77 21 is_stmt 0 view .LVU140
 730 0012 8F00     		lsls	r7, r1, #2
 731 0014 3846     		mov	r0, r7
 732              	.LVL55:
 733              		.loc 1 77 21 view .LVU141
 734 0016 FFF7FEFF 		bl	malloc
 735              	.LVL56:
  78:linea/src/linea_math.c ****     if (!sorted) return 0.0f;
 736              		.loc 1 78 5 is_stmt 1 view .LVU142
 737              		.loc 1 78 8 is_stmt 0 view .LVU143
 738 001a 0446     		mov	r4, r0
 739 001c 0028     		cmp	r0, #0
 740 001e 53D0     		beq	.L65
  79:linea/src/linea_math.c ****     
  80:linea/src/linea_math.c ****     memcpy(sorted, data, length * sizeof(float));
 741              		.loc 1 80 5 is_stmt 1 view .LVU144
 742 0020 3A46     		mov	r2, r7
 743 0022 3146     		mov	r1, r6
 744 0024 FFF7FEFF 		bl	memcpy
 745              	.LVL57:
  81:linea/src/linea_math.c ****     
  82:linea/src/linea_math.c ****     // Simple bubble sort (can be optimized for larger arrays)
  83:linea/src/linea_math.c ****     for (uint16_t i = 0; i < length - 1; i++) {
ARM GAS  C:\Users\Nathan\AppData\Local\Temp\cce5o93m.s 			page 15


 746              		.loc 1 83 5 view .LVU145
 747              	.LBB7:
 748              		.loc 1 83 10 view .LVU146
 749              		.loc 1 83 19 is_stmt 0 view .LVU147
 750 0028 4FF0000C 		mov	ip, #0
 751              		.loc 1 83 5 view .LVU148
 752 002c 1FE0     		b	.L57
 753              	.LVL58:
 754              	.L69:
 755              		.loc 1 83 5 view .LVU149
 756              	.LBE7:
  74:linea/src/linea_math.c ****     
 757              		.loc 1 74 22 is_stmt 1 discriminator 1 view .LVU150
  74:linea/src/linea_math.c ****     
 758              		.loc 1 74 33 is_stmt 0 discriminator 1 view .LVU151
 759 002e 90ED008A 		vldr.32	s16, [r0]
  74:linea/src/linea_math.c ****     
 760              		.loc 1 74 33 view .LVU152
 761 0032 3BE0     		b	.L54
 762              	.LVL59:
 763              	.L58:
 764              	.LBB11:
 765              	.LBB8:
  84:linea/src/linea_math.c ****         for (uint16_t j = 0; j < length - i - 1; j++) {
 766              		.loc 1 84 51 is_stmt 1 discriminator 2 view .LVU153
 767 0034 0133     		adds	r3, r3, #1
 768              	.LVL60:
 769              		.loc 1 84 51 is_stmt 0 discriminator 2 view .LVU154
 770 0036 9BB2     		uxth	r3, r3
 771              	.LVL61:
 772              	.L61:
 773              		.loc 1 84 32 is_stmt 1 discriminator 1 view .LVU155
 774              		.loc 1 84 41 is_stmt 0 discriminator 1 view .LVU156
 775 0038 2A1A     		subs	r2, r5, r0
 776              		.loc 1 84 45 discriminator 1 view .LVU157
 777 003a 013A     		subs	r2, r2, #1
 778              		.loc 1 84 32 discriminator 1 view .LVU158
 779 003c 9342     		cmp	r3, r2
 780 003e 12DA     		bge	.L70
  85:linea/src/linea_math.c ****             if (sorted[j] > sorted[j + 1]) {
 781              		.loc 1 85 13 is_stmt 1 view .LVU159
 782              		.loc 1 85 23 is_stmt 0 view .LVU160
 783 0040 04EB8301 		add	r1, r4, r3, lsl #2
 784 0044 D1ED007A 		vldr.32	s15, [r1]
 785              		.loc 1 85 35 view .LVU161
 786 0048 5A1C     		adds	r2, r3, #1
 787 004a 04EB8202 		add	r2, r4, r2, lsl #2
 788 004e 92ED007A 		vldr.32	s14, [r2]
 789              		.loc 1 85 16 view .LVU162
 790 0052 F4EEC77A 		vcmpe.f32	s15, s14
 791 0056 F1EE10FA 		vmrs	APSR_nzcv, FPSCR
 792 005a EBDD     		ble	.L58
 793              	.LBB9:
  86:linea/src/linea_math.c ****                 float temp = sorted[j];
 794              		.loc 1 86 17 is_stmt 1 view .LVU163
 795              	.LVL62:
  87:linea/src/linea_math.c ****                 sorted[j] = sorted[j + 1];
ARM GAS  C:\Users\Nathan\AppData\Local\Temp\cce5o93m.s 			page 16


 796              		.loc 1 87 17 view .LVU164
 797              		.loc 1 87 27 is_stmt 0 view .LVU165
 798 005c 81ED007A 		vstr.32	s14, [r1]
  88:linea/src/linea_math.c ****                 sorted[j + 1] = temp;
 799              		.loc 1 88 17 is_stmt 1 view .LVU166
 800              		.loc 1 88 31 is_stmt 0 view .LVU167
 801 0060 C2ED007A 		vstr.32	s15, [r2]
 802 0064 E6E7     		b	.L58
 803              	.LVL63:
 804              	.L70:
 805              		.loc 1 88 31 view .LVU168
 806              	.LBE9:
 807              	.LBE8:
  83:linea/src/linea_math.c ****         for (uint16_t j = 0; j < length - i - 1; j++) {
 808              		.loc 1 83 43 is_stmt 1 discriminator 2 view .LVU169
 809 0066 0CF1010C 		add	ip, ip, #1
 810              	.LVL64:
  83:linea/src/linea_math.c ****         for (uint16_t j = 0; j < length - i - 1; j++) {
 811              		.loc 1 83 43 is_stmt 0 discriminator 2 view .LVU170
 812 006a 1FFA8CFC 		uxth	ip, ip
 813              	.LVL65:
 814              	.L57:
  83:linea/src/linea_math.c ****         for (uint16_t j = 0; j < length - i - 1; j++) {
 815              		.loc 1 83 28 is_stmt 1 discriminator 1 view .LVU171
 816 006e 6046     		mov	r0, ip
  83:linea/src/linea_math.c ****         for (uint16_t j = 0; j < length - i - 1; j++) {
 817              		.loc 1 83 37 is_stmt 0 discriminator 1 view .LVU172
 818 0070 6B1E     		subs	r3, r5, #1
  83:linea/src/linea_math.c ****         for (uint16_t j = 0; j < length - i - 1; j++) {
 819              		.loc 1 83 28 discriminator 1 view .LVU173
 820 0072 9C45     		cmp	ip, r3
 821 0074 01DA     		bge	.L71
 822              	.LBB10:
  84:linea/src/linea_math.c ****             if (sorted[j] > sorted[j + 1]) {
 823              		.loc 1 84 23 view .LVU174
 824 0076 0023     		movs	r3, #0
 825 0078 DEE7     		b	.L61
 826              	.L71:
 827              	.LBE10:
 828              	.LBE11:
  89:linea/src/linea_math.c ****             }
  90:linea/src/linea_math.c ****         }
  91:linea/src/linea_math.c ****     }
  92:linea/src/linea_math.c ****     
  93:linea/src/linea_math.c ****     float result;
 829              		.loc 1 93 5 is_stmt 1 view .LVU175
  94:linea/src/linea_math.c ****     if (length % 2 == 0) {
 830              		.loc 1 94 5 view .LVU176
 831              		.loc 1 94 8 is_stmt 0 view .LVU177
 832 007a 15F0010F 		tst	r5, #1
 833 007e 1AD1     		bne	.L62
  95:linea/src/linea_math.c ****         result = (sorted[length/2 - 1] + sorted[length/2]) / 2.0f;
 834              		.loc 1 95 9 is_stmt 1 view .LVU178
 835              		.loc 1 95 25 is_stmt 0 view .LVU179
 836 0080 6A08     		lsrs	r2, r5, #1
 837 0082 6FF04043 		mvn	r3, #-1073741824
 838 0086 03EB5503 		add	r3, r3, r5, lsr #1
ARM GAS  C:\Users\Nathan\AppData\Local\Temp\cce5o93m.s 			page 17


 839 008a 04EB8303 		add	r3, r4, r3, lsl #2
 840 008e 93ED008A 		vldr.32	s16, [r3]
 841              		.loc 1 95 48 view .LVU180
 842 0092 04EB8203 		add	r3, r4, r2, lsl #2
 843 0096 D3ED007A 		vldr.32	s15, [r3]
 844              		.loc 1 95 40 view .LVU181
 845 009a 38EE278A 		vadd.f32	s16, s16, s15
 846              		.loc 1 95 16 view .LVU182
 847 009e F6EE007A 		vmov.f32	s15, #5.0e-1
 848 00a2 28EE278A 		vmul.f32	s16, s16, s15
 849              	.LVL66:
 850              	.L63:
  96:linea/src/linea_math.c ****     } else {
  97:linea/src/linea_math.c ****         result = sorted[length/2];
  98:linea/src/linea_math.c ****     }
  99:linea/src/linea_math.c ****     
 100:linea/src/linea_math.c ****     free(sorted);
 851              		.loc 1 100 5 is_stmt 1 view .LVU183
 852 00a6 2046     		mov	r0, r4
 853 00a8 FFF7FEFF 		bl	free
 854              	.LVL67:
 101:linea/src/linea_math.c ****     return result;
 855              		.loc 1 101 5 view .LVU184
 856              	.L54:
 102:linea/src/linea_math.c **** }
 857              		.loc 1 102 1 is_stmt 0 view .LVU185
 858 00ac B0EE480A 		vmov.f32	s0, s16
 859 00b0 BDEC028B 		vldm	sp!, {d8}
 860              		.cfi_remember_state
 861              		.cfi_restore 80
 862              		.cfi_restore 81
 863              		.cfi_def_cfa_offset 24
 864 00b4 F8BD     		pop	{r3, r4, r5, r6, r7, pc}
 865              	.LVL68:
 866              	.L62:
 867              		.cfi_restore_state
  97:linea/src/linea_math.c ****     }
 868              		.loc 1 97 9 is_stmt 1 view .LVU186
  97:linea/src/linea_math.c ****     }
 869              		.loc 1 97 31 is_stmt 0 view .LVU187
 870 00b6 6B08     		lsrs	r3, r5, #1
  97:linea/src/linea_math.c ****     }
 871              		.loc 1 97 24 view .LVU188
 872 00b8 04EB8303 		add	r3, r4, r3, lsl #2
  97:linea/src/linea_math.c ****     }
 873              		.loc 1 97 16 view .LVU189
 874 00bc 93ED008A 		vldr.32	s16, [r3]
 875              	.LVL69:
  97:linea/src/linea_math.c ****     }
 876              		.loc 1 97 16 view .LVU190
 877 00c0 F1E7     		b	.L63
 878              	.LVL70:
 879              	.L64:
  73:linea/src/linea_math.c ****     if (length == 1) return data[0];
 880              		.loc 1 73 29 discriminator 1 view .LVU191
 881 00c2 9FED038A 		vldr.32	s16, .L72
 882 00c6 F1E7     		b	.L54
ARM GAS  C:\Users\Nathan\AppData\Local\Temp\cce5o93m.s 			page 18


 883              	.LVL71:
 884              	.L65:
  78:linea/src/linea_math.c ****     
 885              		.loc 1 78 25 discriminator 1 view .LVU192
 886 00c8 9FED018A 		vldr.32	s16, .L72
 887 00cc EEE7     		b	.L54
 888              	.L73:
 889 00ce 00BF     		.align	2
 890              	.L72:
 891 00d0 00000000 		.word	0
 892              		.cfi_endproc
 893              	.LFE20:
 895              		.section	.text.linea_min,"ax",%progbits
 896              		.align	1
 897              		.global	linea_min
 898              		.syntax unified
 899              		.thumb
 900              		.thumb_func
 902              	linea_min:
 903              	.LVL72:
 904              	.LFB21:
 103:linea/src/linea_math.c **** 
 104:linea/src/linea_math.c **** float linea_min(float* data, uint16_t length) {
 905              		.loc 1 104 47 is_stmt 1 view -0
 906              		.cfi_startproc
 907              		@ args = 0, pretend = 0, frame = 0
 908              		@ frame_needed = 0, uses_anonymous_args = 0
 909              		@ link register save eliminated.
 105:linea/src/linea_math.c ****     if (length == 0) return 0.0f;
 910              		.loc 1 105 5 view .LVU194
 911              		.loc 1 105 8 is_stmt 0 view .LVU195
 912 0000 8C46     		mov	ip, r1
 913 0002 A1B1     		cbz	r1, .L79
 106:linea/src/linea_math.c ****     
 107:linea/src/linea_math.c ****     float min_val = data[0];
 914              		.loc 1 107 5 is_stmt 1 view .LVU196
 915              		.loc 1 107 11 is_stmt 0 view .LVU197
 916 0004 90ED000A 		vldr.32	s0, [r0]
 917              	.LVL73:
 108:linea/src/linea_math.c ****     for (uint16_t i = 1; i < length; i++) {
 918              		.loc 1 108 5 is_stmt 1 view .LVU198
 919              	.LBB12:
 920              		.loc 1 108 10 view .LVU199
 921              		.loc 1 108 19 is_stmt 0 view .LVU200
 922 0008 0123     		movs	r3, #1
 923              		.loc 1 108 5 view .LVU201
 924 000a 01E0     		b	.L76
 925              	.LVL74:
 926              	.L77:
 927              		.loc 1 108 39 is_stmt 1 discriminator 2 view .LVU202
 928 000c 0133     		adds	r3, r3, #1
 929              	.LVL75:
 930              		.loc 1 108 39 is_stmt 0 discriminator 2 view .LVU203
 931 000e 9BB2     		uxth	r3, r3
 932              	.LVL76:
 933              	.L76:
 934              		.loc 1 108 28 is_stmt 1 discriminator 1 view .LVU204
ARM GAS  C:\Users\Nathan\AppData\Local\Temp\cce5o93m.s 			page 19


 935 0010 6345     		cmp	r3, ip
 936 0012 0BD2     		bcs	.L81
 109:linea/src/linea_math.c ****         if (data[i] < min_val) {
 937              		.loc 1 109 9 view .LVU205
 938              		.loc 1 109 17 is_stmt 0 view .LVU206
 939 0014 00EB8302 		add	r2, r0, r3, lsl #2
 940 0018 D2ED007A 		vldr.32	s15, [r2]
 941              		.loc 1 109 12 view .LVU207
 942 001c F4EEC07A 		vcmpe.f32	s15, s0
 943 0020 F1EE10FA 		vmrs	APSR_nzcv, FPSCR
 944 0024 F2D5     		bpl	.L77
 110:linea/src/linea_math.c ****             min_val = data[i];
 945              		.loc 1 110 21 view .LVU208
 946 0026 B0EE670A 		vmov.f32	s0, s15
 947              	.LVL77:
 948              		.loc 1 110 21 view .LVU209
 949 002a EFE7     		b	.L77
 950              	.LVL78:
 951              	.L81:
 952              		.loc 1 110 21 view .LVU210
 953 002c 7047     		bx	lr
 954              	.LVL79:
 955              	.L79:
 956              		.loc 1 110 21 view .LVU211
 957              	.LBE12:
 105:linea/src/linea_math.c ****     
 958              		.loc 1 105 29 discriminator 1 view .LVU212
 959 002e 9FED010A 		vldr.32	s0, .L82
 111:linea/src/linea_math.c ****         }
 112:linea/src/linea_math.c ****     }
 113:linea/src/linea_math.c ****     return min_val;
 114:linea/src/linea_math.c **** }
 960              		.loc 1 114 1 view .LVU213
 961 0032 7047     		bx	lr
 962              	.L83:
 963              		.align	2
 964              	.L82:
 965 0034 00000000 		.word	0
 966              		.cfi_endproc
 967              	.LFE21:
 969              		.section	.text.linea_max,"ax",%progbits
 970              		.align	1
 971              		.global	linea_max
 972              		.syntax unified
 973              		.thumb
 974              		.thumb_func
 976              	linea_max:
 977              	.LVL80:
 978              	.LFB22:
 115:linea/src/linea_math.c **** 
 116:linea/src/linea_math.c **** float linea_max(float* data, uint16_t length) {
 979              		.loc 1 116 47 is_stmt 1 view -0
 980              		.cfi_startproc
 981              		@ args = 0, pretend = 0, frame = 0
 982              		@ frame_needed = 0, uses_anonymous_args = 0
 983              		@ link register save eliminated.
 117:linea/src/linea_math.c ****     if (length == 0) return 0.0f;
ARM GAS  C:\Users\Nathan\AppData\Local\Temp\cce5o93m.s 			page 20


 984              		.loc 1 117 5 view .LVU215
 985              		.loc 1 117 8 is_stmt 0 view .LVU216
 986 0000 8C46     		mov	ip, r1
 987 0002 A1B1     		cbz	r1, .L89
 118:linea/src/linea_math.c ****     
 119:linea/src/linea_math.c ****     float max_val = data[0];
 988              		.loc 1 119 5 is_stmt 1 view .LVU217
 989              		.loc 1 119 11 is_stmt 0 view .LVU218
 990 0004 90ED000A 		vldr.32	s0, [r0]
 991              	.LVL81:
 120:linea/src/linea_math.c ****     for (uint16_t i = 1; i < length; i++) {
 992              		.loc 1 120 5 is_stmt 1 view .LVU219
 993              	.LBB13:
 994              		.loc 1 120 10 view .LVU220
 995              		.loc 1 120 19 is_stmt 0 view .LVU221
 996 0008 0123     		movs	r3, #1
 997              		.loc 1 120 5 view .LVU222
 998 000a 01E0     		b	.L86
 999              	.LVL82:
 1000              	.L87:
 1001              		.loc 1 120 39 is_stmt 1 discriminator 2 view .LVU223
 1002 000c 0133     		adds	r3, r3, #1
 1003              	.LVL83:
 1004              		.loc 1 120 39 is_stmt 0 discriminator 2 view .LVU224
 1005 000e 9BB2     		uxth	r3, r3
 1006              	.LVL84:
 1007              	.L86:
 1008              		.loc 1 120 28 is_stmt 1 discriminator 1 view .LVU225
 1009 0010 6345     		cmp	r3, ip
 1010 0012 0BD2     		bcs	.L91
 121:linea/src/linea_math.c ****         if (data[i] > max_val) {
 1011              		.loc 1 121 9 view .LVU226
 1012              		.loc 1 121 17 is_stmt 0 view .LVU227
 1013 0014 00EB8302 		add	r2, r0, r3, lsl #2
 1014 0018 D2ED007A 		vldr.32	s15, [r2]
 1015              		.loc 1 121 12 view .LVU228
 1016 001c F4EEC07A 		vcmpe.f32	s15, s0
 1017 0020 F1EE10FA 		vmrs	APSR_nzcv, FPSCR
 1018 0024 F2DD     		ble	.L87
 122:linea/src/linea_math.c ****             max_val = data[i];
 1019              		.loc 1 122 21 view .LVU229
 1020 0026 B0EE670A 		vmov.f32	s0, s15
 1021              	.LVL85:
 1022              		.loc 1 122 21 view .LVU230
 1023 002a EFE7     		b	.L87
 1024              	.LVL86:
 1025              	.L91:
 1026              		.loc 1 122 21 view .LVU231
 1027 002c 7047     		bx	lr
 1028              	.LVL87:
 1029              	.L89:
 1030              		.loc 1 122 21 view .LVU232
 1031              	.LBE13:
 117:linea/src/linea_math.c ****     
 1032              		.loc 1 117 29 discriminator 1 view .LVU233
 1033 002e 9FED010A 		vldr.32	s0, .L92
 123:linea/src/linea_math.c ****         }
ARM GAS  C:\Users\Nathan\AppData\Local\Temp\cce5o93m.s 			page 21


 124:linea/src/linea_math.c ****     }
 125:linea/src/linea_math.c ****     return max_val;
 126:linea/src/linea_math.c **** }
 1034              		.loc 1 126 1 view .LVU234
 1035 0032 7047     		bx	lr
 1036              	.L93:
 1037              		.align	2
 1038              	.L92:
 1039 0034 00000000 		.word	0
 1040              		.cfi_endproc
 1041              	.LFE22:
 1043              		.section	.text.linea_lowpass_filter,"ax",%progbits
 1044              		.align	1
 1045              		.global	linea_lowpass_filter
 1046              		.syntax unified
 1047              		.thumb
 1048              		.thumb_func
 1050              	linea_lowpass_filter:
 1051              	.LVL88:
 1052              	.LFB23:
 127:linea/src/linea_math.c **** 
 128:linea/src/linea_math.c **** // Filtering functions
 129:linea/src/linea_math.c **** float linea_lowpass_filter(float input, float* state, float alpha) {
 1053              		.loc 1 129 68 is_stmt 1 view -0
 1054              		.cfi_startproc
 1055              		@ args = 0, pretend = 0, frame = 0
 1056              		@ frame_needed = 0, uses_anonymous_args = 0
 1057              		@ link register save eliminated.
 130:linea/src/linea_math.c ****     if (alpha < 0.0f) alpha = 0.0f;
 1058              		.loc 1 130 5 view .LVU236
 1059              		.loc 1 130 8 is_stmt 0 view .LVU237
 1060 0000 F5EEC00A 		vcmpe.f32	s1, #0
 1061 0004 F1EE10FA 		vmrs	APSR_nzcv, FPSCR
 1062 0008 09D4     		bmi	.L96
 131:linea/src/linea_math.c ****     if (alpha > 1.0f) alpha = 1.0f;
 1063              		.loc 1 131 5 is_stmt 1 view .LVU238
 1064              		.loc 1 131 8 is_stmt 0 view .LVU239
 1065 000a F7EE007A 		vmov.f32	s15, #1.0e+0
 1066 000e F4EEE70A 		vcmpe.f32	s1, s15
 1067 0012 F1EE10FA 		vmrs	APSR_nzcv, FPSCR
 1068 0016 04DD     		ble	.L95
 1069              		.loc 1 131 29 discriminator 1 view .LVU240
 1070 0018 F7EE000A 		vmov.f32	s1, #1.0e+0
 1071              	.LVL89:
 1072              		.loc 1 131 29 discriminator 1 view .LVU241
 1073 001c 01E0     		b	.L95
 1074              	.LVL90:
 1075              	.L96:
 130:linea/src/linea_math.c ****     if (alpha < 0.0f) alpha = 0.0f;
 1076              		.loc 1 130 29 discriminator 1 view .LVU242
 1077 001e DFED080A 		vldr.32	s1, .L98
 1078              	.LVL91:
 1079              	.L95:
 132:linea/src/linea_math.c ****     
 133:linea/src/linea_math.c ****     *state = alpha * input + (1.0f - alpha) * (*state);
 1080              		.loc 1 133 5 is_stmt 1 view .LVU243
 1081              		.loc 1 133 20 is_stmt 0 view .LVU244
ARM GAS  C:\Users\Nathan\AppData\Local\Temp\cce5o93m.s 			page 22


 1082 0022 20EE800A 		vmul.f32	s0, s1, s0
 1083              	.LVL92:
 1084              		.loc 1 133 36 view .LVU245
 1085 0026 F7EE007A 		vmov.f32	s15, #1.0e+0
 1086 002a 77EEE07A 		vsub.f32	s15, s15, s1
 1087              		.loc 1 133 48 view .LVU246
 1088 002e 90ED007A 		vldr.32	s14, [r0]
 1089              		.loc 1 133 45 view .LVU247
 1090 0032 67EE877A 		vmul.f32	s15, s15, s14
 1091              		.loc 1 133 28 view .LVU248
 1092 0036 30EE270A 		vadd.f32	s0, s0, s15
 1093              		.loc 1 133 12 view .LVU249
 1094 003a 80ED000A 		vstr.32	s0, [r0]
 134:linea/src/linea_math.c ****     return *state;
 1095              		.loc 1 134 5 is_stmt 1 view .LVU250
 135:linea/src/linea_math.c **** }
 1096              		.loc 1 135 1 is_stmt 0 view .LVU251
 1097 003e 7047     		bx	lr
 1098              	.L99:
 1099              		.align	2
 1100              	.L98:
 1101 0040 00000000 		.word	0
 1102              		.cfi_endproc
 1103              	.LFE23:
 1105              		.section	.text.linea_highpass_filter,"ax",%progbits
 1106              		.align	1
 1107              		.global	linea_highpass_filter
 1108              		.syntax unified
 1109              		.thumb
 1110              		.thumb_func
 1112              	linea_highpass_filter:
 1113              	.LVL93:
 1114              	.LFB24:
 136:linea/src/linea_math.c **** 
 137:linea/src/linea_math.c **** float linea_highpass_filter(float input, float* state, float alpha) {
 1115              		.loc 1 137 69 is_stmt 1 view -0
 1116              		.cfi_startproc
 1117              		@ args = 0, pretend = 0, frame = 0
 1118              		@ frame_needed = 0, uses_anonymous_args = 0
 1119              		@ link register save eliminated.
 138:linea/src/linea_math.c ****     if (alpha < 0.0f) alpha = 0.0f;
 1120              		.loc 1 138 5 view .LVU253
 1121              		.loc 1 138 8 is_stmt 0 view .LVU254
 1122 0000 F5EEC00A 		vcmpe.f32	s1, #0
 1123 0004 F1EE10FA 		vmrs	APSR_nzcv, FPSCR
 1124 0008 09D4     		bmi	.L102
 139:linea/src/linea_math.c ****     if (alpha > 1.0f) alpha = 1.0f;
 1125              		.loc 1 139 5 is_stmt 1 view .LVU255
 1126              		.loc 1 139 8 is_stmt 0 view .LVU256
 1127 000a F7EE007A 		vmov.f32	s15, #1.0e+0
 1128 000e F4EEE70A 		vcmpe.f32	s1, s15
 1129 0012 F1EE10FA 		vmrs	APSR_nzcv, FPSCR
 1130 0016 04DD     		ble	.L101
 1131              		.loc 1 139 29 discriminator 1 view .LVU257
 1132 0018 F7EE000A 		vmov.f32	s1, #1.0e+0
 1133              	.LVL94:
 1134              		.loc 1 139 29 discriminator 1 view .LVU258
ARM GAS  C:\Users\Nathan\AppData\Local\Temp\cce5o93m.s 			page 23


 1135 001c 01E0     		b	.L101
 1136              	.LVL95:
 1137              	.L102:
 138:linea/src/linea_math.c ****     if (alpha < 0.0f) alpha = 0.0f;
 1138              		.loc 1 138 29 discriminator 1 view .LVU259
 1139 001e DFED090A 		vldr.32	s1, .L104
 1140              	.LVL96:
 1141              	.L101:
 140:linea/src/linea_math.c ****     
 141:linea/src/linea_math.c ****     float output = input - *state;
 1142              		.loc 1 141 5 is_stmt 1 view .LVU260
 1143              		.loc 1 141 28 is_stmt 0 view .LVU261
 1144 0022 D0ED007A 		vldr.32	s15, [r0]
 1145              		.loc 1 141 11 view .LVU262
 1146 0026 30EE670A 		vsub.f32	s0, s0, s15
 1147              	.LVL97:
 142:linea/src/linea_math.c ****     *state = alpha * output + (1.0f - alpha) * (*state);
 1148              		.loc 1 142 5 is_stmt 1 view .LVU263
 1149              		.loc 1 142 20 is_stmt 0 view .LVU264
 1150 002a 20EE807A 		vmul.f32	s14, s1, s0
 1151              		.loc 1 142 37 view .LVU265
 1152 002e F7EE006A 		vmov.f32	s13, #1.0e+0
 1153 0032 76EEE06A 		vsub.f32	s13, s13, s1
 1154              		.loc 1 142 46 view .LVU266
 1155 0036 67EEA67A 		vmul.f32	s15, s15, s13
 1156              		.loc 1 142 29 view .LVU267
 1157 003a 77EE277A 		vadd.f32	s15, s14, s15
 1158              		.loc 1 142 12 view .LVU268
 1159 003e C0ED007A 		vstr.32	s15, [r0]
 143:linea/src/linea_math.c ****     return output;
 1160              		.loc 1 143 5 is_stmt 1 view .LVU269
 144:linea/src/linea_math.c **** }
 1161              		.loc 1 144 1 is_stmt 0 view .LVU270
 1162 0042 7047     		bx	lr
 1163              	.L105:
 1164              		.align	2
 1165              	.L104:
 1166 0044 00000000 		.word	0
 1167              		.cfi_endproc
 1168              	.LFE24:
 1170              		.section	.text.linea_moving_average,"ax",%progbits
 1171              		.align	1
 1172              		.global	linea_moving_average
 1173              		.syntax unified
 1174              		.thumb
 1175              		.thumb_func
 1177              	linea_moving_average:
 1178              	.LVL98:
 1179              	.LFB25:
 145:linea/src/linea_math.c **** 
 146:linea/src/linea_math.c **** float linea_moving_average(float input, float* buffer, uint16_t* index, uint16_t length) {
 1180              		.loc 1 146 90 is_stmt 1 view -0
 1181              		.cfi_startproc
 1182              		@ args = 0, pretend = 0, frame = 0
 1183              		@ frame_needed = 0, uses_anonymous_args = 0
 1184              		@ link register save eliminated.
 147:linea/src/linea_math.c ****     if (length == 0) return input;
ARM GAS  C:\Users\Nathan\AppData\Local\Temp\cce5o93m.s 			page 24


 1185              		.loc 1 147 5 view .LVU272
 1186              		.loc 1 147 8 is_stmt 0 view .LVU273
 1187 0000 9446     		mov	ip, r2
 1188 0002 FAB1     		cbz	r2, .L106
 148:linea/src/linea_math.c ****     
 149:linea/src/linea_math.c ****     buffer[*index] = input;
 1189              		.loc 1 149 5 is_stmt 1 view .LVU274
 1190              		.loc 1 149 12 is_stmt 0 view .LVU275
 1191 0004 0B88     		ldrh	r3, [r1]
 1192              		.loc 1 149 11 view .LVU276
 1193 0006 00EB8303 		add	r3, r0, r3, lsl #2
 1194              		.loc 1 149 20 view .LVU277
 1195 000a 83ED000A 		vstr.32	s0, [r3]
 150:linea/src/linea_math.c ****     *index = (*index + 1) % length;
 1196              		.loc 1 150 5 is_stmt 1 view .LVU278
 1197              		.loc 1 150 15 is_stmt 0 view .LVU279
 1198 000e 0B88     		ldrh	r3, [r1]
 1199              		.loc 1 150 22 view .LVU280
 1200 0010 0133     		adds	r3, r3, #1
 1201              		.loc 1 150 27 view .LVU281
 1202 0012 93FBF2F2 		sdiv	r2, r3, r2
 1203              	.LVL99:
 1204              		.loc 1 150 27 view .LVU282
 1205 0016 0CFB1233 		mls	r3, ip, r2, r3
 1206              		.loc 1 150 12 view .LVU283
 1207 001a 0B80     		strh	r3, [r1]	@ movhi
 151:linea/src/linea_math.c ****     
 152:linea/src/linea_math.c ****     float sum = 0.0f;
 1208              		.loc 1 152 5 is_stmt 1 view .LVU284
 1209              	.LVL100:
 153:linea/src/linea_math.c ****     for (uint16_t i = 0; i < length; i++) {
 1210              		.loc 1 153 5 view .LVU285
 1211              	.LBB14:
 1212              		.loc 1 153 10 view .LVU286
 1213              		.loc 1 153 19 is_stmt 0 view .LVU287
 1214 001c 0023     		movs	r3, #0
 1215              	.LBE14:
 152:linea/src/linea_math.c ****     for (uint16_t i = 0; i < length; i++) {
 1216              		.loc 1 152 11 view .LVU288
 1217 001e DFED0A7A 		vldr.32	s15, .L111
 1218              	.LBB15:
 1219              		.loc 1 153 5 view .LVU289
 1220 0022 07E0     		b	.L108
 1221              	.LVL101:
 1222              	.L109:
 154:linea/src/linea_math.c ****         sum += buffer[i];
 1223              		.loc 1 154 9 is_stmt 1 view .LVU290
 1224              		.loc 1 154 22 is_stmt 0 view .LVU291
 1225 0024 00EB8302 		add	r2, r0, r3, lsl #2
 1226 0028 92ED007A 		vldr.32	s14, [r2]
 1227              		.loc 1 154 13 view .LVU292
 1228 002c 77EE877A 		vadd.f32	s15, s15, s14
 1229              	.LVL102:
 153:linea/src/linea_math.c ****     for (uint16_t i = 0; i < length; i++) {
 1230              		.loc 1 153 39 is_stmt 1 discriminator 3 view .LVU293
 1231 0030 0133     		adds	r3, r3, #1
 1232              	.LVL103:
ARM GAS  C:\Users\Nathan\AppData\Local\Temp\cce5o93m.s 			page 25


 153:linea/src/linea_math.c ****     for (uint16_t i = 0; i < length; i++) {
 1233              		.loc 1 153 39 is_stmt 0 discriminator 3 view .LVU294
 1234 0032 9BB2     		uxth	r3, r3
 1235              	.LVL104:
 1236              	.L108:
 153:linea/src/linea_math.c ****     for (uint16_t i = 0; i < length; i++) {
 1237              		.loc 1 153 28 is_stmt 1 discriminator 1 view .LVU295
 1238 0034 6345     		cmp	r3, ip
 1239 0036 F5D3     		bcc	.L109
 1240              	.LBE15:
 155:linea/src/linea_math.c ****     }
 156:linea/src/linea_math.c ****     
 157:linea/src/linea_math.c ****     return sum / length;
 1241              		.loc 1 157 5 view .LVU296
 1242              		.loc 1 157 16 is_stmt 0 view .LVU297
 1243 0038 07EE10CA 		vmov	s14, ip	@ int
 1244 003c B8EEC77A 		vcvt.f32.s32	s14, s14
 1245 0040 87EE870A 		vdiv.f32	s0, s15, s14
 1246              	.LVL105:
 1247              	.L106:
 158:linea/src/linea_math.c **** }
 1248              		.loc 1 158 1 view .LVU298
 1249 0044 7047     		bx	lr
 1250              	.L112:
 1251 0046 00BF     		.align	2
 1252              	.L111:
 1253 0048 00000000 		.word	0
 1254              		.cfi_endproc
 1255              	.LFE25:
 1257              		.section	.text.linea_clamp,"ax",%progbits
 1258              		.align	1
 1259              		.global	linea_clamp
 1260              		.syntax unified
 1261              		.thumb
 1262              		.thumb_func
 1264              	linea_clamp:
 1265              	.LVL106:
 1266              	.LFB26:
 159:linea/src/linea_math.c **** 
 160:linea/src/linea_math.c **** // Utility functions
 161:linea/src/linea_math.c **** float linea_clamp(float value, float min, float max) {
 1267              		.loc 1 161 54 is_stmt 1 view -0
 1268              		.cfi_startproc
 1269              		@ args = 0, pretend = 0, frame = 0
 1270              		@ frame_needed = 0, uses_anonymous_args = 0
 1271              		@ link register save eliminated.
 162:linea/src/linea_math.c ****     if (value < min) return min;
 1272              		.loc 1 162 5 view .LVU300
 1273              		.loc 1 162 8 is_stmt 0 view .LVU301
 1274 0000 B4EEE00A 		vcmpe.f32	s0, s1
 1275 0004 F1EE10FA 		vmrs	APSR_nzcv, FPSCR
 1276 0008 05D4     		bmi	.L115
 163:linea/src/linea_math.c ****     if (value > max) return max;
 1277              		.loc 1 163 5 is_stmt 1 view .LVU302
 1278              		.loc 1 163 8 is_stmt 0 view .LVU303
 1279 000a B4EEC10A 		vcmpe.f32	s0, s2
 1280 000e F1EE10FA 		vmrs	APSR_nzcv, FPSCR
ARM GAS  C:\Users\Nathan\AppData\Local\Temp\cce5o93m.s 			page 26


 1281 0012 03DC     		bgt	.L116
 1282 0014 7047     		bx	lr
 1283              	.L115:
 162:linea/src/linea_math.c ****     if (value < min) return min;
 1284              		.loc 1 162 29 discriminator 1 view .LVU304
 1285 0016 B0EE600A 		vmov.f32	s0, s1
 1286              	.LVL107:
 162:linea/src/linea_math.c ****     if (value < min) return min;
 1287              		.loc 1 162 29 discriminator 1 view .LVU305
 1288 001a 7047     		bx	lr
 1289              	.LVL108:
 1290              	.L116:
 1291              		.loc 1 163 29 discriminator 1 view .LVU306
 1292 001c B0EE410A 		vmov.f32	s0, s2
 1293              	.LVL109:
 164:linea/src/linea_math.c ****     return value;
 165:linea/src/linea_math.c **** }
 1294              		.loc 1 165 1 view .LVU307
 1295 0020 7047     		bx	lr
 1296              		.cfi_endproc
 1297              	.LFE26:
 1299              		.section	.text.linea_map,"ax",%progbits
 1300              		.align	1
 1301              		.global	linea_map
 1302              		.syntax unified
 1303              		.thumb
 1304              		.thumb_func
 1306              	linea_map:
 1307              	.LVL110:
 1308              	.LFB27:
 166:linea/src/linea_math.c **** 
 167:linea/src/linea_math.c **** float linea_map(float value, float in_min, float in_max, float out_min, float out_max) {
 1309              		.loc 1 167 88 is_stmt 1 view -0
 1310              		.cfi_startproc
 1311              		@ args = 0, pretend = 0, frame = 0
 1312              		@ frame_needed = 0, uses_anonymous_args = 0
 1313              		@ link register save eliminated.
 168:linea/src/linea_math.c ****     if (in_max == in_min) return out_min;
 1314              		.loc 1 168 5 view .LVU309
 1315              		.loc 1 168 8 is_stmt 0 view .LVU310
 1316 0000 B4EE601A 		vcmp.f32	s2, s1
 1317 0004 F1EE10FA 		vmrs	APSR_nzcv, FPSCR
 1318 0008 0CD0     		beq	.L119
 169:linea/src/linea_math.c ****     
 170:linea/src/linea_math.c ****     return (value - in_min) * (out_max - out_min) / (in_max - in_min) + out_min;
 1319              		.loc 1 170 5 is_stmt 1 view .LVU311
 1320              		.loc 1 170 19 is_stmt 0 view .LVU312
 1321 000a 30EE600A 		vsub.f32	s0, s0, s1
 1322              	.LVL111:
 1323              		.loc 1 170 40 view .LVU313
 1324 000e 32EE612A 		vsub.f32	s4, s4, s3
 1325              	.LVL112:
 1326              		.loc 1 170 29 view .LVU314
 1327 0012 20EE020A 		vmul.f32	s0, s0, s4
 1328              		.loc 1 170 61 view .LVU315
 1329 0016 31EE601A 		vsub.f32	s2, s2, s1
 1330              	.LVL113:
ARM GAS  C:\Users\Nathan\AppData\Local\Temp\cce5o93m.s 			page 27


 1331              		.loc 1 170 51 view .LVU316
 1332 001a C0EE017A 		vdiv.f32	s15, s0, s2
 1333              		.loc 1 170 71 view .LVU317
 1334 001e 37EEA10A 		vadd.f32	s0, s15, s3
 1335 0022 7047     		bx	lr
 1336              	.LVL114:
 1337              	.L119:
 168:linea/src/linea_math.c ****     if (in_max == in_min) return out_min;
 1338              		.loc 1 168 34 discriminator 1 view .LVU318
 1339 0024 B0EE610A 		vmov.f32	s0, s3
 1340              	.LVL115:
 171:linea/src/linea_math.c **** }
 1341              		.loc 1 171 1 view .LVU319
 1342 0028 7047     		bx	lr
 1343              		.cfi_endproc
 1344              	.LFE27:
 1346              		.section	.text.linea_constrain,"ax",%progbits
 1347              		.align	1
 1348              		.global	linea_constrain
 1349              		.syntax unified
 1350              		.thumb
 1351              		.thumb_func
 1353              	linea_constrain:
 1354              	.LVL116:
 1355              	.LFB28:
 172:linea/src/linea_math.c **** 
 173:linea/src/linea_math.c **** float linea_constrain(float value, float min, float max) {
 1356              		.loc 1 173 58 is_stmt 1 view -0
 1357              		.cfi_startproc
 1358              		@ args = 0, pretend = 0, frame = 0
 1359              		@ frame_needed = 0, uses_anonymous_args = 0
 1360              		.loc 1 173 58 is_stmt 0 view .LVU321
 1361 0000 08B5     		push	{r3, lr}
 1362              		.cfi_def_cfa_offset 8
 1363              		.cfi_offset 3, -8
 1364              		.cfi_offset 14, -4
 174:linea/src/linea_math.c ****     return linea_clamp(value, min, max);
 1365              		.loc 1 174 5 is_stmt 1 view .LVU322
 1366              		.loc 1 174 12 is_stmt 0 view .LVU323
 1367 0002 FFF7FEFF 		bl	linea_clamp
 1368              	.LVL117:
 175:linea/src/linea_math.c **** }
 1369              		.loc 1 175 1 view .LVU324
 1370 0006 08BD     		pop	{r3, pc}
 1371              		.cfi_endproc
 1372              	.LFE28:
 1374              		.section	.text.linea_is_nan,"ax",%progbits
 1375              		.align	1
 1376              		.global	linea_is_nan
 1377              		.syntax unified
 1378              		.thumb
 1379              		.thumb_func
 1381              	linea_is_nan:
 1382              	.LVL118:
 1383              	.LFB29:
 176:linea/src/linea_math.c **** 
 177:linea/src/linea_math.c **** bool linea_is_nan(float value) {
ARM GAS  C:\Users\Nathan\AppData\Local\Temp\cce5o93m.s 			page 28


 1384              		.loc 1 177 32 is_stmt 1 view -0
 1385              		.cfi_startproc
 1386              		@ args = 0, pretend = 0, frame = 0
 1387              		@ frame_needed = 0, uses_anonymous_args = 0
 1388              		@ link register save eliminated.
 178:linea/src/linea_math.c ****     return value != value; // NaN is the only value that is not equal to itself
 1389              		.loc 1 178 5 view .LVU326
 1390              		.loc 1 178 18 is_stmt 0 view .LVU327
 1391 0000 B4EE400A 		vcmp.f32	s0, s0
 1392 0004 F1EE10FA 		vmrs	APSR_nzcv, FPSCR
 179:linea/src/linea_math.c **** }
 1393              		.loc 1 179 1 view .LVU328
 1394 0008 14BF     		ite	ne
 1395 000a 0120     		movne	r0, #1
 1396 000c 0020     		moveq	r0, #0
 1397 000e 7047     		bx	lr
 1398              		.cfi_endproc
 1399              	.LFE29:
 1401              		.section	.text.linea_is_inf,"ax",%progbits
 1402              		.align	1
 1403              		.global	linea_is_inf
 1404              		.syntax unified
 1405              		.thumb
 1406              		.thumb_func
 1408              	linea_is_inf:
 1409              	.LVL119:
 1410              	.LFB30:
 180:linea/src/linea_math.c **** 
 181:linea/src/linea_math.c **** bool linea_is_inf(float value) {
 1411              		.loc 1 181 32 is_stmt 1 view -0
 1412              		.cfi_startproc
 1413              		@ args = 0, pretend = 0, frame = 0
 1414              		@ frame_needed = 0, uses_anonymous_args = 0
 1415              		@ link register save eliminated.
 182:linea/src/linea_math.c ****     return value > 1e38f || value < -1e38f; // Simple infinity check for 32-bit floats
 1416              		.loc 1 182 5 view .LVU330
 1417              		.loc 1 182 26 is_stmt 0 view .LVU331
 1418 0000 DFED097A 		vldr.32	s15, .L130
 1419 0004 B4EEE70A 		vcmpe.f32	s0, s15
 1420 0008 F1EE10FA 		vmrs	APSR_nzcv, FPSCR
 1421 000c 08DC     		bgt	.L126
 1422              		.loc 1 182 26 discriminator 2 view .LVU332
 1423 000e DFED077A 		vldr.32	s15, .L130+4
 1424 0012 B4EEE70A 		vcmpe.f32	s0, s15
 1425 0016 F1EE10FA 		vmrs	APSR_nzcv, FPSCR
 1426 001a 03D5     		bpl	.L129
 1427              		.loc 1 182 26 discriminator 3 view .LVU333
 1428 001c 0120     		movs	r0, #1
 1429 001e 7047     		bx	lr
 1430              	.L126:
 1431 0020 0120     		movs	r0, #1
 1432 0022 7047     		bx	lr
 1433              	.L129:
 1434              		.loc 1 182 26 discriminator 4 view .LVU334
 1435 0024 0020     		movs	r0, #0
 183:linea/src/linea_math.c **** }
 1436              		.loc 1 183 1 view .LVU335
ARM GAS  C:\Users\Nathan\AppData\Local\Temp\cce5o93m.s 			page 29


 1437 0026 7047     		bx	lr
 1438              	.L131:
 1439              		.align	2
 1440              	.L130:
 1441 0028 9976967E 		.word	2123789977
 1442 002c 997696FE 		.word	-23693671
 1443              		.cfi_endproc
 1444              	.LFE30:
 1446              		.text
 1447              	.Letext0:
 1448              		.file 2 "C:/PROGRAM FILES (X86)/ARM GNU TOOLCHAIN ARM-NONE-EABI/13.3 REL1/arm-none-eabi/include/ma
 1449              		.file 3 "C:/PROGRAM FILES (X86)/ARM GNU TOOLCHAIN ARM-NONE-EABI/13.3 REL1/arm-none-eabi/include/sy
 1450              		.file 4 "C:/PROGRAM FILES (X86)/ARM GNU TOOLCHAIN ARM-NONE-EABI/13.3 REL1/lib/gcc/arm-none-eabi/13
 1451              		.file 5 "C:/PROGRAM FILES (X86)/ARM GNU TOOLCHAIN ARM-NONE-EABI/13.3 REL1/arm-none-eabi/include/st
 1452              		.file 6 "C:/PROGRAM FILES (X86)/ARM GNU TOOLCHAIN ARM-NONE-EABI/13.3 REL1/arm-none-eabi/include/st
 1453              		.file 7 "C:/PROGRAM FILES (X86)/ARM GNU TOOLCHAIN ARM-NONE-EABI/13.3 REL1/arm-none-eabi/include/ma
 1454              		.file 8 "<built-in>"
ARM GAS  C:\Users\Nathan\AppData\Local\Temp\cce5o93m.s 			page 30

