ARM GAS  C:\Users\Nathan\AppData\Local\Temp\ccsUlhiB.s 			page 1


   1              		.cpu cortex-m4
   2              		.arch armv7e-m
   3              		.fpu fpv4-sp-d16
   4              		.eabi_attribute 27, 1
   5              		.eabi_attribute 28, 1
   6              		.eabi_attribute 20, 1
   7              		.eabi_attribute 21, 1
   8              		.eabi_attribute 23, 3
   9              		.eabi_attribute 24, 1
  10              		.eabi_attribute 25, 1
  11              		.eabi_attribute 26, 1
  12              		.eabi_attribute 30, 1
  13              		.eabi_attribute 34, 1
  14              		.eabi_attribute 18, 4
  15              		.file	"p2p_stm.c"
  16              		.text
  17              	.Ltext0:
  18              		.cfi_sections	.debug_frame
  19              		.file 1 "Middlewares/ST/STM32_WPAN/ble/svc/Src/p2p_stm.c"
  20              		.section	.text.PeerToPeer_Event_Handler,"ax",%progbits
  21              		.align	1
  22              		.syntax unified
  23              		.thumb
  24              		.thumb_func
  26              	PeerToPeer_Event_Handler:
  27              	.LVL0:
  28              	.LFB1417:
   1:Middlewares/ST/STM32_WPAN/ble/svc/Src/p2p_stm.c **** /**
   2:Middlewares/ST/STM32_WPAN/ble/svc/Src/p2p_stm.c ****   ******************************************************************************
   3:Middlewares/ST/STM32_WPAN/ble/svc/Src/p2p_stm.c ****   * @file    p2p_stm.c
   4:Middlewares/ST/STM32_WPAN/ble/svc/Src/p2p_stm.c ****   * @author  MCD Application Team
   5:Middlewares/ST/STM32_WPAN/ble/svc/Src/p2p_stm.c ****   * @brief   Peer to Peer Service (Custom STM)
   6:Middlewares/ST/STM32_WPAN/ble/svc/Src/p2p_stm.c ****   ******************************************************************************
   7:Middlewares/ST/STM32_WPAN/ble/svc/Src/p2p_stm.c ****   * @attention
   8:Middlewares/ST/STM32_WPAN/ble/svc/Src/p2p_stm.c ****   *
   9:Middlewares/ST/STM32_WPAN/ble/svc/Src/p2p_stm.c ****   * Copyright (c) 2018-2021 STMicroelectronics.
  10:Middlewares/ST/STM32_WPAN/ble/svc/Src/p2p_stm.c ****   * All rights reserved.
  11:Middlewares/ST/STM32_WPAN/ble/svc/Src/p2p_stm.c ****   *
  12:Middlewares/ST/STM32_WPAN/ble/svc/Src/p2p_stm.c ****   * This software is licensed under terms that can be found in the LICENSE file
  13:Middlewares/ST/STM32_WPAN/ble/svc/Src/p2p_stm.c ****   * in the root directory of this software component.
  14:Middlewares/ST/STM32_WPAN/ble/svc/Src/p2p_stm.c ****   * If no LICENSE file comes with this software, it is provided AS-IS.
  15:Middlewares/ST/STM32_WPAN/ble/svc/Src/p2p_stm.c ****   *
  16:Middlewares/ST/STM32_WPAN/ble/svc/Src/p2p_stm.c ****   ******************************************************************************
  17:Middlewares/ST/STM32_WPAN/ble/svc/Src/p2p_stm.c ****   */
  18:Middlewares/ST/STM32_WPAN/ble/svc/Src/p2p_stm.c **** 
  19:Middlewares/ST/STM32_WPAN/ble/svc/Src/p2p_stm.c **** 
  20:Middlewares/ST/STM32_WPAN/ble/svc/Src/p2p_stm.c **** /* Includes ------------------------------------------------------------------*/
  21:Middlewares/ST/STM32_WPAN/ble/svc/Src/p2p_stm.c **** #include "common_blesvc.h"
  22:Middlewares/ST/STM32_WPAN/ble/svc/Src/p2p_stm.c **** 
  23:Middlewares/ST/STM32_WPAN/ble/svc/Src/p2p_stm.c **** /* Private typedef -----------------------------------------------------------*/
  24:Middlewares/ST/STM32_WPAN/ble/svc/Src/p2p_stm.c **** typedef struct{
  25:Middlewares/ST/STM32_WPAN/ble/svc/Src/p2p_stm.c ****   uint16_t	PeerToPeerSvcHdle;				        /**< Service handle */
  26:Middlewares/ST/STM32_WPAN/ble/svc/Src/p2p_stm.c ****   uint16_t	P2PWriteClientToServerCharHdle;	  /**< Characteristic handle */
  27:Middlewares/ST/STM32_WPAN/ble/svc/Src/p2p_stm.c ****   uint16_t	P2PNotifyServerToClientCharHdle;	/**< Characteristic handle */
  28:Middlewares/ST/STM32_WPAN/ble/svc/Src/p2p_stm.c **** #if(BLE_CFG_OTA_REBOOT_CHAR != 0)
  29:Middlewares/ST/STM32_WPAN/ble/svc/Src/p2p_stm.c ****   uint16_t  RebootReqCharHdle;                /**< Characteristic handle */
  30:Middlewares/ST/STM32_WPAN/ble/svc/Src/p2p_stm.c **** #endif
ARM GAS  C:\Users\Nathan\AppData\Local\Temp\ccsUlhiB.s 			page 2


  31:Middlewares/ST/STM32_WPAN/ble/svc/Src/p2p_stm.c **** }PeerToPeerContext_t;
  32:Middlewares/ST/STM32_WPAN/ble/svc/Src/p2p_stm.c **** 
  33:Middlewares/ST/STM32_WPAN/ble/svc/Src/p2p_stm.c **** /* Private defines -----------------------------------------------------------*/
  34:Middlewares/ST/STM32_WPAN/ble/svc/Src/p2p_stm.c **** #define UUID_128_SUPPORTED  1
  35:Middlewares/ST/STM32_WPAN/ble/svc/Src/p2p_stm.c **** 
  36:Middlewares/ST/STM32_WPAN/ble/svc/Src/p2p_stm.c **** #if (UUID_128_SUPPORTED == 1)
  37:Middlewares/ST/STM32_WPAN/ble/svc/Src/p2p_stm.c **** #define BM_UUID_LENGTH  UUID_TYPE_128
  38:Middlewares/ST/STM32_WPAN/ble/svc/Src/p2p_stm.c **** #else
  39:Middlewares/ST/STM32_WPAN/ble/svc/Src/p2p_stm.c **** #define BM_UUID_LENGTH  UUID_TYPE_16
  40:Middlewares/ST/STM32_WPAN/ble/svc/Src/p2p_stm.c **** #endif
  41:Middlewares/ST/STM32_WPAN/ble/svc/Src/p2p_stm.c **** 
  42:Middlewares/ST/STM32_WPAN/ble/svc/Src/p2p_stm.c **** #define BM_REQ_CHAR_SIZE    (3)
  43:Middlewares/ST/STM32_WPAN/ble/svc/Src/p2p_stm.c **** 
  44:Middlewares/ST/STM32_WPAN/ble/svc/Src/p2p_stm.c **** 
  45:Middlewares/ST/STM32_WPAN/ble/svc/Src/p2p_stm.c **** /* Private macros ------------------------------------------------------------*/
  46:Middlewares/ST/STM32_WPAN/ble/svc/Src/p2p_stm.c **** 
  47:Middlewares/ST/STM32_WPAN/ble/svc/Src/p2p_stm.c **** /* Private variables ---------------------------------------------------------*/
  48:Middlewares/ST/STM32_WPAN/ble/svc/Src/p2p_stm.c **** /**
  49:Middlewares/ST/STM32_WPAN/ble/svc/Src/p2p_stm.c ****  * Reboot Characteristic UUID
  50:Middlewares/ST/STM32_WPAN/ble/svc/Src/p2p_stm.c ****  * 0000fe11-8e22-4541-9d4c-21edae82ed19
  51:Middlewares/ST/STM32_WPAN/ble/svc/Src/p2p_stm.c ****  */
  52:Middlewares/ST/STM32_WPAN/ble/svc/Src/p2p_stm.c **** #if(BLE_CFG_OTA_REBOOT_CHAR != 0)
  53:Middlewares/ST/STM32_WPAN/ble/svc/Src/p2p_stm.c **** #if (UUID_128_SUPPORTED == 1)
  54:Middlewares/ST/STM32_WPAN/ble/svc/Src/p2p_stm.c **** static const uint8_t BM_REQ_CHAR_UUID[16] = {0x19, 0xed, 0x82, 0xae,
  55:Middlewares/ST/STM32_WPAN/ble/svc/Src/p2p_stm.c ****                                        0xed, 0x21, 0x4c, 0x9d,
  56:Middlewares/ST/STM32_WPAN/ble/svc/Src/p2p_stm.c ****                                        0x41, 0x45, 0x22, 0x8e,
  57:Middlewares/ST/STM32_WPAN/ble/svc/Src/p2p_stm.c ****                                        0x11, 0xFE, 0x00, 0x00};
  58:Middlewares/ST/STM32_WPAN/ble/svc/Src/p2p_stm.c **** #else
  59:Middlewares/ST/STM32_WPAN/ble/svc/Src/p2p_stm.c **** static const uint8_t BM_REQ_CHAR_UUID[2] = {0x11, 0xFE};
  60:Middlewares/ST/STM32_WPAN/ble/svc/Src/p2p_stm.c **** #endif
  61:Middlewares/ST/STM32_WPAN/ble/svc/Src/p2p_stm.c **** #endif
  62:Middlewares/ST/STM32_WPAN/ble/svc/Src/p2p_stm.c **** 
  63:Middlewares/ST/STM32_WPAN/ble/svc/Src/p2p_stm.c **** /**
  64:Middlewares/ST/STM32_WPAN/ble/svc/Src/p2p_stm.c ****  * START of Section BLE_DRIVER_CONTEXT
  65:Middlewares/ST/STM32_WPAN/ble/svc/Src/p2p_stm.c ****  */
  66:Middlewares/ST/STM32_WPAN/ble/svc/Src/p2p_stm.c **** PLACE_IN_SECTION("BLE_DRIVER_CONTEXT") static PeerToPeerContext_t aPeerToPeerContext;
  67:Middlewares/ST/STM32_WPAN/ble/svc/Src/p2p_stm.c **** 
  68:Middlewares/ST/STM32_WPAN/ble/svc/Src/p2p_stm.c **** /**
  69:Middlewares/ST/STM32_WPAN/ble/svc/Src/p2p_stm.c ****  * END of Section BLE_DRIVER_CONTEXT
  70:Middlewares/ST/STM32_WPAN/ble/svc/Src/p2p_stm.c ****  */
  71:Middlewares/ST/STM32_WPAN/ble/svc/Src/p2p_stm.c **** /* Private function prototypes -----------------------------------------------*/
  72:Middlewares/ST/STM32_WPAN/ble/svc/Src/p2p_stm.c **** static SVCCTL_EvtAckStatus_t PeerToPeer_Event_Handler(void *Event);
  73:Middlewares/ST/STM32_WPAN/ble/svc/Src/p2p_stm.c **** 
  74:Middlewares/ST/STM32_WPAN/ble/svc/Src/p2p_stm.c **** 
  75:Middlewares/ST/STM32_WPAN/ble/svc/Src/p2p_stm.c **** /* Functions Definition ------------------------------------------------------*/
  76:Middlewares/ST/STM32_WPAN/ble/svc/Src/p2p_stm.c **** /* Private functions ----------------------------------------------------------*/
  77:Middlewares/ST/STM32_WPAN/ble/svc/Src/p2p_stm.c **** 
  78:Middlewares/ST/STM32_WPAN/ble/svc/Src/p2p_stm.c **** #define COPY_UUID_128(uuid_struct, uuid_15, uuid_14, uuid_13, uuid_12, uuid_11, uuid_10, uuid_9, uu
  79:Middlewares/ST/STM32_WPAN/ble/svc/Src/p2p_stm.c **** do {\
  80:Middlewares/ST/STM32_WPAN/ble/svc/Src/p2p_stm.c ****     uuid_struct[0] = uuid_0; uuid_struct[1] = uuid_1; uuid_struct[2] = uuid_2; uuid_struct[3] = uui
  81:Middlewares/ST/STM32_WPAN/ble/svc/Src/p2p_stm.c ****         uuid_struct[4] = uuid_4; uuid_struct[5] = uuid_5; uuid_struct[6] = uuid_6; uuid_struct[7] =
  82:Middlewares/ST/STM32_WPAN/ble/svc/Src/p2p_stm.c ****             uuid_struct[8] = uuid_8; uuid_struct[9] = uuid_9; uuid_struct[10] = uuid_10; uuid_struc
  83:Middlewares/ST/STM32_WPAN/ble/svc/Src/p2p_stm.c ****                 uuid_struct[12] = uuid_12; uuid_struct[13] = uuid_13; uuid_struct[14] = uuid_14; uu
  84:Middlewares/ST/STM32_WPAN/ble/svc/Src/p2p_stm.c **** }while(0)
  85:Middlewares/ST/STM32_WPAN/ble/svc/Src/p2p_stm.c **** 
  86:Middlewares/ST/STM32_WPAN/ble/svc/Src/p2p_stm.c **** /* Hardware Characteristics Service */
  87:Middlewares/ST/STM32_WPAN/ble/svc/Src/p2p_stm.c **** /*
ARM GAS  C:\Users\Nathan\AppData\Local\Temp\ccsUlhiB.s 			page 3


  88:Middlewares/ST/STM32_WPAN/ble/svc/Src/p2p_stm.c ****  The following 128bits UUIDs have been generated from the random UUID
  89:Middlewares/ST/STM32_WPAN/ble/svc/Src/p2p_stm.c ****  generator:
  90:Middlewares/ST/STM32_WPAN/ble/svc/Src/p2p_stm.c ****  D973F2E0-B19E-11E2-9E96-0800200C9A66: Service 128bits UUID
  91:Middlewares/ST/STM32_WPAN/ble/svc/Src/p2p_stm.c ****  D973F2E1-B19E-11E2-9E96-0800200C9A66: Characteristic_1 128bits UUID
  92:Middlewares/ST/STM32_WPAN/ble/svc/Src/p2p_stm.c ****  D973F2E2-B19E-11E2-9E96-0800200C9A66: Characteristic_2 128bits UUID
  93:Middlewares/ST/STM32_WPAN/ble/svc/Src/p2p_stm.c ****  */
  94:Middlewares/ST/STM32_WPAN/ble/svc/Src/p2p_stm.c **** #define COPY_P2P_SERVICE_UUID(uuid_struct)       COPY_UUID_128(uuid_struct,0x00,0x00,0xfe,0x40,0xcc
  95:Middlewares/ST/STM32_WPAN/ble/svc/Src/p2p_stm.c **** #define COPY_P2P_WRITE_CHAR_UUID(uuid_struct)    COPY_UUID_128(uuid_struct,0x00,0x00,0xfe,0x41,0x8e
  96:Middlewares/ST/STM32_WPAN/ble/svc/Src/p2p_stm.c **** #define COPY_P2P_NOTIFY_UUID(uuid_struct)        COPY_UUID_128(uuid_struct,0x00,0x00,0xfe,0x42,0x8e
  97:Middlewares/ST/STM32_WPAN/ble/svc/Src/p2p_stm.c **** 
  98:Middlewares/ST/STM32_WPAN/ble/svc/Src/p2p_stm.c **** 
  99:Middlewares/ST/STM32_WPAN/ble/svc/Src/p2p_stm.c **** 
 100:Middlewares/ST/STM32_WPAN/ble/svc/Src/p2p_stm.c **** /**
 101:Middlewares/ST/STM32_WPAN/ble/svc/Src/p2p_stm.c ****  * @brief  Event handler
 102:Middlewares/ST/STM32_WPAN/ble/svc/Src/p2p_stm.c ****  * @param  Event: Address of the buffer holding the Event
 103:Middlewares/ST/STM32_WPAN/ble/svc/Src/p2p_stm.c ****  * @retval Ack: Return whether the Event has been managed or not
 104:Middlewares/ST/STM32_WPAN/ble/svc/Src/p2p_stm.c ****  */
 105:Middlewares/ST/STM32_WPAN/ble/svc/Src/p2p_stm.c **** static SVCCTL_EvtAckStatus_t PeerToPeer_Event_Handler(void *Event)
 106:Middlewares/ST/STM32_WPAN/ble/svc/Src/p2p_stm.c **** {
  29              		.loc 1 106 1 view -0
  30              		.cfi_startproc
  31              		@ args = 0, pretend = 0, frame = 16
  32              		@ frame_needed = 0, uses_anonymous_args = 0
 107:Middlewares/ST/STM32_WPAN/ble/svc/Src/p2p_stm.c ****   SVCCTL_EvtAckStatus_t return_value;
  33              		.loc 1 107 3 view .LVU1
 108:Middlewares/ST/STM32_WPAN/ble/svc/Src/p2p_stm.c ****   hci_event_pckt *event_pckt;
  34              		.loc 1 108 3 view .LVU2
 109:Middlewares/ST/STM32_WPAN/ble/svc/Src/p2p_stm.c ****   evt_blecore_aci *blecore_evt;
  35              		.loc 1 109 3 view .LVU3
 110:Middlewares/ST/STM32_WPAN/ble/svc/Src/p2p_stm.c ****   aci_gatt_attribute_modified_event_rp0    * attribute_modified;
  36              		.loc 1 110 3 view .LVU4
 111:Middlewares/ST/STM32_WPAN/ble/svc/Src/p2p_stm.c ****   P2PS_STM_App_Notification_evt_t Notification;
  37              		.loc 1 111 3 view .LVU5
 112:Middlewares/ST/STM32_WPAN/ble/svc/Src/p2p_stm.c **** 
 113:Middlewares/ST/STM32_WPAN/ble/svc/Src/p2p_stm.c ****   return_value = SVCCTL_EvtNotAck;
  38              		.loc 1 113 3 view .LVU6
 114:Middlewares/ST/STM32_WPAN/ble/svc/Src/p2p_stm.c ****   event_pckt = (hci_event_pckt *)(((hci_uart_pckt*)Event)->data);
  39              		.loc 1 114 3 view .LVU7
 115:Middlewares/ST/STM32_WPAN/ble/svc/Src/p2p_stm.c **** 
 116:Middlewares/ST/STM32_WPAN/ble/svc/Src/p2p_stm.c ****   switch(event_pckt->evt)
  40              		.loc 1 116 3 view .LVU8
  41              		.loc 1 116 20 is_stmt 0 view .LVU9
  42 0000 4378     		ldrb	r3, [r0, #1]	@ zero_extendqisi2
  43              		.loc 1 116 3 view .LVU10
  44 0002 FF2B     		cmp	r3, #255
  45 0004 01D0     		beq	.L12
 113:Middlewares/ST/STM32_WPAN/ble/svc/Src/p2p_stm.c ****   event_pckt = (hci_event_pckt *)(((hci_uart_pckt*)Event)->data);
  46              		.loc 1 113 16 view .LVU11
  47 0006 0020     		movs	r0, #0
  48              	.LVL1:
 113:Middlewares/ST/STM32_WPAN/ble/svc/Src/p2p_stm.c ****   event_pckt = (hci_event_pckt *)(((hci_uart_pckt*)Event)->data);
  49              		.loc 1 113 16 view .LVU12
  50 0008 7047     		bx	lr
  51              	.LVL2:
  52              	.L12:
 117:Middlewares/ST/STM32_WPAN/ble/svc/Src/p2p_stm.c ****   {
 118:Middlewares/ST/STM32_WPAN/ble/svc/Src/p2p_stm.c ****     case HCI_VENDOR_SPECIFIC_DEBUG_EVT_CODE:
ARM GAS  C:\Users\Nathan\AppData\Local\Temp\ccsUlhiB.s 			page 4


 119:Middlewares/ST/STM32_WPAN/ble/svc/Src/p2p_stm.c ****     {
 120:Middlewares/ST/STM32_WPAN/ble/svc/Src/p2p_stm.c ****       blecore_evt = (evt_blecore_aci*)event_pckt->data;
  53              		.loc 1 120 7 is_stmt 1 view .LVU13
 121:Middlewares/ST/STM32_WPAN/ble/svc/Src/p2p_stm.c ****       switch(blecore_evt->ecode)
  54              		.loc 1 121 7 view .LVU14
  55              		.loc 1 121 25 is_stmt 0 view .LVU15
  56 000a B0F80320 		ldrh	r2, [r0, #3]	@ unaligned
  57              		.loc 1 121 7 view .LVU16
  58 000e 40F60143 		movw	r3, #3073
  59 0012 9A42     		cmp	r2, r3
  60 0014 01D0     		beq	.L13
 113:Middlewares/ST/STM32_WPAN/ble/svc/Src/p2p_stm.c ****   event_pckt = (hci_event_pckt *)(((hci_uart_pckt*)Event)->data);
  61              		.loc 1 113 16 view .LVU17
  62 0016 0020     		movs	r0, #0
  63              	.LVL3:
 122:Middlewares/ST/STM32_WPAN/ble/svc/Src/p2p_stm.c ****       {
 123:Middlewares/ST/STM32_WPAN/ble/svc/Src/p2p_stm.c ****         case ACI_GATT_ATTRIBUTE_MODIFIED_VSEVT_CODE:
 124:Middlewares/ST/STM32_WPAN/ble/svc/Src/p2p_stm.c ****        {
 125:Middlewares/ST/STM32_WPAN/ble/svc/Src/p2p_stm.c ****           attribute_modified = (aci_gatt_attribute_modified_event_rp0*)blecore_evt->data;
 126:Middlewares/ST/STM32_WPAN/ble/svc/Src/p2p_stm.c ****             if(attribute_modified->Attr_Handle == (aPeerToPeerContext.P2PNotifyServerToClientCharHd
 127:Middlewares/ST/STM32_WPAN/ble/svc/Src/p2p_stm.c ****             {
 128:Middlewares/ST/STM32_WPAN/ble/svc/Src/p2p_stm.c ****               /**
 129:Middlewares/ST/STM32_WPAN/ble/svc/Src/p2p_stm.c ****                * Descriptor handle
 130:Middlewares/ST/STM32_WPAN/ble/svc/Src/p2p_stm.c ****                */
 131:Middlewares/ST/STM32_WPAN/ble/svc/Src/p2p_stm.c ****               return_value = SVCCTL_EvtAckFlowEnable;
 132:Middlewares/ST/STM32_WPAN/ble/svc/Src/p2p_stm.c ****               /**
 133:Middlewares/ST/STM32_WPAN/ble/svc/Src/p2p_stm.c ****                * Notify to application
 134:Middlewares/ST/STM32_WPAN/ble/svc/Src/p2p_stm.c ****                */
 135:Middlewares/ST/STM32_WPAN/ble/svc/Src/p2p_stm.c ****               if(attribute_modified->Attr_Data[0] & COMSVC_Notification)
 136:Middlewares/ST/STM32_WPAN/ble/svc/Src/p2p_stm.c ****               {
 137:Middlewares/ST/STM32_WPAN/ble/svc/Src/p2p_stm.c ****                 Notification.P2P_Evt_Opcode = P2PS_STM__NOTIFY_ENABLED_EVT;
 138:Middlewares/ST/STM32_WPAN/ble/svc/Src/p2p_stm.c ****                 P2PS_STM_App_Notification(&Notification);
 139:Middlewares/ST/STM32_WPAN/ble/svc/Src/p2p_stm.c ****               }
 140:Middlewares/ST/STM32_WPAN/ble/svc/Src/p2p_stm.c ****               else
 141:Middlewares/ST/STM32_WPAN/ble/svc/Src/p2p_stm.c ****               {
 142:Middlewares/ST/STM32_WPAN/ble/svc/Src/p2p_stm.c ****                 Notification.P2P_Evt_Opcode = P2PS_STM_NOTIFY_DISABLED_EVT;
 143:Middlewares/ST/STM32_WPAN/ble/svc/Src/p2p_stm.c ****                 P2PS_STM_App_Notification(&Notification);
 144:Middlewares/ST/STM32_WPAN/ble/svc/Src/p2p_stm.c ****               }
 145:Middlewares/ST/STM32_WPAN/ble/svc/Src/p2p_stm.c ****             }
 146:Middlewares/ST/STM32_WPAN/ble/svc/Src/p2p_stm.c ****             
 147:Middlewares/ST/STM32_WPAN/ble/svc/Src/p2p_stm.c ****             else if(attribute_modified->Attr_Handle == (aPeerToPeerContext.P2PWriteClientToServerCh
 148:Middlewares/ST/STM32_WPAN/ble/svc/Src/p2p_stm.c ****             {
 149:Middlewares/ST/STM32_WPAN/ble/svc/Src/p2p_stm.c ****               BLE_DBG_P2P_STM_MSG("-- GATT : LED CONFIGURATION RECEIVED\n");
 150:Middlewares/ST/STM32_WPAN/ble/svc/Src/p2p_stm.c ****               Notification.P2P_Evt_Opcode = P2PS_STM_WRITE_EVT;
 151:Middlewares/ST/STM32_WPAN/ble/svc/Src/p2p_stm.c ****               Notification.DataTransfered.Length=attribute_modified->Attr_Data_Length;
 152:Middlewares/ST/STM32_WPAN/ble/svc/Src/p2p_stm.c ****               Notification.DataTransfered.pPayload=attribute_modified->Attr_Data;
 153:Middlewares/ST/STM32_WPAN/ble/svc/Src/p2p_stm.c ****               P2PS_STM_App_Notification(&Notification);  
 154:Middlewares/ST/STM32_WPAN/ble/svc/Src/p2p_stm.c ****             }
 155:Middlewares/ST/STM32_WPAN/ble/svc/Src/p2p_stm.c **** #if(BLE_CFG_OTA_REBOOT_CHAR != 0)
 156:Middlewares/ST/STM32_WPAN/ble/svc/Src/p2p_stm.c ****             else if(attribute_modified->Attr_Handle == (aPeerToPeerContext.RebootReqCharHdle + 1))
 157:Middlewares/ST/STM32_WPAN/ble/svc/Src/p2p_stm.c ****             {
 158:Middlewares/ST/STM32_WPAN/ble/svc/Src/p2p_stm.c ****               BLE_DBG_P2P_STM_MSG("-- GATT : REBOOT REQUEST RECEIVED\n");
 159:Middlewares/ST/STM32_WPAN/ble/svc/Src/p2p_stm.c ****               Notification.P2P_Evt_Opcode = P2PS_STM_BOOT_REQUEST_EVT;
 160:Middlewares/ST/STM32_WPAN/ble/svc/Src/p2p_stm.c ****               Notification.DataTransfered.Length=attribute_modified->Attr_Data_Length;
 161:Middlewares/ST/STM32_WPAN/ble/svc/Src/p2p_stm.c ****               Notification.DataTransfered.pPayload=attribute_modified->Attr_Data;
 162:Middlewares/ST/STM32_WPAN/ble/svc/Src/p2p_stm.c ****               P2PS_STM_App_Notification(&Notification);
 163:Middlewares/ST/STM32_WPAN/ble/svc/Src/p2p_stm.c ****             }
ARM GAS  C:\Users\Nathan\AppData\Local\Temp\ccsUlhiB.s 			page 5


 164:Middlewares/ST/STM32_WPAN/ble/svc/Src/p2p_stm.c **** #endif
 165:Middlewares/ST/STM32_WPAN/ble/svc/Src/p2p_stm.c ****         }
 166:Middlewares/ST/STM32_WPAN/ble/svc/Src/p2p_stm.c ****         break;
 167:Middlewares/ST/STM32_WPAN/ble/svc/Src/p2p_stm.c **** 
 168:Middlewares/ST/STM32_WPAN/ble/svc/Src/p2p_stm.c ****         default:
 169:Middlewares/ST/STM32_WPAN/ble/svc/Src/p2p_stm.c ****           break;
 170:Middlewares/ST/STM32_WPAN/ble/svc/Src/p2p_stm.c ****       }
 171:Middlewares/ST/STM32_WPAN/ble/svc/Src/p2p_stm.c ****     }
 172:Middlewares/ST/STM32_WPAN/ble/svc/Src/p2p_stm.c ****     break; /* HCI_HCI_VENDOR_SPECIFIC_DEBUG_EVT_CODE_SPECIFIC */
 173:Middlewares/ST/STM32_WPAN/ble/svc/Src/p2p_stm.c **** 
 174:Middlewares/ST/STM32_WPAN/ble/svc/Src/p2p_stm.c ****     default:
 175:Middlewares/ST/STM32_WPAN/ble/svc/Src/p2p_stm.c ****       break;
 176:Middlewares/ST/STM32_WPAN/ble/svc/Src/p2p_stm.c ****   }
 177:Middlewares/ST/STM32_WPAN/ble/svc/Src/p2p_stm.c **** 
 178:Middlewares/ST/STM32_WPAN/ble/svc/Src/p2p_stm.c ****   return(return_value);
  64              		.loc 1 178 3 is_stmt 1 view .LVU18
 179:Middlewares/ST/STM32_WPAN/ble/svc/Src/p2p_stm.c **** }/* end SVCCTL_EvtAckStatus_t */
  65              		.loc 1 179 1 is_stmt 0 view .LVU19
  66 0018 7047     		bx	lr
  67              	.LVL4:
  68              	.L13:
 106:Middlewares/ST/STM32_WPAN/ble/svc/Src/p2p_stm.c ****   SVCCTL_EvtAckStatus_t return_value;
  69              		.loc 1 106 1 view .LVU20
  70 001a 10B5     		push	{r4, lr}
  71              		.cfi_def_cfa_offset 8
  72              		.cfi_offset 4, -8
  73              		.cfi_offset 14, -4
  74 001c 84B0     		sub	sp, sp, #16
  75              		.cfi_def_cfa_offset 24
 125:Middlewares/ST/STM32_WPAN/ble/svc/Src/p2p_stm.c ****             if(attribute_modified->Attr_Handle == (aPeerToPeerContext.P2PNotifyServerToClientCharHd
  76              		.loc 1 125 11 is_stmt 1 view .LVU21
  77              	.LVL5:
 126:Middlewares/ST/STM32_WPAN/ble/svc/Src/p2p_stm.c ****             {
  78              		.loc 1 126 13 view .LVU22
 126:Middlewares/ST/STM32_WPAN/ble/svc/Src/p2p_stm.c ****             {
  79              		.loc 1 126 34 is_stmt 0 view .LVU23
  80 001e B0F80720 		ldrh	r2, [r0, #7]	@ unaligned
 126:Middlewares/ST/STM32_WPAN/ble/svc/Src/p2p_stm.c ****             {
  81              		.loc 1 126 70 view .LVU24
  82 0022 174B     		ldr	r3, .L16
  83 0024 9B88     		ldrh	r3, [r3, #4]
 126:Middlewares/ST/STM32_WPAN/ble/svc/Src/p2p_stm.c ****             {
  84              		.loc 1 126 103 view .LVU25
  85 0026 0233     		adds	r3, r3, #2
 126:Middlewares/ST/STM32_WPAN/ble/svc/Src/p2p_stm.c ****             {
  86              		.loc 1 126 15 view .LVU26
  87 0028 9A42     		cmp	r2, r3
  88 002a 07D0     		beq	.L14
 147:Middlewares/ST/STM32_WPAN/ble/svc/Src/p2p_stm.c ****             {
  89              		.loc 1 147 18 is_stmt 1 view .LVU27
 147:Middlewares/ST/STM32_WPAN/ble/svc/Src/p2p_stm.c ****             {
  90              		.loc 1 147 75 is_stmt 0 view .LVU28
  91 002c 144B     		ldr	r3, .L16
  92 002e 5B88     		ldrh	r3, [r3, #2]
 147:Middlewares/ST/STM32_WPAN/ble/svc/Src/p2p_stm.c ****             {
  93              		.loc 1 147 107 view .LVU29
  94 0030 0133     		adds	r3, r3, #1
ARM GAS  C:\Users\Nathan\AppData\Local\Temp\ccsUlhiB.s 			page 6


 147:Middlewares/ST/STM32_WPAN/ble/svc/Src/p2p_stm.c ****             {
  95              		.loc 1 147 20 view .LVU30
  96 0032 9A42     		cmp	r2, r3
  97 0034 16D0     		beq	.L15
 113:Middlewares/ST/STM32_WPAN/ble/svc/Src/p2p_stm.c ****   event_pckt = (hci_event_pckt *)(((hci_uart_pckt*)Event)->data);
  98              		.loc 1 113 16 view .LVU31
  99 0036 0020     		movs	r0, #0
 100              	.LVL6:
 101              	.L2:
 178:Middlewares/ST/STM32_WPAN/ble/svc/Src/p2p_stm.c **** }/* end SVCCTL_EvtAckStatus_t */
 102              		.loc 1 178 3 is_stmt 1 view .LVU32
 103              		.loc 1 179 1 is_stmt 0 view .LVU33
 104 0038 04B0     		add	sp, sp, #16
 105              		.cfi_remember_state
 106              		.cfi_def_cfa_offset 8
 107              		@ sp needed
 108 003a 10BD     		pop	{r4, pc}
 109              	.LVL7:
 110              	.L14:
 111              		.cfi_restore_state
 131:Middlewares/ST/STM32_WPAN/ble/svc/Src/p2p_stm.c ****               /**
 112              		.loc 1 131 15 is_stmt 1 view .LVU34
 135:Middlewares/ST/STM32_WPAN/ble/svc/Src/p2p_stm.c ****               {
 113              		.loc 1 135 15 view .LVU35
 135:Middlewares/ST/STM32_WPAN/ble/svc/Src/p2p_stm.c ****               {
 114              		.loc 1 135 47 is_stmt 0 view .LVU36
 115 003c 437B     		ldrb	r3, [r0, #13]	@ zero_extendqisi2
 135:Middlewares/ST/STM32_WPAN/ble/svc/Src/p2p_stm.c ****               {
 116              		.loc 1 135 17 view .LVU37
 117 003e 13F0010F 		tst	r3, #1
 118 0042 07D0     		beq	.L4
 137:Middlewares/ST/STM32_WPAN/ble/svc/Src/p2p_stm.c ****                 P2PS_STM_App_Notification(&Notification);
 119              		.loc 1 137 17 is_stmt 1 view .LVU38
 137:Middlewares/ST/STM32_WPAN/ble/svc/Src/p2p_stm.c ****                 P2PS_STM_App_Notification(&Notification);
 120              		.loc 1 137 45 is_stmt 0 view .LVU39
 121 0044 0023     		movs	r3, #0
 122 0046 8DF80030 		strb	r3, [sp]
 138:Middlewares/ST/STM32_WPAN/ble/svc/Src/p2p_stm.c ****               }
 123              		.loc 1 138 17 is_stmt 1 view .LVU40
 124 004a 6846     		mov	r0, sp
 125              	.LVL8:
 138:Middlewares/ST/STM32_WPAN/ble/svc/Src/p2p_stm.c ****               }
 126              		.loc 1 138 17 is_stmt 0 view .LVU41
 127 004c FFF7FEFF 		bl	P2PS_STM_App_Notification
 128              	.LVL9:
 131:Middlewares/ST/STM32_WPAN/ble/svc/Src/p2p_stm.c ****               /**
 129              		.loc 1 131 28 view .LVU42
 130 0050 0120     		movs	r0, #1
 131 0052 F1E7     		b	.L2
 132              	.LVL10:
 133              	.L4:
 142:Middlewares/ST/STM32_WPAN/ble/svc/Src/p2p_stm.c ****                 P2PS_STM_App_Notification(&Notification);
 134              		.loc 1 142 17 is_stmt 1 view .LVU43
 142:Middlewares/ST/STM32_WPAN/ble/svc/Src/p2p_stm.c ****                 P2PS_STM_App_Notification(&Notification);
 135              		.loc 1 142 45 is_stmt 0 view .LVU44
 136 0054 0124     		movs	r4, #1
 137 0056 8DF80040 		strb	r4, [sp]
ARM GAS  C:\Users\Nathan\AppData\Local\Temp\ccsUlhiB.s 			page 7


 143:Middlewares/ST/STM32_WPAN/ble/svc/Src/p2p_stm.c ****               }
 138              		.loc 1 143 17 is_stmt 1 view .LVU45
 139 005a 6846     		mov	r0, sp
 140              	.LVL11:
 143:Middlewares/ST/STM32_WPAN/ble/svc/Src/p2p_stm.c ****               }
 141              		.loc 1 143 17 is_stmt 0 view .LVU46
 142 005c FFF7FEFF 		bl	P2PS_STM_App_Notification
 143              	.LVL12:
 131:Middlewares/ST/STM32_WPAN/ble/svc/Src/p2p_stm.c ****               /**
 144              		.loc 1 131 28 view .LVU47
 145 0060 2046     		mov	r0, r4
 146 0062 E9E7     		b	.L2
 147              	.LVL13:
 148              	.L15:
 149:Middlewares/ST/STM32_WPAN/ble/svc/Src/p2p_stm.c ****               Notification.P2P_Evt_Opcode = P2PS_STM_WRITE_EVT;
 149              		.loc 1 149 76 is_stmt 1 view .LVU48
 150:Middlewares/ST/STM32_WPAN/ble/svc/Src/p2p_stm.c ****               Notification.DataTransfered.Length=attribute_modified->Attr_Data_Length;
 150              		.loc 1 150 15 view .LVU49
 150:Middlewares/ST/STM32_WPAN/ble/svc/Src/p2p_stm.c ****               Notification.DataTransfered.Length=attribute_modified->Attr_Data_Length;
 151              		.loc 1 150 43 is_stmt 0 view .LVU50
 152 0064 0323     		movs	r3, #3
 153 0066 8DF80030 		strb	r3, [sp]
 151:Middlewares/ST/STM32_WPAN/ble/svc/Src/p2p_stm.c ****               Notification.DataTransfered.pPayload=attribute_modified->Attr_Data;
 154              		.loc 1 151 15 is_stmt 1 view .LVU51
 151:Middlewares/ST/STM32_WPAN/ble/svc/Src/p2p_stm.c ****               Notification.DataTransfered.pPayload=attribute_modified->Attr_Data;
 155              		.loc 1 151 68 is_stmt 0 view .LVU52
 156 006a B0F80B30 		ldrh	r3, [r0, #11]	@ unaligned
 151:Middlewares/ST/STM32_WPAN/ble/svc/Src/p2p_stm.c ****               Notification.DataTransfered.pPayload=attribute_modified->Attr_Data;
 157              		.loc 1 151 49 view .LVU53
 158 006e 8DF80830 		strb	r3, [sp, #8]
 152:Middlewares/ST/STM32_WPAN/ble/svc/Src/p2p_stm.c ****               P2PS_STM_App_Notification(&Notification);  
 159              		.loc 1 152 15 is_stmt 1 view .LVU54
 152:Middlewares/ST/STM32_WPAN/ble/svc/Src/p2p_stm.c ****               P2PS_STM_App_Notification(&Notification);  
 160              		.loc 1 152 52 is_stmt 0 view .LVU55
 161 0072 0D30     		adds	r0, r0, #13
 162              	.LVL14:
 152:Middlewares/ST/STM32_WPAN/ble/svc/Src/p2p_stm.c ****               P2PS_STM_App_Notification(&Notification);  
 163              		.loc 1 152 51 view .LVU56
 164 0074 0190     		str	r0, [sp, #4]
 153:Middlewares/ST/STM32_WPAN/ble/svc/Src/p2p_stm.c ****             }
 165              		.loc 1 153 15 is_stmt 1 view .LVU57
 166 0076 6846     		mov	r0, sp
 167              	.LVL15:
 153:Middlewares/ST/STM32_WPAN/ble/svc/Src/p2p_stm.c ****             }
 168              		.loc 1 153 15 is_stmt 0 view .LVU58
 169 0078 FFF7FEFF 		bl	P2PS_STM_App_Notification
 170              	.LVL16:
 113:Middlewares/ST/STM32_WPAN/ble/svc/Src/p2p_stm.c ****   event_pckt = (hci_event_pckt *)(((hci_uart_pckt*)Event)->data);
 171              		.loc 1 113 16 view .LVU59
 172 007c 0020     		movs	r0, #0
 173 007e DBE7     		b	.L2
 174              	.L17:
 175              		.align	2
 176              	.L16:
 177 0080 00000000 		.word	aPeerToPeerContext
 178              		.cfi_endproc
 179              	.LFE1417:
ARM GAS  C:\Users\Nathan\AppData\Local\Temp\ccsUlhiB.s 			page 8


 181              		.section	.text.P2PS_STM_Init,"ax",%progbits
 182              		.align	1
 183              		.global	P2PS_STM_Init
 184              		.syntax unified
 185              		.thumb
 186              		.thumb_func
 188              	P2PS_STM_Init:
 189              	.LFB1418:
 180:Middlewares/ST/STM32_WPAN/ble/svc/Src/p2p_stm.c **** 
 181:Middlewares/ST/STM32_WPAN/ble/svc/Src/p2p_stm.c **** 
 182:Middlewares/ST/STM32_WPAN/ble/svc/Src/p2p_stm.c **** /* Public functions ----------------------------------------------------------*/
 183:Middlewares/ST/STM32_WPAN/ble/svc/Src/p2p_stm.c **** 
 184:Middlewares/ST/STM32_WPAN/ble/svc/Src/p2p_stm.c **** /**
 185:Middlewares/ST/STM32_WPAN/ble/svc/Src/p2p_stm.c ****  * @brief  Service initialization
 186:Middlewares/ST/STM32_WPAN/ble/svc/Src/p2p_stm.c ****  * @param  None
 187:Middlewares/ST/STM32_WPAN/ble/svc/Src/p2p_stm.c ****  * @retval None
 188:Middlewares/ST/STM32_WPAN/ble/svc/Src/p2p_stm.c ****  */
 189:Middlewares/ST/STM32_WPAN/ble/svc/Src/p2p_stm.c **** void P2PS_STM_Init(void)
 190:Middlewares/ST/STM32_WPAN/ble/svc/Src/p2p_stm.c **** {
 190              		.loc 1 190 1 is_stmt 1 view -0
 191              		.cfi_startproc
 192              		@ args = 0, pretend = 0, frame = 16
 193              		@ frame_needed = 0, uses_anonymous_args = 0
 194 0000 2DE9F04F 		push	{r4, r5, r6, r7, r8, r9, r10, fp, lr}
 195              		.cfi_def_cfa_offset 36
 196              		.cfi_offset 4, -36
 197              		.cfi_offset 5, -32
 198              		.cfi_offset 6, -28
 199              		.cfi_offset 7, -24
 200              		.cfi_offset 8, -20
 201              		.cfi_offset 9, -16
 202              		.cfi_offset 10, -12
 203              		.cfi_offset 11, -8
 204              		.cfi_offset 14, -4
 205 0004 8BB0     		sub	sp, sp, #44
 206              		.cfi_def_cfa_offset 80
 191:Middlewares/ST/STM32_WPAN/ble/svc/Src/p2p_stm.c ****  
 192:Middlewares/ST/STM32_WPAN/ble/svc/Src/p2p_stm.c ****   Char_UUID_t  uuid16;
 207              		.loc 1 192 3 view .LVU61
 193:Middlewares/ST/STM32_WPAN/ble/svc/Src/p2p_stm.c **** 
 194:Middlewares/ST/STM32_WPAN/ble/svc/Src/p2p_stm.c ****   /**
 195:Middlewares/ST/STM32_WPAN/ble/svc/Src/p2p_stm.c ****    *	Register the event handler to the BLE controller
 196:Middlewares/ST/STM32_WPAN/ble/svc/Src/p2p_stm.c ****    */
 197:Middlewares/ST/STM32_WPAN/ble/svc/Src/p2p_stm.c ****   SVCCTL_RegisterSvcHandler(PeerToPeer_Event_Handler);
 208              		.loc 1 197 3 view .LVU62
 209 0006 6248     		ldr	r0, .L20
 210 0008 FFF7FEFF 		bl	SVCCTL_RegisterSvcHandler
 211              	.LVL17:
 198:Middlewares/ST/STM32_WPAN/ble/svc/Src/p2p_stm.c ****   
 199:Middlewares/ST/STM32_WPAN/ble/svc/Src/p2p_stm.c ****     /**
 200:Middlewares/ST/STM32_WPAN/ble/svc/Src/p2p_stm.c ****      *  Peer To Peer Service
 201:Middlewares/ST/STM32_WPAN/ble/svc/Src/p2p_stm.c ****      *
 202:Middlewares/ST/STM32_WPAN/ble/svc/Src/p2p_stm.c ****      * Max_Attribute_Records = 2*no_of_char + 1
 203:Middlewares/ST/STM32_WPAN/ble/svc/Src/p2p_stm.c ****      * service_max_attribute_record = 1 for Peer To Peer service +
 204:Middlewares/ST/STM32_WPAN/ble/svc/Src/p2p_stm.c ****      *                                2 for P2P Write characteristic +
 205:Middlewares/ST/STM32_WPAN/ble/svc/Src/p2p_stm.c ****      *                                2 for P2P Notify characteristic +
 206:Middlewares/ST/STM32_WPAN/ble/svc/Src/p2p_stm.c ****      *                                1 for client char configuration descriptor +
ARM GAS  C:\Users\Nathan\AppData\Local\Temp\ccsUlhiB.s 			page 9


 207:Middlewares/ST/STM32_WPAN/ble/svc/Src/p2p_stm.c ****      *                                
 208:Middlewares/ST/STM32_WPAN/ble/svc/Src/p2p_stm.c ****      */
 209:Middlewares/ST/STM32_WPAN/ble/svc/Src/p2p_stm.c ****     COPY_P2P_SERVICE_UUID(uuid16.Char_UUID_128);
 212              		.loc 1 209 5 view .LVU63
 213              		.loc 1 209 5 view .LVU64
 214 000c 8F23     		movs	r3, #143
 215 000e 8DF81830 		strb	r3, [sp, #24]
 216              		.loc 1 209 5 view .LVU65
 217 0012 E523     		movs	r3, #229
 218 0014 8DF81930 		strb	r3, [sp, #25]
 219              		.loc 1 209 5 view .LVU66
 220 0018 B323     		movs	r3, #179
 221 001a 8DF81A30 		strb	r3, [sp, #26]
 222              		.loc 1 209 5 view .LVU67
 223 001e D523     		movs	r3, #213
 224 0020 8DF81B30 		strb	r3, [sp, #27]
 225              		.loc 1 209 5 view .LVU68
 226 0024 2E23     		movs	r3, #46
 227 0026 8DF81C30 		strb	r3, [sp, #28]
 228              		.loc 1 209 5 view .LVU69
 229 002a 7F23     		movs	r3, #127
 230 002c 8DF81D30 		strb	r3, [sp, #29]
 231              		.loc 1 209 5 view .LVU70
 232 0030 4A23     		movs	r3, #74
 233 0032 8DF81E30 		strb	r3, [sp, #30]
 234              		.loc 1 209 5 view .LVU71
 235 0036 9823     		movs	r3, #152
 236 0038 8DF81F30 		strb	r3, [sp, #31]
 237              		.loc 1 209 5 view .LVU72
 238 003c 2A23     		movs	r3, #42
 239 003e 8DF82030 		strb	r3, [sp, #32]
 240              		.loc 1 209 5 view .LVU73
 241 0042 4823     		movs	r3, #72
 242 0044 8DF82130 		strb	r3, [sp, #33]
 243              		.loc 1 209 5 view .LVU74
 244 0048 7A23     		movs	r3, #122
 245 004a 8DF82230 		strb	r3, [sp, #34]
 246              		.loc 1 209 5 view .LVU75
 247 004e CC23     		movs	r3, #204
 248 0050 8DF82330 		strb	r3, [sp, #35]
 249              		.loc 1 209 5 view .LVU76
 250 0054 4023     		movs	r3, #64
 251 0056 8DF82430 		strb	r3, [sp, #36]
 252              		.loc 1 209 5 view .LVU77
 253 005a FE27     		movs	r7, #254
 254 005c 8DF82570 		strb	r7, [sp, #37]
 255              		.loc 1 209 5 view .LVU78
 256 0060 0024     		movs	r4, #0
 257 0062 8DF82640 		strb	r4, [sp, #38]
 258              		.loc 1 209 5 view .LVU79
 259 0066 8DF82740 		strb	r4, [sp, #39]
 260              		.loc 1 209 5 view .LVU80
 210:Middlewares/ST/STM32_WPAN/ble/svc/Src/p2p_stm.c ****     aci_gatt_add_service(UUID_TYPE_128,
 261              		.loc 1 210 5 view .LVU81
 262 006a 4A4B     		ldr	r3, .L20+4
 263 006c 0093     		str	r3, [sp]
 264 006e 0623     		movs	r3, #6
ARM GAS  C:\Users\Nathan\AppData\Local\Temp\ccsUlhiB.s 			page 10


 265 0070 0122     		movs	r2, #1
 266 0072 06A9     		add	r1, sp, #24
 267 0074 0220     		movs	r0, #2
 268 0076 FFF7FEFF 		bl	aci_gatt_add_service
 269              	.LVL18:
 211:Middlewares/ST/STM32_WPAN/ble/svc/Src/p2p_stm.c ****                       (Service_UUID_t *) &uuid16,
 212:Middlewares/ST/STM32_WPAN/ble/svc/Src/p2p_stm.c ****                       PRIMARY_SERVICE,
 213:Middlewares/ST/STM32_WPAN/ble/svc/Src/p2p_stm.c **** #if (BLE_CFG_OTA_REBOOT_CHAR != 0)
 214:Middlewares/ST/STM32_WPAN/ble/svc/Src/p2p_stm.c ****                       2+
 215:Middlewares/ST/STM32_WPAN/ble/svc/Src/p2p_stm.c **** #endif                      
 216:Middlewares/ST/STM32_WPAN/ble/svc/Src/p2p_stm.c ****                       6,
 217:Middlewares/ST/STM32_WPAN/ble/svc/Src/p2p_stm.c ****                       &(aPeerToPeerContext.PeerToPeerSvcHdle));
 218:Middlewares/ST/STM32_WPAN/ble/svc/Src/p2p_stm.c **** 
 219:Middlewares/ST/STM32_WPAN/ble/svc/Src/p2p_stm.c ****     /**
 220:Middlewares/ST/STM32_WPAN/ble/svc/Src/p2p_stm.c ****      *  Add LED Characteristic
 221:Middlewares/ST/STM32_WPAN/ble/svc/Src/p2p_stm.c ****      */
 222:Middlewares/ST/STM32_WPAN/ble/svc/Src/p2p_stm.c ****     COPY_P2P_WRITE_CHAR_UUID(uuid16.Char_UUID_128);
 270              		.loc 1 222 5 view .LVU82
 271              		.loc 1 222 5 view .LVU83
 272 007a 4FF0190B 		mov	fp, #25
 273 007e 8DF818B0 		strb	fp, [sp, #24]
 274              		.loc 1 222 5 view .LVU84
 275 0082 ED26     		movs	r6, #237
 276 0084 8DF81960 		strb	r6, [sp, #25]
 277              		.loc 1 222 5 view .LVU85
 278 0088 4FF0820A 		mov	r10, #130
 279 008c 8DF81AA0 		strb	r10, [sp, #26]
 280              		.loc 1 222 5 view .LVU86
 281 0090 6FF05103 		mvn	r3, #81
 282 0094 8DF81B30 		strb	r3, [sp, #27]
 283              		.loc 1 222 5 view .LVU87
 284 0098 8DF81C60 		strb	r6, [sp, #28]
 285              		.loc 1 222 5 view .LVU88
 286 009c 4FF02102 		mov	r2, #33
 287 00a0 8DF81D20 		strb	r2, [sp, #29]
 288              		.loc 1 222 5 view .LVU89
 289 00a4 4FF04C01 		mov	r1, #76
 290 00a8 8DF81E10 		strb	r1, [sp, #30]
 291              		.loc 1 222 5 view .LVU90
 292 00ac 6FF06200 		mvn	r0, #98
 293 00b0 8DF81F00 		strb	r0, [sp, #31]
 294              		.loc 1 222 5 view .LVU91
 295 00b4 4FF04108 		mov	r8, #65
 296 00b8 8DF82080 		strb	r8, [sp, #32]
 297              		.loc 1 222 5 view .LVU92
 298 00bc 4FF04505 		mov	r5, #69
 299 00c0 8DF82150 		strb	r5, [sp, #33]
 300              		.loc 1 222 5 view .LVU93
 301 00c4 4FF0220C 		mov	ip, #34
 302 00c8 8DF822C0 		strb	ip, [sp, #34]
 303              		.loc 1 222 5 view .LVU94
 304 00cc 4FF08E09 		mov	r9, #142
 305 00d0 8DF82390 		strb	r9, [sp, #35]
 306              		.loc 1 222 5 view .LVU95
 307 00d4 8DF82480 		strb	r8, [sp, #36]
 308              		.loc 1 222 5 view .LVU96
 309 00d8 8DF82570 		strb	r7, [sp, #37]
ARM GAS  C:\Users\Nathan\AppData\Local\Temp\ccsUlhiB.s 			page 11


 310              		.loc 1 222 5 view .LVU97
 311 00dc 8DF82640 		strb	r4, [sp, #38]
 312              		.loc 1 222 5 view .LVU98
 313 00e0 8DF82740 		strb	r4, [sp, #39]
 314              		.loc 1 222 5 view .LVU99
 223:Middlewares/ST/STM32_WPAN/ble/svc/Src/p2p_stm.c ****     aci_gatt_add_char(aPeerToPeerContext.PeerToPeerSvcHdle,
 315              		.loc 1 223 5 view .LVU100
 316 00e4 2B4B     		ldr	r3, .L20+4
 317 00e6 33F8020B 		ldrh	r0, [r3], #2
 318 00ea 0593     		str	r3, [sp, #20]
 319 00ec 0125     		movs	r5, #1
 320 00ee 0495     		str	r5, [sp, #16]
 321 00f0 4FF00A0E 		mov	lr, #10
 322 00f4 CDF80CE0 		str	lr, [sp, #12]
 323 00f8 0295     		str	r5, [sp, #8]
 324 00fa 0194     		str	r4, [sp, #4]
 325 00fc 0623     		movs	r3, #6
 326 00fe 0093     		str	r3, [sp]
 327 0100 0223     		movs	r3, #2
 328 0102 0DF1180E 		add	lr, sp, #24
 329 0106 7246     		mov	r2, lr
 330 0108 1946     		mov	r1, r3
 331 010a FFF7FEFF 		bl	aci_gatt_add_char
 332              	.LVL19:
 224:Middlewares/ST/STM32_WPAN/ble/svc/Src/p2p_stm.c ****                       UUID_TYPE_128, &uuid16,
 225:Middlewares/ST/STM32_WPAN/ble/svc/Src/p2p_stm.c ****                       2,                                   
 226:Middlewares/ST/STM32_WPAN/ble/svc/Src/p2p_stm.c ****                       CHAR_PROP_WRITE_WITHOUT_RESP|CHAR_PROP_READ,
 227:Middlewares/ST/STM32_WPAN/ble/svc/Src/p2p_stm.c ****                       ATTR_PERMISSION_NONE,
 228:Middlewares/ST/STM32_WPAN/ble/svc/Src/p2p_stm.c ****                       GATT_NOTIFY_ATTRIBUTE_WRITE, /* gattEvtMask */
 229:Middlewares/ST/STM32_WPAN/ble/svc/Src/p2p_stm.c ****                       10, /* encryKeySize */
 230:Middlewares/ST/STM32_WPAN/ble/svc/Src/p2p_stm.c ****                       1, /* isVariable */
 231:Middlewares/ST/STM32_WPAN/ble/svc/Src/p2p_stm.c ****                       &(aPeerToPeerContext.P2PWriteClientToServerCharHdle));
 232:Middlewares/ST/STM32_WPAN/ble/svc/Src/p2p_stm.c **** 
 233:Middlewares/ST/STM32_WPAN/ble/svc/Src/p2p_stm.c ****     /**
 234:Middlewares/ST/STM32_WPAN/ble/svc/Src/p2p_stm.c ****      *   Add Button Characteristic
 235:Middlewares/ST/STM32_WPAN/ble/svc/Src/p2p_stm.c ****      */
 236:Middlewares/ST/STM32_WPAN/ble/svc/Src/p2p_stm.c ****     COPY_P2P_NOTIFY_UUID(uuid16.Char_UUID_128);
 333              		.loc 1 236 5 view .LVU101
 334              		.loc 1 236 5 view .LVU102
 335 010e 8DF818B0 		strb	fp, [sp, #24]
 336              		.loc 1 236 5 view .LVU103
 337 0112 8DF81960 		strb	r6, [sp, #25]
 338              		.loc 1 236 5 view .LVU104
 339 0116 8DF81AA0 		strb	r10, [sp, #26]
 340              		.loc 1 236 5 view .LVU105
 341 011a 6FF05103 		mvn	r3, #81
 342 011e 8DF81B30 		strb	r3, [sp, #27]
 343              		.loc 1 236 5 view .LVU106
 344 0122 8DF81C60 		strb	r6, [sp, #28]
 345              		.loc 1 236 5 view .LVU107
 346 0126 4FF02102 		mov	r2, #33
 347 012a 8DF81D20 		strb	r2, [sp, #29]
 348              		.loc 1 236 5 view .LVU108
 349 012e 4FF04C01 		mov	r1, #76
 350 0132 8DF81E10 		strb	r1, [sp, #30]
 351              		.loc 1 236 5 view .LVU109
 352 0136 6FF06200 		mvn	r0, #98
ARM GAS  C:\Users\Nathan\AppData\Local\Temp\ccsUlhiB.s 			page 12


 353 013a 8DF81F00 		strb	r0, [sp, #31]
 354              		.loc 1 236 5 view .LVU110
 355 013e 8DF82080 		strb	r8, [sp, #32]
 356              		.loc 1 236 5 view .LVU111
 357 0142 4FF04503 		mov	r3, #69
 358 0146 8DF82130 		strb	r3, [sp, #33]
 359              		.loc 1 236 5 view .LVU112
 360 014a 4FF0220C 		mov	ip, #34
 361 014e 8DF822C0 		strb	ip, [sp, #34]
 362              		.loc 1 236 5 view .LVU113
 363 0152 8DF82390 		strb	r9, [sp, #35]
 364              		.loc 1 236 5 view .LVU114
 365 0156 4223     		movs	r3, #66
 366 0158 8DF82430 		strb	r3, [sp, #36]
 367              		.loc 1 236 5 view .LVU115
 368 015c 8DF82570 		strb	r7, [sp, #37]
 369              		.loc 1 236 5 view .LVU116
 370 0160 8DF82640 		strb	r4, [sp, #38]
 371              		.loc 1 236 5 view .LVU117
 372 0164 8DF82740 		strb	r4, [sp, #39]
 373              		.loc 1 236 5 view .LVU118
 237:Middlewares/ST/STM32_WPAN/ble/svc/Src/p2p_stm.c ****     aci_gatt_add_char(aPeerToPeerContext.PeerToPeerSvcHdle,
 374              		.loc 1 237 5 view .LVU119
 375 0168 0A4B     		ldr	r3, .L20+4
 376 016a 33F8040B 		ldrh	r0, [r3], #4
 377 016e 0593     		str	r3, [sp, #20]
 378 0170 0495     		str	r5, [sp, #16]
 379 0172 0A23     		movs	r3, #10
 380 0174 0393     		str	r3, [sp, #12]
 381 0176 0295     		str	r5, [sp, #8]
 382 0178 0194     		str	r4, [sp, #4]
 383 017a 1023     		movs	r3, #16
 384 017c 0093     		str	r3, [sp]
 385 017e 0223     		movs	r3, #2
 386 0180 06AA     		add	r2, sp, #24
 387 0182 1946     		mov	r1, r3
 388 0184 FFF7FEFF 		bl	aci_gatt_add_char
 389              	.LVL20:
 238:Middlewares/ST/STM32_WPAN/ble/svc/Src/p2p_stm.c ****                       UUID_TYPE_128, &uuid16,
 239:Middlewares/ST/STM32_WPAN/ble/svc/Src/p2p_stm.c ****                       2,
 240:Middlewares/ST/STM32_WPAN/ble/svc/Src/p2p_stm.c ****                       CHAR_PROP_NOTIFY,
 241:Middlewares/ST/STM32_WPAN/ble/svc/Src/p2p_stm.c ****                       ATTR_PERMISSION_NONE,
 242:Middlewares/ST/STM32_WPAN/ble/svc/Src/p2p_stm.c ****                       GATT_NOTIFY_ATTRIBUTE_WRITE, /* gattEvtMask */
 243:Middlewares/ST/STM32_WPAN/ble/svc/Src/p2p_stm.c ****                       10, /* encryKeySize */
 244:Middlewares/ST/STM32_WPAN/ble/svc/Src/p2p_stm.c ****                       1, /* isVariable: 1 */
 245:Middlewares/ST/STM32_WPAN/ble/svc/Src/p2p_stm.c ****                       &(aPeerToPeerContext.P2PNotifyServerToClientCharHdle));
 246:Middlewares/ST/STM32_WPAN/ble/svc/Src/p2p_stm.c ****  
 247:Middlewares/ST/STM32_WPAN/ble/svc/Src/p2p_stm.c **** #if(BLE_CFG_OTA_REBOOT_CHAR != 0)      
 248:Middlewares/ST/STM32_WPAN/ble/svc/Src/p2p_stm.c ****     /**
 249:Middlewares/ST/STM32_WPAN/ble/svc/Src/p2p_stm.c ****      *  Add Boot Request Characteristic
 250:Middlewares/ST/STM32_WPAN/ble/svc/Src/p2p_stm.c ****      */
 251:Middlewares/ST/STM32_WPAN/ble/svc/Src/p2p_stm.c ****     aci_gatt_add_char(aPeerToPeerContext.PeerToPeerSvcHdle,
 252:Middlewares/ST/STM32_WPAN/ble/svc/Src/p2p_stm.c ****                       BM_UUID_LENGTH,
 253:Middlewares/ST/STM32_WPAN/ble/svc/Src/p2p_stm.c ****                       (Char_UUID_t *)BM_REQ_CHAR_UUID,
 254:Middlewares/ST/STM32_WPAN/ble/svc/Src/p2p_stm.c ****                       BM_REQ_CHAR_SIZE,
 255:Middlewares/ST/STM32_WPAN/ble/svc/Src/p2p_stm.c ****                       CHAR_PROP_WRITE_WITHOUT_RESP,
 256:Middlewares/ST/STM32_WPAN/ble/svc/Src/p2p_stm.c ****                       ATTR_PERMISSION_NONE,
ARM GAS  C:\Users\Nathan\AppData\Local\Temp\ccsUlhiB.s 			page 13


 257:Middlewares/ST/STM32_WPAN/ble/svc/Src/p2p_stm.c ****                       GATT_NOTIFY_ATTRIBUTE_WRITE,
 258:Middlewares/ST/STM32_WPAN/ble/svc/Src/p2p_stm.c ****                       10,
 259:Middlewares/ST/STM32_WPAN/ble/svc/Src/p2p_stm.c ****                       0,
 260:Middlewares/ST/STM32_WPAN/ble/svc/Src/p2p_stm.c ****                       &(aPeerToPeerContext.RebootReqCharHdle));
 261:Middlewares/ST/STM32_WPAN/ble/svc/Src/p2p_stm.c **** #endif    
 262:Middlewares/ST/STM32_WPAN/ble/svc/Src/p2p_stm.c **** 
 263:Middlewares/ST/STM32_WPAN/ble/svc/Src/p2p_stm.c ****     
 264:Middlewares/ST/STM32_WPAN/ble/svc/Src/p2p_stm.c ****   return;
 390              		.loc 1 264 3 view .LVU120
 265:Middlewares/ST/STM32_WPAN/ble/svc/Src/p2p_stm.c **** }
 391              		.loc 1 265 1 is_stmt 0 view .LVU121
 392 0188 0BB0     		add	sp, sp, #44
 393              		.cfi_def_cfa_offset 36
 394              		@ sp needed
 395 018a BDE8F08F 		pop	{r4, r5, r6, r7, r8, r9, r10, fp, pc}
 396              	.L21:
 397 018e 00BF     		.align	2
 398              	.L20:
 399 0190 00000000 		.word	PeerToPeer_Event_Handler
 400 0194 00000000 		.word	aPeerToPeerContext
 401              		.cfi_endproc
 402              	.LFE1418:
 404              		.section	.text.P2PS_STM_App_Update_Char,"ax",%progbits
 405              		.align	1
 406              		.global	P2PS_STM_App_Update_Char
 407              		.syntax unified
 408              		.thumb
 409              		.thumb_func
 411              	P2PS_STM_App_Update_Char:
 412              	.LVL21:
 413              	.LFB1419:
 266:Middlewares/ST/STM32_WPAN/ble/svc/Src/p2p_stm.c **** 
 267:Middlewares/ST/STM32_WPAN/ble/svc/Src/p2p_stm.c **** /**
 268:Middlewares/ST/STM32_WPAN/ble/svc/Src/p2p_stm.c ****  * @brief  Characteristic update
 269:Middlewares/ST/STM32_WPAN/ble/svc/Src/p2p_stm.c ****  * @param  UUID: UUID of the characteristic
 270:Middlewares/ST/STM32_WPAN/ble/svc/Src/p2p_stm.c ****  * @param  Service_Instance: Instance of the service to which the characteristic belongs
 271:Middlewares/ST/STM32_WPAN/ble/svc/Src/p2p_stm.c ****  * 
 272:Middlewares/ST/STM32_WPAN/ble/svc/Src/p2p_stm.c ****  */
 273:Middlewares/ST/STM32_WPAN/ble/svc/Src/p2p_stm.c **** tBleStatus P2PS_STM_App_Update_Char(uint16_t UUID, uint8_t *pPayload) 
 274:Middlewares/ST/STM32_WPAN/ble/svc/Src/p2p_stm.c **** {
 414              		.loc 1 274 1 is_stmt 1 view -0
 415              		.cfi_startproc
 416              		@ args = 0, pretend = 0, frame = 0
 417              		@ frame_needed = 0, uses_anonymous_args = 0
 275:Middlewares/ST/STM32_WPAN/ble/svc/Src/p2p_stm.c ****   tBleStatus result = BLE_STATUS_INVALID_PARAMS;
 418              		.loc 1 275 3 view .LVU123
 276:Middlewares/ST/STM32_WPAN/ble/svc/Src/p2p_stm.c ****   switch(UUID)
 419              		.loc 1 276 3 view .LVU124
 420 0000 4FF64263 		movw	r3, #65090
 421 0004 9842     		cmp	r0, r3
 422 0006 01D0     		beq	.L29
 275:Middlewares/ST/STM32_WPAN/ble/svc/Src/p2p_stm.c ****   tBleStatus result = BLE_STATUS_INVALID_PARAMS;
 423              		.loc 1 275 14 is_stmt 0 view .LVU125
 424 0008 9220     		movs	r0, #146
 425              	.LVL22:
 277:Middlewares/ST/STM32_WPAN/ble/svc/Src/p2p_stm.c ****   {
 278:Middlewares/ST/STM32_WPAN/ble/svc/Src/p2p_stm.c ****     case P2P_NOTIFY_CHAR_UUID:
ARM GAS  C:\Users\Nathan\AppData\Local\Temp\ccsUlhiB.s 			page 14


 279:Middlewares/ST/STM32_WPAN/ble/svc/Src/p2p_stm.c ****       
 280:Middlewares/ST/STM32_WPAN/ble/svc/Src/p2p_stm.c ****      result = aci_gatt_update_char_value(aPeerToPeerContext.PeerToPeerSvcHdle,
 281:Middlewares/ST/STM32_WPAN/ble/svc/Src/p2p_stm.c ****                              aPeerToPeerContext.P2PNotifyServerToClientCharHdle,
 282:Middlewares/ST/STM32_WPAN/ble/svc/Src/p2p_stm.c ****                               0, /* charValOffset */
 283:Middlewares/ST/STM32_WPAN/ble/svc/Src/p2p_stm.c ****                              2, /* charValueLen */
 284:Middlewares/ST/STM32_WPAN/ble/svc/Src/p2p_stm.c ****                              (uint8_t *)  pPayload);
 285:Middlewares/ST/STM32_WPAN/ble/svc/Src/p2p_stm.c ****     
 286:Middlewares/ST/STM32_WPAN/ble/svc/Src/p2p_stm.c ****       break;
 287:Middlewares/ST/STM32_WPAN/ble/svc/Src/p2p_stm.c **** 
 288:Middlewares/ST/STM32_WPAN/ble/svc/Src/p2p_stm.c ****     default:
 289:Middlewares/ST/STM32_WPAN/ble/svc/Src/p2p_stm.c ****       break;
 290:Middlewares/ST/STM32_WPAN/ble/svc/Src/p2p_stm.c ****   }
 291:Middlewares/ST/STM32_WPAN/ble/svc/Src/p2p_stm.c **** 
 292:Middlewares/ST/STM32_WPAN/ble/svc/Src/p2p_stm.c ****   return result;
 426              		.loc 1 292 3 is_stmt 1 view .LVU126
 293:Middlewares/ST/STM32_WPAN/ble/svc/Src/p2p_stm.c **** }/* end P2PS_STM_Init() */
 427              		.loc 1 293 1 is_stmt 0 view .LVU127
 428 000a 7047     		bx	lr
 429              	.LVL23:
 430              	.L29:
 274:Middlewares/ST/STM32_WPAN/ble/svc/Src/p2p_stm.c ****   tBleStatus result = BLE_STATUS_INVALID_PARAMS;
 431              		.loc 1 274 1 view .LVU128
 432 000c 00B5     		push	{lr}
 433              		.cfi_def_cfa_offset 4
 434              		.cfi_offset 14, -4
 435 000e 83B0     		sub	sp, sp, #12
 436              		.cfi_def_cfa_offset 16
 280:Middlewares/ST/STM32_WPAN/ble/svc/Src/p2p_stm.c ****                              aPeerToPeerContext.P2PNotifyServerToClientCharHdle,
 437              		.loc 1 280 6 is_stmt 1 view .LVU129
 280:Middlewares/ST/STM32_WPAN/ble/svc/Src/p2p_stm.c ****                              aPeerToPeerContext.P2PNotifyServerToClientCharHdle,
 438              		.loc 1 280 15 is_stmt 0 view .LVU130
 439 0010 0548     		ldr	r0, .L30
 440              	.LVL24:
 280:Middlewares/ST/STM32_WPAN/ble/svc/Src/p2p_stm.c ****                              aPeerToPeerContext.P2PNotifyServerToClientCharHdle,
 441              		.loc 1 280 15 view .LVU131
 442 0012 0091     		str	r1, [sp]
 443 0014 0223     		movs	r3, #2
 444 0016 0022     		movs	r2, #0
 445 0018 8188     		ldrh	r1, [r0, #4]
 446              	.LVL25:
 280:Middlewares/ST/STM32_WPAN/ble/svc/Src/p2p_stm.c ****                              aPeerToPeerContext.P2PNotifyServerToClientCharHdle,
 447              		.loc 1 280 15 view .LVU132
 448 001a 0088     		ldrh	r0, [r0]
 449 001c FFF7FEFF 		bl	aci_gatt_update_char_value
 450              	.LVL26:
 286:Middlewares/ST/STM32_WPAN/ble/svc/Src/p2p_stm.c **** 
 451              		.loc 1 286 7 is_stmt 1 view .LVU133
 292:Middlewares/ST/STM32_WPAN/ble/svc/Src/p2p_stm.c **** }/* end P2PS_STM_Init() */
 452              		.loc 1 292 3 view .LVU134
 453              		.loc 1 293 1 is_stmt 0 view .LVU135
 454 0020 03B0     		add	sp, sp, #12
 455              		.cfi_def_cfa_offset 4
 456              		@ sp needed
 457 0022 5DF804FB 		ldr	pc, [sp], #4
 458              	.L31:
 459 0026 00BF     		.align	2
 460              	.L30:
ARM GAS  C:\Users\Nathan\AppData\Local\Temp\ccsUlhiB.s 			page 15


 461 0028 00000000 		.word	aPeerToPeerContext
 462              		.cfi_endproc
 463              	.LFE1419:
 465              		.section	BLE_DRIVER_CONTEXT,"aw"
 466              		.align	2
 469              	aPeerToPeerContext:
 470 0000 00000000 		.space	6
 470      0000
 471              		.text
 472              	.Letext0:
 473              		.file 2 "C:/PROGRAM FILES (X86)/ARM GNU TOOLCHAIN ARM-NONE-EABI/13.3 REL1/arm-none-eabi/include/ma
 474              		.file 3 "C:/PROGRAM FILES (X86)/ARM GNU TOOLCHAIN ARM-NONE-EABI/13.3 REL1/arm-none-eabi/include/sy
 475              		.file 4 "Middlewares/ST/STM32_WPAN/interface/patterns/ble_thread/tl/tl.h"
 476              		.file 5 "Middlewares/ST/STM32_WPAN/ble/core/auto/ble_types.h"
 477              		.file 6 "Core/Inc/app_conf.h"
 478              		.file 7 "Middlewares/ST/STM32_WPAN/ble/svc/Inc/p2p_stm.h"
 479              		.file 8 "Middlewares/ST/STM32_WPAN/ble/svc/Inc/svc_ctl.h"
 480              		.file 9 "Middlewares/ST/STM32_WPAN/ble/svc/Src/common_blesvc.h"
 481              		.file 10 "Middlewares/ST/STM32_WPAN/ble/core/auto/ble_gatt_aci.h"
ARM GAS  C:\Users\Nathan\AppData\Local\Temp\ccsUlhiB.s 			page 16

