ARM GAS  C:\Users\Nathan\AppData\Local\Temp\cc2pE8rH.s 			page 1


   1              		.cpu cortex-m4
   2              		.arch armv7e-m
   3              		.fpu fpv4-sp-d16
   4              		.eabi_attribute 27, 1
   5              		.eabi_attribute 28, 1
   6              		.eabi_attribute 20, 1
   7              		.eabi_attribute 21, 1
   8              		.eabi_attribute 23, 3
   9              		.eabi_attribute 24, 1
  10              		.eabi_attribute 25, 1
  11              		.eabi_attribute 26, 1
  12              		.eabi_attribute 30, 1
  13              		.eabi_attribute 34, 1
  14              		.eabi_attribute 18, 4
  15              		.file	"patchouli_bsp_glider_addon_v1.c"
  16              		.text
  17              	.Ltext0:
  18              		.cfi_sections	.debug_frame
  19              		.file 1 "patchouli/src/patchouli_bsp_glider_addon_v1.c"
  20              		.section	.text.patchouli_coil_select,"ax",%progbits
  21              		.align	1
  22              		.global	patchouli_coil_select
  23              		.syntax unified
  24              		.thumb
  25              		.thumb_func
  27              	patchouli_coil_select:
  28              	.LVL0:
  29              	.LFB1415:
   1:patchouli/src/patchouli_bsp_glider_addon_v1.c **** /*
   2:patchouli/src/patchouli_bsp_glider_addon_v1.c **** * Project Patchouli
   3:patchouli/src/patchouli_bsp_glider_addon_v1.c **** * Copyright (C) 2024 Anhang Li (thelithcore@gmail.com)
   4:patchouli/src/patchouli_bsp_glider_addon_v1.c **** *
   5:patchouli/src/patchouli_bsp_glider_addon_v1.c **** * This program is free software: you can redistribute it and/or modify
   6:patchouli/src/patchouli_bsp_glider_addon_v1.c **** * it under the terms of the GNU General Public License as published by
   7:patchouli/src/patchouli_bsp_glider_addon_v1.c **** * the Free Software Foundation, either version 3 of the License, or
   8:patchouli/src/patchouli_bsp_glider_addon_v1.c **** * (at your option) any later version.
   9:patchouli/src/patchouli_bsp_glider_addon_v1.c **** *
  10:patchouli/src/patchouli_bsp_glider_addon_v1.c **** * This program is distributed in the hope that it will be useful,
  11:patchouli/src/patchouli_bsp_glider_addon_v1.c **** * but WITHOUT ANY WARRANTY; without even the implied warranty of
  12:patchouli/src/patchouli_bsp_glider_addon_v1.c **** * MERCHANTABILITY or FITNESS FOR A PARTICULAR PURPOSE.  See the
  13:patchouli/src/patchouli_bsp_glider_addon_v1.c **** * GNU General Public License for more details.
  14:patchouli/src/patchouli_bsp_glider_addon_v1.c **** *
  15:patchouli/src/patchouli_bsp_glider_addon_v1.c **** * You should have received a copy of the GNU General Public License
  16:patchouli/src/patchouli_bsp_glider_addon_v1.c **** * along with this program.  If not, see <http://www.gnu.org/licenses/>.
  17:patchouli/src/patchouli_bsp_glider_addon_v1.c **** */
  18:patchouli/src/patchouli_bsp_glider_addon_v1.c **** 
  19:patchouli/src/patchouli_bsp_glider_addon_v1.c **** #include "patchouli_config.h"
  20:patchouli/src/patchouli_bsp_glider_addon_v1.c **** #ifdef PATCHOULI_PCB_GLIDER_ADDON_V1
  21:patchouli/src/patchouli_bsp_glider_addon_v1.c **** 
  22:patchouli/src/patchouli_bsp_glider_addon_v1.c **** #include "patchouli_bsp_glider_addon_v1.h"
  23:patchouli/src/patchouli_bsp_glider_addon_v1.c **** #include "main.h"
  24:patchouli/src/patchouli_bsp_glider_addon_v1.c **** #include "math.h"
  25:patchouli/src/patchouli_bsp_glider_addon_v1.c **** #include "patchouli_math.h"
  26:patchouli/src/patchouli_bsp_glider_addon_v1.c **** #include "patchouli.h"
  27:patchouli/src/patchouli_bsp_glider_addon_v1.c **** #include "BCG.h"
  28:patchouli/src/patchouli_bsp_glider_addon_v1.c **** #include "patchouli_bsp_tx.h"
  29:patchouli/src/patchouli_bsp_glider_addon_v1.c **** 
ARM GAS  C:\Users\Nathan\AppData\Local\Temp\cc2pE8rH.s 			page 2


  30:patchouli/src/patchouli_bsp_glider_addon_v1.c **** // ExN List
  31:patchouli/src/patchouli_bsp_glider_addon_v1.c **** #define PATCHOULI_N_EXN (6u)
  32:patchouli/src/patchouli_bsp_glider_addon_v1.c **** GPIO_TypeDef* ExN_GPIO_Port[PATCHOULI_N_EXN] = {
  33:patchouli/src/patchouli_bsp_glider_addon_v1.c ****     E0N_GPIO_Port, E1N_GPIO_Port, E2N_GPIO_Port,
  34:patchouli/src/patchouli_bsp_glider_addon_v1.c ****     E3N_GPIO_Port, E4N_GPIO_Port, E5N_GPIO_Port
  35:patchouli/src/patchouli_bsp_glider_addon_v1.c **** };
  36:patchouli/src/patchouli_bsp_glider_addon_v1.c **** uint16_t ExN_Pin[PATCHOULI_N_EXN] = {
  37:patchouli/src/patchouli_bsp_glider_addon_v1.c ****     E0N_Pin, E1N_Pin, E2N_Pin,
  38:patchouli/src/patchouli_bsp_glider_addon_v1.c ****     E3N_Pin, E4N_Pin, E5N_Pin
  39:patchouli/src/patchouli_bsp_glider_addon_v1.c **** };
  40:patchouli/src/patchouli_bsp_glider_addon_v1.c **** 
  41:patchouli/src/patchouli_bsp_glider_addon_v1.c **** 
  42:patchouli/src/patchouli_bsp_glider_addon_v1.c **** void patchouli_coil_select(int id, bool x_yn){
  30              		.loc 1 42 46 view -0
  31              		.cfi_startproc
  32              		@ args = 0, pretend = 0, frame = 8
  33              		@ frame_needed = 0, uses_anonymous_args = 0
  34              		.loc 1 42 46 is_stmt 0 view .LVU1
  35 0000 10B5     		push	{r4, lr}
  36              		.cfi_def_cfa_offset 8
  37              		.cfi_offset 4, -8
  38              		.cfi_offset 14, -4
  39 0002 82B0     		sub	sp, sp, #8
  40              		.cfi_def_cfa_offset 16
  43:patchouli/src/patchouli_bsp_glider_addon_v1.c ****     uint8_t S   = 0;
  41              		.loc 1 43 5 is_stmt 1 view .LVU2
  42              	.LVL1:
  44:patchouli/src/patchouli_bsp_glider_addon_v1.c ****     GPIO_PinState    ExN[PATCHOULI_N_EXN];
  43              		.loc 1 44 5 view .LVU3
  45:patchouli/src/patchouli_bsp_glider_addon_v1.c ****     for (int i = 0; i < PATCHOULI_N_EXN; i++) {
  44              		.loc 1 45 5 view .LVU4
  45              	.LBB11:
  46              		.loc 1 45 10 view .LVU5
  47              		.loc 1 45 14 is_stmt 0 view .LVU6
  48 0004 0023     		movs	r3, #0
  49              		.loc 1 45 5 view .LVU7
  50 0006 06E0     		b	.L2
  51              	.LVL2:
  52              	.L3:
  46:patchouli/src/patchouli_bsp_glider_addon_v1.c ****         ExN[i] = GPIO_PIN_SET; // Default state is high
  53              		.loc 1 46 9 is_stmt 1 view .LVU8
  54              		.loc 1 46 16 is_stmt 0 view .LVU9
  55 0008 03F10802 		add	r2, r3, #8
  56 000c 6A44     		add	r2, sp, r2
  57 000e 0124     		movs	r4, #1
  58 0010 02F8084C 		strb	r4, [r2, #-8]
  45:patchouli/src/patchouli_bsp_glider_addon_v1.c ****     for (int i = 0; i < PATCHOULI_N_EXN; i++) {
  59              		.loc 1 45 43 is_stmt 1 discriminator 3 view .LVU10
  60 0014 2344     		add	r3, r3, r4
  61              	.LVL3:
  62              	.L2:
  45:patchouli/src/patchouli_bsp_glider_addon_v1.c ****     for (int i = 0; i < PATCHOULI_N_EXN; i++) {
  63              		.loc 1 45 23 discriminator 1 view .LVU11
  64 0016 052B     		cmp	r3, #5
  65 0018 F6D9     		bls	.L3
  66              	.LBE11:
  47:patchouli/src/patchouli_bsp_glider_addon_v1.c ****     }
ARM GAS  C:\Users\Nathan\AppData\Local\Temp\cc2pE8rH.s 			page 3


  48:patchouli/src/patchouli_bsp_glider_addon_v1.c **** 
  49:patchouli/src/patchouli_bsp_glider_addon_v1.c ****     if(x_yn) {
  67              		.loc 1 49 5 view .LVU12
  68              		.loc 1 49 7 is_stmt 0 view .LVU13
  69 001a 0029     		cmp	r1, #0
  70 001c 00F09F80 		beq	.L4
  50:patchouli/src/patchouli_bsp_glider_addon_v1.c ****         // X Coils
  51:patchouli/src/patchouli_bsp_glider_addon_v1.c ****         if(id >= PATCHOULI_N_X_COIL) {
  71              		.loc 1 51 9 is_stmt 1 view .LVU14
  72              		.loc 1 51 11 is_stmt 0 view .LVU15
  73 0020 1B28     		cmp	r0, #27
  74 0022 00F22B81 		bhi	.L1
  52:patchouli/src/patchouli_bsp_glider_addon_v1.c ****             PATCHOULI_ErrLog("Invalid X Coil ID: %d", id);
  53:patchouli/src/patchouli_bsp_glider_addon_v1.c ****             // CDC_Transmit_FS((uint8_t*)"Invalid X Coil ID\n", 19);
  54:patchouli/src/patchouli_bsp_glider_addon_v1.c ****             return;
  55:patchouli/src/patchouli_bsp_glider_addon_v1.c ****         }
  56:patchouli/src/patchouli_bsp_glider_addon_v1.c ****         switch(id) {
  75              		.loc 1 56 9 is_stmt 1 view .LVU16
  76 0026 1B28     		cmp	r0, #27
  77 0028 00F22881 		bhi	.L1
  78 002c DFE800F0 		tbb	[pc, r0]
  79              	.LVL4:
  80              	.L7:
  81 0030 0E       		.byte	(.L34-.L7)/2
  82 0031 13       		.byte	(.L33-.L7)/2
  83 0032 18       		.byte	(.L32-.L7)/2
  84 0033 1D       		.byte	(.L31-.L7)/2
  85 0034 22       		.byte	(.L30-.L7)/2
  86 0035 27       		.byte	(.L29-.L7)/2
  87 0036 2C       		.byte	(.L28-.L7)/2
  88 0037 31       		.byte	(.L27-.L7)/2
  89 0038 35       		.byte	(.L26-.L7)/2
  90 0039 3A       		.byte	(.L25-.L7)/2
  91 003a 3F       		.byte	(.L24-.L7)/2
  92 003b 44       		.byte	(.L23-.L7)/2
  93 003c 49       		.byte	(.L22-.L7)/2
  94 003d 4E       		.byte	(.L21-.L7)/2
  95 003e 53       		.byte	(.L20-.L7)/2
  96 003f 58       		.byte	(.L19-.L7)/2
  97 0040 5C       		.byte	(.L18-.L7)/2
  98 0041 61       		.byte	(.L17-.L7)/2
  99 0042 66       		.byte	(.L16-.L7)/2
 100 0043 6B       		.byte	(.L15-.L7)/2
 101 0044 70       		.byte	(.L14-.L7)/2
 102 0045 75       		.byte	(.L13-.L7)/2
 103 0046 7A       		.byte	(.L12-.L7)/2
 104 0047 7F       		.byte	(.L11-.L7)/2
 105 0048 83       		.byte	(.L10-.L7)/2
 106 0049 88       		.byte	(.L9-.L7)/2
 107 004a 8D       		.byte	(.L8-.L7)/2
 108 004b 92       		.byte	(.L6-.L7)/2
 109              		.p2align 1
 110              	.L34:
  57:patchouli/src/patchouli_bsp_glider_addon_v1.c ****             case 0:  ExN[0] = GPIO_PIN_RESET; S = 1; break; // U7
 111              		.loc 1 57 22 view .LVU17
 112              		.loc 1 57 29 is_stmt 0 view .LVU18
 113 004c 0023     		movs	r3, #0
ARM GAS  C:\Users\Nathan\AppData\Local\Temp\cc2pE8rH.s 			page 4


 114 004e 8DF80030 		strb	r3, [sp]
 115              		.loc 1 57 47 is_stmt 1 view .LVU19
 116              	.LVL5:
 117              		.loc 1 57 54 view .LVU20
 118              		.loc 1 57 49 is_stmt 0 view .LVU21
 119 0052 0124     		movs	r4, #1
 120              		.loc 1 57 54 view .LVU22
 121 0054 98E0     		b	.L35
 122              	.LVL6:
 123              	.L33:
  58:patchouli/src/patchouli_bsp_glider_addon_v1.c ****             case 1:  ExN[0] = GPIO_PIN_RESET; S = 2; break; 
 124              		.loc 1 58 22 is_stmt 1 view .LVU23
 125              		.loc 1 58 29 is_stmt 0 view .LVU24
 126 0056 0023     		movs	r3, #0
 127 0058 8DF80030 		strb	r3, [sp]
 128              		.loc 1 58 47 is_stmt 1 view .LVU25
 129              	.LVL7:
 130              		.loc 1 58 54 view .LVU26
 131              		.loc 1 58 49 is_stmt 0 view .LVU27
 132 005c 0224     		movs	r4, #2
 133              		.loc 1 58 54 view .LVU28
 134 005e 93E0     		b	.L35
 135              	.LVL8:
 136              	.L32:
  59:patchouli/src/patchouli_bsp_glider_addon_v1.c ****             case 2:  ExN[0] = GPIO_PIN_RESET; S = 4; break; 
 137              		.loc 1 59 22 is_stmt 1 view .LVU29
 138              		.loc 1 59 29 is_stmt 0 view .LVU30
 139 0060 0023     		movs	r3, #0
 140 0062 8DF80030 		strb	r3, [sp]
 141              		.loc 1 59 47 is_stmt 1 view .LVU31
 142              	.LVL9:
 143              		.loc 1 59 54 view .LVU32
 144              		.loc 1 59 49 is_stmt 0 view .LVU33
 145 0066 0424     		movs	r4, #4
 146              		.loc 1 59 54 view .LVU34
 147 0068 8EE0     		b	.L35
 148              	.LVL10:
 149              	.L31:
  60:patchouli/src/patchouli_bsp_glider_addon_v1.c ****             case 3:  ExN[0] = GPIO_PIN_RESET; S = 6; break; 
 150              		.loc 1 60 22 is_stmt 1 view .LVU35
 151              		.loc 1 60 29 is_stmt 0 view .LVU36
 152 006a 0023     		movs	r3, #0
 153 006c 8DF80030 		strb	r3, [sp]
 154              		.loc 1 60 47 is_stmt 1 view .LVU37
 155              	.LVL11:
 156              		.loc 1 60 54 view .LVU38
 157              		.loc 1 60 49 is_stmt 0 view .LVU39
 158 0070 0624     		movs	r4, #6
 159              		.loc 1 60 54 view .LVU40
 160 0072 89E0     		b	.L35
 161              	.LVL12:
 162              	.L30:
  61:patchouli/src/patchouli_bsp_glider_addon_v1.c ****             case 4:  ExN[0] = GPIO_PIN_RESET; S = 7; break; 
 163              		.loc 1 61 22 is_stmt 1 view .LVU41
 164              		.loc 1 61 29 is_stmt 0 view .LVU42
 165 0074 0023     		movs	r3, #0
 166 0076 8DF80030 		strb	r3, [sp]
ARM GAS  C:\Users\Nathan\AppData\Local\Temp\cc2pE8rH.s 			page 5


 167              		.loc 1 61 47 is_stmt 1 view .LVU43
 168              	.LVL13:
 169              		.loc 1 61 54 view .LVU44
 170              		.loc 1 61 49 is_stmt 0 view .LVU45
 171 007a 0724     		movs	r4, #7
 172              		.loc 1 61 54 view .LVU46
 173 007c 84E0     		b	.L35
 174              	.LVL14:
 175              	.L29:
  62:patchouli/src/patchouli_bsp_glider_addon_v1.c ****             case 5:  ExN[0] = GPIO_PIN_RESET; S = 5; break; 
 176              		.loc 1 62 22 is_stmt 1 view .LVU47
 177              		.loc 1 62 29 is_stmt 0 view .LVU48
 178 007e 0023     		movs	r3, #0
 179 0080 8DF80030 		strb	r3, [sp]
 180              		.loc 1 62 47 is_stmt 1 view .LVU49
 181              	.LVL15:
 182              		.loc 1 62 54 view .LVU50
 183              		.loc 1 62 49 is_stmt 0 view .LVU51
 184 0084 0524     		movs	r4, #5
 185              		.loc 1 62 54 view .LVU52
 186 0086 7FE0     		b	.L35
 187              	.LVL16:
 188              	.L28:
  63:patchouli/src/patchouli_bsp_glider_addon_v1.c ****             case 6:  ExN[1] = GPIO_PIN_RESET; S = 3; break; // U8
 189              		.loc 1 63 22 is_stmt 1 view .LVU53
 190              		.loc 1 63 29 is_stmt 0 view .LVU54
 191 0088 0023     		movs	r3, #0
 192 008a 8DF80130 		strb	r3, [sp, #1]
 193              		.loc 1 63 47 is_stmt 1 view .LVU55
 194              	.LVL17:
 195              		.loc 1 63 54 view .LVU56
 196              		.loc 1 63 49 is_stmt 0 view .LVU57
 197 008e 0324     		movs	r4, #3
 198              		.loc 1 63 54 view .LVU58
 199 0090 7AE0     		b	.L35
 200              	.LVL18:
 201              	.L27:
  64:patchouli/src/patchouli_bsp_glider_addon_v1.c ****             case 7:  ExN[1] = GPIO_PIN_RESET; S = 0; break; 
 202              		.loc 1 64 22 is_stmt 1 view .LVU59
 203              		.loc 1 64 29 is_stmt 0 view .LVU60
 204 0092 0024     		movs	r4, #0
 205 0094 8DF80140 		strb	r4, [sp, #1]
 206              		.loc 1 64 47 is_stmt 1 view .LVU61
 207              		.loc 1 64 54 view .LVU62
 208 0098 76E0     		b	.L35
 209              	.L26:
  65:patchouli/src/patchouli_bsp_glider_addon_v1.c ****             case 8:  ExN[1] = GPIO_PIN_RESET; S = 1; break; 
 210              		.loc 1 65 22 view .LVU63
 211              		.loc 1 65 29 is_stmt 0 view .LVU64
 212 009a 0023     		movs	r3, #0
 213 009c 8DF80130 		strb	r3, [sp, #1]
 214              		.loc 1 65 47 is_stmt 1 view .LVU65
 215              	.LVL19:
 216              		.loc 1 65 54 view .LVU66
 217              		.loc 1 65 49 is_stmt 0 view .LVU67
 218 00a0 0124     		movs	r4, #1
 219              		.loc 1 65 54 view .LVU68
ARM GAS  C:\Users\Nathan\AppData\Local\Temp\cc2pE8rH.s 			page 6


 220 00a2 71E0     		b	.L35
 221              	.LVL20:
 222              	.L25:
  66:patchouli/src/patchouli_bsp_glider_addon_v1.c ****             case 9:  ExN[1] = GPIO_PIN_RESET; S = 2; break; 
 223              		.loc 1 66 22 is_stmt 1 view .LVU69
 224              		.loc 1 66 29 is_stmt 0 view .LVU70
 225 00a4 0023     		movs	r3, #0
 226 00a6 8DF80130 		strb	r3, [sp, #1]
 227              		.loc 1 66 47 is_stmt 1 view .LVU71
 228              	.LVL21:
 229              		.loc 1 66 54 view .LVU72
 230              		.loc 1 66 49 is_stmt 0 view .LVU73
 231 00aa 0224     		movs	r4, #2
 232              		.loc 1 66 54 view .LVU74
 233 00ac 6CE0     		b	.L35
 234              	.LVL22:
 235              	.L24:
  67:patchouli/src/patchouli_bsp_glider_addon_v1.c ****             case 10:  ExN[1] = GPIO_PIN_RESET; S = 4; break; 
 236              		.loc 1 67 23 is_stmt 1 view .LVU75
 237              		.loc 1 67 30 is_stmt 0 view .LVU76
 238 00ae 0023     		movs	r3, #0
 239 00b0 8DF80130 		strb	r3, [sp, #1]
 240              		.loc 1 67 48 is_stmt 1 view .LVU77
 241              	.LVL23:
 242              		.loc 1 67 55 view .LVU78
 243              		.loc 1 67 50 is_stmt 0 view .LVU79
 244 00b4 0424     		movs	r4, #4
 245              		.loc 1 67 55 view .LVU80
 246 00b6 67E0     		b	.L35
 247              	.LVL24:
 248              	.L23:
  68:patchouli/src/patchouli_bsp_glider_addon_v1.c ****             case 11:  ExN[1] = GPIO_PIN_RESET; S = 6; break; 
 249              		.loc 1 68 23 is_stmt 1 view .LVU81
 250              		.loc 1 68 30 is_stmt 0 view .LVU82
 251 00b8 0023     		movs	r3, #0
 252 00ba 8DF80130 		strb	r3, [sp, #1]
 253              		.loc 1 68 48 is_stmt 1 view .LVU83
 254              	.LVL25:
 255              		.loc 1 68 55 view .LVU84
 256              		.loc 1 68 50 is_stmt 0 view .LVU85
 257 00be 0624     		movs	r4, #6
 258              		.loc 1 68 55 view .LVU86
 259 00c0 62E0     		b	.L35
 260              	.LVL26:
 261              	.L22:
  69:patchouli/src/patchouli_bsp_glider_addon_v1.c ****             case 12:  ExN[1] = GPIO_PIN_RESET; S = 7; break; 
 262              		.loc 1 69 23 is_stmt 1 view .LVU87
 263              		.loc 1 69 30 is_stmt 0 view .LVU88
 264 00c2 0023     		movs	r3, #0
 265 00c4 8DF80130 		strb	r3, [sp, #1]
 266              		.loc 1 69 48 is_stmt 1 view .LVU89
 267              	.LVL27:
 268              		.loc 1 69 55 view .LVU90
 269              		.loc 1 69 50 is_stmt 0 view .LVU91
 270 00c8 0724     		movs	r4, #7
 271              		.loc 1 69 55 view .LVU92
 272 00ca 5DE0     		b	.L35
ARM GAS  C:\Users\Nathan\AppData\Local\Temp\cc2pE8rH.s 			page 7


 273              	.LVL28:
 274              	.L21:
  70:patchouli/src/patchouli_bsp_glider_addon_v1.c ****             case 13:  ExN[1] = GPIO_PIN_RESET; S = 5; break; 
 275              		.loc 1 70 23 is_stmt 1 view .LVU93
 276              		.loc 1 70 30 is_stmt 0 view .LVU94
 277 00cc 0023     		movs	r3, #0
 278 00ce 8DF80130 		strb	r3, [sp, #1]
 279              		.loc 1 70 48 is_stmt 1 view .LVU95
 280              	.LVL29:
 281              		.loc 1 70 55 view .LVU96
 282              		.loc 1 70 50 is_stmt 0 view .LVU97
 283 00d2 0524     		movs	r4, #5
 284              		.loc 1 70 55 view .LVU98
 285 00d4 58E0     		b	.L35
 286              	.LVL30:
 287              	.L20:
  71:patchouli/src/patchouli_bsp_glider_addon_v1.c ****             case 14:  ExN[2] = GPIO_PIN_RESET; S = 3; break; // U9 
 288              		.loc 1 71 23 is_stmt 1 view .LVU99
 289              		.loc 1 71 30 is_stmt 0 view .LVU100
 290 00d6 0023     		movs	r3, #0
 291 00d8 8DF80230 		strb	r3, [sp, #2]
 292              		.loc 1 71 48 is_stmt 1 view .LVU101
 293              	.LVL31:
 294              		.loc 1 71 55 view .LVU102
 295              		.loc 1 71 50 is_stmt 0 view .LVU103
 296 00dc 0324     		movs	r4, #3
 297              		.loc 1 71 55 view .LVU104
 298 00de 53E0     		b	.L35
 299              	.LVL32:
 300              	.L19:
  72:patchouli/src/patchouli_bsp_glider_addon_v1.c ****             case 15:  ExN[2] = GPIO_PIN_RESET; S = 0; break;
 301              		.loc 1 72 23 is_stmt 1 view .LVU105
 302              		.loc 1 72 30 is_stmt 0 view .LVU106
 303 00e0 0024     		movs	r4, #0
 304 00e2 8DF80240 		strb	r4, [sp, #2]
 305              		.loc 1 72 48 is_stmt 1 view .LVU107
 306              		.loc 1 72 55 view .LVU108
 307 00e6 4FE0     		b	.L35
 308              	.L18:
  73:patchouli/src/patchouli_bsp_glider_addon_v1.c ****             case 16:  ExN[2] = GPIO_PIN_RESET; S = 1; break;
 309              		.loc 1 73 23 view .LVU109
 310              		.loc 1 73 30 is_stmt 0 view .LVU110
 311 00e8 0023     		movs	r3, #0
 312 00ea 8DF80230 		strb	r3, [sp, #2]
 313              		.loc 1 73 48 is_stmt 1 view .LVU111
 314              	.LVL33:
 315              		.loc 1 73 55 view .LVU112
 316              		.loc 1 73 50 is_stmt 0 view .LVU113
 317 00ee 0124     		movs	r4, #1
 318              		.loc 1 73 55 view .LVU114
 319 00f0 4AE0     		b	.L35
 320              	.LVL34:
 321              	.L17:
  74:patchouli/src/patchouli_bsp_glider_addon_v1.c ****             case 17:  ExN[2] = GPIO_PIN_RESET; S = 2; break;
 322              		.loc 1 74 23 is_stmt 1 view .LVU115
 323              		.loc 1 74 30 is_stmt 0 view .LVU116
 324 00f2 0023     		movs	r3, #0
ARM GAS  C:\Users\Nathan\AppData\Local\Temp\cc2pE8rH.s 			page 8


 325 00f4 8DF80230 		strb	r3, [sp, #2]
 326              		.loc 1 74 48 is_stmt 1 view .LVU117
 327              	.LVL35:
 328              		.loc 1 74 55 view .LVU118
 329              		.loc 1 74 50 is_stmt 0 view .LVU119
 330 00f8 0224     		movs	r4, #2
 331              		.loc 1 74 55 view .LVU120
 332 00fa 45E0     		b	.L35
 333              	.LVL36:
 334              	.L16:
  75:patchouli/src/patchouli_bsp_glider_addon_v1.c ****             case 18:  ExN[2] = GPIO_PIN_RESET; S = 4; break;
 335              		.loc 1 75 23 is_stmt 1 view .LVU121
 336              		.loc 1 75 30 is_stmt 0 view .LVU122
 337 00fc 0023     		movs	r3, #0
 338 00fe 8DF80230 		strb	r3, [sp, #2]
 339              		.loc 1 75 48 is_stmt 1 view .LVU123
 340              	.LVL37:
 341              		.loc 1 75 55 view .LVU124
 342              		.loc 1 75 50 is_stmt 0 view .LVU125
 343 0102 0424     		movs	r4, #4
 344              		.loc 1 75 55 view .LVU126
 345 0104 40E0     		b	.L35
 346              	.LVL38:
 347              	.L15:
  76:patchouli/src/patchouli_bsp_glider_addon_v1.c ****             case 19:  ExN[2] = GPIO_PIN_RESET; S = 6; break;
 348              		.loc 1 76 23 is_stmt 1 view .LVU127
 349              		.loc 1 76 30 is_stmt 0 view .LVU128
 350 0106 0023     		movs	r3, #0
 351 0108 8DF80230 		strb	r3, [sp, #2]
 352              		.loc 1 76 48 is_stmt 1 view .LVU129
 353              	.LVL39:
 354              		.loc 1 76 55 view .LVU130
 355              		.loc 1 76 50 is_stmt 0 view .LVU131
 356 010c 0624     		movs	r4, #6
 357              		.loc 1 76 55 view .LVU132
 358 010e 3BE0     		b	.L35
 359              	.LVL40:
 360              	.L14:
  77:patchouli/src/patchouli_bsp_glider_addon_v1.c ****             case 20:  ExN[2] = GPIO_PIN_RESET; S = 7; break;
 361              		.loc 1 77 23 is_stmt 1 view .LVU133
 362              		.loc 1 77 30 is_stmt 0 view .LVU134
 363 0110 0023     		movs	r3, #0
 364 0112 8DF80230 		strb	r3, [sp, #2]
 365              		.loc 1 77 48 is_stmt 1 view .LVU135
 366              	.LVL41:
 367              		.loc 1 77 55 view .LVU136
 368              		.loc 1 77 50 is_stmt 0 view .LVU137
 369 0116 0724     		movs	r4, #7
 370              		.loc 1 77 55 view .LVU138
 371 0118 36E0     		b	.L35
 372              	.LVL42:
 373              	.L13:
  78:patchouli/src/patchouli_bsp_glider_addon_v1.c ****             case 21:  ExN[2] = GPIO_PIN_RESET; S = 5; break;
 374              		.loc 1 78 23 is_stmt 1 view .LVU139
 375              		.loc 1 78 30 is_stmt 0 view .LVU140
 376 011a 0023     		movs	r3, #0
 377 011c 8DF80230 		strb	r3, [sp, #2]
ARM GAS  C:\Users\Nathan\AppData\Local\Temp\cc2pE8rH.s 			page 9


 378              		.loc 1 78 48 is_stmt 1 view .LVU141
 379              	.LVL43:
 380              		.loc 1 78 55 view .LVU142
 381              		.loc 1 78 50 is_stmt 0 view .LVU143
 382 0120 0524     		movs	r4, #5
 383              		.loc 1 78 55 view .LVU144
 384 0122 31E0     		b	.L35
 385              	.LVL44:
 386              	.L12:
  79:patchouli/src/patchouli_bsp_glider_addon_v1.c ****             case 22:  ExN[3] = GPIO_PIN_RESET; S = 3; break; // U10
 387              		.loc 1 79 23 is_stmt 1 view .LVU145
 388              		.loc 1 79 30 is_stmt 0 view .LVU146
 389 0124 0023     		movs	r3, #0
 390 0126 8DF80330 		strb	r3, [sp, #3]
 391              		.loc 1 79 48 is_stmt 1 view .LVU147
 392              	.LVL45:
 393              		.loc 1 79 55 view .LVU148
 394              		.loc 1 79 50 is_stmt 0 view .LVU149
 395 012a 0324     		movs	r4, #3
 396              		.loc 1 79 55 view .LVU150
 397 012c 2CE0     		b	.L35
 398              	.LVL46:
 399              	.L11:
  80:patchouli/src/patchouli_bsp_glider_addon_v1.c ****             case 23:  ExN[3] = GPIO_PIN_RESET; S = 0; break;
 400              		.loc 1 80 23 is_stmt 1 view .LVU151
 401              		.loc 1 80 30 is_stmt 0 view .LVU152
 402 012e 0024     		movs	r4, #0
 403 0130 8DF80340 		strb	r4, [sp, #3]
 404              		.loc 1 80 48 is_stmt 1 view .LVU153
 405              		.loc 1 80 55 view .LVU154
 406 0134 28E0     		b	.L35
 407              	.L10:
  81:patchouli/src/patchouli_bsp_glider_addon_v1.c ****             case 24:  ExN[3] = GPIO_PIN_RESET; S = 1; break;
 408              		.loc 1 81 23 view .LVU155
 409              		.loc 1 81 30 is_stmt 0 view .LVU156
 410 0136 0023     		movs	r3, #0
 411 0138 8DF80330 		strb	r3, [sp, #3]
 412              		.loc 1 81 48 is_stmt 1 view .LVU157
 413              	.LVL47:
 414              		.loc 1 81 55 view .LVU158
 415              		.loc 1 81 50 is_stmt 0 view .LVU159
 416 013c 0124     		movs	r4, #1
 417              		.loc 1 81 55 view .LVU160
 418 013e 23E0     		b	.L35
 419              	.LVL48:
 420              	.L9:
  82:patchouli/src/patchouli_bsp_glider_addon_v1.c ****             case 25:  ExN[3] = GPIO_PIN_RESET; S = 2; break;
 421              		.loc 1 82 23 is_stmt 1 view .LVU161
 422              		.loc 1 82 30 is_stmt 0 view .LVU162
 423 0140 0023     		movs	r3, #0
 424 0142 8DF80330 		strb	r3, [sp, #3]
 425              		.loc 1 82 48 is_stmt 1 view .LVU163
 426              	.LVL49:
 427              		.loc 1 82 55 view .LVU164
 428              		.loc 1 82 50 is_stmt 0 view .LVU165
 429 0146 0224     		movs	r4, #2
 430              		.loc 1 82 55 view .LVU166
ARM GAS  C:\Users\Nathan\AppData\Local\Temp\cc2pE8rH.s 			page 10


 431 0148 1EE0     		b	.L35
 432              	.LVL50:
 433              	.L8:
  83:patchouli/src/patchouli_bsp_glider_addon_v1.c ****             case 26:  ExN[3] = GPIO_PIN_RESET; S = 4; break;
 434              		.loc 1 83 23 is_stmt 1 view .LVU167
 435              		.loc 1 83 30 is_stmt 0 view .LVU168
 436 014a 0023     		movs	r3, #0
 437 014c 8DF80330 		strb	r3, [sp, #3]
 438              		.loc 1 83 48 is_stmt 1 view .LVU169
 439              	.LVL51:
 440              		.loc 1 83 55 view .LVU170
 441              		.loc 1 83 50 is_stmt 0 view .LVU171
 442 0150 0424     		movs	r4, #4
 443              		.loc 1 83 55 view .LVU172
 444 0152 19E0     		b	.L35
 445              	.LVL52:
 446              	.L6:
  84:patchouli/src/patchouli_bsp_glider_addon_v1.c ****             case 27:  ExN[3] = GPIO_PIN_RESET; S = 6; break;
 447              		.loc 1 84 23 is_stmt 1 view .LVU173
 448              		.loc 1 84 30 is_stmt 0 view .LVU174
 449 0154 0023     		movs	r3, #0
 450 0156 8DF80330 		strb	r3, [sp, #3]
 451              		.loc 1 84 48 is_stmt 1 view .LVU175
 452              	.LVL53:
 453              		.loc 1 84 55 view .LVU176
 454              		.loc 1 84 50 is_stmt 0 view .LVU177
 455 015a 0624     		movs	r4, #6
 456              		.loc 1 84 55 view .LVU178
 457 015c 14E0     		b	.L35
 458              	.LVL54:
 459              	.L4:
  85:patchouli/src/patchouli_bsp_glider_addon_v1.c ****             default: 
  86:patchouli/src/patchouli_bsp_glider_addon_v1.c ****                 PATCHOULI_ErrLog("Invalid X Coil ID: %d", id); 
  87:patchouli/src/patchouli_bsp_glider_addon_v1.c ****                 // CDC_Transmit_FS((uint8_t*)"Invalid X Coil ID2\n", 20);
  88:patchouli/src/patchouli_bsp_glider_addon_v1.c ****                 return;
  89:patchouli/src/patchouli_bsp_glider_addon_v1.c ****         }
  90:patchouli/src/patchouli_bsp_glider_addon_v1.c ****     } else {
  91:patchouli/src/patchouli_bsp_glider_addon_v1.c ****         // Y Coils
  92:patchouli/src/patchouli_bsp_glider_addon_v1.c ****         if(id >= PATCHOULI_N_Y_COIL) {
 460              		.loc 1 92 9 is_stmt 1 view .LVU179
 461              		.loc 1 92 11 is_stmt 0 view .LVU180
 462 015e 1128     		cmp	r0, #17
 463 0160 00F28C80 		bhi	.L1
  93:patchouli/src/patchouli_bsp_glider_addon_v1.c ****             PATCHOULI_ErrLog("Invalid Y Coil ID: %d", id);
  94:patchouli/src/patchouli_bsp_glider_addon_v1.c ****             // CDC_Transmit_FS((uint8_t*)"Invalid Y Coil ID\n", 19);
  95:patchouli/src/patchouli_bsp_glider_addon_v1.c ****             return;
  96:patchouli/src/patchouli_bsp_glider_addon_v1.c ****         }
  97:patchouli/src/patchouli_bsp_glider_addon_v1.c ****         switch (id) {
 464              		.loc 1 97 9 is_stmt 1 view .LVU181
 465 0164 1128     		cmp	r0, #17
 466 0166 00F28980 		bhi	.L1
 467 016a DFE800F0 		tbb	[pc, r0]
 468              	.LVL55:
 469              	.L37:
 470 016e 09       		.byte	(.L54-.L37)/2
 471 016f 25       		.byte	(.L53-.L37)/2
 472 0170 29       		.byte	(.L52-.L37)/2
ARM GAS  C:\Users\Nathan\AppData\Local\Temp\cc2pE8rH.s 			page 11


 473 0171 2E       		.byte	(.L51-.L37)/2
 474 0172 33       		.byte	(.L50-.L37)/2
 475 0173 38       		.byte	(.L49-.L37)/2
 476 0174 3D       		.byte	(.L48-.L37)/2
 477 0175 42       		.byte	(.L47-.L37)/2
 478 0176 47       		.byte	(.L46-.L37)/2
 479 0177 4C       		.byte	(.L45-.L37)/2
 480 0178 50       		.byte	(.L44-.L37)/2
 481 0179 55       		.byte	(.L43-.L37)/2
 482 017a 5A       		.byte	(.L42-.L37)/2
 483 017b 5F       		.byte	(.L41-.L37)/2
 484 017c 64       		.byte	(.L40-.L37)/2
 485 017d 69       		.byte	(.L39-.L37)/2
 486 017e 6E       		.byte	(.L38-.L37)/2
 487 017f 73       		.byte	(.L36-.L37)/2
 488              		.p2align 1
 489              	.L54:
  98:patchouli/src/patchouli_bsp_glider_addon_v1.c ****             case 0:  ExN[4] = GPIO_PIN_RESET; S = 3; break; // U11
 490              		.loc 1 98 22 view .LVU182
 491              		.loc 1 98 29 is_stmt 0 view .LVU183
 492 0180 0023     		movs	r3, #0
 493 0182 8DF80430 		strb	r3, [sp, #4]
 494              		.loc 1 98 47 is_stmt 1 view .LVU184
 495              	.LVL56:
 496              		.loc 1 98 54 view .LVU185
 497              		.loc 1 98 49 is_stmt 0 view .LVU186
 498 0186 0324     		movs	r4, #3
 499              	.LVL57:
 500              	.L35:
  99:patchouli/src/patchouli_bsp_glider_addon_v1.c ****             case 1:  ExN[4] = GPIO_PIN_RESET; S = 0; break;
 100:patchouli/src/patchouli_bsp_glider_addon_v1.c ****             case 2:  ExN[4] = GPIO_PIN_RESET; S = 1; break;
 101:patchouli/src/patchouli_bsp_glider_addon_v1.c ****             case 3:  ExN[4] = GPIO_PIN_RESET; S = 2; break;
 102:patchouli/src/patchouli_bsp_glider_addon_v1.c ****             case 4:  ExN[4] = GPIO_PIN_RESET; S = 4; break;
 103:patchouli/src/patchouli_bsp_glider_addon_v1.c ****             case 5:  ExN[4] = GPIO_PIN_RESET; S = 6; break;
 104:patchouli/src/patchouli_bsp_glider_addon_v1.c ****             case 6:  ExN[4] = GPIO_PIN_RESET; S = 7; break;
 105:patchouli/src/patchouli_bsp_glider_addon_v1.c ****             case 7:  ExN[4] = GPIO_PIN_RESET; S = 5; break;
 106:patchouli/src/patchouli_bsp_glider_addon_v1.c ****             case 8:  ExN[5] = GPIO_PIN_RESET; S = 3; break; // U12
 107:patchouli/src/patchouli_bsp_glider_addon_v1.c ****             case 9:  ExN[5] = GPIO_PIN_RESET; S = 0; break;
 108:patchouli/src/patchouli_bsp_glider_addon_v1.c ****             case 10:  ExN[5] = GPIO_PIN_RESET; S = 1; break;
 109:patchouli/src/patchouli_bsp_glider_addon_v1.c ****             case 11:  ExN[5] = GPIO_PIN_RESET; S = 2; break;
 110:patchouli/src/patchouli_bsp_glider_addon_v1.c ****             case 12:  ExN[5] = GPIO_PIN_RESET; S = 4; break;
 111:patchouli/src/patchouli_bsp_glider_addon_v1.c ****             case 13:  ExN[5] = GPIO_PIN_RESET; S = 6; break;
 112:patchouli/src/patchouli_bsp_glider_addon_v1.c ****             case 14:  ExN[5] = GPIO_PIN_RESET; S = 7; break;
 113:patchouli/src/patchouli_bsp_glider_addon_v1.c ****             case 15:  ExN[5] = GPIO_PIN_RESET; S = 5; break;
 114:patchouli/src/patchouli_bsp_glider_addon_v1.c ****             case 16:  ExN[0] = GPIO_PIN_RESET; S = 3; break; // U7
 115:patchouli/src/patchouli_bsp_glider_addon_v1.c ****             case 17:  ExN[0] = GPIO_PIN_RESET; S = 0; break;
 116:patchouli/src/patchouli_bsp_glider_addon_v1.c ****             
 117:patchouli/src/patchouli_bsp_glider_addon_v1.c ****             default: 
 118:patchouli/src/patchouli_bsp_glider_addon_v1.c ****                 PATCHOULI_ErrLog("Invalid Y Coil ID: %d", id);
 119:patchouli/src/patchouli_bsp_glider_addon_v1.c ****                 // CDC_Transmit_FS((uint8_t*)"Invalid Y Coil ID2\n", 20);
 120:patchouli/src/patchouli_bsp_glider_addon_v1.c ****                 return;
 121:patchouli/src/patchouli_bsp_glider_addon_v1.c ****         }
 122:patchouli/src/patchouli_bsp_glider_addon_v1.c ****     }
 123:patchouli/src/patchouli_bsp_glider_addon_v1.c ****     HAL_GPIO_WritePin(S0_GPIO_Port,  S0_Pin,  (S & 0x01)?GPIO_PIN_SET:GPIO_PIN_RESET);
 501              		.loc 1 123 5 is_stmt 1 view .LVU187
 502 0188 04F00102 		and	r2, r4, #1
 503 018c 4FF48061 		mov	r1, #1024
ARM GAS  C:\Users\Nathan\AppData\Local\Temp\cc2pE8rH.s 			page 12


 504              	.LVL58:
 505              		.loc 1 123 5 is_stmt 0 view .LVU188
 506 0190 3B48     		ldr	r0, .L60
 507              	.LVL59:
 508              		.loc 1 123 5 view .LVU189
 509 0192 FFF7FEFF 		bl	HAL_GPIO_WritePin
 510              	.LVL60:
 124:patchouli/src/patchouli_bsp_glider_addon_v1.c ****     HAL_GPIO_WritePin(S1_GPIO_Port,  S1_Pin,  ((S >> 1) & 0x01)?GPIO_PIN_SET:GPIO_PIN_RESET);
 511              		.loc 1 124 5 is_stmt 1 view .LVU190
 512 0196 C4F34002 		ubfx	r2, r4, #1, #1
 513 019a 4FF40041 		mov	r1, #32768
 514 019e 4FF09040 		mov	r0, #1207959552
 515 01a2 FFF7FEFF 		bl	HAL_GPIO_WritePin
 516              	.LVL61:
 125:patchouli/src/patchouli_bsp_glider_addon_v1.c ****     HAL_GPIO_WritePin(S2_GPIO_Port,  S2_Pin,  ((S >> 2) & 0x01)?GPIO_PIN_SET:GPIO_PIN_RESET);
 517              		.loc 1 125 5 view .LVU191
 518 01a6 A208     		lsrs	r2, r4, #2
 519 01a8 4FF48041 		mov	r1, #16384
 520 01ac 4FF09040 		mov	r0, #1207959552
 521 01b0 FFF7FEFF 		bl	HAL_GPIO_WritePin
 522              	.LVL62:
 126:patchouli/src/patchouli_bsp_glider_addon_v1.c ****     for (int i = 0; i < PATCHOULI_N_EXN; i++) {
 523              		.loc 1 126 5 view .LVU192
 524              	.LBB12:
 525              		.loc 1 126 10 view .LVU193
 526              		.loc 1 126 14 is_stmt 0 view .LVU194
 527 01b4 0024     		movs	r4, #0
 528              	.LVL63:
 529              		.loc 1 126 5 view .LVU195
 530 01b6 5FE0     		b	.L55
 531              	.LVL64:
 532              	.L53:
 533              		.loc 1 126 5 view .LVU196
 534              	.LBE12:
  99:patchouli/src/patchouli_bsp_glider_addon_v1.c ****             case 2:  ExN[4] = GPIO_PIN_RESET; S = 1; break;
 535              		.loc 1 99 22 is_stmt 1 view .LVU197
  99:patchouli/src/patchouli_bsp_glider_addon_v1.c ****             case 2:  ExN[4] = GPIO_PIN_RESET; S = 1; break;
 536              		.loc 1 99 29 is_stmt 0 view .LVU198
 537 01b8 0024     		movs	r4, #0
 538 01ba 8DF80440 		strb	r4, [sp, #4]
  99:patchouli/src/patchouli_bsp_glider_addon_v1.c ****             case 2:  ExN[4] = GPIO_PIN_RESET; S = 1; break;
 539              		.loc 1 99 47 is_stmt 1 view .LVU199
  99:patchouli/src/patchouli_bsp_glider_addon_v1.c ****             case 2:  ExN[4] = GPIO_PIN_RESET; S = 1; break;
 540              		.loc 1 99 54 view .LVU200
 541 01be E3E7     		b	.L35
 542              	.L52:
 100:patchouli/src/patchouli_bsp_glider_addon_v1.c ****             case 3:  ExN[4] = GPIO_PIN_RESET; S = 2; break;
 543              		.loc 1 100 22 view .LVU201
 100:patchouli/src/patchouli_bsp_glider_addon_v1.c ****             case 3:  ExN[4] = GPIO_PIN_RESET; S = 2; break;
 544              		.loc 1 100 29 is_stmt 0 view .LVU202
 545 01c0 0023     		movs	r3, #0
 546 01c2 8DF80430 		strb	r3, [sp, #4]
 100:patchouli/src/patchouli_bsp_glider_addon_v1.c ****             case 3:  ExN[4] = GPIO_PIN_RESET; S = 2; break;
 547              		.loc 1 100 47 is_stmt 1 view .LVU203
 548              	.LVL65:
 100:patchouli/src/patchouli_bsp_glider_addon_v1.c ****             case 3:  ExN[4] = GPIO_PIN_RESET; S = 2; break;
 549              		.loc 1 100 54 view .LVU204
ARM GAS  C:\Users\Nathan\AppData\Local\Temp\cc2pE8rH.s 			page 13


 100:patchouli/src/patchouli_bsp_glider_addon_v1.c ****             case 3:  ExN[4] = GPIO_PIN_RESET; S = 2; break;
 550              		.loc 1 100 49 is_stmt 0 view .LVU205
 551 01c6 0124     		movs	r4, #1
 100:patchouli/src/patchouli_bsp_glider_addon_v1.c ****             case 3:  ExN[4] = GPIO_PIN_RESET; S = 2; break;
 552              		.loc 1 100 54 view .LVU206
 553 01c8 DEE7     		b	.L35
 554              	.LVL66:
 555              	.L51:
 101:patchouli/src/patchouli_bsp_glider_addon_v1.c ****             case 4:  ExN[4] = GPIO_PIN_RESET; S = 4; break;
 556              		.loc 1 101 22 is_stmt 1 view .LVU207
 101:patchouli/src/patchouli_bsp_glider_addon_v1.c ****             case 4:  ExN[4] = GPIO_PIN_RESET; S = 4; break;
 557              		.loc 1 101 29 is_stmt 0 view .LVU208
 558 01ca 0023     		movs	r3, #0
 559 01cc 8DF80430 		strb	r3, [sp, #4]
 101:patchouli/src/patchouli_bsp_glider_addon_v1.c ****             case 4:  ExN[4] = GPIO_PIN_RESET; S = 4; break;
 560              		.loc 1 101 47 is_stmt 1 view .LVU209
 561              	.LVL67:
 101:patchouli/src/patchouli_bsp_glider_addon_v1.c ****             case 4:  ExN[4] = GPIO_PIN_RESET; S = 4; break;
 562              		.loc 1 101 54 view .LVU210
 101:patchouli/src/patchouli_bsp_glider_addon_v1.c ****             case 4:  ExN[4] = GPIO_PIN_RESET; S = 4; break;
 563              		.loc 1 101 49 is_stmt 0 view .LVU211
 564 01d0 0224     		movs	r4, #2
 101:patchouli/src/patchouli_bsp_glider_addon_v1.c ****             case 4:  ExN[4] = GPIO_PIN_RESET; S = 4; break;
 565              		.loc 1 101 54 view .LVU212
 566 01d2 D9E7     		b	.L35
 567              	.LVL68:
 568              	.L50:
 102:patchouli/src/patchouli_bsp_glider_addon_v1.c ****             case 5:  ExN[4] = GPIO_PIN_RESET; S = 6; break;
 569              		.loc 1 102 22 is_stmt 1 view .LVU213
 102:patchouli/src/patchouli_bsp_glider_addon_v1.c ****             case 5:  ExN[4] = GPIO_PIN_RESET; S = 6; break;
 570              		.loc 1 102 29 is_stmt 0 view .LVU214
 571 01d4 0023     		movs	r3, #0
 572 01d6 8DF80430 		strb	r3, [sp, #4]
 102:patchouli/src/patchouli_bsp_glider_addon_v1.c ****             case 5:  ExN[4] = GPIO_PIN_RESET; S = 6; break;
 573              		.loc 1 102 47 is_stmt 1 view .LVU215
 574              	.LVL69:
 102:patchouli/src/patchouli_bsp_glider_addon_v1.c ****             case 5:  ExN[4] = GPIO_PIN_RESET; S = 6; break;
 575              		.loc 1 102 54 view .LVU216
 102:patchouli/src/patchouli_bsp_glider_addon_v1.c ****             case 5:  ExN[4] = GPIO_PIN_RESET; S = 6; break;
 576              		.loc 1 102 49 is_stmt 0 view .LVU217
 577 01da 0424     		movs	r4, #4
 102:patchouli/src/patchouli_bsp_glider_addon_v1.c ****             case 5:  ExN[4] = GPIO_PIN_RESET; S = 6; break;
 578              		.loc 1 102 54 view .LVU218
 579 01dc D4E7     		b	.L35
 580              	.LVL70:
 581              	.L49:
 103:patchouli/src/patchouli_bsp_glider_addon_v1.c ****             case 6:  ExN[4] = GPIO_PIN_RESET; S = 7; break;
 582              		.loc 1 103 22 is_stmt 1 view .LVU219
 103:patchouli/src/patchouli_bsp_glider_addon_v1.c ****             case 6:  ExN[4] = GPIO_PIN_RESET; S = 7; break;
 583              		.loc 1 103 29 is_stmt 0 view .LVU220
 584 01de 0023     		movs	r3, #0
 585 01e0 8DF80430 		strb	r3, [sp, #4]
 103:patchouli/src/patchouli_bsp_glider_addon_v1.c ****             case 6:  ExN[4] = GPIO_PIN_RESET; S = 7; break;
 586              		.loc 1 103 47 is_stmt 1 view .LVU221
 587              	.LVL71:
 103:patchouli/src/patchouli_bsp_glider_addon_v1.c ****             case 6:  ExN[4] = GPIO_PIN_RESET; S = 7; break;
 588              		.loc 1 103 54 view .LVU222
ARM GAS  C:\Users\Nathan\AppData\Local\Temp\cc2pE8rH.s 			page 14


 103:patchouli/src/patchouli_bsp_glider_addon_v1.c ****             case 6:  ExN[4] = GPIO_PIN_RESET; S = 7; break;
 589              		.loc 1 103 49 is_stmt 0 view .LVU223
 590 01e4 0624     		movs	r4, #6
 103:patchouli/src/patchouli_bsp_glider_addon_v1.c ****             case 6:  ExN[4] = GPIO_PIN_RESET; S = 7; break;
 591              		.loc 1 103 54 view .LVU224
 592 01e6 CFE7     		b	.L35
 593              	.LVL72:
 594              	.L48:
 104:patchouli/src/patchouli_bsp_glider_addon_v1.c ****             case 7:  ExN[4] = GPIO_PIN_RESET; S = 5; break;
 595              		.loc 1 104 22 is_stmt 1 view .LVU225
 104:patchouli/src/patchouli_bsp_glider_addon_v1.c ****             case 7:  ExN[4] = GPIO_PIN_RESET; S = 5; break;
 596              		.loc 1 104 29 is_stmt 0 view .LVU226
 597 01e8 0023     		movs	r3, #0
 598 01ea 8DF80430 		strb	r3, [sp, #4]
 104:patchouli/src/patchouli_bsp_glider_addon_v1.c ****             case 7:  ExN[4] = GPIO_PIN_RESET; S = 5; break;
 599              		.loc 1 104 47 is_stmt 1 view .LVU227
 600              	.LVL73:
 104:patchouli/src/patchouli_bsp_glider_addon_v1.c ****             case 7:  ExN[4] = GPIO_PIN_RESET; S = 5; break;
 601              		.loc 1 104 54 view .LVU228
 104:patchouli/src/patchouli_bsp_glider_addon_v1.c ****             case 7:  ExN[4] = GPIO_PIN_RESET; S = 5; break;
 602              		.loc 1 104 49 is_stmt 0 view .LVU229
 603 01ee 0724     		movs	r4, #7
 104:patchouli/src/patchouli_bsp_glider_addon_v1.c ****             case 7:  ExN[4] = GPIO_PIN_RESET; S = 5; break;
 604              		.loc 1 104 54 view .LVU230
 605 01f0 CAE7     		b	.L35
 606              	.LVL74:
 607              	.L47:
 105:patchouli/src/patchouli_bsp_glider_addon_v1.c ****             case 8:  ExN[5] = GPIO_PIN_RESET; S = 3; break; // U12
 608              		.loc 1 105 22 is_stmt 1 view .LVU231
 105:patchouli/src/patchouli_bsp_glider_addon_v1.c ****             case 8:  ExN[5] = GPIO_PIN_RESET; S = 3; break; // U12
 609              		.loc 1 105 29 is_stmt 0 view .LVU232
 610 01f2 0023     		movs	r3, #0
 611 01f4 8DF80430 		strb	r3, [sp, #4]
 105:patchouli/src/patchouli_bsp_glider_addon_v1.c ****             case 8:  ExN[5] = GPIO_PIN_RESET; S = 3; break; // U12
 612              		.loc 1 105 47 is_stmt 1 view .LVU233
 613              	.LVL75:
 105:patchouli/src/patchouli_bsp_glider_addon_v1.c ****             case 8:  ExN[5] = GPIO_PIN_RESET; S = 3; break; // U12
 614              		.loc 1 105 54 view .LVU234
 105:patchouli/src/patchouli_bsp_glider_addon_v1.c ****             case 8:  ExN[5] = GPIO_PIN_RESET; S = 3; break; // U12
 615              		.loc 1 105 49 is_stmt 0 view .LVU235
 616 01f8 0524     		movs	r4, #5
 105:patchouli/src/patchouli_bsp_glider_addon_v1.c ****             case 8:  ExN[5] = GPIO_PIN_RESET; S = 3; break; // U12
 617              		.loc 1 105 54 view .LVU236
 618 01fa C5E7     		b	.L35
 619              	.LVL76:
 620              	.L46:
 106:patchouli/src/patchouli_bsp_glider_addon_v1.c ****             case 9:  ExN[5] = GPIO_PIN_RESET; S = 0; break;
 621              		.loc 1 106 22 is_stmt 1 view .LVU237
 106:patchouli/src/patchouli_bsp_glider_addon_v1.c ****             case 9:  ExN[5] = GPIO_PIN_RESET; S = 0; break;
 622              		.loc 1 106 29 is_stmt 0 view .LVU238
 623 01fc 0023     		movs	r3, #0
 624 01fe 8DF80530 		strb	r3, [sp, #5]
 106:patchouli/src/patchouli_bsp_glider_addon_v1.c ****             case 9:  ExN[5] = GPIO_PIN_RESET; S = 0; break;
 625              		.loc 1 106 47 is_stmt 1 view .LVU239
 626              	.LVL77:
 106:patchouli/src/patchouli_bsp_glider_addon_v1.c ****             case 9:  ExN[5] = GPIO_PIN_RESET; S = 0; break;
 627              		.loc 1 106 54 view .LVU240
ARM GAS  C:\Users\Nathan\AppData\Local\Temp\cc2pE8rH.s 			page 15


 106:patchouli/src/patchouli_bsp_glider_addon_v1.c ****             case 9:  ExN[5] = GPIO_PIN_RESET; S = 0; break;
 628              		.loc 1 106 49 is_stmt 0 view .LVU241
 629 0202 0324     		movs	r4, #3
 106:patchouli/src/patchouli_bsp_glider_addon_v1.c ****             case 9:  ExN[5] = GPIO_PIN_RESET; S = 0; break;
 630              		.loc 1 106 54 view .LVU242
 631 0204 C0E7     		b	.L35
 632              	.LVL78:
 633              	.L45:
 107:patchouli/src/patchouli_bsp_glider_addon_v1.c ****             case 10:  ExN[5] = GPIO_PIN_RESET; S = 1; break;
 634              		.loc 1 107 22 is_stmt 1 view .LVU243
 107:patchouli/src/patchouli_bsp_glider_addon_v1.c ****             case 10:  ExN[5] = GPIO_PIN_RESET; S = 1; break;
 635              		.loc 1 107 29 is_stmt 0 view .LVU244
 636 0206 0024     		movs	r4, #0
 637 0208 8DF80540 		strb	r4, [sp, #5]
 107:patchouli/src/patchouli_bsp_glider_addon_v1.c ****             case 10:  ExN[5] = GPIO_PIN_RESET; S = 1; break;
 638              		.loc 1 107 47 is_stmt 1 view .LVU245
 107:patchouli/src/patchouli_bsp_glider_addon_v1.c ****             case 10:  ExN[5] = GPIO_PIN_RESET; S = 1; break;
 639              		.loc 1 107 54 view .LVU246
 640 020c BCE7     		b	.L35
 641              	.L44:
 108:patchouli/src/patchouli_bsp_glider_addon_v1.c ****             case 11:  ExN[5] = GPIO_PIN_RESET; S = 2; break;
 642              		.loc 1 108 23 view .LVU247
 108:patchouli/src/patchouli_bsp_glider_addon_v1.c ****             case 11:  ExN[5] = GPIO_PIN_RESET; S = 2; break;
 643              		.loc 1 108 30 is_stmt 0 view .LVU248
 644 020e 0023     		movs	r3, #0
 645 0210 8DF80530 		strb	r3, [sp, #5]
 108:patchouli/src/patchouli_bsp_glider_addon_v1.c ****             case 11:  ExN[5] = GPIO_PIN_RESET; S = 2; break;
 646              		.loc 1 108 48 is_stmt 1 view .LVU249
 647              	.LVL79:
 108:patchouli/src/patchouli_bsp_glider_addon_v1.c ****             case 11:  ExN[5] = GPIO_PIN_RESET; S = 2; break;
 648              		.loc 1 108 55 view .LVU250
 108:patchouli/src/patchouli_bsp_glider_addon_v1.c ****             case 11:  ExN[5] = GPIO_PIN_RESET; S = 2; break;
 649              		.loc 1 108 50 is_stmt 0 view .LVU251
 650 0214 0124     		movs	r4, #1
 108:patchouli/src/patchouli_bsp_glider_addon_v1.c ****             case 11:  ExN[5] = GPIO_PIN_RESET; S = 2; break;
 651              		.loc 1 108 55 view .LVU252
 652 0216 B7E7     		b	.L35
 653              	.LVL80:
 654              	.L43:
 109:patchouli/src/patchouli_bsp_glider_addon_v1.c ****             case 12:  ExN[5] = GPIO_PIN_RESET; S = 4; break;
 655              		.loc 1 109 23 is_stmt 1 view .LVU253
 109:patchouli/src/patchouli_bsp_glider_addon_v1.c ****             case 12:  ExN[5] = GPIO_PIN_RESET; S = 4; break;
 656              		.loc 1 109 30 is_stmt 0 view .LVU254
 657 0218 0023     		movs	r3, #0
 658 021a 8DF80530 		strb	r3, [sp, #5]
 109:patchouli/src/patchouli_bsp_glider_addon_v1.c ****             case 12:  ExN[5] = GPIO_PIN_RESET; S = 4; break;
 659              		.loc 1 109 48 is_stmt 1 view .LVU255
 660              	.LVL81:
 109:patchouli/src/patchouli_bsp_glider_addon_v1.c ****             case 12:  ExN[5] = GPIO_PIN_RESET; S = 4; break;
 661              		.loc 1 109 55 view .LVU256
 109:patchouli/src/patchouli_bsp_glider_addon_v1.c ****             case 12:  ExN[5] = GPIO_PIN_RESET; S = 4; break;
 662              		.loc 1 109 50 is_stmt 0 view .LVU257
 663 021e 0224     		movs	r4, #2
 109:patchouli/src/patchouli_bsp_glider_addon_v1.c ****             case 12:  ExN[5] = GPIO_PIN_RESET; S = 4; break;
 664              		.loc 1 109 55 view .LVU258
 665 0220 B2E7     		b	.L35
 666              	.LVL82:
ARM GAS  C:\Users\Nathan\AppData\Local\Temp\cc2pE8rH.s 			page 16


 667              	.L42:
 110:patchouli/src/patchouli_bsp_glider_addon_v1.c ****             case 13:  ExN[5] = GPIO_PIN_RESET; S = 6; break;
 668              		.loc 1 110 23 is_stmt 1 view .LVU259
 110:patchouli/src/patchouli_bsp_glider_addon_v1.c ****             case 13:  ExN[5] = GPIO_PIN_RESET; S = 6; break;
 669              		.loc 1 110 30 is_stmt 0 view .LVU260
 670 0222 0023     		movs	r3, #0
 671 0224 8DF80530 		strb	r3, [sp, #5]
 110:patchouli/src/patchouli_bsp_glider_addon_v1.c ****             case 13:  ExN[5] = GPIO_PIN_RESET; S = 6; break;
 672              		.loc 1 110 48 is_stmt 1 view .LVU261
 673              	.LVL83:
 110:patchouli/src/patchouli_bsp_glider_addon_v1.c ****             case 13:  ExN[5] = GPIO_PIN_RESET; S = 6; break;
 674              		.loc 1 110 55 view .LVU262
 110:patchouli/src/patchouli_bsp_glider_addon_v1.c ****             case 13:  ExN[5] = GPIO_PIN_RESET; S = 6; break;
 675              		.loc 1 110 50 is_stmt 0 view .LVU263
 676 0228 0424     		movs	r4, #4
 110:patchouli/src/patchouli_bsp_glider_addon_v1.c ****             case 13:  ExN[5] = GPIO_PIN_RESET; S = 6; break;
 677              		.loc 1 110 55 view .LVU264
 678 022a ADE7     		b	.L35
 679              	.LVL84:
 680              	.L41:
 111:patchouli/src/patchouli_bsp_glider_addon_v1.c ****             case 14:  ExN[5] = GPIO_PIN_RESET; S = 7; break;
 681              		.loc 1 111 23 is_stmt 1 view .LVU265
 111:patchouli/src/patchouli_bsp_glider_addon_v1.c ****             case 14:  ExN[5] = GPIO_PIN_RESET; S = 7; break;
 682              		.loc 1 111 30 is_stmt 0 view .LVU266
 683 022c 0023     		movs	r3, #0
 684 022e 8DF80530 		strb	r3, [sp, #5]
 111:patchouli/src/patchouli_bsp_glider_addon_v1.c ****             case 14:  ExN[5] = GPIO_PIN_RESET; S = 7; break;
 685              		.loc 1 111 48 is_stmt 1 view .LVU267
 686              	.LVL85:
 111:patchouli/src/patchouli_bsp_glider_addon_v1.c ****             case 14:  ExN[5] = GPIO_PIN_RESET; S = 7; break;
 687              		.loc 1 111 55 view .LVU268
 111:patchouli/src/patchouli_bsp_glider_addon_v1.c ****             case 14:  ExN[5] = GPIO_PIN_RESET; S = 7; break;
 688              		.loc 1 111 50 is_stmt 0 view .LVU269
 689 0232 0624     		movs	r4, #6
 111:patchouli/src/patchouli_bsp_glider_addon_v1.c ****             case 14:  ExN[5] = GPIO_PIN_RESET; S = 7; break;
 690              		.loc 1 111 55 view .LVU270
 691 0234 A8E7     		b	.L35
 692              	.LVL86:
 693              	.L40:
 112:patchouli/src/patchouli_bsp_glider_addon_v1.c ****             case 15:  ExN[5] = GPIO_PIN_RESET; S = 5; break;
 694              		.loc 1 112 23 is_stmt 1 view .LVU271
 112:patchouli/src/patchouli_bsp_glider_addon_v1.c ****             case 15:  ExN[5] = GPIO_PIN_RESET; S = 5; break;
 695              		.loc 1 112 30 is_stmt 0 view .LVU272
 696 0236 0023     		movs	r3, #0
 697 0238 8DF80530 		strb	r3, [sp, #5]
 112:patchouli/src/patchouli_bsp_glider_addon_v1.c ****             case 15:  ExN[5] = GPIO_PIN_RESET; S = 5; break;
 698              		.loc 1 112 48 is_stmt 1 view .LVU273
 699              	.LVL87:
 112:patchouli/src/patchouli_bsp_glider_addon_v1.c ****             case 15:  ExN[5] = GPIO_PIN_RESET; S = 5; break;
 700              		.loc 1 112 55 view .LVU274
 112:patchouli/src/patchouli_bsp_glider_addon_v1.c ****             case 15:  ExN[5] = GPIO_PIN_RESET; S = 5; break;
 701              		.loc 1 112 50 is_stmt 0 view .LVU275
 702 023c 0724     		movs	r4, #7
 112:patchouli/src/patchouli_bsp_glider_addon_v1.c ****             case 15:  ExN[5] = GPIO_PIN_RESET; S = 5; break;
 703              		.loc 1 112 55 view .LVU276
 704 023e A3E7     		b	.L35
 705              	.LVL88:
ARM GAS  C:\Users\Nathan\AppData\Local\Temp\cc2pE8rH.s 			page 17


 706              	.L39:
 113:patchouli/src/patchouli_bsp_glider_addon_v1.c ****             case 16:  ExN[0] = GPIO_PIN_RESET; S = 3; break; // U7
 707              		.loc 1 113 23 is_stmt 1 view .LVU277
 113:patchouli/src/patchouli_bsp_glider_addon_v1.c ****             case 16:  ExN[0] = GPIO_PIN_RESET; S = 3; break; // U7
 708              		.loc 1 113 30 is_stmt 0 view .LVU278
 709 0240 0023     		movs	r3, #0
 710 0242 8DF80530 		strb	r3, [sp, #5]
 113:patchouli/src/patchouli_bsp_glider_addon_v1.c ****             case 16:  ExN[0] = GPIO_PIN_RESET; S = 3; break; // U7
 711              		.loc 1 113 48 is_stmt 1 view .LVU279
 712              	.LVL89:
 113:patchouli/src/patchouli_bsp_glider_addon_v1.c ****             case 16:  ExN[0] = GPIO_PIN_RESET; S = 3; break; // U7
 713              		.loc 1 113 55 view .LVU280
 113:patchouli/src/patchouli_bsp_glider_addon_v1.c ****             case 16:  ExN[0] = GPIO_PIN_RESET; S = 3; break; // U7
 714              		.loc 1 113 50 is_stmt 0 view .LVU281
 715 0246 0524     		movs	r4, #5
 113:patchouli/src/patchouli_bsp_glider_addon_v1.c ****             case 16:  ExN[0] = GPIO_PIN_RESET; S = 3; break; // U7
 716              		.loc 1 113 55 view .LVU282
 717 0248 9EE7     		b	.L35
 718              	.LVL90:
 719              	.L38:
 114:patchouli/src/patchouli_bsp_glider_addon_v1.c ****             case 17:  ExN[0] = GPIO_PIN_RESET; S = 0; break;
 720              		.loc 1 114 23 is_stmt 1 view .LVU283
 114:patchouli/src/patchouli_bsp_glider_addon_v1.c ****             case 17:  ExN[0] = GPIO_PIN_RESET; S = 0; break;
 721              		.loc 1 114 30 is_stmt 0 view .LVU284
 722 024a 0023     		movs	r3, #0
 723 024c 8DF80030 		strb	r3, [sp]
 114:patchouli/src/patchouli_bsp_glider_addon_v1.c ****             case 17:  ExN[0] = GPIO_PIN_RESET; S = 0; break;
 724              		.loc 1 114 48 is_stmt 1 view .LVU285
 725              	.LVL91:
 114:patchouli/src/patchouli_bsp_glider_addon_v1.c ****             case 17:  ExN[0] = GPIO_PIN_RESET; S = 0; break;
 726              		.loc 1 114 55 view .LVU286
 114:patchouli/src/patchouli_bsp_glider_addon_v1.c ****             case 17:  ExN[0] = GPIO_PIN_RESET; S = 0; break;
 727              		.loc 1 114 50 is_stmt 0 view .LVU287
 728 0250 0324     		movs	r4, #3
 114:patchouli/src/patchouli_bsp_glider_addon_v1.c ****             case 17:  ExN[0] = GPIO_PIN_RESET; S = 0; break;
 729              		.loc 1 114 55 view .LVU288
 730 0252 99E7     		b	.L35
 731              	.LVL92:
 732              	.L36:
 115:patchouli/src/patchouli_bsp_glider_addon_v1.c ****             
 733              		.loc 1 115 23 is_stmt 1 view .LVU289
 115:patchouli/src/patchouli_bsp_glider_addon_v1.c ****             
 734              		.loc 1 115 30 is_stmt 0 view .LVU290
 735 0254 0024     		movs	r4, #0
 736 0256 8DF80040 		strb	r4, [sp]
 115:patchouli/src/patchouli_bsp_glider_addon_v1.c ****             
 737              		.loc 1 115 48 is_stmt 1 view .LVU291
 115:patchouli/src/patchouli_bsp_glider_addon_v1.c ****             
 738              		.loc 1 115 55 view .LVU292
 739 025a 95E7     		b	.L35
 740              	.LVL93:
 741              	.L56:
 742              	.LBB13:
 127:patchouli/src/patchouli_bsp_glider_addon_v1.c ****         HAL_GPIO_WritePin(ExN_GPIO_Port[i], ExN_Pin[i], ExN[i]);
 743              		.loc 1 127 9 view .LVU293
 744 025c 04F10803 		add	r3, r4, #8
 745 0260 6B44     		add	r3, sp, r3
ARM GAS  C:\Users\Nathan\AppData\Local\Temp\cc2pE8rH.s 			page 18


 746 0262 13F8082C 		ldrb	r2, [r3, #-8]	@ zero_extendqisi2
 747 0266 074B     		ldr	r3, .L60+4
 748 0268 33F81410 		ldrh	r1, [r3, r4, lsl #1]
 749 026c 064B     		ldr	r3, .L60+8
 750 026e 53F82400 		ldr	r0, [r3, r4, lsl #2]
 751 0272 FFF7FEFF 		bl	HAL_GPIO_WritePin
 752              	.LVL94:
 126:patchouli/src/patchouli_bsp_glider_addon_v1.c ****         HAL_GPIO_WritePin(ExN_GPIO_Port[i], ExN_Pin[i], ExN[i]);
 753              		.loc 1 126 43 discriminator 3 view .LVU294
 754 0276 0134     		adds	r4, r4, #1
 755              	.LVL95:
 756              	.L55:
 126:patchouli/src/patchouli_bsp_glider_addon_v1.c ****         HAL_GPIO_WritePin(ExN_GPIO_Port[i], ExN_Pin[i], ExN[i]);
 757              		.loc 1 126 23 discriminator 1 view .LVU295
 758 0278 052C     		cmp	r4, #5
 759 027a EFD9     		bls	.L56
 760              	.LVL96:
 761              	.L1:
 126:patchouli/src/patchouli_bsp_glider_addon_v1.c ****         HAL_GPIO_WritePin(ExN_GPIO_Port[i], ExN_Pin[i], ExN[i]);
 762              		.loc 1 126 23 is_stmt 0 discriminator 1 view .LVU296
 763              	.LBE13:
 128:patchouli/src/patchouli_bsp_glider_addon_v1.c ****     }
 129:patchouli/src/patchouli_bsp_glider_addon_v1.c ****     return;
 130:patchouli/src/patchouli_bsp_glider_addon_v1.c **** }
 764              		.loc 1 130 1 view .LVU297
 765 027c 02B0     		add	sp, sp, #8
 766              		.cfi_def_cfa_offset 8
 767              		@ sp needed
 768 027e 10BD     		pop	{r4, pc}
 769              	.L61:
 770              		.align	2
 771              	.L60:
 772 0280 00080048 		.word	1207961600
 773 0284 00000000 		.word	ExN_Pin
 774 0288 00000000 		.word	ExN_GPIO_Port
 775              		.cfi_endproc
 776              	.LFE1415:
 778              		.section	.text.patchouli_TIM_init,"ax",%progbits
 779              		.align	1
 780              		.global	patchouli_TIM_init
 781              		.syntax unified
 782              		.thumb
 783              		.thumb_func
 785              	patchouli_TIM_init:
 786              	.LFB1416:
 131:patchouli/src/patchouli_bsp_glider_addon_v1.c **** 
 132:patchouli/src/patchouli_bsp_glider_addon_v1.c **** extern TIM_HandleTypeDef htim16;
 133:patchouli/src/patchouli_bsp_glider_addon_v1.c **** extern TIM_HandleTypeDef htim1;
 134:patchouli/src/patchouli_bsp_glider_addon_v1.c **** extern float gfreq;
 135:patchouli/src/patchouli_bsp_glider_addon_v1.c **** 
 136:patchouli/src/patchouli_bsp_glider_addon_v1.c **** void patchouli_TIM_init(){
 787              		.loc 1 136 26 is_stmt 1 view -0
 788              		.cfi_startproc
 789              		@ args = 0, pretend = 0, frame = 0
 790              		@ frame_needed = 0, uses_anonymous_args = 0
 791 0000 10B5     		push	{r4, lr}
 792              		.cfi_def_cfa_offset 8
ARM GAS  C:\Users\Nathan\AppData\Local\Temp\cc2pE8rH.s 			page 19


 793              		.cfi_offset 4, -8
 794              		.cfi_offset 14, -4
 137:patchouli/src/patchouli_bsp_glider_addon_v1.c ****     HAL_TIM_PWM_Start(&htim1, TIM_CHANNEL_1);
 795              		.loc 1 137 5 view .LVU299
 796 0002 104C     		ldr	r4, .L64
 797 0004 0021     		movs	r1, #0
 798 0006 2046     		mov	r0, r4
 799 0008 FFF7FEFF 		bl	HAL_TIM_PWM_Start
 800              	.LVL97:
 138:patchouli/src/patchouli_bsp_glider_addon_v1.c ****     HAL_TIM_PWM_Start(&htim1, TIM_CHANNEL_3);
 801              		.loc 1 138 5 view .LVU300
 802 000c 0821     		movs	r1, #8
 803 000e 2046     		mov	r0, r4
 804 0010 FFF7FEFF 		bl	HAL_TIM_PWM_Start
 805              	.LVL98:
 139:patchouli/src/patchouli_bsp_glider_addon_v1.c ****     HAL_TIMEx_PWMN_Start(&htim1, TIM_CHANNEL_1);
 806              		.loc 1 139 5 view .LVU301
 807 0014 0021     		movs	r1, #0
 808 0016 2046     		mov	r0, r4
 809 0018 FFF7FEFF 		bl	HAL_TIMEx_PWMN_Start
 810              	.LVL99:
 140:patchouli/src/patchouli_bsp_glider_addon_v1.c ****     HAL_TIMEx_PWMN_Start(&htim1, TIM_CHANNEL_3);
 811              		.loc 1 140 5 view .LVU302
 812 001c 0821     		movs	r1, #8
 813 001e 2046     		mov	r0, r4
 814 0020 FFF7FEFF 		bl	HAL_TIMEx_PWMN_Start
 815              	.LVL100:
 141:patchouli/src/patchouli_bsp_glider_addon_v1.c ****     HAL_TIMEx_PWMN_Start(&htim16, TIM_CHANNEL_1);
 816              		.loc 1 141 5 view .LVU303
 817 0024 084C     		ldr	r4, .L64+4
 818 0026 0021     		movs	r1, #0
 819 0028 2046     		mov	r0, r4
 820 002a FFF7FEFF 		bl	HAL_TIMEx_PWMN_Start
 821              	.LVL101:
 142:patchouli/src/patchouli_bsp_glider_addon_v1.c ****     gfreq = PATCHOULI_TIM_F_CENTER;
 822              		.loc 1 142 5 view .LVU304
 823              		.loc 1 142 11 is_stmt 0 view .LVU305
 824 002e 074B     		ldr	r3, .L64+8
 825 0030 074A     		ldr	r2, .L64+12
 826 0032 1A60     		str	r2, [r3]	@ float
 143:patchouli/src/patchouli_bsp_glider_addon_v1.c ****     uint16_t d = (PATCHOULI_TIM_FAST_CLK/gfreq);
 827              		.loc 1 143 5 is_stmt 1 view .LVU306
 828              	.LVL102:
 144:patchouli/src/patchouli_bsp_glider_addon_v1.c ****     htim16.Instance->ARR = d;
 829              		.loc 1 144 5 view .LVU307
 830              		.loc 1 144 11 is_stmt 0 view .LVU308
 831 0034 2368     		ldr	r3, [r4]
 832              		.loc 1 144 26 view .LVU309
 833 0036 7C22     		movs	r2, #124
 834 0038 DA62     		str	r2, [r3, #44]
 145:patchouli/src/patchouli_bsp_glider_addon_v1.c ****     htim16.Instance->CCR1 = d>>1;
 835              		.loc 1 145 5 is_stmt 1 view .LVU310
 836              		.loc 1 145 27 is_stmt 0 view .LVU311
 837 003a 3E22     		movs	r2, #62
 838 003c 5A63     		str	r2, [r3, #52]
 146:patchouli/src/patchouli_bsp_glider_addon_v1.c ****     htim16.Instance->RCR = 60;
 839              		.loc 1 146 5 is_stmt 1 view .LVU312
ARM GAS  C:\Users\Nathan\AppData\Local\Temp\cc2pE8rH.s 			page 20


 840              		.loc 1 146 26 is_stmt 0 view .LVU313
 841 003e 3C22     		movs	r2, #60
 842 0040 1A63     		str	r2, [r3, #48]
 147:patchouli/src/patchouli_bsp_glider_addon_v1.c **** }
 843              		.loc 1 147 1 view .LVU314
 844 0042 10BD     		pop	{r4, pc}
 845              	.L65:
 846              		.align	2
 847              	.L64:
 848 0044 00000000 		.word	htim1
 849 0048 00000000 		.word	htim16
 850 004c 00000000 		.word	gfreq
 851 0050 0077FB48 		.word	1224439552
 852              		.cfi_endproc
 853              	.LFE1416:
 855              		.section	.text.patchouli_TIM_trigger,"ax",%progbits
 856              		.align	1
 857              		.global	patchouli_TIM_trigger
 858              		.syntax unified
 859              		.thumb
 860              		.thumb_func
 862              	patchouli_TIM_trigger:
 863              	.LFB1417:
 148:patchouli/src/patchouli_bsp_glider_addon_v1.c **** 
 149:patchouli/src/patchouli_bsp_glider_addon_v1.c **** void patchouli_TIM_trigger(){
 864              		.loc 1 149 29 is_stmt 1 view -0
 865              		.cfi_startproc
 866              		@ args = 0, pretend = 0, frame = 0
 867              		@ frame_needed = 0, uses_anonymous_args = 0
 868              		@ link register save eliminated.
 150:patchouli/src/patchouli_bsp_glider_addon_v1.c ****     htim16.Instance->CR1 |= B16(00000000,00000001); // Enable TIM1
 869              		.loc 1 150 5 view .LVU316
 870              		.loc 1 150 11 is_stmt 0 view .LVU317
 871 0000 034B     		ldr	r3, .L67
 872 0002 1A68     		ldr	r2, [r3]
 873              		.loc 1 150 20 view .LVU318
 874 0004 1368     		ldr	r3, [r2]
 875              		.loc 1 150 26 view .LVU319
 876 0006 43F00103 		orr	r3, r3, #1
 877 000a 1360     		str	r3, [r2]
 151:patchouli/src/patchouli_bsp_glider_addon_v1.c **** }
 878              		.loc 1 151 1 view .LVU320
 879 000c 7047     		bx	lr
 880              	.L68:
 881 000e 00BF     		.align	2
 882              	.L67:
 883 0010 00000000 		.word	htim16
 884              		.cfi_endproc
 885              	.LFE1417:
 887              		.section	.text._patchouli_adc_multisample,"ax",%progbits
 888              		.align	1
 889              		.global	_patchouli_adc_multisample
 890              		.syntax unified
 891              		.thumb
 892              		.thumb_func
 894              	_patchouli_adc_multisample:
 895              	.LFB1418:
ARM GAS  C:\Users\Nathan\AppData\Local\Temp\cc2pE8rH.s 			page 21


 152:patchouli/src/patchouli_bsp_glider_addon_v1.c **** 
 153:patchouli/src/patchouli_bsp_glider_addon_v1.c **** extern ADC_HandleTypeDef hadc1;
 154:patchouli/src/patchouli_bsp_glider_addon_v1.c **** 
 155:patchouli/src/patchouli_bsp_glider_addon_v1.c **** uint16_t _patchouli_adc_multisample(){
 896              		.loc 1 155 38 is_stmt 1 view -0
 897              		.cfi_startproc
 898              		@ args = 0, pretend = 0, frame = 8
 899              		@ frame_needed = 0, uses_anonymous_args = 0
 900 0000 30B5     		push	{r4, r5, lr}
 901              		.cfi_def_cfa_offset 12
 902              		.cfi_offset 4, -12
 903              		.cfi_offset 5, -8
 904              		.cfi_offset 14, -4
 905 0002 83B0     		sub	sp, sp, #12
 906              		.cfi_def_cfa_offset 24
 156:patchouli/src/patchouli_bsp_glider_addon_v1.c ****     uint16_t sample[PATCHOULI_ADC_NSAMPLE];
 907              		.loc 1 156 5 view .LVU322
 157:patchouli/src/patchouli_bsp_glider_addon_v1.c ****     uint16_t value;
 908              		.loc 1 157 5 view .LVU323
 158:patchouli/src/patchouli_bsp_glider_addon_v1.c ****     if(PATCHOULI_ADC_NSAMPLE==1){
 909              		.loc 1 158 5 view .LVU324
 159:patchouli/src/patchouli_bsp_glider_addon_v1.c ****         HAL_ADC_Start(&hadc1);
 160:patchouli/src/patchouli_bsp_glider_addon_v1.c ****         HAL_ADC_PollForConversion(&hadc1, HAL_MAX_DELAY);
 161:patchouli/src/patchouli_bsp_glider_addon_v1.c ****         value = HAL_ADC_GetValue(&hadc1);
 162:patchouli/src/patchouli_bsp_glider_addon_v1.c ****     } else if (PATCHOULI_ADC_NSAMPLE==2) {
 910              		.loc 1 162 12 view .LVU325
 163:patchouli/src/patchouli_bsp_glider_addon_v1.c ****         HAL_ADC_Start(&hadc1);
 164:patchouli/src/patchouli_bsp_glider_addon_v1.c ****         HAL_ADC_PollForConversion(&hadc1, HAL_MAX_DELAY);
 165:patchouli/src/patchouli_bsp_glider_addon_v1.c ****         sample[0] = HAL_ADC_GetValue(&hadc1);
 166:patchouli/src/patchouli_bsp_glider_addon_v1.c ****         HAL_ADC_Start(&hadc1);
 167:patchouli/src/patchouli_bsp_glider_addon_v1.c ****         HAL_ADC_PollForConversion(&hadc1, HAL_MAX_DELAY);
 168:patchouli/src/patchouli_bsp_glider_addon_v1.c ****         sample[1] = HAL_ADC_GetValue(&hadc1);
 169:patchouli/src/patchouli_bsp_glider_addon_v1.c ****         value = (sample[0]+sample[1])/2;
 170:patchouli/src/patchouli_bsp_glider_addon_v1.c ****     } else {
 171:patchouli/src/patchouli_bsp_glider_addon_v1.c ****         for(int i=0;i<PATCHOULI_ADC_NSAMPLE; i++) {
 911              		.loc 1 171 9 view .LVU326
 912              	.LBB14:
 913              		.loc 1 171 13 view .LVU327
 914              	.LVL103:
 915              		.loc 1 171 17 is_stmt 0 view .LVU328
 916 0004 0024     		movs	r4, #0
 917              		.loc 1 171 9 view .LVU329
 918 0006 11E0     		b	.L70
 919              	.LVL104:
 920              	.L71:
 172:patchouli/src/patchouli_bsp_glider_addon_v1.c ****             HAL_ADC_Start(&hadc1);
 921              		.loc 1 172 13 is_stmt 1 view .LVU330
 922 0008 0C4D     		ldr	r5, .L73
 923 000a 2846     		mov	r0, r5
 924 000c FFF7FEFF 		bl	HAL_ADC_Start
 925              	.LVL105:
 173:patchouli/src/patchouli_bsp_glider_addon_v1.c ****             HAL_ADC_PollForConversion(&hadc1, HAL_MAX_DELAY);
 926              		.loc 1 173 13 view .LVU331
 927 0010 4FF0FF31 		mov	r1, #-1
 928 0014 2846     		mov	r0, r5
 929 0016 FFF7FEFF 		bl	HAL_ADC_PollForConversion
 930              	.LVL106:
ARM GAS  C:\Users\Nathan\AppData\Local\Temp\cc2pE8rH.s 			page 22


 174:patchouli/src/patchouli_bsp_glider_addon_v1.c ****             sample[i] = HAL_ADC_GetValue(&hadc1);
 931              		.loc 1 174 13 view .LVU332
 932              		.loc 1 174 25 is_stmt 0 view .LVU333
 933 001a 2846     		mov	r0, r5
 934 001c FFF7FEFF 		bl	HAL_ADC_GetValue
 935              	.LVL107:
 936              		.loc 1 174 23 discriminator 1 view .LVU334
 937 0020 02AB     		add	r3, sp, #8
 938 0022 03EB4403 		add	r3, r3, r4, lsl #1
 939 0026 23F8080C 		strh	r0, [r3, #-8]	@ movhi
 171:patchouli/src/patchouli_bsp_glider_addon_v1.c ****             HAL_ADC_Start(&hadc1);
 940              		.loc 1 171 47 is_stmt 1 discriminator 3 view .LVU335
 941 002a 0134     		adds	r4, r4, #1
 942              	.LVL108:
 943              	.L70:
 171:patchouli/src/patchouli_bsp_glider_addon_v1.c ****             HAL_ADC_Start(&hadc1);
 944              		.loc 1 171 22 discriminator 1 view .LVU336
 945 002c 022C     		cmp	r4, #2
 946 002e EBD9     		bls	.L71
 947              	.LBE14:
 175:patchouli/src/patchouli_bsp_glider_addon_v1.c ****         }
 176:patchouli/src/patchouli_bsp_glider_addon_v1.c ****         value = patchouli_median(sample, PATCHOULI_ADC_NSAMPLE);
 948              		.loc 1 176 9 view .LVU337
 949              		.loc 1 176 17 is_stmt 0 view .LVU338
 950 0030 0321     		movs	r1, #3
 951 0032 6846     		mov	r0, sp
 952 0034 FFF7FEFF 		bl	patchouli_median
 953              	.LVL109:
 177:patchouli/src/patchouli_bsp_glider_addon_v1.c ****     }
 178:patchouli/src/patchouli_bsp_glider_addon_v1.c ****     return value;
 954              		.loc 1 178 5 is_stmt 1 view .LVU339
 179:patchouli/src/patchouli_bsp_glider_addon_v1.c **** }
 955              		.loc 1 179 1 is_stmt 0 view .LVU340
 956 0038 03B0     		add	sp, sp, #12
 957              		.cfi_def_cfa_offset 12
 958              		@ sp needed
 959 003a 30BD     		pop	{r4, r5, pc}
 960              	.LVL110:
 961              	.L74:
 962              		.loc 1 179 1 view .LVU341
 963              		.align	2
 964              	.L73:
 965 003c 00000000 		.word	hadc1
 966              		.cfi_endproc
 967              	.LFE1418:
 969              		.section	.text.patchouli_simple_take_sample,"ax",%progbits
 970              		.align	1
 971              		.global	patchouli_simple_take_sample
 972              		.syntax unified
 973              		.thumb
 974              		.thumb_func
 976              	patchouli_simple_take_sample:
 977              	.LVL111:
 978              	.LFB1419:
 180:patchouli/src/patchouli_bsp_glider_addon_v1.c **** 
 181:patchouli/src/patchouli_bsp_glider_addon_v1.c **** extern patchouli_tx_t patchouli_pen_pw100;
 182:patchouli/src/patchouli_bsp_glider_addon_v1.c **** uint16_t patchouli_simple_take_sample(bool back_side, uint8_t fstep){
ARM GAS  C:\Users\Nathan\AppData\Local\Temp\cc2pE8rH.s 			page 23


 979              		.loc 1 182 69 is_stmt 1 view -0
 980              		.cfi_startproc
 981              		@ args = 0, pretend = 0, frame = 0
 982              		@ frame_needed = 0, uses_anonymous_args = 0
 983              		.loc 1 182 69 is_stmt 0 view .LVU343
 984 0000 38B5     		push	{r3, r4, r5, lr}
 985              		.cfi_def_cfa_offset 16
 986              		.cfi_offset 3, -16
 987              		.cfi_offset 4, -12
 988              		.cfi_offset 5, -8
 989              		.cfi_offset 14, -4
 990 0002 0446     		mov	r4, r0
 183:patchouli/src/patchouli_bsp_glider_addon_v1.c ****     __disable_irq();
 991              		.loc 1 183 5 is_stmt 1 view .LVU344
 992              	.LBB15:
 993              	.LBI15:
 994              		.file 2 "Drivers/CMSIS/Include/cmsis_gcc.h"
   1:Drivers/CMSIS/Include/cmsis_gcc.h **** /**************************************************************************//**
   2:Drivers/CMSIS/Include/cmsis_gcc.h ****  * @file     cmsis_gcc.h
   3:Drivers/CMSIS/Include/cmsis_gcc.h ****  * @brief    CMSIS compiler GCC header file
   4:Drivers/CMSIS/Include/cmsis_gcc.h ****  * @version  V5.2.0
   5:Drivers/CMSIS/Include/cmsis_gcc.h ****  * @date     08. May 2019
   6:Drivers/CMSIS/Include/cmsis_gcc.h ****  ******************************************************************************/
   7:Drivers/CMSIS/Include/cmsis_gcc.h **** /*
   8:Drivers/CMSIS/Include/cmsis_gcc.h ****  * Copyright (c) 2009-2019 Arm Limited. All rights reserved.
   9:Drivers/CMSIS/Include/cmsis_gcc.h ****  *
  10:Drivers/CMSIS/Include/cmsis_gcc.h ****  * SPDX-License-Identifier: Apache-2.0
  11:Drivers/CMSIS/Include/cmsis_gcc.h ****  *
  12:Drivers/CMSIS/Include/cmsis_gcc.h ****  * Licensed under the Apache License, Version 2.0 (the License); you may
  13:Drivers/CMSIS/Include/cmsis_gcc.h ****  * not use this file except in compliance with the License.
  14:Drivers/CMSIS/Include/cmsis_gcc.h ****  * You may obtain a copy of the License at
  15:Drivers/CMSIS/Include/cmsis_gcc.h ****  *
  16:Drivers/CMSIS/Include/cmsis_gcc.h ****  * www.apache.org/licenses/LICENSE-2.0
  17:Drivers/CMSIS/Include/cmsis_gcc.h ****  *
  18:Drivers/CMSIS/Include/cmsis_gcc.h ****  * Unless required by applicable law or agreed to in writing, software
  19:Drivers/CMSIS/Include/cmsis_gcc.h ****  * distributed under the License is distributed on an AS IS BASIS, WITHOUT
  20:Drivers/CMSIS/Include/cmsis_gcc.h ****  * WARRANTIES OR CONDITIONS OF ANY KIND, either express or implied.
  21:Drivers/CMSIS/Include/cmsis_gcc.h ****  * See the License for the specific language governing permissions and
  22:Drivers/CMSIS/Include/cmsis_gcc.h ****  * limitations under the License.
  23:Drivers/CMSIS/Include/cmsis_gcc.h ****  */
  24:Drivers/CMSIS/Include/cmsis_gcc.h **** 
  25:Drivers/CMSIS/Include/cmsis_gcc.h **** #ifndef __CMSIS_GCC_H
  26:Drivers/CMSIS/Include/cmsis_gcc.h **** #define __CMSIS_GCC_H
  27:Drivers/CMSIS/Include/cmsis_gcc.h **** 
  28:Drivers/CMSIS/Include/cmsis_gcc.h **** /* ignore some GCC warnings */
  29:Drivers/CMSIS/Include/cmsis_gcc.h **** #pragma GCC diagnostic push
  30:Drivers/CMSIS/Include/cmsis_gcc.h **** #pragma GCC diagnostic ignored "-Wsign-conversion"
  31:Drivers/CMSIS/Include/cmsis_gcc.h **** #pragma GCC diagnostic ignored "-Wconversion"
  32:Drivers/CMSIS/Include/cmsis_gcc.h **** #pragma GCC diagnostic ignored "-Wunused-parameter"
  33:Drivers/CMSIS/Include/cmsis_gcc.h **** 
  34:Drivers/CMSIS/Include/cmsis_gcc.h **** /* Fallback for __has_builtin */
  35:Drivers/CMSIS/Include/cmsis_gcc.h **** #ifndef __has_builtin
  36:Drivers/CMSIS/Include/cmsis_gcc.h ****   #define __has_builtin(x) (0)
  37:Drivers/CMSIS/Include/cmsis_gcc.h **** #endif
  38:Drivers/CMSIS/Include/cmsis_gcc.h **** 
  39:Drivers/CMSIS/Include/cmsis_gcc.h **** /* CMSIS compiler specific defines */
  40:Drivers/CMSIS/Include/cmsis_gcc.h **** #ifndef   __ASM
ARM GAS  C:\Users\Nathan\AppData\Local\Temp\cc2pE8rH.s 			page 24


  41:Drivers/CMSIS/Include/cmsis_gcc.h ****   #define __ASM                                  __asm
  42:Drivers/CMSIS/Include/cmsis_gcc.h **** #endif
  43:Drivers/CMSIS/Include/cmsis_gcc.h **** #ifndef   __INLINE
  44:Drivers/CMSIS/Include/cmsis_gcc.h ****   #define __INLINE                               inline
  45:Drivers/CMSIS/Include/cmsis_gcc.h **** #endif
  46:Drivers/CMSIS/Include/cmsis_gcc.h **** #ifndef   __STATIC_INLINE
  47:Drivers/CMSIS/Include/cmsis_gcc.h ****   #define __STATIC_INLINE                        static inline
  48:Drivers/CMSIS/Include/cmsis_gcc.h **** #endif
  49:Drivers/CMSIS/Include/cmsis_gcc.h **** #ifndef   __STATIC_FORCEINLINE                 
  50:Drivers/CMSIS/Include/cmsis_gcc.h ****   #define __STATIC_FORCEINLINE                   __attribute__((always_inline)) static inline
  51:Drivers/CMSIS/Include/cmsis_gcc.h **** #endif                                           
  52:Drivers/CMSIS/Include/cmsis_gcc.h **** #ifndef   __NO_RETURN
  53:Drivers/CMSIS/Include/cmsis_gcc.h ****   #define __NO_RETURN                            __attribute__((__noreturn__))
  54:Drivers/CMSIS/Include/cmsis_gcc.h **** #endif
  55:Drivers/CMSIS/Include/cmsis_gcc.h **** #ifndef   __USED
  56:Drivers/CMSIS/Include/cmsis_gcc.h ****   #define __USED                                 __attribute__((used))
  57:Drivers/CMSIS/Include/cmsis_gcc.h **** #endif
  58:Drivers/CMSIS/Include/cmsis_gcc.h **** #ifndef   __WEAK
  59:Drivers/CMSIS/Include/cmsis_gcc.h ****   #define __WEAK                                 __attribute__((weak))
  60:Drivers/CMSIS/Include/cmsis_gcc.h **** #endif
  61:Drivers/CMSIS/Include/cmsis_gcc.h **** #ifndef   __PACKED
  62:Drivers/CMSIS/Include/cmsis_gcc.h ****   #define __PACKED                               __attribute__((packed, aligned(1)))
  63:Drivers/CMSIS/Include/cmsis_gcc.h **** #endif
  64:Drivers/CMSIS/Include/cmsis_gcc.h **** #ifndef   __PACKED_STRUCT
  65:Drivers/CMSIS/Include/cmsis_gcc.h ****   #define __PACKED_STRUCT                        struct __attribute__((packed, aligned(1)))
  66:Drivers/CMSIS/Include/cmsis_gcc.h **** #endif
  67:Drivers/CMSIS/Include/cmsis_gcc.h **** #ifndef   __PACKED_UNION
  68:Drivers/CMSIS/Include/cmsis_gcc.h ****   #define __PACKED_UNION                         union __attribute__((packed, aligned(1)))
  69:Drivers/CMSIS/Include/cmsis_gcc.h **** #endif
  70:Drivers/CMSIS/Include/cmsis_gcc.h **** #ifndef   __UNALIGNED_UINT32        /* deprecated */
  71:Drivers/CMSIS/Include/cmsis_gcc.h ****   #pragma GCC diagnostic push
  72:Drivers/CMSIS/Include/cmsis_gcc.h ****   #pragma GCC diagnostic ignored "-Wpacked"
  73:Drivers/CMSIS/Include/cmsis_gcc.h ****   #pragma GCC diagnostic ignored "-Wattributes"
  74:Drivers/CMSIS/Include/cmsis_gcc.h ****   struct __attribute__((packed)) T_UINT32 { uint32_t v; };
  75:Drivers/CMSIS/Include/cmsis_gcc.h ****   #pragma GCC diagnostic pop
  76:Drivers/CMSIS/Include/cmsis_gcc.h ****   #define __UNALIGNED_UINT32(x)                  (((struct T_UINT32 *)(x))->v)
  77:Drivers/CMSIS/Include/cmsis_gcc.h **** #endif
  78:Drivers/CMSIS/Include/cmsis_gcc.h **** #ifndef   __UNALIGNED_UINT16_WRITE
  79:Drivers/CMSIS/Include/cmsis_gcc.h ****   #pragma GCC diagnostic push
  80:Drivers/CMSIS/Include/cmsis_gcc.h ****   #pragma GCC diagnostic ignored "-Wpacked"
  81:Drivers/CMSIS/Include/cmsis_gcc.h ****   #pragma GCC diagnostic ignored "-Wattributes"
  82:Drivers/CMSIS/Include/cmsis_gcc.h ****   __PACKED_STRUCT T_UINT16_WRITE { uint16_t v; };
  83:Drivers/CMSIS/Include/cmsis_gcc.h ****   #pragma GCC diagnostic pop
  84:Drivers/CMSIS/Include/cmsis_gcc.h ****   #define __UNALIGNED_UINT16_WRITE(addr, val)    (void)((((struct T_UINT16_WRITE *)(void *)(addr))-
  85:Drivers/CMSIS/Include/cmsis_gcc.h **** #endif
  86:Drivers/CMSIS/Include/cmsis_gcc.h **** #ifndef   __UNALIGNED_UINT16_READ
  87:Drivers/CMSIS/Include/cmsis_gcc.h ****   #pragma GCC diagnostic push
  88:Drivers/CMSIS/Include/cmsis_gcc.h ****   #pragma GCC diagnostic ignored "-Wpacked"
  89:Drivers/CMSIS/Include/cmsis_gcc.h ****   #pragma GCC diagnostic ignored "-Wattributes"
  90:Drivers/CMSIS/Include/cmsis_gcc.h ****   __PACKED_STRUCT T_UINT16_READ { uint16_t v; };
  91:Drivers/CMSIS/Include/cmsis_gcc.h ****   #pragma GCC diagnostic pop
  92:Drivers/CMSIS/Include/cmsis_gcc.h ****   #define __UNALIGNED_UINT16_READ(addr)          (((const struct T_UINT16_READ *)(const void *)(add
  93:Drivers/CMSIS/Include/cmsis_gcc.h **** #endif
  94:Drivers/CMSIS/Include/cmsis_gcc.h **** #ifndef   __UNALIGNED_UINT32_WRITE
  95:Drivers/CMSIS/Include/cmsis_gcc.h ****   #pragma GCC diagnostic push
  96:Drivers/CMSIS/Include/cmsis_gcc.h ****   #pragma GCC diagnostic ignored "-Wpacked"
  97:Drivers/CMSIS/Include/cmsis_gcc.h ****   #pragma GCC diagnostic ignored "-Wattributes"
ARM GAS  C:\Users\Nathan\AppData\Local\Temp\cc2pE8rH.s 			page 25


  98:Drivers/CMSIS/Include/cmsis_gcc.h ****   __PACKED_STRUCT T_UINT32_WRITE { uint32_t v; };
  99:Drivers/CMSIS/Include/cmsis_gcc.h ****   #pragma GCC diagnostic pop
 100:Drivers/CMSIS/Include/cmsis_gcc.h ****   #define __UNALIGNED_UINT32_WRITE(addr, val)    (void)((((struct T_UINT32_WRITE *)(void *)(addr))-
 101:Drivers/CMSIS/Include/cmsis_gcc.h **** #endif
 102:Drivers/CMSIS/Include/cmsis_gcc.h **** #ifndef   __UNALIGNED_UINT32_READ
 103:Drivers/CMSIS/Include/cmsis_gcc.h ****   #pragma GCC diagnostic push
 104:Drivers/CMSIS/Include/cmsis_gcc.h ****   #pragma GCC diagnostic ignored "-Wpacked"
 105:Drivers/CMSIS/Include/cmsis_gcc.h ****   #pragma GCC diagnostic ignored "-Wattributes"
 106:Drivers/CMSIS/Include/cmsis_gcc.h ****   __PACKED_STRUCT T_UINT32_READ { uint32_t v; };
 107:Drivers/CMSIS/Include/cmsis_gcc.h ****   #pragma GCC diagnostic pop
 108:Drivers/CMSIS/Include/cmsis_gcc.h ****   #define __UNALIGNED_UINT32_READ(addr)          (((const struct T_UINT32_READ *)(const void *)(add
 109:Drivers/CMSIS/Include/cmsis_gcc.h **** #endif
 110:Drivers/CMSIS/Include/cmsis_gcc.h **** #ifndef   __ALIGNED
 111:Drivers/CMSIS/Include/cmsis_gcc.h ****   #define __ALIGNED(x)                           __attribute__((aligned(x)))
 112:Drivers/CMSIS/Include/cmsis_gcc.h **** #endif
 113:Drivers/CMSIS/Include/cmsis_gcc.h **** #ifndef   __RESTRICT
 114:Drivers/CMSIS/Include/cmsis_gcc.h ****   #define __RESTRICT                             __restrict
 115:Drivers/CMSIS/Include/cmsis_gcc.h **** #endif
 116:Drivers/CMSIS/Include/cmsis_gcc.h **** #ifndef   __COMPILER_BARRIER
 117:Drivers/CMSIS/Include/cmsis_gcc.h ****   #define __COMPILER_BARRIER()                   __ASM volatile("":::"memory")
 118:Drivers/CMSIS/Include/cmsis_gcc.h **** #endif
 119:Drivers/CMSIS/Include/cmsis_gcc.h **** 
 120:Drivers/CMSIS/Include/cmsis_gcc.h **** /* #########################  Startup and Lowlevel Init  ######################## */
 121:Drivers/CMSIS/Include/cmsis_gcc.h **** 
 122:Drivers/CMSIS/Include/cmsis_gcc.h **** #ifndef __PROGRAM_START
 123:Drivers/CMSIS/Include/cmsis_gcc.h **** 
 124:Drivers/CMSIS/Include/cmsis_gcc.h **** /**
 125:Drivers/CMSIS/Include/cmsis_gcc.h ****   \brief   Initializes data and bss sections
 126:Drivers/CMSIS/Include/cmsis_gcc.h ****   \details This default implementations initialized all data and additional bss
 127:Drivers/CMSIS/Include/cmsis_gcc.h ****            sections relying on .copy.table and .zero.table specified properly
 128:Drivers/CMSIS/Include/cmsis_gcc.h ****            in the used linker script.
 129:Drivers/CMSIS/Include/cmsis_gcc.h ****   
 130:Drivers/CMSIS/Include/cmsis_gcc.h ****  */
 131:Drivers/CMSIS/Include/cmsis_gcc.h **** __STATIC_FORCEINLINE __NO_RETURN void __cmsis_start(void)
 132:Drivers/CMSIS/Include/cmsis_gcc.h **** {
 133:Drivers/CMSIS/Include/cmsis_gcc.h ****   extern void _start(void) __NO_RETURN;
 134:Drivers/CMSIS/Include/cmsis_gcc.h ****   
 135:Drivers/CMSIS/Include/cmsis_gcc.h ****   typedef struct {
 136:Drivers/CMSIS/Include/cmsis_gcc.h ****     uint32_t const* src;
 137:Drivers/CMSIS/Include/cmsis_gcc.h ****     uint32_t* dest;
 138:Drivers/CMSIS/Include/cmsis_gcc.h ****     uint32_t  wlen;
 139:Drivers/CMSIS/Include/cmsis_gcc.h ****   } __copy_table_t;
 140:Drivers/CMSIS/Include/cmsis_gcc.h ****   
 141:Drivers/CMSIS/Include/cmsis_gcc.h ****   typedef struct {
 142:Drivers/CMSIS/Include/cmsis_gcc.h ****     uint32_t* dest;
 143:Drivers/CMSIS/Include/cmsis_gcc.h ****     uint32_t  wlen;
 144:Drivers/CMSIS/Include/cmsis_gcc.h ****   } __zero_table_t;
 145:Drivers/CMSIS/Include/cmsis_gcc.h ****   
 146:Drivers/CMSIS/Include/cmsis_gcc.h ****   extern const __copy_table_t __copy_table_start__;
 147:Drivers/CMSIS/Include/cmsis_gcc.h ****   extern const __copy_table_t __copy_table_end__;
 148:Drivers/CMSIS/Include/cmsis_gcc.h ****   extern const __zero_table_t __zero_table_start__;
 149:Drivers/CMSIS/Include/cmsis_gcc.h ****   extern const __zero_table_t __zero_table_end__;
 150:Drivers/CMSIS/Include/cmsis_gcc.h **** 
 151:Drivers/CMSIS/Include/cmsis_gcc.h ****   for (__copy_table_t const* pTable = &__copy_table_start__; pTable < &__copy_table_end__; ++pTable
 152:Drivers/CMSIS/Include/cmsis_gcc.h ****     for(uint32_t i=0u; i<pTable->wlen; ++i) {
 153:Drivers/CMSIS/Include/cmsis_gcc.h ****       pTable->dest[i] = pTable->src[i];
 154:Drivers/CMSIS/Include/cmsis_gcc.h ****     }
ARM GAS  C:\Users\Nathan\AppData\Local\Temp\cc2pE8rH.s 			page 26


 155:Drivers/CMSIS/Include/cmsis_gcc.h ****   }
 156:Drivers/CMSIS/Include/cmsis_gcc.h ****  
 157:Drivers/CMSIS/Include/cmsis_gcc.h ****   for (__zero_table_t const* pTable = &__zero_table_start__; pTable < &__zero_table_end__; ++pTable
 158:Drivers/CMSIS/Include/cmsis_gcc.h ****     for(uint32_t i=0u; i<pTable->wlen; ++i) {
 159:Drivers/CMSIS/Include/cmsis_gcc.h ****       pTable->dest[i] = 0u;
 160:Drivers/CMSIS/Include/cmsis_gcc.h ****     }
 161:Drivers/CMSIS/Include/cmsis_gcc.h ****   }
 162:Drivers/CMSIS/Include/cmsis_gcc.h ****  
 163:Drivers/CMSIS/Include/cmsis_gcc.h ****   _start();
 164:Drivers/CMSIS/Include/cmsis_gcc.h **** }
 165:Drivers/CMSIS/Include/cmsis_gcc.h ****   
 166:Drivers/CMSIS/Include/cmsis_gcc.h **** #define __PROGRAM_START           __cmsis_start
 167:Drivers/CMSIS/Include/cmsis_gcc.h **** #endif
 168:Drivers/CMSIS/Include/cmsis_gcc.h **** 
 169:Drivers/CMSIS/Include/cmsis_gcc.h **** #ifndef __INITIAL_SP
 170:Drivers/CMSIS/Include/cmsis_gcc.h **** #define __INITIAL_SP              __StackTop
 171:Drivers/CMSIS/Include/cmsis_gcc.h **** #endif
 172:Drivers/CMSIS/Include/cmsis_gcc.h **** 
 173:Drivers/CMSIS/Include/cmsis_gcc.h **** #ifndef __STACK_LIMIT
 174:Drivers/CMSIS/Include/cmsis_gcc.h **** #define __STACK_LIMIT             __StackLimit
 175:Drivers/CMSIS/Include/cmsis_gcc.h **** #endif
 176:Drivers/CMSIS/Include/cmsis_gcc.h **** 
 177:Drivers/CMSIS/Include/cmsis_gcc.h **** #ifndef __VECTOR_TABLE
 178:Drivers/CMSIS/Include/cmsis_gcc.h **** #define __VECTOR_TABLE            __Vectors
 179:Drivers/CMSIS/Include/cmsis_gcc.h **** #endif
 180:Drivers/CMSIS/Include/cmsis_gcc.h **** 
 181:Drivers/CMSIS/Include/cmsis_gcc.h **** #ifndef __VECTOR_TABLE_ATTRIBUTE
 182:Drivers/CMSIS/Include/cmsis_gcc.h **** #define __VECTOR_TABLE_ATTRIBUTE  __attribute((used, section(".vectors")))
 183:Drivers/CMSIS/Include/cmsis_gcc.h **** #endif
 184:Drivers/CMSIS/Include/cmsis_gcc.h **** 
 185:Drivers/CMSIS/Include/cmsis_gcc.h **** /* ###########################  Core Function Access  ########################### */
 186:Drivers/CMSIS/Include/cmsis_gcc.h **** /** \ingroup  CMSIS_Core_FunctionInterface
 187:Drivers/CMSIS/Include/cmsis_gcc.h ****     \defgroup CMSIS_Core_RegAccFunctions CMSIS Core Register Access Functions
 188:Drivers/CMSIS/Include/cmsis_gcc.h ****   @{
 189:Drivers/CMSIS/Include/cmsis_gcc.h ****  */
 190:Drivers/CMSIS/Include/cmsis_gcc.h **** 
 191:Drivers/CMSIS/Include/cmsis_gcc.h **** /**
 192:Drivers/CMSIS/Include/cmsis_gcc.h ****   \brief   Enable IRQ Interrupts
 193:Drivers/CMSIS/Include/cmsis_gcc.h ****   \details Enables IRQ interrupts by clearing the I-bit in the CPSR.
 194:Drivers/CMSIS/Include/cmsis_gcc.h ****            Can only be executed in Privileged modes.
 195:Drivers/CMSIS/Include/cmsis_gcc.h ****  */
 196:Drivers/CMSIS/Include/cmsis_gcc.h **** __STATIC_FORCEINLINE void __enable_irq(void)
 197:Drivers/CMSIS/Include/cmsis_gcc.h **** {
 198:Drivers/CMSIS/Include/cmsis_gcc.h ****   __ASM volatile ("cpsie i" : : : "memory");
 199:Drivers/CMSIS/Include/cmsis_gcc.h **** }
 200:Drivers/CMSIS/Include/cmsis_gcc.h **** 
 201:Drivers/CMSIS/Include/cmsis_gcc.h **** 
 202:Drivers/CMSIS/Include/cmsis_gcc.h **** /**
 203:Drivers/CMSIS/Include/cmsis_gcc.h ****   \brief   Disable IRQ Interrupts
 204:Drivers/CMSIS/Include/cmsis_gcc.h ****   \details Disables IRQ interrupts by setting the I-bit in the CPSR.
 205:Drivers/CMSIS/Include/cmsis_gcc.h ****            Can only be executed in Privileged modes.
 206:Drivers/CMSIS/Include/cmsis_gcc.h ****  */
 207:Drivers/CMSIS/Include/cmsis_gcc.h **** __STATIC_FORCEINLINE void __disable_irq(void)
 995              		.loc 2 207 27 view .LVU345
 996              	.LBB16:
 208:Drivers/CMSIS/Include/cmsis_gcc.h **** {
 209:Drivers/CMSIS/Include/cmsis_gcc.h ****   __ASM volatile ("cpsid i" : : : "memory");
ARM GAS  C:\Users\Nathan\AppData\Local\Temp\cc2pE8rH.s 			page 27


 997              		.loc 2 209 3 view .LVU346
 998              		.syntax unified
 999              	@ 209 "Drivers/CMSIS/Include/cmsis_gcc.h" 1
 1000 0004 72B6     		cpsid i
 1001              	@ 0 "" 2
 1002              		.thumb
 1003              		.syntax unified
 1004              	.LBE16:
 1005              	.LBE15:
 184:patchouli/src/patchouli_bsp_glider_addon_v1.c ****     patchouli_pen_pw100.tx_fptr_table[fstep]();
 1006              		.loc 1 184 5 view .LVU347
 1007              		.loc 1 184 24 is_stmt 0 view .LVU348
 1008 0006 304B     		ldr	r3, .L89
 1009 0008 1B69     		ldr	r3, [r3, #16]
 1010              		.loc 1 184 38 view .LVU349
 1011 000a 53F82130 		ldr	r3, [r3, r1, lsl #2]
 1012              		.loc 1 184 5 view .LVU350
 1013 000e 9847     		blx	r3
 1014              	.LVL112:
 185:patchouli/src/patchouli_bsp_glider_addon_v1.c ****       if(!back_side)
 1015              		.loc 1 185 7 is_stmt 1 view .LVU351
 1016              		.loc 1 185 9 is_stmt 0 view .LVU352
 1017 0010 34B9     		cbnz	r4, .L87
 1018              	.LBB17:
 186:patchouli/src/patchouli_bsp_glider_addon_v1.c ****           for (int i=0;i<400;i++)  asm volatile ("nop");
 1019              		.loc 1 186 20 view .LVU353
 1020 0012 0023     		movs	r3, #0
 1021              	.L77:
 1022              	.LVL113:
 1023              		.loc 1 186 25 is_stmt 1 discriminator 1 view .LVU354
 1024 0014 B3F5C87F 		cmp	r3, #400
 1025 0018 08DA     		bge	.L79
 1026              		.loc 1 186 36 discriminator 3 view .LVU355
 1027              		.syntax unified
 1028              	@ 186 "patchouli/src/patchouli_bsp_glider_addon_v1.c" 1
 1029 001a 00BF     		nop
 1030              	@ 0 "" 2
 1031              		.loc 1 186 31 discriminator 3 view .LVU356
 1032              		.thumb
 1033              		.syntax unified
 1034 001c 0133     		adds	r3, r3, #1
 1035              	.LVL114:
 1036              		.loc 1 186 31 is_stmt 0 discriminator 3 view .LVU357
 1037 001e F9E7     		b	.L77
 1038              	.LVL115:
 1039              	.L87:
 1040              		.loc 1 186 31 discriminator 3 view .LVU358
 1041              	.LBE17:
 1042              	.LBB18:
 187:patchouli/src/patchouli_bsp_glider_addon_v1.c ****       else
 188:patchouli/src/patchouli_bsp_glider_addon_v1.c ****           for (int i=0;i<100;i++)  asm volatile ("nop");
 1043              		.loc 1 188 20 view .LVU359
 1044 0020 0023     		movs	r3, #0
 1045              	.L76:
 1046              	.LVL116:
 1047              		.loc 1 188 25 is_stmt 1 discriminator 1 view .LVU360
 1048 0022 632B     		cmp	r3, #99
ARM GAS  C:\Users\Nathan\AppData\Local\Temp\cc2pE8rH.s 			page 28


 1049 0024 02DC     		bgt	.L79
 1050              		.loc 1 188 36 discriminator 3 view .LVU361
 1051              		.syntax unified
 1052              	@ 188 "patchouli/src/patchouli_bsp_glider_addon_v1.c" 1
 1053 0026 00BF     		nop
 1054              	@ 0 "" 2
 1055              		.loc 1 188 31 discriminator 3 view .LVU362
 1056              		.thumb
 1057              		.syntax unified
 1058 0028 0133     		adds	r3, r3, #1
 1059              	.LVL117:
 1060              		.loc 1 188 31 is_stmt 0 discriminator 3 view .LVU363
 1061 002a FAE7     		b	.L76
 1062              	.LVL118:
 1063              	.L79:
 1064              		.loc 1 188 31 discriminator 3 view .LVU364
 1065              	.LBE18:
 189:patchouli/src/patchouli_bsp_glider_addon_v1.c ****       HAL_GPIO_WritePin(DISCHARGE_GPIO_Port, DISCHARGE_Pin, GPIO_PIN_RESET);
 1066              		.loc 1 189 7 is_stmt 1 view .LVU365
 1067 002c 0022     		movs	r2, #0
 1068 002e 0121     		movs	r1, #1
 1069 0030 4FF09040 		mov	r0, #1207959552
 1070 0034 FFF7FEFF 		bl	HAL_GPIO_WritePin
 1071              	.LVL119:
 190:patchouli/src/patchouli_bsp_glider_addon_v1.c ****       for (int i=0;i<5000;i++) asm volatile ("nop");
 1072              		.loc 1 190 7 view .LVU366
 1073              	.LBB19:
 1074              		.loc 1 190 12 view .LVU367
 1075              		.loc 1 190 16 is_stmt 0 view .LVU368
 1076 0038 0023     		movs	r3, #0
 1077              		.loc 1 190 7 view .LVU369
 1078 003a 01E0     		b	.L81
 1079              	.LVL120:
 1080              	.L82:
 1081              		.loc 1 190 32 is_stmt 1 discriminator 3 view .LVU370
 1082              		.syntax unified
 1083              	@ 190 "patchouli/src/patchouli_bsp_glider_addon_v1.c" 1
 1084 003c 00BF     		nop
 1085              	@ 0 "" 2
 1086              		.loc 1 190 28 discriminator 3 view .LVU371
 1087              		.thumb
 1088              		.syntax unified
 1089 003e 0133     		adds	r3, r3, #1
 1090              	.LVL121:
 1091              	.L81:
 1092              		.loc 1 190 21 discriminator 1 view .LVU372
 1093 0040 41F28732 		movw	r2, #4999
 1094 0044 9342     		cmp	r3, r2
 1095 0046 F9DD     		ble	.L82
 1096              	.LBE19:
 191:patchouli/src/patchouli_bsp_glider_addon_v1.c ****       uint16_t value = _patchouli_adc_multisample();
 1097              		.loc 1 191 7 view .LVU373
 1098              		.loc 1 191 24 is_stmt 0 view .LVU374
 1099 0048 FFF7FEFF 		bl	_patchouli_adc_multisample
 1100              	.LVL122:
 1101              		.loc 1 191 24 view .LVU375
 1102 004c 0446     		mov	r4, r0
ARM GAS  C:\Users\Nathan\AppData\Local\Temp\cc2pE8rH.s 			page 29


 1103              	.LVL123:
 192:patchouli/src/patchouli_bsp_glider_addon_v1.c **** # ifdef PATCHOULI_CDS
 193:patchouli/src/patchouli_bsp_glider_addon_v1.c ****       HAL_GPIO_WritePin(DISCHARGE_GPIO_Port, DISCHARGE_Pin, GPIO_PIN_SET);
 1104              		.loc 1 193 7 is_stmt 1 view .LVU376
 1105 004e 0122     		movs	r2, #1
 1106 0050 1146     		mov	r1, r2
 1107 0052 4FF09040 		mov	r0, #1207959552
 1108 0056 FFF7FEFF 		bl	HAL_GPIO_WritePin
 1109              	.LVL124:
 194:patchouli/src/patchouli_bsp_glider_addon_v1.c ****       for (int i=0;i<100;i++) asm volatile ("nop");
 1110              		.loc 1 194 7 view .LVU377
 1111              	.LBB20:
 1112              		.loc 1 194 12 view .LVU378
 1113              		.loc 1 194 16 is_stmt 0 view .LVU379
 1114 005a 0023     		movs	r3, #0
 1115              		.loc 1 194 7 view .LVU380
 1116 005c 01E0     		b	.L83
 1117              	.LVL125:
 1118              	.L84:
 1119              		.loc 1 194 31 is_stmt 1 discriminator 3 view .LVU381
 1120              		.syntax unified
 1121              	@ 194 "patchouli/src/patchouli_bsp_glider_addon_v1.c" 1
 1122 005e 00BF     		nop
 1123              	@ 0 "" 2
 1124              		.loc 1 194 27 discriminator 3 view .LVU382
 1125              		.thumb
 1126              		.syntax unified
 1127 0060 0133     		adds	r3, r3, #1
 1128              	.LVL126:
 1129              	.L83:
 1130              		.loc 1 194 21 discriminator 1 view .LVU383
 1131 0062 632B     		cmp	r3, #99
 1132 0064 FBDD     		ble	.L84
 1133              	.LBE20:
 195:patchouli/src/patchouli_bsp_glider_addon_v1.c ****       HAL_GPIO_WritePin(DISCHARGE_GPIO_Port, DISCHARGE_Pin, GPIO_PIN_RESET);
 1134              		.loc 1 195 7 view .LVU384
 1135 0066 0022     		movs	r2, #0
 1136 0068 0121     		movs	r1, #1
 1137 006a 4FF09040 		mov	r0, #1207959552
 1138 006e FFF7FEFF 		bl	HAL_GPIO_WritePin
 1139              	.LVL127:
 196:patchouli/src/patchouli_bsp_glider_addon_v1.c ****       for (int i=0;i<200;i++) asm volatile ("nop");
 1140              		.loc 1 196 7 view .LVU385
 1141              	.LBB21:
 1142              		.loc 1 196 12 view .LVU386
 1143              		.loc 1 196 16 is_stmt 0 view .LVU387
 1144 0072 0023     		movs	r3, #0
 1145              		.loc 1 196 7 view .LVU388
 1146 0074 01E0     		b	.L85
 1147              	.LVL128:
 1148              	.L86:
 1149              		.loc 1 196 31 is_stmt 1 discriminator 3 view .LVU389
 1150              		.syntax unified
 1151              	@ 196 "patchouli/src/patchouli_bsp_glider_addon_v1.c" 1
 1152 0076 00BF     		nop
 1153              	@ 0 "" 2
 1154              		.loc 1 196 27 discriminator 3 view .LVU390
ARM GAS  C:\Users\Nathan\AppData\Local\Temp\cc2pE8rH.s 			page 30


 1155              		.thumb
 1156              		.syntax unified
 1157 0078 0133     		adds	r3, r3, #1
 1158              	.LVL129:
 1159              	.L85:
 1160              		.loc 1 196 21 discriminator 1 view .LVU391
 1161 007a C72B     		cmp	r3, #199
 1162 007c FBDD     		ble	.L86
 1163              	.LBE21:
 197:patchouli/src/patchouli_bsp_glider_addon_v1.c ****       HAL_ADC_Start(&hadc1);
 1164              		.loc 1 197 7 view .LVU392
 1165 007e 134D     		ldr	r5, .L89+4
 1166 0080 2846     		mov	r0, r5
 1167 0082 FFF7FEFF 		bl	HAL_ADC_Start
 1168              	.LVL130:
 198:patchouli/src/patchouli_bsp_glider_addon_v1.c ****       HAL_ADC_PollForConversion(&hadc1, HAL_MAX_DELAY);
 1169              		.loc 1 198 7 view .LVU393
 1170 0086 4FF0FF31 		mov	r1, #-1
 1171 008a 2846     		mov	r0, r5
 1172 008c FFF7FEFF 		bl	HAL_ADC_PollForConversion
 1173              	.LVL131:
 199:patchouli/src/patchouli_bsp_glider_addon_v1.c ****       uint16_t base = HAL_ADC_GetValue(&hadc1);
 1174              		.loc 1 199 7 view .LVU394
 1175              		.loc 1 199 23 is_stmt 0 view .LVU395
 1176 0090 2846     		mov	r0, r5
 1177 0092 FFF7FEFF 		bl	HAL_ADC_GetValue
 1178              	.LVL132:
 1179 0096 0546     		mov	r5, r0
 1180              	.LVL133:
 200:patchouli/src/patchouli_bsp_glider_addon_v1.c **** #endif
 201:patchouli/src/patchouli_bsp_glider_addon_v1.c ****       __enable_irq();
 1181              		.loc 1 201 7 is_stmt 1 view .LVU396
 1182              	.LBB22:
 1183              	.LBI22:
 196:Drivers/CMSIS/Include/cmsis_gcc.h **** {
 1184              		.loc 2 196 27 view .LVU397
 1185              	.LBB23:
 198:Drivers/CMSIS/Include/cmsis_gcc.h **** }
 1186              		.loc 2 198 3 view .LVU398
 1187              		.syntax unified
 1188              	@ 198 "Drivers/CMSIS/Include/cmsis_gcc.h" 1
 1189 0098 62B6     		cpsie i
 1190              	@ 0 "" 2
 1191              		.thumb
 1192              		.syntax unified
 1193              	.LBE23:
 1194              	.LBE22:
 202:patchouli/src/patchouli_bsp_glider_addon_v1.c ****       HAL_GPIO_WritePin(DISCHARGE_GPIO_Port, DISCHARGE_Pin, GPIO_PIN_SET);
 1195              		.loc 1 202 7 view .LVU399
 1196 009a 0122     		movs	r2, #1
 1197 009c 1146     		mov	r1, r2
 1198 009e 4FF09040 		mov	r0, #1207959552
 1199 00a2 FFF7FEFF 		bl	HAL_GPIO_WritePin
 1200              	.LVL134:
 203:patchouli/src/patchouli_bsp_glider_addon_v1.c **** #ifdef PATCHOULI_CDS
 204:patchouli/src/patchouli_bsp_glider_addon_v1.c ****       // return value-base;
 205:patchouli/src/patchouli_bsp_glider_addon_v1.c ****       return value-base+PATCHOULI_DATA_OFFSET;
ARM GAS  C:\Users\Nathan\AppData\Local\Temp\cc2pE8rH.s 			page 31


 1201              		.loc 1 205 7 view .LVU400
 1202              		.loc 1 205 19 is_stmt 0 view .LVU401
 1203 00a6 ADB2     		uxth	r5, r5
 1204              		.loc 1 205 19 view .LVU402
 1205 00a8 631B     		subs	r3, r4, r5
 1206 00aa 07EE903A 		vmov	s15, r3	@ int
 1207              		.loc 1 205 24 view .LVU403
 1208 00ae F8EEE77A 		vcvt.f32.s32	s15, s15
 1209 00b2 9FED077A 		vldr.32	s14, .L89+8
 1210 00b6 77EE877A 		vadd.f32	s15, s15, s14
 1211 00ba FCEEE77A 		vcvt.u32.f32	s15, s15
 206:patchouli/src/patchouli_bsp_glider_addon_v1.c **** #else
 207:patchouli/src/patchouli_bsp_glider_addon_v1.c ****       return value;
 208:patchouli/src/patchouli_bsp_glider_addon_v1.c **** #endif
 209:patchouli/src/patchouli_bsp_glider_addon_v1.c **** }
 1212              		.loc 1 209 1 view .LVU404
 1213 00be 17EE903A 		vmov	r3, s15	@ int
 1214 00c2 98B2     		uxth	r0, r3
 1215 00c4 38BD     		pop	{r3, r4, r5, pc}
 1216              	.LVL135:
 1217              	.L90:
 1218              		.loc 1 209 1 view .LVU405
 1219 00c6 00BF     		.align	2
 1220              	.L89:
 1221 00c8 00000000 		.word	patchouli_pen_pw100
 1222 00cc 00000000 		.word	hadc1
 1223 00d0 0000C842 		.word	1120403456
 1224              		.cfi_endproc
 1225              	.LFE1419:
 1227              		.global	__aeabi_f2d
 1228              		.global	__aeabi_d2uiz
 1229              		.section	.text.patchouli_set_freq,"ax",%progbits
 1230              		.align	1
 1231              		.global	patchouli_set_freq
 1232              		.syntax unified
 1233              		.thumb
 1234              		.thumb_func
 1236              	patchouli_set_freq:
 1237              	.LVL136:
 1238              	.LFB1420:
 210:patchouli/src/patchouli_bsp_glider_addon_v1.c **** 
 211:patchouli/src/patchouli_bsp_glider_addon_v1.c **** // Configure TIM1 to generate the expected output frequency
 212:patchouli/src/patchouli_bsp_glider_addon_v1.c **** //
 213:patchouli/src/patchouli_bsp_glider_addon_v1.c **** void patchouli_set_freq(float freq){
 1239              		.loc 1 213 36 is_stmt 1 view -0
 1240              		.cfi_startproc
 1241              		@ args = 0, pretend = 0, frame = 0
 1242              		@ frame_needed = 0, uses_anonymous_args = 0
 1243              		.loc 1 213 36 is_stmt 0 view .LVU407
 1244 0000 08B5     		push	{r3, lr}
 1245              		.cfi_def_cfa_offset 8
 1246              		.cfi_offset 3, -8
 1247              		.cfi_offset 14, -4
 214:patchouli/src/patchouli_bsp_glider_addon_v1.c ****       uint16_t t = round(PATCHOULI_TIM_FAST_CLK/freq);
 1248              		.loc 1 214 7 is_stmt 1 view .LVU408
 1249              		.loc 1 214 20 is_stmt 0 view .LVU409
 1250 0002 DFED0B7A 		vldr.32	s15, .L93
ARM GAS  C:\Users\Nathan\AppData\Local\Temp\cc2pE8rH.s 			page 32


 1251 0006 C7EE807A 		vdiv.f32	s15, s15, s0
 1252 000a 17EE900A 		vmov	r0, s15
 1253 000e FFF7FEFF 		bl	__aeabi_f2d
 1254              	.LVL137:
 1255              		.loc 1 214 20 view .LVU410
 1256 0012 41EC100B 		vmov	d0, r0, r1
 1257 0016 FFF7FEFF 		bl	round
 1258              	.LVL138:
 1259 001a 51EC100B 		vmov	r0, r1, d0
 1260              		.loc 1 214 16 discriminator 1 view .LVU411
 1261 001e FFF7FEFF 		bl	__aeabi_d2uiz
 1262              	.LVL139:
 1263 0022 80B2     		uxth	r0, r0
 1264              	.LVL140:
 215:patchouli/src/patchouli_bsp_glider_addon_v1.c ****       htim16.Instance->ARR  = t;
 1265              		.loc 1 215 7 is_stmt 1 view .LVU412
 1266              		.loc 1 215 13 is_stmt 0 view .LVU413
 1267 0024 034B     		ldr	r3, .L93+4
 1268 0026 1B68     		ldr	r3, [r3]
 1269              		.loc 1 215 29 view .LVU414
 1270 0028 D862     		str	r0, [r3, #44]
 216:patchouli/src/patchouli_bsp_glider_addon_v1.c ****       htim16.Instance->CCR1 = (t/2);
 1271              		.loc 1 216 7 is_stmt 1 view .LVU415
 1272              		.loc 1 216 33 is_stmt 0 view .LVU416
 1273 002a 4008     		lsrs	r0, r0, #1
 1274              	.LVL141:
 1275              		.loc 1 216 29 view .LVU417
 1276 002c 5863     		str	r0, [r3, #52]
 1277              	.LVL142:
 217:patchouli/src/patchouli_bsp_glider_addon_v1.c **** }
 1278              		.loc 1 217 1 view .LVU418
 1279 002e 08BD     		pop	{r3, pc}
 1280              	.L94:
 1281              		.align	2
 1282              	.L93:
 1283 0030 0024744C 		.word	1282679808
 1284 0034 00000000 		.word	htim16
 1285              		.cfi_endproc
 1286              	.LFE1420:
 1288              		.section	.rodata.patchouli_freq_test.str1.4,"aMS",%progbits,1
 1289              		.align	2
 1290              	.LC0:
 1291 0000 54617267 		.ascii	"Target\011Achieved\015\000"
 1291      65740941 
 1291      63686965 
 1291      7665640D 
 1291      00
 1292              		.global	__aeabi_i2d
 1293              		.global	__aeabi_dmul
 1294              		.global	__aeabi_dadd
 1295              		.global	__aeabi_d2f
 1296              		.global	__aeabi_ddiv
 1297 0011 000000   		.align	2
 1298              	.LC1:
 1299 0014 25660925 		.ascii	"%f\011%f\015\012\000"
 1299      660D0A00 
 1300              		.section	.text.patchouli_freq_test,"ax",%progbits
ARM GAS  C:\Users\Nathan\AppData\Local\Temp\cc2pE8rH.s 			page 33


 1301              		.align	1
 1302              		.global	patchouli_freq_test
 1303              		.syntax unified
 1304              		.thumb
 1305              		.thumb_func
 1307              	patchouli_freq_test:
 1308              	.LFB1421:
 218:patchouli/src/patchouli_bsp_glider_addon_v1.c **** void patchouli_freq_test(){
 1309              		.loc 1 218 27 is_stmt 1 view -0
 1310              		.cfi_startproc
 1311              		@ args = 0, pretend = 0, frame = 72
 1312              		@ frame_needed = 0, uses_anonymous_args = 0
 1313 0000 2DE9D043 		push	{r4, r6, r7, r8, r9, lr}
 1314              		.cfi_def_cfa_offset 24
 1315              		.cfi_offset 4, -24
 1316              		.cfi_offset 6, -20
 1317              		.cfi_offset 7, -16
 1318              		.cfi_offset 8, -12
 1319              		.cfi_offset 9, -8
 1320              		.cfi_offset 14, -4
 1321 0004 2DED028B 		vpush.64	{d8}
 1322              		.cfi_def_cfa_offset 32
 1323              		.cfi_offset 80, -32
 1324              		.cfi_offset 81, -28
 1325 0008 94B0     		sub	sp, sp, #80
 1326              		.cfi_def_cfa_offset 112
 219:patchouli/src/patchouli_bsp_glider_addon_v1.c ****       printf("Target\tAchieved\r\n");
 1327              		.loc 1 219 7 view .LVU420
 1328 000a 2D48     		ldr	r0, .L99+16
 1329 000c FFF7FEFF 		bl	puts
 1330              	.LVL143:
 220:patchouli/src/patchouli_bsp_glider_addon_v1.c ****       float flist[PATCHOULI_TIM_N_STEP];
 1331              		.loc 1 220 7 view .LVU421
 221:patchouli/src/patchouli_bsp_glider_addon_v1.c ****       float fachieved[PATCHOULI_TIM_N_STEP];
 1332              		.loc 1 221 7 view .LVU422
 222:patchouli/src/patchouli_bsp_glider_addon_v1.c ****       for (int i=0;i<PATCHOULI_TIM_N_STEP;i++){
 1333              		.loc 1 222 7 view .LVU423
 1334              	.LBB24:
 1335              		.loc 1 222 12 view .LVU424
 1336              		.loc 1 222 16 is_stmt 0 view .LVU425
 1337 0010 0024     		movs	r4, #0
 1338              		.loc 1 222 7 view .LVU426
 1339 0012 46E0     		b	.L96
 1340              	.LVL144:
 1341              	.L97:
 1342              	.LBB25:
 223:patchouli/src/patchouli_bsp_glider_addon_v1.c ****           flist[i] = PATCHOULI_TIM_F_MIN + PATCHOULI_TIM_F_STEP * i;
 1343              		.loc 1 223 11 is_stmt 1 view .LVU427
 1344              		.loc 1 223 65 is_stmt 0 view .LVU428
 1345 0014 2046     		mov	r0, r4
 1346 0016 FFF7FEFF 		bl	__aeabi_i2d
 1347              	.LVL145:
 1348 001a 25A3     		adr	r3, .L99
 1349 001c D3E90023 		ldrd	r2, [r3]
 1350 0020 FFF7FEFF 		bl	__aeabi_dmul
 1351              	.LVL146:
 1352              		.loc 1 223 42 view .LVU429
ARM GAS  C:\Users\Nathan\AppData\Local\Temp\cc2pE8rH.s 			page 34


 1353 0024 24A3     		adr	r3, .L99+8
 1354 0026 D3E90023 		ldrd	r2, [r3]
 1355 002a FFF7FEFF 		bl	__aeabi_dadd
 1356              	.LVL147:
 1357 002e FFF7FEFF 		bl	__aeabi_d2f
 1358              	.LVL148:
 1359 0032 07EE100A 		vmov	s14, r0
 1360              		.loc 1 223 20 view .LVU430
 1361 0036 14AB     		add	r3, sp, #80
 1362 0038 03EB8403 		add	r3, r3, r4, lsl #2
 1363 003c 43F8480C 		str	r0, [r3, #-72]	@ float
 224:patchouli/src/patchouli_bsp_glider_addon_v1.c ****           uint16_t d = (PATCHOULI_TIM_FAST_CLK/flist[i]);
 1364              		.loc 1 224 11 is_stmt 1 view .LVU431
 1365              		.loc 1 224 47 is_stmt 0 view .LVU432
 1366 0040 DFED206A 		vldr.32	s13, .L99+20
 1367 0044 C6EE877A 		vdiv.f32	s15, s13, s14
 1368              		.loc 1 224 20 view .LVU433
 1369 0048 FCEEE77A 		vcvt.u32.f32	s15, s15
 1370 004c 17EE902A 		vmov	r2, s15	@ int
 1371 0050 92B2     		uxth	r2, r2
 1372 0052 07EE902A 		vmov	s15, r2	@ int
 1373              	.LVL149:
 225:patchouli/src/patchouli_bsp_glider_addon_v1.c ****           fachieved[i] = PATCHOULI_TIM_FAST_CLK/d;
 1374              		.loc 1 225 11 is_stmt 1 view .LVU434
 1375              		.loc 1 225 48 is_stmt 0 view .LVU435
 1376 0056 F8EEE77A 		vcvt.f32.s32	s15, s15
 1377              	.LVL150:
 1378              		.loc 1 225 48 view .LVU436
 1379 005a 86EEA78A 		vdiv.f32	s16, s13, s15
 1380              		.loc 1 225 24 view .LVU437
 1381 005e 03ED098A 		vstr.32	s16, [r3, #-36]
 226:patchouli/src/patchouli_bsp_glider_addon_v1.c ****           printf("%f\t%f\r\n", flist[i]/1e3, fachieved[i]/1e3);
 1382              		.loc 1 226 11 is_stmt 1 view .LVU438
 1383              		.loc 1 226 37 is_stmt 0 view .LVU439
 1384 0062 FFF7FEFF 		bl	__aeabi_f2d
 1385              	.LVL151:
 1386              		.loc 1 226 37 view .LVU440
 1387 0066 0646     		mov	r6, r0
 1388 0068 0F46     		mov	r7, r1
 1389              		.loc 1 226 55 view .LVU441
 1390 006a 18EE100A 		vmov	r0, s16
 1391 006e FFF7FEFF 		bl	__aeabi_f2d
 1392              	.LVL152:
 1393 0072 8046     		mov	r8, r0
 1394 0074 8946     		mov	r9, r1
 1395              		.loc 1 226 11 view .LVU442
 1396 0076 0022     		movs	r2, #0
 1397 0078 134B     		ldr	r3, .L99+24
 1398 007a 3046     		mov	r0, r6
 1399 007c 3946     		mov	r1, r7
 1400 007e FFF7FEFF 		bl	__aeabi_ddiv
 1401              	.LVL153:
 1402 0082 0646     		mov	r6, r0
 1403 0084 0F46     		mov	r7, r1
 1404 0086 0022     		movs	r2, #0
 1405 0088 0F4B     		ldr	r3, .L99+24
 1406 008a 4046     		mov	r0, r8
ARM GAS  C:\Users\Nathan\AppData\Local\Temp\cc2pE8rH.s 			page 35


 1407 008c 4946     		mov	r1, r9
 1408 008e FFF7FEFF 		bl	__aeabi_ddiv
 1409              	.LVL154:
 1410 0092 CDE90001 		strd	r0, [sp]
 1411 0096 3246     		mov	r2, r6
 1412 0098 3B46     		mov	r3, r7
 1413 009a 0C48     		ldr	r0, .L99+28
 1414 009c FFF7FEFF 		bl	printf
 1415              	.LVL155:
 1416              	.LBE25:
 222:patchouli/src/patchouli_bsp_glider_addon_v1.c ****           flist[i] = PATCHOULI_TIM_F_MIN + PATCHOULI_TIM_F_STEP * i;
 1417              		.loc 1 222 44 is_stmt 1 discriminator 3 view .LVU443
 1418 00a0 0134     		adds	r4, r4, #1
 1419              	.LVL156:
 1420              	.L96:
 222:patchouli/src/patchouli_bsp_glider_addon_v1.c ****           flist[i] = PATCHOULI_TIM_F_MIN + PATCHOULI_TIM_F_STEP * i;
 1421              		.loc 1 222 21 discriminator 1 view .LVU444
 1422 00a2 082C     		cmp	r4, #8
 1423 00a4 B6DD     		ble	.L97
 1424              	.LBE24:
 227:patchouli/src/patchouli_bsp_glider_addon_v1.c ****       }
 228:patchouli/src/patchouli_bsp_glider_addon_v1.c **** }
 1425              		.loc 1 228 1 is_stmt 0 view .LVU445
 1426 00a6 14B0     		add	sp, sp, #80
 1427              		.cfi_def_cfa_offset 32
 1428              		@ sp needed
 1429 00a8 BDEC028B 		vldm	sp!, {d8}
 1430              		.cfi_restore 80
 1431              		.cfi_restore 81
 1432              		.cfi_def_cfa_offset 24
 1433 00ac BDE8D083 		pop	{r4, r6, r7, r8, r9, pc}
 1434              	.LVL157:
 1435              	.L100:
 1436              		.loc 1 228 1 view .LVU446
 1437              		.align	3
 1438              	.L99:
 1439 00b0 00000000 		.word	0
 1440 00b4 0088C340 		.word	1086556160
 1441 00b8 00000000 		.word	0
 1442 00bc E0FD1C41 		.word	1092419040
 1443 00c0 00000000 		.word	.LC0
 1444 00c4 0024744C 		.word	1282679808
 1445 00c8 00408F40 		.word	1083129856
 1446 00cc 14000000 		.word	.LC1
 1447              		.cfi_endproc
 1448              	.LFE1421:
 1450              		.section	.text.patchouli_led_on,"ax",%progbits
 1451              		.align	1
 1452              		.global	patchouli_led_on
 1453              		.syntax unified
 1454              		.thumb
 1455              		.thumb_func
 1457              	patchouli_led_on:
 1458              	.LFB1422:
 229:patchouli/src/patchouli_bsp_glider_addon_v1.c **** void patchouli_led_on(){
 1459              		.loc 1 229 24 is_stmt 1 view -0
 1460              		.cfi_startproc
ARM GAS  C:\Users\Nathan\AppData\Local\Temp\cc2pE8rH.s 			page 36


 1461              		@ args = 0, pretend = 0, frame = 0
 1462              		@ frame_needed = 0, uses_anonymous_args = 0
 1463              		@ link register save eliminated.
 230:patchouli/src/patchouli_bsp_glider_addon_v1.c ****     // HAL_GPIO_WritePin(LED_GPIO_Port, LED_Pin, GPIO_PIN_SET);
 231:patchouli/src/patchouli_bsp_glider_addon_v1.c **** }
 1464              		.loc 1 231 1 view .LVU448
 1465 0000 7047     		bx	lr
 1466              		.cfi_endproc
 1467              	.LFE1422:
 1469              		.section	.text.patchouli_led_off,"ax",%progbits
 1470              		.align	1
 1471              		.global	patchouli_led_off
 1472              		.syntax unified
 1473              		.thumb
 1474              		.thumb_func
 1476              	patchouli_led_off:
 1477              	.LFB1423:
 232:patchouli/src/patchouli_bsp_glider_addon_v1.c **** 
 233:patchouli/src/patchouli_bsp_glider_addon_v1.c **** void patchouli_led_off(){
 1478              		.loc 1 233 25 view -0
 1479              		.cfi_startproc
 1480              		@ args = 0, pretend = 0, frame = 0
 1481              		@ frame_needed = 0, uses_anonymous_args = 0
 1482              		@ link register save eliminated.
 234:patchouli/src/patchouli_bsp_glider_addon_v1.c ****     // HAL_GPIO_WritePin(LED_GPIO_Port, LED_Pin, GPIO_PIN_RESET);
 235:patchouli/src/patchouli_bsp_glider_addon_v1.c **** }
 1483              		.loc 1 235 1 view .LVU450
 1484 0000 7047     		bx	lr
 1485              		.cfi_endproc
 1486              	.LFE1423:
 1488              		.section	.text.patchouli_comms_init,"ax",%progbits
 1489              		.align	1
 1490              		.global	patchouli_comms_init
 1491              		.syntax unified
 1492              		.thumb
 1493              		.thumb_func
 1495              	patchouli_comms_init:
 1496              	.LFB1424:
 236:patchouli/src/patchouli_bsp_glider_addon_v1.c **** 
 237:patchouli/src/patchouli_bsp_glider_addon_v1.c **** extern UART_HandleTypeDef huart1;
 238:patchouli/src/patchouli_bsp_glider_addon_v1.c **** extern uint8_t huart1_rxbuffer[256];
 239:patchouli/src/patchouli_bsp_glider_addon_v1.c **** // Init all communication drivers (UART, USB, etc)
 240:patchouli/src/patchouli_bsp_glider_addon_v1.c **** void patchouli_comms_init(){
 1497              		.loc 1 240 28 view -0
 1498              		.cfi_startproc
 1499              		@ args = 0, pretend = 0, frame = 0
 1500              		@ frame_needed = 0, uses_anonymous_args = 0
 1501 0000 08B5     		push	{r3, lr}
 1502              		.cfi_def_cfa_offset 8
 1503              		.cfi_offset 3, -8
 1504              		.cfi_offset 14, -4
 241:patchouli/src/patchouli_bsp_glider_addon_v1.c ****     HAL_UART_Receive_IT(&huart1, (uint8_t *)huart1_rxbuffer, 1);
 1505              		.loc 1 241 5 view .LVU452
 1506 0002 0122     		movs	r2, #1
 1507 0004 0249     		ldr	r1, .L105
 1508 0006 0348     		ldr	r0, .L105+4
 1509 0008 FFF7FEFF 		bl	HAL_UART_Receive_IT
ARM GAS  C:\Users\Nathan\AppData\Local\Temp\cc2pE8rH.s 			page 37


 1510              	.LVL158:
 242:patchouli/src/patchouli_bsp_glider_addon_v1.c **** 
 243:patchouli/src/patchouli_bsp_glider_addon_v1.c **** }
 1511              		.loc 1 243 1 is_stmt 0 view .LVU453
 1512 000c 08BD     		pop	{r3, pc}
 1513              	.L106:
 1514 000e 00BF     		.align	2
 1515              	.L105:
 1516 0010 00000000 		.word	huart1_rxbuffer
 1517 0014 00000000 		.word	huart1
 1518              		.cfi_endproc
 1519              	.LFE1424:
 1521              		.section	.rodata.patchouli_transmit.str1.4,"aMS",%progbits,1
 1522              		.align	2
 1523              	.LC2:
 1524 0000 5472616E 		.ascii	"Transmit\012\000"
 1524      736D6974 
 1524      0A00
 1525 000a 0000     		.align	2
 1526              	.LC3:
 1527 000c 25640925 		.ascii	"%d\011%d\011%d\012\000"
 1527      64092564 
 1527      0A00
 1528              		.section	.text.patchouli_transmit,"ax",%progbits
 1529              		.align	1
 1530              		.global	patchouli_transmit
 1531              		.syntax unified
 1532              		.thumb
 1533              		.thumb_func
 1535              	patchouli_transmit:
 1536              	.LVL159:
 1537              	.LFB1426:
 244:patchouli/src/patchouli_bsp_glider_addon_v1.c **** // #include "usbd_hid.h"
 245:patchouli/src/patchouli_bsp_glider_addon_v1.c **** // extern uint8_t usbhid_txbuf[12];
 246:patchouli/src/patchouli_bsp_glider_addon_v1.c **** // extern USBD_HandleTypeDef hUsbDeviceFS;
 247:patchouli/src/patchouli_bsp_glider_addon_v1.c **** // bool patchouli_transmit(patchouli_report_t* report){
 248:patchouli/src/patchouli_bsp_glider_addon_v1.c **** //     int16_t p = report->tip;
 249:patchouli/src/patchouli_bsp_glider_addon_v1.c **** //     int16_t x = report->xpos;
 250:patchouli/src/patchouli_bsp_glider_addon_v1.c **** //     int16_t y = report->ypos;
 251:patchouli/src/patchouli_bsp_glider_addon_v1.c **** //     // printf("%d\t%d\t%d\r\n", p,x,y);
 252:patchouli/src/patchouli_bsp_glider_addon_v1.c **** //     usbhid_txbuf[0]  = 0x08;
 253:patchouli/src/patchouli_bsp_glider_addon_v1.c **** //     usbhid_txbuf[1]  = 0x80;
 254:patchouli/src/patchouli_bsp_glider_addon_v1.c **** //     usbhid_txbuf[2]  = x&0xFF;
 255:patchouli/src/patchouli_bsp_glider_addon_v1.c **** //     usbhid_txbuf[3]  = (x>>8)&0xFF;
 256:patchouli/src/patchouli_bsp_glider_addon_v1.c **** //     usbhid_txbuf[4]  = y&0xFF;
 257:patchouli/src/patchouli_bsp_glider_addon_v1.c **** //     usbhid_txbuf[5]  = (y>>8)&0xFF;
 258:patchouli/src/patchouli_bsp_glider_addon_v1.c **** //     usbhid_txbuf[6]  = p&0xFF;
 259:patchouli/src/patchouli_bsp_glider_addon_v1.c **** //     usbhid_txbuf[7]  = (p>>8)&0xFF;
 260:patchouli/src/patchouli_bsp_glider_addon_v1.c **** //     usbhid_txbuf[8]  = 0;
 261:patchouli/src/patchouli_bsp_glider_addon_v1.c **** //     usbhid_txbuf[9]  = 0;
 262:patchouli/src/patchouli_bsp_glider_addon_v1.c **** //     usbhid_txbuf[10] = 0;
 263:patchouli/src/patchouli_bsp_glider_addon_v1.c **** //     usbhid_txbuf[11] = 0;
 264:patchouli/src/patchouli_bsp_glider_addon_v1.c **** //     USBD_HID_SendReport(&hUsbDeviceFS, usbhid_txbuf, 12);
 265:patchouli/src/patchouli_bsp_glider_addon_v1.c **** //     return true;
 266:patchouli/src/patchouli_bsp_glider_addon_v1.c **** // }
 267:patchouli/src/patchouli_bsp_glider_addon_v1.c **** #include "usb_device.h"
 268:patchouli/src/patchouli_bsp_glider_addon_v1.c **** bool patchouli_transmit(patchouli_report_t* report){
ARM GAS  C:\Users\Nathan\AppData\Local\Temp\cc2pE8rH.s 			page 38


 1538              		.loc 1 268 52 is_stmt 1 view -0
 1539              		.cfi_startproc
 1540              		@ args = 0, pretend = 0, frame = 32
 1541              		@ frame_needed = 0, uses_anonymous_args = 0
 1542              		.loc 1 268 52 is_stmt 0 view .LVU455
 1543 0000 10B5     		push	{r4, lr}
 1544              		.cfi_def_cfa_offset 8
 1545              		.cfi_offset 4, -8
 1546              		.cfi_offset 14, -4
 1547 0002 8AB0     		sub	sp, sp, #40
 1548              		.cfi_def_cfa_offset 48
 1549 0004 0446     		mov	r4, r0
 269:patchouli/src/patchouli_bsp_glider_addon_v1.c ****     // through cdc
 270:patchouli/src/patchouli_bsp_glider_addon_v1.c ****     CDC_Transmit_FS("Transmit\n", 9);
 1550              		.loc 1 270 5 is_stmt 1 view .LVU456
 1551 0006 0921     		movs	r1, #9
 1552 0008 0B48     		ldr	r0, .L109
 1553              	.LVL160:
 1554              		.loc 1 270 5 is_stmt 0 view .LVU457
 1555 000a FFF7FEFF 		bl	CDC_Transmit_FS
 1556              	.LVL161:
 271:patchouli/src/patchouli_bsp_glider_addon_v1.c ****     int16_t p = report->tip;
 1557              		.loc 1 271 5 is_stmt 1 view .LVU458
 1558              		.loc 1 271 13 is_stmt 0 view .LVU459
 1559 000e B4F90A30 		ldrsh	r3, [r4, #10]
 1560              	.LVL162:
 272:patchouli/src/patchouli_bsp_glider_addon_v1.c ****     int16_t x = report->xpos;
 1561              		.loc 1 272 5 is_stmt 1 view .LVU460
 273:patchouli/src/patchouli_bsp_glider_addon_v1.c ****     int16_t y = report->ypos;
 1562              		.loc 1 273 5 view .LVU461
 274:patchouli/src/patchouli_bsp_glider_addon_v1.c ****     char txbuf[32];
 1563              		.loc 1 274 5 view .LVU462
 275:patchouli/src/patchouli_bsp_glider_addon_v1.c ****     sprintf(txbuf, "%d\t%d\t%d\n", x, y, p);
 1564              		.loc 1 275 5 view .LVU463
 1565 0012 0093     		str	r3, [sp]
 1566              	.LVL163:
 1567              		.loc 1 275 5 is_stmt 0 view .LVU464
 1568 0014 B4F90230 		ldrsh	r3, [r4, #2]
 1569              	.LVL164:
 1570              		.loc 1 275 5 view .LVU465
 1571 0018 B4F90020 		ldrsh	r2, [r4]
 1572 001c 0749     		ldr	r1, .L109+4
 1573 001e 02A8     		add	r0, sp, #8
 1574 0020 FFF7FEFF 		bl	sprintf
 1575              	.LVL165:
 276:patchouli/src/patchouli_bsp_glider_addon_v1.c ****     CDC_Transmit_FS(txbuf, strlen(txbuf));
 1576              		.loc 1 276 5 is_stmt 1 view .LVU466
 1577 0024 02A8     		add	r0, sp, #8
 1578 0026 FFF7FEFF 		bl	strlen
 1579              	.LVL166:
 1580 002a 0146     		mov	r1, r0
 1581              		.loc 1 276 5 is_stmt 0 discriminator 1 view .LVU467
 1582 002c 02A8     		add	r0, sp, #8
 1583 002e FFF7FEFF 		bl	CDC_Transmit_FS
 1584              	.LVL167:
 277:patchouli/src/patchouli_bsp_glider_addon_v1.c ****     return true;
 1585              		.loc 1 277 5 is_stmt 1 view .LVU468
ARM GAS  C:\Users\Nathan\AppData\Local\Temp\cc2pE8rH.s 			page 39


 278:patchouli/src/patchouli_bsp_glider_addon_v1.c **** }
 1586              		.loc 1 278 1 is_stmt 0 view .LVU469
 1587 0032 0120     		movs	r0, #1
 1588 0034 0AB0     		add	sp, sp, #40
 1589              		.cfi_def_cfa_offset 8
 1590              		@ sp needed
 1591 0036 10BD     		pop	{r4, pc}
 1592              	.LVL168:
 1593              	.L110:
 1594              		.loc 1 278 1 view .LVU470
 1595              		.align	2
 1596              	.L109:
 1597 0038 00000000 		.word	.LC2
 1598 003c 0C000000 		.word	.LC3
 1599              		.cfi_endproc
 1600              	.LFE1426:
 1602              		.global	ExN_Pin
 1603              		.section	.data.ExN_Pin,"aw"
 1604              		.align	2
 1607              	ExN_Pin:
 1608 0000 2000     		.short	32
 1609 0002 1000     		.short	16
 1610 0004 0800     		.short	8
 1611 0006 0200     		.short	2
 1612 0008 0100     		.short	1
 1613 000a 0010     		.short	4096
 1614              		.global	ExN_GPIO_Port
 1615              		.section	.data.ExN_GPIO_Port,"aw"
 1616              		.align	2
 1619              	ExN_GPIO_Port:
 1620 0000 00040048 		.word	1207960576
 1621 0004 00040048 		.word	1207960576
 1622 0008 00040048 		.word	1207960576
 1623 000c 000C0048 		.word	1207962624
 1624 0010 000C0048 		.word	1207962624
 1625 0014 00080048 		.word	1207961600
 1626              		.text
 1627              	.Letext0:
 1628              		.file 3 "C:/PROGRAM FILES (X86)/ARM GNU TOOLCHAIN ARM-NONE-EABI/13.3 REL1/arm-none-eabi/include/ma
 1629              		.file 4 "C:/PROGRAM FILES (X86)/ARM GNU TOOLCHAIN ARM-NONE-EABI/13.3 REL1/arm-none-eabi/include/sy
 1630              		.file 5 "C:/PROGRAM FILES (X86)/ARM GNU TOOLCHAIN ARM-NONE-EABI/13.3 REL1/lib/gcc/arm-none-eabi/13
 1631              		.file 6 "patchouli/inc/patchouli.h"
 1632              		.file 7 "Drivers/CMSIS/Device/ST/STM32WBxx/Include/stm32wb55xx.h"
 1633              		.file 8 "Drivers/CMSIS/Device/ST/STM32WBxx/Include/stm32wbxx.h"
 1634              		.file 9 "Drivers/STM32WBxx_HAL_Driver/Inc/stm32wbxx_hal_def.h"
 1635              		.file 10 "Drivers/STM32WBxx_HAL_Driver/Inc/stm32wbxx_hal_dma.h"
 1636              		.file 11 "Drivers/STM32WBxx_HAL_Driver/Inc/stm32wbxx_hal_adc.h"
 1637              		.file 12 "Drivers/STM32WBxx_HAL_Driver/Inc/stm32wbxx_hal_gpio.h"
 1638              		.file 13 "Drivers/STM32WBxx_HAL_Driver/Inc/stm32wbxx_hal_tim.h"
 1639              		.file 14 "Drivers/STM32WBxx_HAL_Driver/Inc/stm32wbxx_hal_uart.h"
 1640              		.file 15 "Core/Inc/app_conf.h"
 1641              		.file 16 "patchouli/inc/patchouli_bsp_tx.h"
 1642              		.file 17 "C:/PROGRAM FILES (X86)/ARM GNU TOOLCHAIN ARM-NONE-EABI/13.3 REL1/arm-none-eabi/include/s
 1643              		.file 18 "C:/PROGRAM FILES (X86)/ARM GNU TOOLCHAIN ARM-NONE-EABI/13.3 REL1/arm-none-eabi/include/s
 1644              		.file 19 "C:/PROGRAM FILES (X86)/ARM GNU TOOLCHAIN ARM-NONE-EABI/13.3 REL1/arm-none-eabi/include/m
 1645              		.file 20 "patchouli/inc/patchouli_math.h"
 1646              		.file 21 "Drivers/STM32WBxx_HAL_Driver/Inc/stm32wbxx_hal_tim_ex.h"
ARM GAS  C:\Users\Nathan\AppData\Local\Temp\cc2pE8rH.s 			page 40


 1647              		.file 22 "<built-in>"
ARM GAS  C:\Users\Nathan\AppData\Local\Temp\cc2pE8rH.s 			page 41

