ARM GAS  C:\Users\Nathan\AppData\Local\Temp\ccnBuMFp.s 			page 1


   1              		.cpu cortex-m4
   2              		.arch armv7e-m
   3              		.fpu fpv4-sp-d16
   4              		.eabi_attribute 27, 1
   5              		.eabi_attribute 28, 1
   6              		.eabi_attribute 20, 1
   7              		.eabi_attribute 21, 1
   8              		.eabi_attribute 23, 3
   9              		.eabi_attribute 24, 1
  10              		.eabi_attribute 25, 1
  11              		.eabi_attribute 26, 1
  12              		.eabi_attribute 30, 1
  13              		.eabi_attribute 34, 1
  14              		.eabi_attribute 18, 4
  15              		.file	"patchouli_bsp_tx.c"
  16              		.text
  17              	.Ltext0:
  18              		.cfi_sections	.debug_frame
  19              		.file 1 "patchouli/src/patchouli_bsp_tx.c"
  20              		.section	.text._PW100_FSTEP_480,"ax",%progbits
  21              		.align	1
  22              		.global	_PW100_FSTEP_480
  23              		.syntax unified
  24              		.thumb
  25              		.thumb_func
  27              	_PW100_FSTEP_480:
  28              	.LFB1415:
   1:patchouli/src/patchouli_bsp_tx.c **** /*
   2:patchouli/src/patchouli_bsp_tx.c **** * Project Patchouli
   3:patchouli/src/patchouli_bsp_tx.c **** * Copyright (C) 2024 Anhang Li (thelithcore@gmail.com)
   4:patchouli/src/patchouli_bsp_tx.c **** *
   5:patchouli/src/patchouli_bsp_tx.c **** * This program is free software: you can redistribute it and/or modify
   6:patchouli/src/patchouli_bsp_tx.c **** * it under the terms of the GNU General Public License as published by
   7:patchouli/src/patchouli_bsp_tx.c **** * the Free Software Foundation, either version 3 of the License, or
   8:patchouli/src/patchouli_bsp_tx.c **** * (at your option) any later version.
   9:patchouli/src/patchouli_bsp_tx.c **** *
  10:patchouli/src/patchouli_bsp_tx.c **** * This program is distributed in the hope that it will be useful,
  11:patchouli/src/patchouli_bsp_tx.c **** * but WITHOUT ANY WARRANTY; without even the implied warranty of
  12:patchouli/src/patchouli_bsp_tx.c **** * MERCHANTABILITY or FITNESS FOR A PARTICULAR PURPOSE.  See the
  13:patchouli/src/patchouli_bsp_tx.c **** * GNU General Public License for more details.
  14:patchouli/src/patchouli_bsp_tx.c **** *
  15:patchouli/src/patchouli_bsp_tx.c **** * You should have received a copy of the GNU General Public License
  16:patchouli/src/patchouli_bsp_tx.c **** * along with this program.  If not, see <http://www.gnu.org/licenses/>.
  17:patchouli/src/patchouli_bsp_tx.c **** */
  18:patchouli/src/patchouli_bsp_tx.c **** 
  19:patchouli/src/patchouli_bsp_tx.c **** // This file is a workaround for the timing in the SST v2 board.
  20:patchouli/src/patchouli_bsp_tx.c **** // Ideally, the TRX switching in each scanning action includes three 
  21:patchouli/src/patchouli_bsp_tx.c **** // steps: Output a square wave, change the pin to tri-state mode after the
  22:patchouli/src/patchouli_bsp_tx.c **** // transmission is done, and release the integrator's discharge pin after a 
  23:patchouli/src/patchouli_bsp_tx.c **** // short delay.
  24:patchouli/src/patchouli_bsp_tx.c **** // The timing of all three steps are critical, particularly the last two.
  25:patchouli/src/patchouli_bsp_tx.c **** // Ideally we should use a timer to generate all three signals. 
  26:patchouli/src/patchouli_bsp_tx.c **** // However, without an external tri-state driver, this is impossible because 
  27:patchouli/src/patchouli_bsp_tx.c **** // STM32 timers cannot write directly to registers. 
  28:patchouli/src/patchouli_bsp_tx.c **** // The current workaround is to use cycle-accurate assembly code to generate 
  29:patchouli/src/patchouli_bsp_tx.c **** // the signals. This is not ideal because:
  30:patchouli/src/patchouli_bsp_tx.c **** // 1. The code is not portable between architectures.
ARM GAS  C:\Users\Nathan\AppData\Local\Temp\ccnBuMFp.s 			page 2


  31:patchouli/src/patchouli_bsp_tx.c **** // 2. The clock frequency of the CPU cannot be changed.
  32:patchouli/src/patchouli_bsp_tx.c **** // 3. Won't work on chips with an instruction cache.
  33:patchouli/src/patchouli_bsp_tx.c **** 
  34:patchouli/src/patchouli_bsp_tx.c **** #include "patchouli_config.h"
  35:patchouli/src/patchouli_bsp_tx.c **** #include "patchouli_bsp_tx.h"
  36:patchouli/src/patchouli_bsp_tx.c **** #include "main.h"
  37:patchouli/src/patchouli_bsp_tx.c **** 
  38:patchouli/src/patchouli_bsp_tx.c **** #if defined(PATCHOULI_PCB_DISCRETE_SST)
  39:patchouli/src/patchouli_bsp_tx.c ****   #include "patchouli_bsp_discrete_sst.h"
  40:patchouli/src/patchouli_bsp_tx.c **** #elif defined(PATCHOULI_PCB_GLIDER_ADDON_V1)
  41:patchouli/src/patchouli_bsp_tx.c ****   #include "patchouli_bsp_glider_addon_v1.h"
  42:patchouli/src/patchouli_bsp_tx.c **** #endif
  43:patchouli/src/patchouli_bsp_tx.c **** 
  44:patchouli/src/patchouli_bsp_tx.c **** extern uint32_t SystemCoreClock; // CMSIS System Clock
  45:patchouli/src/patchouli_bsp_tx.c **** 
  46:patchouli/src/patchouli_bsp_tx.c **** void _PW100_FSTEP_480(void);
  47:patchouli/src/patchouli_bsp_tx.c **** void _PW100_FSTEP_490(void);
  48:patchouli/src/patchouli_bsp_tx.c **** void _PW100_FSTEP_500(void);
  49:patchouli/src/patchouli_bsp_tx.c **** void _PW100_FSTEP_510(void);
  50:patchouli/src/patchouli_bsp_tx.c **** void _PW100_FSTEP_515(void);
  51:patchouli/src/patchouli_bsp_tx.c **** void _PW100_FSTEP_520(void);
  52:patchouli/src/patchouli_bsp_tx.c **** void _PW100_FSTEP_525(void);
  53:patchouli/src/patchouli_bsp_tx.c **** void _PW100_FSTEP_530(void);
  54:patchouli/src/patchouli_bsp_tx.c **** void _PW100_FSTEP_535(void);
  55:patchouli/src/patchouli_bsp_tx.c **** void _PW100_FSTEP_540(void);
  56:patchouli/src/patchouli_bsp_tx.c **** void _PW100_FSTEP_545(void);
  57:patchouli/src/patchouli_bsp_tx.c **** void _PW100_FSTEP_550(void);
  58:patchouli/src/patchouli_bsp_tx.c **** //include all the high frequency steps from 650-780kHz
  59:patchouli/src/patchouli_bsp_tx.c **** // void _PW100_FSTEP_650(void);
  60:patchouli/src/patchouli_bsp_tx.c **** // void _PW100_FSTEP_660(void);
  61:patchouli/src/patchouli_bsp_tx.c **** // void _PW100_FSTEP_670(void);
  62:patchouli/src/patchouli_bsp_tx.c **** // void _PW100_FSTEP_680(void);
  63:patchouli/src/patchouli_bsp_tx.c **** // void _PW100_FSTEP_690(void);
  64:patchouli/src/patchouli_bsp_tx.c **** // void _PW100_FSTEP_700(void);
  65:patchouli/src/patchouli_bsp_tx.c **** // void _PW100_FSTEP_710(void);
  66:patchouli/src/patchouli_bsp_tx.c **** // void _PW100_FSTEP_720(void);
  67:patchouli/src/patchouli_bsp_tx.c **** // void _PW100_FSTEP_730(void);
  68:patchouli/src/patchouli_bsp_tx.c **** // void _PW100_FSTEP_740(void);
  69:patchouli/src/patchouli_bsp_tx.c **** // void _PW100_FSTEP_750(void);
  70:patchouli/src/patchouli_bsp_tx.c **** // void _PW100_FSTEP_760(void);
  71:patchouli/src/patchouli_bsp_tx.c **** // void _PW100_FSTEP_770(void);
  72:patchouli/src/patchouli_bsp_tx.c **** // void _PW100_FSTEP_780(void);
  73:patchouli/src/patchouli_bsp_tx.c **** 
  74:patchouli/src/patchouli_bsp_tx.c **** patchouli_void_fptr_t patchouli_tx_fptr_table[] = {
  75:patchouli/src/patchouli_bsp_tx.c ****     _PW100_FSTEP_480,
  76:patchouli/src/patchouli_bsp_tx.c ****     _PW100_FSTEP_490,
  77:patchouli/src/patchouli_bsp_tx.c ****     _PW100_FSTEP_510,
  78:patchouli/src/patchouli_bsp_tx.c ****     // _PW100_FSTEP_515,
  79:patchouli/src/patchouli_bsp_tx.c ****     _PW100_FSTEP_520,
  80:patchouli/src/patchouli_bsp_tx.c ****     // _PW100_FSTEP_525,
  81:patchouli/src/patchouli_bsp_tx.c ****     _PW100_FSTEP_530,
  82:patchouli/src/patchouli_bsp_tx.c ****     _PW100_FSTEP_535,
  83:patchouli/src/patchouli_bsp_tx.c ****     _PW100_FSTEP_540,
  84:patchouli/src/patchouli_bsp_tx.c ****     // _PW100_FSTEP_545,
  85:patchouli/src/patchouli_bsp_tx.c ****     _PW100_FSTEP_550,
  86:patchouli/src/patchouli_bsp_tx.c **** 
  87:patchouli/src/patchouli_bsp_tx.c **** };
ARM GAS  C:\Users\Nathan\AppData\Local\Temp\ccnBuMFp.s 			page 3


  88:patchouli/src/patchouli_bsp_tx.c **** 
  89:patchouli/src/patchouli_bsp_tx.c **** // patchouli_void_fptr_t patchouli_high_tx_fptr_table[] = {
  90:patchouli/src/patchouli_bsp_tx.c **** //     _PW100_FSTEP_650,
  91:patchouli/src/patchouli_bsp_tx.c **** //     _PW100_FSTEP_660,
  92:patchouli/src/patchouli_bsp_tx.c **** //     _PW100_FSTEP_670,
  93:patchouli/src/patchouli_bsp_tx.c **** //     _PW100_FSTEP_680,
  94:patchouli/src/patchouli_bsp_tx.c **** //     _PW100_FSTEP_690,
  95:patchouli/src/patchouli_bsp_tx.c **** //     _PW100_FSTEP_700,
  96:patchouli/src/patchouli_bsp_tx.c **** //     _PW100_FSTEP_710,
  97:patchouli/src/patchouli_bsp_tx.c **** //     _PW100_FSTEP_720,
  98:patchouli/src/patchouli_bsp_tx.c **** //     _PW100_FSTEP_730,
  99:patchouli/src/patchouli_bsp_tx.c **** //     _PW100_FSTEP_740,
 100:patchouli/src/patchouli_bsp_tx.c **** //     _PW100_FSTEP_750,
 101:patchouli/src/patchouli_bsp_tx.c **** //     _PW100_FSTEP_760,
 102:patchouli/src/patchouli_bsp_tx.c **** //     _PW100_FSTEP_770,
 103:patchouli/src/patchouli_bsp_tx.c **** //     _PW100_FSTEP_780
 104:patchouli/src/patchouli_bsp_tx.c **** // };
 105:patchouli/src/patchouli_bsp_tx.c **** 
 106:patchouli/src/patchouli_bsp_tx.c **** patchouli_tx_t patchouli_pen_pw100 = {
 107:patchouli/src/patchouli_bsp_tx.c ****     .tx_fmin_kHz   = 480,
 108:patchouli/src/patchouli_bsp_tx.c ****     .tx_fmax_kHz   = 550,
 109:patchouli/src/patchouli_bsp_tx.c ****     // .tx_fmin_kHz   = 510,
 110:patchouli/src/patchouli_bsp_tx.c ****     // .tx_fmax_kHz   = 545,
 111:patchouli/src/patchouli_bsp_tx.c ****     .tx_fstep_kHz  = 10,
 112:patchouli/src/patchouli_bsp_tx.c ****     .tx_steps      = 8,
 113:patchouli/src/patchouli_bsp_tx.c ****     .tx_ncycle     = 50,
 114:patchouli/src/patchouli_bsp_tx.c ****     .cpu_freq      = 64.0E6f,
 115:patchouli/src/patchouli_bsp_tx.c ****     .tx_fptr_table = patchouli_tx_fptr_table
 116:patchouli/src/patchouli_bsp_tx.c **** };
 117:patchouli/src/patchouli_bsp_tx.c **** 
 118:patchouli/src/patchouli_bsp_tx.c **** // patchouli_tx_t patchouli_pen_pw100_high = {
 119:patchouli/src/patchouli_bsp_tx.c **** //     .tx_fmin_kHz   = 650,
 120:patchouli/src/patchouli_bsp_tx.c **** //     .tx_fmax_kHz   = 780,
 121:patchouli/src/patchouli_bsp_tx.c **** //     .tx_fstep_kHz  = 10,
 122:patchouli/src/patchouli_bsp_tx.c **** //     .tx_steps      = 14,
 123:patchouli/src/patchouli_bsp_tx.c **** //     .tx_ncycle     = 50,
 124:patchouli/src/patchouli_bsp_tx.c **** //     .cpu_freq      = 64.0E6f,
 125:patchouli/src/patchouli_bsp_tx.c **** //     .tx_fptr_table = patchouli_high_tx_fptr_table
 126:patchouli/src/patchouli_bsp_tx.c **** // };
 127:patchouli/src/patchouli_bsp_tx.c **** 
 128:patchouli/src/patchouli_bsp_tx.c **** 
 129:patchouli/src/patchouli_bsp_tx.c **** // Optimized NOP macros for precise timing
 130:patchouli/src/patchouli_bsp_tx.c **** #define _5NOP()   do{asm volatile ("nop\nnop\nnop\nnop\nnop");} while(0)
 131:patchouli/src/patchouli_bsp_tx.c **** #define _10NOP()  do{_5NOP();_5NOP();} while(0)
 132:patchouli/src/patchouli_bsp_tx.c **** #define _100NOP() do{_10NOP();_10NOP();_10NOP();_10NOP();_10NOP();_10NOP();_10NOP();_10NOP();_10NOP
 133:patchouli/src/patchouli_bsp_tx.c **** 
 134:patchouli/src/patchouli_bsp_tx.c **** // Timing calculation: For 64MHz CPU, each NOP = 1 cycle
 135:patchouli/src/patchouli_bsp_tx.c **** // Period = 64MHz / Target_Frequency
 136:patchouli/src/patchouli_bsp_tx.c **** // Half-period = Period / 2
 137:patchouli/src/patchouli_bsp_tx.c **** // NOPs needed = Half-period - GPIO_operation_overhead
 138:patchouli/src/patchouli_bsp_tx.c **** // GPIO overhead ≈ 2-3 cycles for BSRR operations
 139:patchouli/src/patchouli_bsp_tx.c **** 
 140:patchouli/src/patchouli_bsp_tx.c **** void _PW100_FSTEP_480(void){
  29              		.loc 1 140 28 view -0
  30              		.cfi_startproc
  31              		@ args = 0, pretend = 0, frame = 0
  32              		@ frame_needed = 0, uses_anonymous_args = 0
ARM GAS  C:\Users\Nathan\AppData\Local\Temp\ccnBuMFp.s 			page 4


  33              		@ link register save eliminated.
 141:patchouli/src/patchouli_bsp_tx.c ****     // 480kHz target frequency
 142:patchouli/src/patchouli_bsp_tx.c ****     // Period = 64MHz / 480kHz = 133.33 cycles
 143:patchouli/src/patchouli_bsp_tx.c ****     // Half-period = 66.67 cycles
 144:patchouli/src/patchouli_bsp_tx.c ****     // HIGH duration = 66 cycles (accounting for GPIO overhead)
 145:patchouli/src/patchouli_bsp_tx.c ****     // LOW duration = 67 cycles (accounting for GPIO overhead)
 146:patchouli/src/patchouli_bsp_tx.c ****     PATCHOULI_TX_PP();
  34              		.loc 1 146 5 view .LVU1
  35              		.loc 1 146 5 view .LVU2
  36 0000 4F4A     		ldr	r2, .L4
  37 0002 1368     		ldr	r3, [r2]
  38 0004 43F48053 		orr	r3, r3, #4096
  39 0008 1360     		str	r3, [r2]
  40              		.loc 1 146 5 view .LVU3
 147:patchouli/src/patchouli_bsp_tx.c ****     const int ncycle = patchouli_pen_pw100.tx_ncycle;
  41              		.loc 1 147 5 view .LVU4
  42              		.loc 1 147 43 is_stmt 0 view .LVU5
  43 000a 4E4B     		ldr	r3, .L4+4
  44 000c 1889     		ldrh	r0, [r3, #8]
  45              	.LVL0:
 148:patchouli/src/patchouli_bsp_tx.c ****     uint16_t i;
  46              		.loc 1 148 5 is_stmt 1 view .LVU6
 149:patchouli/src/patchouli_bsp_tx.c ****     for (i=0; i<ncycle; i++){
  47              		.loc 1 149 5 view .LVU7
  48              		.loc 1 149 11 is_stmt 0 view .LVU8
  49 000e 0023     		movs	r3, #0
  50              		.loc 1 149 5 view .LVU9
  51 0010 8CE0     		b	.L2
  52              	.LVL1:
  53              	.L3:
 150:patchouli/src/patchouli_bsp_tx.c ****         PATCHOULI_TX_HIGH();
  54              		.loc 1 150 9 is_stmt 1 view .LVU10
  55              		.loc 1 150 9 view .LVU11
  56 0012 4B4A     		ldr	r2, .L4
  57 0014 4021     		movs	r1, #64
  58 0016 9161     		str	r1, [r2, #24]
  59              		.loc 1 150 9 view .LVU12
 151:patchouli/src/patchouli_bsp_tx.c ****         // 66 cycles: 6*10 + 1*5 + 1 = 66
 152:patchouli/src/patchouli_bsp_tx.c ****         _10NOP(); _10NOP(); _10NOP(); _10NOP(); _10NOP(); _10NOP();
  60              		.loc 1 152 9 view .LVU13
  61              		.loc 1 152 9 view .LVU14
  62              		.loc 1 152 9 view .LVU15
  63              		.syntax unified
  64              	@ 152 "patchouli/src/patchouli_bsp_tx.c" 1
  65 0018 00BF     		nop
  66 001a 00BF     	nop
  67 001c 00BF     	nop
  68 001e 00BF     	nop
  69 0020 00BF     	nop
  70              	@ 0 "" 2
  71              		.loc 1 152 9 view .LVU16
  72              		.loc 1 152 9 view .LVU17
  73              		.loc 1 152 9 view .LVU18
  74              	@ 152 "patchouli/src/patchouli_bsp_tx.c" 1
  75 0022 00BF     		nop
  76 0024 00BF     	nop
  77 0026 00BF     	nop
ARM GAS  C:\Users\Nathan\AppData\Local\Temp\ccnBuMFp.s 			page 5


  78 0028 00BF     	nop
  79 002a 00BF     	nop
  80              	@ 0 "" 2
  81              		.loc 1 152 9 view .LVU19
  82              		.loc 1 152 9 view .LVU20
  83              		.loc 1 152 19 view .LVU21
  84              		.loc 1 152 19 view .LVU22
  85              		.loc 1 152 19 view .LVU23
  86              	@ 152 "patchouli/src/patchouli_bsp_tx.c" 1
  87 002c 00BF     		nop
  88 002e 00BF     	nop
  89 0030 00BF     	nop
  90 0032 00BF     	nop
  91 0034 00BF     	nop
  92              	@ 0 "" 2
  93              		.loc 1 152 19 view .LVU24
  94              		.loc 1 152 19 view .LVU25
  95              		.loc 1 152 19 view .LVU26
  96              	@ 152 "patchouli/src/patchouli_bsp_tx.c" 1
  97 0036 00BF     		nop
  98 0038 00BF     	nop
  99 003a 00BF     	nop
 100 003c 00BF     	nop
 101 003e 00BF     	nop
 102              	@ 0 "" 2
 103              		.loc 1 152 19 view .LVU27
 104              		.loc 1 152 19 view .LVU28
 105              		.loc 1 152 29 view .LVU29
 106              		.loc 1 152 29 view .LVU30
 107              		.loc 1 152 29 view .LVU31
 108              	@ 152 "patchouli/src/patchouli_bsp_tx.c" 1
 109 0040 00BF     		nop
 110 0042 00BF     	nop
 111 0044 00BF     	nop
 112 0046 00BF     	nop
 113 0048 00BF     	nop
 114              	@ 0 "" 2
 115              		.loc 1 152 29 view .LVU32
 116              		.loc 1 152 29 view .LVU33
 117              		.loc 1 152 29 view .LVU34
 118              	@ 152 "patchouli/src/patchouli_bsp_tx.c" 1
 119 004a 00BF     		nop
 120 004c 00BF     	nop
 121 004e 00BF     	nop
 122 0050 00BF     	nop
 123 0052 00BF     	nop
 124              	@ 0 "" 2
 125              		.loc 1 152 29 view .LVU35
 126              		.loc 1 152 29 view .LVU36
 127              		.loc 1 152 39 view .LVU37
 128              		.loc 1 152 39 view .LVU38
 129              		.loc 1 152 39 view .LVU39
 130              	@ 152 "patchouli/src/patchouli_bsp_tx.c" 1
 131 0054 00BF     		nop
 132 0056 00BF     	nop
 133 0058 00BF     	nop
 134 005a 00BF     	nop
ARM GAS  C:\Users\Nathan\AppData\Local\Temp\ccnBuMFp.s 			page 6


 135 005c 00BF     	nop
 136              	@ 0 "" 2
 137              		.loc 1 152 39 view .LVU40
 138              		.loc 1 152 39 view .LVU41
 139              		.loc 1 152 39 view .LVU42
 140              	@ 152 "patchouli/src/patchouli_bsp_tx.c" 1
 141 005e 00BF     		nop
 142 0060 00BF     	nop
 143 0062 00BF     	nop
 144 0064 00BF     	nop
 145 0066 00BF     	nop
 146              	@ 0 "" 2
 147              		.loc 1 152 39 view .LVU43
 148              		.loc 1 152 39 view .LVU44
 149              		.loc 1 152 49 view .LVU45
 150              		.loc 1 152 49 view .LVU46
 151              		.loc 1 152 49 view .LVU47
 152              	@ 152 "patchouli/src/patchouli_bsp_tx.c" 1
 153 0068 00BF     		nop
 154 006a 00BF     	nop
 155 006c 00BF     	nop
 156 006e 00BF     	nop
 157 0070 00BF     	nop
 158              	@ 0 "" 2
 159              		.loc 1 152 49 view .LVU48
 160              		.loc 1 152 49 view .LVU49
 161              		.loc 1 152 49 view .LVU50
 162              	@ 152 "patchouli/src/patchouli_bsp_tx.c" 1
 163 0072 00BF     		nop
 164 0074 00BF     	nop
 165 0076 00BF     	nop
 166 0078 00BF     	nop
 167 007a 00BF     	nop
 168              	@ 0 "" 2
 169              		.loc 1 152 49 view .LVU51
 170              		.loc 1 152 49 view .LVU52
 171              		.loc 1 152 59 view .LVU53
 172              		.loc 1 152 59 view .LVU54
 173              		.loc 1 152 59 view .LVU55
 174              	@ 152 "patchouli/src/patchouli_bsp_tx.c" 1
 175 007c 00BF     		nop
 176 007e 00BF     	nop
 177 0080 00BF     	nop
 178 0082 00BF     	nop
 179 0084 00BF     	nop
 180              	@ 0 "" 2
 181              		.loc 1 152 59 view .LVU56
 182              		.loc 1 152 59 view .LVU57
 183              		.loc 1 152 59 view .LVU58
 184              	@ 152 "patchouli/src/patchouli_bsp_tx.c" 1
 185 0086 00BF     		nop
 186 0088 00BF     	nop
 187 008a 00BF     	nop
 188 008c 00BF     	nop
 189 008e 00BF     	nop
 190              	@ 0 "" 2
 191              		.loc 1 152 59 view .LVU59
ARM GAS  C:\Users\Nathan\AppData\Local\Temp\ccnBuMFp.s 			page 7


 192              		.loc 1 152 59 view .LVU60
 153:patchouli/src/patchouli_bsp_tx.c ****         _5NOP();
 193              		.loc 1 153 9 view .LVU61
 194              		.loc 1 153 9 view .LVU62
 195              	@ 153 "patchouli/src/patchouli_bsp_tx.c" 1
 196 0090 00BF     		nop
 197 0092 00BF     	nop
 198 0094 00BF     	nop
 199 0096 00BF     	nop
 200 0098 00BF     	nop
 201              	@ 0 "" 2
 202              		.loc 1 153 9 view .LVU63
 154:patchouli/src/patchouli_bsp_tx.c ****         asm volatile ("nop");
 203              		.loc 1 154 9 view .LVU64
 204              	@ 154 "patchouli/src/patchouli_bsp_tx.c" 1
 205 009a 00BF     		nop
 206              	@ 0 "" 2
 155:patchouli/src/patchouli_bsp_tx.c ****         
 156:patchouli/src/patchouli_bsp_tx.c ****         PATCHOULI_TX_LOW();
 207              		.loc 1 156 9 view .LVU65
 208              		.loc 1 156 9 view .LVU66
 209              		.thumb
 210              		.syntax unified
 211 009c 4FF48001 		mov	r1, #4194304
 212 00a0 9161     		str	r1, [r2, #24]
 213              		.loc 1 156 9 view .LVU67
 157:patchouli/src/patchouli_bsp_tx.c ****         // 67 cycles: 6*10 + 1*5 + 2 = 67
 158:patchouli/src/patchouli_bsp_tx.c ****         _10NOP(); _10NOP(); _10NOP(); _10NOP(); _10NOP(); _10NOP();
 214              		.loc 1 158 9 view .LVU68
 215              		.loc 1 158 9 view .LVU69
 216              		.loc 1 158 9 view .LVU70
 217              		.syntax unified
 218              	@ 158 "patchouli/src/patchouli_bsp_tx.c" 1
 219 00a2 00BF     		nop
 220 00a4 00BF     	nop
 221 00a6 00BF     	nop
 222 00a8 00BF     	nop
 223 00aa 00BF     	nop
 224              	@ 0 "" 2
 225              		.loc 1 158 9 view .LVU71
 226              		.loc 1 158 9 view .LVU72
 227              		.loc 1 158 9 view .LVU73
 228              	@ 158 "patchouli/src/patchouli_bsp_tx.c" 1
 229 00ac 00BF     		nop
 230 00ae 00BF     	nop
 231 00b0 00BF     	nop
 232 00b2 00BF     	nop
 233 00b4 00BF     	nop
 234              	@ 0 "" 2
 235              		.loc 1 158 9 view .LVU74
 236              		.loc 1 158 9 view .LVU75
 237              		.loc 1 158 19 view .LVU76
 238              		.loc 1 158 19 view .LVU77
 239              		.loc 1 158 19 view .LVU78
 240              	@ 158 "patchouli/src/patchouli_bsp_tx.c" 1
 241 00b6 00BF     		nop
 242 00b8 00BF     	nop
ARM GAS  C:\Users\Nathan\AppData\Local\Temp\ccnBuMFp.s 			page 8


 243 00ba 00BF     	nop
 244 00bc 00BF     	nop
 245 00be 00BF     	nop
 246              	@ 0 "" 2
 247              		.loc 1 158 19 view .LVU79
 248              		.loc 1 158 19 view .LVU80
 249              		.loc 1 158 19 view .LVU81
 250              	@ 158 "patchouli/src/patchouli_bsp_tx.c" 1
 251 00c0 00BF     		nop
 252 00c2 00BF     	nop
 253 00c4 00BF     	nop
 254 00c6 00BF     	nop
 255 00c8 00BF     	nop
 256              	@ 0 "" 2
 257              		.loc 1 158 19 view .LVU82
 258              		.loc 1 158 19 view .LVU83
 259              		.loc 1 158 29 view .LVU84
 260              		.loc 1 158 29 view .LVU85
 261              		.loc 1 158 29 view .LVU86
 262              	@ 158 "patchouli/src/patchouli_bsp_tx.c" 1
 263 00ca 00BF     		nop
 264 00cc 00BF     	nop
 265 00ce 00BF     	nop
 266 00d0 00BF     	nop
 267 00d2 00BF     	nop
 268              	@ 0 "" 2
 269              		.loc 1 158 29 view .LVU87
 270              		.loc 1 158 29 view .LVU88
 271              		.loc 1 158 29 view .LVU89
 272              	@ 158 "patchouli/src/patchouli_bsp_tx.c" 1
 273 00d4 00BF     		nop
 274 00d6 00BF     	nop
 275 00d8 00BF     	nop
 276 00da 00BF     	nop
 277 00dc 00BF     	nop
 278              	@ 0 "" 2
 279              		.loc 1 158 29 view .LVU90
 280              		.loc 1 158 29 view .LVU91
 281              		.loc 1 158 39 view .LVU92
 282              		.loc 1 158 39 view .LVU93
 283              		.loc 1 158 39 view .LVU94
 284              	@ 158 "patchouli/src/patchouli_bsp_tx.c" 1
 285 00de 00BF     		nop
 286 00e0 00BF     	nop
 287 00e2 00BF     	nop
 288 00e4 00BF     	nop
 289 00e6 00BF     	nop
 290              	@ 0 "" 2
 291              		.loc 1 158 39 view .LVU95
 292              		.loc 1 158 39 view .LVU96
 293              		.loc 1 158 39 view .LVU97
 294              	@ 158 "patchouli/src/patchouli_bsp_tx.c" 1
 295 00e8 00BF     		nop
 296 00ea 00BF     	nop
 297 00ec 00BF     	nop
 298 00ee 00BF     	nop
 299 00f0 00BF     	nop
ARM GAS  C:\Users\Nathan\AppData\Local\Temp\ccnBuMFp.s 			page 9


 300              	@ 0 "" 2
 301              		.loc 1 158 39 view .LVU98
 302              		.loc 1 158 39 view .LVU99
 303              		.loc 1 158 49 view .LVU100
 304              		.loc 1 158 49 view .LVU101
 305              		.loc 1 158 49 view .LVU102
 306              	@ 158 "patchouli/src/patchouli_bsp_tx.c" 1
 307 00f2 00BF     		nop
 308 00f4 00BF     	nop
 309 00f6 00BF     	nop
 310 00f8 00BF     	nop
 311 00fa 00BF     	nop
 312              	@ 0 "" 2
 313              		.loc 1 158 49 view .LVU103
 314              		.loc 1 158 49 view .LVU104
 315              		.loc 1 158 49 view .LVU105
 316              	@ 158 "patchouli/src/patchouli_bsp_tx.c" 1
 317 00fc 00BF     		nop
 318 00fe 00BF     	nop
 319 0100 00BF     	nop
 320 0102 00BF     	nop
 321 0104 00BF     	nop
 322              	@ 0 "" 2
 323              		.loc 1 158 49 view .LVU106
 324              		.loc 1 158 49 view .LVU107
 325              		.loc 1 158 59 view .LVU108
 326              		.loc 1 158 59 view .LVU109
 327              		.loc 1 158 59 view .LVU110
 328              	@ 158 "patchouli/src/patchouli_bsp_tx.c" 1
 329 0106 00BF     		nop
 330 0108 00BF     	nop
 331 010a 00BF     	nop
 332 010c 00BF     	nop
 333 010e 00BF     	nop
 334              	@ 0 "" 2
 335              		.loc 1 158 59 view .LVU111
 336              		.loc 1 158 59 view .LVU112
 337              		.loc 1 158 59 view .LVU113
 338              	@ 158 "patchouli/src/patchouli_bsp_tx.c" 1
 339 0110 00BF     		nop
 340 0112 00BF     	nop
 341 0114 00BF     	nop
 342 0116 00BF     	nop
 343 0118 00BF     	nop
 344              	@ 0 "" 2
 345              		.loc 1 158 59 view .LVU114
 346              		.loc 1 158 59 view .LVU115
 159:patchouli/src/patchouli_bsp_tx.c ****         _5NOP();
 347              		.loc 1 159 9 view .LVU116
 348              		.loc 1 159 9 view .LVU117
 349              	@ 159 "patchouli/src/patchouli_bsp_tx.c" 1
 350 011a 00BF     		nop
 351 011c 00BF     	nop
 352 011e 00BF     	nop
 353 0120 00BF     	nop
 354 0122 00BF     	nop
 355              	@ 0 "" 2
ARM GAS  C:\Users\Nathan\AppData\Local\Temp\ccnBuMFp.s 			page 10


 356              		.loc 1 159 9 view .LVU118
 160:patchouli/src/patchouli_bsp_tx.c ****         asm volatile ("nop");
 357              		.loc 1 160 9 view .LVU119
 358              	@ 160 "patchouli/src/patchouli_bsp_tx.c" 1
 359 0124 00BF     		nop
 360              	@ 0 "" 2
 161:patchouli/src/patchouli_bsp_tx.c ****         asm volatile ("nop");
 361              		.loc 1 161 9 view .LVU120
 362              	@ 161 "patchouli/src/patchouli_bsp_tx.c" 1
 363 0126 00BF     		nop
 364              	@ 0 "" 2
 149:patchouli/src/patchouli_bsp_tx.c ****         PATCHOULI_TX_HIGH();
 365              		.loc 1 149 26 discriminator 3 view .LVU121
 366              		.thumb
 367              		.syntax unified
 368 0128 0133     		adds	r3, r3, #1
 369              	.LVL2:
 149:patchouli/src/patchouli_bsp_tx.c ****         PATCHOULI_TX_HIGH();
 370              		.loc 1 149 26 is_stmt 0 discriminator 3 view .LVU122
 371 012a 9BB2     		uxth	r3, r3
 372              	.LVL3:
 373              	.L2:
 149:patchouli/src/patchouli_bsp_tx.c ****         PATCHOULI_TX_HIGH();
 374              		.loc 1 149 16 is_stmt 1 discriminator 1 view .LVU123
 375 012c 9842     		cmp	r0, r3
 376 012e 3FF670AF 		bhi	.L3
 162:patchouli/src/patchouli_bsp_tx.c ****     }
 163:patchouli/src/patchouli_bsp_tx.c ****     PATCHOULI_TX_TRISTATE();
 377              		.loc 1 163 5 view .LVU124
 378              		.loc 1 163 5 view .LVU125
 379 0132 034A     		ldr	r2, .L4
 380 0134 1368     		ldr	r3, [r2]
 381              	.LVL4:
 382              		.loc 1 163 5 is_stmt 0 view .LVU126
 383 0136 23F44053 		bic	r3, r3, #12288
 384 013a 1360     		str	r3, [r2]
 385              		.loc 1 163 5 is_stmt 1 view .LVU127
 164:patchouli/src/patchouli_bsp_tx.c **** }
 386              		.loc 1 164 1 is_stmt 0 view .LVU128
 387 013c 7047     		bx	lr
 388              	.L5:
 389 013e 00BF     		.align	2
 390              	.L4:
 391 0140 00040048 		.word	1207960576
 392 0144 00000000 		.word	patchouli_pen_pw100
 393              		.cfi_endproc
 394              	.LFE1415:
 396              		.section	.text._PW100_FSTEP_490,"ax",%progbits
 397              		.align	1
 398              		.global	_PW100_FSTEP_490
 399              		.syntax unified
 400              		.thumb
 401              		.thumb_func
 403              	_PW100_FSTEP_490:
 404              	.LFB1416:
 165:patchouli/src/patchouli_bsp_tx.c **** 
 166:patchouli/src/patchouli_bsp_tx.c **** void _PW100_FSTEP_490(void){
ARM GAS  C:\Users\Nathan\AppData\Local\Temp\ccnBuMFp.s 			page 11


 405              		.loc 1 166 28 is_stmt 1 view -0
 406              		.cfi_startproc
 407              		@ args = 0, pretend = 0, frame = 0
 408              		@ frame_needed = 0, uses_anonymous_args = 0
 409              		@ link register save eliminated.
 167:patchouli/src/patchouli_bsp_tx.c ****     // 490kHz target frequency
 168:patchouli/src/patchouli_bsp_tx.c ****     // Period = 64MHz / 490kHz = 130.61 cycles
 169:patchouli/src/patchouli_bsp_tx.c ****     // Half-period = 65.31 cycles
 170:patchouli/src/patchouli_bsp_tx.c ****     // HIGH duration = 65 cycles (accounting for GPIO overhead)
 171:patchouli/src/patchouli_bsp_tx.c ****     // LOW duration = 66 cycles (accounting for GPIO overhead)
 172:patchouli/src/patchouli_bsp_tx.c ****     PATCHOULI_TX_PP();
 410              		.loc 1 172 5 view .LVU130
 411              		.loc 1 172 5 view .LVU131
 412 0000 4E4A     		ldr	r2, .L9
 413 0002 1368     		ldr	r3, [r2]
 414 0004 43F48053 		orr	r3, r3, #4096
 415 0008 1360     		str	r3, [r2]
 416              		.loc 1 172 5 view .LVU132
 173:patchouli/src/patchouli_bsp_tx.c ****     const int ncycle = patchouli_pen_pw100.tx_ncycle;
 417              		.loc 1 173 5 view .LVU133
 418              		.loc 1 173 43 is_stmt 0 view .LVU134
 419 000a 4D4B     		ldr	r3, .L9+4
 420 000c 1889     		ldrh	r0, [r3, #8]
 421              	.LVL5:
 174:patchouli/src/patchouli_bsp_tx.c ****     uint16_t i;
 422              		.loc 1 174 5 is_stmt 1 view .LVU135
 175:patchouli/src/patchouli_bsp_tx.c ****     for (i=0; i<ncycle; i++){
 423              		.loc 1 175 5 view .LVU136
 424              		.loc 1 175 11 is_stmt 0 view .LVU137
 425 000e 0023     		movs	r3, #0
 426              		.loc 1 175 5 view .LVU138
 427 0010 8AE0     		b	.L7
 428              	.LVL6:
 429              	.L8:
 176:patchouli/src/patchouli_bsp_tx.c ****         PATCHOULI_TX_HIGH();
 430              		.loc 1 176 9 is_stmt 1 view .LVU139
 431              		.loc 1 176 9 view .LVU140
 432 0012 4A4A     		ldr	r2, .L9
 433 0014 4021     		movs	r1, #64
 434 0016 9161     		str	r1, [r2, #24]
 435              		.loc 1 176 9 view .LVU141
 177:patchouli/src/patchouli_bsp_tx.c ****         // 65 cycles: 6*10 + 1*5 = 65
 178:patchouli/src/patchouli_bsp_tx.c ****         _10NOP(); _10NOP(); _10NOP(); _10NOP(); _10NOP(); _10NOP();
 436              		.loc 1 178 9 view .LVU142
 437              		.loc 1 178 9 view .LVU143
 438              		.loc 1 178 9 view .LVU144
 439              		.syntax unified
 440              	@ 178 "patchouli/src/patchouli_bsp_tx.c" 1
 441 0018 00BF     		nop
 442 001a 00BF     	nop
 443 001c 00BF     	nop
 444 001e 00BF     	nop
 445 0020 00BF     	nop
 446              	@ 0 "" 2
 447              		.loc 1 178 9 view .LVU145
 448              		.loc 1 178 9 view .LVU146
 449              		.loc 1 178 9 view .LVU147
ARM GAS  C:\Users\Nathan\AppData\Local\Temp\ccnBuMFp.s 			page 12


 450              	@ 178 "patchouli/src/patchouli_bsp_tx.c" 1
 451 0022 00BF     		nop
 452 0024 00BF     	nop
 453 0026 00BF     	nop
 454 0028 00BF     	nop
 455 002a 00BF     	nop
 456              	@ 0 "" 2
 457              		.loc 1 178 9 view .LVU148
 458              		.loc 1 178 9 view .LVU149
 459              		.loc 1 178 19 view .LVU150
 460              		.loc 1 178 19 view .LVU151
 461              		.loc 1 178 19 view .LVU152
 462              	@ 178 "patchouli/src/patchouli_bsp_tx.c" 1
 463 002c 00BF     		nop
 464 002e 00BF     	nop
 465 0030 00BF     	nop
 466 0032 00BF     	nop
 467 0034 00BF     	nop
 468              	@ 0 "" 2
 469              		.loc 1 178 19 view .LVU153
 470              		.loc 1 178 19 view .LVU154
 471              		.loc 1 178 19 view .LVU155
 472              	@ 178 "patchouli/src/patchouli_bsp_tx.c" 1
 473 0036 00BF     		nop
 474 0038 00BF     	nop
 475 003a 00BF     	nop
 476 003c 00BF     	nop
 477 003e 00BF     	nop
 478              	@ 0 "" 2
 479              		.loc 1 178 19 view .LVU156
 480              		.loc 1 178 19 view .LVU157
 481              		.loc 1 178 29 view .LVU158
 482              		.loc 1 178 29 view .LVU159
 483              		.loc 1 178 29 view .LVU160
 484              	@ 178 "patchouli/src/patchouli_bsp_tx.c" 1
 485 0040 00BF     		nop
 486 0042 00BF     	nop
 487 0044 00BF     	nop
 488 0046 00BF     	nop
 489 0048 00BF     	nop
 490              	@ 0 "" 2
 491              		.loc 1 178 29 view .LVU161
 492              		.loc 1 178 29 view .LVU162
 493              		.loc 1 178 29 view .LVU163
 494              	@ 178 "patchouli/src/patchouli_bsp_tx.c" 1
 495 004a 00BF     		nop
 496 004c 00BF     	nop
 497 004e 00BF     	nop
 498 0050 00BF     	nop
 499 0052 00BF     	nop
 500              	@ 0 "" 2
 501              		.loc 1 178 29 view .LVU164
 502              		.loc 1 178 29 view .LVU165
 503              		.loc 1 178 39 view .LVU166
 504              		.loc 1 178 39 view .LVU167
 505              		.loc 1 178 39 view .LVU168
 506              	@ 178 "patchouli/src/patchouli_bsp_tx.c" 1
ARM GAS  C:\Users\Nathan\AppData\Local\Temp\ccnBuMFp.s 			page 13


 507 0054 00BF     		nop
 508 0056 00BF     	nop
 509 0058 00BF     	nop
 510 005a 00BF     	nop
 511 005c 00BF     	nop
 512              	@ 0 "" 2
 513              		.loc 1 178 39 view .LVU169
 514              		.loc 1 178 39 view .LVU170
 515              		.loc 1 178 39 view .LVU171
 516              	@ 178 "patchouli/src/patchouli_bsp_tx.c" 1
 517 005e 00BF     		nop
 518 0060 00BF     	nop
 519 0062 00BF     	nop
 520 0064 00BF     	nop
 521 0066 00BF     	nop
 522              	@ 0 "" 2
 523              		.loc 1 178 39 view .LVU172
 524              		.loc 1 178 39 view .LVU173
 525              		.loc 1 178 49 view .LVU174
 526              		.loc 1 178 49 view .LVU175
 527              		.loc 1 178 49 view .LVU176
 528              	@ 178 "patchouli/src/patchouli_bsp_tx.c" 1
 529 0068 00BF     		nop
 530 006a 00BF     	nop
 531 006c 00BF     	nop
 532 006e 00BF     	nop
 533 0070 00BF     	nop
 534              	@ 0 "" 2
 535              		.loc 1 178 49 view .LVU177
 536              		.loc 1 178 49 view .LVU178
 537              		.loc 1 178 49 view .LVU179
 538              	@ 178 "patchouli/src/patchouli_bsp_tx.c" 1
 539 0072 00BF     		nop
 540 0074 00BF     	nop
 541 0076 00BF     	nop
 542 0078 00BF     	nop
 543 007a 00BF     	nop
 544              	@ 0 "" 2
 545              		.loc 1 178 49 view .LVU180
 546              		.loc 1 178 49 view .LVU181
 547              		.loc 1 178 59 view .LVU182
 548              		.loc 1 178 59 view .LVU183
 549              		.loc 1 178 59 view .LVU184
 550              	@ 178 "patchouli/src/patchouli_bsp_tx.c" 1
 551 007c 00BF     		nop
 552 007e 00BF     	nop
 553 0080 00BF     	nop
 554 0082 00BF     	nop
 555 0084 00BF     	nop
 556              	@ 0 "" 2
 557              		.loc 1 178 59 view .LVU185
 558              		.loc 1 178 59 view .LVU186
 559              		.loc 1 178 59 view .LVU187
 560              	@ 178 "patchouli/src/patchouli_bsp_tx.c" 1
 561 0086 00BF     		nop
 562 0088 00BF     	nop
 563 008a 00BF     	nop
ARM GAS  C:\Users\Nathan\AppData\Local\Temp\ccnBuMFp.s 			page 14


 564 008c 00BF     	nop
 565 008e 00BF     	nop
 566              	@ 0 "" 2
 567              		.loc 1 178 59 view .LVU188
 568              		.loc 1 178 59 view .LVU189
 179:patchouli/src/patchouli_bsp_tx.c ****         _5NOP();
 569              		.loc 1 179 9 view .LVU190
 570              		.loc 1 179 9 view .LVU191
 571              	@ 179 "patchouli/src/patchouli_bsp_tx.c" 1
 572 0090 00BF     		nop
 573 0092 00BF     	nop
 574 0094 00BF     	nop
 575 0096 00BF     	nop
 576 0098 00BF     	nop
 577              	@ 0 "" 2
 578              		.loc 1 179 9 view .LVU192
 180:patchouli/src/patchouli_bsp_tx.c ****         
 181:patchouli/src/patchouli_bsp_tx.c ****         PATCHOULI_TX_LOW();
 579              		.loc 1 181 9 view .LVU193
 580              		.loc 1 181 9 view .LVU194
 581              		.thumb
 582              		.syntax unified
 583 009a 4FF48001 		mov	r1, #4194304
 584 009e 9161     		str	r1, [r2, #24]
 585              		.loc 1 181 9 view .LVU195
 182:patchouli/src/patchouli_bsp_tx.c ****         // 66 cycles: 6*10 + 1*5 + 1 = 66
 183:patchouli/src/patchouli_bsp_tx.c ****         _10NOP(); _10NOP(); _10NOP(); _10NOP(); _10NOP(); _10NOP();
 586              		.loc 1 183 9 view .LVU196
 587              		.loc 1 183 9 view .LVU197
 588              		.loc 1 183 9 view .LVU198
 589              		.syntax unified
 590              	@ 183 "patchouli/src/patchouli_bsp_tx.c" 1
 591 00a0 00BF     		nop
 592 00a2 00BF     	nop
 593 00a4 00BF     	nop
 594 00a6 00BF     	nop
 595 00a8 00BF     	nop
 596              	@ 0 "" 2
 597              		.loc 1 183 9 view .LVU199
 598              		.loc 1 183 9 view .LVU200
 599              		.loc 1 183 9 view .LVU201
 600              	@ 183 "patchouli/src/patchouli_bsp_tx.c" 1
 601 00aa 00BF     		nop
 602 00ac 00BF     	nop
 603 00ae 00BF     	nop
 604 00b0 00BF     	nop
 605 00b2 00BF     	nop
 606              	@ 0 "" 2
 607              		.loc 1 183 9 view .LVU202
 608              		.loc 1 183 9 view .LVU203
 609              		.loc 1 183 19 view .LVU204
 610              		.loc 1 183 19 view .LVU205
 611              		.loc 1 183 19 view .LVU206
 612              	@ 183 "patchouli/src/patchouli_bsp_tx.c" 1
 613 00b4 00BF     		nop
 614 00b6 00BF     	nop
 615 00b8 00BF     	nop
ARM GAS  C:\Users\Nathan\AppData\Local\Temp\ccnBuMFp.s 			page 15


 616 00ba 00BF     	nop
 617 00bc 00BF     	nop
 618              	@ 0 "" 2
 619              		.loc 1 183 19 view .LVU207
 620              		.loc 1 183 19 view .LVU208
 621              		.loc 1 183 19 view .LVU209
 622              	@ 183 "patchouli/src/patchouli_bsp_tx.c" 1
 623 00be 00BF     		nop
 624 00c0 00BF     	nop
 625 00c2 00BF     	nop
 626 00c4 00BF     	nop
 627 00c6 00BF     	nop
 628              	@ 0 "" 2
 629              		.loc 1 183 19 view .LVU210
 630              		.loc 1 183 19 view .LVU211
 631              		.loc 1 183 29 view .LVU212
 632              		.loc 1 183 29 view .LVU213
 633              		.loc 1 183 29 view .LVU214
 634              	@ 183 "patchouli/src/patchouli_bsp_tx.c" 1
 635 00c8 00BF     		nop
 636 00ca 00BF     	nop
 637 00cc 00BF     	nop
 638 00ce 00BF     	nop
 639 00d0 00BF     	nop
 640              	@ 0 "" 2
 641              		.loc 1 183 29 view .LVU215
 642              		.loc 1 183 29 view .LVU216
 643              		.loc 1 183 29 view .LVU217
 644              	@ 183 "patchouli/src/patchouli_bsp_tx.c" 1
 645 00d2 00BF     		nop
 646 00d4 00BF     	nop
 647 00d6 00BF     	nop
 648 00d8 00BF     	nop
 649 00da 00BF     	nop
 650              	@ 0 "" 2
 651              		.loc 1 183 29 view .LVU218
 652              		.loc 1 183 29 view .LVU219
 653              		.loc 1 183 39 view .LVU220
 654              		.loc 1 183 39 view .LVU221
 655              		.loc 1 183 39 view .LVU222
 656              	@ 183 "patchouli/src/patchouli_bsp_tx.c" 1
 657 00dc 00BF     		nop
 658 00de 00BF     	nop
 659 00e0 00BF     	nop
 660 00e2 00BF     	nop
 661 00e4 00BF     	nop
 662              	@ 0 "" 2
 663              		.loc 1 183 39 view .LVU223
 664              		.loc 1 183 39 view .LVU224
 665              		.loc 1 183 39 view .LVU225
 666              	@ 183 "patchouli/src/patchouli_bsp_tx.c" 1
 667 00e6 00BF     		nop
 668 00e8 00BF     	nop
 669 00ea 00BF     	nop
 670 00ec 00BF     	nop
 671 00ee 00BF     	nop
 672              	@ 0 "" 2
ARM GAS  C:\Users\Nathan\AppData\Local\Temp\ccnBuMFp.s 			page 16


 673              		.loc 1 183 39 view .LVU226
 674              		.loc 1 183 39 view .LVU227
 675              		.loc 1 183 49 view .LVU228
 676              		.loc 1 183 49 view .LVU229
 677              		.loc 1 183 49 view .LVU230
 678              	@ 183 "patchouli/src/patchouli_bsp_tx.c" 1
 679 00f0 00BF     		nop
 680 00f2 00BF     	nop
 681 00f4 00BF     	nop
 682 00f6 00BF     	nop
 683 00f8 00BF     	nop
 684              	@ 0 "" 2
 685              		.loc 1 183 49 view .LVU231
 686              		.loc 1 183 49 view .LVU232
 687              		.loc 1 183 49 view .LVU233
 688              	@ 183 "patchouli/src/patchouli_bsp_tx.c" 1
 689 00fa 00BF     		nop
 690 00fc 00BF     	nop
 691 00fe 00BF     	nop
 692 0100 00BF     	nop
 693 0102 00BF     	nop
 694              	@ 0 "" 2
 695              		.loc 1 183 49 view .LVU234
 696              		.loc 1 183 49 view .LVU235
 697              		.loc 1 183 59 view .LVU236
 698              		.loc 1 183 59 view .LVU237
 699              		.loc 1 183 59 view .LVU238
 700              	@ 183 "patchouli/src/patchouli_bsp_tx.c" 1
 701 0104 00BF     		nop
 702 0106 00BF     	nop
 703 0108 00BF     	nop
 704 010a 00BF     	nop
 705 010c 00BF     	nop
 706              	@ 0 "" 2
 707              		.loc 1 183 59 view .LVU239
 708              		.loc 1 183 59 view .LVU240
 709              		.loc 1 183 59 view .LVU241
 710              	@ 183 "patchouli/src/patchouli_bsp_tx.c" 1
 711 010e 00BF     		nop
 712 0110 00BF     	nop
 713 0112 00BF     	nop
 714 0114 00BF     	nop
 715 0116 00BF     	nop
 716              	@ 0 "" 2
 717              		.loc 1 183 59 view .LVU242
 718              		.loc 1 183 59 view .LVU243
 184:patchouli/src/patchouli_bsp_tx.c ****         _5NOP();
 719              		.loc 1 184 9 view .LVU244
 720              		.loc 1 184 9 view .LVU245
 721              	@ 184 "patchouli/src/patchouli_bsp_tx.c" 1
 722 0118 00BF     		nop
 723 011a 00BF     	nop
 724 011c 00BF     	nop
 725 011e 00BF     	nop
 726 0120 00BF     	nop
 727              	@ 0 "" 2
 728              		.loc 1 184 9 view .LVU246
ARM GAS  C:\Users\Nathan\AppData\Local\Temp\ccnBuMFp.s 			page 17


 185:patchouli/src/patchouli_bsp_tx.c ****         asm volatile ("nop");
 729              		.loc 1 185 9 view .LVU247
 730              	@ 185 "patchouli/src/patchouli_bsp_tx.c" 1
 731 0122 00BF     		nop
 732              	@ 0 "" 2
 175:patchouli/src/patchouli_bsp_tx.c ****         PATCHOULI_TX_HIGH();
 733              		.loc 1 175 26 discriminator 3 view .LVU248
 734              		.thumb
 735              		.syntax unified
 736 0124 0133     		adds	r3, r3, #1
 737              	.LVL7:
 175:patchouli/src/patchouli_bsp_tx.c ****         PATCHOULI_TX_HIGH();
 738              		.loc 1 175 26 is_stmt 0 discriminator 3 view .LVU249
 739 0126 9BB2     		uxth	r3, r3
 740              	.LVL8:
 741              	.L7:
 175:patchouli/src/patchouli_bsp_tx.c ****         PATCHOULI_TX_HIGH();
 742              		.loc 1 175 16 is_stmt 1 discriminator 1 view .LVU250
 743 0128 9842     		cmp	r0, r3
 744 012a 3FF672AF 		bhi	.L8
 186:patchouli/src/patchouli_bsp_tx.c ****     }
 187:patchouli/src/patchouli_bsp_tx.c ****     PATCHOULI_TX_TRISTATE();
 745              		.loc 1 187 5 view .LVU251
 746              		.loc 1 187 5 view .LVU252
 747 012e 034A     		ldr	r2, .L9
 748 0130 1368     		ldr	r3, [r2]
 749              	.LVL9:
 750              		.loc 1 187 5 is_stmt 0 view .LVU253
 751 0132 23F44053 		bic	r3, r3, #12288
 752 0136 1360     		str	r3, [r2]
 753              		.loc 1 187 5 is_stmt 1 view .LVU254
 188:patchouli/src/patchouli_bsp_tx.c **** }
 754              		.loc 1 188 1 is_stmt 0 view .LVU255
 755 0138 7047     		bx	lr
 756              	.L10:
 757 013a 00BF     		.align	2
 758              	.L9:
 759 013c 00040048 		.word	1207960576
 760 0140 00000000 		.word	patchouli_pen_pw100
 761              		.cfi_endproc
 762              	.LFE1416:
 764              		.section	.text._PW100_FSTEP_510,"ax",%progbits
 765              		.align	1
 766              		.global	_PW100_FSTEP_510
 767              		.syntax unified
 768              		.thumb
 769              		.thumb_func
 771              	_PW100_FSTEP_510:
 772              	.LFB1418:
 189:patchouli/src/patchouli_bsp_tx.c **** 
 190:patchouli/src/patchouli_bsp_tx.c **** void _PW100_FSTEP_500(void){
 191:patchouli/src/patchouli_bsp_tx.c ****     // 500kHz target frequency
 192:patchouli/src/patchouli_bsp_tx.c ****     // Period = 64MHz / 500kHz = 128 cycles
 193:patchouli/src/patchouli_bsp_tx.c ****     // Half-period = 64 cycles
 194:patchouli/src/patchouli_bsp_tx.c ****     // HIGH duration = 64 cycles (accounting for GPIO overhead)
 195:patchouli/src/patchouli_bsp_tx.c ****     // LOW duration = 64 cycles (accounting for GPIO overhead)
 196:patchouli/src/patchouli_bsp_tx.c ****     PATCHOULI_TX_PP();
ARM GAS  C:\Users\Nathan\AppData\Local\Temp\ccnBuMFp.s 			page 18


 197:patchouli/src/patchouli_bsp_tx.c ****     const int ncycle = patchouli_pen_pw100.tx_ncycle;
 198:patchouli/src/patchouli_bsp_tx.c ****     uint16_t i;
 199:patchouli/src/patchouli_bsp_tx.c ****     for (i=0; i<ncycle; i++){
 200:patchouli/src/patchouli_bsp_tx.c ****         PATCHOULI_TX_HIGH();
 201:patchouli/src/patchouli_bsp_tx.c ****         // 64 cycles: 6*10 + 1*5 - 1 = 64
 202:patchouli/src/patchouli_bsp_tx.c ****         _10NOP(); _10NOP(); _10NOP(); _10NOP(); _10NOP(); _10NOP();
 203:patchouli/src/patchouli_bsp_tx.c ****         _5NOP();
 204:patchouli/src/patchouli_bsp_tx.c ****         
 205:patchouli/src/patchouli_bsp_tx.c ****         PATCHOULI_TX_LOW();
 206:patchouli/src/patchouli_bsp_tx.c ****         // 64 cycles: 6*10 + 1*5 - 1 = 64
 207:patchouli/src/patchouli_bsp_tx.c ****         _10NOP(); _10NOP(); _10NOP(); _10NOP(); _10NOP(); _10NOP();
 208:patchouli/src/patchouli_bsp_tx.c ****         _5NOP();
 209:patchouli/src/patchouli_bsp_tx.c ****     }
 210:patchouli/src/patchouli_bsp_tx.c ****     PATCHOULI_TX_TRISTATE();
 211:patchouli/src/patchouli_bsp_tx.c **** }
 212:patchouli/src/patchouli_bsp_tx.c **** 
 213:patchouli/src/patchouli_bsp_tx.c **** void _PW100_FSTEP_510(void){
 773              		.loc 1 213 28 is_stmt 1 view -0
 774              		.cfi_startproc
 775              		@ args = 0, pretend = 0, frame = 0
 776              		@ frame_needed = 0, uses_anonymous_args = 0
 777              		@ link register save eliminated.
 214:patchouli/src/patchouli_bsp_tx.c ****     // 510kHz
 215:patchouli/src/patchouli_bsp_tx.c ****     // need 125.4 cycles (new) (64MHz / 510kHz)
 216:patchouli/src/patchouli_bsp_tx.c ****     // 125 - 13 = 112
 217:patchouli/src/patchouli_bsp_tx.c ****     // 112 / 2 = 56
 218:patchouli/src/patchouli_bsp_tx.c ****     // 56 - 5.5 = 51
 219:patchouli/src/patchouli_bsp_tx.c ****     // 56 + 5.5 = 61.5
 220:patchouli/src/patchouli_bsp_tx.c ****     // 51 to 62
 221:patchouli/src/patchouli_bsp_tx.c ****     PATCHOULI_TX_PP();
 778              		.loc 1 221 5 view .LVU257
 779              		.loc 1 221 5 view .LVU258
 780 0000 444A     		ldr	r2, .L14
 781 0002 1368     		ldr	r3, [r2]
 782 0004 43F48053 		orr	r3, r3, #4096
 783 0008 1360     		str	r3, [r2]
 784              		.loc 1 221 5 view .LVU259
 222:patchouli/src/patchouli_bsp_tx.c ****     const int ncycle = patchouli_pen_pw100.tx_ncycle;
 785              		.loc 1 222 5 view .LVU260
 786              		.loc 1 222 43 is_stmt 0 view .LVU261
 787 000a 434B     		ldr	r3, .L14+4
 788 000c 1889     		ldrh	r0, [r3, #8]
 789              	.LVL10:
 223:patchouli/src/patchouli_bsp_tx.c ****     uint16_t  i;
 790              		.loc 1 223 5 is_stmt 1 view .LVU262
 224:patchouli/src/patchouli_bsp_tx.c ****     for (i=0; i<ncycle; i++){ // 3 cycles
 791              		.loc 1 224 5 view .LVU263
 792              		.loc 1 224 11 is_stmt 0 view .LVU264
 793 000e 0023     		movs	r3, #0
 794              		.loc 1 224 5 view .LVU265
 795 0010 78E0     		b	.L12
 796              	.LVL11:
 797              	.L13:
 225:patchouli/src/patchouli_bsp_tx.c ****         PATCHOULI_TX_HIGH();
 798              		.loc 1 225 9 is_stmt 1 view .LVU266
 799              		.loc 1 225 9 view .LVU267
 800 0012 404A     		ldr	r2, .L14
ARM GAS  C:\Users\Nathan\AppData\Local\Temp\ccnBuMFp.s 			page 19


 801 0014 4021     		movs	r1, #64
 802 0016 9161     		str	r1, [r2, #24]
 803              		.loc 1 225 9 view .LVU268
 226:patchouli/src/patchouli_bsp_tx.c ****         // 62
 227:patchouli/src/patchouli_bsp_tx.c ****         _10NOP();_10NOP();_10NOP();_10NOP();_10NOP();_10NOP();
 804              		.loc 1 227 9 view .LVU269
 805              		.loc 1 227 9 view .LVU270
 806              		.loc 1 227 9 view .LVU271
 807              		.syntax unified
 808              	@ 227 "patchouli/src/patchouli_bsp_tx.c" 1
 809 0018 00BF     		nop
 810 001a 00BF     	nop
 811 001c 00BF     	nop
 812 001e 00BF     	nop
 813 0020 00BF     	nop
 814              	@ 0 "" 2
 815              		.loc 1 227 9 view .LVU272
 816              		.loc 1 227 9 view .LVU273
 817              		.loc 1 227 9 view .LVU274
 818              	@ 227 "patchouli/src/patchouli_bsp_tx.c" 1
 819 0022 00BF     		nop
 820 0024 00BF     	nop
 821 0026 00BF     	nop
 822 0028 00BF     	nop
 823 002a 00BF     	nop
 824              	@ 0 "" 2
 825              		.loc 1 227 9 view .LVU275
 826              		.loc 1 227 9 view .LVU276
 827              		.loc 1 227 18 view .LVU277
 828              		.loc 1 227 18 view .LVU278
 829              		.loc 1 227 18 view .LVU279
 830              	@ 227 "patchouli/src/patchouli_bsp_tx.c" 1
 831 002c 00BF     		nop
 832 002e 00BF     	nop
 833 0030 00BF     	nop
 834 0032 00BF     	nop
 835 0034 00BF     	nop
 836              	@ 0 "" 2
 837              		.loc 1 227 18 view .LVU280
 838              		.loc 1 227 18 view .LVU281
 839              		.loc 1 227 18 view .LVU282
 840              	@ 227 "patchouli/src/patchouli_bsp_tx.c" 1
 841 0036 00BF     		nop
 842 0038 00BF     	nop
 843 003a 00BF     	nop
 844 003c 00BF     	nop
 845 003e 00BF     	nop
 846              	@ 0 "" 2
 847              		.loc 1 227 18 view .LVU283
 848              		.loc 1 227 18 view .LVU284
 849              		.loc 1 227 27 view .LVU285
 850              		.loc 1 227 27 view .LVU286
 851              		.loc 1 227 27 view .LVU287
 852              	@ 227 "patchouli/src/patchouli_bsp_tx.c" 1
 853 0040 00BF     		nop
 854 0042 00BF     	nop
 855 0044 00BF     	nop
ARM GAS  C:\Users\Nathan\AppData\Local\Temp\ccnBuMFp.s 			page 20


 856 0046 00BF     	nop
 857 0048 00BF     	nop
 858              	@ 0 "" 2
 859              		.loc 1 227 27 view .LVU288
 860              		.loc 1 227 27 view .LVU289
 861              		.loc 1 227 27 view .LVU290
 862              	@ 227 "patchouli/src/patchouli_bsp_tx.c" 1
 863 004a 00BF     		nop
 864 004c 00BF     	nop
 865 004e 00BF     	nop
 866 0050 00BF     	nop
 867 0052 00BF     	nop
 868              	@ 0 "" 2
 869              		.loc 1 227 27 view .LVU291
 870              		.loc 1 227 27 view .LVU292
 871              		.loc 1 227 36 view .LVU293
 872              		.loc 1 227 36 view .LVU294
 873              		.loc 1 227 36 view .LVU295
 874              	@ 227 "patchouli/src/patchouli_bsp_tx.c" 1
 875 0054 00BF     		nop
 876 0056 00BF     	nop
 877 0058 00BF     	nop
 878 005a 00BF     	nop
 879 005c 00BF     	nop
 880              	@ 0 "" 2
 881              		.loc 1 227 36 view .LVU296
 882              		.loc 1 227 36 view .LVU297
 883              		.loc 1 227 36 view .LVU298
 884              	@ 227 "patchouli/src/patchouli_bsp_tx.c" 1
 885 005e 00BF     		nop
 886 0060 00BF     	nop
 887 0062 00BF     	nop
 888 0064 00BF     	nop
 889 0066 00BF     	nop
 890              	@ 0 "" 2
 891              		.loc 1 227 36 view .LVU299
 892              		.loc 1 227 36 view .LVU300
 893              		.loc 1 227 45 view .LVU301
 894              		.loc 1 227 45 view .LVU302
 895              		.loc 1 227 45 view .LVU303
 896              	@ 227 "patchouli/src/patchouli_bsp_tx.c" 1
 897 0068 00BF     		nop
 898 006a 00BF     	nop
 899 006c 00BF     	nop
 900 006e 00BF     	nop
 901 0070 00BF     	nop
 902              	@ 0 "" 2
 903              		.loc 1 227 45 view .LVU304
 904              		.loc 1 227 45 view .LVU305
 905              		.loc 1 227 45 view .LVU306
 906              	@ 227 "patchouli/src/patchouli_bsp_tx.c" 1
 907 0072 00BF     		nop
 908 0074 00BF     	nop
 909 0076 00BF     	nop
 910 0078 00BF     	nop
 911 007a 00BF     	nop
 912              	@ 0 "" 2
ARM GAS  C:\Users\Nathan\AppData\Local\Temp\ccnBuMFp.s 			page 21


 913              		.loc 1 227 45 view .LVU307
 914              		.loc 1 227 45 view .LVU308
 915              		.loc 1 227 54 view .LVU309
 916              		.loc 1 227 54 view .LVU310
 917              		.loc 1 227 54 view .LVU311
 918              	@ 227 "patchouli/src/patchouli_bsp_tx.c" 1
 919 007c 00BF     		nop
 920 007e 00BF     	nop
 921 0080 00BF     	nop
 922 0082 00BF     	nop
 923 0084 00BF     	nop
 924              	@ 0 "" 2
 925              		.loc 1 227 54 view .LVU312
 926              		.loc 1 227 54 view .LVU313
 927              		.loc 1 227 54 view .LVU314
 928              	@ 227 "patchouli/src/patchouli_bsp_tx.c" 1
 929 0086 00BF     		nop
 930 0088 00BF     	nop
 931 008a 00BF     	nop
 932 008c 00BF     	nop
 933 008e 00BF     	nop
 934              	@ 0 "" 2
 935              		.loc 1 227 54 view .LVU315
 936              		.loc 1 227 54 view .LVU316
 228:patchouli/src/patchouli_bsp_tx.c ****         asm volatile ("nop");
 937              		.loc 1 228 9 view .LVU317
 938              	@ 228 "patchouli/src/patchouli_bsp_tx.c" 1
 939 0090 00BF     		nop
 940              	@ 0 "" 2
 229:patchouli/src/patchouli_bsp_tx.c ****         asm volatile ("nop");
 941              		.loc 1 229 9 view .LVU318
 942              	@ 229 "patchouli/src/patchouli_bsp_tx.c" 1
 943 0092 00BF     		nop
 944              	@ 0 "" 2
 230:patchouli/src/patchouli_bsp_tx.c ****         PATCHOULI_TX_LOW();
 945              		.loc 1 230 9 view .LVU319
 946              		.loc 1 230 9 view .LVU320
 947              		.thumb
 948              		.syntax unified
 949 0094 4FF48001 		mov	r1, #4194304
 950 0098 9161     		str	r1, [r2, #24]
 951              		.loc 1 230 9 view .LVU321
 231:patchouli/src/patchouli_bsp_tx.c ****         // 51
 232:patchouli/src/patchouli_bsp_tx.c ****         _10NOP();_10NOP();_10NOP();_10NOP();_10NOP();
 952              		.loc 1 232 9 view .LVU322
 953              		.loc 1 232 9 view .LVU323
 954              		.loc 1 232 9 view .LVU324
 955              		.syntax unified
 956              	@ 232 "patchouli/src/patchouli_bsp_tx.c" 1
 957 009a 00BF     		nop
 958 009c 00BF     	nop
 959 009e 00BF     	nop
 960 00a0 00BF     	nop
 961 00a2 00BF     	nop
 962              	@ 0 "" 2
 963              		.loc 1 232 9 view .LVU325
 964              		.loc 1 232 9 view .LVU326
ARM GAS  C:\Users\Nathan\AppData\Local\Temp\ccnBuMFp.s 			page 22


 965              		.loc 1 232 9 view .LVU327
 966              	@ 232 "patchouli/src/patchouli_bsp_tx.c" 1
 967 00a4 00BF     		nop
 968 00a6 00BF     	nop
 969 00a8 00BF     	nop
 970 00aa 00BF     	nop
 971 00ac 00BF     	nop
 972              	@ 0 "" 2
 973              		.loc 1 232 9 view .LVU328
 974              		.loc 1 232 9 view .LVU329
 975              		.loc 1 232 18 view .LVU330
 976              		.loc 1 232 18 view .LVU331
 977              		.loc 1 232 18 view .LVU332
 978              	@ 232 "patchouli/src/patchouli_bsp_tx.c" 1
 979 00ae 00BF     		nop
 980 00b0 00BF     	nop
 981 00b2 00BF     	nop
 982 00b4 00BF     	nop
 983 00b6 00BF     	nop
 984              	@ 0 "" 2
 985              		.loc 1 232 18 view .LVU333
 986              		.loc 1 232 18 view .LVU334
 987              		.loc 1 232 18 view .LVU335
 988              	@ 232 "patchouli/src/patchouli_bsp_tx.c" 1
 989 00b8 00BF     		nop
 990 00ba 00BF     	nop
 991 00bc 00BF     	nop
 992 00be 00BF     	nop
 993 00c0 00BF     	nop
 994              	@ 0 "" 2
 995              		.loc 1 232 18 view .LVU336
 996              		.loc 1 232 18 view .LVU337
 997              		.loc 1 232 27 view .LVU338
 998              		.loc 1 232 27 view .LVU339
 999              		.loc 1 232 27 view .LVU340
 1000              	@ 232 "patchouli/src/patchouli_bsp_tx.c" 1
 1001 00c2 00BF     		nop
 1002 00c4 00BF     	nop
 1003 00c6 00BF     	nop
 1004 00c8 00BF     	nop
 1005 00ca 00BF     	nop
 1006              	@ 0 "" 2
 1007              		.loc 1 232 27 view .LVU341
 1008              		.loc 1 232 27 view .LVU342
 1009              		.loc 1 232 27 view .LVU343
 1010              	@ 232 "patchouli/src/patchouli_bsp_tx.c" 1
 1011 00cc 00BF     		nop
 1012 00ce 00BF     	nop
 1013 00d0 00BF     	nop
 1014 00d2 00BF     	nop
 1015 00d4 00BF     	nop
 1016              	@ 0 "" 2
 1017              		.loc 1 232 27 view .LVU344
 1018              		.loc 1 232 27 view .LVU345
 1019              		.loc 1 232 36 view .LVU346
 1020              		.loc 1 232 36 view .LVU347
 1021              		.loc 1 232 36 view .LVU348
ARM GAS  C:\Users\Nathan\AppData\Local\Temp\ccnBuMFp.s 			page 23


 1022              	@ 232 "patchouli/src/patchouli_bsp_tx.c" 1
 1023 00d6 00BF     		nop
 1024 00d8 00BF     	nop
 1025 00da 00BF     	nop
 1026 00dc 00BF     	nop
 1027 00de 00BF     	nop
 1028              	@ 0 "" 2
 1029              		.loc 1 232 36 view .LVU349
 1030              		.loc 1 232 36 view .LVU350
 1031              		.loc 1 232 36 view .LVU351
 1032              	@ 232 "patchouli/src/patchouli_bsp_tx.c" 1
 1033 00e0 00BF     		nop
 1034 00e2 00BF     	nop
 1035 00e4 00BF     	nop
 1036 00e6 00BF     	nop
 1037 00e8 00BF     	nop
 1038              	@ 0 "" 2
 1039              		.loc 1 232 36 view .LVU352
 1040              		.loc 1 232 36 view .LVU353
 1041              		.loc 1 232 45 view .LVU354
 1042              		.loc 1 232 45 view .LVU355
 1043              		.loc 1 232 45 view .LVU356
 1044              	@ 232 "patchouli/src/patchouli_bsp_tx.c" 1
 1045 00ea 00BF     		nop
 1046 00ec 00BF     	nop
 1047 00ee 00BF     	nop
 1048 00f0 00BF     	nop
 1049 00f2 00BF     	nop
 1050              	@ 0 "" 2
 1051              		.loc 1 232 45 view .LVU357
 1052              		.loc 1 232 45 view .LVU358
 1053              		.loc 1 232 45 view .LVU359
 1054              	@ 232 "patchouli/src/patchouli_bsp_tx.c" 1
 1055 00f4 00BF     		nop
 1056 00f6 00BF     	nop
 1057 00f8 00BF     	nop
 1058 00fa 00BF     	nop
 1059 00fc 00BF     	nop
 1060              	@ 0 "" 2
 1061              		.loc 1 232 45 view .LVU360
 1062              		.loc 1 232 45 view .LVU361
 233:patchouli/src/patchouli_bsp_tx.c ****         asm volatile ("nop");
 1063              		.loc 1 233 9 view .LVU362
 1064              	@ 233 "patchouli/src/patchouli_bsp_tx.c" 1
 1065 00fe 00BF     		nop
 1066              	@ 0 "" 2
 224:patchouli/src/patchouli_bsp_tx.c ****         PATCHOULI_TX_HIGH();
 1067              		.loc 1 224 26 discriminator 3 view .LVU363
 1068              		.thumb
 1069              		.syntax unified
 1070 0100 0133     		adds	r3, r3, #1
 1071              	.LVL12:
 224:patchouli/src/patchouli_bsp_tx.c ****         PATCHOULI_TX_HIGH();
 1072              		.loc 1 224 26 is_stmt 0 discriminator 3 view .LVU364
 1073 0102 9BB2     		uxth	r3, r3
 1074              	.LVL13:
 1075              	.L12:
ARM GAS  C:\Users\Nathan\AppData\Local\Temp\ccnBuMFp.s 			page 24


 224:patchouli/src/patchouli_bsp_tx.c ****         PATCHOULI_TX_HIGH();
 1076              		.loc 1 224 16 is_stmt 1 discriminator 1 view .LVU365
 1077 0104 9842     		cmp	r0, r3
 1078 0106 84D8     		bhi	.L13
 234:patchouli/src/patchouli_bsp_tx.c ****     }
 235:patchouli/src/patchouli_bsp_tx.c ****     PATCHOULI_TX_TRISTATE();
 1079              		.loc 1 235 5 view .LVU366
 1080              		.loc 1 235 5 view .LVU367
 1081 0108 024A     		ldr	r2, .L14
 1082 010a 1368     		ldr	r3, [r2]
 1083              	.LVL14:
 1084              		.loc 1 235 5 is_stmt 0 view .LVU368
 1085 010c 23F44053 		bic	r3, r3, #12288
 1086 0110 1360     		str	r3, [r2]
 1087              		.loc 1 235 5 is_stmt 1 view .LVU369
 236:patchouli/src/patchouli_bsp_tx.c **** }
 1088              		.loc 1 236 1 is_stmt 0 view .LVU370
 1089 0112 7047     		bx	lr
 1090              	.L15:
 1091              		.align	2
 1092              	.L14:
 1093 0114 00040048 		.word	1207960576
 1094 0118 00000000 		.word	patchouli_pen_pw100
 1095              		.cfi_endproc
 1096              	.LFE1418:
 1098              		.section	.text._PW100_FSTEP_520,"ax",%progbits
 1099              		.align	1
 1100              		.global	_PW100_FSTEP_520
 1101              		.syntax unified
 1102              		.thumb
 1103              		.thumb_func
 1105              	_PW100_FSTEP_520:
 1106              	.LFB1420:
 237:patchouli/src/patchouli_bsp_tx.c **** 
 238:patchouli/src/patchouli_bsp_tx.c **** void _PW100_FSTEP_515(void){
 239:patchouli/src/patchouli_bsp_tx.c ****     // 516.2kHz
 240:patchouli/src/patchouli_bsp_tx.c ****     // need 124 cycles (new) (64MHz / 516.2kHz)
 241:patchouli/src/patchouli_bsp_tx.c ****     // 124 - 13 = 111
 242:patchouli/src/patchouli_bsp_tx.c ****     // 111 / 2 = 55.5
 243:patchouli/src/patchouli_bsp_tx.c ****     // 55.5 - 5.5 = 50
 244:patchouli/src/patchouli_bsp_tx.c ****     // 55.5 + 5.5 = 61
 245:patchouli/src/patchouli_bsp_tx.c ****     // 50 to 61
 246:patchouli/src/patchouli_bsp_tx.c ****     PATCHOULI_TX_PP();
 247:patchouli/src/patchouli_bsp_tx.c ****     const int ncycle = patchouli_pen_pw100.tx_ncycle;
 248:patchouli/src/patchouli_bsp_tx.c ****     uint16_t  i;
 249:patchouli/src/patchouli_bsp_tx.c ****     for (i=0; i<ncycle; i++){ // 3 cycles
 250:patchouli/src/patchouli_bsp_tx.c ****         PATCHOULI_TX_HIGH();
 251:patchouli/src/patchouli_bsp_tx.c ****         // 61
 252:patchouli/src/patchouli_bsp_tx.c ****         _10NOP();_10NOP();_10NOP();_10NOP();_10NOP();_10NOP();
 253:patchouli/src/patchouli_bsp_tx.c ****         asm volatile ("nop");
 254:patchouli/src/patchouli_bsp_tx.c ****         PATCHOULI_TX_LOW();
 255:patchouli/src/patchouli_bsp_tx.c ****         // 50
 256:patchouli/src/patchouli_bsp_tx.c ****         _10NOP();_10NOP();_10NOP();_10NOP();_10NOP();
 257:patchouli/src/patchouli_bsp_tx.c ****     }
 258:patchouli/src/patchouli_bsp_tx.c ****     PATCHOULI_TX_TRISTATE();
 259:patchouli/src/patchouli_bsp_tx.c **** }
 260:patchouli/src/patchouli_bsp_tx.c **** 
ARM GAS  C:\Users\Nathan\AppData\Local\Temp\ccnBuMFp.s 			page 25


 261:patchouli/src/patchouli_bsp_tx.c **** void _PW100_FSTEP_520(void){
 1107              		.loc 1 261 28 is_stmt 1 view -0
 1108              		.cfi_startproc
 1109              		@ args = 0, pretend = 0, frame = 0
 1110              		@ frame_needed = 0, uses_anonymous_args = 0
 1111              		@ link register save eliminated.
 262:patchouli/src/patchouli_bsp_tx.c ****     // 520kHz
 263:patchouli/src/patchouli_bsp_tx.c ****     // need 123 cycles (new) (64MHz / 520kHz)
 264:patchouli/src/patchouli_bsp_tx.c ****     // 123 - 13 = 110
 265:patchouli/src/patchouli_bsp_tx.c ****     // 110 / 2 = 55
 266:patchouli/src/patchouli_bsp_tx.c ****     // 55 - 5.5 = 49.5
 267:patchouli/src/patchouli_bsp_tx.c ****     // 55 + 5.5 = 60.5
 268:patchouli/src/patchouli_bsp_tx.c ****     // 49.5 to 60.5
 269:patchouli/src/patchouli_bsp_tx.c ****     PATCHOULI_TX_PP();
 1112              		.loc 1 269 5 view .LVU372
 1113              		.loc 1 269 5 view .LVU373
 1114 0000 434A     		ldr	r2, .L19
 1115 0002 1368     		ldr	r3, [r2]
 1116 0004 43F48053 		orr	r3, r3, #4096
 1117 0008 1360     		str	r3, [r2]
 1118              		.loc 1 269 5 view .LVU374
 270:patchouli/src/patchouli_bsp_tx.c ****     const int ncycle = patchouli_pen_pw100.tx_ncycle;
 1119              		.loc 1 270 5 view .LVU375
 1120              		.loc 1 270 43 is_stmt 0 view .LVU376
 1121 000a 424B     		ldr	r3, .L19+4
 1122 000c 1889     		ldrh	r0, [r3, #8]
 1123              	.LVL15:
 271:patchouli/src/patchouli_bsp_tx.c ****     uint16_t  i;
 1124              		.loc 1 271 5 is_stmt 1 view .LVU377
 272:patchouli/src/patchouli_bsp_tx.c ****     for (i=0; i<ncycle; i++){ // 3 cycles
 1125              		.loc 1 272 5 view .LVU378
 1126              		.loc 1 272 11 is_stmt 0 view .LVU379
 1127 000e 0023     		movs	r3, #0
 1128              		.loc 1 272 5 view .LVU380
 1129 0010 75E0     		b	.L17
 1130              	.LVL16:
 1131              	.L18:
 273:patchouli/src/patchouli_bsp_tx.c ****         PATCHOULI_TX_HIGH();
 1132              		.loc 1 273 9 is_stmt 1 view .LVU381
 1133              		.loc 1 273 9 view .LVU382
 1134 0012 3F4A     		ldr	r2, .L19
 1135 0014 4021     		movs	r1, #64
 1136 0016 9161     		str	r1, [r2, #24]
 1137              		.loc 1 273 9 view .LVU383
 274:patchouli/src/patchouli_bsp_tx.c ****         // 60
 275:patchouli/src/patchouli_bsp_tx.c ****         _10NOP();_10NOP();_10NOP();_10NOP();_10NOP();_10NOP();
 1138              		.loc 1 275 9 view .LVU384
 1139              		.loc 1 275 9 view .LVU385
 1140              		.loc 1 275 9 view .LVU386
 1141              		.syntax unified
 1142              	@ 275 "patchouli/src/patchouli_bsp_tx.c" 1
 1143 0018 00BF     		nop
 1144 001a 00BF     	nop
 1145 001c 00BF     	nop
 1146 001e 00BF     	nop
 1147 0020 00BF     	nop
 1148              	@ 0 "" 2
ARM GAS  C:\Users\Nathan\AppData\Local\Temp\ccnBuMFp.s 			page 26


 1149              		.loc 1 275 9 view .LVU387
 1150              		.loc 1 275 9 view .LVU388
 1151              		.loc 1 275 9 view .LVU389
 1152              	@ 275 "patchouli/src/patchouli_bsp_tx.c" 1
 1153 0022 00BF     		nop
 1154 0024 00BF     	nop
 1155 0026 00BF     	nop
 1156 0028 00BF     	nop
 1157 002a 00BF     	nop
 1158              	@ 0 "" 2
 1159              		.loc 1 275 9 view .LVU390
 1160              		.loc 1 275 9 view .LVU391
 1161              		.loc 1 275 18 view .LVU392
 1162              		.loc 1 275 18 view .LVU393
 1163              		.loc 1 275 18 view .LVU394
 1164              	@ 275 "patchouli/src/patchouli_bsp_tx.c" 1
 1165 002c 00BF     		nop
 1166 002e 00BF     	nop
 1167 0030 00BF     	nop
 1168 0032 00BF     	nop
 1169 0034 00BF     	nop
 1170              	@ 0 "" 2
 1171              		.loc 1 275 18 view .LVU395
 1172              		.loc 1 275 18 view .LVU396
 1173              		.loc 1 275 18 view .LVU397
 1174              	@ 275 "patchouli/src/patchouli_bsp_tx.c" 1
 1175 0036 00BF     		nop
 1176 0038 00BF     	nop
 1177 003a 00BF     	nop
 1178 003c 00BF     	nop
 1179 003e 00BF     	nop
 1180              	@ 0 "" 2
 1181              		.loc 1 275 18 view .LVU398
 1182              		.loc 1 275 18 view .LVU399
 1183              		.loc 1 275 27 view .LVU400
 1184              		.loc 1 275 27 view .LVU401
 1185              		.loc 1 275 27 view .LVU402
 1186              	@ 275 "patchouli/src/patchouli_bsp_tx.c" 1
 1187 0040 00BF     		nop
 1188 0042 00BF     	nop
 1189 0044 00BF     	nop
 1190 0046 00BF     	nop
 1191 0048 00BF     	nop
 1192              	@ 0 "" 2
 1193              		.loc 1 275 27 view .LVU403
 1194              		.loc 1 275 27 view .LVU404
 1195              		.loc 1 275 27 view .LVU405
 1196              	@ 275 "patchouli/src/patchouli_bsp_tx.c" 1
 1197 004a 00BF     		nop
 1198 004c 00BF     	nop
 1199 004e 00BF     	nop
 1200 0050 00BF     	nop
 1201 0052 00BF     	nop
 1202              	@ 0 "" 2
 1203              		.loc 1 275 27 view .LVU406
 1204              		.loc 1 275 27 view .LVU407
 1205              		.loc 1 275 36 view .LVU408
ARM GAS  C:\Users\Nathan\AppData\Local\Temp\ccnBuMFp.s 			page 27


 1206              		.loc 1 275 36 view .LVU409
 1207              		.loc 1 275 36 view .LVU410
 1208              	@ 275 "patchouli/src/patchouli_bsp_tx.c" 1
 1209 0054 00BF     		nop
 1210 0056 00BF     	nop
 1211 0058 00BF     	nop
 1212 005a 00BF     	nop
 1213 005c 00BF     	nop
 1214              	@ 0 "" 2
 1215              		.loc 1 275 36 view .LVU411
 1216              		.loc 1 275 36 view .LVU412
 1217              		.loc 1 275 36 view .LVU413
 1218              	@ 275 "patchouli/src/patchouli_bsp_tx.c" 1
 1219 005e 00BF     		nop
 1220 0060 00BF     	nop
 1221 0062 00BF     	nop
 1222 0064 00BF     	nop
 1223 0066 00BF     	nop
 1224              	@ 0 "" 2
 1225              		.loc 1 275 36 view .LVU414
 1226              		.loc 1 275 36 view .LVU415
 1227              		.loc 1 275 45 view .LVU416
 1228              		.loc 1 275 45 view .LVU417
 1229              		.loc 1 275 45 view .LVU418
 1230              	@ 275 "patchouli/src/patchouli_bsp_tx.c" 1
 1231 0068 00BF     		nop
 1232 006a 00BF     	nop
 1233 006c 00BF     	nop
 1234 006e 00BF     	nop
 1235 0070 00BF     	nop
 1236              	@ 0 "" 2
 1237              		.loc 1 275 45 view .LVU419
 1238              		.loc 1 275 45 view .LVU420
 1239              		.loc 1 275 45 view .LVU421
 1240              	@ 275 "patchouli/src/patchouli_bsp_tx.c" 1
 1241 0072 00BF     		nop
 1242 0074 00BF     	nop
 1243 0076 00BF     	nop
 1244 0078 00BF     	nop
 1245 007a 00BF     	nop
 1246              	@ 0 "" 2
 1247              		.loc 1 275 45 view .LVU422
 1248              		.loc 1 275 45 view .LVU423
 1249              		.loc 1 275 54 view .LVU424
 1250              		.loc 1 275 54 view .LVU425
 1251              		.loc 1 275 54 view .LVU426
 1252              	@ 275 "patchouli/src/patchouli_bsp_tx.c" 1
 1253 007c 00BF     		nop
 1254 007e 00BF     	nop
 1255 0080 00BF     	nop
 1256 0082 00BF     	nop
 1257 0084 00BF     	nop
 1258              	@ 0 "" 2
 1259              		.loc 1 275 54 view .LVU427
 1260              		.loc 1 275 54 view .LVU428
 1261              		.loc 1 275 54 view .LVU429
 1262              	@ 275 "patchouli/src/patchouli_bsp_tx.c" 1
ARM GAS  C:\Users\Nathan\AppData\Local\Temp\ccnBuMFp.s 			page 28


 1263 0086 00BF     		nop
 1264 0088 00BF     	nop
 1265 008a 00BF     	nop
 1266 008c 00BF     	nop
 1267 008e 00BF     	nop
 1268              	@ 0 "" 2
 1269              		.loc 1 275 54 view .LVU430
 1270              		.loc 1 275 54 view .LVU431
 276:patchouli/src/patchouli_bsp_tx.c ****         PATCHOULI_TX_LOW();
 1271              		.loc 1 276 9 view .LVU432
 1272              		.loc 1 276 9 view .LVU433
 1273              		.thumb
 1274              		.syntax unified
 1275 0090 4FF48001 		mov	r1, #4194304
 1276 0094 9161     		str	r1, [r2, #24]
 1277              		.loc 1 276 9 view .LVU434
 277:patchouli/src/patchouli_bsp_tx.c ****         // 50
 278:patchouli/src/patchouli_bsp_tx.c ****         _10NOP();_10NOP();_10NOP();_10NOP();_10NOP();
 1278              		.loc 1 278 9 view .LVU435
 1279              		.loc 1 278 9 view .LVU436
 1280              		.loc 1 278 9 view .LVU437
 1281              		.syntax unified
 1282              	@ 278 "patchouli/src/patchouli_bsp_tx.c" 1
 1283 0096 00BF     		nop
 1284 0098 00BF     	nop
 1285 009a 00BF     	nop
 1286 009c 00BF     	nop
 1287 009e 00BF     	nop
 1288              	@ 0 "" 2
 1289              		.loc 1 278 9 view .LVU438
 1290              		.loc 1 278 9 view .LVU439
 1291              		.loc 1 278 9 view .LVU440
 1292              	@ 278 "patchouli/src/patchouli_bsp_tx.c" 1
 1293 00a0 00BF     		nop
 1294 00a2 00BF     	nop
 1295 00a4 00BF     	nop
 1296 00a6 00BF     	nop
 1297 00a8 00BF     	nop
 1298              	@ 0 "" 2
 1299              		.loc 1 278 9 view .LVU441
 1300              		.loc 1 278 9 view .LVU442
 1301              		.loc 1 278 18 view .LVU443
 1302              		.loc 1 278 18 view .LVU444
 1303              		.loc 1 278 18 view .LVU445
 1304              	@ 278 "patchouli/src/patchouli_bsp_tx.c" 1
 1305 00aa 00BF     		nop
 1306 00ac 00BF     	nop
 1307 00ae 00BF     	nop
 1308 00b0 00BF     	nop
 1309 00b2 00BF     	nop
 1310              	@ 0 "" 2
 1311              		.loc 1 278 18 view .LVU446
 1312              		.loc 1 278 18 view .LVU447
 1313              		.loc 1 278 18 view .LVU448
 1314              	@ 278 "patchouli/src/patchouli_bsp_tx.c" 1
 1315 00b4 00BF     		nop
 1316 00b6 00BF     	nop
ARM GAS  C:\Users\Nathan\AppData\Local\Temp\ccnBuMFp.s 			page 29


 1317 00b8 00BF     	nop
 1318 00ba 00BF     	nop
 1319 00bc 00BF     	nop
 1320              	@ 0 "" 2
 1321              		.loc 1 278 18 view .LVU449
 1322              		.loc 1 278 18 view .LVU450
 1323              		.loc 1 278 27 view .LVU451
 1324              		.loc 1 278 27 view .LVU452
 1325              		.loc 1 278 27 view .LVU453
 1326              	@ 278 "patchouli/src/patchouli_bsp_tx.c" 1
 1327 00be 00BF     		nop
 1328 00c0 00BF     	nop
 1329 00c2 00BF     	nop
 1330 00c4 00BF     	nop
 1331 00c6 00BF     	nop
 1332              	@ 0 "" 2
 1333              		.loc 1 278 27 view .LVU454
 1334              		.loc 1 278 27 view .LVU455
 1335              		.loc 1 278 27 view .LVU456
 1336              	@ 278 "patchouli/src/patchouli_bsp_tx.c" 1
 1337 00c8 00BF     		nop
 1338 00ca 00BF     	nop
 1339 00cc 00BF     	nop
 1340 00ce 00BF     	nop
 1341 00d0 00BF     	nop
 1342              	@ 0 "" 2
 1343              		.loc 1 278 27 view .LVU457
 1344              		.loc 1 278 27 view .LVU458
 1345              		.loc 1 278 36 view .LVU459
 1346              		.loc 1 278 36 view .LVU460
 1347              		.loc 1 278 36 view .LVU461
 1348              	@ 278 "patchouli/src/patchouli_bsp_tx.c" 1
 1349 00d2 00BF     		nop
 1350 00d4 00BF     	nop
 1351 00d6 00BF     	nop
 1352 00d8 00BF     	nop
 1353 00da 00BF     	nop
 1354              	@ 0 "" 2
 1355              		.loc 1 278 36 view .LVU462
 1356              		.loc 1 278 36 view .LVU463
 1357              		.loc 1 278 36 view .LVU464
 1358              	@ 278 "patchouli/src/patchouli_bsp_tx.c" 1
 1359 00dc 00BF     		nop
 1360 00de 00BF     	nop
 1361 00e0 00BF     	nop
 1362 00e2 00BF     	nop
 1363 00e4 00BF     	nop
 1364              	@ 0 "" 2
 1365              		.loc 1 278 36 view .LVU465
 1366              		.loc 1 278 36 view .LVU466
 1367              		.loc 1 278 45 view .LVU467
 1368              		.loc 1 278 45 view .LVU468
 1369              		.loc 1 278 45 view .LVU469
 1370              	@ 278 "patchouli/src/patchouli_bsp_tx.c" 1
 1371 00e6 00BF     		nop
 1372 00e8 00BF     	nop
 1373 00ea 00BF     	nop
ARM GAS  C:\Users\Nathan\AppData\Local\Temp\ccnBuMFp.s 			page 30


 1374 00ec 00BF     	nop
 1375 00ee 00BF     	nop
 1376              	@ 0 "" 2
 1377              		.loc 1 278 45 view .LVU470
 1378              		.loc 1 278 45 view .LVU471
 1379              		.loc 1 278 45 view .LVU472
 1380              	@ 278 "patchouli/src/patchouli_bsp_tx.c" 1
 1381 00f0 00BF     		nop
 1382 00f2 00BF     	nop
 1383 00f4 00BF     	nop
 1384 00f6 00BF     	nop
 1385 00f8 00BF     	nop
 1386              	@ 0 "" 2
 1387              		.loc 1 278 45 view .LVU473
 1388              		.loc 1 278 45 view .LVU474
 272:patchouli/src/patchouli_bsp_tx.c ****         PATCHOULI_TX_HIGH();
 1389              		.loc 1 272 26 discriminator 3 view .LVU475
 1390              		.thumb
 1391              		.syntax unified
 1392 00fa 0133     		adds	r3, r3, #1
 1393              	.LVL17:
 272:patchouli/src/patchouli_bsp_tx.c ****         PATCHOULI_TX_HIGH();
 1394              		.loc 1 272 26 is_stmt 0 discriminator 3 view .LVU476
 1395 00fc 9BB2     		uxth	r3, r3
 1396              	.LVL18:
 1397              	.L17:
 272:patchouli/src/patchouli_bsp_tx.c ****         PATCHOULI_TX_HIGH();
 1398              		.loc 1 272 16 is_stmt 1 discriminator 1 view .LVU477
 1399 00fe 9842     		cmp	r0, r3
 1400 0100 87D8     		bhi	.L18
 279:patchouli/src/patchouli_bsp_tx.c ****     }
 280:patchouli/src/patchouli_bsp_tx.c ****     PATCHOULI_TX_TRISTATE();
 1401              		.loc 1 280 5 view .LVU478
 1402              		.loc 1 280 5 view .LVU479
 1403 0102 034A     		ldr	r2, .L19
 1404 0104 1368     		ldr	r3, [r2]
 1405              	.LVL19:
 1406              		.loc 1 280 5 is_stmt 0 view .LVU480
 1407 0106 23F44053 		bic	r3, r3, #12288
 1408 010a 1360     		str	r3, [r2]
 1409              		.loc 1 280 5 is_stmt 1 view .LVU481
 281:patchouli/src/patchouli_bsp_tx.c **** }
 1410              		.loc 1 281 1 is_stmt 0 view .LVU482
 1411 010c 7047     		bx	lr
 1412              	.L20:
 1413 010e 00BF     		.align	2
 1414              	.L19:
 1415 0110 00040048 		.word	1207960576
 1416 0114 00000000 		.word	patchouli_pen_pw100
 1417              		.cfi_endproc
 1418              	.LFE1420:
 1420              		.section	.text._PW100_FSTEP_530,"ax",%progbits
 1421              		.align	1
 1422              		.global	_PW100_FSTEP_530
 1423              		.syntax unified
 1424              		.thumb
 1425              		.thumb_func
ARM GAS  C:\Users\Nathan\AppData\Local\Temp\ccnBuMFp.s 			page 31


 1427              	_PW100_FSTEP_530:
 1428              	.LFB1422:
 282:patchouli/src/patchouli_bsp_tx.c **** 
 283:patchouli/src/patchouli_bsp_tx.c **** void _PW100_FSTEP_525(void){
 284:patchouli/src/patchouli_bsp_tx.c ****     // 525.5kHz
 285:patchouli/src/patchouli_bsp_tx.c ****     // need 121 cycles (new) (64MHz / 525.5kHz)
 286:patchouli/src/patchouli_bsp_tx.c ****     // 121 - 13 = 108
 287:patchouli/src/patchouli_bsp_tx.c ****     // 108 / 2 = 54
 288:patchouli/src/patchouli_bsp_tx.c ****     // 54 - 5.5 = 48.5
 289:patchouli/src/patchouli_bsp_tx.c ****     // 54 + 5.5 = 59.5
 290:patchouli/src/patchouli_bsp_tx.c ****     // 48.5 to 59.5
 291:patchouli/src/patchouli_bsp_tx.c ****     PATCHOULI_TX_PP();
 292:patchouli/src/patchouli_bsp_tx.c ****     const int ncycle = patchouli_pen_pw100.tx_ncycle;
 293:patchouli/src/patchouli_bsp_tx.c ****     uint16_t  i;
 294:patchouli/src/patchouli_bsp_tx.c ****     for (i=0; i<ncycle; i++){ // 3 cycles
 295:patchouli/src/patchouli_bsp_tx.c ****         PATCHOULI_TX_HIGH();
 296:patchouli/src/patchouli_bsp_tx.c ****         //60
 297:patchouli/src/patchouli_bsp_tx.c ****         _10NOP();_10NOP();_10NOP();_10NOP();_10NOP();_10NOP();
 298:patchouli/src/patchouli_bsp_tx.c ****         PATCHOULI_TX_LOW();
 299:patchouli/src/patchouli_bsp_tx.c ****         //49
 300:patchouli/src/patchouli_bsp_tx.c ****         _10NOP();_10NOP();_10NOP();_10NOP();
 301:patchouli/src/patchouli_bsp_tx.c ****         _5NOP();
 302:patchouli/src/patchouli_bsp_tx.c ****         asm volatile ("nop");
 303:patchouli/src/patchouli_bsp_tx.c ****         asm volatile ("nop");
 304:patchouli/src/patchouli_bsp_tx.c ****         asm volatile ("nop");
 305:patchouli/src/patchouli_bsp_tx.c ****         asm volatile ("nop");
 306:patchouli/src/patchouli_bsp_tx.c ****     }
 307:patchouli/src/patchouli_bsp_tx.c ****     PATCHOULI_TX_TRISTATE();
 308:patchouli/src/patchouli_bsp_tx.c **** }
 309:patchouli/src/patchouli_bsp_tx.c **** 
 310:patchouli/src/patchouli_bsp_tx.c **** void _PW100_FSTEP_530(void){
 1429              		.loc 1 310 28 is_stmt 1 view -0
 1430              		.cfi_startproc
 1431              		@ args = 0, pretend = 0, frame = 0
 1432              		@ frame_needed = 0, uses_anonymous_args = 0
 1433              		@ link register save eliminated.
 311:patchouli/src/patchouli_bsp_tx.c ****     // 530kHz
 312:patchouli/src/patchouli_bsp_tx.c ****     // need 120 cycles (new) (64MHz / 530kHz)
 313:patchouli/src/patchouli_bsp_tx.c ****     // 120 - 13 = 107
 314:patchouli/src/patchouli_bsp_tx.c ****     // 107 / 2 = 53.5
 315:patchouli/src/patchouli_bsp_tx.c ****     // 53.5 - 5.5 = 48
 316:patchouli/src/patchouli_bsp_tx.c ****     // 53.5 + 5.5 = 59
 317:patchouli/src/patchouli_bsp_tx.c ****     // 48 to 59
 318:patchouli/src/patchouli_bsp_tx.c ****     PATCHOULI_TX_PP();
 1434              		.loc 1 318 5 view .LVU484
 1435              		.loc 1 318 5 view .LVU485
 1436 0000 414A     		ldr	r2, .L24
 1437 0002 1368     		ldr	r3, [r2]
 1438 0004 43F48053 		orr	r3, r3, #4096
 1439 0008 1360     		str	r3, [r2]
 1440              		.loc 1 318 5 view .LVU486
 319:patchouli/src/patchouli_bsp_tx.c ****     const int ncycle = patchouli_pen_pw100.tx_ncycle;
 1441              		.loc 1 319 5 view .LVU487
 1442              		.loc 1 319 43 is_stmt 0 view .LVU488
 1443 000a 404B     		ldr	r3, .L24+4
 1444 000c 1889     		ldrh	r0, [r3, #8]
 1445              	.LVL20:
ARM GAS  C:\Users\Nathan\AppData\Local\Temp\ccnBuMFp.s 			page 32


 320:patchouli/src/patchouli_bsp_tx.c ****     uint16_t  i;
 1446              		.loc 1 320 5 is_stmt 1 view .LVU489
 321:patchouli/src/patchouli_bsp_tx.c ****     for (i=0; i<ncycle; i++){ // 3 cycles
 1447              		.loc 1 321 5 view .LVU490
 1448              		.loc 1 321 11 is_stmt 0 view .LVU491
 1449 000e 0023     		movs	r3, #0
 1450              		.loc 1 321 5 view .LVU492
 1451 0010 72E0     		b	.L22
 1452              	.LVL21:
 1453              	.L23:
 322:patchouli/src/patchouli_bsp_tx.c ****         PATCHOULI_TX_HIGH();
 1454              		.loc 1 322 9 is_stmt 1 view .LVU493
 1455              		.loc 1 322 9 view .LVU494
 1456 0012 3D4A     		ldr	r2, .L24
 1457 0014 4021     		movs	r1, #64
 1458 0016 9161     		str	r1, [r2, #24]
 1459              		.loc 1 322 9 view .LVU495
 323:patchouli/src/patchouli_bsp_tx.c ****         // 59
 324:patchouli/src/patchouli_bsp_tx.c ****         _10NOP();_10NOP();_10NOP();_10NOP();_10NOP();
 1460              		.loc 1 324 9 view .LVU496
 1461              		.loc 1 324 9 view .LVU497
 1462              		.loc 1 324 9 view .LVU498
 1463              		.syntax unified
 1464              	@ 324 "patchouli/src/patchouli_bsp_tx.c" 1
 1465 0018 00BF     		nop
 1466 001a 00BF     	nop
 1467 001c 00BF     	nop
 1468 001e 00BF     	nop
 1469 0020 00BF     	nop
 1470              	@ 0 "" 2
 1471              		.loc 1 324 9 view .LVU499
 1472              		.loc 1 324 9 view .LVU500
 1473              		.loc 1 324 9 view .LVU501
 1474              	@ 324 "patchouli/src/patchouli_bsp_tx.c" 1
 1475 0022 00BF     		nop
 1476 0024 00BF     	nop
 1477 0026 00BF     	nop
 1478 0028 00BF     	nop
 1479 002a 00BF     	nop
 1480              	@ 0 "" 2
 1481              		.loc 1 324 9 view .LVU502
 1482              		.loc 1 324 9 view .LVU503
 1483              		.loc 1 324 18 view .LVU504
 1484              		.loc 1 324 18 view .LVU505
 1485              		.loc 1 324 18 view .LVU506
 1486              	@ 324 "patchouli/src/patchouli_bsp_tx.c" 1
 1487 002c 00BF     		nop
 1488 002e 00BF     	nop
 1489 0030 00BF     	nop
 1490 0032 00BF     	nop
 1491 0034 00BF     	nop
 1492              	@ 0 "" 2
 1493              		.loc 1 324 18 view .LVU507
 1494              		.loc 1 324 18 view .LVU508
 1495              		.loc 1 324 18 view .LVU509
 1496              	@ 324 "patchouli/src/patchouli_bsp_tx.c" 1
 1497 0036 00BF     		nop
ARM GAS  C:\Users\Nathan\AppData\Local\Temp\ccnBuMFp.s 			page 33


 1498 0038 00BF     	nop
 1499 003a 00BF     	nop
 1500 003c 00BF     	nop
 1501 003e 00BF     	nop
 1502              	@ 0 "" 2
 1503              		.loc 1 324 18 view .LVU510
 1504              		.loc 1 324 18 view .LVU511
 1505              		.loc 1 324 27 view .LVU512
 1506              		.loc 1 324 27 view .LVU513
 1507              		.loc 1 324 27 view .LVU514
 1508              	@ 324 "patchouli/src/patchouli_bsp_tx.c" 1
 1509 0040 00BF     		nop
 1510 0042 00BF     	nop
 1511 0044 00BF     	nop
 1512 0046 00BF     	nop
 1513 0048 00BF     	nop
 1514              	@ 0 "" 2
 1515              		.loc 1 324 27 view .LVU515
 1516              		.loc 1 324 27 view .LVU516
 1517              		.loc 1 324 27 view .LVU517
 1518              	@ 324 "patchouli/src/patchouli_bsp_tx.c" 1
 1519 004a 00BF     		nop
 1520 004c 00BF     	nop
 1521 004e 00BF     	nop
 1522 0050 00BF     	nop
 1523 0052 00BF     	nop
 1524              	@ 0 "" 2
 1525              		.loc 1 324 27 view .LVU518
 1526              		.loc 1 324 27 view .LVU519
 1527              		.loc 1 324 36 view .LVU520
 1528              		.loc 1 324 36 view .LVU521
 1529              		.loc 1 324 36 view .LVU522
 1530              	@ 324 "patchouli/src/patchouli_bsp_tx.c" 1
 1531 0054 00BF     		nop
 1532 0056 00BF     	nop
 1533 0058 00BF     	nop
 1534 005a 00BF     	nop
 1535 005c 00BF     	nop
 1536              	@ 0 "" 2
 1537              		.loc 1 324 36 view .LVU523
 1538              		.loc 1 324 36 view .LVU524
 1539              		.loc 1 324 36 view .LVU525
 1540              	@ 324 "patchouli/src/patchouli_bsp_tx.c" 1
 1541 005e 00BF     		nop
 1542 0060 00BF     	nop
 1543 0062 00BF     	nop
 1544 0064 00BF     	nop
 1545 0066 00BF     	nop
 1546              	@ 0 "" 2
 1547              		.loc 1 324 36 view .LVU526
 1548              		.loc 1 324 36 view .LVU527
 1549              		.loc 1 324 45 view .LVU528
 1550              		.loc 1 324 45 view .LVU529
 1551              		.loc 1 324 45 view .LVU530
 1552              	@ 324 "patchouli/src/patchouli_bsp_tx.c" 1
 1553 0068 00BF     		nop
 1554 006a 00BF     	nop
ARM GAS  C:\Users\Nathan\AppData\Local\Temp\ccnBuMFp.s 			page 34


 1555 006c 00BF     	nop
 1556 006e 00BF     	nop
 1557 0070 00BF     	nop
 1558              	@ 0 "" 2
 1559              		.loc 1 324 45 view .LVU531
 1560              		.loc 1 324 45 view .LVU532
 1561              		.loc 1 324 45 view .LVU533
 1562              	@ 324 "patchouli/src/patchouli_bsp_tx.c" 1
 1563 0072 00BF     		nop
 1564 0074 00BF     	nop
 1565 0076 00BF     	nop
 1566 0078 00BF     	nop
 1567 007a 00BF     	nop
 1568              	@ 0 "" 2
 1569              		.loc 1 324 45 view .LVU534
 1570              		.loc 1 324 45 view .LVU535
 325:patchouli/src/patchouli_bsp_tx.c ****         _5NOP();
 1571              		.loc 1 325 9 view .LVU536
 1572              		.loc 1 325 9 view .LVU537
 1573              	@ 325 "patchouli/src/patchouli_bsp_tx.c" 1
 1574 007c 00BF     		nop
 1575 007e 00BF     	nop
 1576 0080 00BF     	nop
 1577 0082 00BF     	nop
 1578 0084 00BF     	nop
 1579              	@ 0 "" 2
 1580              		.loc 1 325 9 view .LVU538
 326:patchouli/src/patchouli_bsp_tx.c ****         asm volatile ("nop");
 1581              		.loc 1 326 9 view .LVU539
 1582              	@ 326 "patchouli/src/patchouli_bsp_tx.c" 1
 1583 0086 00BF     		nop
 1584              	@ 0 "" 2
 327:patchouli/src/patchouli_bsp_tx.c ****         asm volatile ("nop");
 1585              		.loc 1 327 9 view .LVU540
 1586              	@ 327 "patchouli/src/patchouli_bsp_tx.c" 1
 1587 0088 00BF     		nop
 1588              	@ 0 "" 2
 328:patchouli/src/patchouli_bsp_tx.c ****         asm volatile ("nop");
 1589              		.loc 1 328 9 view .LVU541
 1590              	@ 328 "patchouli/src/patchouli_bsp_tx.c" 1
 1591 008a 00BF     		nop
 1592              	@ 0 "" 2
 329:patchouli/src/patchouli_bsp_tx.c ****         asm volatile ("nop");
 1593              		.loc 1 329 9 view .LVU542
 1594              	@ 329 "patchouli/src/patchouli_bsp_tx.c" 1
 1595 008c 00BF     		nop
 1596              	@ 0 "" 2
 330:patchouli/src/patchouli_bsp_tx.c ****         PATCHOULI_TX_LOW();
 1597              		.loc 1 330 9 view .LVU543
 1598              		.loc 1 330 9 view .LVU544
 1599              		.thumb
 1600              		.syntax unified
 1601 008e 4FF48001 		mov	r1, #4194304
 1602 0092 9161     		str	r1, [r2, #24]
 1603              		.loc 1 330 9 view .LVU545
 331:patchouli/src/patchouli_bsp_tx.c ****         // 48
 332:patchouli/src/patchouli_bsp_tx.c ****         _10NOP();_10NOP();_10NOP();_10NOP();
ARM GAS  C:\Users\Nathan\AppData\Local\Temp\ccnBuMFp.s 			page 35


 1604              		.loc 1 332 9 view .LVU546
 1605              		.loc 1 332 9 view .LVU547
 1606              		.loc 1 332 9 view .LVU548
 1607              		.syntax unified
 1608              	@ 332 "patchouli/src/patchouli_bsp_tx.c" 1
 1609 0094 00BF     		nop
 1610 0096 00BF     	nop
 1611 0098 00BF     	nop
 1612 009a 00BF     	nop
 1613 009c 00BF     	nop
 1614              	@ 0 "" 2
 1615              		.loc 1 332 9 view .LVU549
 1616              		.loc 1 332 9 view .LVU550
 1617              		.loc 1 332 9 view .LVU551
 1618              	@ 332 "patchouli/src/patchouli_bsp_tx.c" 1
 1619 009e 00BF     		nop
 1620 00a0 00BF     	nop
 1621 00a2 00BF     	nop
 1622 00a4 00BF     	nop
 1623 00a6 00BF     	nop
 1624              	@ 0 "" 2
 1625              		.loc 1 332 9 view .LVU552
 1626              		.loc 1 332 9 view .LVU553
 1627              		.loc 1 332 18 view .LVU554
 1628              		.loc 1 332 18 view .LVU555
 1629              		.loc 1 332 18 view .LVU556
 1630              	@ 332 "patchouli/src/patchouli_bsp_tx.c" 1
 1631 00a8 00BF     		nop
 1632 00aa 00BF     	nop
 1633 00ac 00BF     	nop
 1634 00ae 00BF     	nop
 1635 00b0 00BF     	nop
 1636              	@ 0 "" 2
 1637              		.loc 1 332 18 view .LVU557
 1638              		.loc 1 332 18 view .LVU558
 1639              		.loc 1 332 18 view .LVU559
 1640              	@ 332 "patchouli/src/patchouli_bsp_tx.c" 1
 1641 00b2 00BF     		nop
 1642 00b4 00BF     	nop
 1643 00b6 00BF     	nop
 1644 00b8 00BF     	nop
 1645 00ba 00BF     	nop
 1646              	@ 0 "" 2
 1647              		.loc 1 332 18 view .LVU560
 1648              		.loc 1 332 18 view .LVU561
 1649              		.loc 1 332 27 view .LVU562
 1650              		.loc 1 332 27 view .LVU563
 1651              		.loc 1 332 27 view .LVU564
 1652              	@ 332 "patchouli/src/patchouli_bsp_tx.c" 1
 1653 00bc 00BF     		nop
 1654 00be 00BF     	nop
 1655 00c0 00BF     	nop
 1656 00c2 00BF     	nop
 1657 00c4 00BF     	nop
 1658              	@ 0 "" 2
 1659              		.loc 1 332 27 view .LVU565
 1660              		.loc 1 332 27 view .LVU566
ARM GAS  C:\Users\Nathan\AppData\Local\Temp\ccnBuMFp.s 			page 36


 1661              		.loc 1 332 27 view .LVU567
 1662              	@ 332 "patchouli/src/patchouli_bsp_tx.c" 1
 1663 00c6 00BF     		nop
 1664 00c8 00BF     	nop
 1665 00ca 00BF     	nop
 1666 00cc 00BF     	nop
 1667 00ce 00BF     	nop
 1668              	@ 0 "" 2
 1669              		.loc 1 332 27 view .LVU568
 1670              		.loc 1 332 27 view .LVU569
 1671              		.loc 1 332 36 view .LVU570
 1672              		.loc 1 332 36 view .LVU571
 1673              		.loc 1 332 36 view .LVU572
 1674              	@ 332 "patchouli/src/patchouli_bsp_tx.c" 1
 1675 00d0 00BF     		nop
 1676 00d2 00BF     	nop
 1677 00d4 00BF     	nop
 1678 00d6 00BF     	nop
 1679 00d8 00BF     	nop
 1680              	@ 0 "" 2
 1681              		.loc 1 332 36 view .LVU573
 1682              		.loc 1 332 36 view .LVU574
 1683              		.loc 1 332 36 view .LVU575
 1684              	@ 332 "patchouli/src/patchouli_bsp_tx.c" 1
 1685 00da 00BF     		nop
 1686 00dc 00BF     	nop
 1687 00de 00BF     	nop
 1688 00e0 00BF     	nop
 1689 00e2 00BF     	nop
 1690              	@ 0 "" 2
 1691              		.loc 1 332 36 view .LVU576
 1692              		.loc 1 332 36 view .LVU577
 333:patchouli/src/patchouli_bsp_tx.c ****         _5NOP();
 1693              		.loc 1 333 9 view .LVU578
 1694              		.loc 1 333 9 view .LVU579
 1695              	@ 333 "patchouli/src/patchouli_bsp_tx.c" 1
 1696 00e4 00BF     		nop
 1697 00e6 00BF     	nop
 1698 00e8 00BF     	nop
 1699 00ea 00BF     	nop
 1700 00ec 00BF     	nop
 1701              	@ 0 "" 2
 1702              		.loc 1 333 9 view .LVU580
 334:patchouli/src/patchouli_bsp_tx.c ****         asm volatile ("nop");
 1703              		.loc 1 334 9 view .LVU581
 1704              	@ 334 "patchouli/src/patchouli_bsp_tx.c" 1
 1705 00ee 00BF     		nop
 1706              	@ 0 "" 2
 335:patchouli/src/patchouli_bsp_tx.c ****         asm volatile ("nop");
 1707              		.loc 1 335 9 view .LVU582
 1708              	@ 335 "patchouli/src/patchouli_bsp_tx.c" 1
 1709 00f0 00BF     		nop
 1710              	@ 0 "" 2
 336:patchouli/src/patchouli_bsp_tx.c ****         asm volatile ("nop");
 1711              		.loc 1 336 9 view .LVU583
 1712              	@ 336 "patchouli/src/patchouli_bsp_tx.c" 1
 1713 00f2 00BF     		nop
ARM GAS  C:\Users\Nathan\AppData\Local\Temp\ccnBuMFp.s 			page 37


 1714              	@ 0 "" 2
 321:patchouli/src/patchouli_bsp_tx.c ****         PATCHOULI_TX_HIGH();
 1715              		.loc 1 321 26 discriminator 3 view .LVU584
 1716              		.thumb
 1717              		.syntax unified
 1718 00f4 0133     		adds	r3, r3, #1
 1719              	.LVL22:
 321:patchouli/src/patchouli_bsp_tx.c ****         PATCHOULI_TX_HIGH();
 1720              		.loc 1 321 26 is_stmt 0 discriminator 3 view .LVU585
 1721 00f6 9BB2     		uxth	r3, r3
 1722              	.LVL23:
 1723              	.L22:
 321:patchouli/src/patchouli_bsp_tx.c ****         PATCHOULI_TX_HIGH();
 1724              		.loc 1 321 16 is_stmt 1 discriminator 1 view .LVU586
 1725 00f8 9842     		cmp	r0, r3
 1726 00fa 8AD8     		bhi	.L23
 337:patchouli/src/patchouli_bsp_tx.c ****     }
 338:patchouli/src/patchouli_bsp_tx.c ****     PATCHOULI_TX_TRISTATE();
 1727              		.loc 1 338 5 view .LVU587
 1728              		.loc 1 338 5 view .LVU588
 1729 00fc 024A     		ldr	r2, .L24
 1730 00fe 1368     		ldr	r3, [r2]
 1731              	.LVL24:
 1732              		.loc 1 338 5 is_stmt 0 view .LVU589
 1733 0100 23F44053 		bic	r3, r3, #12288
 1734 0104 1360     		str	r3, [r2]
 1735              		.loc 1 338 5 is_stmt 1 view .LVU590
 339:patchouli/src/patchouli_bsp_tx.c **** }
 1736              		.loc 1 339 1 is_stmt 0 view .LVU591
 1737 0106 7047     		bx	lr
 1738              	.L25:
 1739              		.align	2
 1740              	.L24:
 1741 0108 00040048 		.word	1207960576
 1742 010c 00000000 		.word	patchouli_pen_pw100
 1743              		.cfi_endproc
 1744              	.LFE1422:
 1746              		.section	.text._PW100_FSTEP_535,"ax",%progbits
 1747              		.align	1
 1748              		.global	_PW100_FSTEP_535
 1749              		.syntax unified
 1750              		.thumb
 1751              		.thumb_func
 1753              	_PW100_FSTEP_535:
 1754              	.LFB1423:
 340:patchouli/src/patchouli_bsp_tx.c **** 
 341:patchouli/src/patchouli_bsp_tx.c **** void _PW100_FSTEP_535(void){
 1755              		.loc 1 341 28 is_stmt 1 view -0
 1756              		.cfi_startproc
 1757              		@ args = 0, pretend = 0, frame = 0
 1758              		@ frame_needed = 0, uses_anonymous_args = 0
 1759              		@ link register save eliminated.
 342:patchouli/src/patchouli_bsp_tx.c ****     // 535.2kHz
 343:patchouli/src/patchouli_bsp_tx.c ****     // need 119 cycles (new) (64MHz / 535.2kHz)
 344:patchouli/src/patchouli_bsp_tx.c ****     // 119 - 13 = 106
 345:patchouli/src/patchouli_bsp_tx.c ****     // 106 / 2 = 53
 346:patchouli/src/patchouli_bsp_tx.c ****     // 53 - 5.5 = 47.5
ARM GAS  C:\Users\Nathan\AppData\Local\Temp\ccnBuMFp.s 			page 38


 347:patchouli/src/patchouli_bsp_tx.c ****     // 53 + 5.5 = 58.5
 348:patchouli/src/patchouli_bsp_tx.c ****     // 47.5 to 58.5
 349:patchouli/src/patchouli_bsp_tx.c ****     PATCHOULI_TX_PP();
 1760              		.loc 1 349 5 view .LVU593
 1761              		.loc 1 349 5 view .LVU594
 1762 0000 414A     		ldr	r2, .L29
 1763 0002 1368     		ldr	r3, [r2]
 1764 0004 43F48053 		orr	r3, r3, #4096
 1765 0008 1360     		str	r3, [r2]
 1766              		.loc 1 349 5 view .LVU595
 350:patchouli/src/patchouli_bsp_tx.c ****     const int ncycle = patchouli_pen_pw100.tx_ncycle;
 1767              		.loc 1 350 5 view .LVU596
 1768              		.loc 1 350 43 is_stmt 0 view .LVU597
 1769 000a 404B     		ldr	r3, .L29+4
 1770 000c 1889     		ldrh	r0, [r3, #8]
 1771              	.LVL25:
 351:patchouli/src/patchouli_bsp_tx.c ****     uint16_t  i;
 1772              		.loc 1 351 5 is_stmt 1 view .LVU598
 352:patchouli/src/patchouli_bsp_tx.c ****     for (i=0; i<ncycle; i++){ // 3 cycles
 1773              		.loc 1 352 5 view .LVU599
 1774              		.loc 1 352 11 is_stmt 0 view .LVU600
 1775 000e 0023     		movs	r3, #0
 1776              		.loc 1 352 5 view .LVU601
 1777 0010 71E0     		b	.L27
 1778              	.LVL26:
 1779              	.L28:
 353:patchouli/src/patchouli_bsp_tx.c ****         PATCHOULI_TX_HIGH();
 1780              		.loc 1 353 9 is_stmt 1 view .LVU602
 1781              		.loc 1 353 9 view .LVU603
 1782 0012 3D4A     		ldr	r2, .L29
 1783 0014 4021     		movs	r1, #64
 1784 0016 9161     		str	r1, [r2, #24]
 1785              		.loc 1 353 9 view .LVU604
 354:patchouli/src/patchouli_bsp_tx.c ****         // 58
 355:patchouli/src/patchouli_bsp_tx.c ****         _10NOP();_10NOP();_10NOP();_10NOP();_10NOP();
 1786              		.loc 1 355 9 view .LVU605
 1787              		.loc 1 355 9 view .LVU606
 1788              		.loc 1 355 9 view .LVU607
 1789              		.syntax unified
 1790              	@ 355 "patchouli/src/patchouli_bsp_tx.c" 1
 1791 0018 00BF     		nop
 1792 001a 00BF     	nop
 1793 001c 00BF     	nop
 1794 001e 00BF     	nop
 1795 0020 00BF     	nop
 1796              	@ 0 "" 2
 1797              		.loc 1 355 9 view .LVU608
 1798              		.loc 1 355 9 view .LVU609
 1799              		.loc 1 355 9 view .LVU610
 1800              	@ 355 "patchouli/src/patchouli_bsp_tx.c" 1
 1801 0022 00BF     		nop
 1802 0024 00BF     	nop
 1803 0026 00BF     	nop
 1804 0028 00BF     	nop
 1805 002a 00BF     	nop
 1806              	@ 0 "" 2
 1807              		.loc 1 355 9 view .LVU611
ARM GAS  C:\Users\Nathan\AppData\Local\Temp\ccnBuMFp.s 			page 39


 1808              		.loc 1 355 9 view .LVU612
 1809              		.loc 1 355 18 view .LVU613
 1810              		.loc 1 355 18 view .LVU614
 1811              		.loc 1 355 18 view .LVU615
 1812              	@ 355 "patchouli/src/patchouli_bsp_tx.c" 1
 1813 002c 00BF     		nop
 1814 002e 00BF     	nop
 1815 0030 00BF     	nop
 1816 0032 00BF     	nop
 1817 0034 00BF     	nop
 1818              	@ 0 "" 2
 1819              		.loc 1 355 18 view .LVU616
 1820              		.loc 1 355 18 view .LVU617
 1821              		.loc 1 355 18 view .LVU618
 1822              	@ 355 "patchouli/src/patchouli_bsp_tx.c" 1
 1823 0036 00BF     		nop
 1824 0038 00BF     	nop
 1825 003a 00BF     	nop
 1826 003c 00BF     	nop
 1827 003e 00BF     	nop
 1828              	@ 0 "" 2
 1829              		.loc 1 355 18 view .LVU619
 1830              		.loc 1 355 18 view .LVU620
 1831              		.loc 1 355 27 view .LVU621
 1832              		.loc 1 355 27 view .LVU622
 1833              		.loc 1 355 27 view .LVU623
 1834              	@ 355 "patchouli/src/patchouli_bsp_tx.c" 1
 1835 0040 00BF     		nop
 1836 0042 00BF     	nop
 1837 0044 00BF     	nop
 1838 0046 00BF     	nop
 1839 0048 00BF     	nop
 1840              	@ 0 "" 2
 1841              		.loc 1 355 27 view .LVU624
 1842              		.loc 1 355 27 view .LVU625
 1843              		.loc 1 355 27 view .LVU626
 1844              	@ 355 "patchouli/src/patchouli_bsp_tx.c" 1
 1845 004a 00BF     		nop
 1846 004c 00BF     	nop
 1847 004e 00BF     	nop
 1848 0050 00BF     	nop
 1849 0052 00BF     	nop
 1850              	@ 0 "" 2
 1851              		.loc 1 355 27 view .LVU627
 1852              		.loc 1 355 27 view .LVU628
 1853              		.loc 1 355 36 view .LVU629
 1854              		.loc 1 355 36 view .LVU630
 1855              		.loc 1 355 36 view .LVU631
 1856              	@ 355 "patchouli/src/patchouli_bsp_tx.c" 1
 1857 0054 00BF     		nop
 1858 0056 00BF     	nop
 1859 0058 00BF     	nop
 1860 005a 00BF     	nop
 1861 005c 00BF     	nop
 1862              	@ 0 "" 2
 1863              		.loc 1 355 36 view .LVU632
 1864              		.loc 1 355 36 view .LVU633
ARM GAS  C:\Users\Nathan\AppData\Local\Temp\ccnBuMFp.s 			page 40


 1865              		.loc 1 355 36 view .LVU634
 1866              	@ 355 "patchouli/src/patchouli_bsp_tx.c" 1
 1867 005e 00BF     		nop
 1868 0060 00BF     	nop
 1869 0062 00BF     	nop
 1870 0064 00BF     	nop
 1871 0066 00BF     	nop
 1872              	@ 0 "" 2
 1873              		.loc 1 355 36 view .LVU635
 1874              		.loc 1 355 36 view .LVU636
 1875              		.loc 1 355 45 view .LVU637
 1876              		.loc 1 355 45 view .LVU638
 1877              		.loc 1 355 45 view .LVU639
 1878              	@ 355 "patchouli/src/patchouli_bsp_tx.c" 1
 1879 0068 00BF     		nop
 1880 006a 00BF     	nop
 1881 006c 00BF     	nop
 1882 006e 00BF     	nop
 1883 0070 00BF     	nop
 1884              	@ 0 "" 2
 1885              		.loc 1 355 45 view .LVU640
 1886              		.loc 1 355 45 view .LVU641
 1887              		.loc 1 355 45 view .LVU642
 1888              	@ 355 "patchouli/src/patchouli_bsp_tx.c" 1
 1889 0072 00BF     		nop
 1890 0074 00BF     	nop
 1891 0076 00BF     	nop
 1892 0078 00BF     	nop
 1893 007a 00BF     	nop
 1894              	@ 0 "" 2
 1895              		.loc 1 355 45 view .LVU643
 1896              		.loc 1 355 45 view .LVU644
 356:patchouli/src/patchouli_bsp_tx.c ****         _5NOP();
 1897              		.loc 1 356 9 view .LVU645
 1898              		.loc 1 356 9 view .LVU646
 1899              	@ 356 "patchouli/src/patchouli_bsp_tx.c" 1
 1900 007c 00BF     		nop
 1901 007e 00BF     	nop
 1902 0080 00BF     	nop
 1903 0082 00BF     	nop
 1904 0084 00BF     	nop
 1905              	@ 0 "" 2
 1906              		.loc 1 356 9 view .LVU647
 357:patchouli/src/patchouli_bsp_tx.c ****         asm volatile ("nop");
 1907              		.loc 1 357 9 view .LVU648
 1908              	@ 357 "patchouli/src/patchouli_bsp_tx.c" 1
 1909 0086 00BF     		nop
 1910              	@ 0 "" 2
 358:patchouli/src/patchouli_bsp_tx.c ****         asm volatile ("nop");
 1911              		.loc 1 358 9 view .LVU649
 1912              	@ 358 "patchouli/src/patchouli_bsp_tx.c" 1
 1913 0088 00BF     		nop
 1914              	@ 0 "" 2
 359:patchouli/src/patchouli_bsp_tx.c ****         asm volatile ("nop");
 1915              		.loc 1 359 9 view .LVU650
 1916              	@ 359 "patchouli/src/patchouli_bsp_tx.c" 1
 1917 008a 00BF     		nop
ARM GAS  C:\Users\Nathan\AppData\Local\Temp\ccnBuMFp.s 			page 41


 1918              	@ 0 "" 2
 360:patchouli/src/patchouli_bsp_tx.c ****         PATCHOULI_TX_LOW();
 1919              		.loc 1 360 9 view .LVU651
 1920              		.loc 1 360 9 view .LVU652
 1921              		.thumb
 1922              		.syntax unified
 1923 008c 4FF48001 		mov	r1, #4194304
 1924 0090 9161     		str	r1, [r2, #24]
 1925              		.loc 1 360 9 view .LVU653
 361:patchouli/src/patchouli_bsp_tx.c ****         // 48
 362:patchouli/src/patchouli_bsp_tx.c ****         _10NOP();_10NOP();_10NOP();_10NOP();
 1926              		.loc 1 362 9 view .LVU654
 1927              		.loc 1 362 9 view .LVU655
 1928              		.loc 1 362 9 view .LVU656
 1929              		.syntax unified
 1930              	@ 362 "patchouli/src/patchouli_bsp_tx.c" 1
 1931 0092 00BF     		nop
 1932 0094 00BF     	nop
 1933 0096 00BF     	nop
 1934 0098 00BF     	nop
 1935 009a 00BF     	nop
 1936              	@ 0 "" 2
 1937              		.loc 1 362 9 view .LVU657
 1938              		.loc 1 362 9 view .LVU658
 1939              		.loc 1 362 9 view .LVU659
 1940              	@ 362 "patchouli/src/patchouli_bsp_tx.c" 1
 1941 009c 00BF     		nop
 1942 009e 00BF     	nop
 1943 00a0 00BF     	nop
 1944 00a2 00BF     	nop
 1945 00a4 00BF     	nop
 1946              	@ 0 "" 2
 1947              		.loc 1 362 9 view .LVU660
 1948              		.loc 1 362 9 view .LVU661
 1949              		.loc 1 362 18 view .LVU662
 1950              		.loc 1 362 18 view .LVU663
 1951              		.loc 1 362 18 view .LVU664
 1952              	@ 362 "patchouli/src/patchouli_bsp_tx.c" 1
 1953 00a6 00BF     		nop
 1954 00a8 00BF     	nop
 1955 00aa 00BF     	nop
 1956 00ac 00BF     	nop
 1957 00ae 00BF     	nop
 1958              	@ 0 "" 2
 1959              		.loc 1 362 18 view .LVU665
 1960              		.loc 1 362 18 view .LVU666
 1961              		.loc 1 362 18 view .LVU667
 1962              	@ 362 "patchouli/src/patchouli_bsp_tx.c" 1
 1963 00b0 00BF     		nop
 1964 00b2 00BF     	nop
 1965 00b4 00BF     	nop
 1966 00b6 00BF     	nop
 1967 00b8 00BF     	nop
 1968              	@ 0 "" 2
 1969              		.loc 1 362 18 view .LVU668
 1970              		.loc 1 362 18 view .LVU669
 1971              		.loc 1 362 27 view .LVU670
ARM GAS  C:\Users\Nathan\AppData\Local\Temp\ccnBuMFp.s 			page 42


 1972              		.loc 1 362 27 view .LVU671
 1973              		.loc 1 362 27 view .LVU672
 1974              	@ 362 "patchouli/src/patchouli_bsp_tx.c" 1
 1975 00ba 00BF     		nop
 1976 00bc 00BF     	nop
 1977 00be 00BF     	nop
 1978 00c0 00BF     	nop
 1979 00c2 00BF     	nop
 1980              	@ 0 "" 2
 1981              		.loc 1 362 27 view .LVU673
 1982              		.loc 1 362 27 view .LVU674
 1983              		.loc 1 362 27 view .LVU675
 1984              	@ 362 "patchouli/src/patchouli_bsp_tx.c" 1
 1985 00c4 00BF     		nop
 1986 00c6 00BF     	nop
 1987 00c8 00BF     	nop
 1988 00ca 00BF     	nop
 1989 00cc 00BF     	nop
 1990              	@ 0 "" 2
 1991              		.loc 1 362 27 view .LVU676
 1992              		.loc 1 362 27 view .LVU677
 1993              		.loc 1 362 36 view .LVU678
 1994              		.loc 1 362 36 view .LVU679
 1995              		.loc 1 362 36 view .LVU680
 1996              	@ 362 "patchouli/src/patchouli_bsp_tx.c" 1
 1997 00ce 00BF     		nop
 1998 00d0 00BF     	nop
 1999 00d2 00BF     	nop
 2000 00d4 00BF     	nop
 2001 00d6 00BF     	nop
 2002              	@ 0 "" 2
 2003              		.loc 1 362 36 view .LVU681
 2004              		.loc 1 362 36 view .LVU682
 2005              		.loc 1 362 36 view .LVU683
 2006              	@ 362 "patchouli/src/patchouli_bsp_tx.c" 1
 2007 00d8 00BF     		nop
 2008 00da 00BF     	nop
 2009 00dc 00BF     	nop
 2010 00de 00BF     	nop
 2011 00e0 00BF     	nop
 2012              	@ 0 "" 2
 2013              		.loc 1 362 36 view .LVU684
 2014              		.loc 1 362 36 view .LVU685
 363:patchouli/src/patchouli_bsp_tx.c ****         _5NOP();
 2015              		.loc 1 363 9 view .LVU686
 2016              		.loc 1 363 9 view .LVU687
 2017              	@ 363 "patchouli/src/patchouli_bsp_tx.c" 1
 2018 00e2 00BF     		nop
 2019 00e4 00BF     	nop
 2020 00e6 00BF     	nop
 2021 00e8 00BF     	nop
 2022 00ea 00BF     	nop
 2023              	@ 0 "" 2
 2024              		.loc 1 363 9 view .LVU688
 364:patchouli/src/patchouli_bsp_tx.c ****         asm volatile ("nop");
 2025              		.loc 1 364 9 view .LVU689
 2026              	@ 364 "patchouli/src/patchouli_bsp_tx.c" 1
ARM GAS  C:\Users\Nathan\AppData\Local\Temp\ccnBuMFp.s 			page 43


 2027 00ec 00BF     		nop
 2028              	@ 0 "" 2
 365:patchouli/src/patchouli_bsp_tx.c ****         asm volatile ("nop");
 2029              		.loc 1 365 9 view .LVU690
 2030              	@ 365 "patchouli/src/patchouli_bsp_tx.c" 1
 2031 00ee 00BF     		nop
 2032              	@ 0 "" 2
 366:patchouli/src/patchouli_bsp_tx.c ****         asm volatile ("nop");
 2033              		.loc 1 366 9 view .LVU691
 2034              	@ 366 "patchouli/src/patchouli_bsp_tx.c" 1
 2035 00f0 00BF     		nop
 2036              	@ 0 "" 2
 352:patchouli/src/patchouli_bsp_tx.c ****         PATCHOULI_TX_HIGH();
 2037              		.loc 1 352 26 discriminator 3 view .LVU692
 2038              		.thumb
 2039              		.syntax unified
 2040 00f2 0133     		adds	r3, r3, #1
 2041              	.LVL27:
 352:patchouli/src/patchouli_bsp_tx.c ****         PATCHOULI_TX_HIGH();
 2042              		.loc 1 352 26 is_stmt 0 discriminator 3 view .LVU693
 2043 00f4 9BB2     		uxth	r3, r3
 2044              	.LVL28:
 2045              	.L27:
 352:patchouli/src/patchouli_bsp_tx.c ****         PATCHOULI_TX_HIGH();
 2046              		.loc 1 352 16 is_stmt 1 discriminator 1 view .LVU694
 2047 00f6 9842     		cmp	r0, r3
 2048 00f8 8BD8     		bhi	.L28
 367:patchouli/src/patchouli_bsp_tx.c ****     }
 368:patchouli/src/patchouli_bsp_tx.c ****     PATCHOULI_TX_TRISTATE();
 2049              		.loc 1 368 5 view .LVU695
 2050              		.loc 1 368 5 view .LVU696
 2051 00fa 034A     		ldr	r2, .L29
 2052 00fc 1368     		ldr	r3, [r2]
 2053              	.LVL29:
 2054              		.loc 1 368 5 is_stmt 0 view .LVU697
 2055 00fe 23F44053 		bic	r3, r3, #12288
 2056 0102 1360     		str	r3, [r2]
 2057              		.loc 1 368 5 is_stmt 1 view .LVU698
 369:patchouli/src/patchouli_bsp_tx.c **** }
 2058              		.loc 1 369 1 is_stmt 0 view .LVU699
 2059 0104 7047     		bx	lr
 2060              	.L30:
 2061 0106 00BF     		.align	2
 2062              	.L29:
 2063 0108 00040048 		.word	1207960576
 2064 010c 00000000 		.word	patchouli_pen_pw100
 2065              		.cfi_endproc
 2066              	.LFE1423:
 2068              		.section	.text._PW100_FSTEP_540,"ax",%progbits
 2069              		.align	1
 2070              		.global	_PW100_FSTEP_540
 2071              		.syntax unified
 2072              		.thumb
 2073              		.thumb_func
 2075              	_PW100_FSTEP_540:
 2076              	.LFB1424:
 370:patchouli/src/patchouli_bsp_tx.c **** 
ARM GAS  C:\Users\Nathan\AppData\Local\Temp\ccnBuMFp.s 			page 44


 371:patchouli/src/patchouli_bsp_tx.c **** void _PW100_FSTEP_540(void){
 2077              		.loc 1 371 28 is_stmt 1 view -0
 2078              		.cfi_startproc
 2079              		@ args = 0, pretend = 0, frame = 0
 2080              		@ frame_needed = 0, uses_anonymous_args = 0
 2081              		@ link register save eliminated.
 372:patchouli/src/patchouli_bsp_tx.c ****     // 540kHz, 266.7 cycles (old)
 373:patchouli/src/patchouli_bsp_tx.c ****     // need 118 cycles (new) (64MHz / 540kHz)
 374:patchouli/src/patchouli_bsp_tx.c ****     // 118 - 13 = 105
 375:patchouli/src/patchouli_bsp_tx.c ****     // 105 / 2 = 52.5
 376:patchouli/src/patchouli_bsp_tx.c ****     // 52.5 - 5.5 = 47
 377:patchouli/src/patchouli_bsp_tx.c ****     // 52.5 + 5.5 = 58
 378:patchouli/src/patchouli_bsp_tx.c ****     // 47 to 58
 379:patchouli/src/patchouli_bsp_tx.c ****     PATCHOULI_TX_PP();
 2082              		.loc 1 379 5 view .LVU701
 2083              		.loc 1 379 5 view .LVU702
 2084 0000 404A     		ldr	r2, .L34
 2085 0002 1368     		ldr	r3, [r2]
 2086 0004 43F48053 		orr	r3, r3, #4096
 2087 0008 1360     		str	r3, [r2]
 2088              		.loc 1 379 5 view .LVU703
 380:patchouli/src/patchouli_bsp_tx.c ****     const int ncycle = patchouli_pen_pw100.tx_ncycle;
 2089              		.loc 1 380 5 view .LVU704
 2090              		.loc 1 380 43 is_stmt 0 view .LVU705
 2091 000a 3F4B     		ldr	r3, .L34+4
 2092 000c 1889     		ldrh	r0, [r3, #8]
 2093              	.LVL30:
 381:patchouli/src/patchouli_bsp_tx.c ****     uint16_t  i;
 2094              		.loc 1 381 5 is_stmt 1 view .LVU706
 382:patchouli/src/patchouli_bsp_tx.c ****     for (i=0; i<ncycle; i++){ // 3 cycles
 2095              		.loc 1 382 5 view .LVU707
 2096              		.loc 1 382 11 is_stmt 0 view .LVU708
 2097 000e 0023     		movs	r3, #0
 2098              		.loc 1 382 5 view .LVU709
 2099 0010 70E0     		b	.L32
 2100              	.LVL31:
 2101              	.L33:
 383:patchouli/src/patchouli_bsp_tx.c ****         PATCHOULI_TX_HIGH();
 2102              		.loc 1 383 9 is_stmt 1 view .LVU710
 2103              		.loc 1 383 9 view .LVU711
 2104 0012 3C4A     		ldr	r2, .L34
 2105 0014 4021     		movs	r1, #64
 2106 0016 9161     		str	r1, [r2, #24]
 2107              		.loc 1 383 9 view .LVU712
 384:patchouli/src/patchouli_bsp_tx.c ****             // 58
 385:patchouli/src/patchouli_bsp_tx.c ****         _10NOP();_10NOP();_10NOP();_10NOP();_10NOP();
 2108              		.loc 1 385 9 view .LVU713
 2109              		.loc 1 385 9 view .LVU714
 2110              		.loc 1 385 9 view .LVU715
 2111              		.syntax unified
 2112              	@ 385 "patchouli/src/patchouli_bsp_tx.c" 1
 2113 0018 00BF     		nop
 2114 001a 00BF     	nop
 2115 001c 00BF     	nop
 2116 001e 00BF     	nop
 2117 0020 00BF     	nop
 2118              	@ 0 "" 2
ARM GAS  C:\Users\Nathan\AppData\Local\Temp\ccnBuMFp.s 			page 45


 2119              		.loc 1 385 9 view .LVU716
 2120              		.loc 1 385 9 view .LVU717
 2121              		.loc 1 385 9 view .LVU718
 2122              	@ 385 "patchouli/src/patchouli_bsp_tx.c" 1
 2123 0022 00BF     		nop
 2124 0024 00BF     	nop
 2125 0026 00BF     	nop
 2126 0028 00BF     	nop
 2127 002a 00BF     	nop
 2128              	@ 0 "" 2
 2129              		.loc 1 385 9 view .LVU719
 2130              		.loc 1 385 9 view .LVU720
 2131              		.loc 1 385 18 view .LVU721
 2132              		.loc 1 385 18 view .LVU722
 2133              		.loc 1 385 18 view .LVU723
 2134              	@ 385 "patchouli/src/patchouli_bsp_tx.c" 1
 2135 002c 00BF     		nop
 2136 002e 00BF     	nop
 2137 0030 00BF     	nop
 2138 0032 00BF     	nop
 2139 0034 00BF     	nop
 2140              	@ 0 "" 2
 2141              		.loc 1 385 18 view .LVU724
 2142              		.loc 1 385 18 view .LVU725
 2143              		.loc 1 385 18 view .LVU726
 2144              	@ 385 "patchouli/src/patchouli_bsp_tx.c" 1
 2145 0036 00BF     		nop
 2146 0038 00BF     	nop
 2147 003a 00BF     	nop
 2148 003c 00BF     	nop
 2149 003e 00BF     	nop
 2150              	@ 0 "" 2
 2151              		.loc 1 385 18 view .LVU727
 2152              		.loc 1 385 18 view .LVU728
 2153              		.loc 1 385 27 view .LVU729
 2154              		.loc 1 385 27 view .LVU730
 2155              		.loc 1 385 27 view .LVU731
 2156              	@ 385 "patchouli/src/patchouli_bsp_tx.c" 1
 2157 0040 00BF     		nop
 2158 0042 00BF     	nop
 2159 0044 00BF     	nop
 2160 0046 00BF     	nop
 2161 0048 00BF     	nop
 2162              	@ 0 "" 2
 2163              		.loc 1 385 27 view .LVU732
 2164              		.loc 1 385 27 view .LVU733
 2165              		.loc 1 385 27 view .LVU734
 2166              	@ 385 "patchouli/src/patchouli_bsp_tx.c" 1
 2167 004a 00BF     		nop
 2168 004c 00BF     	nop
 2169 004e 00BF     	nop
 2170 0050 00BF     	nop
 2171 0052 00BF     	nop
 2172              	@ 0 "" 2
 2173              		.loc 1 385 27 view .LVU735
 2174              		.loc 1 385 27 view .LVU736
 2175              		.loc 1 385 36 view .LVU737
ARM GAS  C:\Users\Nathan\AppData\Local\Temp\ccnBuMFp.s 			page 46


 2176              		.loc 1 385 36 view .LVU738
 2177              		.loc 1 385 36 view .LVU739
 2178              	@ 385 "patchouli/src/patchouli_bsp_tx.c" 1
 2179 0054 00BF     		nop
 2180 0056 00BF     	nop
 2181 0058 00BF     	nop
 2182 005a 00BF     	nop
 2183 005c 00BF     	nop
 2184              	@ 0 "" 2
 2185              		.loc 1 385 36 view .LVU740
 2186              		.loc 1 385 36 view .LVU741
 2187              		.loc 1 385 36 view .LVU742
 2188              	@ 385 "patchouli/src/patchouli_bsp_tx.c" 1
 2189 005e 00BF     		nop
 2190 0060 00BF     	nop
 2191 0062 00BF     	nop
 2192 0064 00BF     	nop
 2193 0066 00BF     	nop
 2194              	@ 0 "" 2
 2195              		.loc 1 385 36 view .LVU743
 2196              		.loc 1 385 36 view .LVU744
 2197              		.loc 1 385 45 view .LVU745
 2198              		.loc 1 385 45 view .LVU746
 2199              		.loc 1 385 45 view .LVU747
 2200              	@ 385 "patchouli/src/patchouli_bsp_tx.c" 1
 2201 0068 00BF     		nop
 2202 006a 00BF     	nop
 2203 006c 00BF     	nop
 2204 006e 00BF     	nop
 2205 0070 00BF     	nop
 2206              	@ 0 "" 2
 2207              		.loc 1 385 45 view .LVU748
 2208              		.loc 1 385 45 view .LVU749
 2209              		.loc 1 385 45 view .LVU750
 2210              	@ 385 "patchouli/src/patchouli_bsp_tx.c" 1
 2211 0072 00BF     		nop
 2212 0074 00BF     	nop
 2213 0076 00BF     	nop
 2214 0078 00BF     	nop
 2215 007a 00BF     	nop
 2216              	@ 0 "" 2
 2217              		.loc 1 385 45 view .LVU751
 2218              		.loc 1 385 45 view .LVU752
 386:patchouli/src/patchouli_bsp_tx.c ****         _5NOP();
 2219              		.loc 1 386 9 view .LVU753
 2220              		.loc 1 386 9 view .LVU754
 2221              	@ 386 "patchouli/src/patchouli_bsp_tx.c" 1
 2222 007c 00BF     		nop
 2223 007e 00BF     	nop
 2224 0080 00BF     	nop
 2225 0082 00BF     	nop
 2226 0084 00BF     	nop
 2227              	@ 0 "" 2
 2228              		.loc 1 386 9 view .LVU755
 387:patchouli/src/patchouli_bsp_tx.c ****         asm volatile ("nop");
 2229              		.loc 1 387 9 view .LVU756
 2230              	@ 387 "patchouli/src/patchouli_bsp_tx.c" 1
ARM GAS  C:\Users\Nathan\AppData\Local\Temp\ccnBuMFp.s 			page 47


 2231 0086 00BF     		nop
 2232              	@ 0 "" 2
 388:patchouli/src/patchouli_bsp_tx.c ****         asm volatile ("nop");
 2233              		.loc 1 388 9 view .LVU757
 2234              	@ 388 "patchouli/src/patchouli_bsp_tx.c" 1
 2235 0088 00BF     		nop
 2236              	@ 0 "" 2
 389:patchouli/src/patchouli_bsp_tx.c ****         asm volatile ("nop");
 2237              		.loc 1 389 9 view .LVU758
 2238              	@ 389 "patchouli/src/patchouli_bsp_tx.c" 1
 2239 008a 00BF     		nop
 2240              	@ 0 "" 2
 390:patchouli/src/patchouli_bsp_tx.c ****         PATCHOULI_TX_LOW();
 2241              		.loc 1 390 9 view .LVU759
 2242              		.loc 1 390 9 view .LVU760
 2243              		.thumb
 2244              		.syntax unified
 2245 008c 4FF48001 		mov	r1, #4194304
 2246 0090 9161     		str	r1, [r2, #24]
 2247              		.loc 1 390 9 view .LVU761
 391:patchouli/src/patchouli_bsp_tx.c ****         // 47
 392:patchouli/src/patchouli_bsp_tx.c ****         _10NOP();_10NOP();_10NOP();_10NOP();
 2248              		.loc 1 392 9 view .LVU762
 2249              		.loc 1 392 9 view .LVU763
 2250              		.loc 1 392 9 view .LVU764
 2251              		.syntax unified
 2252              	@ 392 "patchouli/src/patchouli_bsp_tx.c" 1
 2253 0092 00BF     		nop
 2254 0094 00BF     	nop
 2255 0096 00BF     	nop
 2256 0098 00BF     	nop
 2257 009a 00BF     	nop
 2258              	@ 0 "" 2
 2259              		.loc 1 392 9 view .LVU765
 2260              		.loc 1 392 9 view .LVU766
 2261              		.loc 1 392 9 view .LVU767
 2262              	@ 392 "patchouli/src/patchouli_bsp_tx.c" 1
 2263 009c 00BF     		nop
 2264 009e 00BF     	nop
 2265 00a0 00BF     	nop
 2266 00a2 00BF     	nop
 2267 00a4 00BF     	nop
 2268              	@ 0 "" 2
 2269              		.loc 1 392 9 view .LVU768
 2270              		.loc 1 392 9 view .LVU769
 2271              		.loc 1 392 18 view .LVU770
 2272              		.loc 1 392 18 view .LVU771
 2273              		.loc 1 392 18 view .LVU772
 2274              	@ 392 "patchouli/src/patchouli_bsp_tx.c" 1
 2275 00a6 00BF     		nop
 2276 00a8 00BF     	nop
 2277 00aa 00BF     	nop
 2278 00ac 00BF     	nop
 2279 00ae 00BF     	nop
 2280              	@ 0 "" 2
 2281              		.loc 1 392 18 view .LVU773
 2282              		.loc 1 392 18 view .LVU774
ARM GAS  C:\Users\Nathan\AppData\Local\Temp\ccnBuMFp.s 			page 48


 2283              		.loc 1 392 18 view .LVU775
 2284              	@ 392 "patchouli/src/patchouli_bsp_tx.c" 1
 2285 00b0 00BF     		nop
 2286 00b2 00BF     	nop
 2287 00b4 00BF     	nop
 2288 00b6 00BF     	nop
 2289 00b8 00BF     	nop
 2290              	@ 0 "" 2
 2291              		.loc 1 392 18 view .LVU776
 2292              		.loc 1 392 18 view .LVU777
 2293              		.loc 1 392 27 view .LVU778
 2294              		.loc 1 392 27 view .LVU779
 2295              		.loc 1 392 27 view .LVU780
 2296              	@ 392 "patchouli/src/patchouli_bsp_tx.c" 1
 2297 00ba 00BF     		nop
 2298 00bc 00BF     	nop
 2299 00be 00BF     	nop
 2300 00c0 00BF     	nop
 2301 00c2 00BF     	nop
 2302              	@ 0 "" 2
 2303              		.loc 1 392 27 view .LVU781
 2304              		.loc 1 392 27 view .LVU782
 2305              		.loc 1 392 27 view .LVU783
 2306              	@ 392 "patchouli/src/patchouli_bsp_tx.c" 1
 2307 00c4 00BF     		nop
 2308 00c6 00BF     	nop
 2309 00c8 00BF     	nop
 2310 00ca 00BF     	nop
 2311 00cc 00BF     	nop
 2312              	@ 0 "" 2
 2313              		.loc 1 392 27 view .LVU784
 2314              		.loc 1 392 27 view .LVU785
 2315              		.loc 1 392 36 view .LVU786
 2316              		.loc 1 392 36 view .LVU787
 2317              		.loc 1 392 36 view .LVU788
 2318              	@ 392 "patchouli/src/patchouli_bsp_tx.c" 1
 2319 00ce 00BF     		nop
 2320 00d0 00BF     	nop
 2321 00d2 00BF     	nop
 2322 00d4 00BF     	nop
 2323 00d6 00BF     	nop
 2324              	@ 0 "" 2
 2325              		.loc 1 392 36 view .LVU789
 2326              		.loc 1 392 36 view .LVU790
 2327              		.loc 1 392 36 view .LVU791
 2328              	@ 392 "patchouli/src/patchouli_bsp_tx.c" 1
 2329 00d8 00BF     		nop
 2330 00da 00BF     	nop
 2331 00dc 00BF     	nop
 2332 00de 00BF     	nop
 2333 00e0 00BF     	nop
 2334              	@ 0 "" 2
 2335              		.loc 1 392 36 view .LVU792
 2336              		.loc 1 392 36 view .LVU793
 393:patchouli/src/patchouli_bsp_tx.c ****         _5NOP();
 2337              		.loc 1 393 9 view .LVU794
 2338              		.loc 1 393 9 view .LVU795
ARM GAS  C:\Users\Nathan\AppData\Local\Temp\ccnBuMFp.s 			page 49


 2339              	@ 393 "patchouli/src/patchouli_bsp_tx.c" 1
 2340 00e2 00BF     		nop
 2341 00e4 00BF     	nop
 2342 00e6 00BF     	nop
 2343 00e8 00BF     	nop
 2344 00ea 00BF     	nop
 2345              	@ 0 "" 2
 2346              		.loc 1 393 9 view .LVU796
 394:patchouli/src/patchouli_bsp_tx.c ****         asm volatile ("nop");
 2347              		.loc 1 394 9 view .LVU797
 2348              	@ 394 "patchouli/src/patchouli_bsp_tx.c" 1
 2349 00ec 00BF     		nop
 2350              	@ 0 "" 2
 395:patchouli/src/patchouli_bsp_tx.c ****         asm volatile ("nop");
 2351              		.loc 1 395 9 view .LVU798
 2352              	@ 395 "patchouli/src/patchouli_bsp_tx.c" 1
 2353 00ee 00BF     		nop
 2354              	@ 0 "" 2
 382:patchouli/src/patchouli_bsp_tx.c ****         PATCHOULI_TX_HIGH();
 2355              		.loc 1 382 26 discriminator 3 view .LVU799
 2356              		.thumb
 2357              		.syntax unified
 2358 00f0 0133     		adds	r3, r3, #1
 2359              	.LVL32:
 382:patchouli/src/patchouli_bsp_tx.c ****         PATCHOULI_TX_HIGH();
 2360              		.loc 1 382 26 is_stmt 0 discriminator 3 view .LVU800
 2361 00f2 9BB2     		uxth	r3, r3
 2362              	.LVL33:
 2363              	.L32:
 382:patchouli/src/patchouli_bsp_tx.c ****         PATCHOULI_TX_HIGH();
 2364              		.loc 1 382 16 is_stmt 1 discriminator 1 view .LVU801
 2365 00f4 9842     		cmp	r0, r3
 2366 00f6 8CD8     		bhi	.L33
 396:patchouli/src/patchouli_bsp_tx.c ****     }
 397:patchouli/src/patchouli_bsp_tx.c ****     PATCHOULI_TX_TRISTATE();
 2367              		.loc 1 397 5 view .LVU802
 2368              		.loc 1 397 5 view .LVU803
 2369 00f8 024A     		ldr	r2, .L34
 2370 00fa 1368     		ldr	r3, [r2]
 2371              	.LVL34:
 2372              		.loc 1 397 5 is_stmt 0 view .LVU804
 2373 00fc 23F44053 		bic	r3, r3, #12288
 2374 0100 1360     		str	r3, [r2]
 2375              		.loc 1 397 5 is_stmt 1 view .LVU805
 398:patchouli/src/patchouli_bsp_tx.c **** }
 2376              		.loc 1 398 1 is_stmt 0 view .LVU806
 2377 0102 7047     		bx	lr
 2378              	.L35:
 2379              		.align	2
 2380              	.L34:
 2381 0104 00040048 		.word	1207960576
 2382 0108 00000000 		.word	patchouli_pen_pw100
 2383              		.cfi_endproc
 2384              	.LFE1424:
 2386              		.section	.text._PW100_FSTEP_550,"ax",%progbits
 2387              		.align	1
 2388              		.global	_PW100_FSTEP_550
ARM GAS  C:\Users\Nathan\AppData\Local\Temp\ccnBuMFp.s 			page 50


 2389              		.syntax unified
 2390              		.thumb
 2391              		.thumb_func
 2393              	_PW100_FSTEP_550:
 2394              	.LFB1426:
 399:patchouli/src/patchouli_bsp_tx.c **** 
 400:patchouli/src/patchouli_bsp_tx.c **** void _PW100_FSTEP_545(void){
 401:patchouli/src/patchouli_bsp_tx.c ****     // 545.3kHz
 402:patchouli/src/patchouli_bsp_tx.c ****     // need 117 cycles (new) (64MHz / 545.3kHz)
 403:patchouli/src/patchouli_bsp_tx.c ****     // 117 - 13 = 104
 404:patchouli/src/patchouli_bsp_tx.c ****     // 104 / 2 = 52
 405:patchouli/src/patchouli_bsp_tx.c ****     // 52 - 5.5 = 46.5
 406:patchouli/src/patchouli_bsp_tx.c ****     // 52 + 5.5 = 57.5
 407:patchouli/src/patchouli_bsp_tx.c ****     // 46.5 to 57.5
 408:patchouli/src/patchouli_bsp_tx.c ****     PATCHOULI_TX_PP();
 409:patchouli/src/patchouli_bsp_tx.c ****     const int ncycle = patchouli_pen_pw100.tx_ncycle;
 410:patchouli/src/patchouli_bsp_tx.c ****     uint16_t  i;
 411:patchouli/src/patchouli_bsp_tx.c ****     for (i=0; i<ncycle; i++){ // 3 cycles
 412:patchouli/src/patchouli_bsp_tx.c ****         PATCHOULI_TX_HIGH();
 413:patchouli/src/patchouli_bsp_tx.c ****         // 57
 414:patchouli/src/patchouli_bsp_tx.c ****         _10NOP();_10NOP();_10NOP();_10NOP();_10NOP();
 415:patchouli/src/patchouli_bsp_tx.c ****         _5NOP();
 416:patchouli/src/patchouli_bsp_tx.c ****         asm volatile ("nop");
 417:patchouli/src/patchouli_bsp_tx.c ****         asm volatile ("nop");
 418:patchouli/src/patchouli_bsp_tx.c ****         PATCHOULI_TX_LOW();
 419:patchouli/src/patchouli_bsp_tx.c ****         // 47
 420:patchouli/src/patchouli_bsp_tx.c ****         _10NOP();_10NOP();_10NOP();_10NOP();
 421:patchouli/src/patchouli_bsp_tx.c ****         _5NOP();
 422:patchouli/src/patchouli_bsp_tx.c ****         asm volatile ("nop");
 423:patchouli/src/patchouli_bsp_tx.c ****         asm volatile ("nop");
 424:patchouli/src/patchouli_bsp_tx.c ****     }
 425:patchouli/src/patchouli_bsp_tx.c ****     PATCHOULI_TX_TRISTATE();
 426:patchouli/src/patchouli_bsp_tx.c **** }
 427:patchouli/src/patchouli_bsp_tx.c **** 
 428:patchouli/src/patchouli_bsp_tx.c **** void _PW100_FSTEP_550(void){
 2395              		.loc 1 428 28 is_stmt 1 view -0
 2396              		.cfi_startproc
 2397              		@ args = 0, pretend = 0, frame = 0
 2398              		@ frame_needed = 0, uses_anonymous_args = 0
 2399              		@ link register save eliminated.
 429:patchouli/src/patchouli_bsp_tx.c ****     // 550kHz, 261.8 cycles (old)
 430:patchouli/src/patchouli_bsp_tx.c ****     // need 116 cycles (new) (64MHz / 550kHz)
 431:patchouli/src/patchouli_bsp_tx.c ****     // 116 - 13 = 103
 432:patchouli/src/patchouli_bsp_tx.c ****     // 103 / 2 = 51.5
 433:patchouli/src/patchouli_bsp_tx.c ****     // 51.5 - 5.5 = 46
 434:patchouli/src/patchouli_bsp_tx.c ****     // 51.5 + 5.5 = 57
 435:patchouli/src/patchouli_bsp_tx.c ****     // 46 to 57
 436:patchouli/src/patchouli_bsp_tx.c ****     PATCHOULI_TX_PP();
 2400              		.loc 1 436 5 view .LVU808
 2401              		.loc 1 436 5 view .LVU809
 2402 0000 404A     		ldr	r2, .L39
 2403 0002 1368     		ldr	r3, [r2]
 2404 0004 43F48053 		orr	r3, r3, #4096
 2405 0008 1360     		str	r3, [r2]
 2406              		.loc 1 436 5 view .LVU810
 437:patchouli/src/patchouli_bsp_tx.c ****     const int ncycle = patchouli_pen_pw100.tx_ncycle;
 2407              		.loc 1 437 5 view .LVU811
ARM GAS  C:\Users\Nathan\AppData\Local\Temp\ccnBuMFp.s 			page 51


 2408              		.loc 1 437 43 is_stmt 0 view .LVU812
 2409 000a 3F4B     		ldr	r3, .L39+4
 2410 000c 1889     		ldrh	r0, [r3, #8]
 2411              	.LVL35:
 438:patchouli/src/patchouli_bsp_tx.c ****     uint16_t  i;
 2412              		.loc 1 438 5 is_stmt 1 view .LVU813
 439:patchouli/src/patchouli_bsp_tx.c ****     for (i=0; i<ncycle; i++){ // 3 cycles
 2413              		.loc 1 439 5 view .LVU814
 2414              		.loc 1 439 11 is_stmt 0 view .LVU815
 2415 000e 0023     		movs	r3, #0
 2416              		.loc 1 439 5 view .LVU816
 2417 0010 6FE0     		b	.L37
 2418              	.LVL36:
 2419              	.L38:
 440:patchouli/src/patchouli_bsp_tx.c ****         PATCHOULI_TX_HIGH();
 2420              		.loc 1 440 9 is_stmt 1 view .LVU817
 2421              		.loc 1 440 9 view .LVU818
 2422 0012 3C4A     		ldr	r2, .L39
 2423 0014 4021     		movs	r1, #64
 2424 0016 9161     		str	r1, [r2, #24]
 2425              		.loc 1 440 9 view .LVU819
 441:patchouli/src/patchouli_bsp_tx.c ****         // 57
 442:patchouli/src/patchouli_bsp_tx.c ****         _10NOP();_10NOP();_10NOP();_10NOP();_10NOP();
 2426              		.loc 1 442 9 view .LVU820
 2427              		.loc 1 442 9 view .LVU821
 2428              		.loc 1 442 9 view .LVU822
 2429              		.syntax unified
 2430              	@ 442 "patchouli/src/patchouli_bsp_tx.c" 1
 2431 0018 00BF     		nop
 2432 001a 00BF     	nop
 2433 001c 00BF     	nop
 2434 001e 00BF     	nop
 2435 0020 00BF     	nop
 2436              	@ 0 "" 2
 2437              		.loc 1 442 9 view .LVU823
 2438              		.loc 1 442 9 view .LVU824
 2439              		.loc 1 442 9 view .LVU825
 2440              	@ 442 "patchouli/src/patchouli_bsp_tx.c" 1
 2441 0022 00BF     		nop
 2442 0024 00BF     	nop
 2443 0026 00BF     	nop
 2444 0028 00BF     	nop
 2445 002a 00BF     	nop
 2446              	@ 0 "" 2
 2447              		.loc 1 442 9 view .LVU826
 2448              		.loc 1 442 9 view .LVU827
 2449              		.loc 1 442 18 view .LVU828
 2450              		.loc 1 442 18 view .LVU829
 2451              		.loc 1 442 18 view .LVU830
 2452              	@ 442 "patchouli/src/patchouli_bsp_tx.c" 1
 2453 002c 00BF     		nop
 2454 002e 00BF     	nop
 2455 0030 00BF     	nop
 2456 0032 00BF     	nop
 2457 0034 00BF     	nop
 2458              	@ 0 "" 2
 2459              		.loc 1 442 18 view .LVU831
ARM GAS  C:\Users\Nathan\AppData\Local\Temp\ccnBuMFp.s 			page 52


 2460              		.loc 1 442 18 view .LVU832
 2461              		.loc 1 442 18 view .LVU833
 2462              	@ 442 "patchouli/src/patchouli_bsp_tx.c" 1
 2463 0036 00BF     		nop
 2464 0038 00BF     	nop
 2465 003a 00BF     	nop
 2466 003c 00BF     	nop
 2467 003e 00BF     	nop
 2468              	@ 0 "" 2
 2469              		.loc 1 442 18 view .LVU834
 2470              		.loc 1 442 18 view .LVU835
 2471              		.loc 1 442 27 view .LVU836
 2472              		.loc 1 442 27 view .LVU837
 2473              		.loc 1 442 27 view .LVU838
 2474              	@ 442 "patchouli/src/patchouli_bsp_tx.c" 1
 2475 0040 00BF     		nop
 2476 0042 00BF     	nop
 2477 0044 00BF     	nop
 2478 0046 00BF     	nop
 2479 0048 00BF     	nop
 2480              	@ 0 "" 2
 2481              		.loc 1 442 27 view .LVU839
 2482              		.loc 1 442 27 view .LVU840
 2483              		.loc 1 442 27 view .LVU841
 2484              	@ 442 "patchouli/src/patchouli_bsp_tx.c" 1
 2485 004a 00BF     		nop
 2486 004c 00BF     	nop
 2487 004e 00BF     	nop
 2488 0050 00BF     	nop
 2489 0052 00BF     	nop
 2490              	@ 0 "" 2
 2491              		.loc 1 442 27 view .LVU842
 2492              		.loc 1 442 27 view .LVU843
 2493              		.loc 1 442 36 view .LVU844
 2494              		.loc 1 442 36 view .LVU845
 2495              		.loc 1 442 36 view .LVU846
 2496              	@ 442 "patchouli/src/patchouli_bsp_tx.c" 1
 2497 0054 00BF     		nop
 2498 0056 00BF     	nop
 2499 0058 00BF     	nop
 2500 005a 00BF     	nop
 2501 005c 00BF     	nop
 2502              	@ 0 "" 2
 2503              		.loc 1 442 36 view .LVU847
 2504              		.loc 1 442 36 view .LVU848
 2505              		.loc 1 442 36 view .LVU849
 2506              	@ 442 "patchouli/src/patchouli_bsp_tx.c" 1
 2507 005e 00BF     		nop
 2508 0060 00BF     	nop
 2509 0062 00BF     	nop
 2510 0064 00BF     	nop
 2511 0066 00BF     	nop
 2512              	@ 0 "" 2
 2513              		.loc 1 442 36 view .LVU850
 2514              		.loc 1 442 36 view .LVU851
 2515              		.loc 1 442 45 view .LVU852
 2516              		.loc 1 442 45 view .LVU853
ARM GAS  C:\Users\Nathan\AppData\Local\Temp\ccnBuMFp.s 			page 53


 2517              		.loc 1 442 45 view .LVU854
 2518              	@ 442 "patchouli/src/patchouli_bsp_tx.c" 1
 2519 0068 00BF     		nop
 2520 006a 00BF     	nop
 2521 006c 00BF     	nop
 2522 006e 00BF     	nop
 2523 0070 00BF     	nop
 2524              	@ 0 "" 2
 2525              		.loc 1 442 45 view .LVU855
 2526              		.loc 1 442 45 view .LVU856
 2527              		.loc 1 442 45 view .LVU857
 2528              	@ 442 "patchouli/src/patchouli_bsp_tx.c" 1
 2529 0072 00BF     		nop
 2530 0074 00BF     	nop
 2531 0076 00BF     	nop
 2532 0078 00BF     	nop
 2533 007a 00BF     	nop
 2534              	@ 0 "" 2
 2535              		.loc 1 442 45 view .LVU858
 2536              		.loc 1 442 45 view .LVU859
 443:patchouli/src/patchouli_bsp_tx.c ****         _5NOP();
 2537              		.loc 1 443 9 view .LVU860
 2538              		.loc 1 443 9 view .LVU861
 2539              	@ 443 "patchouli/src/patchouli_bsp_tx.c" 1
 2540 007c 00BF     		nop
 2541 007e 00BF     	nop
 2542 0080 00BF     	nop
 2543 0082 00BF     	nop
 2544 0084 00BF     	nop
 2545              	@ 0 "" 2
 2546              		.loc 1 443 9 view .LVU862
 444:patchouli/src/patchouli_bsp_tx.c ****         asm volatile ("nop");
 2547              		.loc 1 444 9 view .LVU863
 2548              	@ 444 "patchouli/src/patchouli_bsp_tx.c" 1
 2549 0086 00BF     		nop
 2550              	@ 0 "" 2
 445:patchouli/src/patchouli_bsp_tx.c ****         asm volatile ("nop");
 2551              		.loc 1 445 9 view .LVU864
 2552              	@ 445 "patchouli/src/patchouli_bsp_tx.c" 1
 2553 0088 00BF     		nop
 2554              	@ 0 "" 2
 446:patchouli/src/patchouli_bsp_tx.c ****         PATCHOULI_TX_LOW();
 2555              		.loc 1 446 9 view .LVU865
 2556              		.loc 1 446 9 view .LVU866
 2557              		.thumb
 2558              		.syntax unified
 2559 008a 4FF48001 		mov	r1, #4194304
 2560 008e 9161     		str	r1, [r2, #24]
 2561              		.loc 1 446 9 view .LVU867
 447:patchouli/src/patchouli_bsp_tx.c ****         // 46
 448:patchouli/src/patchouli_bsp_tx.c ****         _10NOP();_10NOP();_10NOP();_10NOP();
 2562              		.loc 1 448 9 view .LVU868
 2563              		.loc 1 448 9 view .LVU869
 2564              		.loc 1 448 9 view .LVU870
 2565              		.syntax unified
 2566              	@ 448 "patchouli/src/patchouli_bsp_tx.c" 1
 2567 0090 00BF     		nop
ARM GAS  C:\Users\Nathan\AppData\Local\Temp\ccnBuMFp.s 			page 54


 2568 0092 00BF     	nop
 2569 0094 00BF     	nop
 2570 0096 00BF     	nop
 2571 0098 00BF     	nop
 2572              	@ 0 "" 2
 2573              		.loc 1 448 9 view .LVU871
 2574              		.loc 1 448 9 view .LVU872
 2575              		.loc 1 448 9 view .LVU873
 2576              	@ 448 "patchouli/src/patchouli_bsp_tx.c" 1
 2577 009a 00BF     		nop
 2578 009c 00BF     	nop
 2579 009e 00BF     	nop
 2580 00a0 00BF     	nop
 2581 00a2 00BF     	nop
 2582              	@ 0 "" 2
 2583              		.loc 1 448 9 view .LVU874
 2584              		.loc 1 448 9 view .LVU875
 2585              		.loc 1 448 18 view .LVU876
 2586              		.loc 1 448 18 view .LVU877
 2587              		.loc 1 448 18 view .LVU878
 2588              	@ 448 "patchouli/src/patchouli_bsp_tx.c" 1
 2589 00a4 00BF     		nop
 2590 00a6 00BF     	nop
 2591 00a8 00BF     	nop
 2592 00aa 00BF     	nop
 2593 00ac 00BF     	nop
 2594              	@ 0 "" 2
 2595              		.loc 1 448 18 view .LVU879
 2596              		.loc 1 448 18 view .LVU880
 2597              		.loc 1 448 18 view .LVU881
 2598              	@ 448 "patchouli/src/patchouli_bsp_tx.c" 1
 2599 00ae 00BF     		nop
 2600 00b0 00BF     	nop
 2601 00b2 00BF     	nop
 2602 00b4 00BF     	nop
 2603 00b6 00BF     	nop
 2604              	@ 0 "" 2
 2605              		.loc 1 448 18 view .LVU882
 2606              		.loc 1 448 18 view .LVU883
 2607              		.loc 1 448 27 view .LVU884
 2608              		.loc 1 448 27 view .LVU885
 2609              		.loc 1 448 27 view .LVU886
 2610              	@ 448 "patchouli/src/patchouli_bsp_tx.c" 1
 2611 00b8 00BF     		nop
 2612 00ba 00BF     	nop
 2613 00bc 00BF     	nop
 2614 00be 00BF     	nop
 2615 00c0 00BF     	nop
 2616              	@ 0 "" 2
 2617              		.loc 1 448 27 view .LVU887
 2618              		.loc 1 448 27 view .LVU888
 2619              		.loc 1 448 27 view .LVU889
 2620              	@ 448 "patchouli/src/patchouli_bsp_tx.c" 1
 2621 00c2 00BF     		nop
 2622 00c4 00BF     	nop
 2623 00c6 00BF     	nop
 2624 00c8 00BF     	nop
ARM GAS  C:\Users\Nathan\AppData\Local\Temp\ccnBuMFp.s 			page 55


 2625 00ca 00BF     	nop
 2626              	@ 0 "" 2
 2627              		.loc 1 448 27 view .LVU890
 2628              		.loc 1 448 27 view .LVU891
 2629              		.loc 1 448 36 view .LVU892
 2630              		.loc 1 448 36 view .LVU893
 2631              		.loc 1 448 36 view .LVU894
 2632              	@ 448 "patchouli/src/patchouli_bsp_tx.c" 1
 2633 00cc 00BF     		nop
 2634 00ce 00BF     	nop
 2635 00d0 00BF     	nop
 2636 00d2 00BF     	nop
 2637 00d4 00BF     	nop
 2638              	@ 0 "" 2
 2639              		.loc 1 448 36 view .LVU895
 2640              		.loc 1 448 36 view .LVU896
 2641              		.loc 1 448 36 view .LVU897
 2642              	@ 448 "patchouli/src/patchouli_bsp_tx.c" 1
 2643 00d6 00BF     		nop
 2644 00d8 00BF     	nop
 2645 00da 00BF     	nop
 2646 00dc 00BF     	nop
 2647 00de 00BF     	nop
 2648              	@ 0 "" 2
 2649              		.loc 1 448 36 view .LVU898
 2650              		.loc 1 448 36 view .LVU899
 449:patchouli/src/patchouli_bsp_tx.c ****         _5NOP();
 2651              		.loc 1 449 9 view .LVU900
 2652              		.loc 1 449 9 view .LVU901
 2653              	@ 449 "patchouli/src/patchouli_bsp_tx.c" 1
 2654 00e0 00BF     		nop
 2655 00e2 00BF     	nop
 2656 00e4 00BF     	nop
 2657 00e6 00BF     	nop
 2658 00e8 00BF     	nop
 2659              	@ 0 "" 2
 2660              		.loc 1 449 9 view .LVU902
 450:patchouli/src/patchouli_bsp_tx.c ****         asm volatile ("nop");
 2661              		.loc 1 450 9 view .LVU903
 2662              	@ 450 "patchouli/src/patchouli_bsp_tx.c" 1
 2663 00ea 00BF     		nop
 2664              	@ 0 "" 2
 451:patchouli/src/patchouli_bsp_tx.c ****         asm volatile ("nop");
 2665              		.loc 1 451 9 view .LVU904
 2666              	@ 451 "patchouli/src/patchouli_bsp_tx.c" 1
 2667 00ec 00BF     		nop
 2668              	@ 0 "" 2
 439:patchouli/src/patchouli_bsp_tx.c ****         PATCHOULI_TX_HIGH();
 2669              		.loc 1 439 26 discriminator 3 view .LVU905
 2670              		.thumb
 2671              		.syntax unified
 2672 00ee 0133     		adds	r3, r3, #1
 2673              	.LVL37:
 439:patchouli/src/patchouli_bsp_tx.c ****         PATCHOULI_TX_HIGH();
 2674              		.loc 1 439 26 is_stmt 0 discriminator 3 view .LVU906
 2675 00f0 9BB2     		uxth	r3, r3
 2676              	.LVL38:
ARM GAS  C:\Users\Nathan\AppData\Local\Temp\ccnBuMFp.s 			page 56


 2677              	.L37:
 439:patchouli/src/patchouli_bsp_tx.c ****         PATCHOULI_TX_HIGH();
 2678              		.loc 1 439 16 is_stmt 1 discriminator 1 view .LVU907
 2679 00f2 9842     		cmp	r0, r3
 2680 00f4 8DD8     		bhi	.L38
 452:patchouli/src/patchouli_bsp_tx.c ****     }
 453:patchouli/src/patchouli_bsp_tx.c ****     PATCHOULI_TX_TRISTATE();
 2681              		.loc 1 453 5 view .LVU908
 2682              		.loc 1 453 5 view .LVU909
 2683 00f6 034A     		ldr	r2, .L39
 2684 00f8 1368     		ldr	r3, [r2]
 2685              	.LVL39:
 2686              		.loc 1 453 5 is_stmt 0 view .LVU910
 2687 00fa 23F44053 		bic	r3, r3, #12288
 2688 00fe 1360     		str	r3, [r2]
 2689              		.loc 1 453 5 is_stmt 1 view .LVU911
 454:patchouli/src/patchouli_bsp_tx.c **** }
 2690              		.loc 1 454 1 is_stmt 0 view .LVU912
 2691 0100 7047     		bx	lr
 2692              	.L40:
 2693 0102 00BF     		.align	2
 2694              	.L39:
 2695 0104 00040048 		.word	1207960576
 2696 0108 00000000 		.word	patchouli_pen_pw100
 2697              		.cfi_endproc
 2698              	.LFE1426:
 2700              		.section	.text._PW100_FSTEP_500,"ax",%progbits
 2701              		.align	1
 2702              		.global	_PW100_FSTEP_500
 2703              		.syntax unified
 2704              		.thumb
 2705              		.thumb_func
 2707              	_PW100_FSTEP_500:
 2708              	.LFB1417:
 190:patchouli/src/patchouli_bsp_tx.c ****     // 500kHz target frequency
 2709              		.loc 1 190 28 is_stmt 1 view -0
 2710              		.cfi_startproc
 2711              		@ args = 0, pretend = 0, frame = 0
 2712              		@ frame_needed = 0, uses_anonymous_args = 0
 2713              		@ link register save eliminated.
 196:patchouli/src/patchouli_bsp_tx.c ****     const int ncycle = patchouli_pen_pw100.tx_ncycle;
 2714              		.loc 1 196 5 view .LVU914
 196:patchouli/src/patchouli_bsp_tx.c ****     const int ncycle = patchouli_pen_pw100.tx_ncycle;
 2715              		.loc 1 196 5 view .LVU915
 2716 0000 4D4A     		ldr	r2, .L44
 2717 0002 1368     		ldr	r3, [r2]
 2718 0004 43F48053 		orr	r3, r3, #4096
 2719 0008 1360     		str	r3, [r2]
 196:patchouli/src/patchouli_bsp_tx.c ****     const int ncycle = patchouli_pen_pw100.tx_ncycle;
 2720              		.loc 1 196 5 view .LVU916
 197:patchouli/src/patchouli_bsp_tx.c ****     uint16_t i;
 2721              		.loc 1 197 5 view .LVU917
 197:patchouli/src/patchouli_bsp_tx.c ****     uint16_t i;
 2722              		.loc 1 197 43 is_stmt 0 view .LVU918
 2723 000a 4C4B     		ldr	r3, .L44+4
 2724 000c 1889     		ldrh	r0, [r3, #8]
 2725              	.LVL40:
ARM GAS  C:\Users\Nathan\AppData\Local\Temp\ccnBuMFp.s 			page 57


 198:patchouli/src/patchouli_bsp_tx.c ****     for (i=0; i<ncycle; i++){
 2726              		.loc 1 198 5 is_stmt 1 view .LVU919
 199:patchouli/src/patchouli_bsp_tx.c ****         PATCHOULI_TX_HIGH();
 2727              		.loc 1 199 5 view .LVU920
 199:patchouli/src/patchouli_bsp_tx.c ****         PATCHOULI_TX_HIGH();
 2728              		.loc 1 199 11 is_stmt 0 view .LVU921
 2729 000e 0023     		movs	r3, #0
 199:patchouli/src/patchouli_bsp_tx.c ****         PATCHOULI_TX_HIGH();
 2730              		.loc 1 199 5 view .LVU922
 2731 0010 89E0     		b	.L42
 2732              	.LVL41:
 2733              	.L43:
 200:patchouli/src/patchouli_bsp_tx.c ****         // 64 cycles: 6*10 + 1*5 - 1 = 64
 2734              		.loc 1 200 9 is_stmt 1 view .LVU923
 200:patchouli/src/patchouli_bsp_tx.c ****         // 64 cycles: 6*10 + 1*5 - 1 = 64
 2735              		.loc 1 200 9 view .LVU924
 2736 0012 494A     		ldr	r2, .L44
 2737 0014 4021     		movs	r1, #64
 2738 0016 9161     		str	r1, [r2, #24]
 200:patchouli/src/patchouli_bsp_tx.c ****         // 64 cycles: 6*10 + 1*5 - 1 = 64
 2739              		.loc 1 200 9 view .LVU925
 202:patchouli/src/patchouli_bsp_tx.c ****         _5NOP();
 2740              		.loc 1 202 9 view .LVU926
 202:patchouli/src/patchouli_bsp_tx.c ****         _5NOP();
 2741              		.loc 1 202 9 view .LVU927
 202:patchouli/src/patchouli_bsp_tx.c ****         _5NOP();
 2742              		.loc 1 202 9 view .LVU928
 2743              		.syntax unified
 2744              	@ 202 "patchouli/src/patchouli_bsp_tx.c" 1
 2745 0018 00BF     		nop
 2746 001a 00BF     	nop
 2747 001c 00BF     	nop
 2748 001e 00BF     	nop
 2749 0020 00BF     	nop
 2750              	@ 0 "" 2
 202:patchouli/src/patchouli_bsp_tx.c ****         _5NOP();
 2751              		.loc 1 202 9 view .LVU929
 202:patchouli/src/patchouli_bsp_tx.c ****         _5NOP();
 2752              		.loc 1 202 9 view .LVU930
 202:patchouli/src/patchouli_bsp_tx.c ****         _5NOP();
 2753              		.loc 1 202 9 view .LVU931
 2754              	@ 202 "patchouli/src/patchouli_bsp_tx.c" 1
 2755 0022 00BF     		nop
 2756 0024 00BF     	nop
 2757 0026 00BF     	nop
 2758 0028 00BF     	nop
 2759 002a 00BF     	nop
 2760              	@ 0 "" 2
 202:patchouli/src/patchouli_bsp_tx.c ****         _5NOP();
 2761              		.loc 1 202 9 view .LVU932
 202:patchouli/src/patchouli_bsp_tx.c ****         _5NOP();
 2762              		.loc 1 202 9 view .LVU933
 202:patchouli/src/patchouli_bsp_tx.c ****         _5NOP();
 2763              		.loc 1 202 19 view .LVU934
 202:patchouli/src/patchouli_bsp_tx.c ****         _5NOP();
 2764              		.loc 1 202 19 view .LVU935
 202:patchouli/src/patchouli_bsp_tx.c ****         _5NOP();
ARM GAS  C:\Users\Nathan\AppData\Local\Temp\ccnBuMFp.s 			page 58


 2765              		.loc 1 202 19 view .LVU936
 2766              	@ 202 "patchouli/src/patchouli_bsp_tx.c" 1
 2767 002c 00BF     		nop
 2768 002e 00BF     	nop
 2769 0030 00BF     	nop
 2770 0032 00BF     	nop
 2771 0034 00BF     	nop
 2772              	@ 0 "" 2
 202:patchouli/src/patchouli_bsp_tx.c ****         _5NOP();
 2773              		.loc 1 202 19 view .LVU937
 202:patchouli/src/patchouli_bsp_tx.c ****         _5NOP();
 2774              		.loc 1 202 19 view .LVU938
 202:patchouli/src/patchouli_bsp_tx.c ****         _5NOP();
 2775              		.loc 1 202 19 view .LVU939
 2776              	@ 202 "patchouli/src/patchouli_bsp_tx.c" 1
 2777 0036 00BF     		nop
 2778 0038 00BF     	nop
 2779 003a 00BF     	nop
 2780 003c 00BF     	nop
 2781 003e 00BF     	nop
 2782              	@ 0 "" 2
 202:patchouli/src/patchouli_bsp_tx.c ****         _5NOP();
 2783              		.loc 1 202 19 view .LVU940
 202:patchouli/src/patchouli_bsp_tx.c ****         _5NOP();
 2784              		.loc 1 202 19 view .LVU941
 202:patchouli/src/patchouli_bsp_tx.c ****         _5NOP();
 2785              		.loc 1 202 29 view .LVU942
 202:patchouli/src/patchouli_bsp_tx.c ****         _5NOP();
 2786              		.loc 1 202 29 view .LVU943
 202:patchouli/src/patchouli_bsp_tx.c ****         _5NOP();
 2787              		.loc 1 202 29 view .LVU944
 2788              	@ 202 "patchouli/src/patchouli_bsp_tx.c" 1
 2789 0040 00BF     		nop
 2790 0042 00BF     	nop
 2791 0044 00BF     	nop
 2792 0046 00BF     	nop
 2793 0048 00BF     	nop
 2794              	@ 0 "" 2
 202:patchouli/src/patchouli_bsp_tx.c ****         _5NOP();
 2795              		.loc 1 202 29 view .LVU945
 202:patchouli/src/patchouli_bsp_tx.c ****         _5NOP();
 2796              		.loc 1 202 29 view .LVU946
 202:patchouli/src/patchouli_bsp_tx.c ****         _5NOP();
 2797              		.loc 1 202 29 view .LVU947
 2798              	@ 202 "patchouli/src/patchouli_bsp_tx.c" 1
 2799 004a 00BF     		nop
 2800 004c 00BF     	nop
 2801 004e 00BF     	nop
 2802 0050 00BF     	nop
 2803 0052 00BF     	nop
 2804              	@ 0 "" 2
 202:patchouli/src/patchouli_bsp_tx.c ****         _5NOP();
 2805              		.loc 1 202 29 view .LVU948
 202:patchouli/src/patchouli_bsp_tx.c ****         _5NOP();
 2806              		.loc 1 202 29 view .LVU949
 202:patchouli/src/patchouli_bsp_tx.c ****         _5NOP();
 2807              		.loc 1 202 39 view .LVU950
ARM GAS  C:\Users\Nathan\AppData\Local\Temp\ccnBuMFp.s 			page 59


 202:patchouli/src/patchouli_bsp_tx.c ****         _5NOP();
 2808              		.loc 1 202 39 view .LVU951
 202:patchouli/src/patchouli_bsp_tx.c ****         _5NOP();
 2809              		.loc 1 202 39 view .LVU952
 2810              	@ 202 "patchouli/src/patchouli_bsp_tx.c" 1
 2811 0054 00BF     		nop
 2812 0056 00BF     	nop
 2813 0058 00BF     	nop
 2814 005a 00BF     	nop
 2815 005c 00BF     	nop
 2816              	@ 0 "" 2
 202:patchouli/src/patchouli_bsp_tx.c ****         _5NOP();
 2817              		.loc 1 202 39 view .LVU953
 202:patchouli/src/patchouli_bsp_tx.c ****         _5NOP();
 2818              		.loc 1 202 39 view .LVU954
 202:patchouli/src/patchouli_bsp_tx.c ****         _5NOP();
 2819              		.loc 1 202 39 view .LVU955
 2820              	@ 202 "patchouli/src/patchouli_bsp_tx.c" 1
 2821 005e 00BF     		nop
 2822 0060 00BF     	nop
 2823 0062 00BF     	nop
 2824 0064 00BF     	nop
 2825 0066 00BF     	nop
 2826              	@ 0 "" 2
 202:patchouli/src/patchouli_bsp_tx.c ****         _5NOP();
 2827              		.loc 1 202 39 view .LVU956
 202:patchouli/src/patchouli_bsp_tx.c ****         _5NOP();
 2828              		.loc 1 202 39 view .LVU957
 202:patchouli/src/patchouli_bsp_tx.c ****         _5NOP();
 2829              		.loc 1 202 49 view .LVU958
 202:patchouli/src/patchouli_bsp_tx.c ****         _5NOP();
 2830              		.loc 1 202 49 view .LVU959
 202:patchouli/src/patchouli_bsp_tx.c ****         _5NOP();
 2831              		.loc 1 202 49 view .LVU960
 2832              	@ 202 "patchouli/src/patchouli_bsp_tx.c" 1
 2833 0068 00BF     		nop
 2834 006a 00BF     	nop
 2835 006c 00BF     	nop
 2836 006e 00BF     	nop
 2837 0070 00BF     	nop
 2838              	@ 0 "" 2
 202:patchouli/src/patchouli_bsp_tx.c ****         _5NOP();
 2839              		.loc 1 202 49 view .LVU961
 202:patchouli/src/patchouli_bsp_tx.c ****         _5NOP();
 2840              		.loc 1 202 49 view .LVU962
 202:patchouli/src/patchouli_bsp_tx.c ****         _5NOP();
 2841              		.loc 1 202 49 view .LVU963
 2842              	@ 202 "patchouli/src/patchouli_bsp_tx.c" 1
 2843 0072 00BF     		nop
 2844 0074 00BF     	nop
 2845 0076 00BF     	nop
 2846 0078 00BF     	nop
 2847 007a 00BF     	nop
 2848              	@ 0 "" 2
 202:patchouli/src/patchouli_bsp_tx.c ****         _5NOP();
 2849              		.loc 1 202 49 view .LVU964
 202:patchouli/src/patchouli_bsp_tx.c ****         _5NOP();
ARM GAS  C:\Users\Nathan\AppData\Local\Temp\ccnBuMFp.s 			page 60


 2850              		.loc 1 202 49 view .LVU965
 202:patchouli/src/patchouli_bsp_tx.c ****         _5NOP();
 2851              		.loc 1 202 59 view .LVU966
 202:patchouli/src/patchouli_bsp_tx.c ****         _5NOP();
 2852              		.loc 1 202 59 view .LVU967
 202:patchouli/src/patchouli_bsp_tx.c ****         _5NOP();
 2853              		.loc 1 202 59 view .LVU968
 2854              	@ 202 "patchouli/src/patchouli_bsp_tx.c" 1
 2855 007c 00BF     		nop
 2856 007e 00BF     	nop
 2857 0080 00BF     	nop
 2858 0082 00BF     	nop
 2859 0084 00BF     	nop
 2860              	@ 0 "" 2
 202:patchouli/src/patchouli_bsp_tx.c ****         _5NOP();
 2861              		.loc 1 202 59 view .LVU969
 202:patchouli/src/patchouli_bsp_tx.c ****         _5NOP();
 2862              		.loc 1 202 59 view .LVU970
 202:patchouli/src/patchouli_bsp_tx.c ****         _5NOP();
 2863              		.loc 1 202 59 view .LVU971
 2864              	@ 202 "patchouli/src/patchouli_bsp_tx.c" 1
 2865 0086 00BF     		nop
 2866 0088 00BF     	nop
 2867 008a 00BF     	nop
 2868 008c 00BF     	nop
 2869 008e 00BF     	nop
 2870              	@ 0 "" 2
 202:patchouli/src/patchouli_bsp_tx.c ****         _5NOP();
 2871              		.loc 1 202 59 view .LVU972
 202:patchouli/src/patchouli_bsp_tx.c ****         _5NOP();
 2872              		.loc 1 202 59 view .LVU973
 203:patchouli/src/patchouli_bsp_tx.c ****         
 2873              		.loc 1 203 9 view .LVU974
 203:patchouli/src/patchouli_bsp_tx.c ****         
 2874              		.loc 1 203 9 view .LVU975
 2875              	@ 203 "patchouli/src/patchouli_bsp_tx.c" 1
 2876 0090 00BF     		nop
 2877 0092 00BF     	nop
 2878 0094 00BF     	nop
 2879 0096 00BF     	nop
 2880 0098 00BF     	nop
 2881              	@ 0 "" 2
 203:patchouli/src/patchouli_bsp_tx.c ****         
 2882              		.loc 1 203 9 view .LVU976
 205:patchouli/src/patchouli_bsp_tx.c ****         // 64 cycles: 6*10 + 1*5 - 1 = 64
 2883              		.loc 1 205 9 view .LVU977
 205:patchouli/src/patchouli_bsp_tx.c ****         // 64 cycles: 6*10 + 1*5 - 1 = 64
 2884              		.loc 1 205 9 view .LVU978
 2885              		.thumb
 2886              		.syntax unified
 2887 009a 4FF48001 		mov	r1, #4194304
 2888 009e 9161     		str	r1, [r2, #24]
 205:patchouli/src/patchouli_bsp_tx.c ****         // 64 cycles: 6*10 + 1*5 - 1 = 64
 2889              		.loc 1 205 9 view .LVU979
 207:patchouli/src/patchouli_bsp_tx.c ****         _5NOP();
 2890              		.loc 1 207 9 view .LVU980
 207:patchouli/src/patchouli_bsp_tx.c ****         _5NOP();
ARM GAS  C:\Users\Nathan\AppData\Local\Temp\ccnBuMFp.s 			page 61


 2891              		.loc 1 207 9 view .LVU981
 207:patchouli/src/patchouli_bsp_tx.c ****         _5NOP();
 2892              		.loc 1 207 9 view .LVU982
 2893              		.syntax unified
 2894              	@ 207 "patchouli/src/patchouli_bsp_tx.c" 1
 2895 00a0 00BF     		nop
 2896 00a2 00BF     	nop
 2897 00a4 00BF     	nop
 2898 00a6 00BF     	nop
 2899 00a8 00BF     	nop
 2900              	@ 0 "" 2
 207:patchouli/src/patchouli_bsp_tx.c ****         _5NOP();
 2901              		.loc 1 207 9 view .LVU983
 207:patchouli/src/patchouli_bsp_tx.c ****         _5NOP();
 2902              		.loc 1 207 9 view .LVU984
 207:patchouli/src/patchouli_bsp_tx.c ****         _5NOP();
 2903              		.loc 1 207 9 view .LVU985
 2904              	@ 207 "patchouli/src/patchouli_bsp_tx.c" 1
 2905 00aa 00BF     		nop
 2906 00ac 00BF     	nop
 2907 00ae 00BF     	nop
 2908 00b0 00BF     	nop
 2909 00b2 00BF     	nop
 2910              	@ 0 "" 2
 207:patchouli/src/patchouli_bsp_tx.c ****         _5NOP();
 2911              		.loc 1 207 9 view .LVU986
 207:patchouli/src/patchouli_bsp_tx.c ****         _5NOP();
 2912              		.loc 1 207 9 view .LVU987
 207:patchouli/src/patchouli_bsp_tx.c ****         _5NOP();
 2913              		.loc 1 207 19 view .LVU988
 207:patchouli/src/patchouli_bsp_tx.c ****         _5NOP();
 2914              		.loc 1 207 19 view .LVU989
 207:patchouli/src/patchouli_bsp_tx.c ****         _5NOP();
 2915              		.loc 1 207 19 view .LVU990
 2916              	@ 207 "patchouli/src/patchouli_bsp_tx.c" 1
 2917 00b4 00BF     		nop
 2918 00b6 00BF     	nop
 2919 00b8 00BF     	nop
 2920 00ba 00BF     	nop
 2921 00bc 00BF     	nop
 2922              	@ 0 "" 2
 207:patchouli/src/patchouli_bsp_tx.c ****         _5NOP();
 2923              		.loc 1 207 19 view .LVU991
 207:patchouli/src/patchouli_bsp_tx.c ****         _5NOP();
 2924              		.loc 1 207 19 view .LVU992
 207:patchouli/src/patchouli_bsp_tx.c ****         _5NOP();
 2925              		.loc 1 207 19 view .LVU993
 2926              	@ 207 "patchouli/src/patchouli_bsp_tx.c" 1
 2927 00be 00BF     		nop
 2928 00c0 00BF     	nop
 2929 00c2 00BF     	nop
 2930 00c4 00BF     	nop
 2931 00c6 00BF     	nop
 2932              	@ 0 "" 2
 207:patchouli/src/patchouli_bsp_tx.c ****         _5NOP();
 2933              		.loc 1 207 19 view .LVU994
 207:patchouli/src/patchouli_bsp_tx.c ****         _5NOP();
ARM GAS  C:\Users\Nathan\AppData\Local\Temp\ccnBuMFp.s 			page 62


 2934              		.loc 1 207 19 view .LVU995
 207:patchouli/src/patchouli_bsp_tx.c ****         _5NOP();
 2935              		.loc 1 207 29 view .LVU996
 207:patchouli/src/patchouli_bsp_tx.c ****         _5NOP();
 2936              		.loc 1 207 29 view .LVU997
 207:patchouli/src/patchouli_bsp_tx.c ****         _5NOP();
 2937              		.loc 1 207 29 view .LVU998
 2938              	@ 207 "patchouli/src/patchouli_bsp_tx.c" 1
 2939 00c8 00BF     		nop
 2940 00ca 00BF     	nop
 2941 00cc 00BF     	nop
 2942 00ce 00BF     	nop
 2943 00d0 00BF     	nop
 2944              	@ 0 "" 2
 207:patchouli/src/patchouli_bsp_tx.c ****         _5NOP();
 2945              		.loc 1 207 29 view .LVU999
 207:patchouli/src/patchouli_bsp_tx.c ****         _5NOP();
 2946              		.loc 1 207 29 view .LVU1000
 207:patchouli/src/patchouli_bsp_tx.c ****         _5NOP();
 2947              		.loc 1 207 29 view .LVU1001
 2948              	@ 207 "patchouli/src/patchouli_bsp_tx.c" 1
 2949 00d2 00BF     		nop
 2950 00d4 00BF     	nop
 2951 00d6 00BF     	nop
 2952 00d8 00BF     	nop
 2953 00da 00BF     	nop
 2954              	@ 0 "" 2
 207:patchouli/src/patchouli_bsp_tx.c ****         _5NOP();
 2955              		.loc 1 207 29 view .LVU1002
 207:patchouli/src/patchouli_bsp_tx.c ****         _5NOP();
 2956              		.loc 1 207 29 view .LVU1003
 207:patchouli/src/patchouli_bsp_tx.c ****         _5NOP();
 2957              		.loc 1 207 39 view .LVU1004
 207:patchouli/src/patchouli_bsp_tx.c ****         _5NOP();
 2958              		.loc 1 207 39 view .LVU1005
 207:patchouli/src/patchouli_bsp_tx.c ****         _5NOP();
 2959              		.loc 1 207 39 view .LVU1006
 2960              	@ 207 "patchouli/src/patchouli_bsp_tx.c" 1
 2961 00dc 00BF     		nop
 2962 00de 00BF     	nop
 2963 00e0 00BF     	nop
 2964 00e2 00BF     	nop
 2965 00e4 00BF     	nop
 2966              	@ 0 "" 2
 207:patchouli/src/patchouli_bsp_tx.c ****         _5NOP();
 2967              		.loc 1 207 39 view .LVU1007
 207:patchouli/src/patchouli_bsp_tx.c ****         _5NOP();
 2968              		.loc 1 207 39 view .LVU1008
 207:patchouli/src/patchouli_bsp_tx.c ****         _5NOP();
 2969              		.loc 1 207 39 view .LVU1009
 2970              	@ 207 "patchouli/src/patchouli_bsp_tx.c" 1
 2971 00e6 00BF     		nop
 2972 00e8 00BF     	nop
 2973 00ea 00BF     	nop
 2974 00ec 00BF     	nop
 2975 00ee 00BF     	nop
 2976              	@ 0 "" 2
ARM GAS  C:\Users\Nathan\AppData\Local\Temp\ccnBuMFp.s 			page 63


 207:patchouli/src/patchouli_bsp_tx.c ****         _5NOP();
 2977              		.loc 1 207 39 view .LVU1010
 207:patchouli/src/patchouli_bsp_tx.c ****         _5NOP();
 2978              		.loc 1 207 39 view .LVU1011
 207:patchouli/src/patchouli_bsp_tx.c ****         _5NOP();
 2979              		.loc 1 207 49 view .LVU1012
 207:patchouli/src/patchouli_bsp_tx.c ****         _5NOP();
 2980              		.loc 1 207 49 view .LVU1013
 207:patchouli/src/patchouli_bsp_tx.c ****         _5NOP();
 2981              		.loc 1 207 49 view .LVU1014
 2982              	@ 207 "patchouli/src/patchouli_bsp_tx.c" 1
 2983 00f0 00BF     		nop
 2984 00f2 00BF     	nop
 2985 00f4 00BF     	nop
 2986 00f6 00BF     	nop
 2987 00f8 00BF     	nop
 2988              	@ 0 "" 2
 207:patchouli/src/patchouli_bsp_tx.c ****         _5NOP();
 2989              		.loc 1 207 49 view .LVU1015
 207:patchouli/src/patchouli_bsp_tx.c ****         _5NOP();
 2990              		.loc 1 207 49 view .LVU1016
 207:patchouli/src/patchouli_bsp_tx.c ****         _5NOP();
 2991              		.loc 1 207 49 view .LVU1017
 2992              	@ 207 "patchouli/src/patchouli_bsp_tx.c" 1
 2993 00fa 00BF     		nop
 2994 00fc 00BF     	nop
 2995 00fe 00BF     	nop
 2996 0100 00BF     	nop
 2997 0102 00BF     	nop
 2998              	@ 0 "" 2
 207:patchouli/src/patchouli_bsp_tx.c ****         _5NOP();
 2999              		.loc 1 207 49 view .LVU1018
 207:patchouli/src/patchouli_bsp_tx.c ****         _5NOP();
 3000              		.loc 1 207 49 view .LVU1019
 207:patchouli/src/patchouli_bsp_tx.c ****         _5NOP();
 3001              		.loc 1 207 59 view .LVU1020
 207:patchouli/src/patchouli_bsp_tx.c ****         _5NOP();
 3002              		.loc 1 207 59 view .LVU1021
 207:patchouli/src/patchouli_bsp_tx.c ****         _5NOP();
 3003              		.loc 1 207 59 view .LVU1022
 3004              	@ 207 "patchouli/src/patchouli_bsp_tx.c" 1
 3005 0104 00BF     		nop
 3006 0106 00BF     	nop
 3007 0108 00BF     	nop
 3008 010a 00BF     	nop
 3009 010c 00BF     	nop
 3010              	@ 0 "" 2
 207:patchouli/src/patchouli_bsp_tx.c ****         _5NOP();
 3011              		.loc 1 207 59 view .LVU1023
 207:patchouli/src/patchouli_bsp_tx.c ****         _5NOP();
 3012              		.loc 1 207 59 view .LVU1024
 207:patchouli/src/patchouli_bsp_tx.c ****         _5NOP();
 3013              		.loc 1 207 59 view .LVU1025
 3014              	@ 207 "patchouli/src/patchouli_bsp_tx.c" 1
 3015 010e 00BF     		nop
 3016 0110 00BF     	nop
 3017 0112 00BF     	nop
ARM GAS  C:\Users\Nathan\AppData\Local\Temp\ccnBuMFp.s 			page 64


 3018 0114 00BF     	nop
 3019 0116 00BF     	nop
 3020              	@ 0 "" 2
 207:patchouli/src/patchouli_bsp_tx.c ****         _5NOP();
 3021              		.loc 1 207 59 view .LVU1026
 207:patchouli/src/patchouli_bsp_tx.c ****         _5NOP();
 3022              		.loc 1 207 59 view .LVU1027
 208:patchouli/src/patchouli_bsp_tx.c ****     }
 3023              		.loc 1 208 9 view .LVU1028
 208:patchouli/src/patchouli_bsp_tx.c ****     }
 3024              		.loc 1 208 9 view .LVU1029
 3025              	@ 208 "patchouli/src/patchouli_bsp_tx.c" 1
 3026 0118 00BF     		nop
 3027 011a 00BF     	nop
 3028 011c 00BF     	nop
 3029 011e 00BF     	nop
 3030 0120 00BF     	nop
 3031              	@ 0 "" 2
 208:patchouli/src/patchouli_bsp_tx.c ****     }
 3032              		.loc 1 208 9 view .LVU1030
 199:patchouli/src/patchouli_bsp_tx.c ****         PATCHOULI_TX_HIGH();
 3033              		.loc 1 199 26 discriminator 3 view .LVU1031
 3034              		.thumb
 3035              		.syntax unified
 3036 0122 0133     		adds	r3, r3, #1
 3037              	.LVL42:
 199:patchouli/src/patchouli_bsp_tx.c ****         PATCHOULI_TX_HIGH();
 3038              		.loc 1 199 26 is_stmt 0 discriminator 3 view .LVU1032
 3039 0124 9BB2     		uxth	r3, r3
 3040              	.LVL43:
 3041              	.L42:
 199:patchouli/src/patchouli_bsp_tx.c ****         PATCHOULI_TX_HIGH();
 3042              		.loc 1 199 16 is_stmt 1 discriminator 1 view .LVU1033
 3043 0126 9842     		cmp	r0, r3
 3044 0128 3FF673AF 		bhi	.L43
 210:patchouli/src/patchouli_bsp_tx.c **** }
 3045              		.loc 1 210 5 view .LVU1034
 210:patchouli/src/patchouli_bsp_tx.c **** }
 3046              		.loc 1 210 5 view .LVU1035
 3047 012c 024A     		ldr	r2, .L44
 3048 012e 1368     		ldr	r3, [r2]
 3049              	.LVL44:
 210:patchouli/src/patchouli_bsp_tx.c **** }
 3050              		.loc 1 210 5 is_stmt 0 view .LVU1036
 3051 0130 23F44053 		bic	r3, r3, #12288
 3052 0134 1360     		str	r3, [r2]
 210:patchouli/src/patchouli_bsp_tx.c **** }
 3053              		.loc 1 210 5 is_stmt 1 view .LVU1037
 211:patchouli/src/patchouli_bsp_tx.c **** 
 3054              		.loc 1 211 1 is_stmt 0 view .LVU1038
 3055 0136 7047     		bx	lr
 3056              	.L45:
 3057              		.align	2
 3058              	.L44:
 3059 0138 00040048 		.word	1207960576
 3060 013c 00000000 		.word	patchouli_pen_pw100
 3061              		.cfi_endproc
ARM GAS  C:\Users\Nathan\AppData\Local\Temp\ccnBuMFp.s 			page 65


 3062              	.LFE1417:
 3064              		.section	.text._PW100_FSTEP_515,"ax",%progbits
 3065              		.align	1
 3066              		.global	_PW100_FSTEP_515
 3067              		.syntax unified
 3068              		.thumb
 3069              		.thumb_func
 3071              	_PW100_FSTEP_515:
 3072              	.LFB1419:
 238:patchouli/src/patchouli_bsp_tx.c ****     // 516.2kHz
 3073              		.loc 1 238 28 is_stmt 1 view -0
 3074              		.cfi_startproc
 3075              		@ args = 0, pretend = 0, frame = 0
 3076              		@ frame_needed = 0, uses_anonymous_args = 0
 3077              		@ link register save eliminated.
 246:patchouli/src/patchouli_bsp_tx.c ****     const int ncycle = patchouli_pen_pw100.tx_ncycle;
 3078              		.loc 1 246 5 view .LVU1040
 246:patchouli/src/patchouli_bsp_tx.c ****     const int ncycle = patchouli_pen_pw100.tx_ncycle;
 3079              		.loc 1 246 5 view .LVU1041
 3080 0000 434A     		ldr	r2, .L49
 3081 0002 1368     		ldr	r3, [r2]
 3082 0004 43F48053 		orr	r3, r3, #4096
 3083 0008 1360     		str	r3, [r2]
 246:patchouli/src/patchouli_bsp_tx.c ****     const int ncycle = patchouli_pen_pw100.tx_ncycle;
 3084              		.loc 1 246 5 view .LVU1042
 247:patchouli/src/patchouli_bsp_tx.c ****     uint16_t  i;
 3085              		.loc 1 247 5 view .LVU1043
 247:patchouli/src/patchouli_bsp_tx.c ****     uint16_t  i;
 3086              		.loc 1 247 43 is_stmt 0 view .LVU1044
 3087 000a 424B     		ldr	r3, .L49+4
 3088 000c 1889     		ldrh	r0, [r3, #8]
 3089              	.LVL45:
 248:patchouli/src/patchouli_bsp_tx.c ****     for (i=0; i<ncycle; i++){ // 3 cycles
 3090              		.loc 1 248 5 is_stmt 1 view .LVU1045
 249:patchouli/src/patchouli_bsp_tx.c ****         PATCHOULI_TX_HIGH();
 3091              		.loc 1 249 5 view .LVU1046
 249:patchouli/src/patchouli_bsp_tx.c ****         PATCHOULI_TX_HIGH();
 3092              		.loc 1 249 11 is_stmt 0 view .LVU1047
 3093 000e 0023     		movs	r3, #0
 249:patchouli/src/patchouli_bsp_tx.c ****         PATCHOULI_TX_HIGH();
 3094              		.loc 1 249 5 view .LVU1048
 3095 0010 76E0     		b	.L47
 3096              	.LVL46:
 3097              	.L48:
 250:patchouli/src/patchouli_bsp_tx.c ****         // 61
 3098              		.loc 1 250 9 is_stmt 1 view .LVU1049
 250:patchouli/src/patchouli_bsp_tx.c ****         // 61
 3099              		.loc 1 250 9 view .LVU1050
 3100 0012 3F4A     		ldr	r2, .L49
 3101 0014 4021     		movs	r1, #64
 3102 0016 9161     		str	r1, [r2, #24]
 250:patchouli/src/patchouli_bsp_tx.c ****         // 61
 3103              		.loc 1 250 9 view .LVU1051
 252:patchouli/src/patchouli_bsp_tx.c ****         asm volatile ("nop");
 3104              		.loc 1 252 9 view .LVU1052
 252:patchouli/src/patchouli_bsp_tx.c ****         asm volatile ("nop");
 3105              		.loc 1 252 9 view .LVU1053
ARM GAS  C:\Users\Nathan\AppData\Local\Temp\ccnBuMFp.s 			page 66


 252:patchouli/src/patchouli_bsp_tx.c ****         asm volatile ("nop");
 3106              		.loc 1 252 9 view .LVU1054
 3107              		.syntax unified
 3108              	@ 252 "patchouli/src/patchouli_bsp_tx.c" 1
 3109 0018 00BF     		nop
 3110 001a 00BF     	nop
 3111 001c 00BF     	nop
 3112 001e 00BF     	nop
 3113 0020 00BF     	nop
 3114              	@ 0 "" 2
 252:patchouli/src/patchouli_bsp_tx.c ****         asm volatile ("nop");
 3115              		.loc 1 252 9 view .LVU1055
 252:patchouli/src/patchouli_bsp_tx.c ****         asm volatile ("nop");
 3116              		.loc 1 252 9 view .LVU1056
 252:patchouli/src/patchouli_bsp_tx.c ****         asm volatile ("nop");
 3117              		.loc 1 252 9 view .LVU1057
 3118              	@ 252 "patchouli/src/patchouli_bsp_tx.c" 1
 3119 0022 00BF     		nop
 3120 0024 00BF     	nop
 3121 0026 00BF     	nop
 3122 0028 00BF     	nop
 3123 002a 00BF     	nop
 3124              	@ 0 "" 2
 252:patchouli/src/patchouli_bsp_tx.c ****         asm volatile ("nop");
 3125              		.loc 1 252 9 view .LVU1058
 252:patchouli/src/patchouli_bsp_tx.c ****         asm volatile ("nop");
 3126              		.loc 1 252 9 view .LVU1059
 252:patchouli/src/patchouli_bsp_tx.c ****         asm volatile ("nop");
 3127              		.loc 1 252 18 view .LVU1060
 252:patchouli/src/patchouli_bsp_tx.c ****         asm volatile ("nop");
 3128              		.loc 1 252 18 view .LVU1061
 252:patchouli/src/patchouli_bsp_tx.c ****         asm volatile ("nop");
 3129              		.loc 1 252 18 view .LVU1062
 3130              	@ 252 "patchouli/src/patchouli_bsp_tx.c" 1
 3131 002c 00BF     		nop
 3132 002e 00BF     	nop
 3133 0030 00BF     	nop
 3134 0032 00BF     	nop
 3135 0034 00BF     	nop
 3136              	@ 0 "" 2
 252:patchouli/src/patchouli_bsp_tx.c ****         asm volatile ("nop");
 3137              		.loc 1 252 18 view .LVU1063
 252:patchouli/src/patchouli_bsp_tx.c ****         asm volatile ("nop");
 3138              		.loc 1 252 18 view .LVU1064
 252:patchouli/src/patchouli_bsp_tx.c ****         asm volatile ("nop");
 3139              		.loc 1 252 18 view .LVU1065
 3140              	@ 252 "patchouli/src/patchouli_bsp_tx.c" 1
 3141 0036 00BF     		nop
 3142 0038 00BF     	nop
 3143 003a 00BF     	nop
 3144 003c 00BF     	nop
 3145 003e 00BF     	nop
 3146              	@ 0 "" 2
 252:patchouli/src/patchouli_bsp_tx.c ****         asm volatile ("nop");
 3147              		.loc 1 252 18 view .LVU1066
 252:patchouli/src/patchouli_bsp_tx.c ****         asm volatile ("nop");
 3148              		.loc 1 252 18 view .LVU1067
ARM GAS  C:\Users\Nathan\AppData\Local\Temp\ccnBuMFp.s 			page 67


 252:patchouli/src/patchouli_bsp_tx.c ****         asm volatile ("nop");
 3149              		.loc 1 252 27 view .LVU1068
 252:patchouli/src/patchouli_bsp_tx.c ****         asm volatile ("nop");
 3150              		.loc 1 252 27 view .LVU1069
 252:patchouli/src/patchouli_bsp_tx.c ****         asm volatile ("nop");
 3151              		.loc 1 252 27 view .LVU1070
 3152              	@ 252 "patchouli/src/patchouli_bsp_tx.c" 1
 3153 0040 00BF     		nop
 3154 0042 00BF     	nop
 3155 0044 00BF     	nop
 3156 0046 00BF     	nop
 3157 0048 00BF     	nop
 3158              	@ 0 "" 2
 252:patchouli/src/patchouli_bsp_tx.c ****         asm volatile ("nop");
 3159              		.loc 1 252 27 view .LVU1071
 252:patchouli/src/patchouli_bsp_tx.c ****         asm volatile ("nop");
 3160              		.loc 1 252 27 view .LVU1072
 252:patchouli/src/patchouli_bsp_tx.c ****         asm volatile ("nop");
 3161              		.loc 1 252 27 view .LVU1073
 3162              	@ 252 "patchouli/src/patchouli_bsp_tx.c" 1
 3163 004a 00BF     		nop
 3164 004c 00BF     	nop
 3165 004e 00BF     	nop
 3166 0050 00BF     	nop
 3167 0052 00BF     	nop
 3168              	@ 0 "" 2
 252:patchouli/src/patchouli_bsp_tx.c ****         asm volatile ("nop");
 3169              		.loc 1 252 27 view .LVU1074
 252:patchouli/src/patchouli_bsp_tx.c ****         asm volatile ("nop");
 3170              		.loc 1 252 27 view .LVU1075
 252:patchouli/src/patchouli_bsp_tx.c ****         asm volatile ("nop");
 3171              		.loc 1 252 36 view .LVU1076
 252:patchouli/src/patchouli_bsp_tx.c ****         asm volatile ("nop");
 3172              		.loc 1 252 36 view .LVU1077
 252:patchouli/src/patchouli_bsp_tx.c ****         asm volatile ("nop");
 3173              		.loc 1 252 36 view .LVU1078
 3174              	@ 252 "patchouli/src/patchouli_bsp_tx.c" 1
 3175 0054 00BF     		nop
 3176 0056 00BF     	nop
 3177 0058 00BF     	nop
 3178 005a 00BF     	nop
 3179 005c 00BF     	nop
 3180              	@ 0 "" 2
 252:patchouli/src/patchouli_bsp_tx.c ****         asm volatile ("nop");
 3181              		.loc 1 252 36 view .LVU1079
 252:patchouli/src/patchouli_bsp_tx.c ****         asm volatile ("nop");
 3182              		.loc 1 252 36 view .LVU1080
 252:patchouli/src/patchouli_bsp_tx.c ****         asm volatile ("nop");
 3183              		.loc 1 252 36 view .LVU1081
 3184              	@ 252 "patchouli/src/patchouli_bsp_tx.c" 1
 3185 005e 00BF     		nop
 3186 0060 00BF     	nop
 3187 0062 00BF     	nop
 3188 0064 00BF     	nop
 3189 0066 00BF     	nop
 3190              	@ 0 "" 2
 252:patchouli/src/patchouli_bsp_tx.c ****         asm volatile ("nop");
ARM GAS  C:\Users\Nathan\AppData\Local\Temp\ccnBuMFp.s 			page 68


 3191              		.loc 1 252 36 view .LVU1082
 252:patchouli/src/patchouli_bsp_tx.c ****         asm volatile ("nop");
 3192              		.loc 1 252 36 view .LVU1083
 252:patchouli/src/patchouli_bsp_tx.c ****         asm volatile ("nop");
 3193              		.loc 1 252 45 view .LVU1084
 252:patchouli/src/patchouli_bsp_tx.c ****         asm volatile ("nop");
 3194              		.loc 1 252 45 view .LVU1085
 252:patchouli/src/patchouli_bsp_tx.c ****         asm volatile ("nop");
 3195              		.loc 1 252 45 view .LVU1086
 3196              	@ 252 "patchouli/src/patchouli_bsp_tx.c" 1
 3197 0068 00BF     		nop
 3198 006a 00BF     	nop
 3199 006c 00BF     	nop
 3200 006e 00BF     	nop
 3201 0070 00BF     	nop
 3202              	@ 0 "" 2
 252:patchouli/src/patchouli_bsp_tx.c ****         asm volatile ("nop");
 3203              		.loc 1 252 45 view .LVU1087
 252:patchouli/src/patchouli_bsp_tx.c ****         asm volatile ("nop");
 3204              		.loc 1 252 45 view .LVU1088
 252:patchouli/src/patchouli_bsp_tx.c ****         asm volatile ("nop");
 3205              		.loc 1 252 45 view .LVU1089
 3206              	@ 252 "patchouli/src/patchouli_bsp_tx.c" 1
 3207 0072 00BF     		nop
 3208 0074 00BF     	nop
 3209 0076 00BF     	nop
 3210 0078 00BF     	nop
 3211 007a 00BF     	nop
 3212              	@ 0 "" 2
 252:patchouli/src/patchouli_bsp_tx.c ****         asm volatile ("nop");
 3213              		.loc 1 252 45 view .LVU1090
 252:patchouli/src/patchouli_bsp_tx.c ****         asm volatile ("nop");
 3214              		.loc 1 252 45 view .LVU1091
 252:patchouli/src/patchouli_bsp_tx.c ****         asm volatile ("nop");
 3215              		.loc 1 252 54 view .LVU1092
 252:patchouli/src/patchouli_bsp_tx.c ****         asm volatile ("nop");
 3216              		.loc 1 252 54 view .LVU1093
 252:patchouli/src/patchouli_bsp_tx.c ****         asm volatile ("nop");
 3217              		.loc 1 252 54 view .LVU1094
 3218              	@ 252 "patchouli/src/patchouli_bsp_tx.c" 1
 3219 007c 00BF     		nop
 3220 007e 00BF     	nop
 3221 0080 00BF     	nop
 3222 0082 00BF     	nop
 3223 0084 00BF     	nop
 3224              	@ 0 "" 2
 252:patchouli/src/patchouli_bsp_tx.c ****         asm volatile ("nop");
 3225              		.loc 1 252 54 view .LVU1095
 252:patchouli/src/patchouli_bsp_tx.c ****         asm volatile ("nop");
 3226              		.loc 1 252 54 view .LVU1096
 252:patchouli/src/patchouli_bsp_tx.c ****         asm volatile ("nop");
 3227              		.loc 1 252 54 view .LVU1097
 3228              	@ 252 "patchouli/src/patchouli_bsp_tx.c" 1
 3229 0086 00BF     		nop
 3230 0088 00BF     	nop
 3231 008a 00BF     	nop
 3232 008c 00BF     	nop
ARM GAS  C:\Users\Nathan\AppData\Local\Temp\ccnBuMFp.s 			page 69


 3233 008e 00BF     	nop
 3234              	@ 0 "" 2
 252:patchouli/src/patchouli_bsp_tx.c ****         asm volatile ("nop");
 3235              		.loc 1 252 54 view .LVU1098
 252:patchouli/src/patchouli_bsp_tx.c ****         asm volatile ("nop");
 3236              		.loc 1 252 54 view .LVU1099
 253:patchouli/src/patchouli_bsp_tx.c ****         PATCHOULI_TX_LOW();
 3237              		.loc 1 253 9 view .LVU1100
 3238              	@ 253 "patchouli/src/patchouli_bsp_tx.c" 1
 3239 0090 00BF     		nop
 3240              	@ 0 "" 2
 254:patchouli/src/patchouli_bsp_tx.c ****         // 50
 3241              		.loc 1 254 9 view .LVU1101
 254:patchouli/src/patchouli_bsp_tx.c ****         // 50
 3242              		.loc 1 254 9 view .LVU1102
 3243              		.thumb
 3244              		.syntax unified
 3245 0092 4FF48001 		mov	r1, #4194304
 3246 0096 9161     		str	r1, [r2, #24]
 254:patchouli/src/patchouli_bsp_tx.c ****         // 50
 3247              		.loc 1 254 9 view .LVU1103
 256:patchouli/src/patchouli_bsp_tx.c ****     }
 3248              		.loc 1 256 9 view .LVU1104
 256:patchouli/src/patchouli_bsp_tx.c ****     }
 3249              		.loc 1 256 9 view .LVU1105
 256:patchouli/src/patchouli_bsp_tx.c ****     }
 3250              		.loc 1 256 9 view .LVU1106
 3251              		.syntax unified
 3252              	@ 256 "patchouli/src/patchouli_bsp_tx.c" 1
 3253 0098 00BF     		nop
 3254 009a 00BF     	nop
 3255 009c 00BF     	nop
 3256 009e 00BF     	nop
 3257 00a0 00BF     	nop
 3258              	@ 0 "" 2
 256:patchouli/src/patchouli_bsp_tx.c ****     }
 3259              		.loc 1 256 9 view .LVU1107
 256:patchouli/src/patchouli_bsp_tx.c ****     }
 3260              		.loc 1 256 9 view .LVU1108
 256:patchouli/src/patchouli_bsp_tx.c ****     }
 3261              		.loc 1 256 9 view .LVU1109
 3262              	@ 256 "patchouli/src/patchouli_bsp_tx.c" 1
 3263 00a2 00BF     		nop
 3264 00a4 00BF     	nop
 3265 00a6 00BF     	nop
 3266 00a8 00BF     	nop
 3267 00aa 00BF     	nop
 3268              	@ 0 "" 2
 256:patchouli/src/patchouli_bsp_tx.c ****     }
 3269              		.loc 1 256 9 view .LVU1110
 256:patchouli/src/patchouli_bsp_tx.c ****     }
 3270              		.loc 1 256 9 view .LVU1111
 256:patchouli/src/patchouli_bsp_tx.c ****     }
 3271              		.loc 1 256 18 view .LVU1112
 256:patchouli/src/patchouli_bsp_tx.c ****     }
 3272              		.loc 1 256 18 view .LVU1113
 256:patchouli/src/patchouli_bsp_tx.c ****     }
ARM GAS  C:\Users\Nathan\AppData\Local\Temp\ccnBuMFp.s 			page 70


 3273              		.loc 1 256 18 view .LVU1114
 3274              	@ 256 "patchouli/src/patchouli_bsp_tx.c" 1
 3275 00ac 00BF     		nop
 3276 00ae 00BF     	nop
 3277 00b0 00BF     	nop
 3278 00b2 00BF     	nop
 3279 00b4 00BF     	nop
 3280              	@ 0 "" 2
 256:patchouli/src/patchouli_bsp_tx.c ****     }
 3281              		.loc 1 256 18 view .LVU1115
 256:patchouli/src/patchouli_bsp_tx.c ****     }
 3282              		.loc 1 256 18 view .LVU1116
 256:patchouli/src/patchouli_bsp_tx.c ****     }
 3283              		.loc 1 256 18 view .LVU1117
 3284              	@ 256 "patchouli/src/patchouli_bsp_tx.c" 1
 3285 00b6 00BF     		nop
 3286 00b8 00BF     	nop
 3287 00ba 00BF     	nop
 3288 00bc 00BF     	nop
 3289 00be 00BF     	nop
 3290              	@ 0 "" 2
 256:patchouli/src/patchouli_bsp_tx.c ****     }
 3291              		.loc 1 256 18 view .LVU1118
 256:patchouli/src/patchouli_bsp_tx.c ****     }
 3292              		.loc 1 256 18 view .LVU1119
 256:patchouli/src/patchouli_bsp_tx.c ****     }
 3293              		.loc 1 256 27 view .LVU1120
 256:patchouli/src/patchouli_bsp_tx.c ****     }
 3294              		.loc 1 256 27 view .LVU1121
 256:patchouli/src/patchouli_bsp_tx.c ****     }
 3295              		.loc 1 256 27 view .LVU1122
 3296              	@ 256 "patchouli/src/patchouli_bsp_tx.c" 1
 3297 00c0 00BF     		nop
 3298 00c2 00BF     	nop
 3299 00c4 00BF     	nop
 3300 00c6 00BF     	nop
 3301 00c8 00BF     	nop
 3302              	@ 0 "" 2
 256:patchouli/src/patchouli_bsp_tx.c ****     }
 3303              		.loc 1 256 27 view .LVU1123
 256:patchouli/src/patchouli_bsp_tx.c ****     }
 3304              		.loc 1 256 27 view .LVU1124
 256:patchouli/src/patchouli_bsp_tx.c ****     }
 3305              		.loc 1 256 27 view .LVU1125
 3306              	@ 256 "patchouli/src/patchouli_bsp_tx.c" 1
 3307 00ca 00BF     		nop
 3308 00cc 00BF     	nop
 3309 00ce 00BF     	nop
 3310 00d0 00BF     	nop
 3311 00d2 00BF     	nop
 3312              	@ 0 "" 2
 256:patchouli/src/patchouli_bsp_tx.c ****     }
 3313              		.loc 1 256 27 view .LVU1126
 256:patchouli/src/patchouli_bsp_tx.c ****     }
 3314              		.loc 1 256 27 view .LVU1127
 256:patchouli/src/patchouli_bsp_tx.c ****     }
 3315              		.loc 1 256 36 view .LVU1128
ARM GAS  C:\Users\Nathan\AppData\Local\Temp\ccnBuMFp.s 			page 71


 256:patchouli/src/patchouli_bsp_tx.c ****     }
 3316              		.loc 1 256 36 view .LVU1129
 256:patchouli/src/patchouli_bsp_tx.c ****     }
 3317              		.loc 1 256 36 view .LVU1130
 3318              	@ 256 "patchouli/src/patchouli_bsp_tx.c" 1
 3319 00d4 00BF     		nop
 3320 00d6 00BF     	nop
 3321 00d8 00BF     	nop
 3322 00da 00BF     	nop
 3323 00dc 00BF     	nop
 3324              	@ 0 "" 2
 256:patchouli/src/patchouli_bsp_tx.c ****     }
 3325              		.loc 1 256 36 view .LVU1131
 256:patchouli/src/patchouli_bsp_tx.c ****     }
 3326              		.loc 1 256 36 view .LVU1132
 256:patchouli/src/patchouli_bsp_tx.c ****     }
 3327              		.loc 1 256 36 view .LVU1133
 3328              	@ 256 "patchouli/src/patchouli_bsp_tx.c" 1
 3329 00de 00BF     		nop
 3330 00e0 00BF     	nop
 3331 00e2 00BF     	nop
 3332 00e4 00BF     	nop
 3333 00e6 00BF     	nop
 3334              	@ 0 "" 2
 256:patchouli/src/patchouli_bsp_tx.c ****     }
 3335              		.loc 1 256 36 view .LVU1134
 256:patchouli/src/patchouli_bsp_tx.c ****     }
 3336              		.loc 1 256 36 view .LVU1135
 256:patchouli/src/patchouli_bsp_tx.c ****     }
 3337              		.loc 1 256 45 view .LVU1136
 256:patchouli/src/patchouli_bsp_tx.c ****     }
 3338              		.loc 1 256 45 view .LVU1137
 256:patchouli/src/patchouli_bsp_tx.c ****     }
 3339              		.loc 1 256 45 view .LVU1138
 3340              	@ 256 "patchouli/src/patchouli_bsp_tx.c" 1
 3341 00e8 00BF     		nop
 3342 00ea 00BF     	nop
 3343 00ec 00BF     	nop
 3344 00ee 00BF     	nop
 3345 00f0 00BF     	nop
 3346              	@ 0 "" 2
 256:patchouli/src/patchouli_bsp_tx.c ****     }
 3347              		.loc 1 256 45 view .LVU1139
 256:patchouli/src/patchouli_bsp_tx.c ****     }
 3348              		.loc 1 256 45 view .LVU1140
 256:patchouli/src/patchouli_bsp_tx.c ****     }
 3349              		.loc 1 256 45 view .LVU1141
 3350              	@ 256 "patchouli/src/patchouli_bsp_tx.c" 1
 3351 00f2 00BF     		nop
 3352 00f4 00BF     	nop
 3353 00f6 00BF     	nop
 3354 00f8 00BF     	nop
 3355 00fa 00BF     	nop
 3356              	@ 0 "" 2
 256:patchouli/src/patchouli_bsp_tx.c ****     }
 3357              		.loc 1 256 45 view .LVU1142
 256:patchouli/src/patchouli_bsp_tx.c ****     }
ARM GAS  C:\Users\Nathan\AppData\Local\Temp\ccnBuMFp.s 			page 72


 3358              		.loc 1 256 45 view .LVU1143
 249:patchouli/src/patchouli_bsp_tx.c ****         PATCHOULI_TX_HIGH();
 3359              		.loc 1 249 26 discriminator 3 view .LVU1144
 3360              		.thumb
 3361              		.syntax unified
 3362 00fc 0133     		adds	r3, r3, #1
 3363              	.LVL47:
 249:patchouli/src/patchouli_bsp_tx.c ****         PATCHOULI_TX_HIGH();
 3364              		.loc 1 249 26 is_stmt 0 discriminator 3 view .LVU1145
 3365 00fe 9BB2     		uxth	r3, r3
 3366              	.LVL48:
 3367              	.L47:
 249:patchouli/src/patchouli_bsp_tx.c ****         PATCHOULI_TX_HIGH();
 3368              		.loc 1 249 16 is_stmt 1 discriminator 1 view .LVU1146
 3369 0100 9842     		cmp	r0, r3
 3370 0102 86D8     		bhi	.L48
 258:patchouli/src/patchouli_bsp_tx.c **** }
 3371              		.loc 1 258 5 view .LVU1147
 258:patchouli/src/patchouli_bsp_tx.c **** }
 3372              		.loc 1 258 5 view .LVU1148
 3373 0104 024A     		ldr	r2, .L49
 3374 0106 1368     		ldr	r3, [r2]
 3375              	.LVL49:
 258:patchouli/src/patchouli_bsp_tx.c **** }
 3376              		.loc 1 258 5 is_stmt 0 view .LVU1149
 3377 0108 23F44053 		bic	r3, r3, #12288
 3378 010c 1360     		str	r3, [r2]
 258:patchouli/src/patchouli_bsp_tx.c **** }
 3379              		.loc 1 258 5 is_stmt 1 view .LVU1150
 259:patchouli/src/patchouli_bsp_tx.c **** 
 3380              		.loc 1 259 1 is_stmt 0 view .LVU1151
 3381 010e 7047     		bx	lr
 3382              	.L50:
 3383              		.align	2
 3384              	.L49:
 3385 0110 00040048 		.word	1207960576
 3386 0114 00000000 		.word	patchouli_pen_pw100
 3387              		.cfi_endproc
 3388              	.LFE1419:
 3390              		.section	.text._PW100_FSTEP_525,"ax",%progbits
 3391              		.align	1
 3392              		.global	_PW100_FSTEP_525
 3393              		.syntax unified
 3394              		.thumb
 3395              		.thumb_func
 3397              	_PW100_FSTEP_525:
 3398              	.LFB1421:
 283:patchouli/src/patchouli_bsp_tx.c ****     // 525.5kHz
 3399              		.loc 1 283 28 is_stmt 1 view -0
 3400              		.cfi_startproc
 3401              		@ args = 0, pretend = 0, frame = 0
 3402              		@ frame_needed = 0, uses_anonymous_args = 0
 3403              		@ link register save eliminated.
 291:patchouli/src/patchouli_bsp_tx.c ****     const int ncycle = patchouli_pen_pw100.tx_ncycle;
 3404              		.loc 1 291 5 view .LVU1153
 291:patchouli/src/patchouli_bsp_tx.c ****     const int ncycle = patchouli_pen_pw100.tx_ncycle;
 3405              		.loc 1 291 5 view .LVU1154
ARM GAS  C:\Users\Nathan\AppData\Local\Temp\ccnBuMFp.s 			page 73


 3406 0000 424A     		ldr	r2, .L54
 3407 0002 1368     		ldr	r3, [r2]
 3408 0004 43F48053 		orr	r3, r3, #4096
 3409 0008 1360     		str	r3, [r2]
 291:patchouli/src/patchouli_bsp_tx.c ****     const int ncycle = patchouli_pen_pw100.tx_ncycle;
 3410              		.loc 1 291 5 view .LVU1155
 292:patchouli/src/patchouli_bsp_tx.c ****     uint16_t  i;
 3411              		.loc 1 292 5 view .LVU1156
 292:patchouli/src/patchouli_bsp_tx.c ****     uint16_t  i;
 3412              		.loc 1 292 43 is_stmt 0 view .LVU1157
 3413 000a 414B     		ldr	r3, .L54+4
 3414 000c 1889     		ldrh	r0, [r3, #8]
 3415              	.LVL50:
 293:patchouli/src/patchouli_bsp_tx.c ****     for (i=0; i<ncycle; i++){ // 3 cycles
 3416              		.loc 1 293 5 is_stmt 1 view .LVU1158
 294:patchouli/src/patchouli_bsp_tx.c ****         PATCHOULI_TX_HIGH();
 3417              		.loc 1 294 5 view .LVU1159
 294:patchouli/src/patchouli_bsp_tx.c ****         PATCHOULI_TX_HIGH();
 3418              		.loc 1 294 11 is_stmt 0 view .LVU1160
 3419 000e 0023     		movs	r3, #0
 294:patchouli/src/patchouli_bsp_tx.c ****         PATCHOULI_TX_HIGH();
 3420              		.loc 1 294 5 view .LVU1161
 3421 0010 74E0     		b	.L52
 3422              	.LVL51:
 3423              	.L53:
 295:patchouli/src/patchouli_bsp_tx.c ****         //60
 3424              		.loc 1 295 9 is_stmt 1 view .LVU1162
 295:patchouli/src/patchouli_bsp_tx.c ****         //60
 3425              		.loc 1 295 9 view .LVU1163
 3426 0012 3E4A     		ldr	r2, .L54
 3427 0014 4021     		movs	r1, #64
 3428 0016 9161     		str	r1, [r2, #24]
 295:patchouli/src/patchouli_bsp_tx.c ****         //60
 3429              		.loc 1 295 9 view .LVU1164
 297:patchouli/src/patchouli_bsp_tx.c ****         PATCHOULI_TX_LOW();
 3430              		.loc 1 297 9 view .LVU1165
 297:patchouli/src/patchouli_bsp_tx.c ****         PATCHOULI_TX_LOW();
 3431              		.loc 1 297 9 view .LVU1166
 297:patchouli/src/patchouli_bsp_tx.c ****         PATCHOULI_TX_LOW();
 3432              		.loc 1 297 9 view .LVU1167
 3433              		.syntax unified
 3434              	@ 297 "patchouli/src/patchouli_bsp_tx.c" 1
 3435 0018 00BF     		nop
 3436 001a 00BF     	nop
 3437 001c 00BF     	nop
 3438 001e 00BF     	nop
 3439 0020 00BF     	nop
 3440              	@ 0 "" 2
 297:patchouli/src/patchouli_bsp_tx.c ****         PATCHOULI_TX_LOW();
 3441              		.loc 1 297 9 view .LVU1168
 297:patchouli/src/patchouli_bsp_tx.c ****         PATCHOULI_TX_LOW();
 3442              		.loc 1 297 9 view .LVU1169
 297:patchouli/src/patchouli_bsp_tx.c ****         PATCHOULI_TX_LOW();
 3443              		.loc 1 297 9 view .LVU1170
 3444              	@ 297 "patchouli/src/patchouli_bsp_tx.c" 1
 3445 0022 00BF     		nop
 3446 0024 00BF     	nop
ARM GAS  C:\Users\Nathan\AppData\Local\Temp\ccnBuMFp.s 			page 74


 3447 0026 00BF     	nop
 3448 0028 00BF     	nop
 3449 002a 00BF     	nop
 3450              	@ 0 "" 2
 297:patchouli/src/patchouli_bsp_tx.c ****         PATCHOULI_TX_LOW();
 3451              		.loc 1 297 9 view .LVU1171
 297:patchouli/src/patchouli_bsp_tx.c ****         PATCHOULI_TX_LOW();
 3452              		.loc 1 297 9 view .LVU1172
 297:patchouli/src/patchouli_bsp_tx.c ****         PATCHOULI_TX_LOW();
 3453              		.loc 1 297 18 view .LVU1173
 297:patchouli/src/patchouli_bsp_tx.c ****         PATCHOULI_TX_LOW();
 3454              		.loc 1 297 18 view .LVU1174
 297:patchouli/src/patchouli_bsp_tx.c ****         PATCHOULI_TX_LOW();
 3455              		.loc 1 297 18 view .LVU1175
 3456              	@ 297 "patchouli/src/patchouli_bsp_tx.c" 1
 3457 002c 00BF     		nop
 3458 002e 00BF     	nop
 3459 0030 00BF     	nop
 3460 0032 00BF     	nop
 3461 0034 00BF     	nop
 3462              	@ 0 "" 2
 297:patchouli/src/patchouli_bsp_tx.c ****         PATCHOULI_TX_LOW();
 3463              		.loc 1 297 18 view .LVU1176
 297:patchouli/src/patchouli_bsp_tx.c ****         PATCHOULI_TX_LOW();
 3464              		.loc 1 297 18 view .LVU1177
 297:patchouli/src/patchouli_bsp_tx.c ****         PATCHOULI_TX_LOW();
 3465              		.loc 1 297 18 view .LVU1178
 3466              	@ 297 "patchouli/src/patchouli_bsp_tx.c" 1
 3467 0036 00BF     		nop
 3468 0038 00BF     	nop
 3469 003a 00BF     	nop
 3470 003c 00BF     	nop
 3471 003e 00BF     	nop
 3472              	@ 0 "" 2
 297:patchouli/src/patchouli_bsp_tx.c ****         PATCHOULI_TX_LOW();
 3473              		.loc 1 297 18 view .LVU1179
 297:patchouli/src/patchouli_bsp_tx.c ****         PATCHOULI_TX_LOW();
 3474              		.loc 1 297 18 view .LVU1180
 297:patchouli/src/patchouli_bsp_tx.c ****         PATCHOULI_TX_LOW();
 3475              		.loc 1 297 27 view .LVU1181
 297:patchouli/src/patchouli_bsp_tx.c ****         PATCHOULI_TX_LOW();
 3476              		.loc 1 297 27 view .LVU1182
 297:patchouli/src/patchouli_bsp_tx.c ****         PATCHOULI_TX_LOW();
 3477              		.loc 1 297 27 view .LVU1183
 3478              	@ 297 "patchouli/src/patchouli_bsp_tx.c" 1
 3479 0040 00BF     		nop
 3480 0042 00BF     	nop
 3481 0044 00BF     	nop
 3482 0046 00BF     	nop
 3483 0048 00BF     	nop
 3484              	@ 0 "" 2
 297:patchouli/src/patchouli_bsp_tx.c ****         PATCHOULI_TX_LOW();
 3485              		.loc 1 297 27 view .LVU1184
 297:patchouli/src/patchouli_bsp_tx.c ****         PATCHOULI_TX_LOW();
 3486              		.loc 1 297 27 view .LVU1185
 297:patchouli/src/patchouli_bsp_tx.c ****         PATCHOULI_TX_LOW();
 3487              		.loc 1 297 27 view .LVU1186
ARM GAS  C:\Users\Nathan\AppData\Local\Temp\ccnBuMFp.s 			page 75


 3488              	@ 297 "patchouli/src/patchouli_bsp_tx.c" 1
 3489 004a 00BF     		nop
 3490 004c 00BF     	nop
 3491 004e 00BF     	nop
 3492 0050 00BF     	nop
 3493 0052 00BF     	nop
 3494              	@ 0 "" 2
 297:patchouli/src/patchouli_bsp_tx.c ****         PATCHOULI_TX_LOW();
 3495              		.loc 1 297 27 view .LVU1187
 297:patchouli/src/patchouli_bsp_tx.c ****         PATCHOULI_TX_LOW();
 3496              		.loc 1 297 27 view .LVU1188
 297:patchouli/src/patchouli_bsp_tx.c ****         PATCHOULI_TX_LOW();
 3497              		.loc 1 297 36 view .LVU1189
 297:patchouli/src/patchouli_bsp_tx.c ****         PATCHOULI_TX_LOW();
 3498              		.loc 1 297 36 view .LVU1190
 297:patchouli/src/patchouli_bsp_tx.c ****         PATCHOULI_TX_LOW();
 3499              		.loc 1 297 36 view .LVU1191
 3500              	@ 297 "patchouli/src/patchouli_bsp_tx.c" 1
 3501 0054 00BF     		nop
 3502 0056 00BF     	nop
 3503 0058 00BF     	nop
 3504 005a 00BF     	nop
 3505 005c 00BF     	nop
 3506              	@ 0 "" 2
 297:patchouli/src/patchouli_bsp_tx.c ****         PATCHOULI_TX_LOW();
 3507              		.loc 1 297 36 view .LVU1192
 297:patchouli/src/patchouli_bsp_tx.c ****         PATCHOULI_TX_LOW();
 3508              		.loc 1 297 36 view .LVU1193
 297:patchouli/src/patchouli_bsp_tx.c ****         PATCHOULI_TX_LOW();
 3509              		.loc 1 297 36 view .LVU1194
 3510              	@ 297 "patchouli/src/patchouli_bsp_tx.c" 1
 3511 005e 00BF     		nop
 3512 0060 00BF     	nop
 3513 0062 00BF     	nop
 3514 0064 00BF     	nop
 3515 0066 00BF     	nop
 3516              	@ 0 "" 2
 297:patchouli/src/patchouli_bsp_tx.c ****         PATCHOULI_TX_LOW();
 3517              		.loc 1 297 36 view .LVU1195
 297:patchouli/src/patchouli_bsp_tx.c ****         PATCHOULI_TX_LOW();
 3518              		.loc 1 297 36 view .LVU1196
 297:patchouli/src/patchouli_bsp_tx.c ****         PATCHOULI_TX_LOW();
 3519              		.loc 1 297 45 view .LVU1197
 297:patchouli/src/patchouli_bsp_tx.c ****         PATCHOULI_TX_LOW();
 3520              		.loc 1 297 45 view .LVU1198
 297:patchouli/src/patchouli_bsp_tx.c ****         PATCHOULI_TX_LOW();
 3521              		.loc 1 297 45 view .LVU1199
 3522              	@ 297 "patchouli/src/patchouli_bsp_tx.c" 1
 3523 0068 00BF     		nop
 3524 006a 00BF     	nop
 3525 006c 00BF     	nop
 3526 006e 00BF     	nop
 3527 0070 00BF     	nop
 3528              	@ 0 "" 2
 297:patchouli/src/patchouli_bsp_tx.c ****         PATCHOULI_TX_LOW();
 3529              		.loc 1 297 45 view .LVU1200
 297:patchouli/src/patchouli_bsp_tx.c ****         PATCHOULI_TX_LOW();
ARM GAS  C:\Users\Nathan\AppData\Local\Temp\ccnBuMFp.s 			page 76


 3530              		.loc 1 297 45 view .LVU1201
 297:patchouli/src/patchouli_bsp_tx.c ****         PATCHOULI_TX_LOW();
 3531              		.loc 1 297 45 view .LVU1202
 3532              	@ 297 "patchouli/src/patchouli_bsp_tx.c" 1
 3533 0072 00BF     		nop
 3534 0074 00BF     	nop
 3535 0076 00BF     	nop
 3536 0078 00BF     	nop
 3537 007a 00BF     	nop
 3538              	@ 0 "" 2
 297:patchouli/src/patchouli_bsp_tx.c ****         PATCHOULI_TX_LOW();
 3539              		.loc 1 297 45 view .LVU1203
 297:patchouli/src/patchouli_bsp_tx.c ****         PATCHOULI_TX_LOW();
 3540              		.loc 1 297 45 view .LVU1204
 297:patchouli/src/patchouli_bsp_tx.c ****         PATCHOULI_TX_LOW();
 3541              		.loc 1 297 54 view .LVU1205
 297:patchouli/src/patchouli_bsp_tx.c ****         PATCHOULI_TX_LOW();
 3542              		.loc 1 297 54 view .LVU1206
 297:patchouli/src/patchouli_bsp_tx.c ****         PATCHOULI_TX_LOW();
 3543              		.loc 1 297 54 view .LVU1207
 3544              	@ 297 "patchouli/src/patchouli_bsp_tx.c" 1
 3545 007c 00BF     		nop
 3546 007e 00BF     	nop
 3547 0080 00BF     	nop
 3548 0082 00BF     	nop
 3549 0084 00BF     	nop
 3550              	@ 0 "" 2
 297:patchouli/src/patchouli_bsp_tx.c ****         PATCHOULI_TX_LOW();
 3551              		.loc 1 297 54 view .LVU1208
 297:patchouli/src/patchouli_bsp_tx.c ****         PATCHOULI_TX_LOW();
 3552              		.loc 1 297 54 view .LVU1209
 297:patchouli/src/patchouli_bsp_tx.c ****         PATCHOULI_TX_LOW();
 3553              		.loc 1 297 54 view .LVU1210
 3554              	@ 297 "patchouli/src/patchouli_bsp_tx.c" 1
 3555 0086 00BF     		nop
 3556 0088 00BF     	nop
 3557 008a 00BF     	nop
 3558 008c 00BF     	nop
 3559 008e 00BF     	nop
 3560              	@ 0 "" 2
 297:patchouli/src/patchouli_bsp_tx.c ****         PATCHOULI_TX_LOW();
 3561              		.loc 1 297 54 view .LVU1211
 297:patchouli/src/patchouli_bsp_tx.c ****         PATCHOULI_TX_LOW();
 3562              		.loc 1 297 54 view .LVU1212
 298:patchouli/src/patchouli_bsp_tx.c ****         //49
 3563              		.loc 1 298 9 view .LVU1213
 298:patchouli/src/patchouli_bsp_tx.c ****         //49
 3564              		.loc 1 298 9 view .LVU1214
 3565              		.thumb
 3566              		.syntax unified
 3567 0090 4FF48001 		mov	r1, #4194304
 3568 0094 9161     		str	r1, [r2, #24]
 298:patchouli/src/patchouli_bsp_tx.c ****         //49
 3569              		.loc 1 298 9 view .LVU1215
 300:patchouli/src/patchouli_bsp_tx.c ****         _5NOP();
 3570              		.loc 1 300 9 view .LVU1216
 300:patchouli/src/patchouli_bsp_tx.c ****         _5NOP();
ARM GAS  C:\Users\Nathan\AppData\Local\Temp\ccnBuMFp.s 			page 77


 3571              		.loc 1 300 9 view .LVU1217
 300:patchouli/src/patchouli_bsp_tx.c ****         _5NOP();
 3572              		.loc 1 300 9 view .LVU1218
 3573              		.syntax unified
 3574              	@ 300 "patchouli/src/patchouli_bsp_tx.c" 1
 3575 0096 00BF     		nop
 3576 0098 00BF     	nop
 3577 009a 00BF     	nop
 3578 009c 00BF     	nop
 3579 009e 00BF     	nop
 3580              	@ 0 "" 2
 300:patchouli/src/patchouli_bsp_tx.c ****         _5NOP();
 3581              		.loc 1 300 9 view .LVU1219
 300:patchouli/src/patchouli_bsp_tx.c ****         _5NOP();
 3582              		.loc 1 300 9 view .LVU1220
 300:patchouli/src/patchouli_bsp_tx.c ****         _5NOP();
 3583              		.loc 1 300 9 view .LVU1221
 3584              	@ 300 "patchouli/src/patchouli_bsp_tx.c" 1
 3585 00a0 00BF     		nop
 3586 00a2 00BF     	nop
 3587 00a4 00BF     	nop
 3588 00a6 00BF     	nop
 3589 00a8 00BF     	nop
 3590              	@ 0 "" 2
 300:patchouli/src/patchouli_bsp_tx.c ****         _5NOP();
 3591              		.loc 1 300 9 view .LVU1222
 300:patchouli/src/patchouli_bsp_tx.c ****         _5NOP();
 3592              		.loc 1 300 9 view .LVU1223
 300:patchouli/src/patchouli_bsp_tx.c ****         _5NOP();
 3593              		.loc 1 300 18 view .LVU1224
 300:patchouli/src/patchouli_bsp_tx.c ****         _5NOP();
 3594              		.loc 1 300 18 view .LVU1225
 300:patchouli/src/patchouli_bsp_tx.c ****         _5NOP();
 3595              		.loc 1 300 18 view .LVU1226
 3596              	@ 300 "patchouli/src/patchouli_bsp_tx.c" 1
 3597 00aa 00BF     		nop
 3598 00ac 00BF     	nop
 3599 00ae 00BF     	nop
 3600 00b0 00BF     	nop
 3601 00b2 00BF     	nop
 3602              	@ 0 "" 2
 300:patchouli/src/patchouli_bsp_tx.c ****         _5NOP();
 3603              		.loc 1 300 18 view .LVU1227
 300:patchouli/src/patchouli_bsp_tx.c ****         _5NOP();
 3604              		.loc 1 300 18 view .LVU1228
 300:patchouli/src/patchouli_bsp_tx.c ****         _5NOP();
 3605              		.loc 1 300 18 view .LVU1229
 3606              	@ 300 "patchouli/src/patchouli_bsp_tx.c" 1
 3607 00b4 00BF     		nop
 3608 00b6 00BF     	nop
 3609 00b8 00BF     	nop
 3610 00ba 00BF     	nop
 3611 00bc 00BF     	nop
 3612              	@ 0 "" 2
 300:patchouli/src/patchouli_bsp_tx.c ****         _5NOP();
 3613              		.loc 1 300 18 view .LVU1230
 300:patchouli/src/patchouli_bsp_tx.c ****         _5NOP();
ARM GAS  C:\Users\Nathan\AppData\Local\Temp\ccnBuMFp.s 			page 78


 3614              		.loc 1 300 18 view .LVU1231
 300:patchouli/src/patchouli_bsp_tx.c ****         _5NOP();
 3615              		.loc 1 300 27 view .LVU1232
 300:patchouli/src/patchouli_bsp_tx.c ****         _5NOP();
 3616              		.loc 1 300 27 view .LVU1233
 300:patchouli/src/patchouli_bsp_tx.c ****         _5NOP();
 3617              		.loc 1 300 27 view .LVU1234
 3618              	@ 300 "patchouli/src/patchouli_bsp_tx.c" 1
 3619 00be 00BF     		nop
 3620 00c0 00BF     	nop
 3621 00c2 00BF     	nop
 3622 00c4 00BF     	nop
 3623 00c6 00BF     	nop
 3624              	@ 0 "" 2
 300:patchouli/src/patchouli_bsp_tx.c ****         _5NOP();
 3625              		.loc 1 300 27 view .LVU1235
 300:patchouli/src/patchouli_bsp_tx.c ****         _5NOP();
 3626              		.loc 1 300 27 view .LVU1236
 300:patchouli/src/patchouli_bsp_tx.c ****         _5NOP();
 3627              		.loc 1 300 27 view .LVU1237
 3628              	@ 300 "patchouli/src/patchouli_bsp_tx.c" 1
 3629 00c8 00BF     		nop
 3630 00ca 00BF     	nop
 3631 00cc 00BF     	nop
 3632 00ce 00BF     	nop
 3633 00d0 00BF     	nop
 3634              	@ 0 "" 2
 300:patchouli/src/patchouli_bsp_tx.c ****         _5NOP();
 3635              		.loc 1 300 27 view .LVU1238
 300:patchouli/src/patchouli_bsp_tx.c ****         _5NOP();
 3636              		.loc 1 300 27 view .LVU1239
 300:patchouli/src/patchouli_bsp_tx.c ****         _5NOP();
 3637              		.loc 1 300 36 view .LVU1240
 300:patchouli/src/patchouli_bsp_tx.c ****         _5NOP();
 3638              		.loc 1 300 36 view .LVU1241
 300:patchouli/src/patchouli_bsp_tx.c ****         _5NOP();
 3639              		.loc 1 300 36 view .LVU1242
 3640              	@ 300 "patchouli/src/patchouli_bsp_tx.c" 1
 3641 00d2 00BF     		nop
 3642 00d4 00BF     	nop
 3643 00d6 00BF     	nop
 3644 00d8 00BF     	nop
 3645 00da 00BF     	nop
 3646              	@ 0 "" 2
 300:patchouli/src/patchouli_bsp_tx.c ****         _5NOP();
 3647              		.loc 1 300 36 view .LVU1243
 300:patchouli/src/patchouli_bsp_tx.c ****         _5NOP();
 3648              		.loc 1 300 36 view .LVU1244
 300:patchouli/src/patchouli_bsp_tx.c ****         _5NOP();
 3649              		.loc 1 300 36 view .LVU1245
 3650              	@ 300 "patchouli/src/patchouli_bsp_tx.c" 1
 3651 00dc 00BF     		nop
 3652 00de 00BF     	nop
 3653 00e0 00BF     	nop
 3654 00e2 00BF     	nop
 3655 00e4 00BF     	nop
 3656              	@ 0 "" 2
ARM GAS  C:\Users\Nathan\AppData\Local\Temp\ccnBuMFp.s 			page 79


 300:patchouli/src/patchouli_bsp_tx.c ****         _5NOP();
 3657              		.loc 1 300 36 view .LVU1246
 300:patchouli/src/patchouli_bsp_tx.c ****         _5NOP();
 3658              		.loc 1 300 36 view .LVU1247
 301:patchouli/src/patchouli_bsp_tx.c ****         asm volatile ("nop");
 3659              		.loc 1 301 9 view .LVU1248
 301:patchouli/src/patchouli_bsp_tx.c ****         asm volatile ("nop");
 3660              		.loc 1 301 9 view .LVU1249
 3661              	@ 301 "patchouli/src/patchouli_bsp_tx.c" 1
 3662 00e6 00BF     		nop
 3663 00e8 00BF     	nop
 3664 00ea 00BF     	nop
 3665 00ec 00BF     	nop
 3666 00ee 00BF     	nop
 3667              	@ 0 "" 2
 301:patchouli/src/patchouli_bsp_tx.c ****         asm volatile ("nop");
 3668              		.loc 1 301 9 view .LVU1250
 302:patchouli/src/patchouli_bsp_tx.c ****         asm volatile ("nop");
 3669              		.loc 1 302 9 view .LVU1251
 3670              	@ 302 "patchouli/src/patchouli_bsp_tx.c" 1
 3671 00f0 00BF     		nop
 3672              	@ 0 "" 2
 303:patchouli/src/patchouli_bsp_tx.c ****         asm volatile ("nop");
 3673              		.loc 1 303 9 view .LVU1252
 3674              	@ 303 "patchouli/src/patchouli_bsp_tx.c" 1
 3675 00f2 00BF     		nop
 3676              	@ 0 "" 2
 304:patchouli/src/patchouli_bsp_tx.c ****         asm volatile ("nop");
 3677              		.loc 1 304 9 view .LVU1253
 3678              	@ 304 "patchouli/src/patchouli_bsp_tx.c" 1
 3679 00f4 00BF     		nop
 3680              	@ 0 "" 2
 305:patchouli/src/patchouli_bsp_tx.c ****     }
 3681              		.loc 1 305 9 view .LVU1254
 3682              	@ 305 "patchouli/src/patchouli_bsp_tx.c" 1
 3683 00f6 00BF     		nop
 3684              	@ 0 "" 2
 294:patchouli/src/patchouli_bsp_tx.c ****         PATCHOULI_TX_HIGH();
 3685              		.loc 1 294 26 discriminator 3 view .LVU1255
 3686              		.thumb
 3687              		.syntax unified
 3688 00f8 0133     		adds	r3, r3, #1
 3689              	.LVL52:
 294:patchouli/src/patchouli_bsp_tx.c ****         PATCHOULI_TX_HIGH();
 3690              		.loc 1 294 26 is_stmt 0 discriminator 3 view .LVU1256
 3691 00fa 9BB2     		uxth	r3, r3
 3692              	.LVL53:
 3693              	.L52:
 294:patchouli/src/patchouli_bsp_tx.c ****         PATCHOULI_TX_HIGH();
 3694              		.loc 1 294 16 is_stmt 1 discriminator 1 view .LVU1257
 3695 00fc 9842     		cmp	r0, r3
 3696 00fe 88D8     		bhi	.L53
 307:patchouli/src/patchouli_bsp_tx.c **** }
 3697              		.loc 1 307 5 view .LVU1258
 307:patchouli/src/patchouli_bsp_tx.c **** }
 3698              		.loc 1 307 5 view .LVU1259
 3699 0100 024A     		ldr	r2, .L54
ARM GAS  C:\Users\Nathan\AppData\Local\Temp\ccnBuMFp.s 			page 80


 3700 0102 1368     		ldr	r3, [r2]
 3701              	.LVL54:
 307:patchouli/src/patchouli_bsp_tx.c **** }
 3702              		.loc 1 307 5 is_stmt 0 view .LVU1260
 3703 0104 23F44053 		bic	r3, r3, #12288
 3704 0108 1360     		str	r3, [r2]
 307:patchouli/src/patchouli_bsp_tx.c **** }
 3705              		.loc 1 307 5 is_stmt 1 view .LVU1261
 308:patchouli/src/patchouli_bsp_tx.c **** 
 3706              		.loc 1 308 1 is_stmt 0 view .LVU1262
 3707 010a 7047     		bx	lr
 3708              	.L55:
 3709              		.align	2
 3710              	.L54:
 3711 010c 00040048 		.word	1207960576
 3712 0110 00000000 		.word	patchouli_pen_pw100
 3713              		.cfi_endproc
 3714              	.LFE1421:
 3716              		.section	.text._PW100_FSTEP_545,"ax",%progbits
 3717              		.align	1
 3718              		.global	_PW100_FSTEP_545
 3719              		.syntax unified
 3720              		.thumb
 3721              		.thumb_func
 3723              	_PW100_FSTEP_545:
 3724              	.LFB1425:
 400:patchouli/src/patchouli_bsp_tx.c ****     // 545.3kHz
 3725              		.loc 1 400 28 is_stmt 1 view -0
 3726              		.cfi_startproc
 3727              		@ args = 0, pretend = 0, frame = 0
 3728              		@ frame_needed = 0, uses_anonymous_args = 0
 3729              		@ link register save eliminated.
 408:patchouli/src/patchouli_bsp_tx.c ****     const int ncycle = patchouli_pen_pw100.tx_ncycle;
 3730              		.loc 1 408 5 view .LVU1264
 408:patchouli/src/patchouli_bsp_tx.c ****     const int ncycle = patchouli_pen_pw100.tx_ncycle;
 3731              		.loc 1 408 5 view .LVU1265
 3732 0000 404A     		ldr	r2, .L59
 3733 0002 1368     		ldr	r3, [r2]
 3734 0004 43F48053 		orr	r3, r3, #4096
 3735 0008 1360     		str	r3, [r2]
 408:patchouli/src/patchouli_bsp_tx.c ****     const int ncycle = patchouli_pen_pw100.tx_ncycle;
 3736              		.loc 1 408 5 view .LVU1266
 409:patchouli/src/patchouli_bsp_tx.c ****     uint16_t  i;
 3737              		.loc 1 409 5 view .LVU1267
 409:patchouli/src/patchouli_bsp_tx.c ****     uint16_t  i;
 3738              		.loc 1 409 43 is_stmt 0 view .LVU1268
 3739 000a 3F4B     		ldr	r3, .L59+4
 3740 000c 1889     		ldrh	r0, [r3, #8]
 3741              	.LVL55:
 410:patchouli/src/patchouli_bsp_tx.c ****     for (i=0; i<ncycle; i++){ // 3 cycles
 3742              		.loc 1 410 5 is_stmt 1 view .LVU1269
 411:patchouli/src/patchouli_bsp_tx.c ****         PATCHOULI_TX_HIGH();
 3743              		.loc 1 411 5 view .LVU1270
 411:patchouli/src/patchouli_bsp_tx.c ****         PATCHOULI_TX_HIGH();
 3744              		.loc 1 411 11 is_stmt 0 view .LVU1271
 3745 000e 0023     		movs	r3, #0
 411:patchouli/src/patchouli_bsp_tx.c ****         PATCHOULI_TX_HIGH();
ARM GAS  C:\Users\Nathan\AppData\Local\Temp\ccnBuMFp.s 			page 81


 3746              		.loc 1 411 5 view .LVU1272
 3747 0010 6FE0     		b	.L57
 3748              	.LVL56:
 3749              	.L58:
 412:patchouli/src/patchouli_bsp_tx.c ****         // 57
 3750              		.loc 1 412 9 is_stmt 1 view .LVU1273
 412:patchouli/src/patchouli_bsp_tx.c ****         // 57
 3751              		.loc 1 412 9 view .LVU1274
 3752 0012 3C4A     		ldr	r2, .L59
 3753 0014 4021     		movs	r1, #64
 3754 0016 9161     		str	r1, [r2, #24]
 412:patchouli/src/patchouli_bsp_tx.c ****         // 57
 3755              		.loc 1 412 9 view .LVU1275
 414:patchouli/src/patchouli_bsp_tx.c ****         _5NOP();
 3756              		.loc 1 414 9 view .LVU1276
 414:patchouli/src/patchouli_bsp_tx.c ****         _5NOP();
 3757              		.loc 1 414 9 view .LVU1277
 414:patchouli/src/patchouli_bsp_tx.c ****         _5NOP();
 3758              		.loc 1 414 9 view .LVU1278
 3759              		.syntax unified
 3760              	@ 414 "patchouli/src/patchouli_bsp_tx.c" 1
 3761 0018 00BF     		nop
 3762 001a 00BF     	nop
 3763 001c 00BF     	nop
 3764 001e 00BF     	nop
 3765 0020 00BF     	nop
 3766              	@ 0 "" 2
 414:patchouli/src/patchouli_bsp_tx.c ****         _5NOP();
 3767              		.loc 1 414 9 view .LVU1279
 414:patchouli/src/patchouli_bsp_tx.c ****         _5NOP();
 3768              		.loc 1 414 9 view .LVU1280
 414:patchouli/src/patchouli_bsp_tx.c ****         _5NOP();
 3769              		.loc 1 414 9 view .LVU1281
 3770              	@ 414 "patchouli/src/patchouli_bsp_tx.c" 1
 3771 0022 00BF     		nop
 3772 0024 00BF     	nop
 3773 0026 00BF     	nop
 3774 0028 00BF     	nop
 3775 002a 00BF     	nop
 3776              	@ 0 "" 2
 414:patchouli/src/patchouli_bsp_tx.c ****         _5NOP();
 3777              		.loc 1 414 9 view .LVU1282
 414:patchouli/src/patchouli_bsp_tx.c ****         _5NOP();
 3778              		.loc 1 414 9 view .LVU1283
 414:patchouli/src/patchouli_bsp_tx.c ****         _5NOP();
 3779              		.loc 1 414 18 view .LVU1284
 414:patchouli/src/patchouli_bsp_tx.c ****         _5NOP();
 3780              		.loc 1 414 18 view .LVU1285
 414:patchouli/src/patchouli_bsp_tx.c ****         _5NOP();
 3781              		.loc 1 414 18 view .LVU1286
 3782              	@ 414 "patchouli/src/patchouli_bsp_tx.c" 1
 3783 002c 00BF     		nop
 3784 002e 00BF     	nop
 3785 0030 00BF     	nop
 3786 0032 00BF     	nop
 3787 0034 00BF     	nop
 3788              	@ 0 "" 2
ARM GAS  C:\Users\Nathan\AppData\Local\Temp\ccnBuMFp.s 			page 82


 414:patchouli/src/patchouli_bsp_tx.c ****         _5NOP();
 3789              		.loc 1 414 18 view .LVU1287
 414:patchouli/src/patchouli_bsp_tx.c ****         _5NOP();
 3790              		.loc 1 414 18 view .LVU1288
 414:patchouli/src/patchouli_bsp_tx.c ****         _5NOP();
 3791              		.loc 1 414 18 view .LVU1289
 3792              	@ 414 "patchouli/src/patchouli_bsp_tx.c" 1
 3793 0036 00BF     		nop
 3794 0038 00BF     	nop
 3795 003a 00BF     	nop
 3796 003c 00BF     	nop
 3797 003e 00BF     	nop
 3798              	@ 0 "" 2
 414:patchouli/src/patchouli_bsp_tx.c ****         _5NOP();
 3799              		.loc 1 414 18 view .LVU1290
 414:patchouli/src/patchouli_bsp_tx.c ****         _5NOP();
 3800              		.loc 1 414 18 view .LVU1291
 414:patchouli/src/patchouli_bsp_tx.c ****         _5NOP();
 3801              		.loc 1 414 27 view .LVU1292
 414:patchouli/src/patchouli_bsp_tx.c ****         _5NOP();
 3802              		.loc 1 414 27 view .LVU1293
 414:patchouli/src/patchouli_bsp_tx.c ****         _5NOP();
 3803              		.loc 1 414 27 view .LVU1294
 3804              	@ 414 "patchouli/src/patchouli_bsp_tx.c" 1
 3805 0040 00BF     		nop
 3806 0042 00BF     	nop
 3807 0044 00BF     	nop
 3808 0046 00BF     	nop
 3809 0048 00BF     	nop
 3810              	@ 0 "" 2
 414:patchouli/src/patchouli_bsp_tx.c ****         _5NOP();
 3811              		.loc 1 414 27 view .LVU1295
 414:patchouli/src/patchouli_bsp_tx.c ****         _5NOP();
 3812              		.loc 1 414 27 view .LVU1296
 414:patchouli/src/patchouli_bsp_tx.c ****         _5NOP();
 3813              		.loc 1 414 27 view .LVU1297
 3814              	@ 414 "patchouli/src/patchouli_bsp_tx.c" 1
 3815 004a 00BF     		nop
 3816 004c 00BF     	nop
 3817 004e 00BF     	nop
 3818 0050 00BF     	nop
 3819 0052 00BF     	nop
 3820              	@ 0 "" 2
 414:patchouli/src/patchouli_bsp_tx.c ****         _5NOP();
 3821              		.loc 1 414 27 view .LVU1298
 414:patchouli/src/patchouli_bsp_tx.c ****         _5NOP();
 3822              		.loc 1 414 27 view .LVU1299
 414:patchouli/src/patchouli_bsp_tx.c ****         _5NOP();
 3823              		.loc 1 414 36 view .LVU1300
 414:patchouli/src/patchouli_bsp_tx.c ****         _5NOP();
 3824              		.loc 1 414 36 view .LVU1301
 414:patchouli/src/patchouli_bsp_tx.c ****         _5NOP();
 3825              		.loc 1 414 36 view .LVU1302
 3826              	@ 414 "patchouli/src/patchouli_bsp_tx.c" 1
 3827 0054 00BF     		nop
 3828 0056 00BF     	nop
 3829 0058 00BF     	nop
ARM GAS  C:\Users\Nathan\AppData\Local\Temp\ccnBuMFp.s 			page 83


 3830 005a 00BF     	nop
 3831 005c 00BF     	nop
 3832              	@ 0 "" 2
 414:patchouli/src/patchouli_bsp_tx.c ****         _5NOP();
 3833              		.loc 1 414 36 view .LVU1303
 414:patchouli/src/patchouli_bsp_tx.c ****         _5NOP();
 3834              		.loc 1 414 36 view .LVU1304
 414:patchouli/src/patchouli_bsp_tx.c ****         _5NOP();
 3835              		.loc 1 414 36 view .LVU1305
 3836              	@ 414 "patchouli/src/patchouli_bsp_tx.c" 1
 3837 005e 00BF     		nop
 3838 0060 00BF     	nop
 3839 0062 00BF     	nop
 3840 0064 00BF     	nop
 3841 0066 00BF     	nop
 3842              	@ 0 "" 2
 414:patchouli/src/patchouli_bsp_tx.c ****         _5NOP();
 3843              		.loc 1 414 36 view .LVU1306
 414:patchouli/src/patchouli_bsp_tx.c ****         _5NOP();
 3844              		.loc 1 414 36 view .LVU1307
 414:patchouli/src/patchouli_bsp_tx.c ****         _5NOP();
 3845              		.loc 1 414 45 view .LVU1308
 414:patchouli/src/patchouli_bsp_tx.c ****         _5NOP();
 3846              		.loc 1 414 45 view .LVU1309
 414:patchouli/src/patchouli_bsp_tx.c ****         _5NOP();
 3847              		.loc 1 414 45 view .LVU1310
 3848              	@ 414 "patchouli/src/patchouli_bsp_tx.c" 1
 3849 0068 00BF     		nop
 3850 006a 00BF     	nop
 3851 006c 00BF     	nop
 3852 006e 00BF     	nop
 3853 0070 00BF     	nop
 3854              	@ 0 "" 2
 414:patchouli/src/patchouli_bsp_tx.c ****         _5NOP();
 3855              		.loc 1 414 45 view .LVU1311
 414:patchouli/src/patchouli_bsp_tx.c ****         _5NOP();
 3856              		.loc 1 414 45 view .LVU1312
 414:patchouli/src/patchouli_bsp_tx.c ****         _5NOP();
 3857              		.loc 1 414 45 view .LVU1313
 3858              	@ 414 "patchouli/src/patchouli_bsp_tx.c" 1
 3859 0072 00BF     		nop
 3860 0074 00BF     	nop
 3861 0076 00BF     	nop
 3862 0078 00BF     	nop
 3863 007a 00BF     	nop
 3864              	@ 0 "" 2
 414:patchouli/src/patchouli_bsp_tx.c ****         _5NOP();
 3865              		.loc 1 414 45 view .LVU1314
 414:patchouli/src/patchouli_bsp_tx.c ****         _5NOP();
 3866              		.loc 1 414 45 view .LVU1315
 415:patchouli/src/patchouli_bsp_tx.c ****         asm volatile ("nop");
 3867              		.loc 1 415 9 view .LVU1316
 415:patchouli/src/patchouli_bsp_tx.c ****         asm volatile ("nop");
 3868              		.loc 1 415 9 view .LVU1317
 3869              	@ 415 "patchouli/src/patchouli_bsp_tx.c" 1
 3870 007c 00BF     		nop
 3871 007e 00BF     	nop
ARM GAS  C:\Users\Nathan\AppData\Local\Temp\ccnBuMFp.s 			page 84


 3872 0080 00BF     	nop
 3873 0082 00BF     	nop
 3874 0084 00BF     	nop
 3875              	@ 0 "" 2
 415:patchouli/src/patchouli_bsp_tx.c ****         asm volatile ("nop");
 3876              		.loc 1 415 9 view .LVU1318
 416:patchouli/src/patchouli_bsp_tx.c ****         asm volatile ("nop");
 3877              		.loc 1 416 9 view .LVU1319
 3878              	@ 416 "patchouli/src/patchouli_bsp_tx.c" 1
 3879 0086 00BF     		nop
 3880              	@ 0 "" 2
 417:patchouli/src/patchouli_bsp_tx.c ****         PATCHOULI_TX_LOW();
 3881              		.loc 1 417 9 view .LVU1320
 3882              	@ 417 "patchouli/src/patchouli_bsp_tx.c" 1
 3883 0088 00BF     		nop
 3884              	@ 0 "" 2
 418:patchouli/src/patchouli_bsp_tx.c ****         // 47
 3885              		.loc 1 418 9 view .LVU1321
 418:patchouli/src/patchouli_bsp_tx.c ****         // 47
 3886              		.loc 1 418 9 view .LVU1322
 3887              		.thumb
 3888              		.syntax unified
 3889 008a 4FF48001 		mov	r1, #4194304
 3890 008e 9161     		str	r1, [r2, #24]
 418:patchouli/src/patchouli_bsp_tx.c ****         // 47
 3891              		.loc 1 418 9 view .LVU1323
 420:patchouli/src/patchouli_bsp_tx.c ****         _5NOP();
 3892              		.loc 1 420 9 view .LVU1324
 420:patchouli/src/patchouli_bsp_tx.c ****         _5NOP();
 3893              		.loc 1 420 9 view .LVU1325
 420:patchouli/src/patchouli_bsp_tx.c ****         _5NOP();
 3894              		.loc 1 420 9 view .LVU1326
 3895              		.syntax unified
 3896              	@ 420 "patchouli/src/patchouli_bsp_tx.c" 1
 3897 0090 00BF     		nop
 3898 0092 00BF     	nop
 3899 0094 00BF     	nop
 3900 0096 00BF     	nop
 3901 0098 00BF     	nop
 3902              	@ 0 "" 2
 420:patchouli/src/patchouli_bsp_tx.c ****         _5NOP();
 3903              		.loc 1 420 9 view .LVU1327
 420:patchouli/src/patchouli_bsp_tx.c ****         _5NOP();
 3904              		.loc 1 420 9 view .LVU1328
 420:patchouli/src/patchouli_bsp_tx.c ****         _5NOP();
 3905              		.loc 1 420 9 view .LVU1329
 3906              	@ 420 "patchouli/src/patchouli_bsp_tx.c" 1
 3907 009a 00BF     		nop
 3908 009c 00BF     	nop
 3909 009e 00BF     	nop
 3910 00a0 00BF     	nop
 3911 00a2 00BF     	nop
 3912              	@ 0 "" 2
 420:patchouli/src/patchouli_bsp_tx.c ****         _5NOP();
 3913              		.loc 1 420 9 view .LVU1330
 420:patchouli/src/patchouli_bsp_tx.c ****         _5NOP();
 3914              		.loc 1 420 9 view .LVU1331
ARM GAS  C:\Users\Nathan\AppData\Local\Temp\ccnBuMFp.s 			page 85


 420:patchouli/src/patchouli_bsp_tx.c ****         _5NOP();
 3915              		.loc 1 420 18 view .LVU1332
 420:patchouli/src/patchouli_bsp_tx.c ****         _5NOP();
 3916              		.loc 1 420 18 view .LVU1333
 420:patchouli/src/patchouli_bsp_tx.c ****         _5NOP();
 3917              		.loc 1 420 18 view .LVU1334
 3918              	@ 420 "patchouli/src/patchouli_bsp_tx.c" 1
 3919 00a4 00BF     		nop
 3920 00a6 00BF     	nop
 3921 00a8 00BF     	nop
 3922 00aa 00BF     	nop
 3923 00ac 00BF     	nop
 3924              	@ 0 "" 2
 420:patchouli/src/patchouli_bsp_tx.c ****         _5NOP();
 3925              		.loc 1 420 18 view .LVU1335
 420:patchouli/src/patchouli_bsp_tx.c ****         _5NOP();
 3926              		.loc 1 420 18 view .LVU1336
 420:patchouli/src/patchouli_bsp_tx.c ****         _5NOP();
 3927              		.loc 1 420 18 view .LVU1337
 3928              	@ 420 "patchouli/src/patchouli_bsp_tx.c" 1
 3929 00ae 00BF     		nop
 3930 00b0 00BF     	nop
 3931 00b2 00BF     	nop
 3932 00b4 00BF     	nop
 3933 00b6 00BF     	nop
 3934              	@ 0 "" 2
 420:patchouli/src/patchouli_bsp_tx.c ****         _5NOP();
 3935              		.loc 1 420 18 view .LVU1338
 420:patchouli/src/patchouli_bsp_tx.c ****         _5NOP();
 3936              		.loc 1 420 18 view .LVU1339
 420:patchouli/src/patchouli_bsp_tx.c ****         _5NOP();
 3937              		.loc 1 420 27 view .LVU1340
 420:patchouli/src/patchouli_bsp_tx.c ****         _5NOP();
 3938              		.loc 1 420 27 view .LVU1341
 420:patchouli/src/patchouli_bsp_tx.c ****         _5NOP();
 3939              		.loc 1 420 27 view .LVU1342
 3940              	@ 420 "patchouli/src/patchouli_bsp_tx.c" 1
 3941 00b8 00BF     		nop
 3942 00ba 00BF     	nop
 3943 00bc 00BF     	nop
 3944 00be 00BF     	nop
 3945 00c0 00BF     	nop
 3946              	@ 0 "" 2
 420:patchouli/src/patchouli_bsp_tx.c ****         _5NOP();
 3947              		.loc 1 420 27 view .LVU1343
 420:patchouli/src/patchouli_bsp_tx.c ****         _5NOP();
 3948              		.loc 1 420 27 view .LVU1344
 420:patchouli/src/patchouli_bsp_tx.c ****         _5NOP();
 3949              		.loc 1 420 27 view .LVU1345
 3950              	@ 420 "patchouli/src/patchouli_bsp_tx.c" 1
 3951 00c2 00BF     		nop
 3952 00c4 00BF     	nop
 3953 00c6 00BF     	nop
 3954 00c8 00BF     	nop
 3955 00ca 00BF     	nop
 3956              	@ 0 "" 2
 420:patchouli/src/patchouli_bsp_tx.c ****         _5NOP();
ARM GAS  C:\Users\Nathan\AppData\Local\Temp\ccnBuMFp.s 			page 86


 3957              		.loc 1 420 27 view .LVU1346
 420:patchouli/src/patchouli_bsp_tx.c ****         _5NOP();
 3958              		.loc 1 420 27 view .LVU1347
 420:patchouli/src/patchouli_bsp_tx.c ****         _5NOP();
 3959              		.loc 1 420 36 view .LVU1348
 420:patchouli/src/patchouli_bsp_tx.c ****         _5NOP();
 3960              		.loc 1 420 36 view .LVU1349
 420:patchouli/src/patchouli_bsp_tx.c ****         _5NOP();
 3961              		.loc 1 420 36 view .LVU1350
 3962              	@ 420 "patchouli/src/patchouli_bsp_tx.c" 1
 3963 00cc 00BF     		nop
 3964 00ce 00BF     	nop
 3965 00d0 00BF     	nop
 3966 00d2 00BF     	nop
 3967 00d4 00BF     	nop
 3968              	@ 0 "" 2
 420:patchouli/src/patchouli_bsp_tx.c ****         _5NOP();
 3969              		.loc 1 420 36 view .LVU1351
 420:patchouli/src/patchouli_bsp_tx.c ****         _5NOP();
 3970              		.loc 1 420 36 view .LVU1352
 420:patchouli/src/patchouli_bsp_tx.c ****         _5NOP();
 3971              		.loc 1 420 36 view .LVU1353
 3972              	@ 420 "patchouli/src/patchouli_bsp_tx.c" 1
 3973 00d6 00BF     		nop
 3974 00d8 00BF     	nop
 3975 00da 00BF     	nop
 3976 00dc 00BF     	nop
 3977 00de 00BF     	nop
 3978              	@ 0 "" 2
 420:patchouli/src/patchouli_bsp_tx.c ****         _5NOP();
 3979              		.loc 1 420 36 view .LVU1354
 420:patchouli/src/patchouli_bsp_tx.c ****         _5NOP();
 3980              		.loc 1 420 36 view .LVU1355
 421:patchouli/src/patchouli_bsp_tx.c ****         asm volatile ("nop");
 3981              		.loc 1 421 9 view .LVU1356
 421:patchouli/src/patchouli_bsp_tx.c ****         asm volatile ("nop");
 3982              		.loc 1 421 9 view .LVU1357
 3983              	@ 421 "patchouli/src/patchouli_bsp_tx.c" 1
 3984 00e0 00BF     		nop
 3985 00e2 00BF     	nop
 3986 00e4 00BF     	nop
 3987 00e6 00BF     	nop
 3988 00e8 00BF     	nop
 3989              	@ 0 "" 2
 421:patchouli/src/patchouli_bsp_tx.c ****         asm volatile ("nop");
 3990              		.loc 1 421 9 view .LVU1358
 422:patchouli/src/patchouli_bsp_tx.c ****         asm volatile ("nop");
 3991              		.loc 1 422 9 view .LVU1359
 3992              	@ 422 "patchouli/src/patchouli_bsp_tx.c" 1
 3993 00ea 00BF     		nop
 3994              	@ 0 "" 2
 423:patchouli/src/patchouli_bsp_tx.c ****     }
 3995              		.loc 1 423 9 view .LVU1360
 3996              	@ 423 "patchouli/src/patchouli_bsp_tx.c" 1
 3997 00ec 00BF     		nop
 3998              	@ 0 "" 2
 411:patchouli/src/patchouli_bsp_tx.c ****         PATCHOULI_TX_HIGH();
ARM GAS  C:\Users\Nathan\AppData\Local\Temp\ccnBuMFp.s 			page 87


 3999              		.loc 1 411 26 discriminator 3 view .LVU1361
 4000              		.thumb
 4001              		.syntax unified
 4002 00ee 0133     		adds	r3, r3, #1
 4003              	.LVL57:
 411:patchouli/src/patchouli_bsp_tx.c ****         PATCHOULI_TX_HIGH();
 4004              		.loc 1 411 26 is_stmt 0 discriminator 3 view .LVU1362
 4005 00f0 9BB2     		uxth	r3, r3
 4006              	.LVL58:
 4007              	.L57:
 411:patchouli/src/patchouli_bsp_tx.c ****         PATCHOULI_TX_HIGH();
 4008              		.loc 1 411 16 is_stmt 1 discriminator 1 view .LVU1363
 4009 00f2 9842     		cmp	r0, r3
 4010 00f4 8DD8     		bhi	.L58
 425:patchouli/src/patchouli_bsp_tx.c **** }
 4011              		.loc 1 425 5 view .LVU1364
 425:patchouli/src/patchouli_bsp_tx.c **** }
 4012              		.loc 1 425 5 view .LVU1365
 4013 00f6 034A     		ldr	r2, .L59
 4014 00f8 1368     		ldr	r3, [r2]
 4015              	.LVL59:
 425:patchouli/src/patchouli_bsp_tx.c **** }
 4016              		.loc 1 425 5 is_stmt 0 view .LVU1366
 4017 00fa 23F44053 		bic	r3, r3, #12288
 4018 00fe 1360     		str	r3, [r2]
 425:patchouli/src/patchouli_bsp_tx.c **** }
 4019              		.loc 1 425 5 is_stmt 1 view .LVU1367
 426:patchouli/src/patchouli_bsp_tx.c **** 
 4020              		.loc 1 426 1 is_stmt 0 view .LVU1368
 4021 0100 7047     		bx	lr
 4022              	.L60:
 4023 0102 00BF     		.align	2
 4024              	.L59:
 4025 0104 00040048 		.word	1207960576
 4026 0108 00000000 		.word	patchouli_pen_pw100
 4027              		.cfi_endproc
 4028              	.LFE1425:
 4030              		.global	patchouli_pen_pw100
 4031              		.section	.data.patchouli_pen_pw100,"aw"
 4032              		.align	2
 4035              	patchouli_pen_pw100:
 4036 0000 E001     		.short	480
 4037 0002 2602     		.short	550
 4038 0004 0A00     		.short	10
 4039 0006 08       		.byte	8
 4040 0007 00       		.space	1
 4041 0008 3200     		.short	50
 4042 000a 0000     		.space	2
 4043 000c 0024744C 		.word	1282679808
 4044 0010 00000000 		.word	patchouli_tx_fptr_table
 4045              		.global	patchouli_tx_fptr_table
 4046              		.section	.data.patchouli_tx_fptr_table,"aw"
 4047              		.align	2
 4050              	patchouli_tx_fptr_table:
 4051 0000 00000000 		.word	_PW100_FSTEP_480
 4052 0004 00000000 		.word	_PW100_FSTEP_490
 4053 0008 00000000 		.word	_PW100_FSTEP_510
ARM GAS  C:\Users\Nathan\AppData\Local\Temp\ccnBuMFp.s 			page 88


 4054 000c 00000000 		.word	_PW100_FSTEP_520
 4055 0010 00000000 		.word	_PW100_FSTEP_530
 4056 0014 00000000 		.word	_PW100_FSTEP_535
 4057 0018 00000000 		.word	_PW100_FSTEP_540
 4058 001c 00000000 		.word	_PW100_FSTEP_550
 4059              		.text
 4060              	.Letext0:
 4061              		.file 2 "C:/PROGRAM FILES (X86)/ARM GNU TOOLCHAIN ARM-NONE-EABI/13.3 REL1/arm-none-eabi/include/ma
 4062              		.file 3 "C:/PROGRAM FILES (X86)/ARM GNU TOOLCHAIN ARM-NONE-EABI/13.3 REL1/arm-none-eabi/include/sy
 4063              		.file 4 "patchouli/inc/patchouli_bsp_tx.h"
 4064              		.file 5 "Drivers/CMSIS/Device/ST/STM32WBxx/Include/stm32wb55xx.h"
 4065              		.file 6 "Core/Inc/app_conf.h"
ARM GAS  C:\Users\Nathan\AppData\Local\Temp\ccnBuMFp.s 			page 89

