ARM GAS  C:\Users\Nathan\AppData\Local\Temp\ccvsgOlc.s 			page 1


   1              		.cpu cortex-m4
   2              		.arch armv7e-m
   3              		.fpu fpv4-sp-d16
   4              		.eabi_attribute 27, 1
   5              		.eabi_attribute 28, 1
   6              		.eabi_attribute 20, 1
   7              		.eabi_attribute 21, 1
   8              		.eabi_attribute 23, 3
   9              		.eabi_attribute 24, 1
  10              		.eabi_attribute 25, 1
  11              		.eabi_attribute 26, 1
  12              		.eabi_attribute 30, 1
  13              		.eabi_attribute 34, 1
  14              		.eabi_attribute 18, 4
  15              		.file	"stm32wbxx_hal_pwr_ex.c"
  16              		.text
  17              	.Ltext0:
  18              		.cfi_sections	.debug_frame
  19              		.file 1 "Drivers/STM32WBxx_HAL_Driver/Src/stm32wbxx_hal_pwr_ex.c"
  20              		.section	.text.HAL_PWREx_GetVoltageRange,"ax",%progbits
  21              		.align	1
  22              		.global	HAL_PWREx_GetVoltageRange
  23              		.syntax unified
  24              		.thumb
  25              		.thumb_func
  27              	HAL_PWREx_GetVoltageRange:
  28              	.LFB1104:
   1:Drivers/STM32WBxx_HAL_Driver/Src/stm32wbxx_hal_pwr_ex.c **** /**
   2:Drivers/STM32WBxx_HAL_Driver/Src/stm32wbxx_hal_pwr_ex.c ****   ******************************************************************************
   3:Drivers/STM32WBxx_HAL_Driver/Src/stm32wbxx_hal_pwr_ex.c ****   * @file    stm32wbxx_hal_pwr_ex.c
   4:Drivers/STM32WBxx_HAL_Driver/Src/stm32wbxx_hal_pwr_ex.c ****   * @author  MCD Application Team
   5:Drivers/STM32WBxx_HAL_Driver/Src/stm32wbxx_hal_pwr_ex.c ****   * @brief   Extended PWR HAL module driver.
   6:Drivers/STM32WBxx_HAL_Driver/Src/stm32wbxx_hal_pwr_ex.c ****   *          This file provides firmware functions to manage the following
   7:Drivers/STM32WBxx_HAL_Driver/Src/stm32wbxx_hal_pwr_ex.c ****   *          functionalities of the Power Controller (PWR) peripheral:
   8:Drivers/STM32WBxx_HAL_Driver/Src/stm32wbxx_hal_pwr_ex.c ****   *           + Extended Initialization and de-initialization functions
   9:Drivers/STM32WBxx_HAL_Driver/Src/stm32wbxx_hal_pwr_ex.c ****   *           + Extended Peripheral Control functions
  10:Drivers/STM32WBxx_HAL_Driver/Src/stm32wbxx_hal_pwr_ex.c ****   *
  11:Drivers/STM32WBxx_HAL_Driver/Src/stm32wbxx_hal_pwr_ex.c ****   ******************************************************************************
  12:Drivers/STM32WBxx_HAL_Driver/Src/stm32wbxx_hal_pwr_ex.c ****   * @attention
  13:Drivers/STM32WBxx_HAL_Driver/Src/stm32wbxx_hal_pwr_ex.c ****   *
  14:Drivers/STM32WBxx_HAL_Driver/Src/stm32wbxx_hal_pwr_ex.c ****   * Copyright (c) 2019 STMicroelectronics.
  15:Drivers/STM32WBxx_HAL_Driver/Src/stm32wbxx_hal_pwr_ex.c ****   * All rights reserved.
  16:Drivers/STM32WBxx_HAL_Driver/Src/stm32wbxx_hal_pwr_ex.c ****   *
  17:Drivers/STM32WBxx_HAL_Driver/Src/stm32wbxx_hal_pwr_ex.c ****   * This software is licensed under terms that can be found in the LICENSE file
  18:Drivers/STM32WBxx_HAL_Driver/Src/stm32wbxx_hal_pwr_ex.c ****   * in the root directory of this software component.
  19:Drivers/STM32WBxx_HAL_Driver/Src/stm32wbxx_hal_pwr_ex.c ****   * If no LICENSE file comes with this software, it is provided AS-IS.
  20:Drivers/STM32WBxx_HAL_Driver/Src/stm32wbxx_hal_pwr_ex.c ****   *
  21:Drivers/STM32WBxx_HAL_Driver/Src/stm32wbxx_hal_pwr_ex.c ****   ******************************************************************************
  22:Drivers/STM32WBxx_HAL_Driver/Src/stm32wbxx_hal_pwr_ex.c ****   */
  23:Drivers/STM32WBxx_HAL_Driver/Src/stm32wbxx_hal_pwr_ex.c **** 
  24:Drivers/STM32WBxx_HAL_Driver/Src/stm32wbxx_hal_pwr_ex.c **** /* Includes ------------------------------------------------------------------*/
  25:Drivers/STM32WBxx_HAL_Driver/Src/stm32wbxx_hal_pwr_ex.c **** #include "stm32wbxx_hal.h"
  26:Drivers/STM32WBxx_HAL_Driver/Src/stm32wbxx_hal_pwr_ex.c **** 
  27:Drivers/STM32WBxx_HAL_Driver/Src/stm32wbxx_hal_pwr_ex.c **** /** @addtogroup STM32WBxx_HAL_Driver
  28:Drivers/STM32WBxx_HAL_Driver/Src/stm32wbxx_hal_pwr_ex.c ****   * @{
  29:Drivers/STM32WBxx_HAL_Driver/Src/stm32wbxx_hal_pwr_ex.c ****   */
  30:Drivers/STM32WBxx_HAL_Driver/Src/stm32wbxx_hal_pwr_ex.c **** 
ARM GAS  C:\Users\Nathan\AppData\Local\Temp\ccvsgOlc.s 			page 2


  31:Drivers/STM32WBxx_HAL_Driver/Src/stm32wbxx_hal_pwr_ex.c **** /** @addtogroup PWREx
  32:Drivers/STM32WBxx_HAL_Driver/Src/stm32wbxx_hal_pwr_ex.c ****   * @{
  33:Drivers/STM32WBxx_HAL_Driver/Src/stm32wbxx_hal_pwr_ex.c ****   */
  34:Drivers/STM32WBxx_HAL_Driver/Src/stm32wbxx_hal_pwr_ex.c **** 
  35:Drivers/STM32WBxx_HAL_Driver/Src/stm32wbxx_hal_pwr_ex.c **** #ifdef HAL_PWR_MODULE_ENABLED
  36:Drivers/STM32WBxx_HAL_Driver/Src/stm32wbxx_hal_pwr_ex.c **** 
  37:Drivers/STM32WBxx_HAL_Driver/Src/stm32wbxx_hal_pwr_ex.c **** /* Private typedef -----------------------------------------------------------*/
  38:Drivers/STM32WBxx_HAL_Driver/Src/stm32wbxx_hal_pwr_ex.c **** /* Private define ------------------------------------------------------------*/
  39:Drivers/STM32WBxx_HAL_Driver/Src/stm32wbxx_hal_pwr_ex.c **** /** @defgroup PWR_Extended_Private_Defines PWR Extended Private Defines
  40:Drivers/STM32WBxx_HAL_Driver/Src/stm32wbxx_hal_pwr_ex.c ****   * @{
  41:Drivers/STM32WBxx_HAL_Driver/Src/stm32wbxx_hal_pwr_ex.c ****   */
  42:Drivers/STM32WBxx_HAL_Driver/Src/stm32wbxx_hal_pwr_ex.c **** #define PWR_PORTE_AVAILABLE_PINS   (PWR_GPIO_BIT_4 | PWR_GPIO_BIT_3 | PWR_GPIO_BIT_2 | PWR_GPIO_BIT
  43:Drivers/STM32WBxx_HAL_Driver/Src/stm32wbxx_hal_pwr_ex.c **** #define PWR_PORTH_AVAILABLE_PINS   (PWR_GPIO_BIT_3 | PWR_GPIO_BIT_1 | PWR_GPIO_BIT_0)
  44:Drivers/STM32WBxx_HAL_Driver/Src/stm32wbxx_hal_pwr_ex.c **** 
  45:Drivers/STM32WBxx_HAL_Driver/Src/stm32wbxx_hal_pwr_ex.c **** /** @defgroup PWREx_TimeOut_Value PWR Extended Flag Setting Time Out Value
  46:Drivers/STM32WBxx_HAL_Driver/Src/stm32wbxx_hal_pwr_ex.c ****   * @{
  47:Drivers/STM32WBxx_HAL_Driver/Src/stm32wbxx_hal_pwr_ex.c ****   */
  48:Drivers/STM32WBxx_HAL_Driver/Src/stm32wbxx_hal_pwr_ex.c **** #define PWR_FLAG_SETTING_DELAY_US                      50U   /*!< Time out value for REGLPF and VOS
  49:Drivers/STM32WBxx_HAL_Driver/Src/stm32wbxx_hal_pwr_ex.c **** /**
  50:Drivers/STM32WBxx_HAL_Driver/Src/stm32wbxx_hal_pwr_ex.c ****   * @}
  51:Drivers/STM32WBxx_HAL_Driver/Src/stm32wbxx_hal_pwr_ex.c ****   */
  52:Drivers/STM32WBxx_HAL_Driver/Src/stm32wbxx_hal_pwr_ex.c **** 
  53:Drivers/STM32WBxx_HAL_Driver/Src/stm32wbxx_hal_pwr_ex.c **** /**
  54:Drivers/STM32WBxx_HAL_Driver/Src/stm32wbxx_hal_pwr_ex.c ****   * @}
  55:Drivers/STM32WBxx_HAL_Driver/Src/stm32wbxx_hal_pwr_ex.c ****   */
  56:Drivers/STM32WBxx_HAL_Driver/Src/stm32wbxx_hal_pwr_ex.c **** 
  57:Drivers/STM32WBxx_HAL_Driver/Src/stm32wbxx_hal_pwr_ex.c **** 
  58:Drivers/STM32WBxx_HAL_Driver/Src/stm32wbxx_hal_pwr_ex.c **** 
  59:Drivers/STM32WBxx_HAL_Driver/Src/stm32wbxx_hal_pwr_ex.c **** /* Private macro -------------------------------------------------------------*/
  60:Drivers/STM32WBxx_HAL_Driver/Src/stm32wbxx_hal_pwr_ex.c **** /* Private variables ---------------------------------------------------------*/
  61:Drivers/STM32WBxx_HAL_Driver/Src/stm32wbxx_hal_pwr_ex.c **** /* Private function prototypes -----------------------------------------------*/
  62:Drivers/STM32WBxx_HAL_Driver/Src/stm32wbxx_hal_pwr_ex.c **** /* Exported functions --------------------------------------------------------*/
  63:Drivers/STM32WBxx_HAL_Driver/Src/stm32wbxx_hal_pwr_ex.c **** /** @addtogroup PWREx_Exported_Functions PWR Extended Exported Functions
  64:Drivers/STM32WBxx_HAL_Driver/Src/stm32wbxx_hal_pwr_ex.c ****   * @{
  65:Drivers/STM32WBxx_HAL_Driver/Src/stm32wbxx_hal_pwr_ex.c ****   */
  66:Drivers/STM32WBxx_HAL_Driver/Src/stm32wbxx_hal_pwr_ex.c **** 
  67:Drivers/STM32WBxx_HAL_Driver/Src/stm32wbxx_hal_pwr_ex.c **** /** @addtogroup PWREx_Exported_Functions_Group1 Extended Peripheral Control functions
  68:Drivers/STM32WBxx_HAL_Driver/Src/stm32wbxx_hal_pwr_ex.c ****   *  @brief   Extended Peripheral Control functions
  69:Drivers/STM32WBxx_HAL_Driver/Src/stm32wbxx_hal_pwr_ex.c ****   *
  70:Drivers/STM32WBxx_HAL_Driver/Src/stm32wbxx_hal_pwr_ex.c **** @verbatim
  71:Drivers/STM32WBxx_HAL_Driver/Src/stm32wbxx_hal_pwr_ex.c ****  ===============================================================================
  72:Drivers/STM32WBxx_HAL_Driver/Src/stm32wbxx_hal_pwr_ex.c ****               ##### Extended Peripheral Initialization and de-initialization functions #####
  73:Drivers/STM32WBxx_HAL_Driver/Src/stm32wbxx_hal_pwr_ex.c ****  ===============================================================================
  74:Drivers/STM32WBxx_HAL_Driver/Src/stm32wbxx_hal_pwr_ex.c ****     [..]
  75:Drivers/STM32WBxx_HAL_Driver/Src/stm32wbxx_hal_pwr_ex.c **** 
  76:Drivers/STM32WBxx_HAL_Driver/Src/stm32wbxx_hal_pwr_ex.c **** @endverbatim
  77:Drivers/STM32WBxx_HAL_Driver/Src/stm32wbxx_hal_pwr_ex.c ****   * @{
  78:Drivers/STM32WBxx_HAL_Driver/Src/stm32wbxx_hal_pwr_ex.c ****   */
  79:Drivers/STM32WBxx_HAL_Driver/Src/stm32wbxx_hal_pwr_ex.c **** 
  80:Drivers/STM32WBxx_HAL_Driver/Src/stm32wbxx_hal_pwr_ex.c **** 
  81:Drivers/STM32WBxx_HAL_Driver/Src/stm32wbxx_hal_pwr_ex.c **** #if defined(PWR_CR1_VOS)
  82:Drivers/STM32WBxx_HAL_Driver/Src/stm32wbxx_hal_pwr_ex.c **** /**
  83:Drivers/STM32WBxx_HAL_Driver/Src/stm32wbxx_hal_pwr_ex.c ****   * @brief Return Voltage Scaling Range.
  84:Drivers/STM32WBxx_HAL_Driver/Src/stm32wbxx_hal_pwr_ex.c ****   * @retval VOS bit field (PWR_REGULATOR_VOLTAGE_RANGE1 or PWR_REGULATOR_VOLTAGE_RANGE2)
  85:Drivers/STM32WBxx_HAL_Driver/Src/stm32wbxx_hal_pwr_ex.c ****   */
  86:Drivers/STM32WBxx_HAL_Driver/Src/stm32wbxx_hal_pwr_ex.c **** uint32_t HAL_PWREx_GetVoltageRange(void)
  87:Drivers/STM32WBxx_HAL_Driver/Src/stm32wbxx_hal_pwr_ex.c **** {
ARM GAS  C:\Users\Nathan\AppData\Local\Temp\ccvsgOlc.s 			page 3


  29              		.loc 1 87 1 view -0
  30              		.cfi_startproc
  31              		@ args = 0, pretend = 0, frame = 0
  32              		@ frame_needed = 0, uses_anonymous_args = 0
  33              		@ link register save eliminated.
  88:Drivers/STM32WBxx_HAL_Driver/Src/stm32wbxx_hal_pwr_ex.c ****   return (PWR->CR1 & PWR_CR1_VOS);
  34              		.loc 1 88 3 view .LVU1
  35              		.loc 1 88 14 is_stmt 0 view .LVU2
  36 0000 024B     		ldr	r3, .L2
  37 0002 1868     		ldr	r0, [r3]
  89:Drivers/STM32WBxx_HAL_Driver/Src/stm32wbxx_hal_pwr_ex.c **** }
  38              		.loc 1 89 1 view .LVU3
  39 0004 00F4C060 		and	r0, r0, #1536
  40 0008 7047     		bx	lr
  41              	.L3:
  42 000a 00BF     		.align	2
  43              	.L2:
  44 000c 00040058 		.word	1476396032
  45              		.cfi_endproc
  46              	.LFE1104:
  48              		.section	.text.HAL_PWREx_ControlVoltageScaling,"ax",%progbits
  49              		.align	1
  50              		.global	HAL_PWREx_ControlVoltageScaling
  51              		.syntax unified
  52              		.thumb
  53              		.thumb_func
  55              	HAL_PWREx_ControlVoltageScaling:
  56              	.LVL0:
  57              	.LFB1105:
  90:Drivers/STM32WBxx_HAL_Driver/Src/stm32wbxx_hal_pwr_ex.c **** 
  91:Drivers/STM32WBxx_HAL_Driver/Src/stm32wbxx_hal_pwr_ex.c **** /**
  92:Drivers/STM32WBxx_HAL_Driver/Src/stm32wbxx_hal_pwr_ex.c ****   * @brief Configure the main internal regulator output voltage.
  93:Drivers/STM32WBxx_HAL_Driver/Src/stm32wbxx_hal_pwr_ex.c ****   * @param VoltageScaling specifies the regulator output voltage to achieve
  94:Drivers/STM32WBxx_HAL_Driver/Src/stm32wbxx_hal_pwr_ex.c ****   *         a tradeoff between performance and power consumption.
  95:Drivers/STM32WBxx_HAL_Driver/Src/stm32wbxx_hal_pwr_ex.c ****   *          This parameter can be one of the following values:
  96:Drivers/STM32WBxx_HAL_Driver/Src/stm32wbxx_hal_pwr_ex.c ****   *            @arg @ref PWR_REGULATOR_VOLTAGE_SCALE1 Regulator voltage output range 1 mode,
  97:Drivers/STM32WBxx_HAL_Driver/Src/stm32wbxx_hal_pwr_ex.c ****   *                                                typical output voltage at 1.2 V,
  98:Drivers/STM32WBxx_HAL_Driver/Src/stm32wbxx_hal_pwr_ex.c ****   *                                                system frequency up to 64 MHz.
  99:Drivers/STM32WBxx_HAL_Driver/Src/stm32wbxx_hal_pwr_ex.c ****   *            @arg @ref PWR_REGULATOR_VOLTAGE_SCALE2 Regulator voltage output range 2 mode,
 100:Drivers/STM32WBxx_HAL_Driver/Src/stm32wbxx_hal_pwr_ex.c ****   *                                                typical output voltage at 1.0 V,
 101:Drivers/STM32WBxx_HAL_Driver/Src/stm32wbxx_hal_pwr_ex.c ****   *                                                system frequency up to 16 MHz.
 102:Drivers/STM32WBxx_HAL_Driver/Src/stm32wbxx_hal_pwr_ex.c ****   * @note  When moving from Range 1 to Range 2, the system frequency must be decreased to
 103:Drivers/STM32WBxx_HAL_Driver/Src/stm32wbxx_hal_pwr_ex.c ****   *        a value below 16 MHz before calling HAL_PWREx_ControlVoltageScaling() API.
 104:Drivers/STM32WBxx_HAL_Driver/Src/stm32wbxx_hal_pwr_ex.c ****   *        When moving from Range 2 to Range 1, the system frequency can be increased to
 105:Drivers/STM32WBxx_HAL_Driver/Src/stm32wbxx_hal_pwr_ex.c ****   *        a value up to 64 MHz after calling HAL_PWREx_ControlVoltageScaling() API.
 106:Drivers/STM32WBxx_HAL_Driver/Src/stm32wbxx_hal_pwr_ex.c ****   * @note  When moving from Range 2 to Range 1, the API waits for VOSF flag to be
 107:Drivers/STM32WBxx_HAL_Driver/Src/stm32wbxx_hal_pwr_ex.c ****   *        cleared before returning the status. If the flag is not cleared within
 108:Drivers/STM32WBxx_HAL_Driver/Src/stm32wbxx_hal_pwr_ex.c ****   *        50 microseconds, HAL_TIMEOUT status is reported.
 109:Drivers/STM32WBxx_HAL_Driver/Src/stm32wbxx_hal_pwr_ex.c ****   * @retval HAL Status
 110:Drivers/STM32WBxx_HAL_Driver/Src/stm32wbxx_hal_pwr_ex.c ****   */
 111:Drivers/STM32WBxx_HAL_Driver/Src/stm32wbxx_hal_pwr_ex.c **** HAL_StatusTypeDef HAL_PWREx_ControlVoltageScaling(uint32_t VoltageScaling)
 112:Drivers/STM32WBxx_HAL_Driver/Src/stm32wbxx_hal_pwr_ex.c **** {
  58              		.loc 1 112 1 is_stmt 1 view -0
  59              		.cfi_startproc
  60              		@ args = 0, pretend = 0, frame = 0
  61              		@ frame_needed = 0, uses_anonymous_args = 0
  62              		@ link register save eliminated.
ARM GAS  C:\Users\Nathan\AppData\Local\Temp\ccvsgOlc.s 			page 4


 113:Drivers/STM32WBxx_HAL_Driver/Src/stm32wbxx_hal_pwr_ex.c ****   uint32_t wait_loop_index;
  63              		.loc 1 113 3 view .LVU5
 114:Drivers/STM32WBxx_HAL_Driver/Src/stm32wbxx_hal_pwr_ex.c **** 
 115:Drivers/STM32WBxx_HAL_Driver/Src/stm32wbxx_hal_pwr_ex.c ****   assert_param(IS_PWR_VOLTAGE_SCALING_RANGE(VoltageScaling));
  64              		.loc 1 115 3 view .LVU6
 116:Drivers/STM32WBxx_HAL_Driver/Src/stm32wbxx_hal_pwr_ex.c **** 
 117:Drivers/STM32WBxx_HAL_Driver/Src/stm32wbxx_hal_pwr_ex.c ****   /* If Set Range 1 */
 118:Drivers/STM32WBxx_HAL_Driver/Src/stm32wbxx_hal_pwr_ex.c ****   if (VoltageScaling == PWR_REGULATOR_VOLTAGE_SCALE1)
  65              		.loc 1 118 3 view .LVU7
  66              		.loc 1 118 6 is_stmt 0 view .LVU8
  67 0000 B0F5007F 		cmp	r0, #512
  68 0004 0FD0     		beq	.L13
 119:Drivers/STM32WBxx_HAL_Driver/Src/stm32wbxx_hal_pwr_ex.c ****   {
 120:Drivers/STM32WBxx_HAL_Driver/Src/stm32wbxx_hal_pwr_ex.c ****     if (READ_BIT(PWR->CR1, PWR_CR1_VOS) != PWR_REGULATOR_VOLTAGE_SCALE1)
 121:Drivers/STM32WBxx_HAL_Driver/Src/stm32wbxx_hal_pwr_ex.c ****     {
 122:Drivers/STM32WBxx_HAL_Driver/Src/stm32wbxx_hal_pwr_ex.c ****       /* Set Range 1 */
 123:Drivers/STM32WBxx_HAL_Driver/Src/stm32wbxx_hal_pwr_ex.c ****       MODIFY_REG(PWR->CR1, PWR_CR1_VOS, PWR_REGULATOR_VOLTAGE_SCALE1);
 124:Drivers/STM32WBxx_HAL_Driver/Src/stm32wbxx_hal_pwr_ex.c **** 
 125:Drivers/STM32WBxx_HAL_Driver/Src/stm32wbxx_hal_pwr_ex.c ****       /* Wait until VOSF is cleared */
 126:Drivers/STM32WBxx_HAL_Driver/Src/stm32wbxx_hal_pwr_ex.c ****       wait_loop_index = (PWR_FLAG_SETTING_DELAY_US * (SystemCoreClock / 1000000U));
 127:Drivers/STM32WBxx_HAL_Driver/Src/stm32wbxx_hal_pwr_ex.c ****       while ((HAL_IS_BIT_SET(PWR->SR2, PWR_SR2_VOSF)) && (wait_loop_index != 0U))
 128:Drivers/STM32WBxx_HAL_Driver/Src/stm32wbxx_hal_pwr_ex.c ****       {
 129:Drivers/STM32WBxx_HAL_Driver/Src/stm32wbxx_hal_pwr_ex.c ****         wait_loop_index--;
 130:Drivers/STM32WBxx_HAL_Driver/Src/stm32wbxx_hal_pwr_ex.c ****       }
 131:Drivers/STM32WBxx_HAL_Driver/Src/stm32wbxx_hal_pwr_ex.c ****       if (HAL_IS_BIT_SET(PWR->SR2, PWR_SR2_VOSF))
 132:Drivers/STM32WBxx_HAL_Driver/Src/stm32wbxx_hal_pwr_ex.c ****       {
 133:Drivers/STM32WBxx_HAL_Driver/Src/stm32wbxx_hal_pwr_ex.c ****         return HAL_TIMEOUT;
 134:Drivers/STM32WBxx_HAL_Driver/Src/stm32wbxx_hal_pwr_ex.c ****       }
 135:Drivers/STM32WBxx_HAL_Driver/Src/stm32wbxx_hal_pwr_ex.c ****     }
 136:Drivers/STM32WBxx_HAL_Driver/Src/stm32wbxx_hal_pwr_ex.c ****   }
 137:Drivers/STM32WBxx_HAL_Driver/Src/stm32wbxx_hal_pwr_ex.c ****   else
 138:Drivers/STM32WBxx_HAL_Driver/Src/stm32wbxx_hal_pwr_ex.c ****   {
 139:Drivers/STM32WBxx_HAL_Driver/Src/stm32wbxx_hal_pwr_ex.c ****     if (READ_BIT(PWR->CR1, PWR_CR1_VOS) != PWR_REGULATOR_VOLTAGE_SCALE2)
  69              		.loc 1 139 5 is_stmt 1 view .LVU9
  70              		.loc 1 139 9 is_stmt 0 view .LVU10
  71 0006 214B     		ldr	r3, .L14
  72 0008 1B68     		ldr	r3, [r3]
  73 000a 03F4C063 		and	r3, r3, #1536
  74              		.loc 1 139 8 view .LVU11
  75 000e B3F5806F 		cmp	r3, #1024
  76 0012 38D0     		beq	.L12
 140:Drivers/STM32WBxx_HAL_Driver/Src/stm32wbxx_hal_pwr_ex.c ****     {
 141:Drivers/STM32WBxx_HAL_Driver/Src/stm32wbxx_hal_pwr_ex.c ****       /* Set Range 2 */
 142:Drivers/STM32WBxx_HAL_Driver/Src/stm32wbxx_hal_pwr_ex.c ****       MODIFY_REG(PWR->CR1, PWR_CR1_VOS, PWR_REGULATOR_VOLTAGE_SCALE2);
  77              		.loc 1 142 7 is_stmt 1 view .LVU12
  78 0014 1D4A     		ldr	r2, .L14
  79 0016 1368     		ldr	r3, [r2]
  80 0018 23F4C063 		bic	r3, r3, #1536
  81 001c 43F48063 		orr	r3, r3, #1024
  82 0020 1360     		str	r3, [r2]
 143:Drivers/STM32WBxx_HAL_Driver/Src/stm32wbxx_hal_pwr_ex.c ****       /* No need to wait for VOSF to be cleared for this transition */
 144:Drivers/STM32WBxx_HAL_Driver/Src/stm32wbxx_hal_pwr_ex.c ****     }
 145:Drivers/STM32WBxx_HAL_Driver/Src/stm32wbxx_hal_pwr_ex.c ****   }
 146:Drivers/STM32WBxx_HAL_Driver/Src/stm32wbxx_hal_pwr_ex.c **** 
 147:Drivers/STM32WBxx_HAL_Driver/Src/stm32wbxx_hal_pwr_ex.c ****   return HAL_OK;
  83              		.loc 1 147 10 is_stmt 0 view .LVU13
  84 0022 0020     		movs	r0, #0
ARM GAS  C:\Users\Nathan\AppData\Local\Temp\ccvsgOlc.s 			page 5


  85              	.LVL1:
  86              		.loc 1 147 10 view .LVU14
  87 0024 7047     		bx	lr
  88              	.LVL2:
  89              	.L13:
 120:Drivers/STM32WBxx_HAL_Driver/Src/stm32wbxx_hal_pwr_ex.c ****     {
  90              		.loc 1 120 5 is_stmt 1 view .LVU15
 120:Drivers/STM32WBxx_HAL_Driver/Src/stm32wbxx_hal_pwr_ex.c ****     {
  91              		.loc 1 120 9 is_stmt 0 view .LVU16
  92 0026 194B     		ldr	r3, .L14
  93 0028 1B68     		ldr	r3, [r3]
  94 002a 03F4C063 		and	r3, r3, #1536
 120:Drivers/STM32WBxx_HAL_Driver/Src/stm32wbxx_hal_pwr_ex.c ****     {
  95              		.loc 1 120 8 view .LVU17
  96 002e B3F5007F 		cmp	r3, #512
  97 0032 24D0     		beq	.L10
 123:Drivers/STM32WBxx_HAL_Driver/Src/stm32wbxx_hal_pwr_ex.c **** 
  98              		.loc 1 123 7 is_stmt 1 view .LVU18
  99 0034 154A     		ldr	r2, .L14
 100 0036 1368     		ldr	r3, [r2]
 101 0038 23F4C063 		bic	r3, r3, #1536
 102 003c 43F40073 		orr	r3, r3, #512
 103 0040 1360     		str	r3, [r2]
 126:Drivers/STM32WBxx_HAL_Driver/Src/stm32wbxx_hal_pwr_ex.c ****       while ((HAL_IS_BIT_SET(PWR->SR2, PWR_SR2_VOSF)) && (wait_loop_index != 0U))
 104              		.loc 1 126 7 view .LVU19
 126:Drivers/STM32WBxx_HAL_Driver/Src/stm32wbxx_hal_pwr_ex.c ****       while ((HAL_IS_BIT_SET(PWR->SR2, PWR_SR2_VOSF)) && (wait_loop_index != 0U))
 105              		.loc 1 126 71 is_stmt 0 view .LVU20
 106 0042 134B     		ldr	r3, .L14+4
 107 0044 1B68     		ldr	r3, [r3]
 108 0046 A2F1A752 		sub	r2, r2, #350224384
 109 004a A2F58422 		sub	r2, r2, #270336
 110 004e A2F27D52 		subw	r2, r2, #1405
 111 0052 A2FB0323 		umull	r2, r3, r2, r3
 112 0056 9B0C     		lsrs	r3, r3, #18
 126:Drivers/STM32WBxx_HAL_Driver/Src/stm32wbxx_hal_pwr_ex.c ****       while ((HAL_IS_BIT_SET(PWR->SR2, PWR_SR2_VOSF)) && (wait_loop_index != 0U))
 113              		.loc 1 126 23 view .LVU21
 114 0058 3222     		movs	r2, #50
 115 005a 02FB03F3 		mul	r3, r2, r3
 116              	.LVL3:
 127:Drivers/STM32WBxx_HAL_Driver/Src/stm32wbxx_hal_pwr_ex.c ****       {
 117              		.loc 1 127 7 is_stmt 1 view .LVU22
 127:Drivers/STM32WBxx_HAL_Driver/Src/stm32wbxx_hal_pwr_ex.c ****       {
 118              		.loc 1 127 13 is_stmt 0 view .LVU23
 119 005e 00E0     		b	.L7
 120              	.L9:
 129:Drivers/STM32WBxx_HAL_Driver/Src/stm32wbxx_hal_pwr_ex.c ****       }
 121              		.loc 1 129 9 is_stmt 1 view .LVU24
 129:Drivers/STM32WBxx_HAL_Driver/Src/stm32wbxx_hal_pwr_ex.c ****       }
 122              		.loc 1 129 24 is_stmt 0 view .LVU25
 123 0060 013B     		subs	r3, r3, #1
 124              	.LVL4:
 125              	.L7:
 127:Drivers/STM32WBxx_HAL_Driver/Src/stm32wbxx_hal_pwr_ex.c ****       {
 126              		.loc 1 127 55 is_stmt 1 view .LVU26
 127:Drivers/STM32WBxx_HAL_Driver/Src/stm32wbxx_hal_pwr_ex.c ****       {
 127              		.loc 1 127 15 is_stmt 0 view .LVU27
 128 0062 0A4A     		ldr	r2, .L14
ARM GAS  C:\Users\Nathan\AppData\Local\Temp\ccvsgOlc.s 			page 6


 129 0064 5269     		ldr	r2, [r2, #20]
 127:Drivers/STM32WBxx_HAL_Driver/Src/stm32wbxx_hal_pwr_ex.c ****       {
 130              		.loc 1 127 55 view .LVU28
 131 0066 12F4806F 		tst	r2, #1024
 132 006a 01D0     		beq	.L8
 127:Drivers/STM32WBxx_HAL_Driver/Src/stm32wbxx_hal_pwr_ex.c ****       {
 133              		.loc 1 127 55 discriminator 1 view .LVU29
 134 006c 002B     		cmp	r3, #0
 135 006e F7D1     		bne	.L9
 136              	.L8:
 131:Drivers/STM32WBxx_HAL_Driver/Src/stm32wbxx_hal_pwr_ex.c ****       {
 137              		.loc 1 131 7 is_stmt 1 view .LVU30
 131:Drivers/STM32WBxx_HAL_Driver/Src/stm32wbxx_hal_pwr_ex.c ****       {
 138              		.loc 1 131 11 is_stmt 0 view .LVU31
 139 0070 064B     		ldr	r3, .L14
 140              	.LVL5:
 131:Drivers/STM32WBxx_HAL_Driver/Src/stm32wbxx_hal_pwr_ex.c ****       {
 141              		.loc 1 131 11 view .LVU32
 142 0072 5B69     		ldr	r3, [r3, #20]
 131:Drivers/STM32WBxx_HAL_Driver/Src/stm32wbxx_hal_pwr_ex.c ****       {
 143              		.loc 1 131 10 view .LVU33
 144 0074 13F4806F 		tst	r3, #1024
 145 0078 03D1     		bne	.L11
 146              		.loc 1 147 10 view .LVU34
 147 007a 0020     		movs	r0, #0
 148              	.LVL6:
 149              		.loc 1 147 10 view .LVU35
 150 007c 7047     		bx	lr
 151              	.LVL7:
 152              	.L10:
 153              		.loc 1 147 10 view .LVU36
 154 007e 0020     		movs	r0, #0
 155              	.LVL8:
 156              		.loc 1 147 10 view .LVU37
 157 0080 7047     		bx	lr
 158              	.LVL9:
 159              	.L11:
 133:Drivers/STM32WBxx_HAL_Driver/Src/stm32wbxx_hal_pwr_ex.c ****       }
 160              		.loc 1 133 16 view .LVU38
 161 0082 0320     		movs	r0, #3
 162              	.LVL10:
 133:Drivers/STM32WBxx_HAL_Driver/Src/stm32wbxx_hal_pwr_ex.c ****       }
 163              		.loc 1 133 16 view .LVU39
 164 0084 7047     		bx	lr
 165              	.LVL11:
 166              	.L12:
 167              		.loc 1 147 10 view .LVU40
 168 0086 0020     		movs	r0, #0
 169              	.LVL12:
 148:Drivers/STM32WBxx_HAL_Driver/Src/stm32wbxx_hal_pwr_ex.c **** }
 170              		.loc 1 148 1 view .LVU41
 171 0088 7047     		bx	lr
 172              	.L15:
 173 008a 00BF     		.align	2
 174              	.L14:
 175 008c 00040058 		.word	1476396032
 176 0090 00000000 		.word	SystemCoreClock
ARM GAS  C:\Users\Nathan\AppData\Local\Temp\ccvsgOlc.s 			page 7


 177              		.cfi_endproc
 178              	.LFE1105:
 180              		.section	.text.HAL_PWREx_EnableBatteryCharging,"ax",%progbits
 181              		.align	1
 182              		.global	HAL_PWREx_EnableBatteryCharging
 183              		.syntax unified
 184              		.thumb
 185              		.thumb_func
 187              	HAL_PWREx_EnableBatteryCharging:
 188              	.LVL13:
 189              	.LFB1106:
 149:Drivers/STM32WBxx_HAL_Driver/Src/stm32wbxx_hal_pwr_ex.c **** #endif /* PWR_CR1_VOS */
 150:Drivers/STM32WBxx_HAL_Driver/Src/stm32wbxx_hal_pwr_ex.c **** 
 151:Drivers/STM32WBxx_HAL_Driver/Src/stm32wbxx_hal_pwr_ex.c **** /****************************************************************************/
 152:Drivers/STM32WBxx_HAL_Driver/Src/stm32wbxx_hal_pwr_ex.c **** 
 153:Drivers/STM32WBxx_HAL_Driver/Src/stm32wbxx_hal_pwr_ex.c **** /**
 154:Drivers/STM32WBxx_HAL_Driver/Src/stm32wbxx_hal_pwr_ex.c ****   * @brief Enable battery charging.
 155:Drivers/STM32WBxx_HAL_Driver/Src/stm32wbxx_hal_pwr_ex.c ****   *        When VDD is present, charge the external battery on VBAT thru an internal resistor.
 156:Drivers/STM32WBxx_HAL_Driver/Src/stm32wbxx_hal_pwr_ex.c ****   * @param ResistorSelection specifies the resistor impedance.
 157:Drivers/STM32WBxx_HAL_Driver/Src/stm32wbxx_hal_pwr_ex.c ****   *          This parameter can be one of the following values:
 158:Drivers/STM32WBxx_HAL_Driver/Src/stm32wbxx_hal_pwr_ex.c ****   *            @arg @ref PWR_BATTERY_CHARGING_RESISTOR_5     5 kOhms resistor
 159:Drivers/STM32WBxx_HAL_Driver/Src/stm32wbxx_hal_pwr_ex.c ****   *            @arg @ref PWR_BATTERY_CHARGING_RESISTOR_1_5 1.5 kOhms resistor
 160:Drivers/STM32WBxx_HAL_Driver/Src/stm32wbxx_hal_pwr_ex.c ****   * @retval None
 161:Drivers/STM32WBxx_HAL_Driver/Src/stm32wbxx_hal_pwr_ex.c ****   */
 162:Drivers/STM32WBxx_HAL_Driver/Src/stm32wbxx_hal_pwr_ex.c **** void HAL_PWREx_EnableBatteryCharging(uint32_t ResistorSelection)
 163:Drivers/STM32WBxx_HAL_Driver/Src/stm32wbxx_hal_pwr_ex.c **** {
 190              		.loc 1 163 1 is_stmt 1 view -0
 191              		.cfi_startproc
 192              		@ args = 0, pretend = 0, frame = 0
 193              		@ frame_needed = 0, uses_anonymous_args = 0
 194              		@ link register save eliminated.
 164:Drivers/STM32WBxx_HAL_Driver/Src/stm32wbxx_hal_pwr_ex.c ****   assert_param(IS_PWR_BATTERY_RESISTOR_SELECT(ResistorSelection));
 195              		.loc 1 164 3 view .LVU43
 165:Drivers/STM32WBxx_HAL_Driver/Src/stm32wbxx_hal_pwr_ex.c **** 
 166:Drivers/STM32WBxx_HAL_Driver/Src/stm32wbxx_hal_pwr_ex.c ****   /* Specify resistor selection */
 167:Drivers/STM32WBxx_HAL_Driver/Src/stm32wbxx_hal_pwr_ex.c ****   MODIFY_REG(PWR->CR4, PWR_CR4_VBRS, ResistorSelection);
 196              		.loc 1 167 3 view .LVU44
 197 0000 054A     		ldr	r2, .L17
 198 0002 D368     		ldr	r3, [r2, #12]
 199 0004 23F40073 		bic	r3, r3, #512
 200 0008 0343     		orrs	r3, r3, r0
 201 000a D360     		str	r3, [r2, #12]
 168:Drivers/STM32WBxx_HAL_Driver/Src/stm32wbxx_hal_pwr_ex.c **** 
 169:Drivers/STM32WBxx_HAL_Driver/Src/stm32wbxx_hal_pwr_ex.c ****   /* Enable battery charging */
 170:Drivers/STM32WBxx_HAL_Driver/Src/stm32wbxx_hal_pwr_ex.c ****   SET_BIT(PWR->CR4, PWR_CR4_VBE);
 202              		.loc 1 170 3 view .LVU45
 203 000c D368     		ldr	r3, [r2, #12]
 204 000e 43F48073 		orr	r3, r3, #256
 205 0012 D360     		str	r3, [r2, #12]
 171:Drivers/STM32WBxx_HAL_Driver/Src/stm32wbxx_hal_pwr_ex.c **** }
 206              		.loc 1 171 1 is_stmt 0 view .LVU46
 207 0014 7047     		bx	lr
 208              	.L18:
 209 0016 00BF     		.align	2
 210              	.L17:
 211 0018 00040058 		.word	1476396032
 212              		.cfi_endproc
ARM GAS  C:\Users\Nathan\AppData\Local\Temp\ccvsgOlc.s 			page 8


 213              	.LFE1106:
 215              		.section	.text.HAL_PWREx_DisableBatteryCharging,"ax",%progbits
 216              		.align	1
 217              		.global	HAL_PWREx_DisableBatteryCharging
 218              		.syntax unified
 219              		.thumb
 220              		.thumb_func
 222              	HAL_PWREx_DisableBatteryCharging:
 223              	.LFB1107:
 172:Drivers/STM32WBxx_HAL_Driver/Src/stm32wbxx_hal_pwr_ex.c **** 
 173:Drivers/STM32WBxx_HAL_Driver/Src/stm32wbxx_hal_pwr_ex.c **** /**
 174:Drivers/STM32WBxx_HAL_Driver/Src/stm32wbxx_hal_pwr_ex.c ****   * @brief Disable battery charging.
 175:Drivers/STM32WBxx_HAL_Driver/Src/stm32wbxx_hal_pwr_ex.c ****   * @retval None
 176:Drivers/STM32WBxx_HAL_Driver/Src/stm32wbxx_hal_pwr_ex.c ****   */
 177:Drivers/STM32WBxx_HAL_Driver/Src/stm32wbxx_hal_pwr_ex.c **** void HAL_PWREx_DisableBatteryCharging(void)
 178:Drivers/STM32WBxx_HAL_Driver/Src/stm32wbxx_hal_pwr_ex.c **** {
 224              		.loc 1 178 1 is_stmt 1 view -0
 225              		.cfi_startproc
 226              		@ args = 0, pretend = 0, frame = 0
 227              		@ frame_needed = 0, uses_anonymous_args = 0
 228              		@ link register save eliminated.
 179:Drivers/STM32WBxx_HAL_Driver/Src/stm32wbxx_hal_pwr_ex.c ****   CLEAR_BIT(PWR->CR4, PWR_CR4_VBE);
 229              		.loc 1 179 3 view .LVU48
 230 0000 024A     		ldr	r2, .L20
 231 0002 D368     		ldr	r3, [r2, #12]
 232 0004 23F48073 		bic	r3, r3, #256
 233 0008 D360     		str	r3, [r2, #12]
 180:Drivers/STM32WBxx_HAL_Driver/Src/stm32wbxx_hal_pwr_ex.c **** }
 234              		.loc 1 180 1 is_stmt 0 view .LVU49
 235 000a 7047     		bx	lr
 236              	.L21:
 237              		.align	2
 238              	.L20:
 239 000c 00040058 		.word	1476396032
 240              		.cfi_endproc
 241              	.LFE1107:
 243              		.section	.text.HAL_PWREx_EnableVddUSB,"ax",%progbits
 244              		.align	1
 245              		.global	HAL_PWREx_EnableVddUSB
 246              		.syntax unified
 247              		.thumb
 248              		.thumb_func
 250              	HAL_PWREx_EnableVddUSB:
 251              	.LFB1108:
 181:Drivers/STM32WBxx_HAL_Driver/Src/stm32wbxx_hal_pwr_ex.c **** 
 182:Drivers/STM32WBxx_HAL_Driver/Src/stm32wbxx_hal_pwr_ex.c **** /****************************************************************************/
 183:Drivers/STM32WBxx_HAL_Driver/Src/stm32wbxx_hal_pwr_ex.c **** #if defined(PWR_CR2_PVME1)
 184:Drivers/STM32WBxx_HAL_Driver/Src/stm32wbxx_hal_pwr_ex.c **** /**
 185:Drivers/STM32WBxx_HAL_Driver/Src/stm32wbxx_hal_pwr_ex.c ****   * @brief Enable VDDUSB supply.
 186:Drivers/STM32WBxx_HAL_Driver/Src/stm32wbxx_hal_pwr_ex.c ****   * @note  Remove VDDUSB electrical and logical isolation, once VDDUSB supply is present.
 187:Drivers/STM32WBxx_HAL_Driver/Src/stm32wbxx_hal_pwr_ex.c ****   * @retval None
 188:Drivers/STM32WBxx_HAL_Driver/Src/stm32wbxx_hal_pwr_ex.c ****   */
 189:Drivers/STM32WBxx_HAL_Driver/Src/stm32wbxx_hal_pwr_ex.c **** void HAL_PWREx_EnableVddUSB(void)
 190:Drivers/STM32WBxx_HAL_Driver/Src/stm32wbxx_hal_pwr_ex.c **** {
 252              		.loc 1 190 1 is_stmt 1 view -0
 253              		.cfi_startproc
 254              		@ args = 0, pretend = 0, frame = 0
ARM GAS  C:\Users\Nathan\AppData\Local\Temp\ccvsgOlc.s 			page 9


 255              		@ frame_needed = 0, uses_anonymous_args = 0
 256              		@ link register save eliminated.
 191:Drivers/STM32WBxx_HAL_Driver/Src/stm32wbxx_hal_pwr_ex.c ****   SET_BIT(PWR->CR2, PWR_CR2_USV);
 257              		.loc 1 191 3 view .LVU51
 258 0000 024A     		ldr	r2, .L23
 259 0002 5368     		ldr	r3, [r2, #4]
 260 0004 43F48063 		orr	r3, r3, #1024
 261 0008 5360     		str	r3, [r2, #4]
 192:Drivers/STM32WBxx_HAL_Driver/Src/stm32wbxx_hal_pwr_ex.c **** }
 262              		.loc 1 192 1 is_stmt 0 view .LVU52
 263 000a 7047     		bx	lr
 264              	.L24:
 265              		.align	2
 266              	.L23:
 267 000c 00040058 		.word	1476396032
 268              		.cfi_endproc
 269              	.LFE1108:
 271              		.section	.text.HAL_PWREx_DisableVddUSB,"ax",%progbits
 272              		.align	1
 273              		.global	HAL_PWREx_DisableVddUSB
 274              		.syntax unified
 275              		.thumb
 276              		.thumb_func
 278              	HAL_PWREx_DisableVddUSB:
 279              	.LFB1109:
 193:Drivers/STM32WBxx_HAL_Driver/Src/stm32wbxx_hal_pwr_ex.c **** 
 194:Drivers/STM32WBxx_HAL_Driver/Src/stm32wbxx_hal_pwr_ex.c **** /**
 195:Drivers/STM32WBxx_HAL_Driver/Src/stm32wbxx_hal_pwr_ex.c ****   * @brief Disable VDDUSB supply.
 196:Drivers/STM32WBxx_HAL_Driver/Src/stm32wbxx_hal_pwr_ex.c ****   * @retval None
 197:Drivers/STM32WBxx_HAL_Driver/Src/stm32wbxx_hal_pwr_ex.c ****   */
 198:Drivers/STM32WBxx_HAL_Driver/Src/stm32wbxx_hal_pwr_ex.c **** void HAL_PWREx_DisableVddUSB(void)
 199:Drivers/STM32WBxx_HAL_Driver/Src/stm32wbxx_hal_pwr_ex.c **** {
 280              		.loc 1 199 1 is_stmt 1 view -0
 281              		.cfi_startproc
 282              		@ args = 0, pretend = 0, frame = 0
 283              		@ frame_needed = 0, uses_anonymous_args = 0
 284              		@ link register save eliminated.
 200:Drivers/STM32WBxx_HAL_Driver/Src/stm32wbxx_hal_pwr_ex.c ****   CLEAR_BIT(PWR->CR2, PWR_CR2_USV);
 285              		.loc 1 200 3 view .LVU54
 286 0000 024A     		ldr	r2, .L26
 287 0002 5368     		ldr	r3, [r2, #4]
 288 0004 23F48063 		bic	r3, r3, #1024
 289 0008 5360     		str	r3, [r2, #4]
 201:Drivers/STM32WBxx_HAL_Driver/Src/stm32wbxx_hal_pwr_ex.c **** }
 290              		.loc 1 201 1 is_stmt 0 view .LVU55
 291 000a 7047     		bx	lr
 292              	.L27:
 293              		.align	2
 294              	.L26:
 295 000c 00040058 		.word	1476396032
 296              		.cfi_endproc
 297              	.LFE1109:
 299              		.section	.text.HAL_PWREx_EnableInternalWakeUpLine,"ax",%progbits
 300              		.align	1
 301              		.global	HAL_PWREx_EnableInternalWakeUpLine
 302              		.syntax unified
 303              		.thumb
ARM GAS  C:\Users\Nathan\AppData\Local\Temp\ccvsgOlc.s 			page 10


 304              		.thumb_func
 306              	HAL_PWREx_EnableInternalWakeUpLine:
 307              	.LFB1110:
 202:Drivers/STM32WBxx_HAL_Driver/Src/stm32wbxx_hal_pwr_ex.c **** #endif /* PWR_CR2_PVME1 */
 203:Drivers/STM32WBxx_HAL_Driver/Src/stm32wbxx_hal_pwr_ex.c **** 
 204:Drivers/STM32WBxx_HAL_Driver/Src/stm32wbxx_hal_pwr_ex.c **** /****************************************************************************/
 205:Drivers/STM32WBxx_HAL_Driver/Src/stm32wbxx_hal_pwr_ex.c **** 
 206:Drivers/STM32WBxx_HAL_Driver/Src/stm32wbxx_hal_pwr_ex.c **** /**
 207:Drivers/STM32WBxx_HAL_Driver/Src/stm32wbxx_hal_pwr_ex.c ****   * @brief Enable Internal Wake-up Line.
 208:Drivers/STM32WBxx_HAL_Driver/Src/stm32wbxx_hal_pwr_ex.c ****   * @retval None
 209:Drivers/STM32WBxx_HAL_Driver/Src/stm32wbxx_hal_pwr_ex.c ****   */
 210:Drivers/STM32WBxx_HAL_Driver/Src/stm32wbxx_hal_pwr_ex.c **** void HAL_PWREx_EnableInternalWakeUpLine(void)
 211:Drivers/STM32WBxx_HAL_Driver/Src/stm32wbxx_hal_pwr_ex.c **** {
 308              		.loc 1 211 1 is_stmt 1 view -0
 309              		.cfi_startproc
 310              		@ args = 0, pretend = 0, frame = 0
 311              		@ frame_needed = 0, uses_anonymous_args = 0
 312              		@ link register save eliminated.
 212:Drivers/STM32WBxx_HAL_Driver/Src/stm32wbxx_hal_pwr_ex.c ****   SET_BIT(PWR->CR3, PWR_CR3_EIWUL);
 313              		.loc 1 212 3 view .LVU57
 314 0000 024A     		ldr	r2, .L29
 315 0002 9368     		ldr	r3, [r2, #8]
 316 0004 43F40043 		orr	r3, r3, #32768
 317 0008 9360     		str	r3, [r2, #8]
 213:Drivers/STM32WBxx_HAL_Driver/Src/stm32wbxx_hal_pwr_ex.c **** }
 318              		.loc 1 213 1 is_stmt 0 view .LVU58
 319 000a 7047     		bx	lr
 320              	.L30:
 321              		.align	2
 322              	.L29:
 323 000c 00040058 		.word	1476396032
 324              		.cfi_endproc
 325              	.LFE1110:
 327              		.section	.text.HAL_PWREx_DisableInternalWakeUpLine,"ax",%progbits
 328              		.align	1
 329              		.global	HAL_PWREx_DisableInternalWakeUpLine
 330              		.syntax unified
 331              		.thumb
 332              		.thumb_func
 334              	HAL_PWREx_DisableInternalWakeUpLine:
 335              	.LFB1111:
 214:Drivers/STM32WBxx_HAL_Driver/Src/stm32wbxx_hal_pwr_ex.c **** 
 215:Drivers/STM32WBxx_HAL_Driver/Src/stm32wbxx_hal_pwr_ex.c **** /**
 216:Drivers/STM32WBxx_HAL_Driver/Src/stm32wbxx_hal_pwr_ex.c ****   * @brief Disable Internal Wake-up Line.
 217:Drivers/STM32WBxx_HAL_Driver/Src/stm32wbxx_hal_pwr_ex.c ****   * @retval None
 218:Drivers/STM32WBxx_HAL_Driver/Src/stm32wbxx_hal_pwr_ex.c ****   */
 219:Drivers/STM32WBxx_HAL_Driver/Src/stm32wbxx_hal_pwr_ex.c **** void HAL_PWREx_DisableInternalWakeUpLine(void)
 220:Drivers/STM32WBxx_HAL_Driver/Src/stm32wbxx_hal_pwr_ex.c **** {
 336              		.loc 1 220 1 is_stmt 1 view -0
 337              		.cfi_startproc
 338              		@ args = 0, pretend = 0, frame = 0
 339              		@ frame_needed = 0, uses_anonymous_args = 0
 340              		@ link register save eliminated.
 221:Drivers/STM32WBxx_HAL_Driver/Src/stm32wbxx_hal_pwr_ex.c ****   CLEAR_BIT(PWR->CR3, PWR_CR3_EIWUL);
 341              		.loc 1 221 3 view .LVU60
 342 0000 024A     		ldr	r2, .L32
 343 0002 9368     		ldr	r3, [r2, #8]
ARM GAS  C:\Users\Nathan\AppData\Local\Temp\ccvsgOlc.s 			page 11


 344 0004 23F40043 		bic	r3, r3, #32768
 345 0008 9360     		str	r3, [r2, #8]
 222:Drivers/STM32WBxx_HAL_Driver/Src/stm32wbxx_hal_pwr_ex.c **** }
 346              		.loc 1 222 1 is_stmt 0 view .LVU61
 347 000a 7047     		bx	lr
 348              	.L33:
 349              		.align	2
 350              	.L32:
 351 000c 00040058 		.word	1476396032
 352              		.cfi_endproc
 353              	.LFE1111:
 355              		.section	.text.HAL_PWREx_EnableBORH_SMPSBypassIT,"ax",%progbits
 356              		.align	1
 357              		.global	HAL_PWREx_EnableBORH_SMPSBypassIT
 358              		.syntax unified
 359              		.thumb
 360              		.thumb_func
 362              	HAL_PWREx_EnableBORH_SMPSBypassIT:
 363              	.LFB1112:
 223:Drivers/STM32WBxx_HAL_Driver/Src/stm32wbxx_hal_pwr_ex.c **** 
 224:Drivers/STM32WBxx_HAL_Driver/Src/stm32wbxx_hal_pwr_ex.c **** #if defined(PWR_CR5_SMPSEN)
 225:Drivers/STM32WBxx_HAL_Driver/Src/stm32wbxx_hal_pwr_ex.c **** /**
 226:Drivers/STM32WBxx_HAL_Driver/Src/stm32wbxx_hal_pwr_ex.c ****   * @brief Enable BORH and SMPS step down converter forced in bypass mode
 227:Drivers/STM32WBxx_HAL_Driver/Src/stm32wbxx_hal_pwr_ex.c ****   *        interrupt for CPU1
 228:Drivers/STM32WBxx_HAL_Driver/Src/stm32wbxx_hal_pwr_ex.c ****   * @retval None
 229:Drivers/STM32WBxx_HAL_Driver/Src/stm32wbxx_hal_pwr_ex.c ****   */
 230:Drivers/STM32WBxx_HAL_Driver/Src/stm32wbxx_hal_pwr_ex.c **** void HAL_PWREx_EnableBORH_SMPSBypassIT(void)
 231:Drivers/STM32WBxx_HAL_Driver/Src/stm32wbxx_hal_pwr_ex.c **** {
 364              		.loc 1 231 1 is_stmt 1 view -0
 365              		.cfi_startproc
 366              		@ args = 0, pretend = 0, frame = 0
 367              		@ frame_needed = 0, uses_anonymous_args = 0
 368              		@ link register save eliminated.
 232:Drivers/STM32WBxx_HAL_Driver/Src/stm32wbxx_hal_pwr_ex.c ****   SET_BIT(PWR->CR3, PWR_CR3_EBORHSMPSFB);
 369              		.loc 1 232 3 view .LVU63
 370 0000 024A     		ldr	r2, .L35
 371 0002 9368     		ldr	r3, [r2, #8]
 372 0004 43F48073 		orr	r3, r3, #256
 373 0008 9360     		str	r3, [r2, #8]
 233:Drivers/STM32WBxx_HAL_Driver/Src/stm32wbxx_hal_pwr_ex.c **** }
 374              		.loc 1 233 1 is_stmt 0 view .LVU64
 375 000a 7047     		bx	lr
 376              	.L36:
 377              		.align	2
 378              	.L35:
 379 000c 00040058 		.word	1476396032
 380              		.cfi_endproc
 381              	.LFE1112:
 383              		.section	.text.HAL_PWREx_DisableBORH_SMPSBypassIT,"ax",%progbits
 384              		.align	1
 385              		.global	HAL_PWREx_DisableBORH_SMPSBypassIT
 386              		.syntax unified
 387              		.thumb
 388              		.thumb_func
 390              	HAL_PWREx_DisableBORH_SMPSBypassIT:
 391              	.LFB1113:
 234:Drivers/STM32WBxx_HAL_Driver/Src/stm32wbxx_hal_pwr_ex.c **** 
ARM GAS  C:\Users\Nathan\AppData\Local\Temp\ccvsgOlc.s 			page 12


 235:Drivers/STM32WBxx_HAL_Driver/Src/stm32wbxx_hal_pwr_ex.c **** /**
 236:Drivers/STM32WBxx_HAL_Driver/Src/stm32wbxx_hal_pwr_ex.c ****   * @brief Disable BORH and SMPS step down converter forced in bypass mode
 237:Drivers/STM32WBxx_HAL_Driver/Src/stm32wbxx_hal_pwr_ex.c ****   *        interrupt for CPU1
 238:Drivers/STM32WBxx_HAL_Driver/Src/stm32wbxx_hal_pwr_ex.c ****   * @retval None
 239:Drivers/STM32WBxx_HAL_Driver/Src/stm32wbxx_hal_pwr_ex.c ****   */
 240:Drivers/STM32WBxx_HAL_Driver/Src/stm32wbxx_hal_pwr_ex.c **** void HAL_PWREx_DisableBORH_SMPSBypassIT(void)
 241:Drivers/STM32WBxx_HAL_Driver/Src/stm32wbxx_hal_pwr_ex.c **** {
 392              		.loc 1 241 1 is_stmt 1 view -0
 393              		.cfi_startproc
 394              		@ args = 0, pretend = 0, frame = 0
 395              		@ frame_needed = 0, uses_anonymous_args = 0
 396              		@ link register save eliminated.
 242:Drivers/STM32WBxx_HAL_Driver/Src/stm32wbxx_hal_pwr_ex.c ****   CLEAR_BIT(PWR->CR3, PWR_CR3_EBORHSMPSFB);
 397              		.loc 1 242 3 view .LVU66
 398 0000 024A     		ldr	r2, .L38
 399 0002 9368     		ldr	r3, [r2, #8]
 400 0004 23F48073 		bic	r3, r3, #256
 401 0008 9360     		str	r3, [r2, #8]
 243:Drivers/STM32WBxx_HAL_Driver/Src/stm32wbxx_hal_pwr_ex.c **** }
 402              		.loc 1 243 1 is_stmt 0 view .LVU67
 403 000a 7047     		bx	lr
 404              	.L39:
 405              		.align	2
 406              	.L38:
 407 000c 00040058 		.word	1476396032
 408              		.cfi_endproc
 409              	.LFE1113:
 411              		.section	.text.HAL_PWREx_EnableRFPhaseIT,"ax",%progbits
 412              		.align	1
 413              		.global	HAL_PWREx_EnableRFPhaseIT
 414              		.syntax unified
 415              		.thumb
 416              		.thumb_func
 418              	HAL_PWREx_EnableRFPhaseIT:
 419              	.LFB1114:
 244:Drivers/STM32WBxx_HAL_Driver/Src/stm32wbxx_hal_pwr_ex.c **** #endif /* PWR_CR5_SMPSEN */
 245:Drivers/STM32WBxx_HAL_Driver/Src/stm32wbxx_hal_pwr_ex.c **** 
 246:Drivers/STM32WBxx_HAL_Driver/Src/stm32wbxx_hal_pwr_ex.c **** /**
 247:Drivers/STM32WBxx_HAL_Driver/Src/stm32wbxx_hal_pwr_ex.c ****   * @brief Enable RF Phase interrupt.
 248:Drivers/STM32WBxx_HAL_Driver/Src/stm32wbxx_hal_pwr_ex.c ****   * @retval None
 249:Drivers/STM32WBxx_HAL_Driver/Src/stm32wbxx_hal_pwr_ex.c ****   */
 250:Drivers/STM32WBxx_HAL_Driver/Src/stm32wbxx_hal_pwr_ex.c **** void HAL_PWREx_EnableRFPhaseIT(void)
 251:Drivers/STM32WBxx_HAL_Driver/Src/stm32wbxx_hal_pwr_ex.c **** {
 420              		.loc 1 251 1 is_stmt 1 view -0
 421              		.cfi_startproc
 422              		@ args = 0, pretend = 0, frame = 0
 423              		@ frame_needed = 0, uses_anonymous_args = 0
 424              		@ link register save eliminated.
 252:Drivers/STM32WBxx_HAL_Driver/Src/stm32wbxx_hal_pwr_ex.c ****   SET_BIT(PWR->CR3, PWR_CR3_ECRPE_Msk);
 425              		.loc 1 252 3 view .LVU69
 426 0000 024A     		ldr	r2, .L41
 427 0002 9368     		ldr	r3, [r2, #8]
 428 0004 43F40063 		orr	r3, r3, #2048
 429 0008 9360     		str	r3, [r2, #8]
 253:Drivers/STM32WBxx_HAL_Driver/Src/stm32wbxx_hal_pwr_ex.c **** }
 430              		.loc 1 253 1 is_stmt 0 view .LVU70
 431 000a 7047     		bx	lr
ARM GAS  C:\Users\Nathan\AppData\Local\Temp\ccvsgOlc.s 			page 13


 432              	.L42:
 433              		.align	2
 434              	.L41:
 435 000c 00040058 		.word	1476396032
 436              		.cfi_endproc
 437              	.LFE1114:
 439              		.section	.text.HAL_PWREx_DisableRFPhaseIT,"ax",%progbits
 440              		.align	1
 441              		.global	HAL_PWREx_DisableRFPhaseIT
 442              		.syntax unified
 443              		.thumb
 444              		.thumb_func
 446              	HAL_PWREx_DisableRFPhaseIT:
 447              	.LFB1115:
 254:Drivers/STM32WBxx_HAL_Driver/Src/stm32wbxx_hal_pwr_ex.c **** 
 255:Drivers/STM32WBxx_HAL_Driver/Src/stm32wbxx_hal_pwr_ex.c **** /**
 256:Drivers/STM32WBxx_HAL_Driver/Src/stm32wbxx_hal_pwr_ex.c ****   * @brief Disable RF Phase interrupt.
 257:Drivers/STM32WBxx_HAL_Driver/Src/stm32wbxx_hal_pwr_ex.c ****   * @retval None
 258:Drivers/STM32WBxx_HAL_Driver/Src/stm32wbxx_hal_pwr_ex.c ****   */
 259:Drivers/STM32WBxx_HAL_Driver/Src/stm32wbxx_hal_pwr_ex.c **** void HAL_PWREx_DisableRFPhaseIT(void)
 260:Drivers/STM32WBxx_HAL_Driver/Src/stm32wbxx_hal_pwr_ex.c **** {
 448              		.loc 1 260 1 is_stmt 1 view -0
 449              		.cfi_startproc
 450              		@ args = 0, pretend = 0, frame = 0
 451              		@ frame_needed = 0, uses_anonymous_args = 0
 452              		@ link register save eliminated.
 261:Drivers/STM32WBxx_HAL_Driver/Src/stm32wbxx_hal_pwr_ex.c ****   CLEAR_BIT(PWR->CR3, PWR_CR3_ECRPE_Msk);
 453              		.loc 1 261 3 view .LVU72
 454 0000 024A     		ldr	r2, .L44
 455 0002 9368     		ldr	r3, [r2, #8]
 456 0004 23F40063 		bic	r3, r3, #2048
 457 0008 9360     		str	r3, [r2, #8]
 262:Drivers/STM32WBxx_HAL_Driver/Src/stm32wbxx_hal_pwr_ex.c **** }
 458              		.loc 1 262 1 is_stmt 0 view .LVU73
 459 000a 7047     		bx	lr
 460              	.L45:
 461              		.align	2
 462              	.L44:
 463 000c 00040058 		.word	1476396032
 464              		.cfi_endproc
 465              	.LFE1115:
 467              		.section	.text.HAL_PWREx_EnableBLEActivityIT,"ax",%progbits
 468              		.align	1
 469              		.global	HAL_PWREx_EnableBLEActivityIT
 470              		.syntax unified
 471              		.thumb
 472              		.thumb_func
 474              	HAL_PWREx_EnableBLEActivityIT:
 475              	.LFB1116:
 263:Drivers/STM32WBxx_HAL_Driver/Src/stm32wbxx_hal_pwr_ex.c **** 
 264:Drivers/STM32WBxx_HAL_Driver/Src/stm32wbxx_hal_pwr_ex.c **** 
 265:Drivers/STM32WBxx_HAL_Driver/Src/stm32wbxx_hal_pwr_ex.c **** /**
 266:Drivers/STM32WBxx_HAL_Driver/Src/stm32wbxx_hal_pwr_ex.c ****   * @brief Enable BLE Activity interrupt.
 267:Drivers/STM32WBxx_HAL_Driver/Src/stm32wbxx_hal_pwr_ex.c ****   * @retval None
 268:Drivers/STM32WBxx_HAL_Driver/Src/stm32wbxx_hal_pwr_ex.c ****   */
 269:Drivers/STM32WBxx_HAL_Driver/Src/stm32wbxx_hal_pwr_ex.c **** void HAL_PWREx_EnableBLEActivityIT(void)
 270:Drivers/STM32WBxx_HAL_Driver/Src/stm32wbxx_hal_pwr_ex.c **** {
ARM GAS  C:\Users\Nathan\AppData\Local\Temp\ccvsgOlc.s 			page 14


 476              		.loc 1 270 1 is_stmt 1 view -0
 477              		.cfi_startproc
 478              		@ args = 0, pretend = 0, frame = 0
 479              		@ frame_needed = 0, uses_anonymous_args = 0
 480              		@ link register save eliminated.
 271:Drivers/STM32WBxx_HAL_Driver/Src/stm32wbxx_hal_pwr_ex.c ****   SET_BIT(PWR->CR3, PWR_CR3_EBLEA);
 481              		.loc 1 271 3 view .LVU75
 482 0000 024A     		ldr	r2, .L47
 483 0002 9368     		ldr	r3, [r2, #8]
 484 0004 43F48053 		orr	r3, r3, #4096
 485 0008 9360     		str	r3, [r2, #8]
 272:Drivers/STM32WBxx_HAL_Driver/Src/stm32wbxx_hal_pwr_ex.c **** }
 486              		.loc 1 272 1 is_stmt 0 view .LVU76
 487 000a 7047     		bx	lr
 488              	.L48:
 489              		.align	2
 490              	.L47:
 491 000c 00040058 		.word	1476396032
 492              		.cfi_endproc
 493              	.LFE1116:
 495              		.section	.text.HAL_PWREx_DisableBLEActivityIT,"ax",%progbits
 496              		.align	1
 497              		.global	HAL_PWREx_DisableBLEActivityIT
 498              		.syntax unified
 499              		.thumb
 500              		.thumb_func
 502              	HAL_PWREx_DisableBLEActivityIT:
 503              	.LFB1117:
 273:Drivers/STM32WBxx_HAL_Driver/Src/stm32wbxx_hal_pwr_ex.c **** 
 274:Drivers/STM32WBxx_HAL_Driver/Src/stm32wbxx_hal_pwr_ex.c **** /**
 275:Drivers/STM32WBxx_HAL_Driver/Src/stm32wbxx_hal_pwr_ex.c ****   * @brief Disable BLE Activity interrupt.
 276:Drivers/STM32WBxx_HAL_Driver/Src/stm32wbxx_hal_pwr_ex.c ****   * @retval None
 277:Drivers/STM32WBxx_HAL_Driver/Src/stm32wbxx_hal_pwr_ex.c ****   */
 278:Drivers/STM32WBxx_HAL_Driver/Src/stm32wbxx_hal_pwr_ex.c **** void HAL_PWREx_DisableBLEActivityIT(void)
 279:Drivers/STM32WBxx_HAL_Driver/Src/stm32wbxx_hal_pwr_ex.c **** {
 504              		.loc 1 279 1 is_stmt 1 view -0
 505              		.cfi_startproc
 506              		@ args = 0, pretend = 0, frame = 0
 507              		@ frame_needed = 0, uses_anonymous_args = 0
 508              		@ link register save eliminated.
 280:Drivers/STM32WBxx_HAL_Driver/Src/stm32wbxx_hal_pwr_ex.c ****   CLEAR_BIT(PWR->CR3, PWR_CR3_EBLEA);
 509              		.loc 1 280 3 view .LVU78
 510 0000 024A     		ldr	r2, .L50
 511 0002 9368     		ldr	r3, [r2, #8]
 512 0004 23F48053 		bic	r3, r3, #4096
 513 0008 9360     		str	r3, [r2, #8]
 281:Drivers/STM32WBxx_HAL_Driver/Src/stm32wbxx_hal_pwr_ex.c **** }
 514              		.loc 1 281 1 is_stmt 0 view .LVU79
 515 000a 7047     		bx	lr
 516              	.L51:
 517              		.align	2
 518              	.L50:
 519 000c 00040058 		.word	1476396032
 520              		.cfi_endproc
 521              	.LFE1117:
 523              		.section	.text.HAL_PWREx_Enable802ActivityIT,"ax",%progbits
 524              		.align	1
ARM GAS  C:\Users\Nathan\AppData\Local\Temp\ccvsgOlc.s 			page 15


 525              		.global	HAL_PWREx_Enable802ActivityIT
 526              		.syntax unified
 527              		.thumb
 528              		.thumb_func
 530              	HAL_PWREx_Enable802ActivityIT:
 531              	.LFB1118:
 282:Drivers/STM32WBxx_HAL_Driver/Src/stm32wbxx_hal_pwr_ex.c **** 
 283:Drivers/STM32WBxx_HAL_Driver/Src/stm32wbxx_hal_pwr_ex.c **** #if defined(PWR_CR3_E802A)
 284:Drivers/STM32WBxx_HAL_Driver/Src/stm32wbxx_hal_pwr_ex.c **** /**
 285:Drivers/STM32WBxx_HAL_Driver/Src/stm32wbxx_hal_pwr_ex.c ****   * @brief Enable 802.15.4 Activity interrupt.
 286:Drivers/STM32WBxx_HAL_Driver/Src/stm32wbxx_hal_pwr_ex.c ****   * @retval None
 287:Drivers/STM32WBxx_HAL_Driver/Src/stm32wbxx_hal_pwr_ex.c ****   */
 288:Drivers/STM32WBxx_HAL_Driver/Src/stm32wbxx_hal_pwr_ex.c **** void HAL_PWREx_Enable802ActivityIT(void)
 289:Drivers/STM32WBxx_HAL_Driver/Src/stm32wbxx_hal_pwr_ex.c **** {
 532              		.loc 1 289 1 is_stmt 1 view -0
 533              		.cfi_startproc
 534              		@ args = 0, pretend = 0, frame = 0
 535              		@ frame_needed = 0, uses_anonymous_args = 0
 536              		@ link register save eliminated.
 290:Drivers/STM32WBxx_HAL_Driver/Src/stm32wbxx_hal_pwr_ex.c ****   SET_BIT(PWR->CR3, PWR_CR3_E802A);
 537              		.loc 1 290 3 view .LVU81
 538 0000 024A     		ldr	r2, .L53
 539 0002 9368     		ldr	r3, [r2, #8]
 540 0004 43F40053 		orr	r3, r3, #8192
 541 0008 9360     		str	r3, [r2, #8]
 291:Drivers/STM32WBxx_HAL_Driver/Src/stm32wbxx_hal_pwr_ex.c **** }
 542              		.loc 1 291 1 is_stmt 0 view .LVU82
 543 000a 7047     		bx	lr
 544              	.L54:
 545              		.align	2
 546              	.L53:
 547 000c 00040058 		.word	1476396032
 548              		.cfi_endproc
 549              	.LFE1118:
 551              		.section	.text.HAL_PWREx_Disable802ActivityIT,"ax",%progbits
 552              		.align	1
 553              		.global	HAL_PWREx_Disable802ActivityIT
 554              		.syntax unified
 555              		.thumb
 556              		.thumb_func
 558              	HAL_PWREx_Disable802ActivityIT:
 559              	.LFB1119:
 292:Drivers/STM32WBxx_HAL_Driver/Src/stm32wbxx_hal_pwr_ex.c **** 
 293:Drivers/STM32WBxx_HAL_Driver/Src/stm32wbxx_hal_pwr_ex.c **** /**
 294:Drivers/STM32WBxx_HAL_Driver/Src/stm32wbxx_hal_pwr_ex.c ****   * @brief Disable 802.15.4 Activity interrupt.
 295:Drivers/STM32WBxx_HAL_Driver/Src/stm32wbxx_hal_pwr_ex.c ****   * @retval None
 296:Drivers/STM32WBxx_HAL_Driver/Src/stm32wbxx_hal_pwr_ex.c ****   */
 297:Drivers/STM32WBxx_HAL_Driver/Src/stm32wbxx_hal_pwr_ex.c **** void HAL_PWREx_Disable802ActivityIT(void)
 298:Drivers/STM32WBxx_HAL_Driver/Src/stm32wbxx_hal_pwr_ex.c **** {
 560              		.loc 1 298 1 is_stmt 1 view -0
 561              		.cfi_startproc
 562              		@ args = 0, pretend = 0, frame = 0
 563              		@ frame_needed = 0, uses_anonymous_args = 0
 564              		@ link register save eliminated.
 299:Drivers/STM32WBxx_HAL_Driver/Src/stm32wbxx_hal_pwr_ex.c ****   CLEAR_BIT(PWR->CR3, PWR_CR3_E802A);
 565              		.loc 1 299 3 view .LVU84
 566 0000 024A     		ldr	r2, .L56
ARM GAS  C:\Users\Nathan\AppData\Local\Temp\ccvsgOlc.s 			page 16


 567 0002 9368     		ldr	r3, [r2, #8]
 568 0004 23F40053 		bic	r3, r3, #8192
 569 0008 9360     		str	r3, [r2, #8]
 300:Drivers/STM32WBxx_HAL_Driver/Src/stm32wbxx_hal_pwr_ex.c **** }
 570              		.loc 1 300 1 is_stmt 0 view .LVU85
 571 000a 7047     		bx	lr
 572              	.L57:
 573              		.align	2
 574              	.L56:
 575 000c 00040058 		.word	1476396032
 576              		.cfi_endproc
 577              	.LFE1119:
 579              		.section	.text.HAL_PWREx_EnableHOLDC2IT,"ax",%progbits
 580              		.align	1
 581              		.global	HAL_PWREx_EnableHOLDC2IT
 582              		.syntax unified
 583              		.thumb
 584              		.thumb_func
 586              	HAL_PWREx_EnableHOLDC2IT:
 587              	.LFB1120:
 301:Drivers/STM32WBxx_HAL_Driver/Src/stm32wbxx_hal_pwr_ex.c **** #endif /* PWR_CR3_E802A */
 302:Drivers/STM32WBxx_HAL_Driver/Src/stm32wbxx_hal_pwr_ex.c **** 
 303:Drivers/STM32WBxx_HAL_Driver/Src/stm32wbxx_hal_pwr_ex.c **** /**
 304:Drivers/STM32WBxx_HAL_Driver/Src/stm32wbxx_hal_pwr_ex.c ****   * @brief Enable CPU2 on-Hold interrupt.
 305:Drivers/STM32WBxx_HAL_Driver/Src/stm32wbxx_hal_pwr_ex.c ****   * @retval None
 306:Drivers/STM32WBxx_HAL_Driver/Src/stm32wbxx_hal_pwr_ex.c ****   */
 307:Drivers/STM32WBxx_HAL_Driver/Src/stm32wbxx_hal_pwr_ex.c **** void HAL_PWREx_EnableHOLDC2IT(void)
 308:Drivers/STM32WBxx_HAL_Driver/Src/stm32wbxx_hal_pwr_ex.c **** {
 588              		.loc 1 308 1 is_stmt 1 view -0
 589              		.cfi_startproc
 590              		@ args = 0, pretend = 0, frame = 0
 591              		@ frame_needed = 0, uses_anonymous_args = 0
 592              		@ link register save eliminated.
 309:Drivers/STM32WBxx_HAL_Driver/Src/stm32wbxx_hal_pwr_ex.c ****   SET_BIT(PWR->CR3, PWR_CR3_EC2H);
 593              		.loc 1 309 3 view .LVU87
 594 0000 024A     		ldr	r2, .L59
 595 0002 9368     		ldr	r3, [r2, #8]
 596 0004 43F48043 		orr	r3, r3, #16384
 597 0008 9360     		str	r3, [r2, #8]
 310:Drivers/STM32WBxx_HAL_Driver/Src/stm32wbxx_hal_pwr_ex.c **** }
 598              		.loc 1 310 1 is_stmt 0 view .LVU88
 599 000a 7047     		bx	lr
 600              	.L60:
 601              		.align	2
 602              	.L59:
 603 000c 00040058 		.word	1476396032
 604              		.cfi_endproc
 605              	.LFE1120:
 607              		.section	.text.HAL_PWREx_DisableHOLDC2IT,"ax",%progbits
 608              		.align	1
 609              		.global	HAL_PWREx_DisableHOLDC2IT
 610              		.syntax unified
 611              		.thumb
 612              		.thumb_func
 614              	HAL_PWREx_DisableHOLDC2IT:
 615              	.LFB1121:
 311:Drivers/STM32WBxx_HAL_Driver/Src/stm32wbxx_hal_pwr_ex.c **** 
ARM GAS  C:\Users\Nathan\AppData\Local\Temp\ccvsgOlc.s 			page 17


 312:Drivers/STM32WBxx_HAL_Driver/Src/stm32wbxx_hal_pwr_ex.c **** /**
 313:Drivers/STM32WBxx_HAL_Driver/Src/stm32wbxx_hal_pwr_ex.c ****   * @brief Disable CPU2 on-Hold interrupt.
 314:Drivers/STM32WBxx_HAL_Driver/Src/stm32wbxx_hal_pwr_ex.c ****   * @retval None
 315:Drivers/STM32WBxx_HAL_Driver/Src/stm32wbxx_hal_pwr_ex.c ****   */
 316:Drivers/STM32WBxx_HAL_Driver/Src/stm32wbxx_hal_pwr_ex.c **** void HAL_PWREx_DisableHOLDC2IT(void)
 317:Drivers/STM32WBxx_HAL_Driver/Src/stm32wbxx_hal_pwr_ex.c **** {
 616              		.loc 1 317 1 is_stmt 1 view -0
 617              		.cfi_startproc
 618              		@ args = 0, pretend = 0, frame = 0
 619              		@ frame_needed = 0, uses_anonymous_args = 0
 620              		@ link register save eliminated.
 318:Drivers/STM32WBxx_HAL_Driver/Src/stm32wbxx_hal_pwr_ex.c ****   CLEAR_BIT(PWR->CR3, PWR_CR3_EC2H);
 621              		.loc 1 318 3 view .LVU90
 622 0000 024A     		ldr	r2, .L62
 623 0002 9368     		ldr	r3, [r2, #8]
 624 0004 23F48043 		bic	r3, r3, #16384
 625 0008 9360     		str	r3, [r2, #8]
 319:Drivers/STM32WBxx_HAL_Driver/Src/stm32wbxx_hal_pwr_ex.c **** }
 626              		.loc 1 319 1 is_stmt 0 view .LVU91
 627 000a 7047     		bx	lr
 628              	.L63:
 629              		.align	2
 630              	.L62:
 631 000c 00040058 		.word	1476396032
 632              		.cfi_endproc
 633              	.LFE1121:
 635              		.section	.text.HAL_PWREx_EnableGPIOPullUp,"ax",%progbits
 636              		.align	1
 637              		.global	HAL_PWREx_EnableGPIOPullUp
 638              		.syntax unified
 639              		.thumb
 640              		.thumb_func
 642              	HAL_PWREx_EnableGPIOPullUp:
 643              	.LVL14:
 644              	.LFB1122:
 320:Drivers/STM32WBxx_HAL_Driver/Src/stm32wbxx_hal_pwr_ex.c **** 
 321:Drivers/STM32WBxx_HAL_Driver/Src/stm32wbxx_hal_pwr_ex.c **** /****************************************************************************/
 322:Drivers/STM32WBxx_HAL_Driver/Src/stm32wbxx_hal_pwr_ex.c **** 
 323:Drivers/STM32WBxx_HAL_Driver/Src/stm32wbxx_hal_pwr_ex.c **** /**
 324:Drivers/STM32WBxx_HAL_Driver/Src/stm32wbxx_hal_pwr_ex.c ****   * @brief Enable GPIO pull-up state in Standby and Shutdown modes.
 325:Drivers/STM32WBxx_HAL_Driver/Src/stm32wbxx_hal_pwr_ex.c ****   * @note  Set the relevant PUy bits of PWR_PUCRx register to configure the I/O in
 326:Drivers/STM32WBxx_HAL_Driver/Src/stm32wbxx_hal_pwr_ex.c ****   *        pull-up state in Standby and Shutdown modes.
 327:Drivers/STM32WBxx_HAL_Driver/Src/stm32wbxx_hal_pwr_ex.c ****   * @note  This state is effective in Standby and Shutdown modes only if APC bit
 328:Drivers/STM32WBxx_HAL_Driver/Src/stm32wbxx_hal_pwr_ex.c ****   *        is set through HAL_PWREx_EnablePullUpPullDownConfig() API.
 329:Drivers/STM32WBxx_HAL_Driver/Src/stm32wbxx_hal_pwr_ex.c ****   * @note  The configuration is lost when exiting the Shutdown mode due to the
 330:Drivers/STM32WBxx_HAL_Driver/Src/stm32wbxx_hal_pwr_ex.c ****   *        power-on reset, maintained when exiting the Standby mode.
 331:Drivers/STM32WBxx_HAL_Driver/Src/stm32wbxx_hal_pwr_ex.c ****   * @note  To avoid any conflict at Standby and Shutdown modes exits, the corresponding
 332:Drivers/STM32WBxx_HAL_Driver/Src/stm32wbxx_hal_pwr_ex.c ****   *        PDy bit of PWR_PDCRx register is cleared unless it is reserved.
 333:Drivers/STM32WBxx_HAL_Driver/Src/stm32wbxx_hal_pwr_ex.c ****   * @note  Even if a PUy bit to set is reserved, the other PUy bits entered as input
 334:Drivers/STM32WBxx_HAL_Driver/Src/stm32wbxx_hal_pwr_ex.c ****   *        parameter at the same time are set.
 335:Drivers/STM32WBxx_HAL_Driver/Src/stm32wbxx_hal_pwr_ex.c ****   * @param GPIO Specify the IO port. This parameter can be PWR_GPIO_A, ..., PWR_GPIO_H
 336:Drivers/STM32WBxx_HAL_Driver/Src/stm32wbxx_hal_pwr_ex.c ****   *         to select the GPIO peripheral.
 337:Drivers/STM32WBxx_HAL_Driver/Src/stm32wbxx_hal_pwr_ex.c ****   * @param GPIONumber Specify the I/O pins numbers.
 338:Drivers/STM32WBxx_HAL_Driver/Src/stm32wbxx_hal_pwr_ex.c ****   *         This parameter can be one of the following values:
 339:Drivers/STM32WBxx_HAL_Driver/Src/stm32wbxx_hal_pwr_ex.c ****   *         PWR_GPIO_BIT_0, ..., PWR_GPIO_BIT_15 (except for PORTH where less
 340:Drivers/STM32WBxx_HAL_Driver/Src/stm32wbxx_hal_pwr_ex.c ****   *         I/O pins are available) or the logical OR of several of them to set
 341:Drivers/STM32WBxx_HAL_Driver/Src/stm32wbxx_hal_pwr_ex.c ****   *         several bits for a given port in a single API call.
ARM GAS  C:\Users\Nathan\AppData\Local\Temp\ccvsgOlc.s 			page 18


 342:Drivers/STM32WBxx_HAL_Driver/Src/stm32wbxx_hal_pwr_ex.c ****   * @retval HAL Status
 343:Drivers/STM32WBxx_HAL_Driver/Src/stm32wbxx_hal_pwr_ex.c ****   */
 344:Drivers/STM32WBxx_HAL_Driver/Src/stm32wbxx_hal_pwr_ex.c **** HAL_StatusTypeDef HAL_PWREx_EnableGPIOPullUp(uint32_t GPIO, uint32_t GPIONumber)
 345:Drivers/STM32WBxx_HAL_Driver/Src/stm32wbxx_hal_pwr_ex.c **** {
 645              		.loc 1 345 1 is_stmt 1 view -0
 646              		.cfi_startproc
 647              		@ args = 0, pretend = 0, frame = 0
 648              		@ frame_needed = 0, uses_anonymous_args = 0
 649              		@ link register save eliminated.
 346:Drivers/STM32WBxx_HAL_Driver/Src/stm32wbxx_hal_pwr_ex.c ****   HAL_StatusTypeDef status = HAL_OK;
 650              		.loc 1 346 3 view .LVU93
 347:Drivers/STM32WBxx_HAL_Driver/Src/stm32wbxx_hal_pwr_ex.c **** 
 348:Drivers/STM32WBxx_HAL_Driver/Src/stm32wbxx_hal_pwr_ex.c ****   assert_param(IS_PWR_GPIO(GPIO));
 651              		.loc 1 348 3 view .LVU94
 349:Drivers/STM32WBxx_HAL_Driver/Src/stm32wbxx_hal_pwr_ex.c ****   assert_param(IS_PWR_GPIO_BIT_NUMBER(GPIONumber));
 652              		.loc 1 349 3 view .LVU95
 350:Drivers/STM32WBxx_HAL_Driver/Src/stm32wbxx_hal_pwr_ex.c **** 
 351:Drivers/STM32WBxx_HAL_Driver/Src/stm32wbxx_hal_pwr_ex.c ****   switch (GPIO)
 653              		.loc 1 351 3 view .LVU96
 654 0000 0728     		cmp	r0, #7
 655 0002 45D8     		bhi	.L73
 656 0004 DFE800F0 		tbb	[pc, r0]
 657              	.L67:
 658 0008 04       		.byte	(.L72-.L67)/2
 659 0009 0E       		.byte	(.L71-.L67)/2
 660 000a 18       		.byte	(.L70-.L67)/2
 661 000b 22       		.byte	(.L69-.L67)/2
 662 000c 2C       		.byte	(.L68-.L67)/2
 663 000d 44       		.byte	(.L73-.L67)/2
 664 000e 44       		.byte	(.L73-.L67)/2
 665 000f 38       		.byte	(.L66-.L67)/2
 666              		.p2align 1
 667              	.L72:
 352:Drivers/STM32WBxx_HAL_Driver/Src/stm32wbxx_hal_pwr_ex.c ****   {
 353:Drivers/STM32WBxx_HAL_Driver/Src/stm32wbxx_hal_pwr_ex.c ****     case PWR_GPIO_A:
 354:Drivers/STM32WBxx_HAL_Driver/Src/stm32wbxx_hal_pwr_ex.c ****       SET_BIT(PWR->PUCRA, GPIONumber);
 668              		.loc 1 354 7 view .LVU97
 669 0010 204B     		ldr	r3, .L74
 670 0012 1A6A     		ldr	r2, [r3, #32]
 671 0014 0A43     		orrs	r2, r2, r1
 672 0016 1A62     		str	r2, [r3, #32]
 355:Drivers/STM32WBxx_HAL_Driver/Src/stm32wbxx_hal_pwr_ex.c ****       CLEAR_BIT(PWR->PDCRA, GPIONumber);
 673              		.loc 1 355 7 view .LVU98
 674 0018 5A6A     		ldr	r2, [r3, #36]
 675 001a 22EA0102 		bic	r2, r2, r1
 676 001e 5A62     		str	r2, [r3, #36]
 356:Drivers/STM32WBxx_HAL_Driver/Src/stm32wbxx_hal_pwr_ex.c ****       break;
 677              		.loc 1 356 7 view .LVU99
 346:Drivers/STM32WBxx_HAL_Driver/Src/stm32wbxx_hal_pwr_ex.c **** 
 678              		.loc 1 346 21 is_stmt 0 view .LVU100
 679 0020 0020     		movs	r0, #0
 680              	.LVL15:
 681              		.loc 1 356 7 view .LVU101
 682 0022 7047     		bx	lr
 683              	.LVL16:
 684              	.L71:
 357:Drivers/STM32WBxx_HAL_Driver/Src/stm32wbxx_hal_pwr_ex.c ****     case PWR_GPIO_B:
ARM GAS  C:\Users\Nathan\AppData\Local\Temp\ccvsgOlc.s 			page 19


 358:Drivers/STM32WBxx_HAL_Driver/Src/stm32wbxx_hal_pwr_ex.c ****       SET_BIT(PWR->PUCRB, GPIONumber);
 685              		.loc 1 358 7 is_stmt 1 view .LVU102
 686 0024 1B4B     		ldr	r3, .L74
 687 0026 9A6A     		ldr	r2, [r3, #40]
 688 0028 0A43     		orrs	r2, r2, r1
 689 002a 9A62     		str	r2, [r3, #40]
 359:Drivers/STM32WBxx_HAL_Driver/Src/stm32wbxx_hal_pwr_ex.c ****       CLEAR_BIT(PWR->PDCRB, GPIONumber);
 690              		.loc 1 359 7 view .LVU103
 691 002c DA6A     		ldr	r2, [r3, #44]
 692 002e 22EA0102 		bic	r2, r2, r1
 693 0032 DA62     		str	r2, [r3, #44]
 360:Drivers/STM32WBxx_HAL_Driver/Src/stm32wbxx_hal_pwr_ex.c ****       break;
 694              		.loc 1 360 7 view .LVU104
 346:Drivers/STM32WBxx_HAL_Driver/Src/stm32wbxx_hal_pwr_ex.c **** 
 695              		.loc 1 346 21 is_stmt 0 view .LVU105
 696 0034 0020     		movs	r0, #0
 697              	.LVL17:
 698              		.loc 1 360 7 view .LVU106
 699 0036 7047     		bx	lr
 700              	.LVL18:
 701              	.L70:
 361:Drivers/STM32WBxx_HAL_Driver/Src/stm32wbxx_hal_pwr_ex.c ****     case PWR_GPIO_C:
 362:Drivers/STM32WBxx_HAL_Driver/Src/stm32wbxx_hal_pwr_ex.c ****       SET_BIT(PWR->PUCRC, GPIONumber);
 702              		.loc 1 362 7 is_stmt 1 view .LVU107
 703 0038 164B     		ldr	r3, .L74
 704 003a 1A6B     		ldr	r2, [r3, #48]
 705 003c 0A43     		orrs	r2, r2, r1
 706 003e 1A63     		str	r2, [r3, #48]
 363:Drivers/STM32WBxx_HAL_Driver/Src/stm32wbxx_hal_pwr_ex.c ****       CLEAR_BIT(PWR->PDCRC, GPIONumber);
 707              		.loc 1 363 7 view .LVU108
 708 0040 5A6B     		ldr	r2, [r3, #52]
 709 0042 22EA0102 		bic	r2, r2, r1
 710 0046 5A63     		str	r2, [r3, #52]
 364:Drivers/STM32WBxx_HAL_Driver/Src/stm32wbxx_hal_pwr_ex.c ****       break;
 711              		.loc 1 364 7 view .LVU109
 346:Drivers/STM32WBxx_HAL_Driver/Src/stm32wbxx_hal_pwr_ex.c **** 
 712              		.loc 1 346 21 is_stmt 0 view .LVU110
 713 0048 0020     		movs	r0, #0
 714              	.LVL19:
 715              		.loc 1 364 7 view .LVU111
 716 004a 7047     		bx	lr
 717              	.LVL20:
 718              	.L69:
 365:Drivers/STM32WBxx_HAL_Driver/Src/stm32wbxx_hal_pwr_ex.c **** #if defined(GPIOD)
 366:Drivers/STM32WBxx_HAL_Driver/Src/stm32wbxx_hal_pwr_ex.c ****     case PWR_GPIO_D:
 367:Drivers/STM32WBxx_HAL_Driver/Src/stm32wbxx_hal_pwr_ex.c ****       SET_BIT(PWR->PUCRD, GPIONumber);
 719              		.loc 1 367 7 is_stmt 1 view .LVU112
 720 004c 114B     		ldr	r3, .L74
 721 004e 9A6B     		ldr	r2, [r3, #56]
 722 0050 0A43     		orrs	r2, r2, r1
 723 0052 9A63     		str	r2, [r3, #56]
 368:Drivers/STM32WBxx_HAL_Driver/Src/stm32wbxx_hal_pwr_ex.c ****       CLEAR_BIT(PWR->PDCRD, GPIONumber);
 724              		.loc 1 368 7 view .LVU113
 725 0054 DA6B     		ldr	r2, [r3, #60]
 726 0056 22EA0102 		bic	r2, r2, r1
 727 005a DA63     		str	r2, [r3, #60]
 369:Drivers/STM32WBxx_HAL_Driver/Src/stm32wbxx_hal_pwr_ex.c ****       break;
ARM GAS  C:\Users\Nathan\AppData\Local\Temp\ccvsgOlc.s 			page 20


 728              		.loc 1 369 7 view .LVU114
 346:Drivers/STM32WBxx_HAL_Driver/Src/stm32wbxx_hal_pwr_ex.c **** 
 729              		.loc 1 346 21 is_stmt 0 view .LVU115
 730 005c 0020     		movs	r0, #0
 731              	.LVL21:
 732              		.loc 1 369 7 view .LVU116
 733 005e 7047     		bx	lr
 734              	.LVL22:
 735              	.L68:
 370:Drivers/STM32WBxx_HAL_Driver/Src/stm32wbxx_hal_pwr_ex.c **** #endif /* GPIOD */
 371:Drivers/STM32WBxx_HAL_Driver/Src/stm32wbxx_hal_pwr_ex.c ****     case PWR_GPIO_E:
 372:Drivers/STM32WBxx_HAL_Driver/Src/stm32wbxx_hal_pwr_ex.c ****       SET_BIT(PWR->PUCRE, (GPIONumber & PWR_PORTE_AVAILABLE_PINS));
 736              		.loc 1 372 7 is_stmt 1 view .LVU117
 737 0060 0C4B     		ldr	r3, .L74
 738 0062 1A6C     		ldr	r2, [r3, #64]
 739 0064 01F01F01 		and	r1, r1, #31
 740              	.LVL23:
 741              		.loc 1 372 7 is_stmt 0 view .LVU118
 742 0068 0A43     		orrs	r2, r2, r1
 743 006a 1A64     		str	r2, [r3, #64]
 373:Drivers/STM32WBxx_HAL_Driver/Src/stm32wbxx_hal_pwr_ex.c ****       CLEAR_BIT(PWR->PDCRE, (GPIONumber & PWR_PORTE_AVAILABLE_PINS));
 744              		.loc 1 373 7 is_stmt 1 view .LVU119
 745 006c 5A6C     		ldr	r2, [r3, #68]
 746 006e 22EA0102 		bic	r2, r2, r1
 747 0072 5A64     		str	r2, [r3, #68]
 374:Drivers/STM32WBxx_HAL_Driver/Src/stm32wbxx_hal_pwr_ex.c ****       break;
 748              		.loc 1 374 7 view .LVU120
 346:Drivers/STM32WBxx_HAL_Driver/Src/stm32wbxx_hal_pwr_ex.c **** 
 749              		.loc 1 346 21 is_stmt 0 view .LVU121
 750 0074 0020     		movs	r0, #0
 751              	.LVL24:
 752              		.loc 1 374 7 view .LVU122
 753 0076 7047     		bx	lr
 754              	.LVL25:
 755              	.L66:
 375:Drivers/STM32WBxx_HAL_Driver/Src/stm32wbxx_hal_pwr_ex.c ****     case PWR_GPIO_H:
 376:Drivers/STM32WBxx_HAL_Driver/Src/stm32wbxx_hal_pwr_ex.c ****       SET_BIT(PWR->PUCRH, (GPIONumber & PWR_PORTH_AVAILABLE_PINS));
 756              		.loc 1 376 7 is_stmt 1 view .LVU123
 757 0078 064B     		ldr	r3, .L74
 758 007a 9A6D     		ldr	r2, [r3, #88]
 759 007c 01F00B01 		and	r1, r1, #11
 760              	.LVL26:
 761              		.loc 1 376 7 is_stmt 0 view .LVU124
 762 0080 0A43     		orrs	r2, r2, r1
 763 0082 9A65     		str	r2, [r3, #88]
 377:Drivers/STM32WBxx_HAL_Driver/Src/stm32wbxx_hal_pwr_ex.c ****       CLEAR_BIT(PWR->PDCRH, (GPIONumber & PWR_PORTH_AVAILABLE_PINS));
 764              		.loc 1 377 7 is_stmt 1 view .LVU125
 765 0084 DA6D     		ldr	r2, [r3, #92]
 766 0086 22EA0102 		bic	r2, r2, r1
 767 008a DA65     		str	r2, [r3, #92]
 378:Drivers/STM32WBxx_HAL_Driver/Src/stm32wbxx_hal_pwr_ex.c ****       break;
 768              		.loc 1 378 7 view .LVU126
 346:Drivers/STM32WBxx_HAL_Driver/Src/stm32wbxx_hal_pwr_ex.c **** 
 769              		.loc 1 346 21 is_stmt 0 view .LVU127
 770 008c 0020     		movs	r0, #0
 771              	.LVL27:
 772              		.loc 1 378 7 view .LVU128
ARM GAS  C:\Users\Nathan\AppData\Local\Temp\ccvsgOlc.s 			page 21


 773 008e 7047     		bx	lr
 774              	.LVL28:
 775              	.L73:
 351:Drivers/STM32WBxx_HAL_Driver/Src/stm32wbxx_hal_pwr_ex.c ****   {
 776              		.loc 1 351 3 view .LVU129
 777 0090 0120     		movs	r0, #1
 778              	.LVL29:
 379:Drivers/STM32WBxx_HAL_Driver/Src/stm32wbxx_hal_pwr_ex.c ****     default:
 380:Drivers/STM32WBxx_HAL_Driver/Src/stm32wbxx_hal_pwr_ex.c ****       status = HAL_ERROR;
 381:Drivers/STM32WBxx_HAL_Driver/Src/stm32wbxx_hal_pwr_ex.c ****       break;
 382:Drivers/STM32WBxx_HAL_Driver/Src/stm32wbxx_hal_pwr_ex.c ****   }
 383:Drivers/STM32WBxx_HAL_Driver/Src/stm32wbxx_hal_pwr_ex.c **** 
 384:Drivers/STM32WBxx_HAL_Driver/Src/stm32wbxx_hal_pwr_ex.c ****   return status;
 779              		.loc 1 384 3 is_stmt 1 view .LVU130
 385:Drivers/STM32WBxx_HAL_Driver/Src/stm32wbxx_hal_pwr_ex.c **** }
 780              		.loc 1 385 1 is_stmt 0 view .LVU131
 781 0092 7047     		bx	lr
 782              	.L75:
 783              		.align	2
 784              	.L74:
 785 0094 00040058 		.word	1476396032
 786              		.cfi_endproc
 787              	.LFE1122:
 789              		.section	.text.HAL_PWREx_DisableGPIOPullUp,"ax",%progbits
 790              		.align	1
 791              		.global	HAL_PWREx_DisableGPIOPullUp
 792              		.syntax unified
 793              		.thumb
 794              		.thumb_func
 796              	HAL_PWREx_DisableGPIOPullUp:
 797              	.LVL30:
 798              	.LFB1123:
 386:Drivers/STM32WBxx_HAL_Driver/Src/stm32wbxx_hal_pwr_ex.c **** 
 387:Drivers/STM32WBxx_HAL_Driver/Src/stm32wbxx_hal_pwr_ex.c **** /**
 388:Drivers/STM32WBxx_HAL_Driver/Src/stm32wbxx_hal_pwr_ex.c ****   * @brief Disable GPIO pull-up state in Standby mode and Shutdown modes.
 389:Drivers/STM32WBxx_HAL_Driver/Src/stm32wbxx_hal_pwr_ex.c ****   * @note  Reset the relevant PUy bits of PWR_PUCRx register used to configure the I/O
 390:Drivers/STM32WBxx_HAL_Driver/Src/stm32wbxx_hal_pwr_ex.c ****   *        in pull-up state in Standby and Shutdown modes.
 391:Drivers/STM32WBxx_HAL_Driver/Src/stm32wbxx_hal_pwr_ex.c ****   * @note  Even if a PUy bit to reset is reserved, the other PUy bits entered as input
 392:Drivers/STM32WBxx_HAL_Driver/Src/stm32wbxx_hal_pwr_ex.c ****   *        parameter at the same time are reset.
 393:Drivers/STM32WBxx_HAL_Driver/Src/stm32wbxx_hal_pwr_ex.c ****   * @param GPIO Specifies the IO port. This parameter can be PWR_GPIO_A, ..., PWR_GPIO_H
 394:Drivers/STM32WBxx_HAL_Driver/Src/stm32wbxx_hal_pwr_ex.c ****   *         to select the GPIO peripheral.
 395:Drivers/STM32WBxx_HAL_Driver/Src/stm32wbxx_hal_pwr_ex.c ****   * @param GPIONumber Specify the I/O pins numbers.
 396:Drivers/STM32WBxx_HAL_Driver/Src/stm32wbxx_hal_pwr_ex.c ****   *         This parameter can be one of the following values:
 397:Drivers/STM32WBxx_HAL_Driver/Src/stm32wbxx_hal_pwr_ex.c ****   *         PWR_GPIO_BIT_0, ..., PWR_GPIO_BIT_15 (except for PORTH where less
 398:Drivers/STM32WBxx_HAL_Driver/Src/stm32wbxx_hal_pwr_ex.c ****   *         I/O pins are available) or the logical OR of several of them to reset
 399:Drivers/STM32WBxx_HAL_Driver/Src/stm32wbxx_hal_pwr_ex.c ****   *         several bits for a given port in a single API call.
 400:Drivers/STM32WBxx_HAL_Driver/Src/stm32wbxx_hal_pwr_ex.c ****   * @retval HAL Status
 401:Drivers/STM32WBxx_HAL_Driver/Src/stm32wbxx_hal_pwr_ex.c ****   */
 402:Drivers/STM32WBxx_HAL_Driver/Src/stm32wbxx_hal_pwr_ex.c **** HAL_StatusTypeDef HAL_PWREx_DisableGPIOPullUp(uint32_t GPIO, uint32_t GPIONumber)
 403:Drivers/STM32WBxx_HAL_Driver/Src/stm32wbxx_hal_pwr_ex.c **** {
 799              		.loc 1 403 1 is_stmt 1 view -0
 800              		.cfi_startproc
 801              		@ args = 0, pretend = 0, frame = 0
 802              		@ frame_needed = 0, uses_anonymous_args = 0
 803              		@ link register save eliminated.
 404:Drivers/STM32WBxx_HAL_Driver/Src/stm32wbxx_hal_pwr_ex.c ****   HAL_StatusTypeDef status = HAL_OK;
 804              		.loc 1 404 3 view .LVU133
ARM GAS  C:\Users\Nathan\AppData\Local\Temp\ccvsgOlc.s 			page 22


 405:Drivers/STM32WBxx_HAL_Driver/Src/stm32wbxx_hal_pwr_ex.c **** 
 406:Drivers/STM32WBxx_HAL_Driver/Src/stm32wbxx_hal_pwr_ex.c ****   assert_param(IS_PWR_GPIO(GPIO));
 805              		.loc 1 406 3 view .LVU134
 407:Drivers/STM32WBxx_HAL_Driver/Src/stm32wbxx_hal_pwr_ex.c ****   assert_param(IS_PWR_GPIO_BIT_NUMBER(GPIONumber));
 806              		.loc 1 407 3 view .LVU135
 408:Drivers/STM32WBxx_HAL_Driver/Src/stm32wbxx_hal_pwr_ex.c **** 
 409:Drivers/STM32WBxx_HAL_Driver/Src/stm32wbxx_hal_pwr_ex.c ****   switch (GPIO)
 807              		.loc 1 409 3 view .LVU136
 808 0000 0728     		cmp	r0, #7
 809 0002 33D8     		bhi	.L85
 810 0004 DFE800F0 		tbb	[pc, r0]
 811              	.L79:
 812 0008 04       		.byte	(.L84-.L79)/2
 813 0009 0B       		.byte	(.L83-.L79)/2
 814 000a 12       		.byte	(.L82-.L79)/2
 815 000b 19       		.byte	(.L81-.L79)/2
 816 000c 20       		.byte	(.L80-.L79)/2
 817 000d 32       		.byte	(.L85-.L79)/2
 818 000e 32       		.byte	(.L85-.L79)/2
 819 000f 29       		.byte	(.L78-.L79)/2
 820              		.p2align 1
 821              	.L84:
 410:Drivers/STM32WBxx_HAL_Driver/Src/stm32wbxx_hal_pwr_ex.c ****   {
 411:Drivers/STM32WBxx_HAL_Driver/Src/stm32wbxx_hal_pwr_ex.c ****     case PWR_GPIO_A:
 412:Drivers/STM32WBxx_HAL_Driver/Src/stm32wbxx_hal_pwr_ex.c ****       CLEAR_BIT(PWR->PUCRA, GPIONumber);
 822              		.loc 1 412 7 view .LVU137
 823 0010 174A     		ldr	r2, .L86
 824 0012 136A     		ldr	r3, [r2, #32]
 825 0014 23EA0103 		bic	r3, r3, r1
 826 0018 1362     		str	r3, [r2, #32]
 413:Drivers/STM32WBxx_HAL_Driver/Src/stm32wbxx_hal_pwr_ex.c ****       break;
 827              		.loc 1 413 7 view .LVU138
 404:Drivers/STM32WBxx_HAL_Driver/Src/stm32wbxx_hal_pwr_ex.c **** 
 828              		.loc 1 404 21 is_stmt 0 view .LVU139
 829 001a 0020     		movs	r0, #0
 830              	.LVL31:
 831              		.loc 1 413 7 view .LVU140
 832 001c 7047     		bx	lr
 833              	.LVL32:
 834              	.L83:
 414:Drivers/STM32WBxx_HAL_Driver/Src/stm32wbxx_hal_pwr_ex.c ****     case PWR_GPIO_B:
 415:Drivers/STM32WBxx_HAL_Driver/Src/stm32wbxx_hal_pwr_ex.c ****       CLEAR_BIT(PWR->PUCRB, GPIONumber);
 835              		.loc 1 415 7 is_stmt 1 view .LVU141
 836 001e 144A     		ldr	r2, .L86
 837 0020 936A     		ldr	r3, [r2, #40]
 838 0022 23EA0103 		bic	r3, r3, r1
 839 0026 9362     		str	r3, [r2, #40]
 416:Drivers/STM32WBxx_HAL_Driver/Src/stm32wbxx_hal_pwr_ex.c ****       break;
 840              		.loc 1 416 7 view .LVU142
 404:Drivers/STM32WBxx_HAL_Driver/Src/stm32wbxx_hal_pwr_ex.c **** 
 841              		.loc 1 404 21 is_stmt 0 view .LVU143
 842 0028 0020     		movs	r0, #0
 843              	.LVL33:
 844              		.loc 1 416 7 view .LVU144
 845 002a 7047     		bx	lr
 846              	.LVL34:
 847              	.L82:
ARM GAS  C:\Users\Nathan\AppData\Local\Temp\ccvsgOlc.s 			page 23


 417:Drivers/STM32WBxx_HAL_Driver/Src/stm32wbxx_hal_pwr_ex.c ****     case PWR_GPIO_C:
 418:Drivers/STM32WBxx_HAL_Driver/Src/stm32wbxx_hal_pwr_ex.c ****       CLEAR_BIT(PWR->PUCRC, GPIONumber);
 848              		.loc 1 418 7 is_stmt 1 view .LVU145
 849 002c 104A     		ldr	r2, .L86
 850 002e 136B     		ldr	r3, [r2, #48]
 851 0030 23EA0103 		bic	r3, r3, r1
 852 0034 1363     		str	r3, [r2, #48]
 419:Drivers/STM32WBxx_HAL_Driver/Src/stm32wbxx_hal_pwr_ex.c ****       break;
 853              		.loc 1 419 7 view .LVU146
 404:Drivers/STM32WBxx_HAL_Driver/Src/stm32wbxx_hal_pwr_ex.c **** 
 854              		.loc 1 404 21 is_stmt 0 view .LVU147
 855 0036 0020     		movs	r0, #0
 856              	.LVL35:
 857              		.loc 1 419 7 view .LVU148
 858 0038 7047     		bx	lr
 859              	.LVL36:
 860              	.L81:
 420:Drivers/STM32WBxx_HAL_Driver/Src/stm32wbxx_hal_pwr_ex.c **** #if defined(GPIOD)
 421:Drivers/STM32WBxx_HAL_Driver/Src/stm32wbxx_hal_pwr_ex.c ****     case PWR_GPIO_D:
 422:Drivers/STM32WBxx_HAL_Driver/Src/stm32wbxx_hal_pwr_ex.c ****       CLEAR_BIT(PWR->PUCRD, GPIONumber);
 861              		.loc 1 422 7 is_stmt 1 view .LVU149
 862 003a 0D4A     		ldr	r2, .L86
 863 003c 936B     		ldr	r3, [r2, #56]
 864 003e 23EA0103 		bic	r3, r3, r1
 865 0042 9363     		str	r3, [r2, #56]
 423:Drivers/STM32WBxx_HAL_Driver/Src/stm32wbxx_hal_pwr_ex.c ****       break;
 866              		.loc 1 423 7 view .LVU150
 404:Drivers/STM32WBxx_HAL_Driver/Src/stm32wbxx_hal_pwr_ex.c **** 
 867              		.loc 1 404 21 is_stmt 0 view .LVU151
 868 0044 0020     		movs	r0, #0
 869              	.LVL37:
 870              		.loc 1 423 7 view .LVU152
 871 0046 7047     		bx	lr
 872              	.LVL38:
 873              	.L80:
 424:Drivers/STM32WBxx_HAL_Driver/Src/stm32wbxx_hal_pwr_ex.c **** #endif /* GPIOD */
 425:Drivers/STM32WBxx_HAL_Driver/Src/stm32wbxx_hal_pwr_ex.c ****     case PWR_GPIO_E:
 426:Drivers/STM32WBxx_HAL_Driver/Src/stm32wbxx_hal_pwr_ex.c ****       CLEAR_BIT(PWR->PUCRE, (GPIONumber & PWR_PORTE_AVAILABLE_PINS));
 874              		.loc 1 426 7 is_stmt 1 view .LVU153
 875 0048 094A     		ldr	r2, .L86
 876 004a 136C     		ldr	r3, [r2, #64]
 877 004c 01F01F01 		and	r1, r1, #31
 878              	.LVL39:
 879              		.loc 1 426 7 is_stmt 0 view .LVU154
 880 0050 23EA0101 		bic	r1, r3, r1
 881 0054 1164     		str	r1, [r2, #64]
 427:Drivers/STM32WBxx_HAL_Driver/Src/stm32wbxx_hal_pwr_ex.c ****       break;
 882              		.loc 1 427 7 is_stmt 1 view .LVU155
 404:Drivers/STM32WBxx_HAL_Driver/Src/stm32wbxx_hal_pwr_ex.c **** 
 883              		.loc 1 404 21 is_stmt 0 view .LVU156
 884 0056 0020     		movs	r0, #0
 885              	.LVL40:
 886              		.loc 1 427 7 view .LVU157
 887 0058 7047     		bx	lr
 888              	.LVL41:
 889              	.L78:
 428:Drivers/STM32WBxx_HAL_Driver/Src/stm32wbxx_hal_pwr_ex.c ****     case PWR_GPIO_H:
ARM GAS  C:\Users\Nathan\AppData\Local\Temp\ccvsgOlc.s 			page 24


 429:Drivers/STM32WBxx_HAL_Driver/Src/stm32wbxx_hal_pwr_ex.c ****       CLEAR_BIT(PWR->PUCRH, (GPIONumber & PWR_PORTH_AVAILABLE_PINS));
 890              		.loc 1 429 7 is_stmt 1 view .LVU158
 891 005a 054A     		ldr	r2, .L86
 892 005c 936D     		ldr	r3, [r2, #88]
 893 005e 01F00B01 		and	r1, r1, #11
 894              	.LVL42:
 895              		.loc 1 429 7 is_stmt 0 view .LVU159
 896 0062 23EA0103 		bic	r3, r3, r1
 897 0066 9365     		str	r3, [r2, #88]
 430:Drivers/STM32WBxx_HAL_Driver/Src/stm32wbxx_hal_pwr_ex.c ****       break;
 898              		.loc 1 430 7 is_stmt 1 view .LVU160
 404:Drivers/STM32WBxx_HAL_Driver/Src/stm32wbxx_hal_pwr_ex.c **** 
 899              		.loc 1 404 21 is_stmt 0 view .LVU161
 900 0068 0020     		movs	r0, #0
 901              	.LVL43:
 902              		.loc 1 430 7 view .LVU162
 903 006a 7047     		bx	lr
 904              	.LVL44:
 905              	.L85:
 409:Drivers/STM32WBxx_HAL_Driver/Src/stm32wbxx_hal_pwr_ex.c ****   {
 906              		.loc 1 409 3 view .LVU163
 907 006c 0120     		movs	r0, #1
 908              	.LVL45:
 431:Drivers/STM32WBxx_HAL_Driver/Src/stm32wbxx_hal_pwr_ex.c ****     default:
 432:Drivers/STM32WBxx_HAL_Driver/Src/stm32wbxx_hal_pwr_ex.c ****       status = HAL_ERROR;
 433:Drivers/STM32WBxx_HAL_Driver/Src/stm32wbxx_hal_pwr_ex.c ****       break;
 434:Drivers/STM32WBxx_HAL_Driver/Src/stm32wbxx_hal_pwr_ex.c ****   }
 435:Drivers/STM32WBxx_HAL_Driver/Src/stm32wbxx_hal_pwr_ex.c **** 
 436:Drivers/STM32WBxx_HAL_Driver/Src/stm32wbxx_hal_pwr_ex.c ****   return status;
 909              		.loc 1 436 3 is_stmt 1 view .LVU164
 437:Drivers/STM32WBxx_HAL_Driver/Src/stm32wbxx_hal_pwr_ex.c **** }
 910              		.loc 1 437 1 is_stmt 0 view .LVU165
 911 006e 7047     		bx	lr
 912              	.L87:
 913              		.align	2
 914              	.L86:
 915 0070 00040058 		.word	1476396032
 916              		.cfi_endproc
 917              	.LFE1123:
 919              		.section	.text.HAL_PWREx_EnableGPIOPullDown,"ax",%progbits
 920              		.align	1
 921              		.global	HAL_PWREx_EnableGPIOPullDown
 922              		.syntax unified
 923              		.thumb
 924              		.thumb_func
 926              	HAL_PWREx_EnableGPIOPullDown:
 927              	.LVL46:
 928              	.LFB1124:
 438:Drivers/STM32WBxx_HAL_Driver/Src/stm32wbxx_hal_pwr_ex.c **** 
 439:Drivers/STM32WBxx_HAL_Driver/Src/stm32wbxx_hal_pwr_ex.c **** 
 440:Drivers/STM32WBxx_HAL_Driver/Src/stm32wbxx_hal_pwr_ex.c **** 
 441:Drivers/STM32WBxx_HAL_Driver/Src/stm32wbxx_hal_pwr_ex.c **** /**
 442:Drivers/STM32WBxx_HAL_Driver/Src/stm32wbxx_hal_pwr_ex.c ****   * @brief Enable GPIO pull-down state in Standby and Shutdown modes.
 443:Drivers/STM32WBxx_HAL_Driver/Src/stm32wbxx_hal_pwr_ex.c ****   * @note  Set the relevant PDy bits of PWR_PDCRx register to configure the I/O in
 444:Drivers/STM32WBxx_HAL_Driver/Src/stm32wbxx_hal_pwr_ex.c ****   *        pull-down state in Standby and Shutdown modes.
 445:Drivers/STM32WBxx_HAL_Driver/Src/stm32wbxx_hal_pwr_ex.c ****   * @note  This state is effective in Standby and Shutdown modes only if APC bit
 446:Drivers/STM32WBxx_HAL_Driver/Src/stm32wbxx_hal_pwr_ex.c ****   *        is set through HAL_PWREx_EnablePullUpPullDownConfig() API.
ARM GAS  C:\Users\Nathan\AppData\Local\Temp\ccvsgOlc.s 			page 25


 447:Drivers/STM32WBxx_HAL_Driver/Src/stm32wbxx_hal_pwr_ex.c ****   * @note  The configuration is lost when exiting the Shutdown mode due to the
 448:Drivers/STM32WBxx_HAL_Driver/Src/stm32wbxx_hal_pwr_ex.c ****   *        power-on reset, maintained when exiting the Standby mode.
 449:Drivers/STM32WBxx_HAL_Driver/Src/stm32wbxx_hal_pwr_ex.c ****   * @note  To avoid any conflict at Standby and Shutdown modes exits, the corresponding
 450:Drivers/STM32WBxx_HAL_Driver/Src/stm32wbxx_hal_pwr_ex.c ****   *        PUy bit of PWR_PUCRx register is cleared unless it is reserved.
 451:Drivers/STM32WBxx_HAL_Driver/Src/stm32wbxx_hal_pwr_ex.c ****   * @note  Even if a PDy bit to set is reserved, the other PDy bits entered as input
 452:Drivers/STM32WBxx_HAL_Driver/Src/stm32wbxx_hal_pwr_ex.c ****   *        parameter at the same time are set.
 453:Drivers/STM32WBxx_HAL_Driver/Src/stm32wbxx_hal_pwr_ex.c ****   * @param GPIO Specify the IO port. This parameter can be PWR_GPIO_A..PWR_GPIO_H
 454:Drivers/STM32WBxx_HAL_Driver/Src/stm32wbxx_hal_pwr_ex.c ****   *         to select the GPIO peripheral.
 455:Drivers/STM32WBxx_HAL_Driver/Src/stm32wbxx_hal_pwr_ex.c ****   * @param GPIONumber Specify the I/O pins numbers.
 456:Drivers/STM32WBxx_HAL_Driver/Src/stm32wbxx_hal_pwr_ex.c ****   *         This parameter can be one of the following values:
 457:Drivers/STM32WBxx_HAL_Driver/Src/stm32wbxx_hal_pwr_ex.c ****   *         PWR_GPIO_BIT_0, ..., PWR_GPIO_BIT_15 (except for PORTH where less
 458:Drivers/STM32WBxx_HAL_Driver/Src/stm32wbxx_hal_pwr_ex.c ****   *         I/O pins are available) or the logical OR of several of them to set
 459:Drivers/STM32WBxx_HAL_Driver/Src/stm32wbxx_hal_pwr_ex.c ****   *         several bits for a given port in a single API call.
 460:Drivers/STM32WBxx_HAL_Driver/Src/stm32wbxx_hal_pwr_ex.c ****   * @retval HAL Status
 461:Drivers/STM32WBxx_HAL_Driver/Src/stm32wbxx_hal_pwr_ex.c ****   */
 462:Drivers/STM32WBxx_HAL_Driver/Src/stm32wbxx_hal_pwr_ex.c **** HAL_StatusTypeDef HAL_PWREx_EnableGPIOPullDown(uint32_t GPIO, uint32_t GPIONumber)
 463:Drivers/STM32WBxx_HAL_Driver/Src/stm32wbxx_hal_pwr_ex.c **** {
 929              		.loc 1 463 1 is_stmt 1 view -0
 930              		.cfi_startproc
 931              		@ args = 0, pretend = 0, frame = 0
 932              		@ frame_needed = 0, uses_anonymous_args = 0
 933              		@ link register save eliminated.
 464:Drivers/STM32WBxx_HAL_Driver/Src/stm32wbxx_hal_pwr_ex.c ****   HAL_StatusTypeDef status = HAL_OK;
 934              		.loc 1 464 3 view .LVU167
 465:Drivers/STM32WBxx_HAL_Driver/Src/stm32wbxx_hal_pwr_ex.c **** 
 466:Drivers/STM32WBxx_HAL_Driver/Src/stm32wbxx_hal_pwr_ex.c ****   assert_param(IS_PWR_GPIO(GPIO));
 935              		.loc 1 466 3 view .LVU168
 467:Drivers/STM32WBxx_HAL_Driver/Src/stm32wbxx_hal_pwr_ex.c ****   assert_param(IS_PWR_GPIO_BIT_NUMBER(GPIONumber));
 936              		.loc 1 467 3 view .LVU169
 468:Drivers/STM32WBxx_HAL_Driver/Src/stm32wbxx_hal_pwr_ex.c **** 
 469:Drivers/STM32WBxx_HAL_Driver/Src/stm32wbxx_hal_pwr_ex.c ****   switch (GPIO)
 937              		.loc 1 469 3 view .LVU170
 938 0000 0728     		cmp	r0, #7
 939 0002 45D8     		bhi	.L97
 940 0004 DFE800F0 		tbb	[pc, r0]
 941              	.L91:
 942 0008 04       		.byte	(.L96-.L91)/2
 943 0009 0E       		.byte	(.L95-.L91)/2
 944 000a 18       		.byte	(.L94-.L91)/2
 945 000b 22       		.byte	(.L93-.L91)/2
 946 000c 2C       		.byte	(.L92-.L91)/2
 947 000d 44       		.byte	(.L97-.L91)/2
 948 000e 44       		.byte	(.L97-.L91)/2
 949 000f 38       		.byte	(.L90-.L91)/2
 950              		.p2align 1
 951              	.L96:
 470:Drivers/STM32WBxx_HAL_Driver/Src/stm32wbxx_hal_pwr_ex.c ****   {
 471:Drivers/STM32WBxx_HAL_Driver/Src/stm32wbxx_hal_pwr_ex.c ****     case PWR_GPIO_A:
 472:Drivers/STM32WBxx_HAL_Driver/Src/stm32wbxx_hal_pwr_ex.c ****       SET_BIT(PWR->PDCRA, GPIONumber);
 952              		.loc 1 472 7 view .LVU171
 953 0010 204B     		ldr	r3, .L98
 954 0012 5A6A     		ldr	r2, [r3, #36]
 955 0014 0A43     		orrs	r2, r2, r1
 956 0016 5A62     		str	r2, [r3, #36]
 473:Drivers/STM32WBxx_HAL_Driver/Src/stm32wbxx_hal_pwr_ex.c ****       CLEAR_BIT(PWR->PUCRA, GPIONumber);
 957              		.loc 1 473 7 view .LVU172
 958 0018 1A6A     		ldr	r2, [r3, #32]
ARM GAS  C:\Users\Nathan\AppData\Local\Temp\ccvsgOlc.s 			page 26


 959 001a 22EA0102 		bic	r2, r2, r1
 960 001e 1A62     		str	r2, [r3, #32]
 474:Drivers/STM32WBxx_HAL_Driver/Src/stm32wbxx_hal_pwr_ex.c ****       break;
 961              		.loc 1 474 7 view .LVU173
 464:Drivers/STM32WBxx_HAL_Driver/Src/stm32wbxx_hal_pwr_ex.c **** 
 962              		.loc 1 464 21 is_stmt 0 view .LVU174
 963 0020 0020     		movs	r0, #0
 964              	.LVL47:
 965              		.loc 1 474 7 view .LVU175
 966 0022 7047     		bx	lr
 967              	.LVL48:
 968              	.L95:
 475:Drivers/STM32WBxx_HAL_Driver/Src/stm32wbxx_hal_pwr_ex.c ****     case PWR_GPIO_B:
 476:Drivers/STM32WBxx_HAL_Driver/Src/stm32wbxx_hal_pwr_ex.c ****       SET_BIT(PWR->PDCRB, GPIONumber);
 969              		.loc 1 476 7 is_stmt 1 view .LVU176
 970 0024 1B4B     		ldr	r3, .L98
 971 0026 DA6A     		ldr	r2, [r3, #44]
 972 0028 0A43     		orrs	r2, r2, r1
 973 002a DA62     		str	r2, [r3, #44]
 477:Drivers/STM32WBxx_HAL_Driver/Src/stm32wbxx_hal_pwr_ex.c ****       CLEAR_BIT(PWR->PUCRB, GPIONumber);
 974              		.loc 1 477 7 view .LVU177
 975 002c 9A6A     		ldr	r2, [r3, #40]
 976 002e 22EA0102 		bic	r2, r2, r1
 977 0032 9A62     		str	r2, [r3, #40]
 478:Drivers/STM32WBxx_HAL_Driver/Src/stm32wbxx_hal_pwr_ex.c ****       break;
 978              		.loc 1 478 7 view .LVU178
 464:Drivers/STM32WBxx_HAL_Driver/Src/stm32wbxx_hal_pwr_ex.c **** 
 979              		.loc 1 464 21 is_stmt 0 view .LVU179
 980 0034 0020     		movs	r0, #0
 981              	.LVL49:
 982              		.loc 1 478 7 view .LVU180
 983 0036 7047     		bx	lr
 984              	.LVL50:
 985              	.L94:
 479:Drivers/STM32WBxx_HAL_Driver/Src/stm32wbxx_hal_pwr_ex.c ****     case PWR_GPIO_C:
 480:Drivers/STM32WBxx_HAL_Driver/Src/stm32wbxx_hal_pwr_ex.c ****       SET_BIT(PWR->PDCRC, GPIONumber);
 986              		.loc 1 480 7 is_stmt 1 view .LVU181
 987 0038 164B     		ldr	r3, .L98
 988 003a 5A6B     		ldr	r2, [r3, #52]
 989 003c 0A43     		orrs	r2, r2, r1
 990 003e 5A63     		str	r2, [r3, #52]
 481:Drivers/STM32WBxx_HAL_Driver/Src/stm32wbxx_hal_pwr_ex.c ****       CLEAR_BIT(PWR->PUCRC, GPIONumber);
 991              		.loc 1 481 7 view .LVU182
 992 0040 1A6B     		ldr	r2, [r3, #48]
 993 0042 22EA0102 		bic	r2, r2, r1
 994 0046 1A63     		str	r2, [r3, #48]
 482:Drivers/STM32WBxx_HAL_Driver/Src/stm32wbxx_hal_pwr_ex.c ****       break;
 995              		.loc 1 482 7 view .LVU183
 464:Drivers/STM32WBxx_HAL_Driver/Src/stm32wbxx_hal_pwr_ex.c **** 
 996              		.loc 1 464 21 is_stmt 0 view .LVU184
 997 0048 0020     		movs	r0, #0
 998              	.LVL51:
 999              		.loc 1 482 7 view .LVU185
 1000 004a 7047     		bx	lr
 1001              	.LVL52:
 1002              	.L93:
 483:Drivers/STM32WBxx_HAL_Driver/Src/stm32wbxx_hal_pwr_ex.c **** #if defined(GPIOD)
ARM GAS  C:\Users\Nathan\AppData\Local\Temp\ccvsgOlc.s 			page 27


 484:Drivers/STM32WBxx_HAL_Driver/Src/stm32wbxx_hal_pwr_ex.c ****     case PWR_GPIO_D:
 485:Drivers/STM32WBxx_HAL_Driver/Src/stm32wbxx_hal_pwr_ex.c ****       SET_BIT(PWR->PDCRD, GPIONumber);
 1003              		.loc 1 485 7 is_stmt 1 view .LVU186
 1004 004c 114B     		ldr	r3, .L98
 1005 004e DA6B     		ldr	r2, [r3, #60]
 1006 0050 0A43     		orrs	r2, r2, r1
 1007 0052 DA63     		str	r2, [r3, #60]
 486:Drivers/STM32WBxx_HAL_Driver/Src/stm32wbxx_hal_pwr_ex.c ****       CLEAR_BIT(PWR->PUCRD, GPIONumber);
 1008              		.loc 1 486 7 view .LVU187
 1009 0054 9A6B     		ldr	r2, [r3, #56]
 1010 0056 22EA0102 		bic	r2, r2, r1
 1011 005a 9A63     		str	r2, [r3, #56]
 487:Drivers/STM32WBxx_HAL_Driver/Src/stm32wbxx_hal_pwr_ex.c ****       break;
 1012              		.loc 1 487 7 view .LVU188
 464:Drivers/STM32WBxx_HAL_Driver/Src/stm32wbxx_hal_pwr_ex.c **** 
 1013              		.loc 1 464 21 is_stmt 0 view .LVU189
 1014 005c 0020     		movs	r0, #0
 1015              	.LVL53:
 1016              		.loc 1 487 7 view .LVU190
 1017 005e 7047     		bx	lr
 1018              	.LVL54:
 1019              	.L92:
 488:Drivers/STM32WBxx_HAL_Driver/Src/stm32wbxx_hal_pwr_ex.c **** #endif /* GPIOD */
 489:Drivers/STM32WBxx_HAL_Driver/Src/stm32wbxx_hal_pwr_ex.c ****     case PWR_GPIO_E:
 490:Drivers/STM32WBxx_HAL_Driver/Src/stm32wbxx_hal_pwr_ex.c ****       SET_BIT(PWR->PDCRE, (GPIONumber & PWR_PORTE_AVAILABLE_PINS));
 1020              		.loc 1 490 7 is_stmt 1 view .LVU191
 1021 0060 0C4B     		ldr	r3, .L98
 1022 0062 5A6C     		ldr	r2, [r3, #68]
 1023 0064 01F01F01 		and	r1, r1, #31
 1024              	.LVL55:
 1025              		.loc 1 490 7 is_stmt 0 view .LVU192
 1026 0068 0A43     		orrs	r2, r2, r1
 1027 006a 5A64     		str	r2, [r3, #68]
 491:Drivers/STM32WBxx_HAL_Driver/Src/stm32wbxx_hal_pwr_ex.c ****       CLEAR_BIT(PWR->PUCRE, (GPIONumber & PWR_PORTE_AVAILABLE_PINS));
 1028              		.loc 1 491 7 is_stmt 1 view .LVU193
 1029 006c 1A6C     		ldr	r2, [r3, #64]
 1030 006e 22EA0102 		bic	r2, r2, r1
 1031 0072 1A64     		str	r2, [r3, #64]
 492:Drivers/STM32WBxx_HAL_Driver/Src/stm32wbxx_hal_pwr_ex.c ****       break;
 1032              		.loc 1 492 7 view .LVU194
 464:Drivers/STM32WBxx_HAL_Driver/Src/stm32wbxx_hal_pwr_ex.c **** 
 1033              		.loc 1 464 21 is_stmt 0 view .LVU195
 1034 0074 0020     		movs	r0, #0
 1035              	.LVL56:
 1036              		.loc 1 492 7 view .LVU196
 1037 0076 7047     		bx	lr
 1038              	.LVL57:
 1039              	.L90:
 493:Drivers/STM32WBxx_HAL_Driver/Src/stm32wbxx_hal_pwr_ex.c ****     case PWR_GPIO_H:
 494:Drivers/STM32WBxx_HAL_Driver/Src/stm32wbxx_hal_pwr_ex.c ****       SET_BIT(PWR->PDCRH, (GPIONumber & PWR_PORTH_AVAILABLE_PINS));
 1040              		.loc 1 494 7 is_stmt 1 view .LVU197
 1041 0078 064B     		ldr	r3, .L98
 1042 007a DA6D     		ldr	r2, [r3, #92]
 1043 007c 01F00B01 		and	r1, r1, #11
 1044              	.LVL58:
 1045              		.loc 1 494 7 is_stmt 0 view .LVU198
 1046 0080 0A43     		orrs	r2, r2, r1
ARM GAS  C:\Users\Nathan\AppData\Local\Temp\ccvsgOlc.s 			page 28


 1047 0082 DA65     		str	r2, [r3, #92]
 495:Drivers/STM32WBxx_HAL_Driver/Src/stm32wbxx_hal_pwr_ex.c ****       CLEAR_BIT(PWR->PUCRH, (GPIONumber & PWR_PORTH_AVAILABLE_PINS));
 1048              		.loc 1 495 7 is_stmt 1 view .LVU199
 1049 0084 9A6D     		ldr	r2, [r3, #88]
 1050 0086 22EA0102 		bic	r2, r2, r1
 1051 008a 9A65     		str	r2, [r3, #88]
 496:Drivers/STM32WBxx_HAL_Driver/Src/stm32wbxx_hal_pwr_ex.c ****       break;
 1052              		.loc 1 496 7 view .LVU200
 464:Drivers/STM32WBxx_HAL_Driver/Src/stm32wbxx_hal_pwr_ex.c **** 
 1053              		.loc 1 464 21 is_stmt 0 view .LVU201
 1054 008c 0020     		movs	r0, #0
 1055              	.LVL59:
 1056              		.loc 1 496 7 view .LVU202
 1057 008e 7047     		bx	lr
 1058              	.LVL60:
 1059              	.L97:
 469:Drivers/STM32WBxx_HAL_Driver/Src/stm32wbxx_hal_pwr_ex.c ****   {
 1060              		.loc 1 469 3 view .LVU203
 1061 0090 0120     		movs	r0, #1
 1062              	.LVL61:
 497:Drivers/STM32WBxx_HAL_Driver/Src/stm32wbxx_hal_pwr_ex.c ****     default:
 498:Drivers/STM32WBxx_HAL_Driver/Src/stm32wbxx_hal_pwr_ex.c ****       status = HAL_ERROR;
 499:Drivers/STM32WBxx_HAL_Driver/Src/stm32wbxx_hal_pwr_ex.c ****       break;
 500:Drivers/STM32WBxx_HAL_Driver/Src/stm32wbxx_hal_pwr_ex.c ****   }
 501:Drivers/STM32WBxx_HAL_Driver/Src/stm32wbxx_hal_pwr_ex.c **** 
 502:Drivers/STM32WBxx_HAL_Driver/Src/stm32wbxx_hal_pwr_ex.c ****   return status;
 1063              		.loc 1 502 3 is_stmt 1 view .LVU204
 503:Drivers/STM32WBxx_HAL_Driver/Src/stm32wbxx_hal_pwr_ex.c **** }
 1064              		.loc 1 503 1 is_stmt 0 view .LVU205
 1065 0092 7047     		bx	lr
 1066              	.L99:
 1067              		.align	2
 1068              	.L98:
 1069 0094 00040058 		.word	1476396032
 1070              		.cfi_endproc
 1071              	.LFE1124:
 1073              		.section	.text.HAL_PWREx_DisableGPIOPullDown,"ax",%progbits
 1074              		.align	1
 1075              		.global	HAL_PWREx_DisableGPIOPullDown
 1076              		.syntax unified
 1077              		.thumb
 1078              		.thumb_func
 1080              	HAL_PWREx_DisableGPIOPullDown:
 1081              	.LVL62:
 1082              	.LFB1125:
 504:Drivers/STM32WBxx_HAL_Driver/Src/stm32wbxx_hal_pwr_ex.c **** 
 505:Drivers/STM32WBxx_HAL_Driver/Src/stm32wbxx_hal_pwr_ex.c **** /**
 506:Drivers/STM32WBxx_HAL_Driver/Src/stm32wbxx_hal_pwr_ex.c ****   * @brief Disable GPIO pull-down state in Standby and Shutdown modes.
 507:Drivers/STM32WBxx_HAL_Driver/Src/stm32wbxx_hal_pwr_ex.c ****   * @note  Reset the relevant PDy bits of PWR_PDCRx register used to configure the I/O
 508:Drivers/STM32WBxx_HAL_Driver/Src/stm32wbxx_hal_pwr_ex.c ****   *        in pull-down state in Standby and Shutdown modes.
 509:Drivers/STM32WBxx_HAL_Driver/Src/stm32wbxx_hal_pwr_ex.c ****   * @note  Even if a PDy bit to reset is reserved, the other PDy bits entered as input
 510:Drivers/STM32WBxx_HAL_Driver/Src/stm32wbxx_hal_pwr_ex.c ****   *        parameter at the same time are reset.
 511:Drivers/STM32WBxx_HAL_Driver/Src/stm32wbxx_hal_pwr_ex.c ****   * @param GPIO Specifies the IO port. This parameter can be PWR_GPIO_A..PWR_GPIO_H
 512:Drivers/STM32WBxx_HAL_Driver/Src/stm32wbxx_hal_pwr_ex.c ****   *         to select the GPIO peripheral.
 513:Drivers/STM32WBxx_HAL_Driver/Src/stm32wbxx_hal_pwr_ex.c ****   * @param GPIONumber Specify the I/O pins numbers.
 514:Drivers/STM32WBxx_HAL_Driver/Src/stm32wbxx_hal_pwr_ex.c ****   *         This parameter can be one of the following values:
 515:Drivers/STM32WBxx_HAL_Driver/Src/stm32wbxx_hal_pwr_ex.c ****   *         PWR_GPIO_BIT_0, ..., PWR_GPIO_BIT_15 (except for PORTH where less
ARM GAS  C:\Users\Nathan\AppData\Local\Temp\ccvsgOlc.s 			page 29


 516:Drivers/STM32WBxx_HAL_Driver/Src/stm32wbxx_hal_pwr_ex.c ****   *         I/O pins are available) or the logical OR of several of them to reset
 517:Drivers/STM32WBxx_HAL_Driver/Src/stm32wbxx_hal_pwr_ex.c ****   *         several bits for a given port in a single API call.
 518:Drivers/STM32WBxx_HAL_Driver/Src/stm32wbxx_hal_pwr_ex.c ****   * @retval HAL Status
 519:Drivers/STM32WBxx_HAL_Driver/Src/stm32wbxx_hal_pwr_ex.c ****   */
 520:Drivers/STM32WBxx_HAL_Driver/Src/stm32wbxx_hal_pwr_ex.c **** HAL_StatusTypeDef HAL_PWREx_DisableGPIOPullDown(uint32_t GPIO, uint32_t GPIONumber)
 521:Drivers/STM32WBxx_HAL_Driver/Src/stm32wbxx_hal_pwr_ex.c **** {
 1083              		.loc 1 521 1 is_stmt 1 view -0
 1084              		.cfi_startproc
 1085              		@ args = 0, pretend = 0, frame = 0
 1086              		@ frame_needed = 0, uses_anonymous_args = 0
 1087              		@ link register save eliminated.
 522:Drivers/STM32WBxx_HAL_Driver/Src/stm32wbxx_hal_pwr_ex.c ****   HAL_StatusTypeDef status = HAL_OK;
 1088              		.loc 1 522 3 view .LVU207
 523:Drivers/STM32WBxx_HAL_Driver/Src/stm32wbxx_hal_pwr_ex.c **** 
 524:Drivers/STM32WBxx_HAL_Driver/Src/stm32wbxx_hal_pwr_ex.c ****   assert_param(IS_PWR_GPIO(GPIO));
 1089              		.loc 1 524 3 view .LVU208
 525:Drivers/STM32WBxx_HAL_Driver/Src/stm32wbxx_hal_pwr_ex.c ****   assert_param(IS_PWR_GPIO_BIT_NUMBER(GPIONumber));
 1090              		.loc 1 525 3 view .LVU209
 526:Drivers/STM32WBxx_HAL_Driver/Src/stm32wbxx_hal_pwr_ex.c **** 
 527:Drivers/STM32WBxx_HAL_Driver/Src/stm32wbxx_hal_pwr_ex.c ****   switch (GPIO)
 1091              		.loc 1 527 3 view .LVU210
 1092 0000 0728     		cmp	r0, #7
 1093 0002 33D8     		bhi	.L109
 1094 0004 DFE800F0 		tbb	[pc, r0]
 1095              	.L103:
 1096 0008 04       		.byte	(.L108-.L103)/2
 1097 0009 0B       		.byte	(.L107-.L103)/2
 1098 000a 12       		.byte	(.L106-.L103)/2
 1099 000b 19       		.byte	(.L105-.L103)/2
 1100 000c 20       		.byte	(.L104-.L103)/2
 1101 000d 32       		.byte	(.L109-.L103)/2
 1102 000e 32       		.byte	(.L109-.L103)/2
 1103 000f 29       		.byte	(.L102-.L103)/2
 1104              		.p2align 1
 1105              	.L108:
 528:Drivers/STM32WBxx_HAL_Driver/Src/stm32wbxx_hal_pwr_ex.c ****   {
 529:Drivers/STM32WBxx_HAL_Driver/Src/stm32wbxx_hal_pwr_ex.c ****     case PWR_GPIO_A:
 530:Drivers/STM32WBxx_HAL_Driver/Src/stm32wbxx_hal_pwr_ex.c ****       CLEAR_BIT(PWR->PDCRA, GPIONumber);
 1106              		.loc 1 530 7 view .LVU211
 1107 0010 174A     		ldr	r2, .L110
 1108 0012 536A     		ldr	r3, [r2, #36]
 1109 0014 23EA0103 		bic	r3, r3, r1
 1110 0018 5362     		str	r3, [r2, #36]
 531:Drivers/STM32WBxx_HAL_Driver/Src/stm32wbxx_hal_pwr_ex.c ****       break;
 1111              		.loc 1 531 7 view .LVU212
 522:Drivers/STM32WBxx_HAL_Driver/Src/stm32wbxx_hal_pwr_ex.c **** 
 1112              		.loc 1 522 21 is_stmt 0 view .LVU213
 1113 001a 0020     		movs	r0, #0
 1114              	.LVL63:
 1115              		.loc 1 531 7 view .LVU214
 1116 001c 7047     		bx	lr
 1117              	.LVL64:
 1118              	.L107:
 532:Drivers/STM32WBxx_HAL_Driver/Src/stm32wbxx_hal_pwr_ex.c ****     case PWR_GPIO_B:
 533:Drivers/STM32WBxx_HAL_Driver/Src/stm32wbxx_hal_pwr_ex.c ****       CLEAR_BIT(PWR->PDCRB, GPIONumber);
 1119              		.loc 1 533 7 is_stmt 1 view .LVU215
 1120 001e 144A     		ldr	r2, .L110
ARM GAS  C:\Users\Nathan\AppData\Local\Temp\ccvsgOlc.s 			page 30


 1121 0020 D36A     		ldr	r3, [r2, #44]
 1122 0022 23EA0103 		bic	r3, r3, r1
 1123 0026 D362     		str	r3, [r2, #44]
 534:Drivers/STM32WBxx_HAL_Driver/Src/stm32wbxx_hal_pwr_ex.c ****       break;
 1124              		.loc 1 534 7 view .LVU216
 522:Drivers/STM32WBxx_HAL_Driver/Src/stm32wbxx_hal_pwr_ex.c **** 
 1125              		.loc 1 522 21 is_stmt 0 view .LVU217
 1126 0028 0020     		movs	r0, #0
 1127              	.LVL65:
 1128              		.loc 1 534 7 view .LVU218
 1129 002a 7047     		bx	lr
 1130              	.LVL66:
 1131              	.L106:
 535:Drivers/STM32WBxx_HAL_Driver/Src/stm32wbxx_hal_pwr_ex.c ****     case PWR_GPIO_C:
 536:Drivers/STM32WBxx_HAL_Driver/Src/stm32wbxx_hal_pwr_ex.c ****       CLEAR_BIT(PWR->PDCRC, GPIONumber);
 1132              		.loc 1 536 7 is_stmt 1 view .LVU219
 1133 002c 104A     		ldr	r2, .L110
 1134 002e 536B     		ldr	r3, [r2, #52]
 1135 0030 23EA0103 		bic	r3, r3, r1
 1136 0034 5363     		str	r3, [r2, #52]
 537:Drivers/STM32WBxx_HAL_Driver/Src/stm32wbxx_hal_pwr_ex.c ****       break;
 1137              		.loc 1 537 7 view .LVU220
 522:Drivers/STM32WBxx_HAL_Driver/Src/stm32wbxx_hal_pwr_ex.c **** 
 1138              		.loc 1 522 21 is_stmt 0 view .LVU221
 1139 0036 0020     		movs	r0, #0
 1140              	.LVL67:
 1141              		.loc 1 537 7 view .LVU222
 1142 0038 7047     		bx	lr
 1143              	.LVL68:
 1144              	.L105:
 538:Drivers/STM32WBxx_HAL_Driver/Src/stm32wbxx_hal_pwr_ex.c **** #if defined(GPIOD)
 539:Drivers/STM32WBxx_HAL_Driver/Src/stm32wbxx_hal_pwr_ex.c ****     case PWR_GPIO_D:
 540:Drivers/STM32WBxx_HAL_Driver/Src/stm32wbxx_hal_pwr_ex.c ****       CLEAR_BIT(PWR->PDCRD, GPIONumber);
 1145              		.loc 1 540 7 is_stmt 1 view .LVU223
 1146 003a 0D4A     		ldr	r2, .L110
 1147 003c D36B     		ldr	r3, [r2, #60]
 1148 003e 23EA0103 		bic	r3, r3, r1
 1149 0042 D363     		str	r3, [r2, #60]
 541:Drivers/STM32WBxx_HAL_Driver/Src/stm32wbxx_hal_pwr_ex.c ****       break;
 1150              		.loc 1 541 7 view .LVU224
 522:Drivers/STM32WBxx_HAL_Driver/Src/stm32wbxx_hal_pwr_ex.c **** 
 1151              		.loc 1 522 21 is_stmt 0 view .LVU225
 1152 0044 0020     		movs	r0, #0
 1153              	.LVL69:
 1154              		.loc 1 541 7 view .LVU226
 1155 0046 7047     		bx	lr
 1156              	.LVL70:
 1157              	.L104:
 542:Drivers/STM32WBxx_HAL_Driver/Src/stm32wbxx_hal_pwr_ex.c **** #endif /* GPIOD */
 543:Drivers/STM32WBxx_HAL_Driver/Src/stm32wbxx_hal_pwr_ex.c ****     case PWR_GPIO_E:
 544:Drivers/STM32WBxx_HAL_Driver/Src/stm32wbxx_hal_pwr_ex.c ****       CLEAR_BIT(PWR->PDCRE, (GPIONumber & PWR_PORTE_AVAILABLE_PINS));
 1158              		.loc 1 544 7 is_stmt 1 view .LVU227
 1159 0048 094A     		ldr	r2, .L110
 1160 004a 536C     		ldr	r3, [r2, #68]
 1161 004c 01F01F01 		and	r1, r1, #31
 1162              	.LVL71:
 1163              		.loc 1 544 7 is_stmt 0 view .LVU228
ARM GAS  C:\Users\Nathan\AppData\Local\Temp\ccvsgOlc.s 			page 31


 1164 0050 23EA0101 		bic	r1, r3, r1
 1165 0054 5164     		str	r1, [r2, #68]
 545:Drivers/STM32WBxx_HAL_Driver/Src/stm32wbxx_hal_pwr_ex.c ****       break;
 1166              		.loc 1 545 7 is_stmt 1 view .LVU229
 522:Drivers/STM32WBxx_HAL_Driver/Src/stm32wbxx_hal_pwr_ex.c **** 
 1167              		.loc 1 522 21 is_stmt 0 view .LVU230
 1168 0056 0020     		movs	r0, #0
 1169              	.LVL72:
 1170              		.loc 1 545 7 view .LVU231
 1171 0058 7047     		bx	lr
 1172              	.LVL73:
 1173              	.L102:
 546:Drivers/STM32WBxx_HAL_Driver/Src/stm32wbxx_hal_pwr_ex.c ****     case PWR_GPIO_H:
 547:Drivers/STM32WBxx_HAL_Driver/Src/stm32wbxx_hal_pwr_ex.c ****       CLEAR_BIT(PWR->PDCRH, (GPIONumber & PWR_PORTH_AVAILABLE_PINS));
 1174              		.loc 1 547 7 is_stmt 1 view .LVU232
 1175 005a 054A     		ldr	r2, .L110
 1176 005c D36D     		ldr	r3, [r2, #92]
 1177 005e 01F00B01 		and	r1, r1, #11
 1178              	.LVL74:
 1179              		.loc 1 547 7 is_stmt 0 view .LVU233
 1180 0062 23EA0103 		bic	r3, r3, r1
 1181 0066 D365     		str	r3, [r2, #92]
 548:Drivers/STM32WBxx_HAL_Driver/Src/stm32wbxx_hal_pwr_ex.c ****       break;
 1182              		.loc 1 548 7 is_stmt 1 view .LVU234
 522:Drivers/STM32WBxx_HAL_Driver/Src/stm32wbxx_hal_pwr_ex.c **** 
 1183              		.loc 1 522 21 is_stmt 0 view .LVU235
 1184 0068 0020     		movs	r0, #0
 1185              	.LVL75:
 1186              		.loc 1 548 7 view .LVU236
 1187 006a 7047     		bx	lr
 1188              	.LVL76:
 1189              	.L109:
 527:Drivers/STM32WBxx_HAL_Driver/Src/stm32wbxx_hal_pwr_ex.c ****   {
 1190              		.loc 1 527 3 view .LVU237
 1191 006c 0120     		movs	r0, #1
 1192              	.LVL77:
 549:Drivers/STM32WBxx_HAL_Driver/Src/stm32wbxx_hal_pwr_ex.c ****     default:
 550:Drivers/STM32WBxx_HAL_Driver/Src/stm32wbxx_hal_pwr_ex.c ****       status = HAL_ERROR;
 551:Drivers/STM32WBxx_HAL_Driver/Src/stm32wbxx_hal_pwr_ex.c ****       break;
 552:Drivers/STM32WBxx_HAL_Driver/Src/stm32wbxx_hal_pwr_ex.c ****   }
 553:Drivers/STM32WBxx_HAL_Driver/Src/stm32wbxx_hal_pwr_ex.c **** 
 554:Drivers/STM32WBxx_HAL_Driver/Src/stm32wbxx_hal_pwr_ex.c ****   return status;
 1193              		.loc 1 554 3 is_stmt 1 view .LVU238
 555:Drivers/STM32WBxx_HAL_Driver/Src/stm32wbxx_hal_pwr_ex.c **** }
 1194              		.loc 1 555 1 is_stmt 0 view .LVU239
 1195 006e 7047     		bx	lr
 1196              	.L111:
 1197              		.align	2
 1198              	.L110:
 1199 0070 00040058 		.word	1476396032
 1200              		.cfi_endproc
 1201              	.LFE1125:
 1203              		.section	.text.HAL_PWREx_EnablePullUpPullDownConfig,"ax",%progbits
 1204              		.align	1
 1205              		.global	HAL_PWREx_EnablePullUpPullDownConfig
 1206              		.syntax unified
 1207              		.thumb
ARM GAS  C:\Users\Nathan\AppData\Local\Temp\ccvsgOlc.s 			page 32


 1208              		.thumb_func
 1210              	HAL_PWREx_EnablePullUpPullDownConfig:
 1211              	.LFB1126:
 556:Drivers/STM32WBxx_HAL_Driver/Src/stm32wbxx_hal_pwr_ex.c **** 
 557:Drivers/STM32WBxx_HAL_Driver/Src/stm32wbxx_hal_pwr_ex.c **** /**
 558:Drivers/STM32WBxx_HAL_Driver/Src/stm32wbxx_hal_pwr_ex.c ****   * @brief Enable pull-up and pull-down configuration.
 559:Drivers/STM32WBxx_HAL_Driver/Src/stm32wbxx_hal_pwr_ex.c ****   * @note  When APC bit is set, the I/O pull-up and pull-down configurations defined in
 560:Drivers/STM32WBxx_HAL_Driver/Src/stm32wbxx_hal_pwr_ex.c ****   *        PWR_PUCRx and PWR_PDCRx registers are applied in Standby and Shutdown modes.
 561:Drivers/STM32WBxx_HAL_Driver/Src/stm32wbxx_hal_pwr_ex.c ****   * @note  Pull-up set by PUy bit of PWR_PUCRx register is not activated if the corresponding
 562:Drivers/STM32WBxx_HAL_Driver/Src/stm32wbxx_hal_pwr_ex.c ****   *        PDy bit of PWR_PDCRx register is also set (pull-down configuration priority is higher).
 563:Drivers/STM32WBxx_HAL_Driver/Src/stm32wbxx_hal_pwr_ex.c ****   *        HAL_PWREx_EnableGPIOPullUp() and HAL_PWREx_EnableGPIOPullDown() API's ensure there
 564:Drivers/STM32WBxx_HAL_Driver/Src/stm32wbxx_hal_pwr_ex.c ****   *        is no conflict when setting PUy or PDy bit.
 565:Drivers/STM32WBxx_HAL_Driver/Src/stm32wbxx_hal_pwr_ex.c ****   * @retval None
 566:Drivers/STM32WBxx_HAL_Driver/Src/stm32wbxx_hal_pwr_ex.c ****   */
 567:Drivers/STM32WBxx_HAL_Driver/Src/stm32wbxx_hal_pwr_ex.c **** void HAL_PWREx_EnablePullUpPullDownConfig(void)
 568:Drivers/STM32WBxx_HAL_Driver/Src/stm32wbxx_hal_pwr_ex.c **** {
 1212              		.loc 1 568 1 is_stmt 1 view -0
 1213              		.cfi_startproc
 1214              		@ args = 0, pretend = 0, frame = 0
 1215              		@ frame_needed = 0, uses_anonymous_args = 0
 1216              		@ link register save eliminated.
 569:Drivers/STM32WBxx_HAL_Driver/Src/stm32wbxx_hal_pwr_ex.c ****   SET_BIT(PWR->CR3, PWR_CR3_APC);
 1217              		.loc 1 569 3 view .LVU241
 1218 0000 024A     		ldr	r2, .L113
 1219 0002 9368     		ldr	r3, [r2, #8]
 1220 0004 43F48063 		orr	r3, r3, #1024
 1221 0008 9360     		str	r3, [r2, #8]
 570:Drivers/STM32WBxx_HAL_Driver/Src/stm32wbxx_hal_pwr_ex.c **** }
 1222              		.loc 1 570 1 is_stmt 0 view .LVU242
 1223 000a 7047     		bx	lr
 1224              	.L114:
 1225              		.align	2
 1226              	.L113:
 1227 000c 00040058 		.word	1476396032
 1228              		.cfi_endproc
 1229              	.LFE1126:
 1231              		.section	.text.HAL_PWREx_DisablePullUpPullDownConfig,"ax",%progbits
 1232              		.align	1
 1233              		.global	HAL_PWREx_DisablePullUpPullDownConfig
 1234              		.syntax unified
 1235              		.thumb
 1236              		.thumb_func
 1238              	HAL_PWREx_DisablePullUpPullDownConfig:
 1239              	.LFB1127:
 571:Drivers/STM32WBxx_HAL_Driver/Src/stm32wbxx_hal_pwr_ex.c **** 
 572:Drivers/STM32WBxx_HAL_Driver/Src/stm32wbxx_hal_pwr_ex.c **** /**
 573:Drivers/STM32WBxx_HAL_Driver/Src/stm32wbxx_hal_pwr_ex.c ****   * @brief Disable pull-up and pull-down configuration.
 574:Drivers/STM32WBxx_HAL_Driver/Src/stm32wbxx_hal_pwr_ex.c ****   * @note  When APC bit is cleared, the I/O pull-up and pull-down configurations defined in
 575:Drivers/STM32WBxx_HAL_Driver/Src/stm32wbxx_hal_pwr_ex.c ****   *        PWR_PUCRx and PWR_PDCRx registers are not applied in Standby and Shutdown modes.
 576:Drivers/STM32WBxx_HAL_Driver/Src/stm32wbxx_hal_pwr_ex.c ****   * @retval None
 577:Drivers/STM32WBxx_HAL_Driver/Src/stm32wbxx_hal_pwr_ex.c ****   */
 578:Drivers/STM32WBxx_HAL_Driver/Src/stm32wbxx_hal_pwr_ex.c **** void HAL_PWREx_DisablePullUpPullDownConfig(void)
 579:Drivers/STM32WBxx_HAL_Driver/Src/stm32wbxx_hal_pwr_ex.c **** {
 1240              		.loc 1 579 1 is_stmt 1 view -0
 1241              		.cfi_startproc
 1242              		@ args = 0, pretend = 0, frame = 0
 1243              		@ frame_needed = 0, uses_anonymous_args = 0
ARM GAS  C:\Users\Nathan\AppData\Local\Temp\ccvsgOlc.s 			page 33


 1244              		@ link register save eliminated.
 580:Drivers/STM32WBxx_HAL_Driver/Src/stm32wbxx_hal_pwr_ex.c ****   CLEAR_BIT(PWR->CR3, PWR_CR3_APC);
 1245              		.loc 1 580 3 view .LVU244
 1246 0000 024A     		ldr	r2, .L116
 1247 0002 9368     		ldr	r3, [r2, #8]
 1248 0004 23F48063 		bic	r3, r3, #1024
 1249 0008 9360     		str	r3, [r2, #8]
 581:Drivers/STM32WBxx_HAL_Driver/Src/stm32wbxx_hal_pwr_ex.c **** }
 1250              		.loc 1 581 1 is_stmt 0 view .LVU245
 1251 000a 7047     		bx	lr
 1252              	.L117:
 1253              		.align	2
 1254              	.L116:
 1255 000c 00040058 		.word	1476396032
 1256              		.cfi_endproc
 1257              	.LFE1127:
 1259              		.section	.text.HAL_PWREx_SetBORConfig,"ax",%progbits
 1260              		.align	1
 1261              		.global	HAL_PWREx_SetBORConfig
 1262              		.syntax unified
 1263              		.thumb
 1264              		.thumb_func
 1266              	HAL_PWREx_SetBORConfig:
 1267              	.LVL78:
 1268              	.LFB1128:
 582:Drivers/STM32WBxx_HAL_Driver/Src/stm32wbxx_hal_pwr_ex.c **** 
 583:Drivers/STM32WBxx_HAL_Driver/Src/stm32wbxx_hal_pwr_ex.c **** /****************************************************************************/
 584:Drivers/STM32WBxx_HAL_Driver/Src/stm32wbxx_hal_pwr_ex.c **** 
 585:Drivers/STM32WBxx_HAL_Driver/Src/stm32wbxx_hal_pwr_ex.c **** #if defined(PWR_CR5_SMPSEN)
 586:Drivers/STM32WBxx_HAL_Driver/Src/stm32wbxx_hal_pwr_ex.c **** /**
 587:Drivers/STM32WBxx_HAL_Driver/Src/stm32wbxx_hal_pwr_ex.c ****   * @brief  Set BOR configuration
 588:Drivers/STM32WBxx_HAL_Driver/Src/stm32wbxx_hal_pwr_ex.c ****   * @param  BORConfiguration This parameter can be one of the following values:
 589:Drivers/STM32WBxx_HAL_Driver/Src/stm32wbxx_hal_pwr_ex.c ****   *         @arg @ref PWR_BOR_SYSTEM_RESET
 590:Drivers/STM32WBxx_HAL_Driver/Src/stm32wbxx_hal_pwr_ex.c ****   *         @arg @ref PWR_BOR_SMPS_FORCE_BYPASS
 591:Drivers/STM32WBxx_HAL_Driver/Src/stm32wbxx_hal_pwr_ex.c ****   */
 592:Drivers/STM32WBxx_HAL_Driver/Src/stm32wbxx_hal_pwr_ex.c **** void HAL_PWREx_SetBORConfig(uint32_t BORConfiguration)
 593:Drivers/STM32WBxx_HAL_Driver/Src/stm32wbxx_hal_pwr_ex.c **** {
 1269              		.loc 1 593 1 is_stmt 1 view -0
 1270              		.cfi_startproc
 1271              		@ args = 0, pretend = 0, frame = 0
 1272              		@ frame_needed = 0, uses_anonymous_args = 0
 1273              		@ link register save eliminated.
 594:Drivers/STM32WBxx_HAL_Driver/Src/stm32wbxx_hal_pwr_ex.c ****   LL_PWR_SetBORConfig(BORConfiguration);
 1274              		.loc 1 594 3 view .LVU247
 1275              	.LBB58:
 1276              	.LBI58:
 1277              		.file 2 "Drivers/STM32WBxx_HAL_Driver/Inc/stm32wbxx_ll_pwr.h"
   1:Drivers/STM32WBxx_HAL_Driver/Inc/stm32wbxx_ll_pwr.h **** /**
   2:Drivers/STM32WBxx_HAL_Driver/Inc/stm32wbxx_ll_pwr.h ****   ******************************************************************************
   3:Drivers/STM32WBxx_HAL_Driver/Inc/stm32wbxx_ll_pwr.h ****   * @file    stm32wbxx_ll_pwr.h
   4:Drivers/STM32WBxx_HAL_Driver/Inc/stm32wbxx_ll_pwr.h ****   * @author  MCD Application Team
   5:Drivers/STM32WBxx_HAL_Driver/Inc/stm32wbxx_ll_pwr.h ****   * @brief   Header file of PWR LL module.
   6:Drivers/STM32WBxx_HAL_Driver/Inc/stm32wbxx_ll_pwr.h ****   ******************************************************************************
   7:Drivers/STM32WBxx_HAL_Driver/Inc/stm32wbxx_ll_pwr.h ****   * @attention
   8:Drivers/STM32WBxx_HAL_Driver/Inc/stm32wbxx_ll_pwr.h ****   *
   9:Drivers/STM32WBxx_HAL_Driver/Inc/stm32wbxx_ll_pwr.h ****   * Copyright (c) 2019 STMicroelectronics.
  10:Drivers/STM32WBxx_HAL_Driver/Inc/stm32wbxx_ll_pwr.h ****   * All rights reserved.
ARM GAS  C:\Users\Nathan\AppData\Local\Temp\ccvsgOlc.s 			page 34


  11:Drivers/STM32WBxx_HAL_Driver/Inc/stm32wbxx_ll_pwr.h ****   *
  12:Drivers/STM32WBxx_HAL_Driver/Inc/stm32wbxx_ll_pwr.h ****   * This software is licensed under terms that can be found in the LICENSE file
  13:Drivers/STM32WBxx_HAL_Driver/Inc/stm32wbxx_ll_pwr.h ****   * in the root directory of this software component.
  14:Drivers/STM32WBxx_HAL_Driver/Inc/stm32wbxx_ll_pwr.h ****   * If no LICENSE file comes with this software, it is provided AS-IS.
  15:Drivers/STM32WBxx_HAL_Driver/Inc/stm32wbxx_ll_pwr.h ****   *
  16:Drivers/STM32WBxx_HAL_Driver/Inc/stm32wbxx_ll_pwr.h ****   ******************************************************************************
  17:Drivers/STM32WBxx_HAL_Driver/Inc/stm32wbxx_ll_pwr.h ****   */
  18:Drivers/STM32WBxx_HAL_Driver/Inc/stm32wbxx_ll_pwr.h **** 
  19:Drivers/STM32WBxx_HAL_Driver/Inc/stm32wbxx_ll_pwr.h **** /* Define to prevent recursive inclusion -------------------------------------*/
  20:Drivers/STM32WBxx_HAL_Driver/Inc/stm32wbxx_ll_pwr.h **** #ifndef STM32WBxx_LL_PWR_H
  21:Drivers/STM32WBxx_HAL_Driver/Inc/stm32wbxx_ll_pwr.h **** #define STM32WBxx_LL_PWR_H
  22:Drivers/STM32WBxx_HAL_Driver/Inc/stm32wbxx_ll_pwr.h **** 
  23:Drivers/STM32WBxx_HAL_Driver/Inc/stm32wbxx_ll_pwr.h **** #ifdef __cplusplus
  24:Drivers/STM32WBxx_HAL_Driver/Inc/stm32wbxx_ll_pwr.h **** extern "C" {
  25:Drivers/STM32WBxx_HAL_Driver/Inc/stm32wbxx_ll_pwr.h **** #endif
  26:Drivers/STM32WBxx_HAL_Driver/Inc/stm32wbxx_ll_pwr.h **** 
  27:Drivers/STM32WBxx_HAL_Driver/Inc/stm32wbxx_ll_pwr.h **** /* Includes ------------------------------------------------------------------*/
  28:Drivers/STM32WBxx_HAL_Driver/Inc/stm32wbxx_ll_pwr.h **** #include "stm32wbxx.h"
  29:Drivers/STM32WBxx_HAL_Driver/Inc/stm32wbxx_ll_pwr.h **** 
  30:Drivers/STM32WBxx_HAL_Driver/Inc/stm32wbxx_ll_pwr.h **** /** @addtogroup STM32WBxx_LL_Driver
  31:Drivers/STM32WBxx_HAL_Driver/Inc/stm32wbxx_ll_pwr.h ****   * @{
  32:Drivers/STM32WBxx_HAL_Driver/Inc/stm32wbxx_ll_pwr.h ****   */
  33:Drivers/STM32WBxx_HAL_Driver/Inc/stm32wbxx_ll_pwr.h **** 
  34:Drivers/STM32WBxx_HAL_Driver/Inc/stm32wbxx_ll_pwr.h **** #if defined(PWR)
  35:Drivers/STM32WBxx_HAL_Driver/Inc/stm32wbxx_ll_pwr.h **** 
  36:Drivers/STM32WBxx_HAL_Driver/Inc/stm32wbxx_ll_pwr.h **** /** @defgroup PWR_LL PWR
  37:Drivers/STM32WBxx_HAL_Driver/Inc/stm32wbxx_ll_pwr.h ****   * @{
  38:Drivers/STM32WBxx_HAL_Driver/Inc/stm32wbxx_ll_pwr.h ****   */
  39:Drivers/STM32WBxx_HAL_Driver/Inc/stm32wbxx_ll_pwr.h **** 
  40:Drivers/STM32WBxx_HAL_Driver/Inc/stm32wbxx_ll_pwr.h **** /* Private types -------------------------------------------------------------*/
  41:Drivers/STM32WBxx_HAL_Driver/Inc/stm32wbxx_ll_pwr.h **** /* Private variables ---------------------------------------------------------*/
  42:Drivers/STM32WBxx_HAL_Driver/Inc/stm32wbxx_ll_pwr.h **** 
  43:Drivers/STM32WBxx_HAL_Driver/Inc/stm32wbxx_ll_pwr.h **** /* Private constants ---------------------------------------------------------*/
  44:Drivers/STM32WBxx_HAL_Driver/Inc/stm32wbxx_ll_pwr.h **** /** @defgroup PWR_LL_Private_Constants PWR Private Constants
  45:Drivers/STM32WBxx_HAL_Driver/Inc/stm32wbxx_ll_pwr.h ****   * @{
  46:Drivers/STM32WBxx_HAL_Driver/Inc/stm32wbxx_ll_pwr.h ****   */
  47:Drivers/STM32WBxx_HAL_Driver/Inc/stm32wbxx_ll_pwr.h **** 
  48:Drivers/STM32WBxx_HAL_Driver/Inc/stm32wbxx_ll_pwr.h **** #if defined(PWR_CR5_SMPSEN)
  49:Drivers/STM32WBxx_HAL_Driver/Inc/stm32wbxx_ll_pwr.h **** /** @defgroup PWR_SMPS_Calibration PWR SMPS calibration
  50:Drivers/STM32WBxx_HAL_Driver/Inc/stm32wbxx_ll_pwr.h ****   * @{
  51:Drivers/STM32WBxx_HAL_Driver/Inc/stm32wbxx_ll_pwr.h ****   */
  52:Drivers/STM32WBxx_HAL_Driver/Inc/stm32wbxx_ll_pwr.h **** #define SMPS_VOLTAGE_CAL_ADDR              ((uint32_t*) (0x1FFF7558UL))         /* SMPS output volt
  53:Drivers/STM32WBxx_HAL_Driver/Inc/stm32wbxx_ll_pwr.h **** #define SMPS_VOLTAGE_CAL_POS               (8UL)                                /* SMPS output volt
  54:Drivers/STM32WBxx_HAL_Driver/Inc/stm32wbxx_ll_pwr.h **** #define SMPS_VOLTAGE_CAL                   (0xFUL << SMPS_VOLTAGE_CAL_POS)      /* SMPS output volt
  55:Drivers/STM32WBxx_HAL_Driver/Inc/stm32wbxx_ll_pwr.h **** #define SMPS_VOLTAGE_CAL_VOLTAGE_MV        (1500UL)                             /* SMPS output volt
  56:Drivers/STM32WBxx_HAL_Driver/Inc/stm32wbxx_ll_pwr.h **** #define SMPS_VOLTAGE_BASE_MV               (1200UL)                             /* SMPS output volt
  57:Drivers/STM32WBxx_HAL_Driver/Inc/stm32wbxx_ll_pwr.h **** #define SMPS_VOLTAGE_STEP_MV               (  50UL)                             /* SMPS output volt
  58:Drivers/STM32WBxx_HAL_Driver/Inc/stm32wbxx_ll_pwr.h **** /**
  59:Drivers/STM32WBxx_HAL_Driver/Inc/stm32wbxx_ll_pwr.h ****   * @}
  60:Drivers/STM32WBxx_HAL_Driver/Inc/stm32wbxx_ll_pwr.h ****   */
  61:Drivers/STM32WBxx_HAL_Driver/Inc/stm32wbxx_ll_pwr.h **** #endif /* PWR_CR5_SMPSEN */
  62:Drivers/STM32WBxx_HAL_Driver/Inc/stm32wbxx_ll_pwr.h **** 
  63:Drivers/STM32WBxx_HAL_Driver/Inc/stm32wbxx_ll_pwr.h **** /**
  64:Drivers/STM32WBxx_HAL_Driver/Inc/stm32wbxx_ll_pwr.h ****   * @}
  65:Drivers/STM32WBxx_HAL_Driver/Inc/stm32wbxx_ll_pwr.h ****   */
  66:Drivers/STM32WBxx_HAL_Driver/Inc/stm32wbxx_ll_pwr.h **** 
  67:Drivers/STM32WBxx_HAL_Driver/Inc/stm32wbxx_ll_pwr.h **** /* Private macros ------------------------------------------------------------*/
ARM GAS  C:\Users\Nathan\AppData\Local\Temp\ccvsgOlc.s 			page 35


  68:Drivers/STM32WBxx_HAL_Driver/Inc/stm32wbxx_ll_pwr.h **** 
  69:Drivers/STM32WBxx_HAL_Driver/Inc/stm32wbxx_ll_pwr.h **** /* Exported types ------------------------------------------------------------*/
  70:Drivers/STM32WBxx_HAL_Driver/Inc/stm32wbxx_ll_pwr.h **** /* Exported constants --------------------------------------------------------*/
  71:Drivers/STM32WBxx_HAL_Driver/Inc/stm32wbxx_ll_pwr.h **** /** @defgroup PWR_LL_Exported_Constants PWR Exported Constants
  72:Drivers/STM32WBxx_HAL_Driver/Inc/stm32wbxx_ll_pwr.h ****   * @{
  73:Drivers/STM32WBxx_HAL_Driver/Inc/stm32wbxx_ll_pwr.h ****   */
  74:Drivers/STM32WBxx_HAL_Driver/Inc/stm32wbxx_ll_pwr.h **** 
  75:Drivers/STM32WBxx_HAL_Driver/Inc/stm32wbxx_ll_pwr.h **** /** @defgroup PWR_LL_EC_CLEAR_FLAG Clear Flags Defines
  76:Drivers/STM32WBxx_HAL_Driver/Inc/stm32wbxx_ll_pwr.h ****   * @brief    Flags defines which can be used with LL_PWR_WriteReg function
  77:Drivers/STM32WBxx_HAL_Driver/Inc/stm32wbxx_ll_pwr.h ****   * @{
  78:Drivers/STM32WBxx_HAL_Driver/Inc/stm32wbxx_ll_pwr.h ****   */
  79:Drivers/STM32WBxx_HAL_Driver/Inc/stm32wbxx_ll_pwr.h **** #define LL_PWR_SCR_CWUF                    PWR_SCR_CWUF
  80:Drivers/STM32WBxx_HAL_Driver/Inc/stm32wbxx_ll_pwr.h **** #if defined(PWR_CR3_EWUP2)
  81:Drivers/STM32WBxx_HAL_Driver/Inc/stm32wbxx_ll_pwr.h **** #define LL_PWR_SCR_CWUF5                   PWR_SCR_CWUF5
  82:Drivers/STM32WBxx_HAL_Driver/Inc/stm32wbxx_ll_pwr.h **** #endif /* PWR_CR3_EWUP2 */
  83:Drivers/STM32WBxx_HAL_Driver/Inc/stm32wbxx_ll_pwr.h **** #define LL_PWR_SCR_CWUF4                   PWR_SCR_CWUF4
  84:Drivers/STM32WBxx_HAL_Driver/Inc/stm32wbxx_ll_pwr.h **** #if defined(PWR_CR3_EWUP3)
  85:Drivers/STM32WBxx_HAL_Driver/Inc/stm32wbxx_ll_pwr.h **** #define LL_PWR_SCR_CWUF3                   PWR_SCR_CWUF3
  86:Drivers/STM32WBxx_HAL_Driver/Inc/stm32wbxx_ll_pwr.h **** #endif /* PWR_CR3_EWUP3 */
  87:Drivers/STM32WBxx_HAL_Driver/Inc/stm32wbxx_ll_pwr.h **** #if defined(PWR_CR3_EWUP2)
  88:Drivers/STM32WBxx_HAL_Driver/Inc/stm32wbxx_ll_pwr.h **** #define LL_PWR_SCR_CWUF2                   PWR_SCR_CWUF2
  89:Drivers/STM32WBxx_HAL_Driver/Inc/stm32wbxx_ll_pwr.h **** #endif /* PWR_CR3_EWUP2 */
  90:Drivers/STM32WBxx_HAL_Driver/Inc/stm32wbxx_ll_pwr.h **** #define LL_PWR_SCR_CWUF1                   PWR_SCR_CWUF1
  91:Drivers/STM32WBxx_HAL_Driver/Inc/stm32wbxx_ll_pwr.h **** #define LL_PWR_SCR_CC2HF                   PWR_SCR_CC2HF
  92:Drivers/STM32WBxx_HAL_Driver/Inc/stm32wbxx_ll_pwr.h **** #define LL_PWR_SCR_CBLEAF                  PWR_SCR_CBLEAF
  93:Drivers/STM32WBxx_HAL_Driver/Inc/stm32wbxx_ll_pwr.h **** #define LL_PWR_SCR_CCRPEF                  PWR_SCR_CCRPEF
  94:Drivers/STM32WBxx_HAL_Driver/Inc/stm32wbxx_ll_pwr.h **** #if defined(PWR_CR3_E802A)
  95:Drivers/STM32WBxx_HAL_Driver/Inc/stm32wbxx_ll_pwr.h **** #define LL_PWR_SCR_C802AF                  PWR_SCR_C802AF
  96:Drivers/STM32WBxx_HAL_Driver/Inc/stm32wbxx_ll_pwr.h **** #define LL_PWR_SCR_C802WUF                 PWR_SCR_C802WUF
  97:Drivers/STM32WBxx_HAL_Driver/Inc/stm32wbxx_ll_pwr.h **** #endif /* PWR_CR3_E802A */
  98:Drivers/STM32WBxx_HAL_Driver/Inc/stm32wbxx_ll_pwr.h **** #define LL_PWR_SCR_CBLEWUF                 PWR_SCR_CBLEWUF
  99:Drivers/STM32WBxx_HAL_Driver/Inc/stm32wbxx_ll_pwr.h **** #if defined(PWR_CR5_SMPSEN)
 100:Drivers/STM32WBxx_HAL_Driver/Inc/stm32wbxx_ll_pwr.h **** #define LL_PWR_SCR_CBORHF                  PWR_SCR_CBORHF
 101:Drivers/STM32WBxx_HAL_Driver/Inc/stm32wbxx_ll_pwr.h **** #define LL_PWR_SCR_CSMPSFBF                PWR_SCR_CSMPSFBF
 102:Drivers/STM32WBxx_HAL_Driver/Inc/stm32wbxx_ll_pwr.h **** #endif /* PWR_CR5_SMPSEN */
 103:Drivers/STM32WBxx_HAL_Driver/Inc/stm32wbxx_ll_pwr.h **** #define LL_PWR_EXTSCR_CCRPF                PWR_EXTSCR_CCRPF
 104:Drivers/STM32WBxx_HAL_Driver/Inc/stm32wbxx_ll_pwr.h **** #define LL_PWR_EXTSCR_C2CSSF               PWR_EXTSCR_C2CSSF
 105:Drivers/STM32WBxx_HAL_Driver/Inc/stm32wbxx_ll_pwr.h **** #define LL_PWR_EXTSCR_C1CSSF               PWR_EXTSCR_C1CSSF
 106:Drivers/STM32WBxx_HAL_Driver/Inc/stm32wbxx_ll_pwr.h **** /**
 107:Drivers/STM32WBxx_HAL_Driver/Inc/stm32wbxx_ll_pwr.h ****   * @}
 108:Drivers/STM32WBxx_HAL_Driver/Inc/stm32wbxx_ll_pwr.h ****   */
 109:Drivers/STM32WBxx_HAL_Driver/Inc/stm32wbxx_ll_pwr.h **** 
 110:Drivers/STM32WBxx_HAL_Driver/Inc/stm32wbxx_ll_pwr.h **** /** @defgroup PWR_LL_EC_GET_FLAG Get Flags Defines
 111:Drivers/STM32WBxx_HAL_Driver/Inc/stm32wbxx_ll_pwr.h ****   * @brief    Flags defines which can be used with LL_PWR_ReadReg function
 112:Drivers/STM32WBxx_HAL_Driver/Inc/stm32wbxx_ll_pwr.h ****   * @{
 113:Drivers/STM32WBxx_HAL_Driver/Inc/stm32wbxx_ll_pwr.h ****   */
 114:Drivers/STM32WBxx_HAL_Driver/Inc/stm32wbxx_ll_pwr.h **** #define LL_PWR_SR1_WUFI                    PWR_SR1_WUFI
 115:Drivers/STM32WBxx_HAL_Driver/Inc/stm32wbxx_ll_pwr.h **** #if defined(PWR_CR3_EWUP5)
 116:Drivers/STM32WBxx_HAL_Driver/Inc/stm32wbxx_ll_pwr.h **** #define LL_PWR_SR1_WUF5                    PWR_SR1_WUF5
 117:Drivers/STM32WBxx_HAL_Driver/Inc/stm32wbxx_ll_pwr.h **** #endif /* PWR_CR3_EWUP5 */
 118:Drivers/STM32WBxx_HAL_Driver/Inc/stm32wbxx_ll_pwr.h **** #define LL_PWR_SR1_WUF4                    PWR_SR1_WUF4
 119:Drivers/STM32WBxx_HAL_Driver/Inc/stm32wbxx_ll_pwr.h **** #if defined(PWR_CR3_EWUP3)
 120:Drivers/STM32WBxx_HAL_Driver/Inc/stm32wbxx_ll_pwr.h **** #define LL_PWR_SR1_WUF3                    PWR_SR1_WUF3
 121:Drivers/STM32WBxx_HAL_Driver/Inc/stm32wbxx_ll_pwr.h **** #endif /* PWR_CR3_EWUP3 */
 122:Drivers/STM32WBxx_HAL_Driver/Inc/stm32wbxx_ll_pwr.h **** #if defined(PWR_CR3_EWUP2)
 123:Drivers/STM32WBxx_HAL_Driver/Inc/stm32wbxx_ll_pwr.h **** #define LL_PWR_SR1_WUF2                    PWR_SR1_WUF2
 124:Drivers/STM32WBxx_HAL_Driver/Inc/stm32wbxx_ll_pwr.h **** #endif /* PWR_CR3_EWUP2 */
ARM GAS  C:\Users\Nathan\AppData\Local\Temp\ccvsgOlc.s 			page 36


 125:Drivers/STM32WBxx_HAL_Driver/Inc/stm32wbxx_ll_pwr.h **** #define LL_PWR_SR1_WUF1                    PWR_SR1_WUF1
 126:Drivers/STM32WBxx_HAL_Driver/Inc/stm32wbxx_ll_pwr.h **** #define LL_PWR_SR2_PVMO3                   PWR_SR2_PVMO3
 127:Drivers/STM32WBxx_HAL_Driver/Inc/stm32wbxx_ll_pwr.h **** #if defined(PWR_CR2_PVME1)
 128:Drivers/STM32WBxx_HAL_Driver/Inc/stm32wbxx_ll_pwr.h **** #define LL_PWR_SR2_PVMO1                   PWR_SR2_PVMO1
 129:Drivers/STM32WBxx_HAL_Driver/Inc/stm32wbxx_ll_pwr.h **** #endif /* PWR_CR2_PVME1 */
 130:Drivers/STM32WBxx_HAL_Driver/Inc/stm32wbxx_ll_pwr.h **** #define LL_PWR_SR2_PVDO                    PWR_SR2_PVDO
 131:Drivers/STM32WBxx_HAL_Driver/Inc/stm32wbxx_ll_pwr.h **** #if defined(PWR_CR1_VOS)
 132:Drivers/STM32WBxx_HAL_Driver/Inc/stm32wbxx_ll_pwr.h **** #define LL_PWR_SR2_VOSF                    PWR_SR2_VOSF
 133:Drivers/STM32WBxx_HAL_Driver/Inc/stm32wbxx_ll_pwr.h **** #endif /* PWR_CR1_VOS */
 134:Drivers/STM32WBxx_HAL_Driver/Inc/stm32wbxx_ll_pwr.h **** #define LL_PWR_SR2_REGLPF                  PWR_SR2_REGLPF
 135:Drivers/STM32WBxx_HAL_Driver/Inc/stm32wbxx_ll_pwr.h **** #define LL_PWR_SR2_REGLPS                  PWR_SR2_REGLPS
 136:Drivers/STM32WBxx_HAL_Driver/Inc/stm32wbxx_ll_pwr.h **** 
 137:Drivers/STM32WBxx_HAL_Driver/Inc/stm32wbxx_ll_pwr.h **** /* BOR flags */
 138:Drivers/STM32WBxx_HAL_Driver/Inc/stm32wbxx_ll_pwr.h **** #define LL_PWR_FLAG_BORH                   PWR_SR1_BORHF  /* BORH interrupt flag */
 139:Drivers/STM32WBxx_HAL_Driver/Inc/stm32wbxx_ll_pwr.h **** 
 140:Drivers/STM32WBxx_HAL_Driver/Inc/stm32wbxx_ll_pwr.h **** #if defined(PWR_CR5_SMPSEN)
 141:Drivers/STM32WBxx_HAL_Driver/Inc/stm32wbxx_ll_pwr.h **** /* SMPS flags */
 142:Drivers/STM32WBxx_HAL_Driver/Inc/stm32wbxx_ll_pwr.h **** #define LL_PWR_FLAG_SMPS                   PWR_SR2_SMPSF  /* SMPS step down converter ready flag */
 143:Drivers/STM32WBxx_HAL_Driver/Inc/stm32wbxx_ll_pwr.h **** #define LL_PWR_FLAG_SMPSB                  PWR_SR2_SMPSBF /* SMPS step down converter in bypass mod
 144:Drivers/STM32WBxx_HAL_Driver/Inc/stm32wbxx_ll_pwr.h **** #define LL_PWR_FLAG_SMPSFB                 PWR_SR1_SMPSFB /* SMPS step down converter forced in byp
 145:Drivers/STM32WBxx_HAL_Driver/Inc/stm32wbxx_ll_pwr.h **** #endif /* PWR_CR5_SMPSEN */
 146:Drivers/STM32WBxx_HAL_Driver/Inc/stm32wbxx_ll_pwr.h **** 
 147:Drivers/STM32WBxx_HAL_Driver/Inc/stm32wbxx_ll_pwr.h **** /* Radio (BLE or 802.15.4) flags */
 148:Drivers/STM32WBxx_HAL_Driver/Inc/stm32wbxx_ll_pwr.h **** #define LL_PWR_FLAG_BLEWU                  PWR_SR1_BLEWUF  /* BLE wakeup interrupt flag */
 149:Drivers/STM32WBxx_HAL_Driver/Inc/stm32wbxx_ll_pwr.h **** 
 150:Drivers/STM32WBxx_HAL_Driver/Inc/stm32wbxx_ll_pwr.h **** #define LL_PWR_FLAG_BLEA                   PWR_SR1_BLEAF   /* BLE end of activity interrupt flag */
 151:Drivers/STM32WBxx_HAL_Driver/Inc/stm32wbxx_ll_pwr.h **** #if defined(PWR_CR3_E802A)
 152:Drivers/STM32WBxx_HAL_Driver/Inc/stm32wbxx_ll_pwr.h **** #define LL_PWR_FLAG_802WU                  PWR_SR1_802WUF  /* 802.15.4 wakeup interrupt flag */
 153:Drivers/STM32WBxx_HAL_Driver/Inc/stm32wbxx_ll_pwr.h **** #define LL_PWR_FLAG_802A                   PWR_SR1_802AF   /* 802.15.4 end of activity interrupt fl
 154:Drivers/STM32WBxx_HAL_Driver/Inc/stm32wbxx_ll_pwr.h **** #endif /* PWR_CR3_E802A */
 155:Drivers/STM32WBxx_HAL_Driver/Inc/stm32wbxx_ll_pwr.h **** #define LL_PWR_FLAG_CRPE                   PWR_SR1_CRPEF   /* Critical radio phase end of activity 
 156:Drivers/STM32WBxx_HAL_Driver/Inc/stm32wbxx_ll_pwr.h **** #define LL_PWR_FLAG_CRP                    PWR_EXTSCR_CRPF /* Critical radio system phase */
 157:Drivers/STM32WBxx_HAL_Driver/Inc/stm32wbxx_ll_pwr.h **** 
 158:Drivers/STM32WBxx_HAL_Driver/Inc/stm32wbxx_ll_pwr.h **** /* Multicore flags */
 159:Drivers/STM32WBxx_HAL_Driver/Inc/stm32wbxx_ll_pwr.h **** #define LL_PWR_EXTSCR_C1SBF                PWR_EXTSCR_C1SBF   /* System standby flag for CPU1 */
 160:Drivers/STM32WBxx_HAL_Driver/Inc/stm32wbxx_ll_pwr.h **** #define LL_PWR_EXTSCR_C1STOPF              PWR_EXTSCR_C1STOPF /* System stop flag for CPU1 */
 161:Drivers/STM32WBxx_HAL_Driver/Inc/stm32wbxx_ll_pwr.h **** #define LL_PWR_EXTSCR_C1DS                 PWR_EXTSCR_C1DS    /* CPU1 deepsleep mode */
 162:Drivers/STM32WBxx_HAL_Driver/Inc/stm32wbxx_ll_pwr.h **** #define LL_PWR_EXTSCR_C2SBF                PWR_EXTSCR_C2SBF   /* System standby flag for CPU2 */
 163:Drivers/STM32WBxx_HAL_Driver/Inc/stm32wbxx_ll_pwr.h **** #define LL_PWR_EXTSCR_C2STOPF              PWR_EXTSCR_C2STOPF /* System stop flag for CPU2 */
 164:Drivers/STM32WBxx_HAL_Driver/Inc/stm32wbxx_ll_pwr.h **** #define LL_PWR_EXTSCR_C2DS                 PWR_EXTSCR_C2DS    /* CPU2 deepsleep mode */
 165:Drivers/STM32WBxx_HAL_Driver/Inc/stm32wbxx_ll_pwr.h **** #define LL_PWR_SR1_C2HF                    PWR_SR1_C2HF       /* CPU2 hold interrupt flag */
 166:Drivers/STM32WBxx_HAL_Driver/Inc/stm32wbxx_ll_pwr.h **** /**
 167:Drivers/STM32WBxx_HAL_Driver/Inc/stm32wbxx_ll_pwr.h ****   * @}
 168:Drivers/STM32WBxx_HAL_Driver/Inc/stm32wbxx_ll_pwr.h ****   */
 169:Drivers/STM32WBxx_HAL_Driver/Inc/stm32wbxx_ll_pwr.h **** 
 170:Drivers/STM32WBxx_HAL_Driver/Inc/stm32wbxx_ll_pwr.h **** #if defined(PWR_CR1_VOS)
 171:Drivers/STM32WBxx_HAL_Driver/Inc/stm32wbxx_ll_pwr.h **** /** @defgroup PWR_LL_EC_REGU_VOLTAGE REGU VOLTAGE
 172:Drivers/STM32WBxx_HAL_Driver/Inc/stm32wbxx_ll_pwr.h ****   * @{
 173:Drivers/STM32WBxx_HAL_Driver/Inc/stm32wbxx_ll_pwr.h ****   */
 174:Drivers/STM32WBxx_HAL_Driver/Inc/stm32wbxx_ll_pwr.h **** #define LL_PWR_REGU_VOLTAGE_SCALE1         (PWR_CR1_VOS_0) /* Regulator voltage output range 1 mode
 175:Drivers/STM32WBxx_HAL_Driver/Inc/stm32wbxx_ll_pwr.h **** #define LL_PWR_REGU_VOLTAGE_SCALE2         (PWR_CR1_VOS_1) /* Regulator voltage output range 2 mode
 176:Drivers/STM32WBxx_HAL_Driver/Inc/stm32wbxx_ll_pwr.h **** /**
 177:Drivers/STM32WBxx_HAL_Driver/Inc/stm32wbxx_ll_pwr.h ****   * @}
 178:Drivers/STM32WBxx_HAL_Driver/Inc/stm32wbxx_ll_pwr.h ****   */
 179:Drivers/STM32WBxx_HAL_Driver/Inc/stm32wbxx_ll_pwr.h **** #endif /* PWR_CR1_VOS */
 180:Drivers/STM32WBxx_HAL_Driver/Inc/stm32wbxx_ll_pwr.h **** 
 181:Drivers/STM32WBxx_HAL_Driver/Inc/stm32wbxx_ll_pwr.h **** /** @defgroup PWR_LL_EC_MODE_PWR MODE PWR
ARM GAS  C:\Users\Nathan\AppData\Local\Temp\ccvsgOlc.s 			page 37


 182:Drivers/STM32WBxx_HAL_Driver/Inc/stm32wbxx_ll_pwr.h ****   * @{
 183:Drivers/STM32WBxx_HAL_Driver/Inc/stm32wbxx_ll_pwr.h ****   */
 184:Drivers/STM32WBxx_HAL_Driver/Inc/stm32wbxx_ll_pwr.h **** #define LL_PWR_MODE_STOP0                  (0x000000000U)
 185:Drivers/STM32WBxx_HAL_Driver/Inc/stm32wbxx_ll_pwr.h **** #define LL_PWR_MODE_STOP1                  (PWR_CR1_LPMS_0)
 186:Drivers/STM32WBxx_HAL_Driver/Inc/stm32wbxx_ll_pwr.h **** #if defined(PWR_SUPPORT_STOP2)
 187:Drivers/STM32WBxx_HAL_Driver/Inc/stm32wbxx_ll_pwr.h **** #define LL_PWR_MODE_STOP2                  (PWR_CR1_LPMS_1)
 188:Drivers/STM32WBxx_HAL_Driver/Inc/stm32wbxx_ll_pwr.h **** #endif /* PWR_SUPPORT_STOP2 */
 189:Drivers/STM32WBxx_HAL_Driver/Inc/stm32wbxx_ll_pwr.h **** #define LL_PWR_MODE_STANDBY                (PWR_CR1_LPMS_1 | PWR_CR1_LPMS_0)
 190:Drivers/STM32WBxx_HAL_Driver/Inc/stm32wbxx_ll_pwr.h **** #define LL_PWR_MODE_SHUTDOWN               (PWR_CR1_LPMS_2)
 191:Drivers/STM32WBxx_HAL_Driver/Inc/stm32wbxx_ll_pwr.h **** /**
 192:Drivers/STM32WBxx_HAL_Driver/Inc/stm32wbxx_ll_pwr.h ****   * @}
 193:Drivers/STM32WBxx_HAL_Driver/Inc/stm32wbxx_ll_pwr.h ****   */
 194:Drivers/STM32WBxx_HAL_Driver/Inc/stm32wbxx_ll_pwr.h **** 
 195:Drivers/STM32WBxx_HAL_Driver/Inc/stm32wbxx_ll_pwr.h **** /** @defgroup PWR_LL_EC_FLASH_LPRUN_POWER_DOWN_MODE Flash power-down mode during low-power run mode
 196:Drivers/STM32WBxx_HAL_Driver/Inc/stm32wbxx_ll_pwr.h ****   * @{
 197:Drivers/STM32WBxx_HAL_Driver/Inc/stm32wbxx_ll_pwr.h ****   */
 198:Drivers/STM32WBxx_HAL_Driver/Inc/stm32wbxx_ll_pwr.h **** #define LL_PWR_FLASH_LPRUN_MODE_IDLE       (0x000000000U)
 199:Drivers/STM32WBxx_HAL_Driver/Inc/stm32wbxx_ll_pwr.h **** #define LL_PWR_FLASH_LPRUN_MODE_POWER_DOWN (PWR_CR1_FPDR)
 200:Drivers/STM32WBxx_HAL_Driver/Inc/stm32wbxx_ll_pwr.h **** /**
 201:Drivers/STM32WBxx_HAL_Driver/Inc/stm32wbxx_ll_pwr.h ****   * @}
 202:Drivers/STM32WBxx_HAL_Driver/Inc/stm32wbxx_ll_pwr.h ****   */
 203:Drivers/STM32WBxx_HAL_Driver/Inc/stm32wbxx_ll_pwr.h **** 
 204:Drivers/STM32WBxx_HAL_Driver/Inc/stm32wbxx_ll_pwr.h **** /** @defgroup PWR_LL_EC_FLASH_SLEEP_POWER_DOWN_MODE Flash power-down mode during sleep mode
 205:Drivers/STM32WBxx_HAL_Driver/Inc/stm32wbxx_ll_pwr.h ****   * @{
 206:Drivers/STM32WBxx_HAL_Driver/Inc/stm32wbxx_ll_pwr.h ****   */
 207:Drivers/STM32WBxx_HAL_Driver/Inc/stm32wbxx_ll_pwr.h **** #define LL_PWR_FLASH_SLEEP_MODE_IDLE       (0x000000000U)
 208:Drivers/STM32WBxx_HAL_Driver/Inc/stm32wbxx_ll_pwr.h **** #define LL_PWR_FLASH_SLEEP_MODE_POWER_DOWN (PWR_CR1_FPDS)
 209:Drivers/STM32WBxx_HAL_Driver/Inc/stm32wbxx_ll_pwr.h **** /**
 210:Drivers/STM32WBxx_HAL_Driver/Inc/stm32wbxx_ll_pwr.h ****   * @}
 211:Drivers/STM32WBxx_HAL_Driver/Inc/stm32wbxx_ll_pwr.h ****   */
 212:Drivers/STM32WBxx_HAL_Driver/Inc/stm32wbxx_ll_pwr.h **** 
 213:Drivers/STM32WBxx_HAL_Driver/Inc/stm32wbxx_ll_pwr.h **** /** @defgroup PWR_LL_EC_PVM Peripheral voltage monitoring
 214:Drivers/STM32WBxx_HAL_Driver/Inc/stm32wbxx_ll_pwr.h ****   * @{
 215:Drivers/STM32WBxx_HAL_Driver/Inc/stm32wbxx_ll_pwr.h ****   */
 216:Drivers/STM32WBxx_HAL_Driver/Inc/stm32wbxx_ll_pwr.h **** #if defined(PWR_CR2_PVME1)
 217:Drivers/STM32WBxx_HAL_Driver/Inc/stm32wbxx_ll_pwr.h **** #define LL_PWR_PVM_VDDUSB_1_2V             (PWR_CR2_PVME1)     /* Monitoring VDDUSB vs. 1.2V */
 218:Drivers/STM32WBxx_HAL_Driver/Inc/stm32wbxx_ll_pwr.h **** #endif /* PWR_CR2_PVME1 */
 219:Drivers/STM32WBxx_HAL_Driver/Inc/stm32wbxx_ll_pwr.h **** #define LL_PWR_PVM_VDDA_1_62V              (PWR_CR2_PVME3)     /* Monitoring VDDA vs. 1.62V  */
 220:Drivers/STM32WBxx_HAL_Driver/Inc/stm32wbxx_ll_pwr.h **** /**
 221:Drivers/STM32WBxx_HAL_Driver/Inc/stm32wbxx_ll_pwr.h ****   * @}
 222:Drivers/STM32WBxx_HAL_Driver/Inc/stm32wbxx_ll_pwr.h ****   */
 223:Drivers/STM32WBxx_HAL_Driver/Inc/stm32wbxx_ll_pwr.h **** 
 224:Drivers/STM32WBxx_HAL_Driver/Inc/stm32wbxx_ll_pwr.h **** /** @defgroup PWR_LL_EC_PVDLEVEL PVDLEVEL
 225:Drivers/STM32WBxx_HAL_Driver/Inc/stm32wbxx_ll_pwr.h ****   * @{
 226:Drivers/STM32WBxx_HAL_Driver/Inc/stm32wbxx_ll_pwr.h ****   */
 227:Drivers/STM32WBxx_HAL_Driver/Inc/stm32wbxx_ll_pwr.h **** #define LL_PWR_PVDLEVEL_0                  (0x00000000U)                                   /* VPVD0
 228:Drivers/STM32WBxx_HAL_Driver/Inc/stm32wbxx_ll_pwr.h **** #define LL_PWR_PVDLEVEL_1                  (PWR_CR2_PLS_0)                                 /* VPVD1
 229:Drivers/STM32WBxx_HAL_Driver/Inc/stm32wbxx_ll_pwr.h **** #define LL_PWR_PVDLEVEL_2                  (PWR_CR2_PLS_1)                                 /* VPVD2
 230:Drivers/STM32WBxx_HAL_Driver/Inc/stm32wbxx_ll_pwr.h **** #define LL_PWR_PVDLEVEL_3                  (PWR_CR2_PLS_1 | PWR_CR2_PLS_0)                 /* VPVD3
 231:Drivers/STM32WBxx_HAL_Driver/Inc/stm32wbxx_ll_pwr.h **** #define LL_PWR_PVDLEVEL_4                  (PWR_CR2_PLS_2)                                 /* VPVD4
 232:Drivers/STM32WBxx_HAL_Driver/Inc/stm32wbxx_ll_pwr.h **** #define LL_PWR_PVDLEVEL_5                  (PWR_CR2_PLS_2 | PWR_CR2_PLS_0)                 /* VPVD5
 233:Drivers/STM32WBxx_HAL_Driver/Inc/stm32wbxx_ll_pwr.h **** #define LL_PWR_PVDLEVEL_6                  (PWR_CR2_PLS_2 | PWR_CR2_PLS_1)                 /* VPVD6
 234:Drivers/STM32WBxx_HAL_Driver/Inc/stm32wbxx_ll_pwr.h **** #define LL_PWR_PVDLEVEL_7                  (PWR_CR2_PLS_2 | PWR_CR2_PLS_1 | PWR_CR2_PLS_0) /* Exter
 235:Drivers/STM32WBxx_HAL_Driver/Inc/stm32wbxx_ll_pwr.h **** /**
 236:Drivers/STM32WBxx_HAL_Driver/Inc/stm32wbxx_ll_pwr.h ****   * @}
 237:Drivers/STM32WBxx_HAL_Driver/Inc/stm32wbxx_ll_pwr.h ****   */
 238:Drivers/STM32WBxx_HAL_Driver/Inc/stm32wbxx_ll_pwr.h **** 
ARM GAS  C:\Users\Nathan\AppData\Local\Temp\ccvsgOlc.s 			page 38


 239:Drivers/STM32WBxx_HAL_Driver/Inc/stm32wbxx_ll_pwr.h **** /** @defgroup PWR_LL_EC_WAKEUP WAKEUP
 240:Drivers/STM32WBxx_HAL_Driver/Inc/stm32wbxx_ll_pwr.h ****   * @{
 241:Drivers/STM32WBxx_HAL_Driver/Inc/stm32wbxx_ll_pwr.h ****   */
 242:Drivers/STM32WBxx_HAL_Driver/Inc/stm32wbxx_ll_pwr.h **** #define LL_PWR_WAKEUP_PIN1                 (PWR_CR3_EWUP1)
 243:Drivers/STM32WBxx_HAL_Driver/Inc/stm32wbxx_ll_pwr.h **** #if defined(PWR_CR3_EWUP2)
 244:Drivers/STM32WBxx_HAL_Driver/Inc/stm32wbxx_ll_pwr.h **** #define LL_PWR_WAKEUP_PIN2                 (PWR_CR3_EWUP2)
 245:Drivers/STM32WBxx_HAL_Driver/Inc/stm32wbxx_ll_pwr.h **** #endif /* PWR_CR3_EWUP2 */
 246:Drivers/STM32WBxx_HAL_Driver/Inc/stm32wbxx_ll_pwr.h **** #if defined(PWR_CR3_EWUP3)
 247:Drivers/STM32WBxx_HAL_Driver/Inc/stm32wbxx_ll_pwr.h **** #define LL_PWR_WAKEUP_PIN3                 (PWR_CR3_EWUP3)
 248:Drivers/STM32WBxx_HAL_Driver/Inc/stm32wbxx_ll_pwr.h **** #endif /* PWR_CR3_EWUP3 */
 249:Drivers/STM32WBxx_HAL_Driver/Inc/stm32wbxx_ll_pwr.h **** #define LL_PWR_WAKEUP_PIN4                 (PWR_CR3_EWUP4)
 250:Drivers/STM32WBxx_HAL_Driver/Inc/stm32wbxx_ll_pwr.h **** #if defined(PWR_CR3_EWUP5)
 251:Drivers/STM32WBxx_HAL_Driver/Inc/stm32wbxx_ll_pwr.h **** #define LL_PWR_WAKEUP_PIN5                 (PWR_CR3_EWUP5)
 252:Drivers/STM32WBxx_HAL_Driver/Inc/stm32wbxx_ll_pwr.h **** #endif /* PWR_CR3_EWUP5 */
 253:Drivers/STM32WBxx_HAL_Driver/Inc/stm32wbxx_ll_pwr.h **** /**
 254:Drivers/STM32WBxx_HAL_Driver/Inc/stm32wbxx_ll_pwr.h ****   * @}
 255:Drivers/STM32WBxx_HAL_Driver/Inc/stm32wbxx_ll_pwr.h ****   */
 256:Drivers/STM32WBxx_HAL_Driver/Inc/stm32wbxx_ll_pwr.h **** 
 257:Drivers/STM32WBxx_HAL_Driver/Inc/stm32wbxx_ll_pwr.h **** /** @defgroup PWR_LL_EC_BATT_CHARG_RESISTOR BATT CHARG RESISTOR
 258:Drivers/STM32WBxx_HAL_Driver/Inc/stm32wbxx_ll_pwr.h ****   * @{
 259:Drivers/STM32WBxx_HAL_Driver/Inc/stm32wbxx_ll_pwr.h ****   */
 260:Drivers/STM32WBxx_HAL_Driver/Inc/stm32wbxx_ll_pwr.h **** #define LL_PWR_BATT_CHARG_RESISTOR_5K      (0x00000000U)
 261:Drivers/STM32WBxx_HAL_Driver/Inc/stm32wbxx_ll_pwr.h **** #define LL_PWR_BATT_CHARGRESISTOR_1_5K     (PWR_CR4_VBRS)
 262:Drivers/STM32WBxx_HAL_Driver/Inc/stm32wbxx_ll_pwr.h **** /**
 263:Drivers/STM32WBxx_HAL_Driver/Inc/stm32wbxx_ll_pwr.h ****   * @}
 264:Drivers/STM32WBxx_HAL_Driver/Inc/stm32wbxx_ll_pwr.h ****   */
 265:Drivers/STM32WBxx_HAL_Driver/Inc/stm32wbxx_ll_pwr.h **** 
 266:Drivers/STM32WBxx_HAL_Driver/Inc/stm32wbxx_ll_pwr.h **** /** @defgroup PWR_LL_EC_GPIO GPIO
 267:Drivers/STM32WBxx_HAL_Driver/Inc/stm32wbxx_ll_pwr.h ****   * @{
 268:Drivers/STM32WBxx_HAL_Driver/Inc/stm32wbxx_ll_pwr.h ****   */
 269:Drivers/STM32WBxx_HAL_Driver/Inc/stm32wbxx_ll_pwr.h **** #define LL_PWR_GPIO_A                      ((uint32_t)(&(PWR->PUCRA)))
 270:Drivers/STM32WBxx_HAL_Driver/Inc/stm32wbxx_ll_pwr.h **** #define LL_PWR_GPIO_B                      ((uint32_t)(&(PWR->PUCRB)))
 271:Drivers/STM32WBxx_HAL_Driver/Inc/stm32wbxx_ll_pwr.h **** #define LL_PWR_GPIO_C                      ((uint32_t)(&(PWR->PUCRC)))
 272:Drivers/STM32WBxx_HAL_Driver/Inc/stm32wbxx_ll_pwr.h **** #define LL_PWR_GPIO_D                      ((uint32_t)(&(PWR->PUCRD)))
 273:Drivers/STM32WBxx_HAL_Driver/Inc/stm32wbxx_ll_pwr.h **** #define LL_PWR_GPIO_E                      ((uint32_t)(&(PWR->PUCRE)))
 274:Drivers/STM32WBxx_HAL_Driver/Inc/stm32wbxx_ll_pwr.h **** #define LL_PWR_GPIO_H                      ((uint32_t)(&(PWR->PUCRH)))
 275:Drivers/STM32WBxx_HAL_Driver/Inc/stm32wbxx_ll_pwr.h **** /**
 276:Drivers/STM32WBxx_HAL_Driver/Inc/stm32wbxx_ll_pwr.h ****   * @}
 277:Drivers/STM32WBxx_HAL_Driver/Inc/stm32wbxx_ll_pwr.h ****   */
 278:Drivers/STM32WBxx_HAL_Driver/Inc/stm32wbxx_ll_pwr.h **** 
 279:Drivers/STM32WBxx_HAL_Driver/Inc/stm32wbxx_ll_pwr.h **** /** @defgroup PWR_LL_EC_GPIO_BIT GPIO BIT
 280:Drivers/STM32WBxx_HAL_Driver/Inc/stm32wbxx_ll_pwr.h ****   * @{
 281:Drivers/STM32WBxx_HAL_Driver/Inc/stm32wbxx_ll_pwr.h ****   */
 282:Drivers/STM32WBxx_HAL_Driver/Inc/stm32wbxx_ll_pwr.h **** #if defined(PWR_PUCRC_PC0)
 283:Drivers/STM32WBxx_HAL_Driver/Inc/stm32wbxx_ll_pwr.h **** /* Note: LL_PWR_GPIO_BIT_x defined from port C because all pins are available */
 284:Drivers/STM32WBxx_HAL_Driver/Inc/stm32wbxx_ll_pwr.h **** /*       for PWR pull-up and pull-down.                                       */
 285:Drivers/STM32WBxx_HAL_Driver/Inc/stm32wbxx_ll_pwr.h **** #define LL_PWR_GPIO_BIT_0                  (PWR_PUCRC_PC0)
 286:Drivers/STM32WBxx_HAL_Driver/Inc/stm32wbxx_ll_pwr.h **** #define LL_PWR_GPIO_BIT_1                  (PWR_PUCRC_PC1)
 287:Drivers/STM32WBxx_HAL_Driver/Inc/stm32wbxx_ll_pwr.h **** #define LL_PWR_GPIO_BIT_2                  (PWR_PUCRC_PC2)
 288:Drivers/STM32WBxx_HAL_Driver/Inc/stm32wbxx_ll_pwr.h **** #define LL_PWR_GPIO_BIT_3                  (PWR_PUCRC_PC3)
 289:Drivers/STM32WBxx_HAL_Driver/Inc/stm32wbxx_ll_pwr.h **** #define LL_PWR_GPIO_BIT_4                  (PWR_PUCRC_PC4)
 290:Drivers/STM32WBxx_HAL_Driver/Inc/stm32wbxx_ll_pwr.h **** #define LL_PWR_GPIO_BIT_5                  (PWR_PUCRC_PC5)
 291:Drivers/STM32WBxx_HAL_Driver/Inc/stm32wbxx_ll_pwr.h **** #define LL_PWR_GPIO_BIT_6                  (PWR_PUCRC_PC6)
 292:Drivers/STM32WBxx_HAL_Driver/Inc/stm32wbxx_ll_pwr.h **** #define LL_PWR_GPIO_BIT_7                  (PWR_PUCRC_PC7)
 293:Drivers/STM32WBxx_HAL_Driver/Inc/stm32wbxx_ll_pwr.h **** #define LL_PWR_GPIO_BIT_8                  (PWR_PUCRC_PC8)
 294:Drivers/STM32WBxx_HAL_Driver/Inc/stm32wbxx_ll_pwr.h **** #define LL_PWR_GPIO_BIT_9                  (PWR_PUCRC_PC9)
 295:Drivers/STM32WBxx_HAL_Driver/Inc/stm32wbxx_ll_pwr.h **** #define LL_PWR_GPIO_BIT_10                 (PWR_PUCRC_PC10)
ARM GAS  C:\Users\Nathan\AppData\Local\Temp\ccvsgOlc.s 			page 39


 296:Drivers/STM32WBxx_HAL_Driver/Inc/stm32wbxx_ll_pwr.h **** #define LL_PWR_GPIO_BIT_11                 (PWR_PUCRC_PC11)
 297:Drivers/STM32WBxx_HAL_Driver/Inc/stm32wbxx_ll_pwr.h **** #define LL_PWR_GPIO_BIT_12                 (PWR_PUCRC_PC12)
 298:Drivers/STM32WBxx_HAL_Driver/Inc/stm32wbxx_ll_pwr.h **** #define LL_PWR_GPIO_BIT_13                 (PWR_PUCRC_PC13)
 299:Drivers/STM32WBxx_HAL_Driver/Inc/stm32wbxx_ll_pwr.h **** #define LL_PWR_GPIO_BIT_14                 (PWR_PUCRC_PC14)
 300:Drivers/STM32WBxx_HAL_Driver/Inc/stm32wbxx_ll_pwr.h **** #define LL_PWR_GPIO_BIT_15                 (PWR_PUCRC_PC15)
 301:Drivers/STM32WBxx_HAL_Driver/Inc/stm32wbxx_ll_pwr.h **** #else
 302:Drivers/STM32WBxx_HAL_Driver/Inc/stm32wbxx_ll_pwr.h **** #define LL_PWR_GPIO_BIT_0                  (PWR_PUCRA_PA0)
 303:Drivers/STM32WBxx_HAL_Driver/Inc/stm32wbxx_ll_pwr.h **** #define LL_PWR_GPIO_BIT_1                  (PWR_PUCRA_PA1)
 304:Drivers/STM32WBxx_HAL_Driver/Inc/stm32wbxx_ll_pwr.h **** #define LL_PWR_GPIO_BIT_2                  (PWR_PUCRA_PA2)
 305:Drivers/STM32WBxx_HAL_Driver/Inc/stm32wbxx_ll_pwr.h **** #define LL_PWR_GPIO_BIT_3                  (PWR_PUCRA_PA3)
 306:Drivers/STM32WBxx_HAL_Driver/Inc/stm32wbxx_ll_pwr.h **** #define LL_PWR_GPIO_BIT_4                  (PWR_PUCRA_PA4)
 307:Drivers/STM32WBxx_HAL_Driver/Inc/stm32wbxx_ll_pwr.h **** #define LL_PWR_GPIO_BIT_5                  (PWR_PUCRA_PA5)
 308:Drivers/STM32WBxx_HAL_Driver/Inc/stm32wbxx_ll_pwr.h **** #define LL_PWR_GPIO_BIT_6                  (PWR_PUCRA_PA6)
 309:Drivers/STM32WBxx_HAL_Driver/Inc/stm32wbxx_ll_pwr.h **** #define LL_PWR_GPIO_BIT_7                  (PWR_PUCRA_PA7)
 310:Drivers/STM32WBxx_HAL_Driver/Inc/stm32wbxx_ll_pwr.h **** #define LL_PWR_GPIO_BIT_8                  (PWR_PUCRA_PA8)
 311:Drivers/STM32WBxx_HAL_Driver/Inc/stm32wbxx_ll_pwr.h **** #define LL_PWR_GPIO_BIT_9                  (PWR_PUCRA_PA9)
 312:Drivers/STM32WBxx_HAL_Driver/Inc/stm32wbxx_ll_pwr.h **** #define LL_PWR_GPIO_BIT_10                 (PWR_PUCRA_PA10)
 313:Drivers/STM32WBxx_HAL_Driver/Inc/stm32wbxx_ll_pwr.h **** #define LL_PWR_GPIO_BIT_11                 (PWR_PUCRA_PA11)
 314:Drivers/STM32WBxx_HAL_Driver/Inc/stm32wbxx_ll_pwr.h **** #define LL_PWR_GPIO_BIT_12                 (PWR_PUCRA_PA12)
 315:Drivers/STM32WBxx_HAL_Driver/Inc/stm32wbxx_ll_pwr.h **** #define LL_PWR_GPIO_BIT_13                 (PWR_PUCRA_PA13)
 316:Drivers/STM32WBxx_HAL_Driver/Inc/stm32wbxx_ll_pwr.h **** #define LL_PWR_GPIO_BIT_14                 (PWR_PUCRC_PC14)
 317:Drivers/STM32WBxx_HAL_Driver/Inc/stm32wbxx_ll_pwr.h **** #define LL_PWR_GPIO_BIT_15                 (PWR_PUCRC_PC15)
 318:Drivers/STM32WBxx_HAL_Driver/Inc/stm32wbxx_ll_pwr.h **** #endif /* PWR_PUCRC_PC0 */
 319:Drivers/STM32WBxx_HAL_Driver/Inc/stm32wbxx_ll_pwr.h **** /**
 320:Drivers/STM32WBxx_HAL_Driver/Inc/stm32wbxx_ll_pwr.h ****   * @}
 321:Drivers/STM32WBxx_HAL_Driver/Inc/stm32wbxx_ll_pwr.h ****   */
 322:Drivers/STM32WBxx_HAL_Driver/Inc/stm32wbxx_ll_pwr.h **** 
 323:Drivers/STM32WBxx_HAL_Driver/Inc/stm32wbxx_ll_pwr.h **** #if defined(PWR_CR5_SMPSEN)
 324:Drivers/STM32WBxx_HAL_Driver/Inc/stm32wbxx_ll_pwr.h **** /** @defgroup PWR_LL_EC_BOR_CONFIGURATION BOR configuration
 325:Drivers/STM32WBxx_HAL_Driver/Inc/stm32wbxx_ll_pwr.h ****   * @{
 326:Drivers/STM32WBxx_HAL_Driver/Inc/stm32wbxx_ll_pwr.h ****   */
 327:Drivers/STM32WBxx_HAL_Driver/Inc/stm32wbxx_ll_pwr.h **** #define LL_PWR_BOR_SYSTEM_RESET            (0x00000000U)     /*!< BOR will generate a system reset 
 328:Drivers/STM32WBxx_HAL_Driver/Inc/stm32wbxx_ll_pwr.h **** #define LL_PWR_BOR_SMPS_FORCE_BYPASS       (PWR_CR5_BORHC)   /*!< BOR will for SMPS step down conve
 329:Drivers/STM32WBxx_HAL_Driver/Inc/stm32wbxx_ll_pwr.h **** /**
 330:Drivers/STM32WBxx_HAL_Driver/Inc/stm32wbxx_ll_pwr.h ****   * @}
 331:Drivers/STM32WBxx_HAL_Driver/Inc/stm32wbxx_ll_pwr.h ****   */
 332:Drivers/STM32WBxx_HAL_Driver/Inc/stm32wbxx_ll_pwr.h **** 
 333:Drivers/STM32WBxx_HAL_Driver/Inc/stm32wbxx_ll_pwr.h **** /** @defgroup PWR_LL_EC_SMPS_OPERATING_MODES SMPS step down converter operating modes
 334:Drivers/STM32WBxx_HAL_Driver/Inc/stm32wbxx_ll_pwr.h ****   * @{
 335:Drivers/STM32WBxx_HAL_Driver/Inc/stm32wbxx_ll_pwr.h ****   */
 336:Drivers/STM32WBxx_HAL_Driver/Inc/stm32wbxx_ll_pwr.h **** /* Note: Literals values are defined from register SR2 bits SMPSF and SMPSBF  */
 337:Drivers/STM32WBxx_HAL_Driver/Inc/stm32wbxx_ll_pwr.h **** /*       but they are also used as register CR5 bits SMPSEN and SMPSBEN,      */
 338:Drivers/STM32WBxx_HAL_Driver/Inc/stm32wbxx_ll_pwr.h **** /*       as used by all SMPS operating mode functions targeting different    */
 339:Drivers/STM32WBxx_HAL_Driver/Inc/stm32wbxx_ll_pwr.h **** /*       registers:                                                           */
 340:Drivers/STM32WBxx_HAL_Driver/Inc/stm32wbxx_ll_pwr.h **** /*       "LL_PWR_SMPS_SetMode()", "LL_PWR_SMPS_GetMode()"                     */
 341:Drivers/STM32WBxx_HAL_Driver/Inc/stm32wbxx_ll_pwr.h **** /*       and "LL_PWR_SMPS_GetEffectiveMode()".                                */
 342:Drivers/STM32WBxx_HAL_Driver/Inc/stm32wbxx_ll_pwr.h **** #define LL_PWR_SMPS_BYPASS                 (PWR_SR2_SMPSBF) /*!< SMPS step down in bypass mode. */
 343:Drivers/STM32WBxx_HAL_Driver/Inc/stm32wbxx_ll_pwr.h **** #define LL_PWR_SMPS_STEP_DOWN              (PWR_SR2_SMPSF)  /*!< SMPS step down in step down mode i
 344:Drivers/STM32WBxx_HAL_Driver/Inc/stm32wbxx_ll_pwr.h **** /**
 345:Drivers/STM32WBxx_HAL_Driver/Inc/stm32wbxx_ll_pwr.h ****   * @}
 346:Drivers/STM32WBxx_HAL_Driver/Inc/stm32wbxx_ll_pwr.h ****   */
 347:Drivers/STM32WBxx_HAL_Driver/Inc/stm32wbxx_ll_pwr.h **** 
 348:Drivers/STM32WBxx_HAL_Driver/Inc/stm32wbxx_ll_pwr.h **** /** @defgroup PWR_LL_EC_SMPS_STARTUP_CURRENT SMPS step down converter supply startup current select
 349:Drivers/STM32WBxx_HAL_Driver/Inc/stm32wbxx_ll_pwr.h ****   * @{
 350:Drivers/STM32WBxx_HAL_Driver/Inc/stm32wbxx_ll_pwr.h ****   */
 351:Drivers/STM32WBxx_HAL_Driver/Inc/stm32wbxx_ll_pwr.h **** #define LL_PWR_SMPS_STARTUP_CURRENT_80MA   (0x00000000U)                                           
 352:Drivers/STM32WBxx_HAL_Driver/Inc/stm32wbxx_ll_pwr.h **** #define LL_PWR_SMPS_STARTUP_CURRENT_100MA  (                                      PWR_CR5_SMPSSC_0)
ARM GAS  C:\Users\Nathan\AppData\Local\Temp\ccvsgOlc.s 			page 40


 353:Drivers/STM32WBxx_HAL_Driver/Inc/stm32wbxx_ll_pwr.h **** #define LL_PWR_SMPS_STARTUP_CURRENT_120MA  (                   PWR_CR5_SMPSSC_1                   )
 354:Drivers/STM32WBxx_HAL_Driver/Inc/stm32wbxx_ll_pwr.h **** #define LL_PWR_SMPS_STARTUP_CURRENT_140MA  (                   PWR_CR5_SMPSSC_1 | PWR_CR5_SMPSSC_0)
 355:Drivers/STM32WBxx_HAL_Driver/Inc/stm32wbxx_ll_pwr.h **** #define LL_PWR_SMPS_STARTUP_CURRENT_160MA  (PWR_CR5_SMPSSC_2                                      )
 356:Drivers/STM32WBxx_HAL_Driver/Inc/stm32wbxx_ll_pwr.h **** #define LL_PWR_SMPS_STARTUP_CURRENT_180MA  (PWR_CR5_SMPSSC_2 |                    PWR_CR5_SMPSSC_0)
 357:Drivers/STM32WBxx_HAL_Driver/Inc/stm32wbxx_ll_pwr.h **** #define LL_PWR_SMPS_STARTUP_CURRENT_200MA  (PWR_CR5_SMPSSC_2 | PWR_CR5_SMPSSC_1                   )
 358:Drivers/STM32WBxx_HAL_Driver/Inc/stm32wbxx_ll_pwr.h **** #define LL_PWR_SMPS_STARTUP_CURRENT_220MA  (PWR_CR5_SMPSSC_2 | PWR_CR5_SMPSSC_1 | PWR_CR5_SMPSSC_0)
 359:Drivers/STM32WBxx_HAL_Driver/Inc/stm32wbxx_ll_pwr.h **** /**
 360:Drivers/STM32WBxx_HAL_Driver/Inc/stm32wbxx_ll_pwr.h ****   * @}
 361:Drivers/STM32WBxx_HAL_Driver/Inc/stm32wbxx_ll_pwr.h ****   */
 362:Drivers/STM32WBxx_HAL_Driver/Inc/stm32wbxx_ll_pwr.h **** 
 363:Drivers/STM32WBxx_HAL_Driver/Inc/stm32wbxx_ll_pwr.h **** /** @defgroup PWR_LL_EC_SMPS_OUTPUT_VOLTAGE_LEVEL SMPS step down converter output voltage scaling v
 364:Drivers/STM32WBxx_HAL_Driver/Inc/stm32wbxx_ll_pwr.h ****   * @{
 365:Drivers/STM32WBxx_HAL_Driver/Inc/stm32wbxx_ll_pwr.h ****   */
 366:Drivers/STM32WBxx_HAL_Driver/Inc/stm32wbxx_ll_pwr.h **** /* Note: SMPS voltage is trimmed during device production to control
 367:Drivers/STM32WBxx_HAL_Driver/Inc/stm32wbxx_ll_pwr.h ****          the actual voltage level variation from device to device. */
 368:Drivers/STM32WBxx_HAL_Driver/Inc/stm32wbxx_ll_pwr.h **** #define LL_PWR_SMPS_OUTPUT_VOLTAGE_1V20  (0x00000000U)                                             
 369:Drivers/STM32WBxx_HAL_Driver/Inc/stm32wbxx_ll_pwr.h **** #define LL_PWR_SMPS_OUTPUT_VOLTAGE_1V25  (                                                         
 370:Drivers/STM32WBxx_HAL_Driver/Inc/stm32wbxx_ll_pwr.h **** #define LL_PWR_SMPS_OUTPUT_VOLTAGE_1V30  (                                        PWR_CR5_SMPSVOS_1
 371:Drivers/STM32WBxx_HAL_Driver/Inc/stm32wbxx_ll_pwr.h **** #define LL_PWR_SMPS_OUTPUT_VOLTAGE_1V35  (                                        PWR_CR5_SMPSVOS_1
 372:Drivers/STM32WBxx_HAL_Driver/Inc/stm32wbxx_ll_pwr.h **** #define LL_PWR_SMPS_OUTPUT_VOLTAGE_1V40  (                    PWR_CR5_SMPSVOS_2                    
 373:Drivers/STM32WBxx_HAL_Driver/Inc/stm32wbxx_ll_pwr.h **** #define LL_PWR_SMPS_OUTPUT_VOLTAGE_1V45  (                    PWR_CR5_SMPSVOS_2 |                  
 374:Drivers/STM32WBxx_HAL_Driver/Inc/stm32wbxx_ll_pwr.h **** #define LL_PWR_SMPS_OUTPUT_VOLTAGE_1V50  (                    PWR_CR5_SMPSVOS_2 | PWR_CR5_SMPSVOS_1
 375:Drivers/STM32WBxx_HAL_Driver/Inc/stm32wbxx_ll_pwr.h **** #define LL_PWR_SMPS_OUTPUT_VOLTAGE_1V55  (                    PWR_CR5_SMPSVOS_2 | PWR_CR5_SMPSVOS_1
 376:Drivers/STM32WBxx_HAL_Driver/Inc/stm32wbxx_ll_pwr.h **** #define LL_PWR_SMPS_OUTPUT_VOLTAGE_1V60  (PWR_CR5_SMPSVOS_3                                        
 377:Drivers/STM32WBxx_HAL_Driver/Inc/stm32wbxx_ll_pwr.h **** #define LL_PWR_SMPS_OUTPUT_VOLTAGE_1V65  (PWR_CR5_SMPSVOS_3 |                                      
 378:Drivers/STM32WBxx_HAL_Driver/Inc/stm32wbxx_ll_pwr.h **** #define LL_PWR_SMPS_OUTPUT_VOLTAGE_1V70  (PWR_CR5_SMPSVOS_3 |                     PWR_CR5_SMPSVOS_1
 379:Drivers/STM32WBxx_HAL_Driver/Inc/stm32wbxx_ll_pwr.h **** #define LL_PWR_SMPS_OUTPUT_VOLTAGE_1V75  (PWR_CR5_SMPSVOS_3 |                     PWR_CR5_SMPSVOS_1
 380:Drivers/STM32WBxx_HAL_Driver/Inc/stm32wbxx_ll_pwr.h **** #define LL_PWR_SMPS_OUTPUT_VOLTAGE_1V80  (PWR_CR5_SMPSVOS_3 | PWR_CR5_SMPSVOS_2                    
 381:Drivers/STM32WBxx_HAL_Driver/Inc/stm32wbxx_ll_pwr.h **** #define LL_PWR_SMPS_OUTPUT_VOLTAGE_1V85  (PWR_CR5_SMPSVOS_3 | PWR_CR5_SMPSVOS_2 |                  
 382:Drivers/STM32WBxx_HAL_Driver/Inc/stm32wbxx_ll_pwr.h **** #define LL_PWR_SMPS_OUTPUT_VOLTAGE_1V90  (PWR_CR5_SMPSVOS_3 | PWR_CR5_SMPSVOS_2 | PWR_CR5_SMPSVOS_1
 383:Drivers/STM32WBxx_HAL_Driver/Inc/stm32wbxx_ll_pwr.h **** /**
 384:Drivers/STM32WBxx_HAL_Driver/Inc/stm32wbxx_ll_pwr.h ****   * @}
 385:Drivers/STM32WBxx_HAL_Driver/Inc/stm32wbxx_ll_pwr.h ****   */
 386:Drivers/STM32WBxx_HAL_Driver/Inc/stm32wbxx_ll_pwr.h **** #endif /* PWR_CR5_SMPSEN */
 387:Drivers/STM32WBxx_HAL_Driver/Inc/stm32wbxx_ll_pwr.h **** 
 388:Drivers/STM32WBxx_HAL_Driver/Inc/stm32wbxx_ll_pwr.h **** /**
 389:Drivers/STM32WBxx_HAL_Driver/Inc/stm32wbxx_ll_pwr.h ****   * @}
 390:Drivers/STM32WBxx_HAL_Driver/Inc/stm32wbxx_ll_pwr.h ****   */
 391:Drivers/STM32WBxx_HAL_Driver/Inc/stm32wbxx_ll_pwr.h **** 
 392:Drivers/STM32WBxx_HAL_Driver/Inc/stm32wbxx_ll_pwr.h **** /* Exported macro ------------------------------------------------------------*/
 393:Drivers/STM32WBxx_HAL_Driver/Inc/stm32wbxx_ll_pwr.h **** /** @defgroup PWR_LL_Exported_Macros PWR Exported Macros
 394:Drivers/STM32WBxx_HAL_Driver/Inc/stm32wbxx_ll_pwr.h ****   * @{
 395:Drivers/STM32WBxx_HAL_Driver/Inc/stm32wbxx_ll_pwr.h ****   */
 396:Drivers/STM32WBxx_HAL_Driver/Inc/stm32wbxx_ll_pwr.h **** 
 397:Drivers/STM32WBxx_HAL_Driver/Inc/stm32wbxx_ll_pwr.h **** /** @defgroup PWR_LL_EM_WRITE_READ Common Write and read registers Macros
 398:Drivers/STM32WBxx_HAL_Driver/Inc/stm32wbxx_ll_pwr.h ****   * @{
 399:Drivers/STM32WBxx_HAL_Driver/Inc/stm32wbxx_ll_pwr.h ****   */
 400:Drivers/STM32WBxx_HAL_Driver/Inc/stm32wbxx_ll_pwr.h **** 
 401:Drivers/STM32WBxx_HAL_Driver/Inc/stm32wbxx_ll_pwr.h **** /**
 402:Drivers/STM32WBxx_HAL_Driver/Inc/stm32wbxx_ll_pwr.h ****   * @brief  Write a value in PWR register
 403:Drivers/STM32WBxx_HAL_Driver/Inc/stm32wbxx_ll_pwr.h ****   * @param  __REG__ Register to be written
 404:Drivers/STM32WBxx_HAL_Driver/Inc/stm32wbxx_ll_pwr.h ****   * @param  __VALUE__ Value to be written in the register
 405:Drivers/STM32WBxx_HAL_Driver/Inc/stm32wbxx_ll_pwr.h ****   * @retval None
 406:Drivers/STM32WBxx_HAL_Driver/Inc/stm32wbxx_ll_pwr.h ****   */
 407:Drivers/STM32WBxx_HAL_Driver/Inc/stm32wbxx_ll_pwr.h **** #define LL_PWR_WriteReg(__REG__, __VALUE__) WRITE_REG(PWR->__REG__, (__VALUE__))
 408:Drivers/STM32WBxx_HAL_Driver/Inc/stm32wbxx_ll_pwr.h **** 
 409:Drivers/STM32WBxx_HAL_Driver/Inc/stm32wbxx_ll_pwr.h **** /**
ARM GAS  C:\Users\Nathan\AppData\Local\Temp\ccvsgOlc.s 			page 41


 410:Drivers/STM32WBxx_HAL_Driver/Inc/stm32wbxx_ll_pwr.h ****   * @brief  Read a value in PWR register
 411:Drivers/STM32WBxx_HAL_Driver/Inc/stm32wbxx_ll_pwr.h ****   * @param  __REG__ Register to be read
 412:Drivers/STM32WBxx_HAL_Driver/Inc/stm32wbxx_ll_pwr.h ****   * @retval Register value
 413:Drivers/STM32WBxx_HAL_Driver/Inc/stm32wbxx_ll_pwr.h ****   */
 414:Drivers/STM32WBxx_HAL_Driver/Inc/stm32wbxx_ll_pwr.h **** #define LL_PWR_ReadReg(__REG__) READ_REG(PWR->__REG__)
 415:Drivers/STM32WBxx_HAL_Driver/Inc/stm32wbxx_ll_pwr.h **** /**
 416:Drivers/STM32WBxx_HAL_Driver/Inc/stm32wbxx_ll_pwr.h ****   * @}
 417:Drivers/STM32WBxx_HAL_Driver/Inc/stm32wbxx_ll_pwr.h ****   */
 418:Drivers/STM32WBxx_HAL_Driver/Inc/stm32wbxx_ll_pwr.h **** 
 419:Drivers/STM32WBxx_HAL_Driver/Inc/stm32wbxx_ll_pwr.h **** /**
 420:Drivers/STM32WBxx_HAL_Driver/Inc/stm32wbxx_ll_pwr.h ****   * @}
 421:Drivers/STM32WBxx_HAL_Driver/Inc/stm32wbxx_ll_pwr.h ****   */
 422:Drivers/STM32WBxx_HAL_Driver/Inc/stm32wbxx_ll_pwr.h **** 
 423:Drivers/STM32WBxx_HAL_Driver/Inc/stm32wbxx_ll_pwr.h **** 
 424:Drivers/STM32WBxx_HAL_Driver/Inc/stm32wbxx_ll_pwr.h **** /* Exported functions --------------------------------------------------------*/
 425:Drivers/STM32WBxx_HAL_Driver/Inc/stm32wbxx_ll_pwr.h **** /** @defgroup PWR_LL_Exported_Functions PWR Exported Functions
 426:Drivers/STM32WBxx_HAL_Driver/Inc/stm32wbxx_ll_pwr.h ****   * @{
 427:Drivers/STM32WBxx_HAL_Driver/Inc/stm32wbxx_ll_pwr.h ****   */
 428:Drivers/STM32WBxx_HAL_Driver/Inc/stm32wbxx_ll_pwr.h **** 
 429:Drivers/STM32WBxx_HAL_Driver/Inc/stm32wbxx_ll_pwr.h **** /** @defgroup PWR_LL_EF_Configuration Configuration
 430:Drivers/STM32WBxx_HAL_Driver/Inc/stm32wbxx_ll_pwr.h ****   * @{
 431:Drivers/STM32WBxx_HAL_Driver/Inc/stm32wbxx_ll_pwr.h ****   */
 432:Drivers/STM32WBxx_HAL_Driver/Inc/stm32wbxx_ll_pwr.h **** 
 433:Drivers/STM32WBxx_HAL_Driver/Inc/stm32wbxx_ll_pwr.h **** /**
 434:Drivers/STM32WBxx_HAL_Driver/Inc/stm32wbxx_ll_pwr.h ****   * @brief  Switch from run main mode to run low-power mode.
 435:Drivers/STM32WBxx_HAL_Driver/Inc/stm32wbxx_ll_pwr.h ****   * @rmtoll CR1          LPR           LL_PWR_EnterLowPowerRunMode
 436:Drivers/STM32WBxx_HAL_Driver/Inc/stm32wbxx_ll_pwr.h ****   * @retval None
 437:Drivers/STM32WBxx_HAL_Driver/Inc/stm32wbxx_ll_pwr.h ****   */
 438:Drivers/STM32WBxx_HAL_Driver/Inc/stm32wbxx_ll_pwr.h **** __STATIC_INLINE void LL_PWR_EnterLowPowerRunMode(void)
 439:Drivers/STM32WBxx_HAL_Driver/Inc/stm32wbxx_ll_pwr.h **** {
 440:Drivers/STM32WBxx_HAL_Driver/Inc/stm32wbxx_ll_pwr.h ****   SET_BIT(PWR->CR1, PWR_CR1_LPR);
 441:Drivers/STM32WBxx_HAL_Driver/Inc/stm32wbxx_ll_pwr.h **** }
 442:Drivers/STM32WBxx_HAL_Driver/Inc/stm32wbxx_ll_pwr.h **** 
 443:Drivers/STM32WBxx_HAL_Driver/Inc/stm32wbxx_ll_pwr.h **** /**
 444:Drivers/STM32WBxx_HAL_Driver/Inc/stm32wbxx_ll_pwr.h ****   * @brief  Switch from run main mode to low-power mode.
 445:Drivers/STM32WBxx_HAL_Driver/Inc/stm32wbxx_ll_pwr.h ****   * @rmtoll CR1          LPR           LL_PWR_ExitLowPowerRunMode
 446:Drivers/STM32WBxx_HAL_Driver/Inc/stm32wbxx_ll_pwr.h ****   * @retval None
 447:Drivers/STM32WBxx_HAL_Driver/Inc/stm32wbxx_ll_pwr.h ****   */
 448:Drivers/STM32WBxx_HAL_Driver/Inc/stm32wbxx_ll_pwr.h **** __STATIC_INLINE void LL_PWR_ExitLowPowerRunMode(void)
 449:Drivers/STM32WBxx_HAL_Driver/Inc/stm32wbxx_ll_pwr.h **** {
 450:Drivers/STM32WBxx_HAL_Driver/Inc/stm32wbxx_ll_pwr.h ****   CLEAR_BIT(PWR->CR1, PWR_CR1_LPR);
 451:Drivers/STM32WBxx_HAL_Driver/Inc/stm32wbxx_ll_pwr.h **** }
 452:Drivers/STM32WBxx_HAL_Driver/Inc/stm32wbxx_ll_pwr.h **** 
 453:Drivers/STM32WBxx_HAL_Driver/Inc/stm32wbxx_ll_pwr.h **** /**
 454:Drivers/STM32WBxx_HAL_Driver/Inc/stm32wbxx_ll_pwr.h ****   * @brief  Check if the regulator is in low-power mode
 455:Drivers/STM32WBxx_HAL_Driver/Inc/stm32wbxx_ll_pwr.h ****   * @rmtoll CR1          LPR           LL_PWR_IsEnabledLowPowerRunMode
 456:Drivers/STM32WBxx_HAL_Driver/Inc/stm32wbxx_ll_pwr.h ****   * @retval State of bit (1 or 0).
 457:Drivers/STM32WBxx_HAL_Driver/Inc/stm32wbxx_ll_pwr.h ****   */
 458:Drivers/STM32WBxx_HAL_Driver/Inc/stm32wbxx_ll_pwr.h **** __STATIC_INLINE uint32_t LL_PWR_IsEnabledLowPowerRunMode(void)
 459:Drivers/STM32WBxx_HAL_Driver/Inc/stm32wbxx_ll_pwr.h **** {
 460:Drivers/STM32WBxx_HAL_Driver/Inc/stm32wbxx_ll_pwr.h ****   return ((READ_BIT(PWR->CR1, PWR_CR1_LPR) == (PWR_CR1_LPR)) ? 1UL : 0UL);
 461:Drivers/STM32WBxx_HAL_Driver/Inc/stm32wbxx_ll_pwr.h **** }
 462:Drivers/STM32WBxx_HAL_Driver/Inc/stm32wbxx_ll_pwr.h **** 
 463:Drivers/STM32WBxx_HAL_Driver/Inc/stm32wbxx_ll_pwr.h **** #if defined(PWR_CR1_VOS)
 464:Drivers/STM32WBxx_HAL_Driver/Inc/stm32wbxx_ll_pwr.h **** /**
 465:Drivers/STM32WBxx_HAL_Driver/Inc/stm32wbxx_ll_pwr.h ****   * @brief  Set the main internal regulator output voltage
 466:Drivers/STM32WBxx_HAL_Driver/Inc/stm32wbxx_ll_pwr.h ****   * @note   A delay is required for the internal regulator to be ready
ARM GAS  C:\Users\Nathan\AppData\Local\Temp\ccvsgOlc.s 			page 42


 467:Drivers/STM32WBxx_HAL_Driver/Inc/stm32wbxx_ll_pwr.h ****   *         after the voltage scaling has been changed.
 468:Drivers/STM32WBxx_HAL_Driver/Inc/stm32wbxx_ll_pwr.h ****   *         Check whether regulator reached the selected voltage level
 469:Drivers/STM32WBxx_HAL_Driver/Inc/stm32wbxx_ll_pwr.h ****   *         can be done using function @ref LL_PWR_IsActiveFlag_VOS().
 470:Drivers/STM32WBxx_HAL_Driver/Inc/stm32wbxx_ll_pwr.h ****   * @rmtoll CR1          VOS           LL_PWR_SetRegulVoltageScaling
 471:Drivers/STM32WBxx_HAL_Driver/Inc/stm32wbxx_ll_pwr.h ****   * @param  VoltageScaling This parameter can be one of the following values:
 472:Drivers/STM32WBxx_HAL_Driver/Inc/stm32wbxx_ll_pwr.h ****   *         @arg @ref LL_PWR_REGU_VOLTAGE_SCALE1
 473:Drivers/STM32WBxx_HAL_Driver/Inc/stm32wbxx_ll_pwr.h ****   *         @arg @ref LL_PWR_REGU_VOLTAGE_SCALE2
 474:Drivers/STM32WBxx_HAL_Driver/Inc/stm32wbxx_ll_pwr.h ****   * @retval None
 475:Drivers/STM32WBxx_HAL_Driver/Inc/stm32wbxx_ll_pwr.h ****   */
 476:Drivers/STM32WBxx_HAL_Driver/Inc/stm32wbxx_ll_pwr.h **** __STATIC_INLINE void LL_PWR_SetRegulVoltageScaling(uint32_t VoltageScaling)
 477:Drivers/STM32WBxx_HAL_Driver/Inc/stm32wbxx_ll_pwr.h **** {
 478:Drivers/STM32WBxx_HAL_Driver/Inc/stm32wbxx_ll_pwr.h ****   MODIFY_REG(PWR->CR1, PWR_CR1_VOS, VoltageScaling);
 479:Drivers/STM32WBxx_HAL_Driver/Inc/stm32wbxx_ll_pwr.h **** }
 480:Drivers/STM32WBxx_HAL_Driver/Inc/stm32wbxx_ll_pwr.h **** 
 481:Drivers/STM32WBxx_HAL_Driver/Inc/stm32wbxx_ll_pwr.h **** /**
 482:Drivers/STM32WBxx_HAL_Driver/Inc/stm32wbxx_ll_pwr.h ****   * @brief  Get the main internal regulator output voltage
 483:Drivers/STM32WBxx_HAL_Driver/Inc/stm32wbxx_ll_pwr.h ****   * @rmtoll CR1          VOS           LL_PWR_GetRegulVoltageScaling
 484:Drivers/STM32WBxx_HAL_Driver/Inc/stm32wbxx_ll_pwr.h ****   * @retval Returned value can be one of the following values:
 485:Drivers/STM32WBxx_HAL_Driver/Inc/stm32wbxx_ll_pwr.h ****   *         @arg @ref LL_PWR_REGU_VOLTAGE_SCALE1
 486:Drivers/STM32WBxx_HAL_Driver/Inc/stm32wbxx_ll_pwr.h ****   *         @arg @ref LL_PWR_REGU_VOLTAGE_SCALE2
 487:Drivers/STM32WBxx_HAL_Driver/Inc/stm32wbxx_ll_pwr.h ****   */
 488:Drivers/STM32WBxx_HAL_Driver/Inc/stm32wbxx_ll_pwr.h **** __STATIC_INLINE uint32_t LL_PWR_GetRegulVoltageScaling(void)
 489:Drivers/STM32WBxx_HAL_Driver/Inc/stm32wbxx_ll_pwr.h **** {
 490:Drivers/STM32WBxx_HAL_Driver/Inc/stm32wbxx_ll_pwr.h ****   return (uint32_t)(READ_BIT(PWR->CR1, PWR_CR1_VOS));
 491:Drivers/STM32WBxx_HAL_Driver/Inc/stm32wbxx_ll_pwr.h **** }
 492:Drivers/STM32WBxx_HAL_Driver/Inc/stm32wbxx_ll_pwr.h **** #endif /* PWR_CR1_VOS */
 493:Drivers/STM32WBxx_HAL_Driver/Inc/stm32wbxx_ll_pwr.h **** 
 494:Drivers/STM32WBxx_HAL_Driver/Inc/stm32wbxx_ll_pwr.h **** /**
 495:Drivers/STM32WBxx_HAL_Driver/Inc/stm32wbxx_ll_pwr.h ****   * @brief  Enable access to the backup domain
 496:Drivers/STM32WBxx_HAL_Driver/Inc/stm32wbxx_ll_pwr.h ****   * @rmtoll CR1          DBP           LL_PWR_EnableBkUpAccess
 497:Drivers/STM32WBxx_HAL_Driver/Inc/stm32wbxx_ll_pwr.h ****   * @retval None
 498:Drivers/STM32WBxx_HAL_Driver/Inc/stm32wbxx_ll_pwr.h ****   */
 499:Drivers/STM32WBxx_HAL_Driver/Inc/stm32wbxx_ll_pwr.h **** __STATIC_INLINE void LL_PWR_EnableBkUpAccess(void)
 500:Drivers/STM32WBxx_HAL_Driver/Inc/stm32wbxx_ll_pwr.h **** {
 501:Drivers/STM32WBxx_HAL_Driver/Inc/stm32wbxx_ll_pwr.h ****   SET_BIT(PWR->CR1, PWR_CR1_DBP);
 502:Drivers/STM32WBxx_HAL_Driver/Inc/stm32wbxx_ll_pwr.h **** }
 503:Drivers/STM32WBxx_HAL_Driver/Inc/stm32wbxx_ll_pwr.h **** 
 504:Drivers/STM32WBxx_HAL_Driver/Inc/stm32wbxx_ll_pwr.h **** /**
 505:Drivers/STM32WBxx_HAL_Driver/Inc/stm32wbxx_ll_pwr.h ****   * @brief  Disable access to the backup domain
 506:Drivers/STM32WBxx_HAL_Driver/Inc/stm32wbxx_ll_pwr.h ****   * @rmtoll CR1          DBP           LL_PWR_DisableBkUpAccess
 507:Drivers/STM32WBxx_HAL_Driver/Inc/stm32wbxx_ll_pwr.h ****   * @retval None
 508:Drivers/STM32WBxx_HAL_Driver/Inc/stm32wbxx_ll_pwr.h ****   */
 509:Drivers/STM32WBxx_HAL_Driver/Inc/stm32wbxx_ll_pwr.h **** __STATIC_INLINE void LL_PWR_DisableBkUpAccess(void)
 510:Drivers/STM32WBxx_HAL_Driver/Inc/stm32wbxx_ll_pwr.h **** {
 511:Drivers/STM32WBxx_HAL_Driver/Inc/stm32wbxx_ll_pwr.h ****   CLEAR_BIT(PWR->CR1, PWR_CR1_DBP);
 512:Drivers/STM32WBxx_HAL_Driver/Inc/stm32wbxx_ll_pwr.h **** }
 513:Drivers/STM32WBxx_HAL_Driver/Inc/stm32wbxx_ll_pwr.h **** 
 514:Drivers/STM32WBxx_HAL_Driver/Inc/stm32wbxx_ll_pwr.h **** /**
 515:Drivers/STM32WBxx_HAL_Driver/Inc/stm32wbxx_ll_pwr.h ****   * @brief  Check if the backup domain is enabled
 516:Drivers/STM32WBxx_HAL_Driver/Inc/stm32wbxx_ll_pwr.h ****   * @rmtoll CR1          DBP           LL_PWR_IsEnabledBkUpAccess
 517:Drivers/STM32WBxx_HAL_Driver/Inc/stm32wbxx_ll_pwr.h ****   * @retval State of bit (1 or 0).
 518:Drivers/STM32WBxx_HAL_Driver/Inc/stm32wbxx_ll_pwr.h ****   */
 519:Drivers/STM32WBxx_HAL_Driver/Inc/stm32wbxx_ll_pwr.h **** __STATIC_INLINE uint32_t LL_PWR_IsEnabledBkUpAccess(void)
 520:Drivers/STM32WBxx_HAL_Driver/Inc/stm32wbxx_ll_pwr.h **** {
 521:Drivers/STM32WBxx_HAL_Driver/Inc/stm32wbxx_ll_pwr.h ****   return ((READ_BIT(PWR->CR1, PWR_CR1_DBP) == (PWR_CR1_DBP)) ? 1UL : 0UL);
 522:Drivers/STM32WBxx_HAL_Driver/Inc/stm32wbxx_ll_pwr.h **** }
 523:Drivers/STM32WBxx_HAL_Driver/Inc/stm32wbxx_ll_pwr.h **** 
ARM GAS  C:\Users\Nathan\AppData\Local\Temp\ccvsgOlc.s 			page 43


 524:Drivers/STM32WBxx_HAL_Driver/Inc/stm32wbxx_ll_pwr.h **** /**
 525:Drivers/STM32WBxx_HAL_Driver/Inc/stm32wbxx_ll_pwr.h ****   * @brief  Set Low-Power mode
 526:Drivers/STM32WBxx_HAL_Driver/Inc/stm32wbxx_ll_pwr.h ****   * @rmtoll CR1          LPMS          LL_PWR_SetPowerMode
 527:Drivers/STM32WBxx_HAL_Driver/Inc/stm32wbxx_ll_pwr.h ****   * @param  LowPowerMode This parameter can be one of the following values:
 528:Drivers/STM32WBxx_HAL_Driver/Inc/stm32wbxx_ll_pwr.h ****   *         @arg @ref LL_PWR_MODE_STOP0
 529:Drivers/STM32WBxx_HAL_Driver/Inc/stm32wbxx_ll_pwr.h ****   *         @arg @ref LL_PWR_MODE_STOP1
 530:Drivers/STM32WBxx_HAL_Driver/Inc/stm32wbxx_ll_pwr.h ****   *         @arg @ref LL_PWR_MODE_STOP2 (*)
 531:Drivers/STM32WBxx_HAL_Driver/Inc/stm32wbxx_ll_pwr.h ****   *         @arg @ref LL_PWR_MODE_STANDBY
 532:Drivers/STM32WBxx_HAL_Driver/Inc/stm32wbxx_ll_pwr.h ****   *         @arg @ref LL_PWR_MODE_SHUTDOWN
 533:Drivers/STM32WBxx_HAL_Driver/Inc/stm32wbxx_ll_pwr.h ****   *
 534:Drivers/STM32WBxx_HAL_Driver/Inc/stm32wbxx_ll_pwr.h ****   *         (*) Not available on devices STM32WB15xx, STM32WB10xx, STM32WB1Mxx
 535:Drivers/STM32WBxx_HAL_Driver/Inc/stm32wbxx_ll_pwr.h ****   * @retval None
 536:Drivers/STM32WBxx_HAL_Driver/Inc/stm32wbxx_ll_pwr.h ****   */
 537:Drivers/STM32WBxx_HAL_Driver/Inc/stm32wbxx_ll_pwr.h **** __STATIC_INLINE void LL_PWR_SetPowerMode(uint32_t LowPowerMode)
 538:Drivers/STM32WBxx_HAL_Driver/Inc/stm32wbxx_ll_pwr.h **** {
 539:Drivers/STM32WBxx_HAL_Driver/Inc/stm32wbxx_ll_pwr.h ****   MODIFY_REG(PWR->CR1, PWR_CR1_LPMS, LowPowerMode);
 540:Drivers/STM32WBxx_HAL_Driver/Inc/stm32wbxx_ll_pwr.h **** }
 541:Drivers/STM32WBxx_HAL_Driver/Inc/stm32wbxx_ll_pwr.h **** 
 542:Drivers/STM32WBxx_HAL_Driver/Inc/stm32wbxx_ll_pwr.h **** /**
 543:Drivers/STM32WBxx_HAL_Driver/Inc/stm32wbxx_ll_pwr.h ****   * @brief  Get Low-Power mode
 544:Drivers/STM32WBxx_HAL_Driver/Inc/stm32wbxx_ll_pwr.h ****   * @rmtoll CR1          LPMS          LL_PWR_GetPowerMode
 545:Drivers/STM32WBxx_HAL_Driver/Inc/stm32wbxx_ll_pwr.h ****   * @retval Returned value can be one of the following values:
 546:Drivers/STM32WBxx_HAL_Driver/Inc/stm32wbxx_ll_pwr.h ****   *         @arg @ref LL_PWR_MODE_STOP0
 547:Drivers/STM32WBxx_HAL_Driver/Inc/stm32wbxx_ll_pwr.h ****   *         @arg @ref LL_PWR_MODE_STOP1
 548:Drivers/STM32WBxx_HAL_Driver/Inc/stm32wbxx_ll_pwr.h ****   *         @arg @ref LL_PWR_MODE_STOP2 (*)
 549:Drivers/STM32WBxx_HAL_Driver/Inc/stm32wbxx_ll_pwr.h ****   *         @arg @ref LL_PWR_MODE_STANDBY
 550:Drivers/STM32WBxx_HAL_Driver/Inc/stm32wbxx_ll_pwr.h ****   *         @arg @ref LL_PWR_MODE_SHUTDOWN
 551:Drivers/STM32WBxx_HAL_Driver/Inc/stm32wbxx_ll_pwr.h ****   *
 552:Drivers/STM32WBxx_HAL_Driver/Inc/stm32wbxx_ll_pwr.h ****   *         (*) Not available on devices STM32WB15xx, STM32WB10xx, STM32WB1Mxx
 553:Drivers/STM32WBxx_HAL_Driver/Inc/stm32wbxx_ll_pwr.h ****   */
 554:Drivers/STM32WBxx_HAL_Driver/Inc/stm32wbxx_ll_pwr.h **** __STATIC_INLINE uint32_t LL_PWR_GetPowerMode(void)
 555:Drivers/STM32WBxx_HAL_Driver/Inc/stm32wbxx_ll_pwr.h **** {
 556:Drivers/STM32WBxx_HAL_Driver/Inc/stm32wbxx_ll_pwr.h ****   return (uint32_t)(READ_BIT(PWR->CR1, PWR_CR1_LPMS));
 557:Drivers/STM32WBxx_HAL_Driver/Inc/stm32wbxx_ll_pwr.h **** }
 558:Drivers/STM32WBxx_HAL_Driver/Inc/stm32wbxx_ll_pwr.h **** 
 559:Drivers/STM32WBxx_HAL_Driver/Inc/stm32wbxx_ll_pwr.h **** /**
 560:Drivers/STM32WBxx_HAL_Driver/Inc/stm32wbxx_ll_pwr.h ****   * @brief  Set flash power-down mode during low-power run mode
 561:Drivers/STM32WBxx_HAL_Driver/Inc/stm32wbxx_ll_pwr.h ****   * @rmtoll CR1          FPDR          LL_PWR_SetFlashPowerModeLPRun
 562:Drivers/STM32WBxx_HAL_Driver/Inc/stm32wbxx_ll_pwr.h ****   * @param  FlashLowPowerMode This parameter can be one of the following values:
 563:Drivers/STM32WBxx_HAL_Driver/Inc/stm32wbxx_ll_pwr.h ****   *         @arg @ref LL_PWR_FLASH_LPRUN_MODE_IDLE
 564:Drivers/STM32WBxx_HAL_Driver/Inc/stm32wbxx_ll_pwr.h ****   *         @arg @ref LL_PWR_FLASH_LPRUN_MODE_POWER_DOWN
 565:Drivers/STM32WBxx_HAL_Driver/Inc/stm32wbxx_ll_pwr.h ****   * @retval None
 566:Drivers/STM32WBxx_HAL_Driver/Inc/stm32wbxx_ll_pwr.h ****   */
 567:Drivers/STM32WBxx_HAL_Driver/Inc/stm32wbxx_ll_pwr.h **** __STATIC_INLINE void LL_PWR_SetFlashPowerModeLPRun(uint32_t FlashLowPowerMode)
 568:Drivers/STM32WBxx_HAL_Driver/Inc/stm32wbxx_ll_pwr.h **** {
 569:Drivers/STM32WBxx_HAL_Driver/Inc/stm32wbxx_ll_pwr.h ****   /* Unlock bit FPDR */
 570:Drivers/STM32WBxx_HAL_Driver/Inc/stm32wbxx_ll_pwr.h ****   WRITE_REG(PWR->CR1, 0x0000C1B0UL);
 571:Drivers/STM32WBxx_HAL_Driver/Inc/stm32wbxx_ll_pwr.h **** 
 572:Drivers/STM32WBxx_HAL_Driver/Inc/stm32wbxx_ll_pwr.h ****   /* Update bit FPDR */
 573:Drivers/STM32WBxx_HAL_Driver/Inc/stm32wbxx_ll_pwr.h ****   MODIFY_REG(PWR->CR1, PWR_CR1_FPDR, FlashLowPowerMode);
 574:Drivers/STM32WBxx_HAL_Driver/Inc/stm32wbxx_ll_pwr.h **** }
 575:Drivers/STM32WBxx_HAL_Driver/Inc/stm32wbxx_ll_pwr.h **** 
 576:Drivers/STM32WBxx_HAL_Driver/Inc/stm32wbxx_ll_pwr.h **** /**
 577:Drivers/STM32WBxx_HAL_Driver/Inc/stm32wbxx_ll_pwr.h ****   * @brief  Get flash power-down mode during low-power run mode
 578:Drivers/STM32WBxx_HAL_Driver/Inc/stm32wbxx_ll_pwr.h ****   * @rmtoll CR1          FPDR          LL_PWR_GetFlashPowerModeLPRun
 579:Drivers/STM32WBxx_HAL_Driver/Inc/stm32wbxx_ll_pwr.h ****   * @retval Returned value can be one of the following values:
 580:Drivers/STM32WBxx_HAL_Driver/Inc/stm32wbxx_ll_pwr.h ****   *         @arg @ref LL_PWR_FLASH_LPRUN_MODE_IDLE
ARM GAS  C:\Users\Nathan\AppData\Local\Temp\ccvsgOlc.s 			page 44


 581:Drivers/STM32WBxx_HAL_Driver/Inc/stm32wbxx_ll_pwr.h ****   *         @arg @ref LL_PWR_FLASH_LPRUN_MODE_POWER_DOWN
 582:Drivers/STM32WBxx_HAL_Driver/Inc/stm32wbxx_ll_pwr.h ****   */
 583:Drivers/STM32WBxx_HAL_Driver/Inc/stm32wbxx_ll_pwr.h **** __STATIC_INLINE uint32_t LL_PWR_GetFlashPowerModeLPRun(void)
 584:Drivers/STM32WBxx_HAL_Driver/Inc/stm32wbxx_ll_pwr.h **** {
 585:Drivers/STM32WBxx_HAL_Driver/Inc/stm32wbxx_ll_pwr.h ****   return (uint32_t)(READ_BIT(PWR->CR1, PWR_CR1_FPDR));
 586:Drivers/STM32WBxx_HAL_Driver/Inc/stm32wbxx_ll_pwr.h **** }
 587:Drivers/STM32WBxx_HAL_Driver/Inc/stm32wbxx_ll_pwr.h **** 
 588:Drivers/STM32WBxx_HAL_Driver/Inc/stm32wbxx_ll_pwr.h **** /**
 589:Drivers/STM32WBxx_HAL_Driver/Inc/stm32wbxx_ll_pwr.h ****   * @brief  Set flash power-down mode during sleep mode
 590:Drivers/STM32WBxx_HAL_Driver/Inc/stm32wbxx_ll_pwr.h ****   * @rmtoll CR1          FPDS          LL_PWR_SetFlashPowerModeSleep
 591:Drivers/STM32WBxx_HAL_Driver/Inc/stm32wbxx_ll_pwr.h ****   * @param  FlashLowPowerMode This parameter can be one of the following values:
 592:Drivers/STM32WBxx_HAL_Driver/Inc/stm32wbxx_ll_pwr.h ****   *         @arg @ref LL_PWR_FLASH_SLEEP_MODE_IDLE
 593:Drivers/STM32WBxx_HAL_Driver/Inc/stm32wbxx_ll_pwr.h ****   *         @arg @ref LL_PWR_FLASH_SLEEP_MODE_POWER_DOWN
 594:Drivers/STM32WBxx_HAL_Driver/Inc/stm32wbxx_ll_pwr.h ****   * @retval None
 595:Drivers/STM32WBxx_HAL_Driver/Inc/stm32wbxx_ll_pwr.h ****   */
 596:Drivers/STM32WBxx_HAL_Driver/Inc/stm32wbxx_ll_pwr.h **** __STATIC_INLINE void LL_PWR_SetFlashPowerModeSleep(uint32_t FlashLowPowerMode)
 597:Drivers/STM32WBxx_HAL_Driver/Inc/stm32wbxx_ll_pwr.h **** {
 598:Drivers/STM32WBxx_HAL_Driver/Inc/stm32wbxx_ll_pwr.h ****   MODIFY_REG(PWR->CR1, PWR_CR1_FPDS, FlashLowPowerMode);
 599:Drivers/STM32WBxx_HAL_Driver/Inc/stm32wbxx_ll_pwr.h **** }
 600:Drivers/STM32WBxx_HAL_Driver/Inc/stm32wbxx_ll_pwr.h **** 
 601:Drivers/STM32WBxx_HAL_Driver/Inc/stm32wbxx_ll_pwr.h **** /**
 602:Drivers/STM32WBxx_HAL_Driver/Inc/stm32wbxx_ll_pwr.h ****   * @brief  Get flash power-down mode during sleep mode
 603:Drivers/STM32WBxx_HAL_Driver/Inc/stm32wbxx_ll_pwr.h ****   * @rmtoll CR1          FPDS          LL_PWR_GetFlashPowerModeSleep
 604:Drivers/STM32WBxx_HAL_Driver/Inc/stm32wbxx_ll_pwr.h ****   * @retval Returned value can be one of the following values:
 605:Drivers/STM32WBxx_HAL_Driver/Inc/stm32wbxx_ll_pwr.h ****   *         @arg @ref LL_PWR_FLASH_SLEEP_MODE_IDLE
 606:Drivers/STM32WBxx_HAL_Driver/Inc/stm32wbxx_ll_pwr.h ****   *         @arg @ref LL_PWR_FLASH_SLEEP_MODE_POWER_DOWN
 607:Drivers/STM32WBxx_HAL_Driver/Inc/stm32wbxx_ll_pwr.h ****   */
 608:Drivers/STM32WBxx_HAL_Driver/Inc/stm32wbxx_ll_pwr.h **** __STATIC_INLINE uint32_t LL_PWR_GetFlashPowerModeSleep(void)
 609:Drivers/STM32WBxx_HAL_Driver/Inc/stm32wbxx_ll_pwr.h **** {
 610:Drivers/STM32WBxx_HAL_Driver/Inc/stm32wbxx_ll_pwr.h ****   return (uint32_t)(READ_BIT(PWR->CR1, PWR_CR1_FPDS));
 611:Drivers/STM32WBxx_HAL_Driver/Inc/stm32wbxx_ll_pwr.h **** }
 612:Drivers/STM32WBxx_HAL_Driver/Inc/stm32wbxx_ll_pwr.h **** 
 613:Drivers/STM32WBxx_HAL_Driver/Inc/stm32wbxx_ll_pwr.h **** #if defined(PWR_CR2_PVME1)
 614:Drivers/STM32WBxx_HAL_Driver/Inc/stm32wbxx_ll_pwr.h **** /**
 615:Drivers/STM32WBxx_HAL_Driver/Inc/stm32wbxx_ll_pwr.h ****   * @brief  Enable VDDUSB supply
 616:Drivers/STM32WBxx_HAL_Driver/Inc/stm32wbxx_ll_pwr.h ****   * @rmtoll CR2          USV           LL_PWR_EnableVddUSB
 617:Drivers/STM32WBxx_HAL_Driver/Inc/stm32wbxx_ll_pwr.h ****   * @retval None
 618:Drivers/STM32WBxx_HAL_Driver/Inc/stm32wbxx_ll_pwr.h ****   */
 619:Drivers/STM32WBxx_HAL_Driver/Inc/stm32wbxx_ll_pwr.h **** __STATIC_INLINE void LL_PWR_EnableVddUSB(void)
 620:Drivers/STM32WBxx_HAL_Driver/Inc/stm32wbxx_ll_pwr.h **** {
 621:Drivers/STM32WBxx_HAL_Driver/Inc/stm32wbxx_ll_pwr.h ****   SET_BIT(PWR->CR2, PWR_CR2_USV);
 622:Drivers/STM32WBxx_HAL_Driver/Inc/stm32wbxx_ll_pwr.h **** }
 623:Drivers/STM32WBxx_HAL_Driver/Inc/stm32wbxx_ll_pwr.h **** 
 624:Drivers/STM32WBxx_HAL_Driver/Inc/stm32wbxx_ll_pwr.h **** /**
 625:Drivers/STM32WBxx_HAL_Driver/Inc/stm32wbxx_ll_pwr.h ****   * @brief  Disable VDDUSB supply
 626:Drivers/STM32WBxx_HAL_Driver/Inc/stm32wbxx_ll_pwr.h ****   * @rmtoll CR2          USV           LL_PWR_DisableVddUSB
 627:Drivers/STM32WBxx_HAL_Driver/Inc/stm32wbxx_ll_pwr.h ****   * @retval None
 628:Drivers/STM32WBxx_HAL_Driver/Inc/stm32wbxx_ll_pwr.h ****   */
 629:Drivers/STM32WBxx_HAL_Driver/Inc/stm32wbxx_ll_pwr.h **** __STATIC_INLINE void LL_PWR_DisableVddUSB(void)
 630:Drivers/STM32WBxx_HAL_Driver/Inc/stm32wbxx_ll_pwr.h **** {
 631:Drivers/STM32WBxx_HAL_Driver/Inc/stm32wbxx_ll_pwr.h ****   CLEAR_BIT(PWR->CR2, PWR_CR2_USV);
 632:Drivers/STM32WBxx_HAL_Driver/Inc/stm32wbxx_ll_pwr.h **** }
 633:Drivers/STM32WBxx_HAL_Driver/Inc/stm32wbxx_ll_pwr.h **** 
 634:Drivers/STM32WBxx_HAL_Driver/Inc/stm32wbxx_ll_pwr.h **** /**
 635:Drivers/STM32WBxx_HAL_Driver/Inc/stm32wbxx_ll_pwr.h ****   * @brief  Check if VDDUSB supply is enabled
 636:Drivers/STM32WBxx_HAL_Driver/Inc/stm32wbxx_ll_pwr.h ****   * @rmtoll CR2          USV           LL_PWR_IsEnabledVddUSB
 637:Drivers/STM32WBxx_HAL_Driver/Inc/stm32wbxx_ll_pwr.h ****   * @retval State of bit (1 or 0).
ARM GAS  C:\Users\Nathan\AppData\Local\Temp\ccvsgOlc.s 			page 45


 638:Drivers/STM32WBxx_HAL_Driver/Inc/stm32wbxx_ll_pwr.h ****   */
 639:Drivers/STM32WBxx_HAL_Driver/Inc/stm32wbxx_ll_pwr.h **** __STATIC_INLINE uint32_t LL_PWR_IsEnabledVddUSB(void)
 640:Drivers/STM32WBxx_HAL_Driver/Inc/stm32wbxx_ll_pwr.h **** {
 641:Drivers/STM32WBxx_HAL_Driver/Inc/stm32wbxx_ll_pwr.h ****   return ((READ_BIT(PWR->CR2, PWR_CR2_USV) == (PWR_CR2_USV)) ? 1UL : 0UL);
 642:Drivers/STM32WBxx_HAL_Driver/Inc/stm32wbxx_ll_pwr.h **** }
 643:Drivers/STM32WBxx_HAL_Driver/Inc/stm32wbxx_ll_pwr.h **** #endif
 644:Drivers/STM32WBxx_HAL_Driver/Inc/stm32wbxx_ll_pwr.h **** 
 645:Drivers/STM32WBxx_HAL_Driver/Inc/stm32wbxx_ll_pwr.h **** /**
 646:Drivers/STM32WBxx_HAL_Driver/Inc/stm32wbxx_ll_pwr.h ****   * @brief  Enable the Power Voltage Monitoring on a peripheral
 647:Drivers/STM32WBxx_HAL_Driver/Inc/stm32wbxx_ll_pwr.h ****   * @rmtoll CR2          PVME1         LL_PWR_EnablePVM\n
 648:Drivers/STM32WBxx_HAL_Driver/Inc/stm32wbxx_ll_pwr.h ****   *         CR2          PVME3         LL_PWR_EnablePVM
 649:Drivers/STM32WBxx_HAL_Driver/Inc/stm32wbxx_ll_pwr.h ****   * @param  PeriphVoltage This parameter can be one of the following values:
 650:Drivers/STM32WBxx_HAL_Driver/Inc/stm32wbxx_ll_pwr.h ****   *         @arg @ref LL_PWR_PVM_VDDUSB_1_2V (*)
 651:Drivers/STM32WBxx_HAL_Driver/Inc/stm32wbxx_ll_pwr.h ****   *         @arg @ref LL_PWR_PVM_VDDA_1_62V
 652:Drivers/STM32WBxx_HAL_Driver/Inc/stm32wbxx_ll_pwr.h ****   *
 653:Drivers/STM32WBxx_HAL_Driver/Inc/stm32wbxx_ll_pwr.h ****   *         (*) Not available on devices STM32WB50xx, STM32WB30xx, STM32WB15xx, STM32WB10xx, STM32W
 654:Drivers/STM32WBxx_HAL_Driver/Inc/stm32wbxx_ll_pwr.h ****   * @retval None
 655:Drivers/STM32WBxx_HAL_Driver/Inc/stm32wbxx_ll_pwr.h ****   */
 656:Drivers/STM32WBxx_HAL_Driver/Inc/stm32wbxx_ll_pwr.h **** __STATIC_INLINE void LL_PWR_EnablePVM(uint32_t PeriphVoltage)
 657:Drivers/STM32WBxx_HAL_Driver/Inc/stm32wbxx_ll_pwr.h **** {
 658:Drivers/STM32WBxx_HAL_Driver/Inc/stm32wbxx_ll_pwr.h ****   SET_BIT(PWR->CR2, PeriphVoltage);
 659:Drivers/STM32WBxx_HAL_Driver/Inc/stm32wbxx_ll_pwr.h **** }
 660:Drivers/STM32WBxx_HAL_Driver/Inc/stm32wbxx_ll_pwr.h **** 
 661:Drivers/STM32WBxx_HAL_Driver/Inc/stm32wbxx_ll_pwr.h **** /**
 662:Drivers/STM32WBxx_HAL_Driver/Inc/stm32wbxx_ll_pwr.h ****   * @brief  Disable the Power Voltage Monitoring on a peripheral
 663:Drivers/STM32WBxx_HAL_Driver/Inc/stm32wbxx_ll_pwr.h ****   * @rmtoll CR2          PVME1         LL_PWR_DisablePVM\n
 664:Drivers/STM32WBxx_HAL_Driver/Inc/stm32wbxx_ll_pwr.h ****   *         CR2          PVME3         LL_PWR_DisablePVM
 665:Drivers/STM32WBxx_HAL_Driver/Inc/stm32wbxx_ll_pwr.h ****   * @param  PeriphVoltage This parameter can be one of the following values:
 666:Drivers/STM32WBxx_HAL_Driver/Inc/stm32wbxx_ll_pwr.h ****   *         @arg @ref LL_PWR_PVM_VDDUSB_1_2V (*)
 667:Drivers/STM32WBxx_HAL_Driver/Inc/stm32wbxx_ll_pwr.h ****   *         @arg @ref LL_PWR_PVM_VDDA_1_62V
 668:Drivers/STM32WBxx_HAL_Driver/Inc/stm32wbxx_ll_pwr.h ****   *
 669:Drivers/STM32WBxx_HAL_Driver/Inc/stm32wbxx_ll_pwr.h ****   *         (*) Not available on devices STM32WB50xx, STM32WB30xx, STM32WB15xx, STM32WB10xx, STM32W
 670:Drivers/STM32WBxx_HAL_Driver/Inc/stm32wbxx_ll_pwr.h ****   * @retval None
 671:Drivers/STM32WBxx_HAL_Driver/Inc/stm32wbxx_ll_pwr.h ****   */
 672:Drivers/STM32WBxx_HAL_Driver/Inc/stm32wbxx_ll_pwr.h **** __STATIC_INLINE void LL_PWR_DisablePVM(uint32_t PeriphVoltage)
 673:Drivers/STM32WBxx_HAL_Driver/Inc/stm32wbxx_ll_pwr.h **** {
 674:Drivers/STM32WBxx_HAL_Driver/Inc/stm32wbxx_ll_pwr.h ****   CLEAR_BIT(PWR->CR2, PeriphVoltage);
 675:Drivers/STM32WBxx_HAL_Driver/Inc/stm32wbxx_ll_pwr.h **** }
 676:Drivers/STM32WBxx_HAL_Driver/Inc/stm32wbxx_ll_pwr.h **** 
 677:Drivers/STM32WBxx_HAL_Driver/Inc/stm32wbxx_ll_pwr.h **** /**
 678:Drivers/STM32WBxx_HAL_Driver/Inc/stm32wbxx_ll_pwr.h ****   * @brief  Check if Power Voltage Monitoring is enabled on a peripheral
 679:Drivers/STM32WBxx_HAL_Driver/Inc/stm32wbxx_ll_pwr.h ****   * @rmtoll CR2          PVME1         LL_PWR_IsEnabledPVM\n
 680:Drivers/STM32WBxx_HAL_Driver/Inc/stm32wbxx_ll_pwr.h ****   *         CR2          PVME3         LL_PWR_IsEnabledPVM
 681:Drivers/STM32WBxx_HAL_Driver/Inc/stm32wbxx_ll_pwr.h ****   * @param  PeriphVoltage This parameter can be one of the following values:
 682:Drivers/STM32WBxx_HAL_Driver/Inc/stm32wbxx_ll_pwr.h ****   *         @arg @ref LL_PWR_PVM_VDDUSB_1_2V (*)
 683:Drivers/STM32WBxx_HAL_Driver/Inc/stm32wbxx_ll_pwr.h ****   *         @arg @ref LL_PWR_PVM_VDDA_1_62V
 684:Drivers/STM32WBxx_HAL_Driver/Inc/stm32wbxx_ll_pwr.h ****   *
 685:Drivers/STM32WBxx_HAL_Driver/Inc/stm32wbxx_ll_pwr.h ****   *         (*) Not available on devices STM32WB50xx, STM32WB30xx, STM32WB15xx, STM32WB10xx, STM32W
 686:Drivers/STM32WBxx_HAL_Driver/Inc/stm32wbxx_ll_pwr.h ****   * @retval State of bit (1 or 0).
 687:Drivers/STM32WBxx_HAL_Driver/Inc/stm32wbxx_ll_pwr.h ****   */
 688:Drivers/STM32WBxx_HAL_Driver/Inc/stm32wbxx_ll_pwr.h **** __STATIC_INLINE uint32_t LL_PWR_IsEnabledPVM(uint32_t PeriphVoltage)
 689:Drivers/STM32WBxx_HAL_Driver/Inc/stm32wbxx_ll_pwr.h **** {
 690:Drivers/STM32WBxx_HAL_Driver/Inc/stm32wbxx_ll_pwr.h ****   return ((READ_BIT(PWR->CR2, PeriphVoltage) == (PeriphVoltage)) ? 1UL : 0UL);
 691:Drivers/STM32WBxx_HAL_Driver/Inc/stm32wbxx_ll_pwr.h **** }
 692:Drivers/STM32WBxx_HAL_Driver/Inc/stm32wbxx_ll_pwr.h **** 
 693:Drivers/STM32WBxx_HAL_Driver/Inc/stm32wbxx_ll_pwr.h **** /**
 694:Drivers/STM32WBxx_HAL_Driver/Inc/stm32wbxx_ll_pwr.h ****   * @brief  Configure the voltage threshold detected by the Power Voltage Detector
ARM GAS  C:\Users\Nathan\AppData\Local\Temp\ccvsgOlc.s 			page 46


 695:Drivers/STM32WBxx_HAL_Driver/Inc/stm32wbxx_ll_pwr.h ****   * @rmtoll CR2          PLS           LL_PWR_SetPVDLevel
 696:Drivers/STM32WBxx_HAL_Driver/Inc/stm32wbxx_ll_pwr.h ****   * @param  PVDLevel This parameter can be one of the following values:
 697:Drivers/STM32WBxx_HAL_Driver/Inc/stm32wbxx_ll_pwr.h ****   *         @arg @ref LL_PWR_PVDLEVEL_0
 698:Drivers/STM32WBxx_HAL_Driver/Inc/stm32wbxx_ll_pwr.h ****   *         @arg @ref LL_PWR_PVDLEVEL_1
 699:Drivers/STM32WBxx_HAL_Driver/Inc/stm32wbxx_ll_pwr.h ****   *         @arg @ref LL_PWR_PVDLEVEL_2
 700:Drivers/STM32WBxx_HAL_Driver/Inc/stm32wbxx_ll_pwr.h ****   *         @arg @ref LL_PWR_PVDLEVEL_3
 701:Drivers/STM32WBxx_HAL_Driver/Inc/stm32wbxx_ll_pwr.h ****   *         @arg @ref LL_PWR_PVDLEVEL_4
 702:Drivers/STM32WBxx_HAL_Driver/Inc/stm32wbxx_ll_pwr.h ****   *         @arg @ref LL_PWR_PVDLEVEL_5
 703:Drivers/STM32WBxx_HAL_Driver/Inc/stm32wbxx_ll_pwr.h ****   *         @arg @ref LL_PWR_PVDLEVEL_6
 704:Drivers/STM32WBxx_HAL_Driver/Inc/stm32wbxx_ll_pwr.h ****   *         @arg @ref LL_PWR_PVDLEVEL_7
 705:Drivers/STM32WBxx_HAL_Driver/Inc/stm32wbxx_ll_pwr.h ****   * @retval None
 706:Drivers/STM32WBxx_HAL_Driver/Inc/stm32wbxx_ll_pwr.h ****   */
 707:Drivers/STM32WBxx_HAL_Driver/Inc/stm32wbxx_ll_pwr.h **** __STATIC_INLINE void LL_PWR_SetPVDLevel(uint32_t PVDLevel)
 708:Drivers/STM32WBxx_HAL_Driver/Inc/stm32wbxx_ll_pwr.h **** {
 709:Drivers/STM32WBxx_HAL_Driver/Inc/stm32wbxx_ll_pwr.h ****   MODIFY_REG(PWR->CR2, PWR_CR2_PLS, PVDLevel);
 710:Drivers/STM32WBxx_HAL_Driver/Inc/stm32wbxx_ll_pwr.h **** }
 711:Drivers/STM32WBxx_HAL_Driver/Inc/stm32wbxx_ll_pwr.h **** 
 712:Drivers/STM32WBxx_HAL_Driver/Inc/stm32wbxx_ll_pwr.h **** /**
 713:Drivers/STM32WBxx_HAL_Driver/Inc/stm32wbxx_ll_pwr.h ****   * @brief  Get the voltage threshold detection
 714:Drivers/STM32WBxx_HAL_Driver/Inc/stm32wbxx_ll_pwr.h ****   * @rmtoll CR2          PLS           LL_PWR_GetPVDLevel
 715:Drivers/STM32WBxx_HAL_Driver/Inc/stm32wbxx_ll_pwr.h ****   * @retval Returned value can be one of the following values:
 716:Drivers/STM32WBxx_HAL_Driver/Inc/stm32wbxx_ll_pwr.h ****   *         @arg @ref LL_PWR_PVDLEVEL_0
 717:Drivers/STM32WBxx_HAL_Driver/Inc/stm32wbxx_ll_pwr.h ****   *         @arg @ref LL_PWR_PVDLEVEL_1
 718:Drivers/STM32WBxx_HAL_Driver/Inc/stm32wbxx_ll_pwr.h ****   *         @arg @ref LL_PWR_PVDLEVEL_2
 719:Drivers/STM32WBxx_HAL_Driver/Inc/stm32wbxx_ll_pwr.h ****   *         @arg @ref LL_PWR_PVDLEVEL_3
 720:Drivers/STM32WBxx_HAL_Driver/Inc/stm32wbxx_ll_pwr.h ****   *         @arg @ref LL_PWR_PVDLEVEL_4
 721:Drivers/STM32WBxx_HAL_Driver/Inc/stm32wbxx_ll_pwr.h ****   *         @arg @ref LL_PWR_PVDLEVEL_5
 722:Drivers/STM32WBxx_HAL_Driver/Inc/stm32wbxx_ll_pwr.h ****   *         @arg @ref LL_PWR_PVDLEVEL_6
 723:Drivers/STM32WBxx_HAL_Driver/Inc/stm32wbxx_ll_pwr.h ****   *         @arg @ref LL_PWR_PVDLEVEL_7
 724:Drivers/STM32WBxx_HAL_Driver/Inc/stm32wbxx_ll_pwr.h ****   */
 725:Drivers/STM32WBxx_HAL_Driver/Inc/stm32wbxx_ll_pwr.h **** __STATIC_INLINE uint32_t LL_PWR_GetPVDLevel(void)
 726:Drivers/STM32WBxx_HAL_Driver/Inc/stm32wbxx_ll_pwr.h **** {
 727:Drivers/STM32WBxx_HAL_Driver/Inc/stm32wbxx_ll_pwr.h ****   return (uint32_t)(READ_BIT(PWR->CR2, PWR_CR2_PLS));
 728:Drivers/STM32WBxx_HAL_Driver/Inc/stm32wbxx_ll_pwr.h **** }
 729:Drivers/STM32WBxx_HAL_Driver/Inc/stm32wbxx_ll_pwr.h **** 
 730:Drivers/STM32WBxx_HAL_Driver/Inc/stm32wbxx_ll_pwr.h **** /**
 731:Drivers/STM32WBxx_HAL_Driver/Inc/stm32wbxx_ll_pwr.h ****   * @brief  Enable Power Voltage Detector
 732:Drivers/STM32WBxx_HAL_Driver/Inc/stm32wbxx_ll_pwr.h ****   * @rmtoll CR2          PVDE          LL_PWR_EnablePVD
 733:Drivers/STM32WBxx_HAL_Driver/Inc/stm32wbxx_ll_pwr.h ****   * @retval None
 734:Drivers/STM32WBxx_HAL_Driver/Inc/stm32wbxx_ll_pwr.h ****   */
 735:Drivers/STM32WBxx_HAL_Driver/Inc/stm32wbxx_ll_pwr.h **** __STATIC_INLINE void LL_PWR_EnablePVD(void)
 736:Drivers/STM32WBxx_HAL_Driver/Inc/stm32wbxx_ll_pwr.h **** {
 737:Drivers/STM32WBxx_HAL_Driver/Inc/stm32wbxx_ll_pwr.h ****   SET_BIT(PWR->CR2, PWR_CR2_PVDE);
 738:Drivers/STM32WBxx_HAL_Driver/Inc/stm32wbxx_ll_pwr.h **** }
 739:Drivers/STM32WBxx_HAL_Driver/Inc/stm32wbxx_ll_pwr.h **** 
 740:Drivers/STM32WBxx_HAL_Driver/Inc/stm32wbxx_ll_pwr.h **** /**
 741:Drivers/STM32WBxx_HAL_Driver/Inc/stm32wbxx_ll_pwr.h ****   * @brief  Disable Power Voltage Detector
 742:Drivers/STM32WBxx_HAL_Driver/Inc/stm32wbxx_ll_pwr.h ****   * @rmtoll CR2          PVDE          LL_PWR_DisablePVD
 743:Drivers/STM32WBxx_HAL_Driver/Inc/stm32wbxx_ll_pwr.h ****   * @retval None
 744:Drivers/STM32WBxx_HAL_Driver/Inc/stm32wbxx_ll_pwr.h ****   */
 745:Drivers/STM32WBxx_HAL_Driver/Inc/stm32wbxx_ll_pwr.h **** __STATIC_INLINE void LL_PWR_DisablePVD(void)
 746:Drivers/STM32WBxx_HAL_Driver/Inc/stm32wbxx_ll_pwr.h **** {
 747:Drivers/STM32WBxx_HAL_Driver/Inc/stm32wbxx_ll_pwr.h ****   CLEAR_BIT(PWR->CR2, PWR_CR2_PVDE);
 748:Drivers/STM32WBxx_HAL_Driver/Inc/stm32wbxx_ll_pwr.h **** }
 749:Drivers/STM32WBxx_HAL_Driver/Inc/stm32wbxx_ll_pwr.h **** 
 750:Drivers/STM32WBxx_HAL_Driver/Inc/stm32wbxx_ll_pwr.h **** /**
 751:Drivers/STM32WBxx_HAL_Driver/Inc/stm32wbxx_ll_pwr.h ****   * @brief  Check if Power Voltage Detector is enabled
ARM GAS  C:\Users\Nathan\AppData\Local\Temp\ccvsgOlc.s 			page 47


 752:Drivers/STM32WBxx_HAL_Driver/Inc/stm32wbxx_ll_pwr.h ****   * @rmtoll CR2          PVDE          LL_PWR_IsEnabledPVD
 753:Drivers/STM32WBxx_HAL_Driver/Inc/stm32wbxx_ll_pwr.h ****   * @retval State of bit (1 or 0).
 754:Drivers/STM32WBxx_HAL_Driver/Inc/stm32wbxx_ll_pwr.h ****   */
 755:Drivers/STM32WBxx_HAL_Driver/Inc/stm32wbxx_ll_pwr.h **** __STATIC_INLINE uint32_t LL_PWR_IsEnabledPVD(void)
 756:Drivers/STM32WBxx_HAL_Driver/Inc/stm32wbxx_ll_pwr.h **** {
 757:Drivers/STM32WBxx_HAL_Driver/Inc/stm32wbxx_ll_pwr.h ****   return ((READ_BIT(PWR->CR2, PWR_CR2_PVDE) == (PWR_CR2_PVDE)) ? 1UL : 0UL);
 758:Drivers/STM32WBxx_HAL_Driver/Inc/stm32wbxx_ll_pwr.h **** }
 759:Drivers/STM32WBxx_HAL_Driver/Inc/stm32wbxx_ll_pwr.h **** 
 760:Drivers/STM32WBxx_HAL_Driver/Inc/stm32wbxx_ll_pwr.h **** /**
 761:Drivers/STM32WBxx_HAL_Driver/Inc/stm32wbxx_ll_pwr.h ****   * @brief  Enable Internal Wake-up line
 762:Drivers/STM32WBxx_HAL_Driver/Inc/stm32wbxx_ll_pwr.h ****   * @rmtoll CR3          EIWF          LL_PWR_EnableInternWU
 763:Drivers/STM32WBxx_HAL_Driver/Inc/stm32wbxx_ll_pwr.h ****   * @retval None
 764:Drivers/STM32WBxx_HAL_Driver/Inc/stm32wbxx_ll_pwr.h ****   */
 765:Drivers/STM32WBxx_HAL_Driver/Inc/stm32wbxx_ll_pwr.h **** __STATIC_INLINE void LL_PWR_EnableInternWU(void)
 766:Drivers/STM32WBxx_HAL_Driver/Inc/stm32wbxx_ll_pwr.h **** {
 767:Drivers/STM32WBxx_HAL_Driver/Inc/stm32wbxx_ll_pwr.h ****   SET_BIT(PWR->CR3, PWR_CR3_EIWUL);
 768:Drivers/STM32WBxx_HAL_Driver/Inc/stm32wbxx_ll_pwr.h **** }
 769:Drivers/STM32WBxx_HAL_Driver/Inc/stm32wbxx_ll_pwr.h **** 
 770:Drivers/STM32WBxx_HAL_Driver/Inc/stm32wbxx_ll_pwr.h **** /**
 771:Drivers/STM32WBxx_HAL_Driver/Inc/stm32wbxx_ll_pwr.h ****   * @brief  Disable Internal Wake-up line
 772:Drivers/STM32WBxx_HAL_Driver/Inc/stm32wbxx_ll_pwr.h ****   * @rmtoll CR3          EIWF          LL_PWR_DisableInternWU
 773:Drivers/STM32WBxx_HAL_Driver/Inc/stm32wbxx_ll_pwr.h ****   * @retval None
 774:Drivers/STM32WBxx_HAL_Driver/Inc/stm32wbxx_ll_pwr.h ****   */
 775:Drivers/STM32WBxx_HAL_Driver/Inc/stm32wbxx_ll_pwr.h **** __STATIC_INLINE void LL_PWR_DisableInternWU(void)
 776:Drivers/STM32WBxx_HAL_Driver/Inc/stm32wbxx_ll_pwr.h **** {
 777:Drivers/STM32WBxx_HAL_Driver/Inc/stm32wbxx_ll_pwr.h ****   CLEAR_BIT(PWR->CR3, PWR_CR3_EIWUL);
 778:Drivers/STM32WBxx_HAL_Driver/Inc/stm32wbxx_ll_pwr.h **** }
 779:Drivers/STM32WBxx_HAL_Driver/Inc/stm32wbxx_ll_pwr.h **** 
 780:Drivers/STM32WBxx_HAL_Driver/Inc/stm32wbxx_ll_pwr.h **** /**
 781:Drivers/STM32WBxx_HAL_Driver/Inc/stm32wbxx_ll_pwr.h ****   * @brief  Check if Internal Wake-up line is enabled
 782:Drivers/STM32WBxx_HAL_Driver/Inc/stm32wbxx_ll_pwr.h ****   * @rmtoll CR3          EIWF          LL_PWR_IsEnabledInternWU
 783:Drivers/STM32WBxx_HAL_Driver/Inc/stm32wbxx_ll_pwr.h ****   * @retval State of bit (1 or 0).
 784:Drivers/STM32WBxx_HAL_Driver/Inc/stm32wbxx_ll_pwr.h ****   */
 785:Drivers/STM32WBxx_HAL_Driver/Inc/stm32wbxx_ll_pwr.h **** __STATIC_INLINE uint32_t LL_PWR_IsEnabledInternWU(void)
 786:Drivers/STM32WBxx_HAL_Driver/Inc/stm32wbxx_ll_pwr.h **** {
 787:Drivers/STM32WBxx_HAL_Driver/Inc/stm32wbxx_ll_pwr.h ****   return ((READ_BIT(PWR->CR3, PWR_CR3_EIWUL) == (PWR_CR3_EIWUL)) ? 1UL : 0UL);
 788:Drivers/STM32WBxx_HAL_Driver/Inc/stm32wbxx_ll_pwr.h **** }
 789:Drivers/STM32WBxx_HAL_Driver/Inc/stm32wbxx_ll_pwr.h **** 
 790:Drivers/STM32WBxx_HAL_Driver/Inc/stm32wbxx_ll_pwr.h **** /**
 791:Drivers/STM32WBxx_HAL_Driver/Inc/stm32wbxx_ll_pwr.h ****   * @brief  Enable pull-up and pull-down configuration
 792:Drivers/STM32WBxx_HAL_Driver/Inc/stm32wbxx_ll_pwr.h ****   * @rmtoll CR3          APC           LL_PWR_EnablePUPDCfg
 793:Drivers/STM32WBxx_HAL_Driver/Inc/stm32wbxx_ll_pwr.h ****   * @retval None
 794:Drivers/STM32WBxx_HAL_Driver/Inc/stm32wbxx_ll_pwr.h ****   */
 795:Drivers/STM32WBxx_HAL_Driver/Inc/stm32wbxx_ll_pwr.h **** __STATIC_INLINE void LL_PWR_EnablePUPDCfg(void)
 796:Drivers/STM32WBxx_HAL_Driver/Inc/stm32wbxx_ll_pwr.h **** {
 797:Drivers/STM32WBxx_HAL_Driver/Inc/stm32wbxx_ll_pwr.h ****   SET_BIT(PWR->CR3, PWR_CR3_APC);
 798:Drivers/STM32WBxx_HAL_Driver/Inc/stm32wbxx_ll_pwr.h **** }
 799:Drivers/STM32WBxx_HAL_Driver/Inc/stm32wbxx_ll_pwr.h **** 
 800:Drivers/STM32WBxx_HAL_Driver/Inc/stm32wbxx_ll_pwr.h **** /**
 801:Drivers/STM32WBxx_HAL_Driver/Inc/stm32wbxx_ll_pwr.h ****   * @brief  Disable pull-up and pull-down configuration
 802:Drivers/STM32WBxx_HAL_Driver/Inc/stm32wbxx_ll_pwr.h ****   * @rmtoll CR3          APC           LL_PWR_DisablePUPDCfg
 803:Drivers/STM32WBxx_HAL_Driver/Inc/stm32wbxx_ll_pwr.h ****   * @retval None
 804:Drivers/STM32WBxx_HAL_Driver/Inc/stm32wbxx_ll_pwr.h ****   */
 805:Drivers/STM32WBxx_HAL_Driver/Inc/stm32wbxx_ll_pwr.h **** __STATIC_INLINE void LL_PWR_DisablePUPDCfg(void)
 806:Drivers/STM32WBxx_HAL_Driver/Inc/stm32wbxx_ll_pwr.h **** {
 807:Drivers/STM32WBxx_HAL_Driver/Inc/stm32wbxx_ll_pwr.h ****   CLEAR_BIT(PWR->CR3, PWR_CR3_APC);
 808:Drivers/STM32WBxx_HAL_Driver/Inc/stm32wbxx_ll_pwr.h **** }
ARM GAS  C:\Users\Nathan\AppData\Local\Temp\ccvsgOlc.s 			page 48


 809:Drivers/STM32WBxx_HAL_Driver/Inc/stm32wbxx_ll_pwr.h **** 
 810:Drivers/STM32WBxx_HAL_Driver/Inc/stm32wbxx_ll_pwr.h **** /**
 811:Drivers/STM32WBxx_HAL_Driver/Inc/stm32wbxx_ll_pwr.h ****   * @brief  Check if pull-up and pull-down configuration is enabled
 812:Drivers/STM32WBxx_HAL_Driver/Inc/stm32wbxx_ll_pwr.h ****   * @rmtoll CR3          APC           LL_PWR_IsEnabledPUPDCfg
 813:Drivers/STM32WBxx_HAL_Driver/Inc/stm32wbxx_ll_pwr.h ****   * @retval State of bit (1 or 0).
 814:Drivers/STM32WBxx_HAL_Driver/Inc/stm32wbxx_ll_pwr.h ****   */
 815:Drivers/STM32WBxx_HAL_Driver/Inc/stm32wbxx_ll_pwr.h **** __STATIC_INLINE uint32_t LL_PWR_IsEnabledPUPDCfg(void)
 816:Drivers/STM32WBxx_HAL_Driver/Inc/stm32wbxx_ll_pwr.h **** {
 817:Drivers/STM32WBxx_HAL_Driver/Inc/stm32wbxx_ll_pwr.h ****   return ((READ_BIT(PWR->CR3, PWR_CR3_APC) == (PWR_CR3_APC)) ? 1UL : 0UL);
 818:Drivers/STM32WBxx_HAL_Driver/Inc/stm32wbxx_ll_pwr.h **** }
 819:Drivers/STM32WBxx_HAL_Driver/Inc/stm32wbxx_ll_pwr.h **** 
 820:Drivers/STM32WBxx_HAL_Driver/Inc/stm32wbxx_ll_pwr.h **** /**
 821:Drivers/STM32WBxx_HAL_Driver/Inc/stm32wbxx_ll_pwr.h ****   * @brief  Enable SRAM2a content retention in Standby mode
 822:Drivers/STM32WBxx_HAL_Driver/Inc/stm32wbxx_ll_pwr.h ****   * @note   On devices STM32WB15xx, STM32WB10xx, STM32WB1Mxx, retention is extended
 823:Drivers/STM32WBxx_HAL_Driver/Inc/stm32wbxx_ll_pwr.h ****   *         to SRAM1, SRAM2a and SRAM2b.
 824:Drivers/STM32WBxx_HAL_Driver/Inc/stm32wbxx_ll_pwr.h ****   * @rmtoll CR3          RRS           LL_PWR_EnableSRAM2Retention
 825:Drivers/STM32WBxx_HAL_Driver/Inc/stm32wbxx_ll_pwr.h ****   * @retval None
 826:Drivers/STM32WBxx_HAL_Driver/Inc/stm32wbxx_ll_pwr.h ****   */
 827:Drivers/STM32WBxx_HAL_Driver/Inc/stm32wbxx_ll_pwr.h **** __STATIC_INLINE void LL_PWR_EnableSRAM2Retention(void)
 828:Drivers/STM32WBxx_HAL_Driver/Inc/stm32wbxx_ll_pwr.h **** {
 829:Drivers/STM32WBxx_HAL_Driver/Inc/stm32wbxx_ll_pwr.h ****   SET_BIT(PWR->CR3, PWR_CR3_RRS);
 830:Drivers/STM32WBxx_HAL_Driver/Inc/stm32wbxx_ll_pwr.h **** }
 831:Drivers/STM32WBxx_HAL_Driver/Inc/stm32wbxx_ll_pwr.h **** 
 832:Drivers/STM32WBxx_HAL_Driver/Inc/stm32wbxx_ll_pwr.h **** /**
 833:Drivers/STM32WBxx_HAL_Driver/Inc/stm32wbxx_ll_pwr.h ****   * @brief  Disable SRAM2a content retention in Standby mode
 834:Drivers/STM32WBxx_HAL_Driver/Inc/stm32wbxx_ll_pwr.h ****   * @note   On devices STM32WB15xx, STM32WB10xx, STM32WB1Mxx, retention is extended
 835:Drivers/STM32WBxx_HAL_Driver/Inc/stm32wbxx_ll_pwr.h ****   *         to SRAM1, SRAM2a and SRAM2b.
 836:Drivers/STM32WBxx_HAL_Driver/Inc/stm32wbxx_ll_pwr.h ****   * @rmtoll CR3          RRS           LL_PWR_DisableSRAM2Retention
 837:Drivers/STM32WBxx_HAL_Driver/Inc/stm32wbxx_ll_pwr.h ****   * @retval None
 838:Drivers/STM32WBxx_HAL_Driver/Inc/stm32wbxx_ll_pwr.h ****   */
 839:Drivers/STM32WBxx_HAL_Driver/Inc/stm32wbxx_ll_pwr.h **** __STATIC_INLINE void LL_PWR_DisableSRAM2Retention(void)
 840:Drivers/STM32WBxx_HAL_Driver/Inc/stm32wbxx_ll_pwr.h **** {
 841:Drivers/STM32WBxx_HAL_Driver/Inc/stm32wbxx_ll_pwr.h ****   CLEAR_BIT(PWR->CR3, PWR_CR3_RRS);
 842:Drivers/STM32WBxx_HAL_Driver/Inc/stm32wbxx_ll_pwr.h **** }
 843:Drivers/STM32WBxx_HAL_Driver/Inc/stm32wbxx_ll_pwr.h **** 
 844:Drivers/STM32WBxx_HAL_Driver/Inc/stm32wbxx_ll_pwr.h **** /**
 845:Drivers/STM32WBxx_HAL_Driver/Inc/stm32wbxx_ll_pwr.h ****   * @brief  Check if SRAM2 content retention in Standby mode  is enabled
 846:Drivers/STM32WBxx_HAL_Driver/Inc/stm32wbxx_ll_pwr.h ****   * @note   On devices STM32WB15xx, STM32WB10xx, STM32WB1Mxx, retention is extended
 847:Drivers/STM32WBxx_HAL_Driver/Inc/stm32wbxx_ll_pwr.h ****   *         to SRAM1, SRAM2a and SRAM2b.
 848:Drivers/STM32WBxx_HAL_Driver/Inc/stm32wbxx_ll_pwr.h ****   * @rmtoll CR3          RRS           LL_PWR_IsEnabledSRAM2Retention
 849:Drivers/STM32WBxx_HAL_Driver/Inc/stm32wbxx_ll_pwr.h ****   * @retval State of bit (1 or 0).
 850:Drivers/STM32WBxx_HAL_Driver/Inc/stm32wbxx_ll_pwr.h ****   */
 851:Drivers/STM32WBxx_HAL_Driver/Inc/stm32wbxx_ll_pwr.h **** __STATIC_INLINE uint32_t LL_PWR_IsEnabledSRAM2Retention(void)
 852:Drivers/STM32WBxx_HAL_Driver/Inc/stm32wbxx_ll_pwr.h **** {
 853:Drivers/STM32WBxx_HAL_Driver/Inc/stm32wbxx_ll_pwr.h ****   return ((READ_BIT(PWR->CR3, PWR_CR3_RRS) == (PWR_CR3_RRS)) ? 1UL : 0UL);
 854:Drivers/STM32WBxx_HAL_Driver/Inc/stm32wbxx_ll_pwr.h **** }
 855:Drivers/STM32WBxx_HAL_Driver/Inc/stm32wbxx_ll_pwr.h **** 
 856:Drivers/STM32WBxx_HAL_Driver/Inc/stm32wbxx_ll_pwr.h **** /**
 857:Drivers/STM32WBxx_HAL_Driver/Inc/stm32wbxx_ll_pwr.h ****   * @brief  Enable the WakeUp PINx functionality
 858:Drivers/STM32WBxx_HAL_Driver/Inc/stm32wbxx_ll_pwr.h ****   * @rmtoll CR3          EWUP1         LL_PWR_EnableWakeUpPin\n
 859:Drivers/STM32WBxx_HAL_Driver/Inc/stm32wbxx_ll_pwr.h ****   *         CR3          EWUP2         LL_PWR_EnableWakeUpPin\n
 860:Drivers/STM32WBxx_HAL_Driver/Inc/stm32wbxx_ll_pwr.h ****   *         CR3          EWUP3         LL_PWR_EnableWakeUpPin\n
 861:Drivers/STM32WBxx_HAL_Driver/Inc/stm32wbxx_ll_pwr.h ****   *         CR3          EWUP4         LL_PWR_EnableWakeUpPin\n
 862:Drivers/STM32WBxx_HAL_Driver/Inc/stm32wbxx_ll_pwr.h ****   *         CR3          EWUP5         LL_PWR_EnableWakeUpPin\n
 863:Drivers/STM32WBxx_HAL_Driver/Inc/stm32wbxx_ll_pwr.h ****   * @param  WakeUpPin This parameter can be one of the following values:
 864:Drivers/STM32WBxx_HAL_Driver/Inc/stm32wbxx_ll_pwr.h ****   *         @arg @ref LL_PWR_WAKEUP_PIN1
 865:Drivers/STM32WBxx_HAL_Driver/Inc/stm32wbxx_ll_pwr.h ****   *         @arg @ref LL_PWR_WAKEUP_PIN2 (*)
ARM GAS  C:\Users\Nathan\AppData\Local\Temp\ccvsgOlc.s 			page 49


 866:Drivers/STM32WBxx_HAL_Driver/Inc/stm32wbxx_ll_pwr.h ****   *         @arg @ref LL_PWR_WAKEUP_PIN3 (*)
 867:Drivers/STM32WBxx_HAL_Driver/Inc/stm32wbxx_ll_pwr.h ****   *         @arg @ref LL_PWR_WAKEUP_PIN4
 868:Drivers/STM32WBxx_HAL_Driver/Inc/stm32wbxx_ll_pwr.h ****   *         @arg @ref LL_PWR_WAKEUP_PIN5 (*)
 869:Drivers/STM32WBxx_HAL_Driver/Inc/stm32wbxx_ll_pwr.h ****   *
 870:Drivers/STM32WBxx_HAL_Driver/Inc/stm32wbxx_ll_pwr.h ****   *         (*) Not available on devices STM32WB50xx, STM32WB35xx, STM32WB30xx, STM32WB15xx, STM32W
 871:Drivers/STM32WBxx_HAL_Driver/Inc/stm32wbxx_ll_pwr.h ****   * @retval None
 872:Drivers/STM32WBxx_HAL_Driver/Inc/stm32wbxx_ll_pwr.h ****   */
 873:Drivers/STM32WBxx_HAL_Driver/Inc/stm32wbxx_ll_pwr.h **** __STATIC_INLINE void LL_PWR_EnableWakeUpPin(uint32_t WakeUpPin)
 874:Drivers/STM32WBxx_HAL_Driver/Inc/stm32wbxx_ll_pwr.h **** {
 875:Drivers/STM32WBxx_HAL_Driver/Inc/stm32wbxx_ll_pwr.h ****   SET_BIT(PWR->CR3, WakeUpPin);
 876:Drivers/STM32WBxx_HAL_Driver/Inc/stm32wbxx_ll_pwr.h **** }
 877:Drivers/STM32WBxx_HAL_Driver/Inc/stm32wbxx_ll_pwr.h **** 
 878:Drivers/STM32WBxx_HAL_Driver/Inc/stm32wbxx_ll_pwr.h **** /**
 879:Drivers/STM32WBxx_HAL_Driver/Inc/stm32wbxx_ll_pwr.h ****   * @brief  Disable the WakeUp PINx functionality
 880:Drivers/STM32WBxx_HAL_Driver/Inc/stm32wbxx_ll_pwr.h ****   * @rmtoll CR3          EWUP1         LL_PWR_DisableWakeUpPin\n
 881:Drivers/STM32WBxx_HAL_Driver/Inc/stm32wbxx_ll_pwr.h ****   *         CR3          EWUP2         LL_PWR_DisableWakeUpPin\n
 882:Drivers/STM32WBxx_HAL_Driver/Inc/stm32wbxx_ll_pwr.h ****   *         CR3          EWUP3         LL_PWR_DisableWakeUpPin\n
 883:Drivers/STM32WBxx_HAL_Driver/Inc/stm32wbxx_ll_pwr.h ****   *         CR3          EWUP4         LL_PWR_DisableWakeUpPin\n
 884:Drivers/STM32WBxx_HAL_Driver/Inc/stm32wbxx_ll_pwr.h ****   *         CR3          EWUP5         LL_PWR_DisableWakeUpPin\n
 885:Drivers/STM32WBxx_HAL_Driver/Inc/stm32wbxx_ll_pwr.h ****   * @param  WakeUpPin This parameter can be one of the following values:
 886:Drivers/STM32WBxx_HAL_Driver/Inc/stm32wbxx_ll_pwr.h ****   *         @arg @ref LL_PWR_WAKEUP_PIN1
 887:Drivers/STM32WBxx_HAL_Driver/Inc/stm32wbxx_ll_pwr.h ****   *         @arg @ref LL_PWR_WAKEUP_PIN2 (*)
 888:Drivers/STM32WBxx_HAL_Driver/Inc/stm32wbxx_ll_pwr.h ****   *         @arg @ref LL_PWR_WAKEUP_PIN3 (*)
 889:Drivers/STM32WBxx_HAL_Driver/Inc/stm32wbxx_ll_pwr.h ****   *         @arg @ref LL_PWR_WAKEUP_PIN4
 890:Drivers/STM32WBxx_HAL_Driver/Inc/stm32wbxx_ll_pwr.h ****   *         @arg @ref LL_PWR_WAKEUP_PIN5 (*)
 891:Drivers/STM32WBxx_HAL_Driver/Inc/stm32wbxx_ll_pwr.h ****   *
 892:Drivers/STM32WBxx_HAL_Driver/Inc/stm32wbxx_ll_pwr.h ****   *         (*) Not available on devices STM32WB50xx, STM32WB35xx, STM32WB30xx, STM32WB15xx, STM32W
 893:Drivers/STM32WBxx_HAL_Driver/Inc/stm32wbxx_ll_pwr.h ****   * @retval None
 894:Drivers/STM32WBxx_HAL_Driver/Inc/stm32wbxx_ll_pwr.h ****   */
 895:Drivers/STM32WBxx_HAL_Driver/Inc/stm32wbxx_ll_pwr.h **** __STATIC_INLINE void LL_PWR_DisableWakeUpPin(uint32_t WakeUpPin)
 896:Drivers/STM32WBxx_HAL_Driver/Inc/stm32wbxx_ll_pwr.h **** {
 897:Drivers/STM32WBxx_HAL_Driver/Inc/stm32wbxx_ll_pwr.h ****   CLEAR_BIT(PWR->CR3, WakeUpPin);
 898:Drivers/STM32WBxx_HAL_Driver/Inc/stm32wbxx_ll_pwr.h **** }
 899:Drivers/STM32WBxx_HAL_Driver/Inc/stm32wbxx_ll_pwr.h **** 
 900:Drivers/STM32WBxx_HAL_Driver/Inc/stm32wbxx_ll_pwr.h **** /**
 901:Drivers/STM32WBxx_HAL_Driver/Inc/stm32wbxx_ll_pwr.h ****   * @brief  Check if the WakeUp PINx functionality is enabled
 902:Drivers/STM32WBxx_HAL_Driver/Inc/stm32wbxx_ll_pwr.h ****   * @rmtoll CR3          EWUP1         LL_PWR_IsEnabledWakeUpPin\n
 903:Drivers/STM32WBxx_HAL_Driver/Inc/stm32wbxx_ll_pwr.h ****   *         CR3          EWUP2         LL_PWR_IsEnabledWakeUpPin\n
 904:Drivers/STM32WBxx_HAL_Driver/Inc/stm32wbxx_ll_pwr.h ****   *         CR3          EWUP3         LL_PWR_IsEnabledWakeUpPin\n
 905:Drivers/STM32WBxx_HAL_Driver/Inc/stm32wbxx_ll_pwr.h ****   *         CR3          EWUP4         LL_PWR_IsEnabledWakeUpPin\n
 906:Drivers/STM32WBxx_HAL_Driver/Inc/stm32wbxx_ll_pwr.h ****   *         CR3          EWUP5         LL_PWR_IsEnabledWakeUpPin\n
 907:Drivers/STM32WBxx_HAL_Driver/Inc/stm32wbxx_ll_pwr.h ****   * @param  WakeUpPin This parameter can be one of the following values:
 908:Drivers/STM32WBxx_HAL_Driver/Inc/stm32wbxx_ll_pwr.h ****   *         @arg @ref LL_PWR_WAKEUP_PIN1
 909:Drivers/STM32WBxx_HAL_Driver/Inc/stm32wbxx_ll_pwr.h ****   *         @arg @ref LL_PWR_WAKEUP_PIN2 (*)
 910:Drivers/STM32WBxx_HAL_Driver/Inc/stm32wbxx_ll_pwr.h ****   *         @arg @ref LL_PWR_WAKEUP_PIN3 (*)
 911:Drivers/STM32WBxx_HAL_Driver/Inc/stm32wbxx_ll_pwr.h ****   *         @arg @ref LL_PWR_WAKEUP_PIN4
 912:Drivers/STM32WBxx_HAL_Driver/Inc/stm32wbxx_ll_pwr.h ****   *         @arg @ref LL_PWR_WAKEUP_PIN5 (*)
 913:Drivers/STM32WBxx_HAL_Driver/Inc/stm32wbxx_ll_pwr.h ****   *
 914:Drivers/STM32WBxx_HAL_Driver/Inc/stm32wbxx_ll_pwr.h ****   *         (*) Not available on devices STM32WB50xx, STM32WB35xx, STM32WB30xx, STM32WB15xx, STM32W
 915:Drivers/STM32WBxx_HAL_Driver/Inc/stm32wbxx_ll_pwr.h ****   * @retval State of bit (1 or 0).
 916:Drivers/STM32WBxx_HAL_Driver/Inc/stm32wbxx_ll_pwr.h ****   */
 917:Drivers/STM32WBxx_HAL_Driver/Inc/stm32wbxx_ll_pwr.h **** __STATIC_INLINE uint32_t LL_PWR_IsEnabledWakeUpPin(uint32_t WakeUpPin)
 918:Drivers/STM32WBxx_HAL_Driver/Inc/stm32wbxx_ll_pwr.h **** {
 919:Drivers/STM32WBxx_HAL_Driver/Inc/stm32wbxx_ll_pwr.h ****   return ((READ_BIT(PWR->CR3, WakeUpPin) == (WakeUpPin)) ? 1UL : 0UL);
 920:Drivers/STM32WBxx_HAL_Driver/Inc/stm32wbxx_ll_pwr.h **** }
 921:Drivers/STM32WBxx_HAL_Driver/Inc/stm32wbxx_ll_pwr.h **** 
 922:Drivers/STM32WBxx_HAL_Driver/Inc/stm32wbxx_ll_pwr.h **** /**
ARM GAS  C:\Users\Nathan\AppData\Local\Temp\ccvsgOlc.s 			page 50


 923:Drivers/STM32WBxx_HAL_Driver/Inc/stm32wbxx_ll_pwr.h ****   * @brief  Set the resistor impedance
 924:Drivers/STM32WBxx_HAL_Driver/Inc/stm32wbxx_ll_pwr.h ****   * @rmtoll CR4          VBRS          LL_PWR_SetBattChargResistor
 925:Drivers/STM32WBxx_HAL_Driver/Inc/stm32wbxx_ll_pwr.h ****   * @param  Resistor This parameter can be one of the following values:
 926:Drivers/STM32WBxx_HAL_Driver/Inc/stm32wbxx_ll_pwr.h ****   *         @arg @ref LL_PWR_BATT_CHARG_RESISTOR_5K
 927:Drivers/STM32WBxx_HAL_Driver/Inc/stm32wbxx_ll_pwr.h ****   *         @arg @ref LL_PWR_BATT_CHARGRESISTOR_1_5K
 928:Drivers/STM32WBxx_HAL_Driver/Inc/stm32wbxx_ll_pwr.h ****   * @retval None
 929:Drivers/STM32WBxx_HAL_Driver/Inc/stm32wbxx_ll_pwr.h ****   */
 930:Drivers/STM32WBxx_HAL_Driver/Inc/stm32wbxx_ll_pwr.h **** __STATIC_INLINE void LL_PWR_SetBattChargResistor(uint32_t Resistor)
 931:Drivers/STM32WBxx_HAL_Driver/Inc/stm32wbxx_ll_pwr.h **** {
 932:Drivers/STM32WBxx_HAL_Driver/Inc/stm32wbxx_ll_pwr.h ****   MODIFY_REG(PWR->CR4, PWR_CR4_VBRS, Resistor);
 933:Drivers/STM32WBxx_HAL_Driver/Inc/stm32wbxx_ll_pwr.h **** }
 934:Drivers/STM32WBxx_HAL_Driver/Inc/stm32wbxx_ll_pwr.h **** 
 935:Drivers/STM32WBxx_HAL_Driver/Inc/stm32wbxx_ll_pwr.h **** /**
 936:Drivers/STM32WBxx_HAL_Driver/Inc/stm32wbxx_ll_pwr.h ****   * @brief  Get the resistor impedance
 937:Drivers/STM32WBxx_HAL_Driver/Inc/stm32wbxx_ll_pwr.h ****   * @rmtoll CR4          VBRS          LL_PWR_GetBattChargResistor
 938:Drivers/STM32WBxx_HAL_Driver/Inc/stm32wbxx_ll_pwr.h ****   * @retval Returned value can be one of the following values:
 939:Drivers/STM32WBxx_HAL_Driver/Inc/stm32wbxx_ll_pwr.h ****   *         @arg @ref LL_PWR_BATT_CHARG_RESISTOR_5K
 940:Drivers/STM32WBxx_HAL_Driver/Inc/stm32wbxx_ll_pwr.h ****   *         @arg @ref LL_PWR_BATT_CHARGRESISTOR_1_5K
 941:Drivers/STM32WBxx_HAL_Driver/Inc/stm32wbxx_ll_pwr.h ****   */
 942:Drivers/STM32WBxx_HAL_Driver/Inc/stm32wbxx_ll_pwr.h **** __STATIC_INLINE uint32_t LL_PWR_GetBattChargResistor(void)
 943:Drivers/STM32WBxx_HAL_Driver/Inc/stm32wbxx_ll_pwr.h **** {
 944:Drivers/STM32WBxx_HAL_Driver/Inc/stm32wbxx_ll_pwr.h ****   return (uint32_t)(READ_BIT(PWR->CR4, PWR_CR4_VBRS));
 945:Drivers/STM32WBxx_HAL_Driver/Inc/stm32wbxx_ll_pwr.h **** }
 946:Drivers/STM32WBxx_HAL_Driver/Inc/stm32wbxx_ll_pwr.h **** 
 947:Drivers/STM32WBxx_HAL_Driver/Inc/stm32wbxx_ll_pwr.h **** /**
 948:Drivers/STM32WBxx_HAL_Driver/Inc/stm32wbxx_ll_pwr.h ****   * @brief  Enable battery charging
 949:Drivers/STM32WBxx_HAL_Driver/Inc/stm32wbxx_ll_pwr.h ****   * @rmtoll CR4          VBE           LL_PWR_EnableBatteryCharging
 950:Drivers/STM32WBxx_HAL_Driver/Inc/stm32wbxx_ll_pwr.h ****   * @retval None
 951:Drivers/STM32WBxx_HAL_Driver/Inc/stm32wbxx_ll_pwr.h ****   */
 952:Drivers/STM32WBxx_HAL_Driver/Inc/stm32wbxx_ll_pwr.h **** __STATIC_INLINE void LL_PWR_EnableBatteryCharging(void)
 953:Drivers/STM32WBxx_HAL_Driver/Inc/stm32wbxx_ll_pwr.h **** {
 954:Drivers/STM32WBxx_HAL_Driver/Inc/stm32wbxx_ll_pwr.h ****   SET_BIT(PWR->CR4, PWR_CR4_VBE);
 955:Drivers/STM32WBxx_HAL_Driver/Inc/stm32wbxx_ll_pwr.h **** }
 956:Drivers/STM32WBxx_HAL_Driver/Inc/stm32wbxx_ll_pwr.h **** 
 957:Drivers/STM32WBxx_HAL_Driver/Inc/stm32wbxx_ll_pwr.h **** /**
 958:Drivers/STM32WBxx_HAL_Driver/Inc/stm32wbxx_ll_pwr.h ****   * @brief  Disable battery charging
 959:Drivers/STM32WBxx_HAL_Driver/Inc/stm32wbxx_ll_pwr.h ****   * @rmtoll CR4          VBE           LL_PWR_DisableBatteryCharging
 960:Drivers/STM32WBxx_HAL_Driver/Inc/stm32wbxx_ll_pwr.h ****   * @retval None
 961:Drivers/STM32WBxx_HAL_Driver/Inc/stm32wbxx_ll_pwr.h ****   */
 962:Drivers/STM32WBxx_HAL_Driver/Inc/stm32wbxx_ll_pwr.h **** __STATIC_INLINE void LL_PWR_DisableBatteryCharging(void)
 963:Drivers/STM32WBxx_HAL_Driver/Inc/stm32wbxx_ll_pwr.h **** {
 964:Drivers/STM32WBxx_HAL_Driver/Inc/stm32wbxx_ll_pwr.h ****   CLEAR_BIT(PWR->CR4, PWR_CR4_VBE);
 965:Drivers/STM32WBxx_HAL_Driver/Inc/stm32wbxx_ll_pwr.h **** }
 966:Drivers/STM32WBxx_HAL_Driver/Inc/stm32wbxx_ll_pwr.h **** 
 967:Drivers/STM32WBxx_HAL_Driver/Inc/stm32wbxx_ll_pwr.h **** /**
 968:Drivers/STM32WBxx_HAL_Driver/Inc/stm32wbxx_ll_pwr.h ****   * @brief  Check if battery charging is enabled
 969:Drivers/STM32WBxx_HAL_Driver/Inc/stm32wbxx_ll_pwr.h ****   * @rmtoll CR4          VBE           LL_PWR_IsEnabledBatteryCharging
 970:Drivers/STM32WBxx_HAL_Driver/Inc/stm32wbxx_ll_pwr.h ****   * @retval State of bit (1 or 0).
 971:Drivers/STM32WBxx_HAL_Driver/Inc/stm32wbxx_ll_pwr.h ****   */
 972:Drivers/STM32WBxx_HAL_Driver/Inc/stm32wbxx_ll_pwr.h **** __STATIC_INLINE uint32_t LL_PWR_IsEnabledBatteryCharging(void)
 973:Drivers/STM32WBxx_HAL_Driver/Inc/stm32wbxx_ll_pwr.h **** {
 974:Drivers/STM32WBxx_HAL_Driver/Inc/stm32wbxx_ll_pwr.h ****   return ((READ_BIT(PWR->CR4, PWR_CR4_VBE) == (PWR_CR4_VBE)) ? 1UL : 0UL);
 975:Drivers/STM32WBxx_HAL_Driver/Inc/stm32wbxx_ll_pwr.h **** }
 976:Drivers/STM32WBxx_HAL_Driver/Inc/stm32wbxx_ll_pwr.h **** 
 977:Drivers/STM32WBxx_HAL_Driver/Inc/stm32wbxx_ll_pwr.h **** /**
 978:Drivers/STM32WBxx_HAL_Driver/Inc/stm32wbxx_ll_pwr.h ****   * @brief  Set the Wake-Up pin polarity low for the event detection
 979:Drivers/STM32WBxx_HAL_Driver/Inc/stm32wbxx_ll_pwr.h ****   * @rmtoll CR4          WP1           LL_PWR_SetWakeUpPinPolarityLow\n
ARM GAS  C:\Users\Nathan\AppData\Local\Temp\ccvsgOlc.s 			page 51


 980:Drivers/STM32WBxx_HAL_Driver/Inc/stm32wbxx_ll_pwr.h ****   *         CR4          WP2           LL_PWR_SetWakeUpPinPolarityLow\n
 981:Drivers/STM32WBxx_HAL_Driver/Inc/stm32wbxx_ll_pwr.h ****   *         CR4          WP3           LL_PWR_SetWakeUpPinPolarityLow\n
 982:Drivers/STM32WBxx_HAL_Driver/Inc/stm32wbxx_ll_pwr.h ****   *         CR4          WP4           LL_PWR_SetWakeUpPinPolarityLow\n
 983:Drivers/STM32WBxx_HAL_Driver/Inc/stm32wbxx_ll_pwr.h ****   *         CR4          WP5           LL_PWR_SetWakeUpPinPolarityLow
 984:Drivers/STM32WBxx_HAL_Driver/Inc/stm32wbxx_ll_pwr.h ****   * @param  WakeUpPin This parameter can be one of the following values:
 985:Drivers/STM32WBxx_HAL_Driver/Inc/stm32wbxx_ll_pwr.h ****   *         @arg @ref LL_PWR_WAKEUP_PIN1
 986:Drivers/STM32WBxx_HAL_Driver/Inc/stm32wbxx_ll_pwr.h ****   *         @arg @ref LL_PWR_WAKEUP_PIN2 (*)
 987:Drivers/STM32WBxx_HAL_Driver/Inc/stm32wbxx_ll_pwr.h ****   *         @arg @ref LL_PWR_WAKEUP_PIN3 (*)
 988:Drivers/STM32WBxx_HAL_Driver/Inc/stm32wbxx_ll_pwr.h ****   *         @arg @ref LL_PWR_WAKEUP_PIN4
 989:Drivers/STM32WBxx_HAL_Driver/Inc/stm32wbxx_ll_pwr.h ****   *         @arg @ref LL_PWR_WAKEUP_PIN5 (*)
 990:Drivers/STM32WBxx_HAL_Driver/Inc/stm32wbxx_ll_pwr.h ****   *
 991:Drivers/STM32WBxx_HAL_Driver/Inc/stm32wbxx_ll_pwr.h ****   *         (*) Not available on devices STM32WB50xx, STM32WB35xx, STM32WB30xx, STM32WB15xx, STM32W
 992:Drivers/STM32WBxx_HAL_Driver/Inc/stm32wbxx_ll_pwr.h ****   * @retval None
 993:Drivers/STM32WBxx_HAL_Driver/Inc/stm32wbxx_ll_pwr.h ****   */
 994:Drivers/STM32WBxx_HAL_Driver/Inc/stm32wbxx_ll_pwr.h **** __STATIC_INLINE void LL_PWR_SetWakeUpPinPolarityLow(uint32_t WakeUpPin)
 995:Drivers/STM32WBxx_HAL_Driver/Inc/stm32wbxx_ll_pwr.h **** {
 996:Drivers/STM32WBxx_HAL_Driver/Inc/stm32wbxx_ll_pwr.h ****   SET_BIT(PWR->CR4, WakeUpPin);
 997:Drivers/STM32WBxx_HAL_Driver/Inc/stm32wbxx_ll_pwr.h **** }
 998:Drivers/STM32WBxx_HAL_Driver/Inc/stm32wbxx_ll_pwr.h **** 
 999:Drivers/STM32WBxx_HAL_Driver/Inc/stm32wbxx_ll_pwr.h **** /**
1000:Drivers/STM32WBxx_HAL_Driver/Inc/stm32wbxx_ll_pwr.h ****   * @brief  Set the Wake-Up pin polarity high for the event detection
1001:Drivers/STM32WBxx_HAL_Driver/Inc/stm32wbxx_ll_pwr.h ****   * @rmtoll CR4          WP1           LL_PWR_SetWakeUpPinPolarityHigh\n
1002:Drivers/STM32WBxx_HAL_Driver/Inc/stm32wbxx_ll_pwr.h ****   *         CR4          WP2           LL_PWR_SetWakeUpPinPolarityHigh\n
1003:Drivers/STM32WBxx_HAL_Driver/Inc/stm32wbxx_ll_pwr.h ****   *         CR4          WP3           LL_PWR_SetWakeUpPinPolarityHigh\n
1004:Drivers/STM32WBxx_HAL_Driver/Inc/stm32wbxx_ll_pwr.h ****   *         CR4          WP4           LL_PWR_SetWakeUpPinPolarityHigh\n
1005:Drivers/STM32WBxx_HAL_Driver/Inc/stm32wbxx_ll_pwr.h ****   *         CR4          WP5           LL_PWR_SetWakeUpPinPolarityHigh
1006:Drivers/STM32WBxx_HAL_Driver/Inc/stm32wbxx_ll_pwr.h ****   * @param  WakeUpPin This parameter can be one of the following values:
1007:Drivers/STM32WBxx_HAL_Driver/Inc/stm32wbxx_ll_pwr.h ****   *         @arg @ref LL_PWR_WAKEUP_PIN1
1008:Drivers/STM32WBxx_HAL_Driver/Inc/stm32wbxx_ll_pwr.h ****   *         @arg @ref LL_PWR_WAKEUP_PIN2 (*)
1009:Drivers/STM32WBxx_HAL_Driver/Inc/stm32wbxx_ll_pwr.h ****   *         @arg @ref LL_PWR_WAKEUP_PIN3 (*)
1010:Drivers/STM32WBxx_HAL_Driver/Inc/stm32wbxx_ll_pwr.h ****   *         @arg @ref LL_PWR_WAKEUP_PIN4
1011:Drivers/STM32WBxx_HAL_Driver/Inc/stm32wbxx_ll_pwr.h ****   *         @arg @ref LL_PWR_WAKEUP_PIN5 (*)
1012:Drivers/STM32WBxx_HAL_Driver/Inc/stm32wbxx_ll_pwr.h ****   *
1013:Drivers/STM32WBxx_HAL_Driver/Inc/stm32wbxx_ll_pwr.h ****   *         (*) Not available on devices STM32WB50xx, STM32WB35xx, STM32WB30xx, STM32WB15xx, STM32W
1014:Drivers/STM32WBxx_HAL_Driver/Inc/stm32wbxx_ll_pwr.h ****   * @retval None
1015:Drivers/STM32WBxx_HAL_Driver/Inc/stm32wbxx_ll_pwr.h ****   */
1016:Drivers/STM32WBxx_HAL_Driver/Inc/stm32wbxx_ll_pwr.h **** __STATIC_INLINE void LL_PWR_SetWakeUpPinPolarityHigh(uint32_t WakeUpPin)
1017:Drivers/STM32WBxx_HAL_Driver/Inc/stm32wbxx_ll_pwr.h **** {
1018:Drivers/STM32WBxx_HAL_Driver/Inc/stm32wbxx_ll_pwr.h ****   CLEAR_BIT(PWR->CR4, WakeUpPin);
1019:Drivers/STM32WBxx_HAL_Driver/Inc/stm32wbxx_ll_pwr.h **** }
1020:Drivers/STM32WBxx_HAL_Driver/Inc/stm32wbxx_ll_pwr.h **** 
1021:Drivers/STM32WBxx_HAL_Driver/Inc/stm32wbxx_ll_pwr.h **** /**
1022:Drivers/STM32WBxx_HAL_Driver/Inc/stm32wbxx_ll_pwr.h ****   * @brief  Get the Wake-Up pin polarity for the event detection
1023:Drivers/STM32WBxx_HAL_Driver/Inc/stm32wbxx_ll_pwr.h ****   * @rmtoll CR4          WP1           LL_PWR_IsWakeUpPinPolarityLow\n
1024:Drivers/STM32WBxx_HAL_Driver/Inc/stm32wbxx_ll_pwr.h ****   *         CR4          WP2           LL_PWR_IsWakeUpPinPolarityLow\n
1025:Drivers/STM32WBxx_HAL_Driver/Inc/stm32wbxx_ll_pwr.h ****   *         CR4          WP3           LL_PWR_IsWakeUpPinPolarityLow\n
1026:Drivers/STM32WBxx_HAL_Driver/Inc/stm32wbxx_ll_pwr.h ****   *         CR4          WP4           LL_PWR_IsWakeUpPinPolarityLow\n
1027:Drivers/STM32WBxx_HAL_Driver/Inc/stm32wbxx_ll_pwr.h ****   *         CR4          WP5           LL_PWR_IsWakeUpPinPolarityLow
1028:Drivers/STM32WBxx_HAL_Driver/Inc/stm32wbxx_ll_pwr.h ****   * @param  WakeUpPin This parameter can be one of the following values:
1029:Drivers/STM32WBxx_HAL_Driver/Inc/stm32wbxx_ll_pwr.h ****   *         @arg @ref LL_PWR_WAKEUP_PIN1
1030:Drivers/STM32WBxx_HAL_Driver/Inc/stm32wbxx_ll_pwr.h ****   *         @arg @ref LL_PWR_WAKEUP_PIN2 (*)
1031:Drivers/STM32WBxx_HAL_Driver/Inc/stm32wbxx_ll_pwr.h ****   *         @arg @ref LL_PWR_WAKEUP_PIN3 (*)
1032:Drivers/STM32WBxx_HAL_Driver/Inc/stm32wbxx_ll_pwr.h ****   *         @arg @ref LL_PWR_WAKEUP_PIN4
1033:Drivers/STM32WBxx_HAL_Driver/Inc/stm32wbxx_ll_pwr.h ****   *         @arg @ref LL_PWR_WAKEUP_PIN5 (*)
1034:Drivers/STM32WBxx_HAL_Driver/Inc/stm32wbxx_ll_pwr.h ****   *
1035:Drivers/STM32WBxx_HAL_Driver/Inc/stm32wbxx_ll_pwr.h ****   *         (*) Not available on devices STM32WB50xx, STM32WB35xx, STM32WB30xx, STM32WB15xx, STM32W
1036:Drivers/STM32WBxx_HAL_Driver/Inc/stm32wbxx_ll_pwr.h ****   * @retval State of bit (1 or 0).
ARM GAS  C:\Users\Nathan\AppData\Local\Temp\ccvsgOlc.s 			page 52


1037:Drivers/STM32WBxx_HAL_Driver/Inc/stm32wbxx_ll_pwr.h ****   */
1038:Drivers/STM32WBxx_HAL_Driver/Inc/stm32wbxx_ll_pwr.h **** __STATIC_INLINE uint32_t LL_PWR_IsWakeUpPinPolarityLow(uint32_t WakeUpPin)
1039:Drivers/STM32WBxx_HAL_Driver/Inc/stm32wbxx_ll_pwr.h **** {
1040:Drivers/STM32WBxx_HAL_Driver/Inc/stm32wbxx_ll_pwr.h ****   return ((READ_BIT(PWR->CR4, WakeUpPin) == (WakeUpPin)) ? 1UL : 0UL);
1041:Drivers/STM32WBxx_HAL_Driver/Inc/stm32wbxx_ll_pwr.h **** }
1042:Drivers/STM32WBxx_HAL_Driver/Inc/stm32wbxx_ll_pwr.h **** 
1043:Drivers/STM32WBxx_HAL_Driver/Inc/stm32wbxx_ll_pwr.h **** /**
1044:Drivers/STM32WBxx_HAL_Driver/Inc/stm32wbxx_ll_pwr.h ****   * @brief  Enable GPIO pull-up state in Standby and Shutdown modes
1045:Drivers/STM32WBxx_HAL_Driver/Inc/stm32wbxx_ll_pwr.h ****   * @note   Some pins are not configurable for pulling in Standby and Shutdown
1046:Drivers/STM32WBxx_HAL_Driver/Inc/stm32wbxx_ll_pwr.h ****   *         modes. Refer to reference manual for available pins and ports.
1047:Drivers/STM32WBxx_HAL_Driver/Inc/stm32wbxx_ll_pwr.h ****   * @rmtoll PUCRA        PU0-15        LL_PWR_EnableGPIOPullUp\n
1048:Drivers/STM32WBxx_HAL_Driver/Inc/stm32wbxx_ll_pwr.h ****   *         PUCRB        PU0-15        LL_PWR_EnableGPIOPullUp\n
1049:Drivers/STM32WBxx_HAL_Driver/Inc/stm32wbxx_ll_pwr.h ****   *         PUCRC        PU0-15        LL_PWR_EnableGPIOPullUp\n
1050:Drivers/STM32WBxx_HAL_Driver/Inc/stm32wbxx_ll_pwr.h ****   *         PUCRD        PU0-15        LL_PWR_EnableGPIOPullUp\n
1051:Drivers/STM32WBxx_HAL_Driver/Inc/stm32wbxx_ll_pwr.h ****   *         PUCRE        PU0-15        LL_PWR_EnableGPIOPullUp\n
1052:Drivers/STM32WBxx_HAL_Driver/Inc/stm32wbxx_ll_pwr.h ****   *         PUCRH        PU0-15        LL_PWR_EnableGPIOPullUp
1053:Drivers/STM32WBxx_HAL_Driver/Inc/stm32wbxx_ll_pwr.h ****   * @param  GPIO This parameter can be one of the following values:
1054:Drivers/STM32WBxx_HAL_Driver/Inc/stm32wbxx_ll_pwr.h ****   *         @arg @ref LL_PWR_GPIO_A
1055:Drivers/STM32WBxx_HAL_Driver/Inc/stm32wbxx_ll_pwr.h ****   *         @arg @ref LL_PWR_GPIO_B
1056:Drivers/STM32WBxx_HAL_Driver/Inc/stm32wbxx_ll_pwr.h ****   *         @arg @ref LL_PWR_GPIO_C
1057:Drivers/STM32WBxx_HAL_Driver/Inc/stm32wbxx_ll_pwr.h ****   *         @arg @ref LL_PWR_GPIO_D
1058:Drivers/STM32WBxx_HAL_Driver/Inc/stm32wbxx_ll_pwr.h ****   *         @arg @ref LL_PWR_GPIO_E
1059:Drivers/STM32WBxx_HAL_Driver/Inc/stm32wbxx_ll_pwr.h ****   *         @arg @ref LL_PWR_GPIO_H
1060:Drivers/STM32WBxx_HAL_Driver/Inc/stm32wbxx_ll_pwr.h ****   * @param  GPIONumber This parameter can be one of the following values:
1061:Drivers/STM32WBxx_HAL_Driver/Inc/stm32wbxx_ll_pwr.h ****   *         @arg @ref LL_PWR_GPIO_BIT_0
1062:Drivers/STM32WBxx_HAL_Driver/Inc/stm32wbxx_ll_pwr.h ****   *         @arg @ref LL_PWR_GPIO_BIT_1
1063:Drivers/STM32WBxx_HAL_Driver/Inc/stm32wbxx_ll_pwr.h ****   *         @arg @ref LL_PWR_GPIO_BIT_2
1064:Drivers/STM32WBxx_HAL_Driver/Inc/stm32wbxx_ll_pwr.h ****   *         @arg @ref LL_PWR_GPIO_BIT_3
1065:Drivers/STM32WBxx_HAL_Driver/Inc/stm32wbxx_ll_pwr.h ****   *         @arg @ref LL_PWR_GPIO_BIT_4
1066:Drivers/STM32WBxx_HAL_Driver/Inc/stm32wbxx_ll_pwr.h ****   *         @arg @ref LL_PWR_GPIO_BIT_5
1067:Drivers/STM32WBxx_HAL_Driver/Inc/stm32wbxx_ll_pwr.h ****   *         @arg @ref LL_PWR_GPIO_BIT_6
1068:Drivers/STM32WBxx_HAL_Driver/Inc/stm32wbxx_ll_pwr.h ****   *         @arg @ref LL_PWR_GPIO_BIT_7
1069:Drivers/STM32WBxx_HAL_Driver/Inc/stm32wbxx_ll_pwr.h ****   *         @arg @ref LL_PWR_GPIO_BIT_8
1070:Drivers/STM32WBxx_HAL_Driver/Inc/stm32wbxx_ll_pwr.h ****   *         @arg @ref LL_PWR_GPIO_BIT_9
1071:Drivers/STM32WBxx_HAL_Driver/Inc/stm32wbxx_ll_pwr.h ****   *         @arg @ref LL_PWR_GPIO_BIT_10
1072:Drivers/STM32WBxx_HAL_Driver/Inc/stm32wbxx_ll_pwr.h ****   *         @arg @ref LL_PWR_GPIO_BIT_11
1073:Drivers/STM32WBxx_HAL_Driver/Inc/stm32wbxx_ll_pwr.h ****   *         @arg @ref LL_PWR_GPIO_BIT_12
1074:Drivers/STM32WBxx_HAL_Driver/Inc/stm32wbxx_ll_pwr.h ****   *         @arg @ref LL_PWR_GPIO_BIT_13
1075:Drivers/STM32WBxx_HAL_Driver/Inc/stm32wbxx_ll_pwr.h ****   *         @arg @ref LL_PWR_GPIO_BIT_14
1076:Drivers/STM32WBxx_HAL_Driver/Inc/stm32wbxx_ll_pwr.h ****   *         @arg @ref LL_PWR_GPIO_BIT_15
1077:Drivers/STM32WBxx_HAL_Driver/Inc/stm32wbxx_ll_pwr.h ****   * @retval None
1078:Drivers/STM32WBxx_HAL_Driver/Inc/stm32wbxx_ll_pwr.h ****   */
1079:Drivers/STM32WBxx_HAL_Driver/Inc/stm32wbxx_ll_pwr.h **** __STATIC_INLINE void LL_PWR_EnableGPIOPullUp(uint32_t GPIO, uint32_t GPIONumber)
1080:Drivers/STM32WBxx_HAL_Driver/Inc/stm32wbxx_ll_pwr.h **** {
1081:Drivers/STM32WBxx_HAL_Driver/Inc/stm32wbxx_ll_pwr.h ****   SET_BIT(*((__IO uint32_t *)GPIO), GPIONumber);
1082:Drivers/STM32WBxx_HAL_Driver/Inc/stm32wbxx_ll_pwr.h **** }
1083:Drivers/STM32WBxx_HAL_Driver/Inc/stm32wbxx_ll_pwr.h **** 
1084:Drivers/STM32WBxx_HAL_Driver/Inc/stm32wbxx_ll_pwr.h **** /**
1085:Drivers/STM32WBxx_HAL_Driver/Inc/stm32wbxx_ll_pwr.h ****   * @brief  Disable GPIO pull-up state in Standby and Shutdown modes
1086:Drivers/STM32WBxx_HAL_Driver/Inc/stm32wbxx_ll_pwr.h ****   * @note   Some pins are not configurable for pulling in Standby and Shutdown
1087:Drivers/STM32WBxx_HAL_Driver/Inc/stm32wbxx_ll_pwr.h ****   *         modes. Refer to reference manual for available pins and ports.
1088:Drivers/STM32WBxx_HAL_Driver/Inc/stm32wbxx_ll_pwr.h ****   * @rmtoll PUCRA        PU0-15        LL_PWR_DisableGPIOPullUp\n
1089:Drivers/STM32WBxx_HAL_Driver/Inc/stm32wbxx_ll_pwr.h ****   *         PUCRB        PU0-15        LL_PWR_DisableGPIOPullUp\n
1090:Drivers/STM32WBxx_HAL_Driver/Inc/stm32wbxx_ll_pwr.h ****   *         PUCRC        PU0-15        LL_PWR_DisableGPIOPullUp\n
1091:Drivers/STM32WBxx_HAL_Driver/Inc/stm32wbxx_ll_pwr.h ****   *         PUCRD        PU0-15        LL_PWR_DisableGPIOPullUp\n
1092:Drivers/STM32WBxx_HAL_Driver/Inc/stm32wbxx_ll_pwr.h ****   *         PUCRE        PU0-15        LL_PWR_DisableGPIOPullUp\n
1093:Drivers/STM32WBxx_HAL_Driver/Inc/stm32wbxx_ll_pwr.h ****   *         PUCRH        PU0-15        LL_PWR_DisableGPIOPullUp
ARM GAS  C:\Users\Nathan\AppData\Local\Temp\ccvsgOlc.s 			page 53


1094:Drivers/STM32WBxx_HAL_Driver/Inc/stm32wbxx_ll_pwr.h ****   * @param  GPIO This parameter can be one of the following values:
1095:Drivers/STM32WBxx_HAL_Driver/Inc/stm32wbxx_ll_pwr.h ****   *         @arg @ref LL_PWR_GPIO_A
1096:Drivers/STM32WBxx_HAL_Driver/Inc/stm32wbxx_ll_pwr.h ****   *         @arg @ref LL_PWR_GPIO_B
1097:Drivers/STM32WBxx_HAL_Driver/Inc/stm32wbxx_ll_pwr.h ****   *         @arg @ref LL_PWR_GPIO_C
1098:Drivers/STM32WBxx_HAL_Driver/Inc/stm32wbxx_ll_pwr.h ****   *         @arg @ref LL_PWR_GPIO_D
1099:Drivers/STM32WBxx_HAL_Driver/Inc/stm32wbxx_ll_pwr.h ****   *         @arg @ref LL_PWR_GPIO_E
1100:Drivers/STM32WBxx_HAL_Driver/Inc/stm32wbxx_ll_pwr.h ****   *         @arg @ref LL_PWR_GPIO_H
1101:Drivers/STM32WBxx_HAL_Driver/Inc/stm32wbxx_ll_pwr.h ****   * @param  GPIONumber This parameter can be one of the following values:
1102:Drivers/STM32WBxx_HAL_Driver/Inc/stm32wbxx_ll_pwr.h ****   *         @arg @ref LL_PWR_GPIO_BIT_0
1103:Drivers/STM32WBxx_HAL_Driver/Inc/stm32wbxx_ll_pwr.h ****   *         @arg @ref LL_PWR_GPIO_BIT_1
1104:Drivers/STM32WBxx_HAL_Driver/Inc/stm32wbxx_ll_pwr.h ****   *         @arg @ref LL_PWR_GPIO_BIT_2
1105:Drivers/STM32WBxx_HAL_Driver/Inc/stm32wbxx_ll_pwr.h ****   *         @arg @ref LL_PWR_GPIO_BIT_3
1106:Drivers/STM32WBxx_HAL_Driver/Inc/stm32wbxx_ll_pwr.h ****   *         @arg @ref LL_PWR_GPIO_BIT_4
1107:Drivers/STM32WBxx_HAL_Driver/Inc/stm32wbxx_ll_pwr.h ****   *         @arg @ref LL_PWR_GPIO_BIT_5
1108:Drivers/STM32WBxx_HAL_Driver/Inc/stm32wbxx_ll_pwr.h ****   *         @arg @ref LL_PWR_GPIO_BIT_6
1109:Drivers/STM32WBxx_HAL_Driver/Inc/stm32wbxx_ll_pwr.h ****   *         @arg @ref LL_PWR_GPIO_BIT_7
1110:Drivers/STM32WBxx_HAL_Driver/Inc/stm32wbxx_ll_pwr.h ****   *         @arg @ref LL_PWR_GPIO_BIT_8
1111:Drivers/STM32WBxx_HAL_Driver/Inc/stm32wbxx_ll_pwr.h ****   *         @arg @ref LL_PWR_GPIO_BIT_9
1112:Drivers/STM32WBxx_HAL_Driver/Inc/stm32wbxx_ll_pwr.h ****   *         @arg @ref LL_PWR_GPIO_BIT_10
1113:Drivers/STM32WBxx_HAL_Driver/Inc/stm32wbxx_ll_pwr.h ****   *         @arg @ref LL_PWR_GPIO_BIT_11
1114:Drivers/STM32WBxx_HAL_Driver/Inc/stm32wbxx_ll_pwr.h ****   *         @arg @ref LL_PWR_GPIO_BIT_12
1115:Drivers/STM32WBxx_HAL_Driver/Inc/stm32wbxx_ll_pwr.h ****   *         @arg @ref LL_PWR_GPIO_BIT_13
1116:Drivers/STM32WBxx_HAL_Driver/Inc/stm32wbxx_ll_pwr.h ****   *         @arg @ref LL_PWR_GPIO_BIT_14
1117:Drivers/STM32WBxx_HAL_Driver/Inc/stm32wbxx_ll_pwr.h ****   *         @arg @ref LL_PWR_GPIO_BIT_15
1118:Drivers/STM32WBxx_HAL_Driver/Inc/stm32wbxx_ll_pwr.h ****   * @retval None
1119:Drivers/STM32WBxx_HAL_Driver/Inc/stm32wbxx_ll_pwr.h ****   */
1120:Drivers/STM32WBxx_HAL_Driver/Inc/stm32wbxx_ll_pwr.h **** __STATIC_INLINE void LL_PWR_DisableGPIOPullUp(uint32_t GPIO, uint32_t GPIONumber)
1121:Drivers/STM32WBxx_HAL_Driver/Inc/stm32wbxx_ll_pwr.h **** {
1122:Drivers/STM32WBxx_HAL_Driver/Inc/stm32wbxx_ll_pwr.h ****   CLEAR_BIT(*((__IO uint32_t *)GPIO), GPIONumber);
1123:Drivers/STM32WBxx_HAL_Driver/Inc/stm32wbxx_ll_pwr.h **** }
1124:Drivers/STM32WBxx_HAL_Driver/Inc/stm32wbxx_ll_pwr.h **** 
1125:Drivers/STM32WBxx_HAL_Driver/Inc/stm32wbxx_ll_pwr.h **** /**
1126:Drivers/STM32WBxx_HAL_Driver/Inc/stm32wbxx_ll_pwr.h ****   * @brief  Check if GPIO pull-up state is enabled
1127:Drivers/STM32WBxx_HAL_Driver/Inc/stm32wbxx_ll_pwr.h ****   * @rmtoll PUCRA        PU0-15        LL_PWR_IsEnabledGPIOPullUp\n
1128:Drivers/STM32WBxx_HAL_Driver/Inc/stm32wbxx_ll_pwr.h ****   *         PUCRB        PU0-15        LL_PWR_IsEnabledGPIOPullUp\n
1129:Drivers/STM32WBxx_HAL_Driver/Inc/stm32wbxx_ll_pwr.h ****   *         PUCRC        PU0-15        LL_PWR_IsEnabledGPIOPullUp\n
1130:Drivers/STM32WBxx_HAL_Driver/Inc/stm32wbxx_ll_pwr.h ****   *         PUCRD        PU0-15        LL_PWR_IsEnabledGPIOPullUp\n
1131:Drivers/STM32WBxx_HAL_Driver/Inc/stm32wbxx_ll_pwr.h ****   *         PUCRE        PU0-15        LL_PWR_IsEnabledGPIOPullUp\n
1132:Drivers/STM32WBxx_HAL_Driver/Inc/stm32wbxx_ll_pwr.h ****   *         PUCRH        PU0-15        LL_PWR_IsEnabledGPIOPullUp
1133:Drivers/STM32WBxx_HAL_Driver/Inc/stm32wbxx_ll_pwr.h ****   * @param  GPIO This parameter can be one of the following values:
1134:Drivers/STM32WBxx_HAL_Driver/Inc/stm32wbxx_ll_pwr.h ****   *         @arg @ref LL_PWR_GPIO_A
1135:Drivers/STM32WBxx_HAL_Driver/Inc/stm32wbxx_ll_pwr.h ****   *         @arg @ref LL_PWR_GPIO_B
1136:Drivers/STM32WBxx_HAL_Driver/Inc/stm32wbxx_ll_pwr.h ****   *         @arg @ref LL_PWR_GPIO_C
1137:Drivers/STM32WBxx_HAL_Driver/Inc/stm32wbxx_ll_pwr.h ****   *         @arg @ref LL_PWR_GPIO_D
1138:Drivers/STM32WBxx_HAL_Driver/Inc/stm32wbxx_ll_pwr.h ****   *         @arg @ref LL_PWR_GPIO_E
1139:Drivers/STM32WBxx_HAL_Driver/Inc/stm32wbxx_ll_pwr.h ****   *         @arg @ref LL_PWR_GPIO_H
1140:Drivers/STM32WBxx_HAL_Driver/Inc/stm32wbxx_ll_pwr.h ****   * @param  GPIONumber This parameter can be one of the following values:
1141:Drivers/STM32WBxx_HAL_Driver/Inc/stm32wbxx_ll_pwr.h ****   *         @arg @ref LL_PWR_GPIO_BIT_0
1142:Drivers/STM32WBxx_HAL_Driver/Inc/stm32wbxx_ll_pwr.h ****   *         @arg @ref LL_PWR_GPIO_BIT_1
1143:Drivers/STM32WBxx_HAL_Driver/Inc/stm32wbxx_ll_pwr.h ****   *         @arg @ref LL_PWR_GPIO_BIT_2
1144:Drivers/STM32WBxx_HAL_Driver/Inc/stm32wbxx_ll_pwr.h ****   *         @arg @ref LL_PWR_GPIO_BIT_3
1145:Drivers/STM32WBxx_HAL_Driver/Inc/stm32wbxx_ll_pwr.h ****   *         @arg @ref LL_PWR_GPIO_BIT_4
1146:Drivers/STM32WBxx_HAL_Driver/Inc/stm32wbxx_ll_pwr.h ****   *         @arg @ref LL_PWR_GPIO_BIT_5
1147:Drivers/STM32WBxx_HAL_Driver/Inc/stm32wbxx_ll_pwr.h ****   *         @arg @ref LL_PWR_GPIO_BIT_6
1148:Drivers/STM32WBxx_HAL_Driver/Inc/stm32wbxx_ll_pwr.h ****   *         @arg @ref LL_PWR_GPIO_BIT_7
1149:Drivers/STM32WBxx_HAL_Driver/Inc/stm32wbxx_ll_pwr.h ****   *         @arg @ref LL_PWR_GPIO_BIT_8
1150:Drivers/STM32WBxx_HAL_Driver/Inc/stm32wbxx_ll_pwr.h ****   *         @arg @ref LL_PWR_GPIO_BIT_9
ARM GAS  C:\Users\Nathan\AppData\Local\Temp\ccvsgOlc.s 			page 54


1151:Drivers/STM32WBxx_HAL_Driver/Inc/stm32wbxx_ll_pwr.h ****   *         @arg @ref LL_PWR_GPIO_BIT_10
1152:Drivers/STM32WBxx_HAL_Driver/Inc/stm32wbxx_ll_pwr.h ****   *         @arg @ref LL_PWR_GPIO_BIT_11
1153:Drivers/STM32WBxx_HAL_Driver/Inc/stm32wbxx_ll_pwr.h ****   *         @arg @ref LL_PWR_GPIO_BIT_12
1154:Drivers/STM32WBxx_HAL_Driver/Inc/stm32wbxx_ll_pwr.h ****   *         @arg @ref LL_PWR_GPIO_BIT_13
1155:Drivers/STM32WBxx_HAL_Driver/Inc/stm32wbxx_ll_pwr.h ****   *         @arg @ref LL_PWR_GPIO_BIT_14
1156:Drivers/STM32WBxx_HAL_Driver/Inc/stm32wbxx_ll_pwr.h ****   *         @arg @ref LL_PWR_GPIO_BIT_15
1157:Drivers/STM32WBxx_HAL_Driver/Inc/stm32wbxx_ll_pwr.h ****   * @retval State of bit (1 or 0).
1158:Drivers/STM32WBxx_HAL_Driver/Inc/stm32wbxx_ll_pwr.h ****   */
1159:Drivers/STM32WBxx_HAL_Driver/Inc/stm32wbxx_ll_pwr.h **** __STATIC_INLINE uint32_t LL_PWR_IsEnabledGPIOPullUp(uint32_t GPIO, uint32_t GPIONumber)
1160:Drivers/STM32WBxx_HAL_Driver/Inc/stm32wbxx_ll_pwr.h **** {
1161:Drivers/STM32WBxx_HAL_Driver/Inc/stm32wbxx_ll_pwr.h ****   return ((READ_BIT(*((__IO uint32_t *)GPIO), GPIONumber) == (GPIONumber)) ? 1UL : 0UL);
1162:Drivers/STM32WBxx_HAL_Driver/Inc/stm32wbxx_ll_pwr.h **** }
1163:Drivers/STM32WBxx_HAL_Driver/Inc/stm32wbxx_ll_pwr.h **** 
1164:Drivers/STM32WBxx_HAL_Driver/Inc/stm32wbxx_ll_pwr.h **** /**
1165:Drivers/STM32WBxx_HAL_Driver/Inc/stm32wbxx_ll_pwr.h ****   * @brief  Enable GPIO pull-down state in Standby and Shutdown modes
1166:Drivers/STM32WBxx_HAL_Driver/Inc/stm32wbxx_ll_pwr.h ****   * @note   Some pins are not configurable for pulling in Standby and Shutdown
1167:Drivers/STM32WBxx_HAL_Driver/Inc/stm32wbxx_ll_pwr.h ****   *         modes. Refer to reference manual for available pins and ports.
1168:Drivers/STM32WBxx_HAL_Driver/Inc/stm32wbxx_ll_pwr.h ****   * @rmtoll PDCRA        PD0-15        LL_PWR_EnableGPIOPullDown\n
1169:Drivers/STM32WBxx_HAL_Driver/Inc/stm32wbxx_ll_pwr.h ****   *         PDCRB        PD0-15        LL_PWR_EnableGPIOPullDown\n
1170:Drivers/STM32WBxx_HAL_Driver/Inc/stm32wbxx_ll_pwr.h ****   *         PDCRC        PD0-15        LL_PWR_EnableGPIOPullDown\n
1171:Drivers/STM32WBxx_HAL_Driver/Inc/stm32wbxx_ll_pwr.h ****   *         PDCRD        PD0-15        LL_PWR_EnableGPIOPullDown\n
1172:Drivers/STM32WBxx_HAL_Driver/Inc/stm32wbxx_ll_pwr.h ****   *         PDCRE        PD0-15        LL_PWR_EnableGPIOPullDown\n
1173:Drivers/STM32WBxx_HAL_Driver/Inc/stm32wbxx_ll_pwr.h ****   *         PDCRH        PD0-15        LL_PWR_EnableGPIOPullDown
1174:Drivers/STM32WBxx_HAL_Driver/Inc/stm32wbxx_ll_pwr.h ****   * @param  GPIO This parameter can be one of the following values:
1175:Drivers/STM32WBxx_HAL_Driver/Inc/stm32wbxx_ll_pwr.h ****   *         @arg @ref LL_PWR_GPIO_A
1176:Drivers/STM32WBxx_HAL_Driver/Inc/stm32wbxx_ll_pwr.h ****   *         @arg @ref LL_PWR_GPIO_B
1177:Drivers/STM32WBxx_HAL_Driver/Inc/stm32wbxx_ll_pwr.h ****   *         @arg @ref LL_PWR_GPIO_C
1178:Drivers/STM32WBxx_HAL_Driver/Inc/stm32wbxx_ll_pwr.h ****   *         @arg @ref LL_PWR_GPIO_D
1179:Drivers/STM32WBxx_HAL_Driver/Inc/stm32wbxx_ll_pwr.h ****   *         @arg @ref LL_PWR_GPIO_E
1180:Drivers/STM32WBxx_HAL_Driver/Inc/stm32wbxx_ll_pwr.h ****   *         @arg @ref LL_PWR_GPIO_H
1181:Drivers/STM32WBxx_HAL_Driver/Inc/stm32wbxx_ll_pwr.h ****   * @param  GPIONumber This parameter can be one of the following values:
1182:Drivers/STM32WBxx_HAL_Driver/Inc/stm32wbxx_ll_pwr.h ****   *         @arg @ref LL_PWR_GPIO_BIT_0
1183:Drivers/STM32WBxx_HAL_Driver/Inc/stm32wbxx_ll_pwr.h ****   *         @arg @ref LL_PWR_GPIO_BIT_1
1184:Drivers/STM32WBxx_HAL_Driver/Inc/stm32wbxx_ll_pwr.h ****   *         @arg @ref LL_PWR_GPIO_BIT_2
1185:Drivers/STM32WBxx_HAL_Driver/Inc/stm32wbxx_ll_pwr.h ****   *         @arg @ref LL_PWR_GPIO_BIT_3
1186:Drivers/STM32WBxx_HAL_Driver/Inc/stm32wbxx_ll_pwr.h ****   *         @arg @ref LL_PWR_GPIO_BIT_4
1187:Drivers/STM32WBxx_HAL_Driver/Inc/stm32wbxx_ll_pwr.h ****   *         @arg @ref LL_PWR_GPIO_BIT_5
1188:Drivers/STM32WBxx_HAL_Driver/Inc/stm32wbxx_ll_pwr.h ****   *         @arg @ref LL_PWR_GPIO_BIT_6
1189:Drivers/STM32WBxx_HAL_Driver/Inc/stm32wbxx_ll_pwr.h ****   *         @arg @ref LL_PWR_GPIO_BIT_7
1190:Drivers/STM32WBxx_HAL_Driver/Inc/stm32wbxx_ll_pwr.h ****   *         @arg @ref LL_PWR_GPIO_BIT_8
1191:Drivers/STM32WBxx_HAL_Driver/Inc/stm32wbxx_ll_pwr.h ****   *         @arg @ref LL_PWR_GPIO_BIT_9
1192:Drivers/STM32WBxx_HAL_Driver/Inc/stm32wbxx_ll_pwr.h ****   *         @arg @ref LL_PWR_GPIO_BIT_10
1193:Drivers/STM32WBxx_HAL_Driver/Inc/stm32wbxx_ll_pwr.h ****   *         @arg @ref LL_PWR_GPIO_BIT_11
1194:Drivers/STM32WBxx_HAL_Driver/Inc/stm32wbxx_ll_pwr.h ****   *         @arg @ref LL_PWR_GPIO_BIT_12
1195:Drivers/STM32WBxx_HAL_Driver/Inc/stm32wbxx_ll_pwr.h ****   *         @arg @ref LL_PWR_GPIO_BIT_13
1196:Drivers/STM32WBxx_HAL_Driver/Inc/stm32wbxx_ll_pwr.h ****   *         @arg @ref LL_PWR_GPIO_BIT_14
1197:Drivers/STM32WBxx_HAL_Driver/Inc/stm32wbxx_ll_pwr.h ****   *         @arg @ref LL_PWR_GPIO_BIT_15
1198:Drivers/STM32WBxx_HAL_Driver/Inc/stm32wbxx_ll_pwr.h ****   * @retval None
1199:Drivers/STM32WBxx_HAL_Driver/Inc/stm32wbxx_ll_pwr.h ****   */
1200:Drivers/STM32WBxx_HAL_Driver/Inc/stm32wbxx_ll_pwr.h **** __STATIC_INLINE void LL_PWR_EnableGPIOPullDown(uint32_t GPIO, uint32_t GPIONumber)
1201:Drivers/STM32WBxx_HAL_Driver/Inc/stm32wbxx_ll_pwr.h **** {
1202:Drivers/STM32WBxx_HAL_Driver/Inc/stm32wbxx_ll_pwr.h ****   SET_BIT(*((__IO uint32_t *)(GPIO + 4UL)), GPIONumber);
1203:Drivers/STM32WBxx_HAL_Driver/Inc/stm32wbxx_ll_pwr.h **** }
1204:Drivers/STM32WBxx_HAL_Driver/Inc/stm32wbxx_ll_pwr.h **** 
1205:Drivers/STM32WBxx_HAL_Driver/Inc/stm32wbxx_ll_pwr.h **** /**
1206:Drivers/STM32WBxx_HAL_Driver/Inc/stm32wbxx_ll_pwr.h ****   * @brief  Disable GPIO pull-down state in Standby and Shutdown modes
1207:Drivers/STM32WBxx_HAL_Driver/Inc/stm32wbxx_ll_pwr.h ****   * @note   Some pins are not configurable for pulling in Standby and Shutdown
ARM GAS  C:\Users\Nathan\AppData\Local\Temp\ccvsgOlc.s 			page 55


1208:Drivers/STM32WBxx_HAL_Driver/Inc/stm32wbxx_ll_pwr.h ****   *         modes. Refer to reference manual for available pins and ports.
1209:Drivers/STM32WBxx_HAL_Driver/Inc/stm32wbxx_ll_pwr.h ****   * @rmtoll PDCRA        PD0-15        LL_PWR_DisableGPIOPullDown\n
1210:Drivers/STM32WBxx_HAL_Driver/Inc/stm32wbxx_ll_pwr.h ****   *         PDCRB        PD0-15        LL_PWR_DisableGPIOPullDown\n
1211:Drivers/STM32WBxx_HAL_Driver/Inc/stm32wbxx_ll_pwr.h ****   *         PDCRC        PD0-15        LL_PWR_DisableGPIOPullDown\n
1212:Drivers/STM32WBxx_HAL_Driver/Inc/stm32wbxx_ll_pwr.h ****   *         PDCRD        PD0-15        LL_PWR_DisableGPIOPullDown\n
1213:Drivers/STM32WBxx_HAL_Driver/Inc/stm32wbxx_ll_pwr.h ****   *         PDCRE        PD0-15        LL_PWR_DisableGPIOPullDown\n
1214:Drivers/STM32WBxx_HAL_Driver/Inc/stm32wbxx_ll_pwr.h ****   *         PDCRH        PD0-15        LL_PWR_DisableGPIOPullDown
1215:Drivers/STM32WBxx_HAL_Driver/Inc/stm32wbxx_ll_pwr.h ****   * @param  GPIO This parameter can be one of the following values:
1216:Drivers/STM32WBxx_HAL_Driver/Inc/stm32wbxx_ll_pwr.h ****   *         @arg @ref LL_PWR_GPIO_A
1217:Drivers/STM32WBxx_HAL_Driver/Inc/stm32wbxx_ll_pwr.h ****   *         @arg @ref LL_PWR_GPIO_B
1218:Drivers/STM32WBxx_HAL_Driver/Inc/stm32wbxx_ll_pwr.h ****   *         @arg @ref LL_PWR_GPIO_C
1219:Drivers/STM32WBxx_HAL_Driver/Inc/stm32wbxx_ll_pwr.h ****   *         @arg @ref LL_PWR_GPIO_D
1220:Drivers/STM32WBxx_HAL_Driver/Inc/stm32wbxx_ll_pwr.h ****   *         @arg @ref LL_PWR_GPIO_E
1221:Drivers/STM32WBxx_HAL_Driver/Inc/stm32wbxx_ll_pwr.h ****   *         @arg @ref LL_PWR_GPIO_H
1222:Drivers/STM32WBxx_HAL_Driver/Inc/stm32wbxx_ll_pwr.h ****   * @param  GPIONumber This parameter can be one of the following values:
1223:Drivers/STM32WBxx_HAL_Driver/Inc/stm32wbxx_ll_pwr.h ****   *         @arg @ref LL_PWR_GPIO_BIT_0
1224:Drivers/STM32WBxx_HAL_Driver/Inc/stm32wbxx_ll_pwr.h ****   *         @arg @ref LL_PWR_GPIO_BIT_1
1225:Drivers/STM32WBxx_HAL_Driver/Inc/stm32wbxx_ll_pwr.h ****   *         @arg @ref LL_PWR_GPIO_BIT_2
1226:Drivers/STM32WBxx_HAL_Driver/Inc/stm32wbxx_ll_pwr.h ****   *         @arg @ref LL_PWR_GPIO_BIT_3
1227:Drivers/STM32WBxx_HAL_Driver/Inc/stm32wbxx_ll_pwr.h ****   *         @arg @ref LL_PWR_GPIO_BIT_4
1228:Drivers/STM32WBxx_HAL_Driver/Inc/stm32wbxx_ll_pwr.h ****   *         @arg @ref LL_PWR_GPIO_BIT_5
1229:Drivers/STM32WBxx_HAL_Driver/Inc/stm32wbxx_ll_pwr.h ****   *         @arg @ref LL_PWR_GPIO_BIT_6
1230:Drivers/STM32WBxx_HAL_Driver/Inc/stm32wbxx_ll_pwr.h ****   *         @arg @ref LL_PWR_GPIO_BIT_7
1231:Drivers/STM32WBxx_HAL_Driver/Inc/stm32wbxx_ll_pwr.h ****   *         @arg @ref LL_PWR_GPIO_BIT_8
1232:Drivers/STM32WBxx_HAL_Driver/Inc/stm32wbxx_ll_pwr.h ****   *         @arg @ref LL_PWR_GPIO_BIT_9
1233:Drivers/STM32WBxx_HAL_Driver/Inc/stm32wbxx_ll_pwr.h ****   *         @arg @ref LL_PWR_GPIO_BIT_10
1234:Drivers/STM32WBxx_HAL_Driver/Inc/stm32wbxx_ll_pwr.h ****   *         @arg @ref LL_PWR_GPIO_BIT_11
1235:Drivers/STM32WBxx_HAL_Driver/Inc/stm32wbxx_ll_pwr.h ****   *         @arg @ref LL_PWR_GPIO_BIT_12
1236:Drivers/STM32WBxx_HAL_Driver/Inc/stm32wbxx_ll_pwr.h ****   *         @arg @ref LL_PWR_GPIO_BIT_13
1237:Drivers/STM32WBxx_HAL_Driver/Inc/stm32wbxx_ll_pwr.h ****   *         @arg @ref LL_PWR_GPIO_BIT_14
1238:Drivers/STM32WBxx_HAL_Driver/Inc/stm32wbxx_ll_pwr.h ****   *         @arg @ref LL_PWR_GPIO_BIT_15
1239:Drivers/STM32WBxx_HAL_Driver/Inc/stm32wbxx_ll_pwr.h ****   * @retval None
1240:Drivers/STM32WBxx_HAL_Driver/Inc/stm32wbxx_ll_pwr.h ****   */
1241:Drivers/STM32WBxx_HAL_Driver/Inc/stm32wbxx_ll_pwr.h **** __STATIC_INLINE void LL_PWR_DisableGPIOPullDown(uint32_t GPIO, uint32_t GPIONumber)
1242:Drivers/STM32WBxx_HAL_Driver/Inc/stm32wbxx_ll_pwr.h **** {
1243:Drivers/STM32WBxx_HAL_Driver/Inc/stm32wbxx_ll_pwr.h ****   CLEAR_BIT(*((__IO uint32_t *)(GPIO + 4UL)), GPIONumber);
1244:Drivers/STM32WBxx_HAL_Driver/Inc/stm32wbxx_ll_pwr.h **** }
1245:Drivers/STM32WBxx_HAL_Driver/Inc/stm32wbxx_ll_pwr.h **** 
1246:Drivers/STM32WBxx_HAL_Driver/Inc/stm32wbxx_ll_pwr.h **** /**
1247:Drivers/STM32WBxx_HAL_Driver/Inc/stm32wbxx_ll_pwr.h ****   * @brief  Check if GPIO pull-down state is enabled
1248:Drivers/STM32WBxx_HAL_Driver/Inc/stm32wbxx_ll_pwr.h ****   * @rmtoll PDCRA        PD0-15        LL_PWR_IsEnabledGPIOPullDown\n
1249:Drivers/STM32WBxx_HAL_Driver/Inc/stm32wbxx_ll_pwr.h ****   *         PDCRB        PD0-15        LL_PWR_IsEnabledGPIOPullDown\n
1250:Drivers/STM32WBxx_HAL_Driver/Inc/stm32wbxx_ll_pwr.h ****   *         PDCRC        PD0-15        LL_PWR_IsEnabledGPIOPullDown\n
1251:Drivers/STM32WBxx_HAL_Driver/Inc/stm32wbxx_ll_pwr.h ****   *         PDCRD        PD0-15        LL_PWR_IsEnabledGPIOPullDown\n
1252:Drivers/STM32WBxx_HAL_Driver/Inc/stm32wbxx_ll_pwr.h ****   *         PDCRE        PD0-15        LL_PWR_IsEnabledGPIOPullDown\n
1253:Drivers/STM32WBxx_HAL_Driver/Inc/stm32wbxx_ll_pwr.h ****   *         PDCRH        PD0-15        LL_PWR_IsEnabledGPIOPullDown
1254:Drivers/STM32WBxx_HAL_Driver/Inc/stm32wbxx_ll_pwr.h ****   * @param  GPIO This parameter can be one of the following values:
1255:Drivers/STM32WBxx_HAL_Driver/Inc/stm32wbxx_ll_pwr.h ****   *         @arg @ref LL_PWR_GPIO_A
1256:Drivers/STM32WBxx_HAL_Driver/Inc/stm32wbxx_ll_pwr.h ****   *         @arg @ref LL_PWR_GPIO_B
1257:Drivers/STM32WBxx_HAL_Driver/Inc/stm32wbxx_ll_pwr.h ****   *         @arg @ref LL_PWR_GPIO_C
1258:Drivers/STM32WBxx_HAL_Driver/Inc/stm32wbxx_ll_pwr.h ****   *         @arg @ref LL_PWR_GPIO_D
1259:Drivers/STM32WBxx_HAL_Driver/Inc/stm32wbxx_ll_pwr.h ****   *         @arg @ref LL_PWR_GPIO_E
1260:Drivers/STM32WBxx_HAL_Driver/Inc/stm32wbxx_ll_pwr.h ****   *         @arg @ref LL_PWR_GPIO_H
1261:Drivers/STM32WBxx_HAL_Driver/Inc/stm32wbxx_ll_pwr.h ****   * @param  GPIONumber This parameter can be one of the following values:
1262:Drivers/STM32WBxx_HAL_Driver/Inc/stm32wbxx_ll_pwr.h ****   *         @arg @ref LL_PWR_GPIO_BIT_0
1263:Drivers/STM32WBxx_HAL_Driver/Inc/stm32wbxx_ll_pwr.h ****   *         @arg @ref LL_PWR_GPIO_BIT_1
1264:Drivers/STM32WBxx_HAL_Driver/Inc/stm32wbxx_ll_pwr.h ****   *         @arg @ref LL_PWR_GPIO_BIT_2
ARM GAS  C:\Users\Nathan\AppData\Local\Temp\ccvsgOlc.s 			page 56


1265:Drivers/STM32WBxx_HAL_Driver/Inc/stm32wbxx_ll_pwr.h ****   *         @arg @ref LL_PWR_GPIO_BIT_3
1266:Drivers/STM32WBxx_HAL_Driver/Inc/stm32wbxx_ll_pwr.h ****   *         @arg @ref LL_PWR_GPIO_BIT_4
1267:Drivers/STM32WBxx_HAL_Driver/Inc/stm32wbxx_ll_pwr.h ****   *         @arg @ref LL_PWR_GPIO_BIT_5
1268:Drivers/STM32WBxx_HAL_Driver/Inc/stm32wbxx_ll_pwr.h ****   *         @arg @ref LL_PWR_GPIO_BIT_6
1269:Drivers/STM32WBxx_HAL_Driver/Inc/stm32wbxx_ll_pwr.h ****   *         @arg @ref LL_PWR_GPIO_BIT_7
1270:Drivers/STM32WBxx_HAL_Driver/Inc/stm32wbxx_ll_pwr.h ****   *         @arg @ref LL_PWR_GPIO_BIT_8
1271:Drivers/STM32WBxx_HAL_Driver/Inc/stm32wbxx_ll_pwr.h ****   *         @arg @ref LL_PWR_GPIO_BIT_9
1272:Drivers/STM32WBxx_HAL_Driver/Inc/stm32wbxx_ll_pwr.h ****   *         @arg @ref LL_PWR_GPIO_BIT_10
1273:Drivers/STM32WBxx_HAL_Driver/Inc/stm32wbxx_ll_pwr.h ****   *         @arg @ref LL_PWR_GPIO_BIT_11
1274:Drivers/STM32WBxx_HAL_Driver/Inc/stm32wbxx_ll_pwr.h ****   *         @arg @ref LL_PWR_GPIO_BIT_12
1275:Drivers/STM32WBxx_HAL_Driver/Inc/stm32wbxx_ll_pwr.h ****   *         @arg @ref LL_PWR_GPIO_BIT_13
1276:Drivers/STM32WBxx_HAL_Driver/Inc/stm32wbxx_ll_pwr.h ****   *         @arg @ref LL_PWR_GPIO_BIT_14
1277:Drivers/STM32WBxx_HAL_Driver/Inc/stm32wbxx_ll_pwr.h ****   *         @arg @ref LL_PWR_GPIO_BIT_15
1278:Drivers/STM32WBxx_HAL_Driver/Inc/stm32wbxx_ll_pwr.h ****   * @retval State of bit (1 or 0).
1279:Drivers/STM32WBxx_HAL_Driver/Inc/stm32wbxx_ll_pwr.h ****   */
1280:Drivers/STM32WBxx_HAL_Driver/Inc/stm32wbxx_ll_pwr.h **** __STATIC_INLINE uint32_t LL_PWR_IsEnabledGPIOPullDown(uint32_t GPIO, uint32_t GPIONumber)
1281:Drivers/STM32WBxx_HAL_Driver/Inc/stm32wbxx_ll_pwr.h **** {
1282:Drivers/STM32WBxx_HAL_Driver/Inc/stm32wbxx_ll_pwr.h ****   return ((READ_BIT(*((__IO uint32_t *)(GPIO + 4UL)), GPIONumber) == (GPIONumber)) ? 1UL : 0UL);
1283:Drivers/STM32WBxx_HAL_Driver/Inc/stm32wbxx_ll_pwr.h **** }
1284:Drivers/STM32WBxx_HAL_Driver/Inc/stm32wbxx_ll_pwr.h **** 
1285:Drivers/STM32WBxx_HAL_Driver/Inc/stm32wbxx_ll_pwr.h **** #if defined(PWR_CR5_SMPSEN)
1286:Drivers/STM32WBxx_HAL_Driver/Inc/stm32wbxx_ll_pwr.h **** /**
1287:Drivers/STM32WBxx_HAL_Driver/Inc/stm32wbxx_ll_pwr.h ****   * @brief  Set BOR configuration
1288:Drivers/STM32WBxx_HAL_Driver/Inc/stm32wbxx_ll_pwr.h ****   * @rmtoll CR5          BORHC         LL_PWR_SetBORConfig
1289:Drivers/STM32WBxx_HAL_Driver/Inc/stm32wbxx_ll_pwr.h ****   * @param  BORConfiguration This parameter can be one of the following values:
1290:Drivers/STM32WBxx_HAL_Driver/Inc/stm32wbxx_ll_pwr.h ****   *         @arg @ref LL_PWR_BOR_SYSTEM_RESET
1291:Drivers/STM32WBxx_HAL_Driver/Inc/stm32wbxx_ll_pwr.h ****   *         @arg @ref LL_PWR_BOR_SMPS_FORCE_BYPASS
1292:Drivers/STM32WBxx_HAL_Driver/Inc/stm32wbxx_ll_pwr.h ****   */
1293:Drivers/STM32WBxx_HAL_Driver/Inc/stm32wbxx_ll_pwr.h **** __STATIC_INLINE void LL_PWR_SetBORConfig(uint32_t BORConfiguration)
 1278              		.loc 2 1293 22 view .LVU248
 1279              	.LBB59:
1294:Drivers/STM32WBxx_HAL_Driver/Inc/stm32wbxx_ll_pwr.h **** {
1295:Drivers/STM32WBxx_HAL_Driver/Inc/stm32wbxx_ll_pwr.h ****   MODIFY_REG(PWR->CR5, PWR_CR5_BORHC, BORConfiguration);
 1280              		.loc 2 1295 3 view .LVU249
 1281 0000 034A     		ldr	r2, .L119
 1282 0002 D369     		ldr	r3, [r2, #28]
 1283 0004 23F48073 		bic	r3, r3, #256
 1284 0008 1843     		orrs	r0, r0, r3
 1285              	.LVL79:
 1286              		.loc 2 1295 3 is_stmt 0 view .LVU250
 1287 000a D061     		str	r0, [r2, #28]
 1288              	.LVL80:
 1289              		.loc 2 1295 3 view .LVU251
 1290              	.LBE59:
 1291              	.LBE58:
 595:Drivers/STM32WBxx_HAL_Driver/Src/stm32wbxx_hal_pwr_ex.c **** }
 1292              		.loc 1 595 1 view .LVU252
 1293 000c 7047     		bx	lr
 1294              	.L120:
 1295 000e 00BF     		.align	2
 1296              	.L119:
 1297 0010 00040058 		.word	1476396032
 1298              		.cfi_endproc
 1299              	.LFE1128:
 1301              		.section	.text.HAL_PWREx_GetBORConfig,"ax",%progbits
 1302              		.align	1
 1303              		.global	HAL_PWREx_GetBORConfig
ARM GAS  C:\Users\Nathan\AppData\Local\Temp\ccvsgOlc.s 			page 57


 1304              		.syntax unified
 1305              		.thumb
 1306              		.thumb_func
 1308              	HAL_PWREx_GetBORConfig:
 1309              	.LFB1129:
 596:Drivers/STM32WBxx_HAL_Driver/Src/stm32wbxx_hal_pwr_ex.c **** 
 597:Drivers/STM32WBxx_HAL_Driver/Src/stm32wbxx_hal_pwr_ex.c **** /**
 598:Drivers/STM32WBxx_HAL_Driver/Src/stm32wbxx_hal_pwr_ex.c ****   * @brief  Get BOR configuration
 599:Drivers/STM32WBxx_HAL_Driver/Src/stm32wbxx_hal_pwr_ex.c ****   * @retval Returned value can be one of the following values:
 600:Drivers/STM32WBxx_HAL_Driver/Src/stm32wbxx_hal_pwr_ex.c ****   *         @arg @ref PWR_BOR_SYSTEM_RESET
 601:Drivers/STM32WBxx_HAL_Driver/Src/stm32wbxx_hal_pwr_ex.c ****   *         @arg @ref PWR_BOR_SMPS_FORCE_BYPASS
 602:Drivers/STM32WBxx_HAL_Driver/Src/stm32wbxx_hal_pwr_ex.c ****   */
 603:Drivers/STM32WBxx_HAL_Driver/Src/stm32wbxx_hal_pwr_ex.c **** uint32_t HAL_PWREx_GetBORConfig(void)
 604:Drivers/STM32WBxx_HAL_Driver/Src/stm32wbxx_hal_pwr_ex.c **** {
 1310              		.loc 1 604 1 is_stmt 1 view -0
 1311              		.cfi_startproc
 1312              		@ args = 0, pretend = 0, frame = 0
 1313              		@ frame_needed = 0, uses_anonymous_args = 0
 1314              		@ link register save eliminated.
 605:Drivers/STM32WBxx_HAL_Driver/Src/stm32wbxx_hal_pwr_ex.c ****   return LL_PWR_GetBORConfig();
 1315              		.loc 1 605 3 view .LVU254
 1316              	.LBB60:
 1317              	.LBI60:
1296:Drivers/STM32WBxx_HAL_Driver/Inc/stm32wbxx_ll_pwr.h **** }
1297:Drivers/STM32WBxx_HAL_Driver/Inc/stm32wbxx_ll_pwr.h **** 
1298:Drivers/STM32WBxx_HAL_Driver/Inc/stm32wbxx_ll_pwr.h **** /**
1299:Drivers/STM32WBxx_HAL_Driver/Inc/stm32wbxx_ll_pwr.h ****   * @brief  Get BOR configuration
1300:Drivers/STM32WBxx_HAL_Driver/Inc/stm32wbxx_ll_pwr.h ****   * @rmtoll CR5          BORHC         LL_PWR_GetBORConfig
1301:Drivers/STM32WBxx_HAL_Driver/Inc/stm32wbxx_ll_pwr.h ****   * @retval Returned value can be one of the following values:
1302:Drivers/STM32WBxx_HAL_Driver/Inc/stm32wbxx_ll_pwr.h ****   *         @arg @ref LL_PWR_BOR_SYSTEM_RESET
1303:Drivers/STM32WBxx_HAL_Driver/Inc/stm32wbxx_ll_pwr.h ****   *         @arg @ref LL_PWR_BOR_SMPS_FORCE_BYPASS
1304:Drivers/STM32WBxx_HAL_Driver/Inc/stm32wbxx_ll_pwr.h ****   */
1305:Drivers/STM32WBxx_HAL_Driver/Inc/stm32wbxx_ll_pwr.h **** __STATIC_INLINE uint32_t LL_PWR_GetBORConfig(void)
 1318              		.loc 2 1305 26 view .LVU255
 1319              	.LBB61:
1306:Drivers/STM32WBxx_HAL_Driver/Inc/stm32wbxx_ll_pwr.h **** {
1307:Drivers/STM32WBxx_HAL_Driver/Inc/stm32wbxx_ll_pwr.h ****   return (uint32_t)(READ_BIT(PWR->CR5, PWR_CR5_BORHC));
 1320              		.loc 2 1307 3 view .LVU256
 1321              		.loc 2 1307 21 is_stmt 0 view .LVU257
 1322 0000 024B     		ldr	r3, .L122
 1323 0002 D869     		ldr	r0, [r3, #28]
 1324              	.LBE61:
 1325              	.LBE60:
 606:Drivers/STM32WBxx_HAL_Driver/Src/stm32wbxx_hal_pwr_ex.c **** }
 1326              		.loc 1 606 1 view .LVU258
 1327 0004 00F48070 		and	r0, r0, #256
 1328 0008 7047     		bx	lr
 1329              	.L123:
 1330 000a 00BF     		.align	2
 1331              	.L122:
 1332 000c 00040058 		.word	1476396032
 1333              		.cfi_endproc
 1334              	.LFE1129:
 1336              		.section	.text.HAL_PWREx_HoldCore,"ax",%progbits
 1337              		.align	1
 1338              		.global	HAL_PWREx_HoldCore
 1339              		.syntax unified
ARM GAS  C:\Users\Nathan\AppData\Local\Temp\ccvsgOlc.s 			page 58


 1340              		.thumb
 1341              		.thumb_func
 1343              	HAL_PWREx_HoldCore:
 1344              	.LVL81:
 1345              	.LFB1130:
 607:Drivers/STM32WBxx_HAL_Driver/Src/stm32wbxx_hal_pwr_ex.c **** #endif /* PWR_CR5_SMPSEN */
 608:Drivers/STM32WBxx_HAL_Driver/Src/stm32wbxx_hal_pwr_ex.c **** 
 609:Drivers/STM32WBxx_HAL_Driver/Src/stm32wbxx_hal_pwr_ex.c **** /****************************************************************************/
 610:Drivers/STM32WBxx_HAL_Driver/Src/stm32wbxx_hal_pwr_ex.c **** /**
 611:Drivers/STM32WBxx_HAL_Driver/Src/stm32wbxx_hal_pwr_ex.c ****   * @brief  Hold the CPU and their allocated peripherals after reset or wakeup from stop or standby
 612:Drivers/STM32WBxx_HAL_Driver/Src/stm32wbxx_hal_pwr_ex.c ****   * @param  CPU: Specifies the core to be held.
 613:Drivers/STM32WBxx_HAL_Driver/Src/stm32wbxx_hal_pwr_ex.c ****   *              This parameter can be one of the following values:
 614:Drivers/STM32WBxx_HAL_Driver/Src/stm32wbxx_hal_pwr_ex.c ****   *             @arg PWR_CORE_CPU2: Hold CPU2 and set CPU1 as master.
 615:Drivers/STM32WBxx_HAL_Driver/Src/stm32wbxx_hal_pwr_ex.c ****   * @note   Hold CPU2 with CPU1 as master by default.
 616:Drivers/STM32WBxx_HAL_Driver/Src/stm32wbxx_hal_pwr_ex.c ****   * @retval None
 617:Drivers/STM32WBxx_HAL_Driver/Src/stm32wbxx_hal_pwr_ex.c ****   */
 618:Drivers/STM32WBxx_HAL_Driver/Src/stm32wbxx_hal_pwr_ex.c **** void HAL_PWREx_HoldCore(uint32_t CPU)
 619:Drivers/STM32WBxx_HAL_Driver/Src/stm32wbxx_hal_pwr_ex.c **** {
 1346              		.loc 1 619 1 is_stmt 1 view -0
 1347              		.cfi_startproc
 1348              		@ args = 0, pretend = 0, frame = 0
 1349              		@ frame_needed = 0, uses_anonymous_args = 0
