ARM GAS  C:\Users\Nathan\AppData\Local\Temp\ccwtEZa1.s 			page 1


   1              		.cpu cortex-m4
   2              		.arch armv7e-m
   3              		.fpu fpv4-sp-d16
   4              		.eabi_attribute 27, 1
   5              		.eabi_attribute 28, 1
   6              		.eabi_attribute 20, 1
   7              		.eabi_attribute 21, 1
   8              		.eabi_attribute 23, 3
   9              		.eabi_attribute 24, 1
  10              		.eabi_attribute 25, 1
  11              		.eabi_attribute 26, 1
  12              		.eabi_attribute 30, 1
  13              		.eabi_attribute 34, 1
  14              		.eabi_attribute 18, 4
  15              		.file	"stm32wbxx_hal_dma.c"
  16              		.text
  17              	.Ltext0:
  18              		.cfi_sections	.debug_frame
  19              		.file 1 "Drivers/STM32WBxx_HAL_Driver/Src/stm32wbxx_hal_dma.c"
  20              		.section	.text.DMA_SetConfig,"ax",%progbits
  21              		.align	1
  22              		.syntax unified
  23              		.thumb
  24              		.thumb_func
  26              	DMA_SetConfig:
  27              	.LVL0:
  28              	.LFB1116:
   1:Drivers/STM32WBxx_HAL_Driver/Src/stm32wbxx_hal_dma.c **** /**
   2:Drivers/STM32WBxx_HAL_Driver/Src/stm32wbxx_hal_dma.c ****   ******************************************************************************
   3:Drivers/STM32WBxx_HAL_Driver/Src/stm32wbxx_hal_dma.c ****   * @file    stm32wbxx_hal_dma.c
   4:Drivers/STM32WBxx_HAL_Driver/Src/stm32wbxx_hal_dma.c ****   * @author  MCD Application Team
   5:Drivers/STM32WBxx_HAL_Driver/Src/stm32wbxx_hal_dma.c ****   * @brief   DMA HAL module driver.
   6:Drivers/STM32WBxx_HAL_Driver/Src/stm32wbxx_hal_dma.c ****   *         This file provides firmware functions to manage the following
   7:Drivers/STM32WBxx_HAL_Driver/Src/stm32wbxx_hal_dma.c ****   *         functionalities of the Direct Memory Access (DMA) peripheral:
   8:Drivers/STM32WBxx_HAL_Driver/Src/stm32wbxx_hal_dma.c ****   *           + Initialization and de-initialization functions
   9:Drivers/STM32WBxx_HAL_Driver/Src/stm32wbxx_hal_dma.c ****   *           + IO operation functions
  10:Drivers/STM32WBxx_HAL_Driver/Src/stm32wbxx_hal_dma.c ****   *           + Peripheral State and errors functions
  11:Drivers/STM32WBxx_HAL_Driver/Src/stm32wbxx_hal_dma.c ****   ******************************************************************************
  12:Drivers/STM32WBxx_HAL_Driver/Src/stm32wbxx_hal_dma.c ****   * @attention
  13:Drivers/STM32WBxx_HAL_Driver/Src/stm32wbxx_hal_dma.c ****   *
  14:Drivers/STM32WBxx_HAL_Driver/Src/stm32wbxx_hal_dma.c ****   * Copyright (c) 2019 STMicroelectronics.
  15:Drivers/STM32WBxx_HAL_Driver/Src/stm32wbxx_hal_dma.c ****   * All rights reserved.
  16:Drivers/STM32WBxx_HAL_Driver/Src/stm32wbxx_hal_dma.c ****   *
  17:Drivers/STM32WBxx_HAL_Driver/Src/stm32wbxx_hal_dma.c ****   * This software is licensed under terms that can be found in the LICENSE file
  18:Drivers/STM32WBxx_HAL_Driver/Src/stm32wbxx_hal_dma.c ****   * in the root directory of this software component.
  19:Drivers/STM32WBxx_HAL_Driver/Src/stm32wbxx_hal_dma.c ****   * If no LICENSE file comes with this software, it is provided AS-IS.
  20:Drivers/STM32WBxx_HAL_Driver/Src/stm32wbxx_hal_dma.c ****   *
  21:Drivers/STM32WBxx_HAL_Driver/Src/stm32wbxx_hal_dma.c ****   ******************************************************************************
  22:Drivers/STM32WBxx_HAL_Driver/Src/stm32wbxx_hal_dma.c ****   @verbatim
  23:Drivers/STM32WBxx_HAL_Driver/Src/stm32wbxx_hal_dma.c ****   ==============================================================================
  24:Drivers/STM32WBxx_HAL_Driver/Src/stm32wbxx_hal_dma.c ****                         ##### How to use this driver #####
  25:Drivers/STM32WBxx_HAL_Driver/Src/stm32wbxx_hal_dma.c ****   ==============================================================================
  26:Drivers/STM32WBxx_HAL_Driver/Src/stm32wbxx_hal_dma.c ****   [..]
  27:Drivers/STM32WBxx_HAL_Driver/Src/stm32wbxx_hal_dma.c ****    (#) Enable and configure the peripheral to be connected to the DMA Channel
  28:Drivers/STM32WBxx_HAL_Driver/Src/stm32wbxx_hal_dma.c ****        (except for internal SRAM / FLASH memories: no initialization is
  29:Drivers/STM32WBxx_HAL_Driver/Src/stm32wbxx_hal_dma.c ****        necessary). Please refer to the Reference manual for connection between peripherals
  30:Drivers/STM32WBxx_HAL_Driver/Src/stm32wbxx_hal_dma.c ****        and DMA requests.
ARM GAS  C:\Users\Nathan\AppData\Local\Temp\ccwtEZa1.s 			page 2


  31:Drivers/STM32WBxx_HAL_Driver/Src/stm32wbxx_hal_dma.c **** 
  32:Drivers/STM32WBxx_HAL_Driver/Src/stm32wbxx_hal_dma.c ****    (#) For a given Channel, program the required configuration through the following parameters:
  33:Drivers/STM32WBxx_HAL_Driver/Src/stm32wbxx_hal_dma.c ****        Channel request, Transfer Direction, Source and Destination data formats,
  34:Drivers/STM32WBxx_HAL_Driver/Src/stm32wbxx_hal_dma.c ****        Circular or Normal mode, Channel Priority level, Source and Destination Increment mode
  35:Drivers/STM32WBxx_HAL_Driver/Src/stm32wbxx_hal_dma.c ****        using HAL_DMA_Init() function.
  36:Drivers/STM32WBxx_HAL_Driver/Src/stm32wbxx_hal_dma.c **** 
  37:Drivers/STM32WBxx_HAL_Driver/Src/stm32wbxx_hal_dma.c ****        Prior to HAL_DMA_Init the peripheral clock shall be enabled for both DMA & DMAMUX
  38:Drivers/STM32WBxx_HAL_Driver/Src/stm32wbxx_hal_dma.c ****        thanks to:
  39:Drivers/STM32WBxx_HAL_Driver/Src/stm32wbxx_hal_dma.c ****       (##) DMA1 or DMA2: __HAL_RCC_DMA1_CLK_ENABLE() or  __HAL_RCC_DMA2_CLK_ENABLE() ;
  40:Drivers/STM32WBxx_HAL_Driver/Src/stm32wbxx_hal_dma.c ****       (##) DMAMUX1:      __HAL_RCC_DMAMUX1_CLK_ENABLE();
  41:Drivers/STM32WBxx_HAL_Driver/Src/stm32wbxx_hal_dma.c **** 
  42:Drivers/STM32WBxx_HAL_Driver/Src/stm32wbxx_hal_dma.c ****    (#) Use HAL_DMA_GetState() function to return the DMA state and HAL_DMA_GetError() in case of er
  43:Drivers/STM32WBxx_HAL_Driver/Src/stm32wbxx_hal_dma.c ****        detection.
  44:Drivers/STM32WBxx_HAL_Driver/Src/stm32wbxx_hal_dma.c **** 
  45:Drivers/STM32WBxx_HAL_Driver/Src/stm32wbxx_hal_dma.c ****    (#) Use HAL_DMA_Abort() function to abort the current transfer
  46:Drivers/STM32WBxx_HAL_Driver/Src/stm32wbxx_hal_dma.c **** 
  47:Drivers/STM32WBxx_HAL_Driver/Src/stm32wbxx_hal_dma.c ****      -@-   In Memory-to-Memory transfer mode, Circular mode is not allowed.
  48:Drivers/STM32WBxx_HAL_Driver/Src/stm32wbxx_hal_dma.c **** 
  49:Drivers/STM32WBxx_HAL_Driver/Src/stm32wbxx_hal_dma.c ****      *** Polling mode IO operation ***
  50:Drivers/STM32WBxx_HAL_Driver/Src/stm32wbxx_hal_dma.c ****      =================================
  51:Drivers/STM32WBxx_HAL_Driver/Src/stm32wbxx_hal_dma.c ****     [..]
  52:Drivers/STM32WBxx_HAL_Driver/Src/stm32wbxx_hal_dma.c ****           (+) Use HAL_DMA_Start() to start DMA transfer after the configuration of Source
  53:Drivers/STM32WBxx_HAL_Driver/Src/stm32wbxx_hal_dma.c ****               address and destination address and the Length of data to be transferred
  54:Drivers/STM32WBxx_HAL_Driver/Src/stm32wbxx_hal_dma.c ****           (+) Use HAL_DMA_PollForTransfer() to poll for the end of current transfer, in this
  55:Drivers/STM32WBxx_HAL_Driver/Src/stm32wbxx_hal_dma.c ****               case a fixed Timeout can be configured by User depending from his application.
  56:Drivers/STM32WBxx_HAL_Driver/Src/stm32wbxx_hal_dma.c **** 
  57:Drivers/STM32WBxx_HAL_Driver/Src/stm32wbxx_hal_dma.c ****      *** Interrupt mode IO operation ***
  58:Drivers/STM32WBxx_HAL_Driver/Src/stm32wbxx_hal_dma.c ****      ===================================
  59:Drivers/STM32WBxx_HAL_Driver/Src/stm32wbxx_hal_dma.c ****     [..]
  60:Drivers/STM32WBxx_HAL_Driver/Src/stm32wbxx_hal_dma.c ****           (+) Configure the DMA interrupt priority using HAL_NVIC_SetPriority()
  61:Drivers/STM32WBxx_HAL_Driver/Src/stm32wbxx_hal_dma.c ****           (+) Enable the DMA IRQ handler using HAL_NVIC_EnableIRQ()
  62:Drivers/STM32WBxx_HAL_Driver/Src/stm32wbxx_hal_dma.c ****           (+) Use HAL_DMA_Start_IT() to start DMA transfer after the configuration of
  63:Drivers/STM32WBxx_HAL_Driver/Src/stm32wbxx_hal_dma.c ****               Source address and destination address and the Length of data to be transferred.
  64:Drivers/STM32WBxx_HAL_Driver/Src/stm32wbxx_hal_dma.c ****               In this case the DMA interrupt is configured
  65:Drivers/STM32WBxx_HAL_Driver/Src/stm32wbxx_hal_dma.c ****           (+) Use HAL_DMA_IRQHandler() called under DMA_IRQHandler() Interrupt subroutine
  66:Drivers/STM32WBxx_HAL_Driver/Src/stm32wbxx_hal_dma.c ****           (+) At the end of data transfer HAL_DMA_IRQHandler() function is executed and user can
  67:Drivers/STM32WBxx_HAL_Driver/Src/stm32wbxx_hal_dma.c ****               add his own function to register callbacks with HAL_DMA_RegisterCallback().
  68:Drivers/STM32WBxx_HAL_Driver/Src/stm32wbxx_hal_dma.c **** 
  69:Drivers/STM32WBxx_HAL_Driver/Src/stm32wbxx_hal_dma.c ****      *** DMA HAL driver macros list ***
  70:Drivers/STM32WBxx_HAL_Driver/Src/stm32wbxx_hal_dma.c ****      =============================================
  71:Drivers/STM32WBxx_HAL_Driver/Src/stm32wbxx_hal_dma.c ****       [..]
  72:Drivers/STM32WBxx_HAL_Driver/Src/stm32wbxx_hal_dma.c ****        Below the list of macros in DMA HAL driver.
  73:Drivers/STM32WBxx_HAL_Driver/Src/stm32wbxx_hal_dma.c **** 
  74:Drivers/STM32WBxx_HAL_Driver/Src/stm32wbxx_hal_dma.c ****        (+) __HAL_DMA_ENABLE: Enable the specified DMA Channel.
  75:Drivers/STM32WBxx_HAL_Driver/Src/stm32wbxx_hal_dma.c ****        (+) __HAL_DMA_DISABLE: Disable the specified DMA Channel.
  76:Drivers/STM32WBxx_HAL_Driver/Src/stm32wbxx_hal_dma.c ****        (+) __HAL_DMA_GET_FLAG: Get the DMA Channel pending flags.
  77:Drivers/STM32WBxx_HAL_Driver/Src/stm32wbxx_hal_dma.c ****        (+) __HAL_DMA_CLEAR_FLAG: Clear the DMA Channel pending flags.
  78:Drivers/STM32WBxx_HAL_Driver/Src/stm32wbxx_hal_dma.c ****        (+) __HAL_DMA_ENABLE_IT: Enable the specified DMA Channel interrupts.
  79:Drivers/STM32WBxx_HAL_Driver/Src/stm32wbxx_hal_dma.c ****        (+) __HAL_DMA_DISABLE_IT: Disable the specified DMA Channel interrupts.
  80:Drivers/STM32WBxx_HAL_Driver/Src/stm32wbxx_hal_dma.c ****        (+) __HAL_DMA_GET_IT_SOURCE: Check whether the specified DMA Channel interrupt is enabled or
  81:Drivers/STM32WBxx_HAL_Driver/Src/stm32wbxx_hal_dma.c **** 
  82:Drivers/STM32WBxx_HAL_Driver/Src/stm32wbxx_hal_dma.c ****      [..]
  83:Drivers/STM32WBxx_HAL_Driver/Src/stm32wbxx_hal_dma.c ****       (@) You can refer to the DMA HAL driver header file for more useful macros
  84:Drivers/STM32WBxx_HAL_Driver/Src/stm32wbxx_hal_dma.c **** 
  85:Drivers/STM32WBxx_HAL_Driver/Src/stm32wbxx_hal_dma.c ****   @endverbatim
  86:Drivers/STM32WBxx_HAL_Driver/Src/stm32wbxx_hal_dma.c ****   ******************************************************************************
  87:Drivers/STM32WBxx_HAL_Driver/Src/stm32wbxx_hal_dma.c ****   */
ARM GAS  C:\Users\Nathan\AppData\Local\Temp\ccwtEZa1.s 			page 3


  88:Drivers/STM32WBxx_HAL_Driver/Src/stm32wbxx_hal_dma.c **** 
  89:Drivers/STM32WBxx_HAL_Driver/Src/stm32wbxx_hal_dma.c **** /* Includes ------------------------------------------------------------------*/
  90:Drivers/STM32WBxx_HAL_Driver/Src/stm32wbxx_hal_dma.c **** #include "stm32wbxx_hal.h"
  91:Drivers/STM32WBxx_HAL_Driver/Src/stm32wbxx_hal_dma.c **** 
  92:Drivers/STM32WBxx_HAL_Driver/Src/stm32wbxx_hal_dma.c **** /** @addtogroup STM32WBxx_HAL_Driver
  93:Drivers/STM32WBxx_HAL_Driver/Src/stm32wbxx_hal_dma.c ****   * @{
  94:Drivers/STM32WBxx_HAL_Driver/Src/stm32wbxx_hal_dma.c ****   */
  95:Drivers/STM32WBxx_HAL_Driver/Src/stm32wbxx_hal_dma.c **** 
  96:Drivers/STM32WBxx_HAL_Driver/Src/stm32wbxx_hal_dma.c **** /** @defgroup DMA DMA
  97:Drivers/STM32WBxx_HAL_Driver/Src/stm32wbxx_hal_dma.c ****   * @brief DMA HAL module driver
  98:Drivers/STM32WBxx_HAL_Driver/Src/stm32wbxx_hal_dma.c ****   * @{
  99:Drivers/STM32WBxx_HAL_Driver/Src/stm32wbxx_hal_dma.c ****   */
 100:Drivers/STM32WBxx_HAL_Driver/Src/stm32wbxx_hal_dma.c **** 
 101:Drivers/STM32WBxx_HAL_Driver/Src/stm32wbxx_hal_dma.c **** #ifdef HAL_DMA_MODULE_ENABLED
 102:Drivers/STM32WBxx_HAL_Driver/Src/stm32wbxx_hal_dma.c **** 
 103:Drivers/STM32WBxx_HAL_Driver/Src/stm32wbxx_hal_dma.c **** /* Private typedef -----------------------------------------------------------*/
 104:Drivers/STM32WBxx_HAL_Driver/Src/stm32wbxx_hal_dma.c **** /* Private define ------------------------------------------------------------*/
 105:Drivers/STM32WBxx_HAL_Driver/Src/stm32wbxx_hal_dma.c **** /* Private macro -------------------------------------------------------------*/
 106:Drivers/STM32WBxx_HAL_Driver/Src/stm32wbxx_hal_dma.c **** /* Private variables ---------------------------------------------------------*/
 107:Drivers/STM32WBxx_HAL_Driver/Src/stm32wbxx_hal_dma.c **** /* Private function prototypes -----------------------------------------------*/
 108:Drivers/STM32WBxx_HAL_Driver/Src/stm32wbxx_hal_dma.c **** /** @defgroup DMA_Private_Functions DMA Private Functions
 109:Drivers/STM32WBxx_HAL_Driver/Src/stm32wbxx_hal_dma.c ****   * @{
 110:Drivers/STM32WBxx_HAL_Driver/Src/stm32wbxx_hal_dma.c ****   */
 111:Drivers/STM32WBxx_HAL_Driver/Src/stm32wbxx_hal_dma.c **** static void DMA_SetConfig(DMA_HandleTypeDef *hdma, uint32_t SrcAddress, uint32_t DstAddress, uint32
 112:Drivers/STM32WBxx_HAL_Driver/Src/stm32wbxx_hal_dma.c **** static void DMA_CalcDMAMUXChannelBaseAndMask(DMA_HandleTypeDef *hdma);
 113:Drivers/STM32WBxx_HAL_Driver/Src/stm32wbxx_hal_dma.c **** static void DMA_CalcDMAMUXRequestGenBaseAndMask(DMA_HandleTypeDef *hdma);
 114:Drivers/STM32WBxx_HAL_Driver/Src/stm32wbxx_hal_dma.c **** 
 115:Drivers/STM32WBxx_HAL_Driver/Src/stm32wbxx_hal_dma.c **** /**
 116:Drivers/STM32WBxx_HAL_Driver/Src/stm32wbxx_hal_dma.c ****   * @}
 117:Drivers/STM32WBxx_HAL_Driver/Src/stm32wbxx_hal_dma.c ****   */
 118:Drivers/STM32WBxx_HAL_Driver/Src/stm32wbxx_hal_dma.c **** 
 119:Drivers/STM32WBxx_HAL_Driver/Src/stm32wbxx_hal_dma.c **** /* Exported functions ---------------------------------------------------------*/
 120:Drivers/STM32WBxx_HAL_Driver/Src/stm32wbxx_hal_dma.c **** 
 121:Drivers/STM32WBxx_HAL_Driver/Src/stm32wbxx_hal_dma.c **** /** @defgroup DMA_Exported_Functions DMA Exported Functions
 122:Drivers/STM32WBxx_HAL_Driver/Src/stm32wbxx_hal_dma.c ****   * @{
 123:Drivers/STM32WBxx_HAL_Driver/Src/stm32wbxx_hal_dma.c ****   */
 124:Drivers/STM32WBxx_HAL_Driver/Src/stm32wbxx_hal_dma.c **** 
 125:Drivers/STM32WBxx_HAL_Driver/Src/stm32wbxx_hal_dma.c **** /** @defgroup DMA_Exported_Functions_Group1 Initialization and de-initialization functions
 126:Drivers/STM32WBxx_HAL_Driver/Src/stm32wbxx_hal_dma.c ****   *  @brief   Initialization and de-initialization functions
 127:Drivers/STM32WBxx_HAL_Driver/Src/stm32wbxx_hal_dma.c ****   *
 128:Drivers/STM32WBxx_HAL_Driver/Src/stm32wbxx_hal_dma.c **** @verbatim
 129:Drivers/STM32WBxx_HAL_Driver/Src/stm32wbxx_hal_dma.c ****  ===============================================================================
 130:Drivers/STM32WBxx_HAL_Driver/Src/stm32wbxx_hal_dma.c ****              ##### Initialization and de-initialization functions  #####
 131:Drivers/STM32WBxx_HAL_Driver/Src/stm32wbxx_hal_dma.c ****  ===============================================================================
 132:Drivers/STM32WBxx_HAL_Driver/Src/stm32wbxx_hal_dma.c ****     [..]
 133:Drivers/STM32WBxx_HAL_Driver/Src/stm32wbxx_hal_dma.c ****     This section provides functions allowing to initialize the DMA Channel source
 134:Drivers/STM32WBxx_HAL_Driver/Src/stm32wbxx_hal_dma.c ****     and destination addresses, incrementation and data sizes, transfer direction,
 135:Drivers/STM32WBxx_HAL_Driver/Src/stm32wbxx_hal_dma.c ****     circular/normal mode selection, memory-to-memory mode selection and Channel priority value.
 136:Drivers/STM32WBxx_HAL_Driver/Src/stm32wbxx_hal_dma.c ****     [..]
 137:Drivers/STM32WBxx_HAL_Driver/Src/stm32wbxx_hal_dma.c ****     The HAL_DMA_Init() function follows the DMA configuration procedures as described in
 138:Drivers/STM32WBxx_HAL_Driver/Src/stm32wbxx_hal_dma.c ****     reference manual.
 139:Drivers/STM32WBxx_HAL_Driver/Src/stm32wbxx_hal_dma.c **** 
 140:Drivers/STM32WBxx_HAL_Driver/Src/stm32wbxx_hal_dma.c **** @endverbatim
 141:Drivers/STM32WBxx_HAL_Driver/Src/stm32wbxx_hal_dma.c ****   * @{
 142:Drivers/STM32WBxx_HAL_Driver/Src/stm32wbxx_hal_dma.c ****   */
 143:Drivers/STM32WBxx_HAL_Driver/Src/stm32wbxx_hal_dma.c **** 
 144:Drivers/STM32WBxx_HAL_Driver/Src/stm32wbxx_hal_dma.c **** /**
ARM GAS  C:\Users\Nathan\AppData\Local\Temp\ccwtEZa1.s 			page 4


 145:Drivers/STM32WBxx_HAL_Driver/Src/stm32wbxx_hal_dma.c ****   * @brief  Initialize the DMA according to the specified
 146:Drivers/STM32WBxx_HAL_Driver/Src/stm32wbxx_hal_dma.c ****   *         parameters in the DMA_InitTypeDef and initialize the associated handle.
 147:Drivers/STM32WBxx_HAL_Driver/Src/stm32wbxx_hal_dma.c ****   * @param hdma Pointer to a DMA_HandleTypeDef structure that contains
 148:Drivers/STM32WBxx_HAL_Driver/Src/stm32wbxx_hal_dma.c ****   *               the configuration information for the specified DMA Channel.
 149:Drivers/STM32WBxx_HAL_Driver/Src/stm32wbxx_hal_dma.c ****   * @retval HAL status
 150:Drivers/STM32WBxx_HAL_Driver/Src/stm32wbxx_hal_dma.c ****   */
 151:Drivers/STM32WBxx_HAL_Driver/Src/stm32wbxx_hal_dma.c **** HAL_StatusTypeDef HAL_DMA_Init(DMA_HandleTypeDef *hdma)
 152:Drivers/STM32WBxx_HAL_Driver/Src/stm32wbxx_hal_dma.c **** {
 153:Drivers/STM32WBxx_HAL_Driver/Src/stm32wbxx_hal_dma.c ****   uint32_t tmp;
 154:Drivers/STM32WBxx_HAL_Driver/Src/stm32wbxx_hal_dma.c **** 
 155:Drivers/STM32WBxx_HAL_Driver/Src/stm32wbxx_hal_dma.c ****   /* Check the DMA handle allocation */
 156:Drivers/STM32WBxx_HAL_Driver/Src/stm32wbxx_hal_dma.c ****   if (hdma == NULL)
 157:Drivers/STM32WBxx_HAL_Driver/Src/stm32wbxx_hal_dma.c ****   {
 158:Drivers/STM32WBxx_HAL_Driver/Src/stm32wbxx_hal_dma.c ****     return HAL_ERROR;
 159:Drivers/STM32WBxx_HAL_Driver/Src/stm32wbxx_hal_dma.c ****   }
 160:Drivers/STM32WBxx_HAL_Driver/Src/stm32wbxx_hal_dma.c **** 
 161:Drivers/STM32WBxx_HAL_Driver/Src/stm32wbxx_hal_dma.c ****   /* Check the parameters */
 162:Drivers/STM32WBxx_HAL_Driver/Src/stm32wbxx_hal_dma.c ****   assert_param(IS_DMA_ALL_INSTANCE(hdma->Instance));
 163:Drivers/STM32WBxx_HAL_Driver/Src/stm32wbxx_hal_dma.c ****   assert_param(IS_DMA_DIRECTION(hdma->Init.Direction));
 164:Drivers/STM32WBxx_HAL_Driver/Src/stm32wbxx_hal_dma.c ****   assert_param(IS_DMA_PERIPHERAL_INC_STATE(hdma->Init.PeriphInc));
 165:Drivers/STM32WBxx_HAL_Driver/Src/stm32wbxx_hal_dma.c ****   assert_param(IS_DMA_MEMORY_INC_STATE(hdma->Init.MemInc));
 166:Drivers/STM32WBxx_HAL_Driver/Src/stm32wbxx_hal_dma.c ****   assert_param(IS_DMA_PERIPHERAL_DATA_SIZE(hdma->Init.PeriphDataAlignment));
 167:Drivers/STM32WBxx_HAL_Driver/Src/stm32wbxx_hal_dma.c ****   assert_param(IS_DMA_MEMORY_DATA_SIZE(hdma->Init.MemDataAlignment));
 168:Drivers/STM32WBxx_HAL_Driver/Src/stm32wbxx_hal_dma.c ****   assert_param(IS_DMA_MODE(hdma->Init.Mode));
 169:Drivers/STM32WBxx_HAL_Driver/Src/stm32wbxx_hal_dma.c ****   assert_param(IS_DMA_PRIORITY(hdma->Init.Priority));
 170:Drivers/STM32WBxx_HAL_Driver/Src/stm32wbxx_hal_dma.c **** 
 171:Drivers/STM32WBxx_HAL_Driver/Src/stm32wbxx_hal_dma.c ****   assert_param(IS_DMA_ALL_REQUEST(hdma->Init.Request));
 172:Drivers/STM32WBxx_HAL_Driver/Src/stm32wbxx_hal_dma.c **** 
 173:Drivers/STM32WBxx_HAL_Driver/Src/stm32wbxx_hal_dma.c **** #if defined(DMA2)
 174:Drivers/STM32WBxx_HAL_Driver/Src/stm32wbxx_hal_dma.c ****   /* Compute the channel index */
 175:Drivers/STM32WBxx_HAL_Driver/Src/stm32wbxx_hal_dma.c ****   if ((uint32_t)(hdma->Instance) < (uint32_t)(DMA2_Channel1))
 176:Drivers/STM32WBxx_HAL_Driver/Src/stm32wbxx_hal_dma.c ****   {
 177:Drivers/STM32WBxx_HAL_Driver/Src/stm32wbxx_hal_dma.c ****     /* DMA1 */
 178:Drivers/STM32WBxx_HAL_Driver/Src/stm32wbxx_hal_dma.c ****     hdma->ChannelIndex = (((uint32_t)hdma->Instance - (uint32_t)DMA1_Channel1) / ((uint32_t)DMA1_Ch
 179:Drivers/STM32WBxx_HAL_Driver/Src/stm32wbxx_hal_dma.c ****     hdma->DmaBaseAddress = DMA1;
 180:Drivers/STM32WBxx_HAL_Driver/Src/stm32wbxx_hal_dma.c ****   }
 181:Drivers/STM32WBxx_HAL_Driver/Src/stm32wbxx_hal_dma.c ****   else
 182:Drivers/STM32WBxx_HAL_Driver/Src/stm32wbxx_hal_dma.c ****   {
 183:Drivers/STM32WBxx_HAL_Driver/Src/stm32wbxx_hal_dma.c ****     /* DMA2 */
 184:Drivers/STM32WBxx_HAL_Driver/Src/stm32wbxx_hal_dma.c ****     hdma->ChannelIndex = (((uint32_t)hdma->Instance - (uint32_t)DMA2_Channel1) / ((uint32_t)DMA2_Ch
 185:Drivers/STM32WBxx_HAL_Driver/Src/stm32wbxx_hal_dma.c ****     hdma->DmaBaseAddress = DMA2;
 186:Drivers/STM32WBxx_HAL_Driver/Src/stm32wbxx_hal_dma.c ****   }
 187:Drivers/STM32WBxx_HAL_Driver/Src/stm32wbxx_hal_dma.c **** #else
 188:Drivers/STM32WBxx_HAL_Driver/Src/stm32wbxx_hal_dma.c ****   /* DMA1 */
 189:Drivers/STM32WBxx_HAL_Driver/Src/stm32wbxx_hal_dma.c ****   hdma->ChannelIndex = (((uint32_t)hdma->Instance - (uint32_t)DMA1_Channel1) / ((uint32_t)DMA1_Chan
 190:Drivers/STM32WBxx_HAL_Driver/Src/stm32wbxx_hal_dma.c ****   hdma->DmaBaseAddress = DMA1;
 191:Drivers/STM32WBxx_HAL_Driver/Src/stm32wbxx_hal_dma.c **** #endif /* DMA2 */
 192:Drivers/STM32WBxx_HAL_Driver/Src/stm32wbxx_hal_dma.c **** 
 193:Drivers/STM32WBxx_HAL_Driver/Src/stm32wbxx_hal_dma.c ****   /* Change DMA peripheral state */
 194:Drivers/STM32WBxx_HAL_Driver/Src/stm32wbxx_hal_dma.c ****   hdma->State = HAL_DMA_STATE_BUSY;
 195:Drivers/STM32WBxx_HAL_Driver/Src/stm32wbxx_hal_dma.c **** 
 196:Drivers/STM32WBxx_HAL_Driver/Src/stm32wbxx_hal_dma.c ****   /* Get the CR register value */
 197:Drivers/STM32WBxx_HAL_Driver/Src/stm32wbxx_hal_dma.c ****   tmp = hdma->Instance->CCR;
 198:Drivers/STM32WBxx_HAL_Driver/Src/stm32wbxx_hal_dma.c **** 
 199:Drivers/STM32WBxx_HAL_Driver/Src/stm32wbxx_hal_dma.c ****   /* Clear PL, MSIZE, PSIZE, MINC, PINC, CIRC, DIR and MEM2MEM bits */
 200:Drivers/STM32WBxx_HAL_Driver/Src/stm32wbxx_hal_dma.c ****   tmp &= ((uint32_t)~(DMA_CCR_PL    | DMA_CCR_MSIZE  | DMA_CCR_PSIZE  |
 201:Drivers/STM32WBxx_HAL_Driver/Src/stm32wbxx_hal_dma.c ****                       DMA_CCR_MINC  | DMA_CCR_PINC   | DMA_CCR_CIRC   |
ARM GAS  C:\Users\Nathan\AppData\Local\Temp\ccwtEZa1.s 			page 5


 202:Drivers/STM32WBxx_HAL_Driver/Src/stm32wbxx_hal_dma.c ****                       DMA_CCR_DIR   | DMA_CCR_MEM2MEM));
 203:Drivers/STM32WBxx_HAL_Driver/Src/stm32wbxx_hal_dma.c **** 
 204:Drivers/STM32WBxx_HAL_Driver/Src/stm32wbxx_hal_dma.c ****   /* Prepare the DMA Channel configuration */
 205:Drivers/STM32WBxx_HAL_Driver/Src/stm32wbxx_hal_dma.c ****   tmp |=  hdma->Init.Direction        |
 206:Drivers/STM32WBxx_HAL_Driver/Src/stm32wbxx_hal_dma.c ****           hdma->Init.PeriphInc           | hdma->Init.MemInc           |
 207:Drivers/STM32WBxx_HAL_Driver/Src/stm32wbxx_hal_dma.c ****           hdma->Init.PeriphDataAlignment | hdma->Init.MemDataAlignment |
 208:Drivers/STM32WBxx_HAL_Driver/Src/stm32wbxx_hal_dma.c ****           hdma->Init.Mode                | hdma->Init.Priority;
 209:Drivers/STM32WBxx_HAL_Driver/Src/stm32wbxx_hal_dma.c **** 
 210:Drivers/STM32WBxx_HAL_Driver/Src/stm32wbxx_hal_dma.c ****   /* Write to DMA Channel CR register */
 211:Drivers/STM32WBxx_HAL_Driver/Src/stm32wbxx_hal_dma.c ****   hdma->Instance->CCR = tmp;
 212:Drivers/STM32WBxx_HAL_Driver/Src/stm32wbxx_hal_dma.c **** 
 213:Drivers/STM32WBxx_HAL_Driver/Src/stm32wbxx_hal_dma.c ****   /* Initialize parameters for DMAMUX channel :
 214:Drivers/STM32WBxx_HAL_Driver/Src/stm32wbxx_hal_dma.c ****      DMAmuxChannel, DMAmuxChannelStatus and DMAmuxChannelStatusMask
 215:Drivers/STM32WBxx_HAL_Driver/Src/stm32wbxx_hal_dma.c ****   */
 216:Drivers/STM32WBxx_HAL_Driver/Src/stm32wbxx_hal_dma.c ****   DMA_CalcDMAMUXChannelBaseAndMask(hdma);
 217:Drivers/STM32WBxx_HAL_Driver/Src/stm32wbxx_hal_dma.c **** 
 218:Drivers/STM32WBxx_HAL_Driver/Src/stm32wbxx_hal_dma.c ****   if (hdma->Init.Direction == DMA_MEMORY_TO_MEMORY)
 219:Drivers/STM32WBxx_HAL_Driver/Src/stm32wbxx_hal_dma.c ****   {
 220:Drivers/STM32WBxx_HAL_Driver/Src/stm32wbxx_hal_dma.c ****     /* if memory to memory force the request to 0*/
 221:Drivers/STM32WBxx_HAL_Driver/Src/stm32wbxx_hal_dma.c ****     hdma->Init.Request = DMA_REQUEST_MEM2MEM;
 222:Drivers/STM32WBxx_HAL_Driver/Src/stm32wbxx_hal_dma.c ****   }
 223:Drivers/STM32WBxx_HAL_Driver/Src/stm32wbxx_hal_dma.c **** 
 224:Drivers/STM32WBxx_HAL_Driver/Src/stm32wbxx_hal_dma.c ****   /* Set peripheral request  to DMAMUX channel */
 225:Drivers/STM32WBxx_HAL_Driver/Src/stm32wbxx_hal_dma.c ****   hdma->DMAmuxChannel->CCR = (hdma->Init.Request & DMAMUX_CxCR_DMAREQ_ID);
 226:Drivers/STM32WBxx_HAL_Driver/Src/stm32wbxx_hal_dma.c **** 
 227:Drivers/STM32WBxx_HAL_Driver/Src/stm32wbxx_hal_dma.c ****   /* Clear the DMAMUX synchro overrun flag */
 228:Drivers/STM32WBxx_HAL_Driver/Src/stm32wbxx_hal_dma.c ****   hdma->DMAmuxChannelStatus->CFR = hdma->DMAmuxChannelStatusMask;
 229:Drivers/STM32WBxx_HAL_Driver/Src/stm32wbxx_hal_dma.c **** 
 230:Drivers/STM32WBxx_HAL_Driver/Src/stm32wbxx_hal_dma.c ****   if (((hdma->Init.Request >  0U) && (hdma->Init.Request <= DMA_REQUEST_GENERATOR3)))
 231:Drivers/STM32WBxx_HAL_Driver/Src/stm32wbxx_hal_dma.c ****   {
 232:Drivers/STM32WBxx_HAL_Driver/Src/stm32wbxx_hal_dma.c ****     /* Initialize parameters for DMAMUX request generator :
 233:Drivers/STM32WBxx_HAL_Driver/Src/stm32wbxx_hal_dma.c ****        DMAmuxRequestGen, DMAmuxRequestGenStatus and DMAmuxRequestGenStatusMask
 234:Drivers/STM32WBxx_HAL_Driver/Src/stm32wbxx_hal_dma.c ****     */
 235:Drivers/STM32WBxx_HAL_Driver/Src/stm32wbxx_hal_dma.c ****     DMA_CalcDMAMUXRequestGenBaseAndMask(hdma);
 236:Drivers/STM32WBxx_HAL_Driver/Src/stm32wbxx_hal_dma.c **** 
 237:Drivers/STM32WBxx_HAL_Driver/Src/stm32wbxx_hal_dma.c ****     /* Reset the DMAMUX request generator register*/
 238:Drivers/STM32WBxx_HAL_Driver/Src/stm32wbxx_hal_dma.c ****     hdma->DMAmuxRequestGen->RGCR = 0U;
 239:Drivers/STM32WBxx_HAL_Driver/Src/stm32wbxx_hal_dma.c **** 
 240:Drivers/STM32WBxx_HAL_Driver/Src/stm32wbxx_hal_dma.c ****     /* Clear the DMAMUX request generator overrun flag */
 241:Drivers/STM32WBxx_HAL_Driver/Src/stm32wbxx_hal_dma.c ****     hdma->DMAmuxRequestGenStatus->RGCFR = hdma->DMAmuxRequestGenStatusMask;
 242:Drivers/STM32WBxx_HAL_Driver/Src/stm32wbxx_hal_dma.c ****   }
 243:Drivers/STM32WBxx_HAL_Driver/Src/stm32wbxx_hal_dma.c ****   else
 244:Drivers/STM32WBxx_HAL_Driver/Src/stm32wbxx_hal_dma.c ****   {
 245:Drivers/STM32WBxx_HAL_Driver/Src/stm32wbxx_hal_dma.c ****     hdma->DMAmuxRequestGen = 0U;
 246:Drivers/STM32WBxx_HAL_Driver/Src/stm32wbxx_hal_dma.c ****     hdma->DMAmuxRequestGenStatus = 0U;
 247:Drivers/STM32WBxx_HAL_Driver/Src/stm32wbxx_hal_dma.c ****     hdma->DMAmuxRequestGenStatusMask = 0U;
 248:Drivers/STM32WBxx_HAL_Driver/Src/stm32wbxx_hal_dma.c ****   }
 249:Drivers/STM32WBxx_HAL_Driver/Src/stm32wbxx_hal_dma.c **** 
 250:Drivers/STM32WBxx_HAL_Driver/Src/stm32wbxx_hal_dma.c ****   /* Initialize the error code */
 251:Drivers/STM32WBxx_HAL_Driver/Src/stm32wbxx_hal_dma.c ****   hdma->ErrorCode = HAL_DMA_ERROR_NONE;
 252:Drivers/STM32WBxx_HAL_Driver/Src/stm32wbxx_hal_dma.c **** 
 253:Drivers/STM32WBxx_HAL_Driver/Src/stm32wbxx_hal_dma.c ****   /* Initialize the DMA state*/
 254:Drivers/STM32WBxx_HAL_Driver/Src/stm32wbxx_hal_dma.c ****   hdma->State  = HAL_DMA_STATE_READY;
 255:Drivers/STM32WBxx_HAL_Driver/Src/stm32wbxx_hal_dma.c **** 
 256:Drivers/STM32WBxx_HAL_Driver/Src/stm32wbxx_hal_dma.c ****   /* Allocate lock resource and initialize it */
 257:Drivers/STM32WBxx_HAL_Driver/Src/stm32wbxx_hal_dma.c ****   hdma->Lock = HAL_UNLOCKED;
 258:Drivers/STM32WBxx_HAL_Driver/Src/stm32wbxx_hal_dma.c **** 
ARM GAS  C:\Users\Nathan\AppData\Local\Temp\ccwtEZa1.s 			page 6


 259:Drivers/STM32WBxx_HAL_Driver/Src/stm32wbxx_hal_dma.c ****   return HAL_OK;
 260:Drivers/STM32WBxx_HAL_Driver/Src/stm32wbxx_hal_dma.c **** }
 261:Drivers/STM32WBxx_HAL_Driver/Src/stm32wbxx_hal_dma.c **** 
 262:Drivers/STM32WBxx_HAL_Driver/Src/stm32wbxx_hal_dma.c **** /**
 263:Drivers/STM32WBxx_HAL_Driver/Src/stm32wbxx_hal_dma.c ****   * @brief  DeInitialize the DMA peripheral.
 264:Drivers/STM32WBxx_HAL_Driver/Src/stm32wbxx_hal_dma.c ****   * @param hdma Pointer to a DMA_HandleTypeDef structure that contains
 265:Drivers/STM32WBxx_HAL_Driver/Src/stm32wbxx_hal_dma.c ****   *               the configuration information for the specified DMA Channel.
 266:Drivers/STM32WBxx_HAL_Driver/Src/stm32wbxx_hal_dma.c ****   * @retval HAL status
 267:Drivers/STM32WBxx_HAL_Driver/Src/stm32wbxx_hal_dma.c ****   */
 268:Drivers/STM32WBxx_HAL_Driver/Src/stm32wbxx_hal_dma.c **** HAL_StatusTypeDef HAL_DMA_DeInit(DMA_HandleTypeDef *hdma)
 269:Drivers/STM32WBxx_HAL_Driver/Src/stm32wbxx_hal_dma.c **** {
 270:Drivers/STM32WBxx_HAL_Driver/Src/stm32wbxx_hal_dma.c **** 
 271:Drivers/STM32WBxx_HAL_Driver/Src/stm32wbxx_hal_dma.c ****   /* Check the DMA handle allocation */
 272:Drivers/STM32WBxx_HAL_Driver/Src/stm32wbxx_hal_dma.c ****   if (NULL == hdma)
 273:Drivers/STM32WBxx_HAL_Driver/Src/stm32wbxx_hal_dma.c ****   {
 274:Drivers/STM32WBxx_HAL_Driver/Src/stm32wbxx_hal_dma.c ****     return HAL_ERROR;
 275:Drivers/STM32WBxx_HAL_Driver/Src/stm32wbxx_hal_dma.c ****   }
 276:Drivers/STM32WBxx_HAL_Driver/Src/stm32wbxx_hal_dma.c **** 
 277:Drivers/STM32WBxx_HAL_Driver/Src/stm32wbxx_hal_dma.c ****   /* Check the parameters */
 278:Drivers/STM32WBxx_HAL_Driver/Src/stm32wbxx_hal_dma.c ****   assert_param(IS_DMA_ALL_INSTANCE(hdma->Instance));
 279:Drivers/STM32WBxx_HAL_Driver/Src/stm32wbxx_hal_dma.c **** 
 280:Drivers/STM32WBxx_HAL_Driver/Src/stm32wbxx_hal_dma.c ****   /* Disable the selected DMA Channelx */
 281:Drivers/STM32WBxx_HAL_Driver/Src/stm32wbxx_hal_dma.c ****   __HAL_DMA_DISABLE(hdma);
 282:Drivers/STM32WBxx_HAL_Driver/Src/stm32wbxx_hal_dma.c **** 
 283:Drivers/STM32WBxx_HAL_Driver/Src/stm32wbxx_hal_dma.c **** #if defined(DMA2)
 284:Drivers/STM32WBxx_HAL_Driver/Src/stm32wbxx_hal_dma.c ****   /* Compute the channel index */
 285:Drivers/STM32WBxx_HAL_Driver/Src/stm32wbxx_hal_dma.c ****   if ((uint32_t)(hdma->Instance) < (uint32_t)(DMA2_Channel1))
 286:Drivers/STM32WBxx_HAL_Driver/Src/stm32wbxx_hal_dma.c ****   {
 287:Drivers/STM32WBxx_HAL_Driver/Src/stm32wbxx_hal_dma.c ****     /* DMA1 */
 288:Drivers/STM32WBxx_HAL_Driver/Src/stm32wbxx_hal_dma.c ****     hdma->ChannelIndex = (((uint32_t)hdma->Instance - (uint32_t)DMA1_Channel1) / ((uint32_t)DMA1_Ch
 289:Drivers/STM32WBxx_HAL_Driver/Src/stm32wbxx_hal_dma.c ****     hdma->DmaBaseAddress = DMA1;
 290:Drivers/STM32WBxx_HAL_Driver/Src/stm32wbxx_hal_dma.c ****   }
 291:Drivers/STM32WBxx_HAL_Driver/Src/stm32wbxx_hal_dma.c ****   else
 292:Drivers/STM32WBxx_HAL_Driver/Src/stm32wbxx_hal_dma.c ****   {
 293:Drivers/STM32WBxx_HAL_Driver/Src/stm32wbxx_hal_dma.c ****     /* DMA2 */
 294:Drivers/STM32WBxx_HAL_Driver/Src/stm32wbxx_hal_dma.c ****     hdma->ChannelIndex = (((uint32_t)hdma->Instance - (uint32_t)DMA2_Channel1) / ((uint32_t)DMA2_Ch
 295:Drivers/STM32WBxx_HAL_Driver/Src/stm32wbxx_hal_dma.c ****     hdma->DmaBaseAddress = DMA2;
 296:Drivers/STM32WBxx_HAL_Driver/Src/stm32wbxx_hal_dma.c ****   }
 297:Drivers/STM32WBxx_HAL_Driver/Src/stm32wbxx_hal_dma.c **** #else
 298:Drivers/STM32WBxx_HAL_Driver/Src/stm32wbxx_hal_dma.c ****   /* DMA1 */
 299:Drivers/STM32WBxx_HAL_Driver/Src/stm32wbxx_hal_dma.c ****   hdma->ChannelIndex = (((uint32_t)hdma->Instance - (uint32_t)DMA1_Channel1) / ((uint32_t)DMA1_Chan
 300:Drivers/STM32WBxx_HAL_Driver/Src/stm32wbxx_hal_dma.c ****   hdma->DmaBaseAddress = DMA1;
 301:Drivers/STM32WBxx_HAL_Driver/Src/stm32wbxx_hal_dma.c **** #endif /* DMA2 */
 302:Drivers/STM32WBxx_HAL_Driver/Src/stm32wbxx_hal_dma.c **** 
 303:Drivers/STM32WBxx_HAL_Driver/Src/stm32wbxx_hal_dma.c ****   /* Reset DMA Channel control register */
 304:Drivers/STM32WBxx_HAL_Driver/Src/stm32wbxx_hal_dma.c ****   hdma->Instance->CCR  = 0U;
 305:Drivers/STM32WBxx_HAL_Driver/Src/stm32wbxx_hal_dma.c **** 
 306:Drivers/STM32WBxx_HAL_Driver/Src/stm32wbxx_hal_dma.c ****   /* Clear all flags */
 307:Drivers/STM32WBxx_HAL_Driver/Src/stm32wbxx_hal_dma.c ****   hdma->DmaBaseAddress->IFCR = (DMA_ISR_GIF1 << (hdma->ChannelIndex & 0x1cU));
 308:Drivers/STM32WBxx_HAL_Driver/Src/stm32wbxx_hal_dma.c **** 
 309:Drivers/STM32WBxx_HAL_Driver/Src/stm32wbxx_hal_dma.c ****   /* Initialize parameters for DMAMUX channel :
 310:Drivers/STM32WBxx_HAL_Driver/Src/stm32wbxx_hal_dma.c ****      DMAmuxChannel, DMAmuxChannelStatus and DMAmuxChannelStatusMask */
 311:Drivers/STM32WBxx_HAL_Driver/Src/stm32wbxx_hal_dma.c **** 
 312:Drivers/STM32WBxx_HAL_Driver/Src/stm32wbxx_hal_dma.c ****   DMA_CalcDMAMUXChannelBaseAndMask(hdma);
 313:Drivers/STM32WBxx_HAL_Driver/Src/stm32wbxx_hal_dma.c **** 
 314:Drivers/STM32WBxx_HAL_Driver/Src/stm32wbxx_hal_dma.c ****   /* Reset the DMAMUX channel that corresponds to the DMA channel */
 315:Drivers/STM32WBxx_HAL_Driver/Src/stm32wbxx_hal_dma.c ****   hdma->DMAmuxChannel->CCR = 0U;
ARM GAS  C:\Users\Nathan\AppData\Local\Temp\ccwtEZa1.s 			page 7


 316:Drivers/STM32WBxx_HAL_Driver/Src/stm32wbxx_hal_dma.c **** 
 317:Drivers/STM32WBxx_HAL_Driver/Src/stm32wbxx_hal_dma.c ****   /* Clear the DMAMUX synchro overrun flag */
 318:Drivers/STM32WBxx_HAL_Driver/Src/stm32wbxx_hal_dma.c ****   hdma->DMAmuxChannelStatus->CFR = hdma->DMAmuxChannelStatusMask;
 319:Drivers/STM32WBxx_HAL_Driver/Src/stm32wbxx_hal_dma.c **** 
 320:Drivers/STM32WBxx_HAL_Driver/Src/stm32wbxx_hal_dma.c ****   /* Reset Request generator parameters if any */
 321:Drivers/STM32WBxx_HAL_Driver/Src/stm32wbxx_hal_dma.c ****   if (((hdma->Init.Request >  0U) && (hdma->Init.Request <= DMA_REQUEST_GENERATOR3)))
 322:Drivers/STM32WBxx_HAL_Driver/Src/stm32wbxx_hal_dma.c ****   {
 323:Drivers/STM32WBxx_HAL_Driver/Src/stm32wbxx_hal_dma.c ****     /* Initialize parameters for DMAMUX request generator :
 324:Drivers/STM32WBxx_HAL_Driver/Src/stm32wbxx_hal_dma.c ****        DMAmuxRequestGen, DMAmuxRequestGenStatus and DMAmuxRequestGenStatusMask
 325:Drivers/STM32WBxx_HAL_Driver/Src/stm32wbxx_hal_dma.c ****     */
 326:Drivers/STM32WBxx_HAL_Driver/Src/stm32wbxx_hal_dma.c ****     DMA_CalcDMAMUXRequestGenBaseAndMask(hdma);
 327:Drivers/STM32WBxx_HAL_Driver/Src/stm32wbxx_hal_dma.c **** 
 328:Drivers/STM32WBxx_HAL_Driver/Src/stm32wbxx_hal_dma.c ****     /* Reset the DMAMUX request generator register*/
 329:Drivers/STM32WBxx_HAL_Driver/Src/stm32wbxx_hal_dma.c ****     hdma->DMAmuxRequestGen->RGCR = 0U;
 330:Drivers/STM32WBxx_HAL_Driver/Src/stm32wbxx_hal_dma.c **** 
 331:Drivers/STM32WBxx_HAL_Driver/Src/stm32wbxx_hal_dma.c ****     /* Clear the DMAMUX request generator overrun flag */
 332:Drivers/STM32WBxx_HAL_Driver/Src/stm32wbxx_hal_dma.c ****     hdma->DMAmuxRequestGenStatus->RGCFR = hdma->DMAmuxRequestGenStatusMask;
 333:Drivers/STM32WBxx_HAL_Driver/Src/stm32wbxx_hal_dma.c ****   }
 334:Drivers/STM32WBxx_HAL_Driver/Src/stm32wbxx_hal_dma.c **** 
 335:Drivers/STM32WBxx_HAL_Driver/Src/stm32wbxx_hal_dma.c ****   hdma->DMAmuxRequestGen = 0U;
 336:Drivers/STM32WBxx_HAL_Driver/Src/stm32wbxx_hal_dma.c ****   hdma->DMAmuxRequestGenStatus = 0U;
 337:Drivers/STM32WBxx_HAL_Driver/Src/stm32wbxx_hal_dma.c ****   hdma->DMAmuxRequestGenStatusMask = 0U;
 338:Drivers/STM32WBxx_HAL_Driver/Src/stm32wbxx_hal_dma.c **** 
 339:Drivers/STM32WBxx_HAL_Driver/Src/stm32wbxx_hal_dma.c ****   /* Clean callbacks */
 340:Drivers/STM32WBxx_HAL_Driver/Src/stm32wbxx_hal_dma.c ****   hdma->XferCpltCallback = NULL;
 341:Drivers/STM32WBxx_HAL_Driver/Src/stm32wbxx_hal_dma.c ****   hdma->XferHalfCpltCallback = NULL;
 342:Drivers/STM32WBxx_HAL_Driver/Src/stm32wbxx_hal_dma.c ****   hdma->XferErrorCallback = NULL;
 343:Drivers/STM32WBxx_HAL_Driver/Src/stm32wbxx_hal_dma.c ****   hdma->XferAbortCallback = NULL;
 344:Drivers/STM32WBxx_HAL_Driver/Src/stm32wbxx_hal_dma.c **** 
 345:Drivers/STM32WBxx_HAL_Driver/Src/stm32wbxx_hal_dma.c ****   /* Initialize the error code */
 346:Drivers/STM32WBxx_HAL_Driver/Src/stm32wbxx_hal_dma.c ****   hdma->ErrorCode = HAL_DMA_ERROR_NONE;
 347:Drivers/STM32WBxx_HAL_Driver/Src/stm32wbxx_hal_dma.c **** 
 348:Drivers/STM32WBxx_HAL_Driver/Src/stm32wbxx_hal_dma.c ****   /* Initialize the DMA state */
 349:Drivers/STM32WBxx_HAL_Driver/Src/stm32wbxx_hal_dma.c ****   hdma->State = HAL_DMA_STATE_RESET;
 350:Drivers/STM32WBxx_HAL_Driver/Src/stm32wbxx_hal_dma.c **** 
 351:Drivers/STM32WBxx_HAL_Driver/Src/stm32wbxx_hal_dma.c ****   /* Release Lock */
 352:Drivers/STM32WBxx_HAL_Driver/Src/stm32wbxx_hal_dma.c ****   __HAL_UNLOCK(hdma);
 353:Drivers/STM32WBxx_HAL_Driver/Src/stm32wbxx_hal_dma.c **** 
 354:Drivers/STM32WBxx_HAL_Driver/Src/stm32wbxx_hal_dma.c ****   return HAL_OK;
 355:Drivers/STM32WBxx_HAL_Driver/Src/stm32wbxx_hal_dma.c **** }
 356:Drivers/STM32WBxx_HAL_Driver/Src/stm32wbxx_hal_dma.c **** 
 357:Drivers/STM32WBxx_HAL_Driver/Src/stm32wbxx_hal_dma.c **** /**
 358:Drivers/STM32WBxx_HAL_Driver/Src/stm32wbxx_hal_dma.c ****   * @}
 359:Drivers/STM32WBxx_HAL_Driver/Src/stm32wbxx_hal_dma.c ****   */
 360:Drivers/STM32WBxx_HAL_Driver/Src/stm32wbxx_hal_dma.c **** 
 361:Drivers/STM32WBxx_HAL_Driver/Src/stm32wbxx_hal_dma.c **** /** @defgroup DMA_Exported_Functions_Group2 Input and Output operation functions
 362:Drivers/STM32WBxx_HAL_Driver/Src/stm32wbxx_hal_dma.c ****   *  @brief   Input and Output operation functions
 363:Drivers/STM32WBxx_HAL_Driver/Src/stm32wbxx_hal_dma.c ****   *
 364:Drivers/STM32WBxx_HAL_Driver/Src/stm32wbxx_hal_dma.c **** @verbatim
 365:Drivers/STM32WBxx_HAL_Driver/Src/stm32wbxx_hal_dma.c ****  ===============================================================================
 366:Drivers/STM32WBxx_HAL_Driver/Src/stm32wbxx_hal_dma.c ****                       #####  IO operation functions  #####
 367:Drivers/STM32WBxx_HAL_Driver/Src/stm32wbxx_hal_dma.c ****  ===============================================================================
 368:Drivers/STM32WBxx_HAL_Driver/Src/stm32wbxx_hal_dma.c ****     [..]  This section provides functions allowing to:
 369:Drivers/STM32WBxx_HAL_Driver/Src/stm32wbxx_hal_dma.c ****       (+) Configure the source, destination address and data length and Start DMA transfer
 370:Drivers/STM32WBxx_HAL_Driver/Src/stm32wbxx_hal_dma.c ****       (+) Configure the source, destination address and data length and
 371:Drivers/STM32WBxx_HAL_Driver/Src/stm32wbxx_hal_dma.c ****           Start DMA transfer with interrupt
 372:Drivers/STM32WBxx_HAL_Driver/Src/stm32wbxx_hal_dma.c ****       (+) Abort DMA transfer
ARM GAS  C:\Users\Nathan\AppData\Local\Temp\ccwtEZa1.s 			page 8


 373:Drivers/STM32WBxx_HAL_Driver/Src/stm32wbxx_hal_dma.c ****       (+) Poll for transfer complete
 374:Drivers/STM32WBxx_HAL_Driver/Src/stm32wbxx_hal_dma.c ****       (+) Handle DMA interrupt request
 375:Drivers/STM32WBxx_HAL_Driver/Src/stm32wbxx_hal_dma.c **** 
 376:Drivers/STM32WBxx_HAL_Driver/Src/stm32wbxx_hal_dma.c **** @endverbatim
 377:Drivers/STM32WBxx_HAL_Driver/Src/stm32wbxx_hal_dma.c ****   * @{
 378:Drivers/STM32WBxx_HAL_Driver/Src/stm32wbxx_hal_dma.c ****   */
 379:Drivers/STM32WBxx_HAL_Driver/Src/stm32wbxx_hal_dma.c **** 
 380:Drivers/STM32WBxx_HAL_Driver/Src/stm32wbxx_hal_dma.c **** /**
 381:Drivers/STM32WBxx_HAL_Driver/Src/stm32wbxx_hal_dma.c ****   * @brief  Start the DMA Transfer.
 382:Drivers/STM32WBxx_HAL_Driver/Src/stm32wbxx_hal_dma.c ****   * @param hdma Pointer to a DMA_HandleTypeDef structure that contains
 383:Drivers/STM32WBxx_HAL_Driver/Src/stm32wbxx_hal_dma.c ****   *               the configuration information for the specified DMA Channel.
 384:Drivers/STM32WBxx_HAL_Driver/Src/stm32wbxx_hal_dma.c ****   * @param SrcAddress The source memory Buffer address
 385:Drivers/STM32WBxx_HAL_Driver/Src/stm32wbxx_hal_dma.c ****   * @param DstAddress The destination memory Buffer address
 386:Drivers/STM32WBxx_HAL_Driver/Src/stm32wbxx_hal_dma.c ****   * @param DataLength The length of data to be transferred from source to destination
 387:Drivers/STM32WBxx_HAL_Driver/Src/stm32wbxx_hal_dma.c ****   * @retval HAL status
 388:Drivers/STM32WBxx_HAL_Driver/Src/stm32wbxx_hal_dma.c ****   */
 389:Drivers/STM32WBxx_HAL_Driver/Src/stm32wbxx_hal_dma.c **** HAL_StatusTypeDef HAL_DMA_Start(DMA_HandleTypeDef *hdma, uint32_t SrcAddress, uint32_t DstAddress, 
 390:Drivers/STM32WBxx_HAL_Driver/Src/stm32wbxx_hal_dma.c **** {
 391:Drivers/STM32WBxx_HAL_Driver/Src/stm32wbxx_hal_dma.c ****   HAL_StatusTypeDef status = HAL_OK;
 392:Drivers/STM32WBxx_HAL_Driver/Src/stm32wbxx_hal_dma.c **** 
 393:Drivers/STM32WBxx_HAL_Driver/Src/stm32wbxx_hal_dma.c ****   /* Check the parameters */
 394:Drivers/STM32WBxx_HAL_Driver/Src/stm32wbxx_hal_dma.c ****   assert_param(IS_DMA_BUFFER_SIZE(DataLength));
 395:Drivers/STM32WBxx_HAL_Driver/Src/stm32wbxx_hal_dma.c **** 
 396:Drivers/STM32WBxx_HAL_Driver/Src/stm32wbxx_hal_dma.c ****   /* Process locked */
 397:Drivers/STM32WBxx_HAL_Driver/Src/stm32wbxx_hal_dma.c ****   __HAL_LOCK(hdma);
 398:Drivers/STM32WBxx_HAL_Driver/Src/stm32wbxx_hal_dma.c **** 
 399:Drivers/STM32WBxx_HAL_Driver/Src/stm32wbxx_hal_dma.c ****   if (HAL_DMA_STATE_READY == hdma->State)
 400:Drivers/STM32WBxx_HAL_Driver/Src/stm32wbxx_hal_dma.c ****   {
 401:Drivers/STM32WBxx_HAL_Driver/Src/stm32wbxx_hal_dma.c ****     /* Change DMA peripheral state */
 402:Drivers/STM32WBxx_HAL_Driver/Src/stm32wbxx_hal_dma.c ****     hdma->State = HAL_DMA_STATE_BUSY;
 403:Drivers/STM32WBxx_HAL_Driver/Src/stm32wbxx_hal_dma.c ****     hdma->ErrorCode = HAL_DMA_ERROR_NONE;
 404:Drivers/STM32WBxx_HAL_Driver/Src/stm32wbxx_hal_dma.c **** 
 405:Drivers/STM32WBxx_HAL_Driver/Src/stm32wbxx_hal_dma.c ****     /* Disable the peripheral */
 406:Drivers/STM32WBxx_HAL_Driver/Src/stm32wbxx_hal_dma.c ****     __HAL_DMA_DISABLE(hdma);
 407:Drivers/STM32WBxx_HAL_Driver/Src/stm32wbxx_hal_dma.c **** 
 408:Drivers/STM32WBxx_HAL_Driver/Src/stm32wbxx_hal_dma.c ****     /* Configure the source, destination address and the data length & clear flags*/
 409:Drivers/STM32WBxx_HAL_Driver/Src/stm32wbxx_hal_dma.c ****     DMA_SetConfig(hdma, SrcAddress, DstAddress, DataLength);
 410:Drivers/STM32WBxx_HAL_Driver/Src/stm32wbxx_hal_dma.c **** 
 411:Drivers/STM32WBxx_HAL_Driver/Src/stm32wbxx_hal_dma.c ****     /* Enable the Peripheral */
 412:Drivers/STM32WBxx_HAL_Driver/Src/stm32wbxx_hal_dma.c ****     __HAL_DMA_ENABLE(hdma);
 413:Drivers/STM32WBxx_HAL_Driver/Src/stm32wbxx_hal_dma.c ****   }
 414:Drivers/STM32WBxx_HAL_Driver/Src/stm32wbxx_hal_dma.c ****   else
 415:Drivers/STM32WBxx_HAL_Driver/Src/stm32wbxx_hal_dma.c ****   {
 416:Drivers/STM32WBxx_HAL_Driver/Src/stm32wbxx_hal_dma.c ****     /* Process Unlocked */
 417:Drivers/STM32WBxx_HAL_Driver/Src/stm32wbxx_hal_dma.c ****     __HAL_UNLOCK(hdma);
 418:Drivers/STM32WBxx_HAL_Driver/Src/stm32wbxx_hal_dma.c ****     status = HAL_BUSY;
 419:Drivers/STM32WBxx_HAL_Driver/Src/stm32wbxx_hal_dma.c ****   }
 420:Drivers/STM32WBxx_HAL_Driver/Src/stm32wbxx_hal_dma.c ****   return status;
 421:Drivers/STM32WBxx_HAL_Driver/Src/stm32wbxx_hal_dma.c **** }
 422:Drivers/STM32WBxx_HAL_Driver/Src/stm32wbxx_hal_dma.c **** 
 423:Drivers/STM32WBxx_HAL_Driver/Src/stm32wbxx_hal_dma.c **** /**
 424:Drivers/STM32WBxx_HAL_Driver/Src/stm32wbxx_hal_dma.c ****   * @brief  Start the DMA Transfer with interrupt enabled.
 425:Drivers/STM32WBxx_HAL_Driver/Src/stm32wbxx_hal_dma.c ****   * @param hdma Pointer to a DMA_HandleTypeDef structure that contains
 426:Drivers/STM32WBxx_HAL_Driver/Src/stm32wbxx_hal_dma.c ****   *               the configuration information for the specified DMA Channel.
 427:Drivers/STM32WBxx_HAL_Driver/Src/stm32wbxx_hal_dma.c ****   * @param SrcAddress The source memory Buffer address
 428:Drivers/STM32WBxx_HAL_Driver/Src/stm32wbxx_hal_dma.c ****   * @param DstAddress The destination memory Buffer address
 429:Drivers/STM32WBxx_HAL_Driver/Src/stm32wbxx_hal_dma.c ****   * @param DataLength The length of data to be transferred from source to destination
ARM GAS  C:\Users\Nathan\AppData\Local\Temp\ccwtEZa1.s 			page 9


 430:Drivers/STM32WBxx_HAL_Driver/Src/stm32wbxx_hal_dma.c ****   * @retval HAL status
 431:Drivers/STM32WBxx_HAL_Driver/Src/stm32wbxx_hal_dma.c ****   */
 432:Drivers/STM32WBxx_HAL_Driver/Src/stm32wbxx_hal_dma.c **** HAL_StatusTypeDef HAL_DMA_Start_IT(DMA_HandleTypeDef *hdma, uint32_t SrcAddress, uint32_t DstAddres
 433:Drivers/STM32WBxx_HAL_Driver/Src/stm32wbxx_hal_dma.c ****                                    uint32_t DataLength)
 434:Drivers/STM32WBxx_HAL_Driver/Src/stm32wbxx_hal_dma.c **** {
 435:Drivers/STM32WBxx_HAL_Driver/Src/stm32wbxx_hal_dma.c ****   HAL_StatusTypeDef status = HAL_OK;
 436:Drivers/STM32WBxx_HAL_Driver/Src/stm32wbxx_hal_dma.c **** 
 437:Drivers/STM32WBxx_HAL_Driver/Src/stm32wbxx_hal_dma.c ****   /* Check the parameters */
 438:Drivers/STM32WBxx_HAL_Driver/Src/stm32wbxx_hal_dma.c ****   assert_param(IS_DMA_BUFFER_SIZE(DataLength));
 439:Drivers/STM32WBxx_HAL_Driver/Src/stm32wbxx_hal_dma.c **** 
 440:Drivers/STM32WBxx_HAL_Driver/Src/stm32wbxx_hal_dma.c ****   /* Process locked */
 441:Drivers/STM32WBxx_HAL_Driver/Src/stm32wbxx_hal_dma.c ****   __HAL_LOCK(hdma);
 442:Drivers/STM32WBxx_HAL_Driver/Src/stm32wbxx_hal_dma.c **** 
 443:Drivers/STM32WBxx_HAL_Driver/Src/stm32wbxx_hal_dma.c ****   if (HAL_DMA_STATE_READY == hdma->State)
 444:Drivers/STM32WBxx_HAL_Driver/Src/stm32wbxx_hal_dma.c ****   {
 445:Drivers/STM32WBxx_HAL_Driver/Src/stm32wbxx_hal_dma.c ****     /* Change DMA peripheral state */
 446:Drivers/STM32WBxx_HAL_Driver/Src/stm32wbxx_hal_dma.c ****     hdma->State = HAL_DMA_STATE_BUSY;
 447:Drivers/STM32WBxx_HAL_Driver/Src/stm32wbxx_hal_dma.c ****     hdma->ErrorCode = HAL_DMA_ERROR_NONE;
 448:Drivers/STM32WBxx_HAL_Driver/Src/stm32wbxx_hal_dma.c **** 
 449:Drivers/STM32WBxx_HAL_Driver/Src/stm32wbxx_hal_dma.c ****     /* Disable the peripheral */
 450:Drivers/STM32WBxx_HAL_Driver/Src/stm32wbxx_hal_dma.c ****     __HAL_DMA_DISABLE(hdma);
 451:Drivers/STM32WBxx_HAL_Driver/Src/stm32wbxx_hal_dma.c **** 
 452:Drivers/STM32WBxx_HAL_Driver/Src/stm32wbxx_hal_dma.c ****     /* Configure the source, destination address and the data length & clear flags*/
 453:Drivers/STM32WBxx_HAL_Driver/Src/stm32wbxx_hal_dma.c ****     DMA_SetConfig(hdma, SrcAddress, DstAddress, DataLength);
 454:Drivers/STM32WBxx_HAL_Driver/Src/stm32wbxx_hal_dma.c **** 
 455:Drivers/STM32WBxx_HAL_Driver/Src/stm32wbxx_hal_dma.c ****     /* Enable the transfer complete interrupt */
 456:Drivers/STM32WBxx_HAL_Driver/Src/stm32wbxx_hal_dma.c ****     /* Enable the transfer Error interrupt */
 457:Drivers/STM32WBxx_HAL_Driver/Src/stm32wbxx_hal_dma.c ****     if (NULL != hdma->XferHalfCpltCallback)
 458:Drivers/STM32WBxx_HAL_Driver/Src/stm32wbxx_hal_dma.c ****     {
 459:Drivers/STM32WBxx_HAL_Driver/Src/stm32wbxx_hal_dma.c ****       /* Enable the Half transfer complete interrupt as well */
 460:Drivers/STM32WBxx_HAL_Driver/Src/stm32wbxx_hal_dma.c ****       __HAL_DMA_ENABLE_IT(hdma, (DMA_IT_TC | DMA_IT_HT | DMA_IT_TE));
 461:Drivers/STM32WBxx_HAL_Driver/Src/stm32wbxx_hal_dma.c ****     }
 462:Drivers/STM32WBxx_HAL_Driver/Src/stm32wbxx_hal_dma.c ****     else
 463:Drivers/STM32WBxx_HAL_Driver/Src/stm32wbxx_hal_dma.c ****     {
 464:Drivers/STM32WBxx_HAL_Driver/Src/stm32wbxx_hal_dma.c ****       __HAL_DMA_DISABLE_IT(hdma, DMA_IT_HT);
 465:Drivers/STM32WBxx_HAL_Driver/Src/stm32wbxx_hal_dma.c ****       __HAL_DMA_ENABLE_IT(hdma, (DMA_IT_TC | DMA_IT_TE));
 466:Drivers/STM32WBxx_HAL_Driver/Src/stm32wbxx_hal_dma.c ****     }
 467:Drivers/STM32WBxx_HAL_Driver/Src/stm32wbxx_hal_dma.c **** 
 468:Drivers/STM32WBxx_HAL_Driver/Src/stm32wbxx_hal_dma.c ****     /* Check if DMAMUX Synchronization is enabled*/
 469:Drivers/STM32WBxx_HAL_Driver/Src/stm32wbxx_hal_dma.c ****     if ((hdma->DMAmuxChannel->CCR & DMAMUX_CxCR_SE) != 0U)
 470:Drivers/STM32WBxx_HAL_Driver/Src/stm32wbxx_hal_dma.c ****     {
 471:Drivers/STM32WBxx_HAL_Driver/Src/stm32wbxx_hal_dma.c ****       /* Enable DMAMUX sync overrun IT*/
 472:Drivers/STM32WBxx_HAL_Driver/Src/stm32wbxx_hal_dma.c ****       hdma->DMAmuxChannel->CCR |= DMAMUX_CxCR_SOIE;
 473:Drivers/STM32WBxx_HAL_Driver/Src/stm32wbxx_hal_dma.c ****     }
 474:Drivers/STM32WBxx_HAL_Driver/Src/stm32wbxx_hal_dma.c **** 
 475:Drivers/STM32WBxx_HAL_Driver/Src/stm32wbxx_hal_dma.c ****     if (hdma->DMAmuxRequestGen != 0U)
 476:Drivers/STM32WBxx_HAL_Driver/Src/stm32wbxx_hal_dma.c ****     {
 477:Drivers/STM32WBxx_HAL_Driver/Src/stm32wbxx_hal_dma.c ****       /* if using DMAMUX request generator, enable the DMAMUX request generator overrun IT*/
 478:Drivers/STM32WBxx_HAL_Driver/Src/stm32wbxx_hal_dma.c ****       /* enable the request gen overrun IT*/
 479:Drivers/STM32WBxx_HAL_Driver/Src/stm32wbxx_hal_dma.c ****       hdma->DMAmuxRequestGen->RGCR |= DMAMUX_RGxCR_OIE;
 480:Drivers/STM32WBxx_HAL_Driver/Src/stm32wbxx_hal_dma.c ****     }
 481:Drivers/STM32WBxx_HAL_Driver/Src/stm32wbxx_hal_dma.c **** 
 482:Drivers/STM32WBxx_HAL_Driver/Src/stm32wbxx_hal_dma.c ****     /* Enable the Peripheral */
 483:Drivers/STM32WBxx_HAL_Driver/Src/stm32wbxx_hal_dma.c ****     __HAL_DMA_ENABLE(hdma);
 484:Drivers/STM32WBxx_HAL_Driver/Src/stm32wbxx_hal_dma.c ****   }
 485:Drivers/STM32WBxx_HAL_Driver/Src/stm32wbxx_hal_dma.c ****   else
 486:Drivers/STM32WBxx_HAL_Driver/Src/stm32wbxx_hal_dma.c ****   {
ARM GAS  C:\Users\Nathan\AppData\Local\Temp\ccwtEZa1.s 			page 10


 487:Drivers/STM32WBxx_HAL_Driver/Src/stm32wbxx_hal_dma.c ****     /* Process Unlocked */
 488:Drivers/STM32WBxx_HAL_Driver/Src/stm32wbxx_hal_dma.c ****     __HAL_UNLOCK(hdma);
 489:Drivers/STM32WBxx_HAL_Driver/Src/stm32wbxx_hal_dma.c **** 
 490:Drivers/STM32WBxx_HAL_Driver/Src/stm32wbxx_hal_dma.c ****     /* Remain BUSY */
 491:Drivers/STM32WBxx_HAL_Driver/Src/stm32wbxx_hal_dma.c ****     status = HAL_BUSY;
 492:Drivers/STM32WBxx_HAL_Driver/Src/stm32wbxx_hal_dma.c ****   }
 493:Drivers/STM32WBxx_HAL_Driver/Src/stm32wbxx_hal_dma.c ****   return status;
 494:Drivers/STM32WBxx_HAL_Driver/Src/stm32wbxx_hal_dma.c **** }
 495:Drivers/STM32WBxx_HAL_Driver/Src/stm32wbxx_hal_dma.c **** 
 496:Drivers/STM32WBxx_HAL_Driver/Src/stm32wbxx_hal_dma.c **** /**
 497:Drivers/STM32WBxx_HAL_Driver/Src/stm32wbxx_hal_dma.c ****   * @brief  Abort the DMA Transfer.
 498:Drivers/STM32WBxx_HAL_Driver/Src/stm32wbxx_hal_dma.c ****   * @param hdma Pointer to a DMA_HandleTypeDef structure that contains
 499:Drivers/STM32WBxx_HAL_Driver/Src/stm32wbxx_hal_dma.c ****   *               the configuration information for the specified DMA Channel.
 500:Drivers/STM32WBxx_HAL_Driver/Src/stm32wbxx_hal_dma.c ****     * @retval HAL status
 501:Drivers/STM32WBxx_HAL_Driver/Src/stm32wbxx_hal_dma.c ****   */
 502:Drivers/STM32WBxx_HAL_Driver/Src/stm32wbxx_hal_dma.c **** HAL_StatusTypeDef HAL_DMA_Abort(DMA_HandleTypeDef *hdma)
 503:Drivers/STM32WBxx_HAL_Driver/Src/stm32wbxx_hal_dma.c **** {
 504:Drivers/STM32WBxx_HAL_Driver/Src/stm32wbxx_hal_dma.c **** 
 505:Drivers/STM32WBxx_HAL_Driver/Src/stm32wbxx_hal_dma.c ****   /* Check the DMA peripheral handle */
 506:Drivers/STM32WBxx_HAL_Driver/Src/stm32wbxx_hal_dma.c ****   if (NULL == hdma)
 507:Drivers/STM32WBxx_HAL_Driver/Src/stm32wbxx_hal_dma.c ****   {
 508:Drivers/STM32WBxx_HAL_Driver/Src/stm32wbxx_hal_dma.c ****     return HAL_ERROR;
 509:Drivers/STM32WBxx_HAL_Driver/Src/stm32wbxx_hal_dma.c ****   }
 510:Drivers/STM32WBxx_HAL_Driver/Src/stm32wbxx_hal_dma.c **** 
 511:Drivers/STM32WBxx_HAL_Driver/Src/stm32wbxx_hal_dma.c ****   /* Check the DMA peripheral state */
 512:Drivers/STM32WBxx_HAL_Driver/Src/stm32wbxx_hal_dma.c ****   if (hdma->State != HAL_DMA_STATE_BUSY)
 513:Drivers/STM32WBxx_HAL_Driver/Src/stm32wbxx_hal_dma.c ****   {
 514:Drivers/STM32WBxx_HAL_Driver/Src/stm32wbxx_hal_dma.c ****     hdma->ErrorCode = HAL_DMA_ERROR_NO_XFER;
 515:Drivers/STM32WBxx_HAL_Driver/Src/stm32wbxx_hal_dma.c **** 
 516:Drivers/STM32WBxx_HAL_Driver/Src/stm32wbxx_hal_dma.c ****     /* Process Unlocked */
 517:Drivers/STM32WBxx_HAL_Driver/Src/stm32wbxx_hal_dma.c ****     __HAL_UNLOCK(hdma);
 518:Drivers/STM32WBxx_HAL_Driver/Src/stm32wbxx_hal_dma.c **** 
 519:Drivers/STM32WBxx_HAL_Driver/Src/stm32wbxx_hal_dma.c ****     return HAL_ERROR;
 520:Drivers/STM32WBxx_HAL_Driver/Src/stm32wbxx_hal_dma.c ****   }
 521:Drivers/STM32WBxx_HAL_Driver/Src/stm32wbxx_hal_dma.c ****   else
 522:Drivers/STM32WBxx_HAL_Driver/Src/stm32wbxx_hal_dma.c ****   {
 523:Drivers/STM32WBxx_HAL_Driver/Src/stm32wbxx_hal_dma.c ****     /* Disable DMA IT */
 524:Drivers/STM32WBxx_HAL_Driver/Src/stm32wbxx_hal_dma.c ****     __HAL_DMA_DISABLE_IT(hdma, (DMA_IT_TC | DMA_IT_HT | DMA_IT_TE));
 525:Drivers/STM32WBxx_HAL_Driver/Src/stm32wbxx_hal_dma.c **** 
 526:Drivers/STM32WBxx_HAL_Driver/Src/stm32wbxx_hal_dma.c ****     /* disable the DMAMUX sync overrun IT*/
 527:Drivers/STM32WBxx_HAL_Driver/Src/stm32wbxx_hal_dma.c ****     hdma->DMAmuxChannel->CCR &= ~DMAMUX_CxCR_SOIE;
 528:Drivers/STM32WBxx_HAL_Driver/Src/stm32wbxx_hal_dma.c **** 
 529:Drivers/STM32WBxx_HAL_Driver/Src/stm32wbxx_hal_dma.c ****     /* Disable the channel */
 530:Drivers/STM32WBxx_HAL_Driver/Src/stm32wbxx_hal_dma.c ****     __HAL_DMA_DISABLE(hdma);
 531:Drivers/STM32WBxx_HAL_Driver/Src/stm32wbxx_hal_dma.c **** 
 532:Drivers/STM32WBxx_HAL_Driver/Src/stm32wbxx_hal_dma.c ****     /* Clear all flags */
 533:Drivers/STM32WBxx_HAL_Driver/Src/stm32wbxx_hal_dma.c ****     hdma->DmaBaseAddress->IFCR = (DMA_ISR_GIF1 << (hdma->ChannelIndex & 0x1cU));
 534:Drivers/STM32WBxx_HAL_Driver/Src/stm32wbxx_hal_dma.c **** 
 535:Drivers/STM32WBxx_HAL_Driver/Src/stm32wbxx_hal_dma.c ****     /* Clear the DMAMUX synchro overrun flag */
 536:Drivers/STM32WBxx_HAL_Driver/Src/stm32wbxx_hal_dma.c ****     hdma->DMAmuxChannelStatus->CFR = hdma->DMAmuxChannelStatusMask;
 537:Drivers/STM32WBxx_HAL_Driver/Src/stm32wbxx_hal_dma.c **** 
 538:Drivers/STM32WBxx_HAL_Driver/Src/stm32wbxx_hal_dma.c ****     if (hdma->DMAmuxRequestGen != 0U)
 539:Drivers/STM32WBxx_HAL_Driver/Src/stm32wbxx_hal_dma.c ****     {
 540:Drivers/STM32WBxx_HAL_Driver/Src/stm32wbxx_hal_dma.c ****       /* if using DMAMUX request generator, disable the DMAMUX request generator overrun IT*/
 541:Drivers/STM32WBxx_HAL_Driver/Src/stm32wbxx_hal_dma.c ****       /* disable the request gen overrun IT*/
 542:Drivers/STM32WBxx_HAL_Driver/Src/stm32wbxx_hal_dma.c ****       hdma->DMAmuxRequestGen->RGCR &= ~DMAMUX_RGxCR_OIE;
 543:Drivers/STM32WBxx_HAL_Driver/Src/stm32wbxx_hal_dma.c **** 
ARM GAS  C:\Users\Nathan\AppData\Local\Temp\ccwtEZa1.s 			page 11


 544:Drivers/STM32WBxx_HAL_Driver/Src/stm32wbxx_hal_dma.c ****       /* Clear the DMAMUX request generator overrun flag */
 545:Drivers/STM32WBxx_HAL_Driver/Src/stm32wbxx_hal_dma.c ****       hdma->DMAmuxRequestGenStatus->RGCFR = hdma->DMAmuxRequestGenStatusMask;
 546:Drivers/STM32WBxx_HAL_Driver/Src/stm32wbxx_hal_dma.c ****     }
 547:Drivers/STM32WBxx_HAL_Driver/Src/stm32wbxx_hal_dma.c **** 
 548:Drivers/STM32WBxx_HAL_Driver/Src/stm32wbxx_hal_dma.c ****     /* Change the DMA state */
 549:Drivers/STM32WBxx_HAL_Driver/Src/stm32wbxx_hal_dma.c ****     hdma->State = HAL_DMA_STATE_READY;
 550:Drivers/STM32WBxx_HAL_Driver/Src/stm32wbxx_hal_dma.c **** 
 551:Drivers/STM32WBxx_HAL_Driver/Src/stm32wbxx_hal_dma.c ****     /* Process Unlocked */
 552:Drivers/STM32WBxx_HAL_Driver/Src/stm32wbxx_hal_dma.c ****     __HAL_UNLOCK(hdma);
 553:Drivers/STM32WBxx_HAL_Driver/Src/stm32wbxx_hal_dma.c ****   }
 554:Drivers/STM32WBxx_HAL_Driver/Src/stm32wbxx_hal_dma.c **** 
 555:Drivers/STM32WBxx_HAL_Driver/Src/stm32wbxx_hal_dma.c ****   return HAL_OK;
 556:Drivers/STM32WBxx_HAL_Driver/Src/stm32wbxx_hal_dma.c **** }
 557:Drivers/STM32WBxx_HAL_Driver/Src/stm32wbxx_hal_dma.c **** 
 558:Drivers/STM32WBxx_HAL_Driver/Src/stm32wbxx_hal_dma.c **** /**
 559:Drivers/STM32WBxx_HAL_Driver/Src/stm32wbxx_hal_dma.c ****   * @brief  Aborts the DMA Transfer in Interrupt mode.
 560:Drivers/STM32WBxx_HAL_Driver/Src/stm32wbxx_hal_dma.c ****   * @param  hdma  Pointer to a DMA_HandleTypeDef structure that contains
 561:Drivers/STM32WBxx_HAL_Driver/Src/stm32wbxx_hal_dma.c ****   *                 the configuration information for the specified DMA Channel.
 562:Drivers/STM32WBxx_HAL_Driver/Src/stm32wbxx_hal_dma.c ****   * @retval HAL status
 563:Drivers/STM32WBxx_HAL_Driver/Src/stm32wbxx_hal_dma.c ****   */
 564:Drivers/STM32WBxx_HAL_Driver/Src/stm32wbxx_hal_dma.c **** HAL_StatusTypeDef HAL_DMA_Abort_IT(DMA_HandleTypeDef *hdma)
 565:Drivers/STM32WBxx_HAL_Driver/Src/stm32wbxx_hal_dma.c **** {
 566:Drivers/STM32WBxx_HAL_Driver/Src/stm32wbxx_hal_dma.c ****   HAL_StatusTypeDef status = HAL_OK;
 567:Drivers/STM32WBxx_HAL_Driver/Src/stm32wbxx_hal_dma.c **** 
 568:Drivers/STM32WBxx_HAL_Driver/Src/stm32wbxx_hal_dma.c ****   if (HAL_DMA_STATE_BUSY != hdma->State)
 569:Drivers/STM32WBxx_HAL_Driver/Src/stm32wbxx_hal_dma.c ****   {
 570:Drivers/STM32WBxx_HAL_Driver/Src/stm32wbxx_hal_dma.c ****     /* no transfer ongoing */
 571:Drivers/STM32WBxx_HAL_Driver/Src/stm32wbxx_hal_dma.c ****     hdma->ErrorCode = HAL_DMA_ERROR_NO_XFER;
 572:Drivers/STM32WBxx_HAL_Driver/Src/stm32wbxx_hal_dma.c **** 
 573:Drivers/STM32WBxx_HAL_Driver/Src/stm32wbxx_hal_dma.c ****     status = HAL_ERROR;
 574:Drivers/STM32WBxx_HAL_Driver/Src/stm32wbxx_hal_dma.c ****   }
 575:Drivers/STM32WBxx_HAL_Driver/Src/stm32wbxx_hal_dma.c ****   else
 576:Drivers/STM32WBxx_HAL_Driver/Src/stm32wbxx_hal_dma.c ****   {
 577:Drivers/STM32WBxx_HAL_Driver/Src/stm32wbxx_hal_dma.c ****     /* Disable DMA IT */
 578:Drivers/STM32WBxx_HAL_Driver/Src/stm32wbxx_hal_dma.c ****     __HAL_DMA_DISABLE_IT(hdma, (DMA_IT_TC | DMA_IT_HT | DMA_IT_TE));
 579:Drivers/STM32WBxx_HAL_Driver/Src/stm32wbxx_hal_dma.c **** 
 580:Drivers/STM32WBxx_HAL_Driver/Src/stm32wbxx_hal_dma.c ****     /* Disable the channel */
 581:Drivers/STM32WBxx_HAL_Driver/Src/stm32wbxx_hal_dma.c ****     __HAL_DMA_DISABLE(hdma);
 582:Drivers/STM32WBxx_HAL_Driver/Src/stm32wbxx_hal_dma.c **** 
 583:Drivers/STM32WBxx_HAL_Driver/Src/stm32wbxx_hal_dma.c ****     /* disable the DMAMUX sync overrun IT*/
 584:Drivers/STM32WBxx_HAL_Driver/Src/stm32wbxx_hal_dma.c ****     hdma->DMAmuxChannel->CCR &= ~DMAMUX_CxCR_SOIE;
 585:Drivers/STM32WBxx_HAL_Driver/Src/stm32wbxx_hal_dma.c **** 
 586:Drivers/STM32WBxx_HAL_Driver/Src/stm32wbxx_hal_dma.c ****     /* Clear all flags */
 587:Drivers/STM32WBxx_HAL_Driver/Src/stm32wbxx_hal_dma.c ****     hdma->DmaBaseAddress->IFCR = (DMA_ISR_GIF1 << (hdma->ChannelIndex & 0x1cU));
 588:Drivers/STM32WBxx_HAL_Driver/Src/stm32wbxx_hal_dma.c **** 
 589:Drivers/STM32WBxx_HAL_Driver/Src/stm32wbxx_hal_dma.c ****     /* Clear the DMAMUX synchro overrun flag */
 590:Drivers/STM32WBxx_HAL_Driver/Src/stm32wbxx_hal_dma.c ****     hdma->DMAmuxChannelStatus->CFR = hdma->DMAmuxChannelStatusMask;
 591:Drivers/STM32WBxx_HAL_Driver/Src/stm32wbxx_hal_dma.c **** 
 592:Drivers/STM32WBxx_HAL_Driver/Src/stm32wbxx_hal_dma.c ****     if (hdma->DMAmuxRequestGen != 0U)
 593:Drivers/STM32WBxx_HAL_Driver/Src/stm32wbxx_hal_dma.c ****     {
 594:Drivers/STM32WBxx_HAL_Driver/Src/stm32wbxx_hal_dma.c ****       /* if using DMAMUX request generator, disable the DMAMUX request generator overrun IT*/
 595:Drivers/STM32WBxx_HAL_Driver/Src/stm32wbxx_hal_dma.c ****       /* disable the request gen overrun IT*/
 596:Drivers/STM32WBxx_HAL_Driver/Src/stm32wbxx_hal_dma.c ****       hdma->DMAmuxRequestGen->RGCR &= ~DMAMUX_RGxCR_OIE;
 597:Drivers/STM32WBxx_HAL_Driver/Src/stm32wbxx_hal_dma.c **** 
 598:Drivers/STM32WBxx_HAL_Driver/Src/stm32wbxx_hal_dma.c ****       /* Clear the DMAMUX request generator overrun flag */
 599:Drivers/STM32WBxx_HAL_Driver/Src/stm32wbxx_hal_dma.c ****       hdma->DMAmuxRequestGenStatus->RGCFR = hdma->DMAmuxRequestGenStatusMask;
 600:Drivers/STM32WBxx_HAL_Driver/Src/stm32wbxx_hal_dma.c ****     }
ARM GAS  C:\Users\Nathan\AppData\Local\Temp\ccwtEZa1.s 			page 12


 601:Drivers/STM32WBxx_HAL_Driver/Src/stm32wbxx_hal_dma.c **** 
 602:Drivers/STM32WBxx_HAL_Driver/Src/stm32wbxx_hal_dma.c ****     /* Change the DMA state */
 603:Drivers/STM32WBxx_HAL_Driver/Src/stm32wbxx_hal_dma.c ****     hdma->State = HAL_DMA_STATE_READY;
 604:Drivers/STM32WBxx_HAL_Driver/Src/stm32wbxx_hal_dma.c **** 
 605:Drivers/STM32WBxx_HAL_Driver/Src/stm32wbxx_hal_dma.c ****     /* Process Unlocked */
 606:Drivers/STM32WBxx_HAL_Driver/Src/stm32wbxx_hal_dma.c ****     __HAL_UNLOCK(hdma);
 607:Drivers/STM32WBxx_HAL_Driver/Src/stm32wbxx_hal_dma.c **** 
 608:Drivers/STM32WBxx_HAL_Driver/Src/stm32wbxx_hal_dma.c ****     /* Call User Abort callback */
 609:Drivers/STM32WBxx_HAL_Driver/Src/stm32wbxx_hal_dma.c ****     if (hdma->XferAbortCallback != NULL)
 610:Drivers/STM32WBxx_HAL_Driver/Src/stm32wbxx_hal_dma.c ****     {
 611:Drivers/STM32WBxx_HAL_Driver/Src/stm32wbxx_hal_dma.c ****       hdma->XferAbortCallback(hdma);
 612:Drivers/STM32WBxx_HAL_Driver/Src/stm32wbxx_hal_dma.c ****     }
 613:Drivers/STM32WBxx_HAL_Driver/Src/stm32wbxx_hal_dma.c ****   }
 614:Drivers/STM32WBxx_HAL_Driver/Src/stm32wbxx_hal_dma.c ****   return status;
 615:Drivers/STM32WBxx_HAL_Driver/Src/stm32wbxx_hal_dma.c **** }
 616:Drivers/STM32WBxx_HAL_Driver/Src/stm32wbxx_hal_dma.c **** 
 617:Drivers/STM32WBxx_HAL_Driver/Src/stm32wbxx_hal_dma.c **** /**
 618:Drivers/STM32WBxx_HAL_Driver/Src/stm32wbxx_hal_dma.c ****   * @brief  Polling for transfer complete.
 619:Drivers/STM32WBxx_HAL_Driver/Src/stm32wbxx_hal_dma.c ****   * @param hdma Pointer to a DMA_HandleTypeDef structure that contains
 620:Drivers/STM32WBxx_HAL_Driver/Src/stm32wbxx_hal_dma.c ****   *                  the configuration information for the specified DMA Channel.
 621:Drivers/STM32WBxx_HAL_Driver/Src/stm32wbxx_hal_dma.c ****   * @param CompleteLevel Specifies the DMA level complete.
 622:Drivers/STM32WBxx_HAL_Driver/Src/stm32wbxx_hal_dma.c ****   * @param Timeout Timeout duration.
 623:Drivers/STM32WBxx_HAL_Driver/Src/stm32wbxx_hal_dma.c ****   * @retval HAL status
 624:Drivers/STM32WBxx_HAL_Driver/Src/stm32wbxx_hal_dma.c ****   */
 625:Drivers/STM32WBxx_HAL_Driver/Src/stm32wbxx_hal_dma.c **** HAL_StatusTypeDef HAL_DMA_PollForTransfer(DMA_HandleTypeDef *hdma, HAL_DMA_LevelCompleteTypeDef Com
 626:Drivers/STM32WBxx_HAL_Driver/Src/stm32wbxx_hal_dma.c ****                                           uint32_t Timeout)
 627:Drivers/STM32WBxx_HAL_Driver/Src/stm32wbxx_hal_dma.c **** {
 628:Drivers/STM32WBxx_HAL_Driver/Src/stm32wbxx_hal_dma.c ****   uint32_t temp;
 629:Drivers/STM32WBxx_HAL_Driver/Src/stm32wbxx_hal_dma.c ****   uint32_t tickstart;
 630:Drivers/STM32WBxx_HAL_Driver/Src/stm32wbxx_hal_dma.c **** 
 631:Drivers/STM32WBxx_HAL_Driver/Src/stm32wbxx_hal_dma.c ****   if (HAL_DMA_STATE_BUSY != hdma->State)
 632:Drivers/STM32WBxx_HAL_Driver/Src/stm32wbxx_hal_dma.c ****   {
 633:Drivers/STM32WBxx_HAL_Driver/Src/stm32wbxx_hal_dma.c ****     /* no transfer ongoing */
 634:Drivers/STM32WBxx_HAL_Driver/Src/stm32wbxx_hal_dma.c ****     hdma->ErrorCode = HAL_DMA_ERROR_NO_XFER;
 635:Drivers/STM32WBxx_HAL_Driver/Src/stm32wbxx_hal_dma.c ****     __HAL_UNLOCK(hdma);
 636:Drivers/STM32WBxx_HAL_Driver/Src/stm32wbxx_hal_dma.c ****     return HAL_ERROR;
 637:Drivers/STM32WBxx_HAL_Driver/Src/stm32wbxx_hal_dma.c ****   }
 638:Drivers/STM32WBxx_HAL_Driver/Src/stm32wbxx_hal_dma.c **** 
 639:Drivers/STM32WBxx_HAL_Driver/Src/stm32wbxx_hal_dma.c ****   /* Polling mode not supported in circular mode */
 640:Drivers/STM32WBxx_HAL_Driver/Src/stm32wbxx_hal_dma.c ****   if ((hdma->Instance->CCR & DMA_CCR_CIRC) != 0U)
 641:Drivers/STM32WBxx_HAL_Driver/Src/stm32wbxx_hal_dma.c ****   {
 642:Drivers/STM32WBxx_HAL_Driver/Src/stm32wbxx_hal_dma.c ****     hdma->ErrorCode = HAL_DMA_ERROR_NOT_SUPPORTED;
 643:Drivers/STM32WBxx_HAL_Driver/Src/stm32wbxx_hal_dma.c ****     return HAL_ERROR;
 644:Drivers/STM32WBxx_HAL_Driver/Src/stm32wbxx_hal_dma.c ****   }
 645:Drivers/STM32WBxx_HAL_Driver/Src/stm32wbxx_hal_dma.c **** 
 646:Drivers/STM32WBxx_HAL_Driver/Src/stm32wbxx_hal_dma.c ****   /* Get the level transfer complete flag */
 647:Drivers/STM32WBxx_HAL_Driver/Src/stm32wbxx_hal_dma.c ****   if (HAL_DMA_FULL_TRANSFER == CompleteLevel)
 648:Drivers/STM32WBxx_HAL_Driver/Src/stm32wbxx_hal_dma.c ****   {
 649:Drivers/STM32WBxx_HAL_Driver/Src/stm32wbxx_hal_dma.c ****     /* Transfer Complete flag */
 650:Drivers/STM32WBxx_HAL_Driver/Src/stm32wbxx_hal_dma.c ****     temp = DMA_FLAG_TC1 << (hdma->ChannelIndex & 0x1cU);
 651:Drivers/STM32WBxx_HAL_Driver/Src/stm32wbxx_hal_dma.c ****   }
 652:Drivers/STM32WBxx_HAL_Driver/Src/stm32wbxx_hal_dma.c ****   else
 653:Drivers/STM32WBxx_HAL_Driver/Src/stm32wbxx_hal_dma.c ****   {
 654:Drivers/STM32WBxx_HAL_Driver/Src/stm32wbxx_hal_dma.c ****     /* Half Transfer Complete flag */
 655:Drivers/STM32WBxx_HAL_Driver/Src/stm32wbxx_hal_dma.c ****     temp = DMA_FLAG_HT1 << (hdma->ChannelIndex  & 0x1cU);
 656:Drivers/STM32WBxx_HAL_Driver/Src/stm32wbxx_hal_dma.c ****   }
 657:Drivers/STM32WBxx_HAL_Driver/Src/stm32wbxx_hal_dma.c **** 
ARM GAS  C:\Users\Nathan\AppData\Local\Temp\ccwtEZa1.s 			page 13


 658:Drivers/STM32WBxx_HAL_Driver/Src/stm32wbxx_hal_dma.c ****   /* Get tick */
 659:Drivers/STM32WBxx_HAL_Driver/Src/stm32wbxx_hal_dma.c ****   tickstart = HAL_GetTick();
 660:Drivers/STM32WBxx_HAL_Driver/Src/stm32wbxx_hal_dma.c **** 
 661:Drivers/STM32WBxx_HAL_Driver/Src/stm32wbxx_hal_dma.c ****   while ((hdma->DmaBaseAddress->ISR & temp) == 0U)
 662:Drivers/STM32WBxx_HAL_Driver/Src/stm32wbxx_hal_dma.c ****   {
 663:Drivers/STM32WBxx_HAL_Driver/Src/stm32wbxx_hal_dma.c ****     if ((hdma->DmaBaseAddress->ISR & (DMA_FLAG_TE1 << (hdma->ChannelIndex & 0x1CU))) != 0U)
 664:Drivers/STM32WBxx_HAL_Driver/Src/stm32wbxx_hal_dma.c ****     {
 665:Drivers/STM32WBxx_HAL_Driver/Src/stm32wbxx_hal_dma.c ****       /* When a DMA transfer error occurs */
 666:Drivers/STM32WBxx_HAL_Driver/Src/stm32wbxx_hal_dma.c ****       /* A hardware clear of its EN bits is performed */
 667:Drivers/STM32WBxx_HAL_Driver/Src/stm32wbxx_hal_dma.c ****       /* Clear all flags */
 668:Drivers/STM32WBxx_HAL_Driver/Src/stm32wbxx_hal_dma.c ****       hdma->DmaBaseAddress->IFCR = (DMA_ISR_GIF1 << (hdma->ChannelIndex & 0x1cU));
 669:Drivers/STM32WBxx_HAL_Driver/Src/stm32wbxx_hal_dma.c **** 
 670:Drivers/STM32WBxx_HAL_Driver/Src/stm32wbxx_hal_dma.c ****       /* Update error code */
 671:Drivers/STM32WBxx_HAL_Driver/Src/stm32wbxx_hal_dma.c ****       hdma->ErrorCode = HAL_DMA_ERROR_TE;
 672:Drivers/STM32WBxx_HAL_Driver/Src/stm32wbxx_hal_dma.c **** 
 673:Drivers/STM32WBxx_HAL_Driver/Src/stm32wbxx_hal_dma.c ****       /* Change the DMA state */
 674:Drivers/STM32WBxx_HAL_Driver/Src/stm32wbxx_hal_dma.c ****       hdma->State = HAL_DMA_STATE_READY;
 675:Drivers/STM32WBxx_HAL_Driver/Src/stm32wbxx_hal_dma.c **** 
 676:Drivers/STM32WBxx_HAL_Driver/Src/stm32wbxx_hal_dma.c ****       /* Process Unlocked */
 677:Drivers/STM32WBxx_HAL_Driver/Src/stm32wbxx_hal_dma.c ****       __HAL_UNLOCK(hdma);
 678:Drivers/STM32WBxx_HAL_Driver/Src/stm32wbxx_hal_dma.c **** 
 679:Drivers/STM32WBxx_HAL_Driver/Src/stm32wbxx_hal_dma.c ****       return HAL_ERROR;
 680:Drivers/STM32WBxx_HAL_Driver/Src/stm32wbxx_hal_dma.c ****     }
 681:Drivers/STM32WBxx_HAL_Driver/Src/stm32wbxx_hal_dma.c ****     /* Check for the Timeout */
 682:Drivers/STM32WBxx_HAL_Driver/Src/stm32wbxx_hal_dma.c ****     if (Timeout != HAL_MAX_DELAY)
 683:Drivers/STM32WBxx_HAL_Driver/Src/stm32wbxx_hal_dma.c ****     {
 684:Drivers/STM32WBxx_HAL_Driver/Src/stm32wbxx_hal_dma.c ****       if (((HAL_GetTick() - tickstart) > Timeout) || (Timeout == 0U))
 685:Drivers/STM32WBxx_HAL_Driver/Src/stm32wbxx_hal_dma.c ****       {
 686:Drivers/STM32WBxx_HAL_Driver/Src/stm32wbxx_hal_dma.c ****         /* Update error code */
 687:Drivers/STM32WBxx_HAL_Driver/Src/stm32wbxx_hal_dma.c ****         hdma->ErrorCode = HAL_DMA_ERROR_TIMEOUT;
 688:Drivers/STM32WBxx_HAL_Driver/Src/stm32wbxx_hal_dma.c **** 
 689:Drivers/STM32WBxx_HAL_Driver/Src/stm32wbxx_hal_dma.c ****         /* Change the DMA state */
 690:Drivers/STM32WBxx_HAL_Driver/Src/stm32wbxx_hal_dma.c ****         hdma->State = HAL_DMA_STATE_READY;
 691:Drivers/STM32WBxx_HAL_Driver/Src/stm32wbxx_hal_dma.c **** 
 692:Drivers/STM32WBxx_HAL_Driver/Src/stm32wbxx_hal_dma.c ****         /* Process Unlocked */
 693:Drivers/STM32WBxx_HAL_Driver/Src/stm32wbxx_hal_dma.c ****         __HAL_UNLOCK(hdma);
 694:Drivers/STM32WBxx_HAL_Driver/Src/stm32wbxx_hal_dma.c **** 
 695:Drivers/STM32WBxx_HAL_Driver/Src/stm32wbxx_hal_dma.c ****         return HAL_ERROR;
 696:Drivers/STM32WBxx_HAL_Driver/Src/stm32wbxx_hal_dma.c ****       }
 697:Drivers/STM32WBxx_HAL_Driver/Src/stm32wbxx_hal_dma.c ****     }
 698:Drivers/STM32WBxx_HAL_Driver/Src/stm32wbxx_hal_dma.c ****   }
 699:Drivers/STM32WBxx_HAL_Driver/Src/stm32wbxx_hal_dma.c **** 
 700:Drivers/STM32WBxx_HAL_Driver/Src/stm32wbxx_hal_dma.c ****   /*Check for DMAMUX Request generator (if used) overrun status */
 701:Drivers/STM32WBxx_HAL_Driver/Src/stm32wbxx_hal_dma.c ****   if (hdma->DMAmuxRequestGen != 0U)
 702:Drivers/STM32WBxx_HAL_Driver/Src/stm32wbxx_hal_dma.c ****   {
 703:Drivers/STM32WBxx_HAL_Driver/Src/stm32wbxx_hal_dma.c ****     /* if using DMAMUX request generator Check for DMAMUX request generator overrun */
 704:Drivers/STM32WBxx_HAL_Driver/Src/stm32wbxx_hal_dma.c ****     if ((hdma->DMAmuxRequestGenStatus->RGSR & hdma->DMAmuxRequestGenStatusMask) != 0U)
 705:Drivers/STM32WBxx_HAL_Driver/Src/stm32wbxx_hal_dma.c ****     {
 706:Drivers/STM32WBxx_HAL_Driver/Src/stm32wbxx_hal_dma.c ****       /* Disable the request gen overrun interrupt */
 707:Drivers/STM32WBxx_HAL_Driver/Src/stm32wbxx_hal_dma.c ****       hdma->DMAmuxRequestGen->RGCR |= DMAMUX_RGxCR_OIE;
 708:Drivers/STM32WBxx_HAL_Driver/Src/stm32wbxx_hal_dma.c **** 
 709:Drivers/STM32WBxx_HAL_Driver/Src/stm32wbxx_hal_dma.c ****       /* Clear the DMAMUX request generator overrun flag */
 710:Drivers/STM32WBxx_HAL_Driver/Src/stm32wbxx_hal_dma.c ****       hdma->DMAmuxRequestGenStatus->RGCFR = hdma->DMAmuxRequestGenStatusMask;
 711:Drivers/STM32WBxx_HAL_Driver/Src/stm32wbxx_hal_dma.c **** 
 712:Drivers/STM32WBxx_HAL_Driver/Src/stm32wbxx_hal_dma.c ****       /* Update error code */
 713:Drivers/STM32WBxx_HAL_Driver/Src/stm32wbxx_hal_dma.c ****       hdma->ErrorCode |= HAL_DMA_ERROR_REQGEN;
 714:Drivers/STM32WBxx_HAL_Driver/Src/stm32wbxx_hal_dma.c ****     }
ARM GAS  C:\Users\Nathan\AppData\Local\Temp\ccwtEZa1.s 			page 14


 715:Drivers/STM32WBxx_HAL_Driver/Src/stm32wbxx_hal_dma.c ****   }
 716:Drivers/STM32WBxx_HAL_Driver/Src/stm32wbxx_hal_dma.c **** 
 717:Drivers/STM32WBxx_HAL_Driver/Src/stm32wbxx_hal_dma.c ****   /* Check for DMAMUX Synchronization overrun */
 718:Drivers/STM32WBxx_HAL_Driver/Src/stm32wbxx_hal_dma.c ****   if ((hdma->DMAmuxChannelStatus->CSR & hdma->DMAmuxChannelStatusMask) != 0U)
 719:Drivers/STM32WBxx_HAL_Driver/Src/stm32wbxx_hal_dma.c ****   {
 720:Drivers/STM32WBxx_HAL_Driver/Src/stm32wbxx_hal_dma.c ****     /* Clear the DMAMUX synchro overrun flag */
 721:Drivers/STM32WBxx_HAL_Driver/Src/stm32wbxx_hal_dma.c ****     hdma->DMAmuxChannelStatus->CFR = hdma->DMAmuxChannelStatusMask;
 722:Drivers/STM32WBxx_HAL_Driver/Src/stm32wbxx_hal_dma.c **** 
 723:Drivers/STM32WBxx_HAL_Driver/Src/stm32wbxx_hal_dma.c ****     /* Update error code */
 724:Drivers/STM32WBxx_HAL_Driver/Src/stm32wbxx_hal_dma.c ****     hdma->ErrorCode |= HAL_DMA_ERROR_SYNC;
 725:Drivers/STM32WBxx_HAL_Driver/Src/stm32wbxx_hal_dma.c ****   }
 726:Drivers/STM32WBxx_HAL_Driver/Src/stm32wbxx_hal_dma.c **** 
 727:Drivers/STM32WBxx_HAL_Driver/Src/stm32wbxx_hal_dma.c ****   if (HAL_DMA_FULL_TRANSFER == CompleteLevel)
 728:Drivers/STM32WBxx_HAL_Driver/Src/stm32wbxx_hal_dma.c ****   {
 729:Drivers/STM32WBxx_HAL_Driver/Src/stm32wbxx_hal_dma.c ****     /* Clear the transfer complete flag */
 730:Drivers/STM32WBxx_HAL_Driver/Src/stm32wbxx_hal_dma.c ****     hdma->DmaBaseAddress->IFCR = (DMA_FLAG_TC1 << (hdma->ChannelIndex & 0x1cU));
 731:Drivers/STM32WBxx_HAL_Driver/Src/stm32wbxx_hal_dma.c **** 
 732:Drivers/STM32WBxx_HAL_Driver/Src/stm32wbxx_hal_dma.c ****     /* Process unlocked */
 733:Drivers/STM32WBxx_HAL_Driver/Src/stm32wbxx_hal_dma.c ****     __HAL_UNLOCK(hdma);
 734:Drivers/STM32WBxx_HAL_Driver/Src/stm32wbxx_hal_dma.c **** 
 735:Drivers/STM32WBxx_HAL_Driver/Src/stm32wbxx_hal_dma.c ****     /* The selected Channelx EN bit is cleared (DMA is disabled and
 736:Drivers/STM32WBxx_HAL_Driver/Src/stm32wbxx_hal_dma.c ****     all transfers are complete) */
 737:Drivers/STM32WBxx_HAL_Driver/Src/stm32wbxx_hal_dma.c ****     hdma->State = HAL_DMA_STATE_READY;
 738:Drivers/STM32WBxx_HAL_Driver/Src/stm32wbxx_hal_dma.c ****   }
 739:Drivers/STM32WBxx_HAL_Driver/Src/stm32wbxx_hal_dma.c ****   else
 740:Drivers/STM32WBxx_HAL_Driver/Src/stm32wbxx_hal_dma.c ****   {
 741:Drivers/STM32WBxx_HAL_Driver/Src/stm32wbxx_hal_dma.c ****     /* Clear the half transfer complete flag */
 742:Drivers/STM32WBxx_HAL_Driver/Src/stm32wbxx_hal_dma.c ****     hdma->DmaBaseAddress->IFCR = (DMA_FLAG_HT1 << (hdma->ChannelIndex & 0x1cU));
 743:Drivers/STM32WBxx_HAL_Driver/Src/stm32wbxx_hal_dma.c ****   }
 744:Drivers/STM32WBxx_HAL_Driver/Src/stm32wbxx_hal_dma.c **** 
 745:Drivers/STM32WBxx_HAL_Driver/Src/stm32wbxx_hal_dma.c ****   return HAL_OK;
 746:Drivers/STM32WBxx_HAL_Driver/Src/stm32wbxx_hal_dma.c **** }
 747:Drivers/STM32WBxx_HAL_Driver/Src/stm32wbxx_hal_dma.c **** 
 748:Drivers/STM32WBxx_HAL_Driver/Src/stm32wbxx_hal_dma.c **** /**
 749:Drivers/STM32WBxx_HAL_Driver/Src/stm32wbxx_hal_dma.c ****   * @brief  Handle DMA interrupt request.
 750:Drivers/STM32WBxx_HAL_Driver/Src/stm32wbxx_hal_dma.c ****   * @param hdma Pointer to a DMA_HandleTypeDef structure that contains
 751:Drivers/STM32WBxx_HAL_Driver/Src/stm32wbxx_hal_dma.c ****   *               the configuration information for the specified DMA Channel.
 752:Drivers/STM32WBxx_HAL_Driver/Src/stm32wbxx_hal_dma.c ****   * @retval None
 753:Drivers/STM32WBxx_HAL_Driver/Src/stm32wbxx_hal_dma.c ****   */
 754:Drivers/STM32WBxx_HAL_Driver/Src/stm32wbxx_hal_dma.c **** void HAL_DMA_IRQHandler(DMA_HandleTypeDef *hdma)
 755:Drivers/STM32WBxx_HAL_Driver/Src/stm32wbxx_hal_dma.c **** {
 756:Drivers/STM32WBxx_HAL_Driver/Src/stm32wbxx_hal_dma.c ****   uint32_t flag_it = hdma->DmaBaseAddress->ISR;
 757:Drivers/STM32WBxx_HAL_Driver/Src/stm32wbxx_hal_dma.c ****   uint32_t source_it = hdma->Instance->CCR;
 758:Drivers/STM32WBxx_HAL_Driver/Src/stm32wbxx_hal_dma.c **** 
 759:Drivers/STM32WBxx_HAL_Driver/Src/stm32wbxx_hal_dma.c ****   /* Half Transfer Complete Interrupt management ******************************/
 760:Drivers/STM32WBxx_HAL_Driver/Src/stm32wbxx_hal_dma.c ****   if (((flag_it & (DMA_FLAG_HT1 << (hdma->ChannelIndex & 0x1cU))) != 0U) && ((source_it & DMA_IT_HT
 761:Drivers/STM32WBxx_HAL_Driver/Src/stm32wbxx_hal_dma.c ****   {
 762:Drivers/STM32WBxx_HAL_Driver/Src/stm32wbxx_hal_dma.c ****     /* Disable the half transfer interrupt if the DMA mode is not CIRCULAR */
 763:Drivers/STM32WBxx_HAL_Driver/Src/stm32wbxx_hal_dma.c ****     if ((hdma->Instance->CCR & DMA_CCR_CIRC) == 0U)
 764:Drivers/STM32WBxx_HAL_Driver/Src/stm32wbxx_hal_dma.c ****     {
 765:Drivers/STM32WBxx_HAL_Driver/Src/stm32wbxx_hal_dma.c ****       /* Disable the half transfer interrupt */
 766:Drivers/STM32WBxx_HAL_Driver/Src/stm32wbxx_hal_dma.c ****       __HAL_DMA_DISABLE_IT(hdma, DMA_IT_HT);
 767:Drivers/STM32WBxx_HAL_Driver/Src/stm32wbxx_hal_dma.c ****     }
 768:Drivers/STM32WBxx_HAL_Driver/Src/stm32wbxx_hal_dma.c ****     /* Clear the half transfer complete flag */
 769:Drivers/STM32WBxx_HAL_Driver/Src/stm32wbxx_hal_dma.c ****     hdma->DmaBaseAddress->IFCR = (DMA_ISR_HTIF1 << (hdma->ChannelIndex & 0x1CU));
 770:Drivers/STM32WBxx_HAL_Driver/Src/stm32wbxx_hal_dma.c **** 
 771:Drivers/STM32WBxx_HAL_Driver/Src/stm32wbxx_hal_dma.c ****     /* DMA peripheral state is not updated in Half Transfer */
ARM GAS  C:\Users\Nathan\AppData\Local\Temp\ccwtEZa1.s 			page 15


 772:Drivers/STM32WBxx_HAL_Driver/Src/stm32wbxx_hal_dma.c ****     /* but in Transfer Complete case */
 773:Drivers/STM32WBxx_HAL_Driver/Src/stm32wbxx_hal_dma.c **** 
 774:Drivers/STM32WBxx_HAL_Driver/Src/stm32wbxx_hal_dma.c ****     if (hdma->XferHalfCpltCallback != NULL)
 775:Drivers/STM32WBxx_HAL_Driver/Src/stm32wbxx_hal_dma.c ****     {
 776:Drivers/STM32WBxx_HAL_Driver/Src/stm32wbxx_hal_dma.c ****       /* Half transfer callback */
 777:Drivers/STM32WBxx_HAL_Driver/Src/stm32wbxx_hal_dma.c ****       hdma->XferHalfCpltCallback(hdma);
 778:Drivers/STM32WBxx_HAL_Driver/Src/stm32wbxx_hal_dma.c ****     }
 779:Drivers/STM32WBxx_HAL_Driver/Src/stm32wbxx_hal_dma.c ****   }
 780:Drivers/STM32WBxx_HAL_Driver/Src/stm32wbxx_hal_dma.c **** 
 781:Drivers/STM32WBxx_HAL_Driver/Src/stm32wbxx_hal_dma.c ****   /* Transfer Complete Interrupt management ***********************************/
 782:Drivers/STM32WBxx_HAL_Driver/Src/stm32wbxx_hal_dma.c ****   else if (((flag_it & (DMA_FLAG_TC1 << (hdma->ChannelIndex & 0x1cU))) != 0U) && ((source_it & DMA_
 783:Drivers/STM32WBxx_HAL_Driver/Src/stm32wbxx_hal_dma.c ****   {
 784:Drivers/STM32WBxx_HAL_Driver/Src/stm32wbxx_hal_dma.c ****     if ((hdma->Instance->CCR & DMA_CCR_CIRC) == 0U)
 785:Drivers/STM32WBxx_HAL_Driver/Src/stm32wbxx_hal_dma.c ****     {
 786:Drivers/STM32WBxx_HAL_Driver/Src/stm32wbxx_hal_dma.c ****       /* Disable the transfer complete and error interrupt */
 787:Drivers/STM32WBxx_HAL_Driver/Src/stm32wbxx_hal_dma.c ****       __HAL_DMA_DISABLE_IT(hdma, DMA_IT_TE | DMA_IT_TC);
 788:Drivers/STM32WBxx_HAL_Driver/Src/stm32wbxx_hal_dma.c **** 
 789:Drivers/STM32WBxx_HAL_Driver/Src/stm32wbxx_hal_dma.c ****       /* Change the DMA state */
 790:Drivers/STM32WBxx_HAL_Driver/Src/stm32wbxx_hal_dma.c ****       hdma->State = HAL_DMA_STATE_READY;
 791:Drivers/STM32WBxx_HAL_Driver/Src/stm32wbxx_hal_dma.c ****     }
 792:Drivers/STM32WBxx_HAL_Driver/Src/stm32wbxx_hal_dma.c ****     /* Clear the transfer complete flag */
 793:Drivers/STM32WBxx_HAL_Driver/Src/stm32wbxx_hal_dma.c ****     hdma->DmaBaseAddress->IFCR = (DMA_ISR_TCIF1 << (hdma->ChannelIndex & 0x1cU));
 794:Drivers/STM32WBxx_HAL_Driver/Src/stm32wbxx_hal_dma.c **** 
 795:Drivers/STM32WBxx_HAL_Driver/Src/stm32wbxx_hal_dma.c ****     /* Process Unlocked */
 796:Drivers/STM32WBxx_HAL_Driver/Src/stm32wbxx_hal_dma.c ****     __HAL_UNLOCK(hdma);
 797:Drivers/STM32WBxx_HAL_Driver/Src/stm32wbxx_hal_dma.c **** 
 798:Drivers/STM32WBxx_HAL_Driver/Src/stm32wbxx_hal_dma.c ****     if (hdma->XferCpltCallback != NULL)
 799:Drivers/STM32WBxx_HAL_Driver/Src/stm32wbxx_hal_dma.c ****     {
 800:Drivers/STM32WBxx_HAL_Driver/Src/stm32wbxx_hal_dma.c ****       /* Transfer complete callback */
 801:Drivers/STM32WBxx_HAL_Driver/Src/stm32wbxx_hal_dma.c ****       hdma->XferCpltCallback(hdma);
 802:Drivers/STM32WBxx_HAL_Driver/Src/stm32wbxx_hal_dma.c ****     }
 803:Drivers/STM32WBxx_HAL_Driver/Src/stm32wbxx_hal_dma.c ****   }
 804:Drivers/STM32WBxx_HAL_Driver/Src/stm32wbxx_hal_dma.c **** 
 805:Drivers/STM32WBxx_HAL_Driver/Src/stm32wbxx_hal_dma.c ****   /* Transfer Error Interrupt management **************************************/
 806:Drivers/STM32WBxx_HAL_Driver/Src/stm32wbxx_hal_dma.c ****   else if (((flag_it & (DMA_FLAG_TE1 << (hdma->ChannelIndex & 0x1cU))) != 0U) && ((source_it & DMA_
 807:Drivers/STM32WBxx_HAL_Driver/Src/stm32wbxx_hal_dma.c ****   {
 808:Drivers/STM32WBxx_HAL_Driver/Src/stm32wbxx_hal_dma.c ****     /* When a DMA transfer error occurs */
 809:Drivers/STM32WBxx_HAL_Driver/Src/stm32wbxx_hal_dma.c ****     /* A hardware clear of its EN bits is performed */
 810:Drivers/STM32WBxx_HAL_Driver/Src/stm32wbxx_hal_dma.c ****     /* Disable ALL DMA IT */
 811:Drivers/STM32WBxx_HAL_Driver/Src/stm32wbxx_hal_dma.c ****     __HAL_DMA_DISABLE_IT(hdma, (DMA_IT_TC | DMA_IT_HT | DMA_IT_TE));
 812:Drivers/STM32WBxx_HAL_Driver/Src/stm32wbxx_hal_dma.c **** 
 813:Drivers/STM32WBxx_HAL_Driver/Src/stm32wbxx_hal_dma.c ****     /* Clear all flags */
 814:Drivers/STM32WBxx_HAL_Driver/Src/stm32wbxx_hal_dma.c ****     hdma->DmaBaseAddress->IFCR = (DMA_ISR_GIF1 << (hdma->ChannelIndex & 0x1cU));
 815:Drivers/STM32WBxx_HAL_Driver/Src/stm32wbxx_hal_dma.c **** 
 816:Drivers/STM32WBxx_HAL_Driver/Src/stm32wbxx_hal_dma.c ****     /* Update error code */
 817:Drivers/STM32WBxx_HAL_Driver/Src/stm32wbxx_hal_dma.c ****     hdma->ErrorCode = HAL_DMA_ERROR_TE;
 818:Drivers/STM32WBxx_HAL_Driver/Src/stm32wbxx_hal_dma.c **** 
 819:Drivers/STM32WBxx_HAL_Driver/Src/stm32wbxx_hal_dma.c ****     /* Change the DMA state */
 820:Drivers/STM32WBxx_HAL_Driver/Src/stm32wbxx_hal_dma.c ****     hdma->State = HAL_DMA_STATE_READY;
 821:Drivers/STM32WBxx_HAL_Driver/Src/stm32wbxx_hal_dma.c **** 
 822:Drivers/STM32WBxx_HAL_Driver/Src/stm32wbxx_hal_dma.c ****     /* Process Unlocked */
 823:Drivers/STM32WBxx_HAL_Driver/Src/stm32wbxx_hal_dma.c ****     __HAL_UNLOCK(hdma);
 824:Drivers/STM32WBxx_HAL_Driver/Src/stm32wbxx_hal_dma.c **** 
 825:Drivers/STM32WBxx_HAL_Driver/Src/stm32wbxx_hal_dma.c ****     if (hdma->XferErrorCallback != NULL)
 826:Drivers/STM32WBxx_HAL_Driver/Src/stm32wbxx_hal_dma.c ****     {
 827:Drivers/STM32WBxx_HAL_Driver/Src/stm32wbxx_hal_dma.c ****       /* Transfer error callback */
 828:Drivers/STM32WBxx_HAL_Driver/Src/stm32wbxx_hal_dma.c ****       hdma->XferErrorCallback(hdma);
ARM GAS  C:\Users\Nathan\AppData\Local\Temp\ccwtEZa1.s 			page 16


 829:Drivers/STM32WBxx_HAL_Driver/Src/stm32wbxx_hal_dma.c ****     }
 830:Drivers/STM32WBxx_HAL_Driver/Src/stm32wbxx_hal_dma.c ****   }
 831:Drivers/STM32WBxx_HAL_Driver/Src/stm32wbxx_hal_dma.c ****   else
 832:Drivers/STM32WBxx_HAL_Driver/Src/stm32wbxx_hal_dma.c ****   {
 833:Drivers/STM32WBxx_HAL_Driver/Src/stm32wbxx_hal_dma.c ****     /* Nothing To Do */
 834:Drivers/STM32WBxx_HAL_Driver/Src/stm32wbxx_hal_dma.c ****   }
 835:Drivers/STM32WBxx_HAL_Driver/Src/stm32wbxx_hal_dma.c ****   return;
 836:Drivers/STM32WBxx_HAL_Driver/Src/stm32wbxx_hal_dma.c **** }
 837:Drivers/STM32WBxx_HAL_Driver/Src/stm32wbxx_hal_dma.c **** 
 838:Drivers/STM32WBxx_HAL_Driver/Src/stm32wbxx_hal_dma.c **** /**
 839:Drivers/STM32WBxx_HAL_Driver/Src/stm32wbxx_hal_dma.c ****   * @brief  Register callbacks
 840:Drivers/STM32WBxx_HAL_Driver/Src/stm32wbxx_hal_dma.c ****   * @param hdma Pointer to a DMA_HandleTypeDef structure that contains
 841:Drivers/STM32WBxx_HAL_Driver/Src/stm32wbxx_hal_dma.c ****   *                               the configuration information for the specified DMA Channel.
 842:Drivers/STM32WBxx_HAL_Driver/Src/stm32wbxx_hal_dma.c ****   * @param CallbackID User Callback identifier
 843:Drivers/STM32WBxx_HAL_Driver/Src/stm32wbxx_hal_dma.c ****   *                               a HAL_DMA_CallbackIDTypeDef ENUM as parameter.
 844:Drivers/STM32WBxx_HAL_Driver/Src/stm32wbxx_hal_dma.c ****   * @param pCallback Pointer to private callback function which has pointer to
 845:Drivers/STM32WBxx_HAL_Driver/Src/stm32wbxx_hal_dma.c ****   *                               a DMA_HandleTypeDef structure as parameter.
 846:Drivers/STM32WBxx_HAL_Driver/Src/stm32wbxx_hal_dma.c ****   * @retval HAL status
 847:Drivers/STM32WBxx_HAL_Driver/Src/stm32wbxx_hal_dma.c ****   */
 848:Drivers/STM32WBxx_HAL_Driver/Src/stm32wbxx_hal_dma.c **** HAL_StatusTypeDef HAL_DMA_RegisterCallback(DMA_HandleTypeDef *hdma, HAL_DMA_CallbackIDTypeDef Callb
 849:Drivers/STM32WBxx_HAL_Driver/Src/stm32wbxx_hal_dma.c **** {
 850:Drivers/STM32WBxx_HAL_Driver/Src/stm32wbxx_hal_dma.c ****   HAL_StatusTypeDef status = HAL_OK;
 851:Drivers/STM32WBxx_HAL_Driver/Src/stm32wbxx_hal_dma.c **** 
 852:Drivers/STM32WBxx_HAL_Driver/Src/stm32wbxx_hal_dma.c ****   /* Process locked */
 853:Drivers/STM32WBxx_HAL_Driver/Src/stm32wbxx_hal_dma.c ****   __HAL_LOCK(hdma);
 854:Drivers/STM32WBxx_HAL_Driver/Src/stm32wbxx_hal_dma.c **** 
 855:Drivers/STM32WBxx_HAL_Driver/Src/stm32wbxx_hal_dma.c ****   if (HAL_DMA_STATE_READY == hdma->State)
 856:Drivers/STM32WBxx_HAL_Driver/Src/stm32wbxx_hal_dma.c ****   {
 857:Drivers/STM32WBxx_HAL_Driver/Src/stm32wbxx_hal_dma.c ****     switch (CallbackID)
 858:Drivers/STM32WBxx_HAL_Driver/Src/stm32wbxx_hal_dma.c ****     {
 859:Drivers/STM32WBxx_HAL_Driver/Src/stm32wbxx_hal_dma.c ****       case  HAL_DMA_XFER_CPLT_CB_ID:
 860:Drivers/STM32WBxx_HAL_Driver/Src/stm32wbxx_hal_dma.c ****         hdma->XferCpltCallback = pCallback;
 861:Drivers/STM32WBxx_HAL_Driver/Src/stm32wbxx_hal_dma.c ****         break;
 862:Drivers/STM32WBxx_HAL_Driver/Src/stm32wbxx_hal_dma.c **** 
 863:Drivers/STM32WBxx_HAL_Driver/Src/stm32wbxx_hal_dma.c ****       case  HAL_DMA_XFER_HALFCPLT_CB_ID:
 864:Drivers/STM32WBxx_HAL_Driver/Src/stm32wbxx_hal_dma.c ****         hdma->XferHalfCpltCallback = pCallback;
 865:Drivers/STM32WBxx_HAL_Driver/Src/stm32wbxx_hal_dma.c ****         break;
 866:Drivers/STM32WBxx_HAL_Driver/Src/stm32wbxx_hal_dma.c **** 
 867:Drivers/STM32WBxx_HAL_Driver/Src/stm32wbxx_hal_dma.c ****       case  HAL_DMA_XFER_ERROR_CB_ID:
 868:Drivers/STM32WBxx_HAL_Driver/Src/stm32wbxx_hal_dma.c ****         hdma->XferErrorCallback = pCallback;
 869:Drivers/STM32WBxx_HAL_Driver/Src/stm32wbxx_hal_dma.c ****         break;
 870:Drivers/STM32WBxx_HAL_Driver/Src/stm32wbxx_hal_dma.c **** 
 871:Drivers/STM32WBxx_HAL_Driver/Src/stm32wbxx_hal_dma.c ****       case  HAL_DMA_XFER_ABORT_CB_ID:
 872:Drivers/STM32WBxx_HAL_Driver/Src/stm32wbxx_hal_dma.c ****         hdma->XferAbortCallback = pCallback;
 873:Drivers/STM32WBxx_HAL_Driver/Src/stm32wbxx_hal_dma.c ****         break;
 874:Drivers/STM32WBxx_HAL_Driver/Src/stm32wbxx_hal_dma.c **** 
 875:Drivers/STM32WBxx_HAL_Driver/Src/stm32wbxx_hal_dma.c ****       default:
 876:Drivers/STM32WBxx_HAL_Driver/Src/stm32wbxx_hal_dma.c ****         status = HAL_ERROR;
 877:Drivers/STM32WBxx_HAL_Driver/Src/stm32wbxx_hal_dma.c ****         break;
 878:Drivers/STM32WBxx_HAL_Driver/Src/stm32wbxx_hal_dma.c ****     }
 879:Drivers/STM32WBxx_HAL_Driver/Src/stm32wbxx_hal_dma.c ****   }
 880:Drivers/STM32WBxx_HAL_Driver/Src/stm32wbxx_hal_dma.c ****   else
 881:Drivers/STM32WBxx_HAL_Driver/Src/stm32wbxx_hal_dma.c ****   {
 882:Drivers/STM32WBxx_HAL_Driver/Src/stm32wbxx_hal_dma.c ****     status = HAL_ERROR;
 883:Drivers/STM32WBxx_HAL_Driver/Src/stm32wbxx_hal_dma.c ****   }
 884:Drivers/STM32WBxx_HAL_Driver/Src/stm32wbxx_hal_dma.c **** 
 885:Drivers/STM32WBxx_HAL_Driver/Src/stm32wbxx_hal_dma.c ****   /* Release Lock */
ARM GAS  C:\Users\Nathan\AppData\Local\Temp\ccwtEZa1.s 			page 17


 886:Drivers/STM32WBxx_HAL_Driver/Src/stm32wbxx_hal_dma.c ****   __HAL_UNLOCK(hdma);
 887:Drivers/STM32WBxx_HAL_Driver/Src/stm32wbxx_hal_dma.c **** 
 888:Drivers/STM32WBxx_HAL_Driver/Src/stm32wbxx_hal_dma.c ****   return status;
 889:Drivers/STM32WBxx_HAL_Driver/Src/stm32wbxx_hal_dma.c **** }
 890:Drivers/STM32WBxx_HAL_Driver/Src/stm32wbxx_hal_dma.c **** 
 891:Drivers/STM32WBxx_HAL_Driver/Src/stm32wbxx_hal_dma.c **** /**
 892:Drivers/STM32WBxx_HAL_Driver/Src/stm32wbxx_hal_dma.c ****   * @brief  UnRegister callbacks
 893:Drivers/STM32WBxx_HAL_Driver/Src/stm32wbxx_hal_dma.c ****   * @param hdma Pointer to a DMA_HandleTypeDef structure that contains
 894:Drivers/STM32WBxx_HAL_Driver/Src/stm32wbxx_hal_dma.c ****   *                               the configuration information for the specified DMA Channel.
 895:Drivers/STM32WBxx_HAL_Driver/Src/stm32wbxx_hal_dma.c ****   * @param CallbackID User Callback identifier
 896:Drivers/STM32WBxx_HAL_Driver/Src/stm32wbxx_hal_dma.c ****   *                               a HAL_DMA_CallbackIDTypeDef ENUM as parameter.
 897:Drivers/STM32WBxx_HAL_Driver/Src/stm32wbxx_hal_dma.c ****   * @retval HAL status
 898:Drivers/STM32WBxx_HAL_Driver/Src/stm32wbxx_hal_dma.c ****   */
 899:Drivers/STM32WBxx_HAL_Driver/Src/stm32wbxx_hal_dma.c **** HAL_StatusTypeDef HAL_DMA_UnRegisterCallback(DMA_HandleTypeDef *hdma, HAL_DMA_CallbackIDTypeDef Cal
 900:Drivers/STM32WBxx_HAL_Driver/Src/stm32wbxx_hal_dma.c **** {
 901:Drivers/STM32WBxx_HAL_Driver/Src/stm32wbxx_hal_dma.c ****   HAL_StatusTypeDef status = HAL_OK;
 902:Drivers/STM32WBxx_HAL_Driver/Src/stm32wbxx_hal_dma.c **** 
 903:Drivers/STM32WBxx_HAL_Driver/Src/stm32wbxx_hal_dma.c ****   /* Process locked */
 904:Drivers/STM32WBxx_HAL_Driver/Src/stm32wbxx_hal_dma.c ****   __HAL_LOCK(hdma);
 905:Drivers/STM32WBxx_HAL_Driver/Src/stm32wbxx_hal_dma.c **** 
 906:Drivers/STM32WBxx_HAL_Driver/Src/stm32wbxx_hal_dma.c ****   if (HAL_DMA_STATE_READY == hdma->State)
 907:Drivers/STM32WBxx_HAL_Driver/Src/stm32wbxx_hal_dma.c ****   {
 908:Drivers/STM32WBxx_HAL_Driver/Src/stm32wbxx_hal_dma.c ****     switch (CallbackID)
 909:Drivers/STM32WBxx_HAL_Driver/Src/stm32wbxx_hal_dma.c ****     {
 910:Drivers/STM32WBxx_HAL_Driver/Src/stm32wbxx_hal_dma.c ****       case  HAL_DMA_XFER_CPLT_CB_ID:
 911:Drivers/STM32WBxx_HAL_Driver/Src/stm32wbxx_hal_dma.c ****         hdma->XferCpltCallback = NULL;
 912:Drivers/STM32WBxx_HAL_Driver/Src/stm32wbxx_hal_dma.c ****         break;
 913:Drivers/STM32WBxx_HAL_Driver/Src/stm32wbxx_hal_dma.c **** 
 914:Drivers/STM32WBxx_HAL_Driver/Src/stm32wbxx_hal_dma.c ****       case  HAL_DMA_XFER_HALFCPLT_CB_ID:
 915:Drivers/STM32WBxx_HAL_Driver/Src/stm32wbxx_hal_dma.c ****         hdma->XferHalfCpltCallback = NULL;
 916:Drivers/STM32WBxx_HAL_Driver/Src/stm32wbxx_hal_dma.c ****         break;
 917:Drivers/STM32WBxx_HAL_Driver/Src/stm32wbxx_hal_dma.c **** 
 918:Drivers/STM32WBxx_HAL_Driver/Src/stm32wbxx_hal_dma.c ****       case  HAL_DMA_XFER_ERROR_CB_ID:
 919:Drivers/STM32WBxx_HAL_Driver/Src/stm32wbxx_hal_dma.c ****         hdma->XferErrorCallback = NULL;
 920:Drivers/STM32WBxx_HAL_Driver/Src/stm32wbxx_hal_dma.c ****         break;
 921:Drivers/STM32WBxx_HAL_Driver/Src/stm32wbxx_hal_dma.c **** 
 922:Drivers/STM32WBxx_HAL_Driver/Src/stm32wbxx_hal_dma.c ****       case  HAL_DMA_XFER_ABORT_CB_ID:
 923:Drivers/STM32WBxx_HAL_Driver/Src/stm32wbxx_hal_dma.c ****         hdma->XferAbortCallback = NULL;
 924:Drivers/STM32WBxx_HAL_Driver/Src/stm32wbxx_hal_dma.c ****         break;
 925:Drivers/STM32WBxx_HAL_Driver/Src/stm32wbxx_hal_dma.c **** 
 926:Drivers/STM32WBxx_HAL_Driver/Src/stm32wbxx_hal_dma.c ****       case   HAL_DMA_XFER_ALL_CB_ID:
 927:Drivers/STM32WBxx_HAL_Driver/Src/stm32wbxx_hal_dma.c ****         hdma->XferCpltCallback = NULL;
 928:Drivers/STM32WBxx_HAL_Driver/Src/stm32wbxx_hal_dma.c ****         hdma->XferHalfCpltCallback = NULL;
 929:Drivers/STM32WBxx_HAL_Driver/Src/stm32wbxx_hal_dma.c ****         hdma->XferErrorCallback = NULL;
 930:Drivers/STM32WBxx_HAL_Driver/Src/stm32wbxx_hal_dma.c ****         hdma->XferAbortCallback = NULL;
 931:Drivers/STM32WBxx_HAL_Driver/Src/stm32wbxx_hal_dma.c ****         break;
 932:Drivers/STM32WBxx_HAL_Driver/Src/stm32wbxx_hal_dma.c **** 
 933:Drivers/STM32WBxx_HAL_Driver/Src/stm32wbxx_hal_dma.c ****       default:
 934:Drivers/STM32WBxx_HAL_Driver/Src/stm32wbxx_hal_dma.c ****         status = HAL_ERROR;
 935:Drivers/STM32WBxx_HAL_Driver/Src/stm32wbxx_hal_dma.c ****         break;
 936:Drivers/STM32WBxx_HAL_Driver/Src/stm32wbxx_hal_dma.c ****     }
 937:Drivers/STM32WBxx_HAL_Driver/Src/stm32wbxx_hal_dma.c ****   }
 938:Drivers/STM32WBxx_HAL_Driver/Src/stm32wbxx_hal_dma.c ****   else
 939:Drivers/STM32WBxx_HAL_Driver/Src/stm32wbxx_hal_dma.c ****   {
 940:Drivers/STM32WBxx_HAL_Driver/Src/stm32wbxx_hal_dma.c ****     status = HAL_ERROR;
 941:Drivers/STM32WBxx_HAL_Driver/Src/stm32wbxx_hal_dma.c ****   }
 942:Drivers/STM32WBxx_HAL_Driver/Src/stm32wbxx_hal_dma.c **** 
ARM GAS  C:\Users\Nathan\AppData\Local\Temp\ccwtEZa1.s 			page 18


 943:Drivers/STM32WBxx_HAL_Driver/Src/stm32wbxx_hal_dma.c ****   /* Release Lock */
 944:Drivers/STM32WBxx_HAL_Driver/Src/stm32wbxx_hal_dma.c ****   __HAL_UNLOCK(hdma);
 945:Drivers/STM32WBxx_HAL_Driver/Src/stm32wbxx_hal_dma.c **** 
 946:Drivers/STM32WBxx_HAL_Driver/Src/stm32wbxx_hal_dma.c ****   return status;
 947:Drivers/STM32WBxx_HAL_Driver/Src/stm32wbxx_hal_dma.c **** }
 948:Drivers/STM32WBxx_HAL_Driver/Src/stm32wbxx_hal_dma.c **** 
 949:Drivers/STM32WBxx_HAL_Driver/Src/stm32wbxx_hal_dma.c **** /**
 950:Drivers/STM32WBxx_HAL_Driver/Src/stm32wbxx_hal_dma.c ****   * @}
 951:Drivers/STM32WBxx_HAL_Driver/Src/stm32wbxx_hal_dma.c ****   */
 952:Drivers/STM32WBxx_HAL_Driver/Src/stm32wbxx_hal_dma.c **** 
 953:Drivers/STM32WBxx_HAL_Driver/Src/stm32wbxx_hal_dma.c **** 
 954:Drivers/STM32WBxx_HAL_Driver/Src/stm32wbxx_hal_dma.c **** 
 955:Drivers/STM32WBxx_HAL_Driver/Src/stm32wbxx_hal_dma.c **** /** @defgroup DMA_Exported_Functions_Group3 Peripheral State and Errors functions
 956:Drivers/STM32WBxx_HAL_Driver/Src/stm32wbxx_hal_dma.c ****   *  @brief    Peripheral State and Errors functions
 957:Drivers/STM32WBxx_HAL_Driver/Src/stm32wbxx_hal_dma.c ****   *
 958:Drivers/STM32WBxx_HAL_Driver/Src/stm32wbxx_hal_dma.c **** @verbatim
 959:Drivers/STM32WBxx_HAL_Driver/Src/stm32wbxx_hal_dma.c ****  ===============================================================================
 960:Drivers/STM32WBxx_HAL_Driver/Src/stm32wbxx_hal_dma.c ****             ##### Peripheral State and Errors functions #####
 961:Drivers/STM32WBxx_HAL_Driver/Src/stm32wbxx_hal_dma.c ****  ===============================================================================
 962:Drivers/STM32WBxx_HAL_Driver/Src/stm32wbxx_hal_dma.c ****     [..]
 963:Drivers/STM32WBxx_HAL_Driver/Src/stm32wbxx_hal_dma.c ****     This subsection provides functions allowing to
 964:Drivers/STM32WBxx_HAL_Driver/Src/stm32wbxx_hal_dma.c ****       (+) Check the DMA state
 965:Drivers/STM32WBxx_HAL_Driver/Src/stm32wbxx_hal_dma.c ****       (+) Get error code
 966:Drivers/STM32WBxx_HAL_Driver/Src/stm32wbxx_hal_dma.c **** 
 967:Drivers/STM32WBxx_HAL_Driver/Src/stm32wbxx_hal_dma.c **** @endverbatim
 968:Drivers/STM32WBxx_HAL_Driver/Src/stm32wbxx_hal_dma.c ****   * @{
 969:Drivers/STM32WBxx_HAL_Driver/Src/stm32wbxx_hal_dma.c ****   */
 970:Drivers/STM32WBxx_HAL_Driver/Src/stm32wbxx_hal_dma.c **** 
 971:Drivers/STM32WBxx_HAL_Driver/Src/stm32wbxx_hal_dma.c **** /**
 972:Drivers/STM32WBxx_HAL_Driver/Src/stm32wbxx_hal_dma.c ****   * @brief  Return the DMA handle state.
 973:Drivers/STM32WBxx_HAL_Driver/Src/stm32wbxx_hal_dma.c ****   * @param hdma Pointer to a DMA_HandleTypeDef structure that contains
 974:Drivers/STM32WBxx_HAL_Driver/Src/stm32wbxx_hal_dma.c ****   *               the configuration information for the specified DMA Channel.
 975:Drivers/STM32WBxx_HAL_Driver/Src/stm32wbxx_hal_dma.c ****   * @retval HAL state
 976:Drivers/STM32WBxx_HAL_Driver/Src/stm32wbxx_hal_dma.c ****   */
 977:Drivers/STM32WBxx_HAL_Driver/Src/stm32wbxx_hal_dma.c **** HAL_DMA_StateTypeDef HAL_DMA_GetState(DMA_HandleTypeDef *hdma)
 978:Drivers/STM32WBxx_HAL_Driver/Src/stm32wbxx_hal_dma.c **** {
 979:Drivers/STM32WBxx_HAL_Driver/Src/stm32wbxx_hal_dma.c ****   /* Return DMA handle state */
 980:Drivers/STM32WBxx_HAL_Driver/Src/stm32wbxx_hal_dma.c ****   return hdma->State;
 981:Drivers/STM32WBxx_HAL_Driver/Src/stm32wbxx_hal_dma.c **** }
 982:Drivers/STM32WBxx_HAL_Driver/Src/stm32wbxx_hal_dma.c **** 
 983:Drivers/STM32WBxx_HAL_Driver/Src/stm32wbxx_hal_dma.c **** /**
 984:Drivers/STM32WBxx_HAL_Driver/Src/stm32wbxx_hal_dma.c ****   * @brief  Return the DMA error code.
 985:Drivers/STM32WBxx_HAL_Driver/Src/stm32wbxx_hal_dma.c ****   * @param  hdma Pointer to a DMA_HandleTypeDef structure that contains
 986:Drivers/STM32WBxx_HAL_Driver/Src/stm32wbxx_hal_dma.c ****   *              the configuration information for the specified DMA Channel.
 987:Drivers/STM32WBxx_HAL_Driver/Src/stm32wbxx_hal_dma.c ****   * @retval DMA Error Code
 988:Drivers/STM32WBxx_HAL_Driver/Src/stm32wbxx_hal_dma.c ****   */
 989:Drivers/STM32WBxx_HAL_Driver/Src/stm32wbxx_hal_dma.c **** uint32_t HAL_DMA_GetError(DMA_HandleTypeDef *hdma)
 990:Drivers/STM32WBxx_HAL_Driver/Src/stm32wbxx_hal_dma.c **** {
 991:Drivers/STM32WBxx_HAL_Driver/Src/stm32wbxx_hal_dma.c ****   return hdma->ErrorCode;
 992:Drivers/STM32WBxx_HAL_Driver/Src/stm32wbxx_hal_dma.c **** }
 993:Drivers/STM32WBxx_HAL_Driver/Src/stm32wbxx_hal_dma.c **** 
 994:Drivers/STM32WBxx_HAL_Driver/Src/stm32wbxx_hal_dma.c **** /**
 995:Drivers/STM32WBxx_HAL_Driver/Src/stm32wbxx_hal_dma.c ****   * @}
 996:Drivers/STM32WBxx_HAL_Driver/Src/stm32wbxx_hal_dma.c ****   */
 997:Drivers/STM32WBxx_HAL_Driver/Src/stm32wbxx_hal_dma.c **** 
 998:Drivers/STM32WBxx_HAL_Driver/Src/stm32wbxx_hal_dma.c **** /**
 999:Drivers/STM32WBxx_HAL_Driver/Src/stm32wbxx_hal_dma.c ****   * @}
ARM GAS  C:\Users\Nathan\AppData\Local\Temp\ccwtEZa1.s 			page 19


1000:Drivers/STM32WBxx_HAL_Driver/Src/stm32wbxx_hal_dma.c ****   */
1001:Drivers/STM32WBxx_HAL_Driver/Src/stm32wbxx_hal_dma.c **** 
1002:Drivers/STM32WBxx_HAL_Driver/Src/stm32wbxx_hal_dma.c **** /** @addtogroup DMA_Private_Functions
1003:Drivers/STM32WBxx_HAL_Driver/Src/stm32wbxx_hal_dma.c ****   * @{
1004:Drivers/STM32WBxx_HAL_Driver/Src/stm32wbxx_hal_dma.c ****   */
1005:Drivers/STM32WBxx_HAL_Driver/Src/stm32wbxx_hal_dma.c **** 
1006:Drivers/STM32WBxx_HAL_Driver/Src/stm32wbxx_hal_dma.c **** /**
1007:Drivers/STM32WBxx_HAL_Driver/Src/stm32wbxx_hal_dma.c ****   * @brief  Sets the DMA Transfer parameter.
1008:Drivers/STM32WBxx_HAL_Driver/Src/stm32wbxx_hal_dma.c ****   * @param hdma Pointer to a DMA_HandleTypeDef structure that contains
1009:Drivers/STM32WBxx_HAL_Driver/Src/stm32wbxx_hal_dma.c ****   *                     the configuration information for the specified DMA Channel.
1010:Drivers/STM32WBxx_HAL_Driver/Src/stm32wbxx_hal_dma.c ****   * @param SrcAddress The source memory Buffer address
1011:Drivers/STM32WBxx_HAL_Driver/Src/stm32wbxx_hal_dma.c ****   * @param DstAddress The destination memory Buffer address
1012:Drivers/STM32WBxx_HAL_Driver/Src/stm32wbxx_hal_dma.c ****   * @param DataLength The length of data to be transferred from source to destination
1013:Drivers/STM32WBxx_HAL_Driver/Src/stm32wbxx_hal_dma.c ****   * @retval HAL status
1014:Drivers/STM32WBxx_HAL_Driver/Src/stm32wbxx_hal_dma.c ****   */
1015:Drivers/STM32WBxx_HAL_Driver/Src/stm32wbxx_hal_dma.c **** static void DMA_SetConfig(DMA_HandleTypeDef *hdma, uint32_t SrcAddress, uint32_t DstAddress, uint32
1016:Drivers/STM32WBxx_HAL_Driver/Src/stm32wbxx_hal_dma.c **** {
  29              		.loc 1 1016 1 view -0
  30              		.cfi_startproc
  31              		@ args = 0, pretend = 0, frame = 0
  32              		@ frame_needed = 0, uses_anonymous_args = 0
  33              		@ link register save eliminated.
  34              		.loc 1 1016 1 is_stmt 0 view .LVU1
  35 0000 30B4     		push	{r4, r5}
  36              		.cfi_def_cfa_offset 8
  37              		.cfi_offset 4, -8
  38              		.cfi_offset 5, -4
1017:Drivers/STM32WBxx_HAL_Driver/Src/stm32wbxx_hal_dma.c ****   /* Clear the DMAMUX synchro overrun flag */
1018:Drivers/STM32WBxx_HAL_Driver/Src/stm32wbxx_hal_dma.c ****   hdma->DMAmuxChannelStatus->CFR = hdma->DMAmuxChannelStatusMask;
  39              		.loc 1 1018 3 is_stmt 1 view .LVU2
  40              		.loc 1 1018 7 is_stmt 0 view .LVU3
  41 0002 C46C     		ldr	r4, [r0, #76]
  42              		.loc 1 1018 34 view .LVU4
  43 0004 056D     		ldr	r5, [r0, #80]
  44 0006 6560     		str	r5, [r4, #4]
1019:Drivers/STM32WBxx_HAL_Driver/Src/stm32wbxx_hal_dma.c **** 
1020:Drivers/STM32WBxx_HAL_Driver/Src/stm32wbxx_hal_dma.c ****   if (hdma->DMAmuxRequestGen != 0U)
  45              		.loc 1 1020 3 is_stmt 1 view .LVU5
  46              		.loc 1 1020 11 is_stmt 0 view .LVU6
  47 0008 446D     		ldr	r4, [r0, #84]
  48              		.loc 1 1020 6 view .LVU7
  49 000a 14B1     		cbz	r4, .L2
1021:Drivers/STM32WBxx_HAL_Driver/Src/stm32wbxx_hal_dma.c ****   {
1022:Drivers/STM32WBxx_HAL_Driver/Src/stm32wbxx_hal_dma.c ****     /* Clear the DMAMUX request generator overrun flag */
1023:Drivers/STM32WBxx_HAL_Driver/Src/stm32wbxx_hal_dma.c ****     hdma->DMAmuxRequestGenStatus->RGCFR = hdma->DMAmuxRequestGenStatusMask;
  50              		.loc 1 1023 5 is_stmt 1 view .LVU8
  51              		.loc 1 1023 9 is_stmt 0 view .LVU9
  52 000c 846D     		ldr	r4, [r0, #88]
  53              		.loc 1 1023 41 view .LVU10
  54 000e C56D     		ldr	r5, [r0, #92]
  55 0010 6560     		str	r5, [r4, #4]
  56              	.L2:
1024:Drivers/STM32WBxx_HAL_Driver/Src/stm32wbxx_hal_dma.c ****   }
1025:Drivers/STM32WBxx_HAL_Driver/Src/stm32wbxx_hal_dma.c **** 
1026:Drivers/STM32WBxx_HAL_Driver/Src/stm32wbxx_hal_dma.c ****   /* Clear all flags */
1027:Drivers/STM32WBxx_HAL_Driver/Src/stm32wbxx_hal_dma.c ****   hdma->DmaBaseAddress->IFCR = (DMA_ISR_GIF1 << (hdma->ChannelIndex & 0x1cU));
  57              		.loc 1 1027 3 is_stmt 1 view .LVU11
ARM GAS  C:\Users\Nathan\AppData\Local\Temp\ccwtEZa1.s 			page 20


  58              		.loc 1 1027 54 is_stmt 0 view .LVU12
  59 0012 446C     		ldr	r4, [r0, #68]
  60              		.loc 1 1027 69 view .LVU13
  61 0014 04F01C0C 		and	ip, r4, #28
  62              		.loc 1 1027 46 view .LVU14
  63 0018 0124     		movs	r4, #1
  64 001a 04FA0CF4 		lsl	r4, r4, ip
  65              		.loc 1 1027 30 view .LVU15
  66 001e 056C     		ldr	r5, [r0, #64]
  67 0020 6C60     		str	r4, [r5, #4]
1028:Drivers/STM32WBxx_HAL_Driver/Src/stm32wbxx_hal_dma.c **** 
1029:Drivers/STM32WBxx_HAL_Driver/Src/stm32wbxx_hal_dma.c ****   /* Configure DMA Channel data length */
1030:Drivers/STM32WBxx_HAL_Driver/Src/stm32wbxx_hal_dma.c ****   hdma->Instance->CNDTR = DataLength;
  68              		.loc 1 1030 3 is_stmt 1 view .LVU16
  69              		.loc 1 1030 7 is_stmt 0 view .LVU17
  70 0022 0468     		ldr	r4, [r0]
  71              		.loc 1 1030 25 view .LVU18
  72 0024 6360     		str	r3, [r4, #4]
1031:Drivers/STM32WBxx_HAL_Driver/Src/stm32wbxx_hal_dma.c **** 
1032:Drivers/STM32WBxx_HAL_Driver/Src/stm32wbxx_hal_dma.c ****   /* Memory to Peripheral */
1033:Drivers/STM32WBxx_HAL_Driver/Src/stm32wbxx_hal_dma.c ****   if ((hdma->Init.Direction) == DMA_MEMORY_TO_PERIPH)
  73              		.loc 1 1033 3 is_stmt 1 view .LVU19
  74              		.loc 1 1033 18 is_stmt 0 view .LVU20
  75 0026 8368     		ldr	r3, [r0, #8]
  76              	.LVL1:
  77              		.loc 1 1033 6 view .LVU21
  78 0028 102B     		cmp	r3, #16
  79 002a 05D0     		beq	.L6
1034:Drivers/STM32WBxx_HAL_Driver/Src/stm32wbxx_hal_dma.c ****   {
1035:Drivers/STM32WBxx_HAL_Driver/Src/stm32wbxx_hal_dma.c ****     /* Configure DMA Channel destination address */
1036:Drivers/STM32WBxx_HAL_Driver/Src/stm32wbxx_hal_dma.c ****     hdma->Instance->CPAR = DstAddress;
1037:Drivers/STM32WBxx_HAL_Driver/Src/stm32wbxx_hal_dma.c **** 
1038:Drivers/STM32WBxx_HAL_Driver/Src/stm32wbxx_hal_dma.c ****     /* Configure DMA Channel source address */
1039:Drivers/STM32WBxx_HAL_Driver/Src/stm32wbxx_hal_dma.c ****     hdma->Instance->CMAR = SrcAddress;
1040:Drivers/STM32WBxx_HAL_Driver/Src/stm32wbxx_hal_dma.c ****   }
1041:Drivers/STM32WBxx_HAL_Driver/Src/stm32wbxx_hal_dma.c ****   /* Peripheral to Memory */
1042:Drivers/STM32WBxx_HAL_Driver/Src/stm32wbxx_hal_dma.c ****   else
1043:Drivers/STM32WBxx_HAL_Driver/Src/stm32wbxx_hal_dma.c ****   {
1044:Drivers/STM32WBxx_HAL_Driver/Src/stm32wbxx_hal_dma.c ****     /* Configure DMA Channel source address */
1045:Drivers/STM32WBxx_HAL_Driver/Src/stm32wbxx_hal_dma.c ****     hdma->Instance->CPAR = SrcAddress;
  80              		.loc 1 1045 5 is_stmt 1 view .LVU22
  81              		.loc 1 1045 9 is_stmt 0 view .LVU23
  82 002c 0368     		ldr	r3, [r0]
  83              		.loc 1 1045 26 view .LVU24
  84 002e 9960     		str	r1, [r3, #8]
  85              	.LVL2:
1046:Drivers/STM32WBxx_HAL_Driver/Src/stm32wbxx_hal_dma.c **** 
1047:Drivers/STM32WBxx_HAL_Driver/Src/stm32wbxx_hal_dma.c ****     /* Configure DMA Channel destination address */
1048:Drivers/STM32WBxx_HAL_Driver/Src/stm32wbxx_hal_dma.c ****     hdma->Instance->CMAR = DstAddress;
  86              		.loc 1 1048 5 is_stmt 1 view .LVU25
  87              		.loc 1 1048 9 is_stmt 0 view .LVU26
  88 0030 0368     		ldr	r3, [r0]
  89              		.loc 1 1048 26 view .LVU27
  90 0032 DA60     		str	r2, [r3, #12]
  91              	.L1:
1049:Drivers/STM32WBxx_HAL_Driver/Src/stm32wbxx_hal_dma.c ****   }
1050:Drivers/STM32WBxx_HAL_Driver/Src/stm32wbxx_hal_dma.c **** }
ARM GAS  C:\Users\Nathan\AppData\Local\Temp\ccwtEZa1.s 			page 21


  92              		.loc 1 1050 1 view .LVU28
  93 0034 30BC     		pop	{r4, r5}
  94              		.cfi_remember_state
  95              		.cfi_restore 5
  96              		.cfi_restore 4
  97              		.cfi_def_cfa_offset 0
  98 0036 7047     		bx	lr
  99              	.LVL3:
 100              	.L6:
 101              		.cfi_restore_state
1036:Drivers/STM32WBxx_HAL_Driver/Src/stm32wbxx_hal_dma.c **** 
 102              		.loc 1 1036 5 is_stmt 1 view .LVU29
1036:Drivers/STM32WBxx_HAL_Driver/Src/stm32wbxx_hal_dma.c **** 
 103              		.loc 1 1036 9 is_stmt 0 view .LVU30
 104 0038 0368     		ldr	r3, [r0]
1036:Drivers/STM32WBxx_HAL_Driver/Src/stm32wbxx_hal_dma.c **** 
 105              		.loc 1 1036 26 view .LVU31
 106 003a 9A60     		str	r2, [r3, #8]
 107              	.LVL4:
1039:Drivers/STM32WBxx_HAL_Driver/Src/stm32wbxx_hal_dma.c ****   }
 108              		.loc 1 1039 5 is_stmt 1 view .LVU32
1039:Drivers/STM32WBxx_HAL_Driver/Src/stm32wbxx_hal_dma.c ****   }
 109              		.loc 1 1039 9 is_stmt 0 view .LVU33
 110 003c 0368     		ldr	r3, [r0]
1039:Drivers/STM32WBxx_HAL_Driver/Src/stm32wbxx_hal_dma.c ****   }
 111              		.loc 1 1039 26 view .LVU34
 112 003e D960     		str	r1, [r3, #12]
 113 0040 F8E7     		b	.L1
 114              		.cfi_endproc
 115              	.LFE1116:
 117              		.section	.text.DMA_CalcDMAMUXChannelBaseAndMask,"ax",%progbits
 118              		.align	1
 119              		.syntax unified
 120              		.thumb
 121              		.thumb_func
 123              	DMA_CalcDMAMUXChannelBaseAndMask:
 124              	.LVL5:
 125              	.LFB1117:
1051:Drivers/STM32WBxx_HAL_Driver/Src/stm32wbxx_hal_dma.c **** 
1052:Drivers/STM32WBxx_HAL_Driver/Src/stm32wbxx_hal_dma.c **** /**
1053:Drivers/STM32WBxx_HAL_Driver/Src/stm32wbxx_hal_dma.c ****   * @brief  Updates the DMA handle with the DMAMUX  channel and status mask depending on channel nu
1054:Drivers/STM32WBxx_HAL_Driver/Src/stm32wbxx_hal_dma.c ****   * @param  hdma Pointer to a DMA_HandleTypeDef structure that contains
1055:Drivers/STM32WBxx_HAL_Driver/Src/stm32wbxx_hal_dma.c ****   *                     the configuration information for the specified DMA Channel.
1056:Drivers/STM32WBxx_HAL_Driver/Src/stm32wbxx_hal_dma.c ****   * @retval None
1057:Drivers/STM32WBxx_HAL_Driver/Src/stm32wbxx_hal_dma.c ****   */
1058:Drivers/STM32WBxx_HAL_Driver/Src/stm32wbxx_hal_dma.c **** static void DMA_CalcDMAMUXChannelBaseAndMask(DMA_HandleTypeDef *hdma)
1059:Drivers/STM32WBxx_HAL_Driver/Src/stm32wbxx_hal_dma.c **** {
 126              		.loc 1 1059 1 is_stmt 1 view -0
 127              		.cfi_startproc
 128              		@ args = 0, pretend = 0, frame = 0
 129              		@ frame_needed = 0, uses_anonymous_args = 0
 130              		@ link register save eliminated.
1060:Drivers/STM32WBxx_HAL_Driver/Src/stm32wbxx_hal_dma.c ****   uint32_t channel_number;
 131              		.loc 1 1060 3 view .LVU36
1061:Drivers/STM32WBxx_HAL_Driver/Src/stm32wbxx_hal_dma.c **** 
1062:Drivers/STM32WBxx_HAL_Driver/Src/stm32wbxx_hal_dma.c ****   /* check if instance is not outside the DMA channel range */
1063:Drivers/STM32WBxx_HAL_Driver/Src/stm32wbxx_hal_dma.c **** #if defined(DMA2)
ARM GAS  C:\Users\Nathan\AppData\Local\Temp\ccwtEZa1.s 			page 22


1064:Drivers/STM32WBxx_HAL_Driver/Src/stm32wbxx_hal_dma.c ****   if ((uint32_t)hdma->Instance < (uint32_t)DMA2_Channel1)
 132              		.loc 1 1064 3 view .LVU37
 133              		.loc 1 1064 21 is_stmt 0 view .LVU38
 134 0000 0368     		ldr	r3, [r0]
 135              		.loc 1 1064 6 view .LVU39
 136 0002 104A     		ldr	r2, .L10
 137 0004 9342     		cmp	r3, r2
 138 0006 15D8     		bhi	.L8
1065:Drivers/STM32WBxx_HAL_Driver/Src/stm32wbxx_hal_dma.c ****   {
1066:Drivers/STM32WBxx_HAL_Driver/Src/stm32wbxx_hal_dma.c ****     /* DMA1 */
1067:Drivers/STM32WBxx_HAL_Driver/Src/stm32wbxx_hal_dma.c ****     hdma->DMAmuxChannel = (DMAMUX1_Channel0 + (hdma->ChannelIndex >> 2U));
 139              		.loc 1 1067 5 is_stmt 1 view .LVU40
 140              		.loc 1 1067 52 is_stmt 0 view .LVU41
 141 0008 426C     		ldr	r2, [r0, #68]
 142              		.loc 1 1067 45 view .LVU42
 143 000a 22F00302 		bic	r2, r2, #3
 144 000e 02F18042 		add	r2, r2, #1073741824
 145 0012 02F50232 		add	r2, r2, #133120
 146              		.loc 1 1067 25 view .LVU43
 147 0016 8264     		str	r2, [r0, #72]
 148              	.L9:
1068:Drivers/STM32WBxx_HAL_Driver/Src/stm32wbxx_hal_dma.c ****   }
1069:Drivers/STM32WBxx_HAL_Driver/Src/stm32wbxx_hal_dma.c ****   else
1070:Drivers/STM32WBxx_HAL_Driver/Src/stm32wbxx_hal_dma.c ****   {
1071:Drivers/STM32WBxx_HAL_Driver/Src/stm32wbxx_hal_dma.c ****     /* DMA2 */
1072:Drivers/STM32WBxx_HAL_Driver/Src/stm32wbxx_hal_dma.c ****     hdma->DMAmuxChannel = (DMAMUX1_Channel7 + (hdma->ChannelIndex >> 2U));
1073:Drivers/STM32WBxx_HAL_Driver/Src/stm32wbxx_hal_dma.c ****   }
1074:Drivers/STM32WBxx_HAL_Driver/Src/stm32wbxx_hal_dma.c **** #else
1075:Drivers/STM32WBxx_HAL_Driver/Src/stm32wbxx_hal_dma.c ****   /* DMA1 */
1076:Drivers/STM32WBxx_HAL_Driver/Src/stm32wbxx_hal_dma.c ****   hdma->DMAmuxChannel = (DMAMUX1_Channel0 + (hdma->ChannelIndex >> 2U));
1077:Drivers/STM32WBxx_HAL_Driver/Src/stm32wbxx_hal_dma.c **** #endif /* DMA2 */
1078:Drivers/STM32WBxx_HAL_Driver/Src/stm32wbxx_hal_dma.c ****   channel_number = (((uint32_t)hdma->Instance & 0xFFU) - 8U) / 20U;
 149              		.loc 1 1078 3 is_stmt 1 view .LVU44
 150              		.loc 1 1078 47 is_stmt 0 view .LVU45
 151 0018 DBB2     		uxtb	r3, r3
 152              		.loc 1 1078 56 view .LVU46
 153 001a 083B     		subs	r3, r3, #8
 154              		.loc 1 1078 18 view .LVU47
 155 001c 0A4A     		ldr	r2, .L10+4
 156 001e A2FB0323 		umull	r2, r3, r2, r3
 157              	.LVL6:
1079:Drivers/STM32WBxx_HAL_Driver/Src/stm32wbxx_hal_dma.c ****   hdma->DMAmuxChannelStatus = DMAMUX1_ChannelStatus;
 158              		.loc 1 1079 3 is_stmt 1 view .LVU48
 159              		.loc 1 1079 29 is_stmt 0 view .LVU49
 160 0022 0A4A     		ldr	r2, .L10+8
 161 0024 C264     		str	r2, [r0, #76]
1080:Drivers/STM32WBxx_HAL_Driver/Src/stm32wbxx_hal_dma.c **** 
1081:Drivers/STM32WBxx_HAL_Driver/Src/stm32wbxx_hal_dma.c ****   /* Initialize the field DMAmuxChannelStatusMask with the corresponding index of the DMAMUX channe
1082:Drivers/STM32WBxx_HAL_Driver/Src/stm32wbxx_hal_dma.c ****   hdma->DMAmuxChannelStatusMask = 1UL << (channel_number & 0x1FU);
 162              		.loc 1 1082 3 is_stmt 1 view .LVU50
 163              		.loc 1 1082 58 is_stmt 0 view .LVU51
 164 0026 C3F30413 		ubfx	r3, r3, #4, #5
 165              	.LVL7:
 166              		.loc 1 1082 39 view .LVU52
 167 002a 0122     		movs	r2, #1
 168 002c 02FA03F3 		lsl	r3, r2, r3
 169              		.loc 1 1082 33 view .LVU53
ARM GAS  C:\Users\Nathan\AppData\Local\Temp\ccwtEZa1.s 			page 23


 170 0030 0365     		str	r3, [r0, #80]
1083:Drivers/STM32WBxx_HAL_Driver/Src/stm32wbxx_hal_dma.c **** }
 171              		.loc 1 1083 1 view .LVU54
 172 0032 7047     		bx	lr
 173              	.LVL8:
 174              	.L8:
1072:Drivers/STM32WBxx_HAL_Driver/Src/stm32wbxx_hal_dma.c ****   }
 175              		.loc 1 1072 5 is_stmt 1 view .LVU55
1072:Drivers/STM32WBxx_HAL_Driver/Src/stm32wbxx_hal_dma.c ****   }
 176              		.loc 1 1072 52 is_stmt 0 view .LVU56
 177 0034 426C     		ldr	r2, [r0, #68]
1072:Drivers/STM32WBxx_HAL_Driver/Src/stm32wbxx_hal_dma.c ****   }
 178              		.loc 1 1072 45 view .LVU57
 179 0036 22F00301 		bic	r1, r2, #3
 180 003a 054A     		ldr	r2, .L10+12
 181 003c 0A44     		add	r2, r2, r1
1072:Drivers/STM32WBxx_HAL_Driver/Src/stm32wbxx_hal_dma.c ****   }
 182              		.loc 1 1072 25 view .LVU58
 183 003e 8264     		str	r2, [r0, #72]
 184 0040 EAE7     		b	.L9
 185              	.L11:
 186 0042 00BF     		.align	2
 187              	.L10:
 188 0044 07040240 		.word	1073873927
 189 0048 CDCCCCCC 		.word	-858993459
 190 004c 80080240 		.word	1073875072
 191 0050 1C080240 		.word	1073874972
 192              		.cfi_endproc
 193              	.LFE1117:
 195              		.section	.text.DMA_CalcDMAMUXRequestGenBaseAndMask,"ax",%progbits
 196              		.align	1
 197              		.syntax unified
 198              		.thumb
 199              		.thumb_func
 201              	DMA_CalcDMAMUXRequestGenBaseAndMask:
 202              	.LVL9:
 203              	.LFB1118:
1084:Drivers/STM32WBxx_HAL_Driver/Src/stm32wbxx_hal_dma.c **** 
1085:Drivers/STM32WBxx_HAL_Driver/Src/stm32wbxx_hal_dma.c **** /**
1086:Drivers/STM32WBxx_HAL_Driver/Src/stm32wbxx_hal_dma.c ****   * @brief  Updates the DMA handle with the DMAMUX  request generator params
1087:Drivers/STM32WBxx_HAL_Driver/Src/stm32wbxx_hal_dma.c ****   * @param  hdma Pointer to a DMA_HandleTypeDef structure that contains
1088:Drivers/STM32WBxx_HAL_Driver/Src/stm32wbxx_hal_dma.c ****   *                     the configuration information for the specified DMA Channel.
1089:Drivers/STM32WBxx_HAL_Driver/Src/stm32wbxx_hal_dma.c ****   * @retval None
1090:Drivers/STM32WBxx_HAL_Driver/Src/stm32wbxx_hal_dma.c ****   */
1091:Drivers/STM32WBxx_HAL_Driver/Src/stm32wbxx_hal_dma.c **** 
1092:Drivers/STM32WBxx_HAL_Driver/Src/stm32wbxx_hal_dma.c **** static void DMA_CalcDMAMUXRequestGenBaseAndMask(DMA_HandleTypeDef *hdma)
1093:Drivers/STM32WBxx_HAL_Driver/Src/stm32wbxx_hal_dma.c **** {
 204              		.loc 1 1093 1 is_stmt 1 view -0
 205              		.cfi_startproc
 206              		@ args = 0, pretend = 0, frame = 0
 207              		@ frame_needed = 0, uses_anonymous_args = 0
 208              		@ link register save eliminated.
1094:Drivers/STM32WBxx_HAL_Driver/Src/stm32wbxx_hal_dma.c ****   uint32_t request =  hdma->Init.Request & DMAMUX_CxCR_DMAREQ_ID;
 209              		.loc 1 1094 3 view .LVU60
 210              		.loc 1 1094 33 is_stmt 0 view .LVU61
 211 0000 4368     		ldr	r3, [r0, #4]
 212              		.loc 1 1094 12 view .LVU62
ARM GAS  C:\Users\Nathan\AppData\Local\Temp\ccwtEZa1.s 			page 24


 213 0002 03F03F03 		and	r3, r3, #63
 214              	.LVL10:
1095:Drivers/STM32WBxx_HAL_Driver/Src/stm32wbxx_hal_dma.c **** 
1096:Drivers/STM32WBxx_HAL_Driver/Src/stm32wbxx_hal_dma.c ****   /* DMA Channels are connected to DMAMUX1 request generator blocks*/
1097:Drivers/STM32WBxx_HAL_Driver/Src/stm32wbxx_hal_dma.c ****   hdma->DMAmuxRequestGen = (DMAMUX_RequestGen_TypeDef *)((uint32_t)(((uint32_t)DMAMUX1_RequestGener
 215              		.loc 1 1097 3 is_stmt 1 view .LVU63
 216              		.loc 1 1097 58 is_stmt 0 view .LVU64
 217 0006 074A     		ldr	r2, .L13
 218 0008 1A44     		add	r2, r2, r3
 219 000a 9200     		lsls	r2, r2, #2
 220              		.loc 1 1097 26 view .LVU65
 221 000c 4265     		str	r2, [r0, #84]
1098:Drivers/STM32WBxx_HAL_Driver/Src/stm32wbxx_hal_dma.c **** 
1099:Drivers/STM32WBxx_HAL_Driver/Src/stm32wbxx_hal_dma.c ****   hdma->DMAmuxRequestGenStatus = DMAMUX1_RequestGenStatus;
 222              		.loc 1 1099 3 is_stmt 1 view .LVU66
 223              		.loc 1 1099 32 is_stmt 0 view .LVU67
 224 000e 064A     		ldr	r2, .L13+4
 225 0010 8265     		str	r2, [r0, #88]
1100:Drivers/STM32WBxx_HAL_Driver/Src/stm32wbxx_hal_dma.c **** 
1101:Drivers/STM32WBxx_HAL_Driver/Src/stm32wbxx_hal_dma.c ****   /* here "Request" is either DMA_REQUEST_GENERATOR0 to DMA_REQUEST_GENERATOR3, i.e. <= 4*/
1102:Drivers/STM32WBxx_HAL_Driver/Src/stm32wbxx_hal_dma.c ****   hdma->DMAmuxRequestGenStatusMask = 1UL << ((request - 1U) & 0x3U);
 226              		.loc 1 1102 3 is_stmt 1 view .LVU68
 227              		.loc 1 1102 55 is_stmt 0 view .LVU69
 228 0012 013B     		subs	r3, r3, #1
 229              	.LVL11:
 230              		.loc 1 1102 61 view .LVU70
 231 0014 03F00303 		and	r3, r3, #3
 232              	.LVL12:
 233              		.loc 1 1102 42 view .LVU71
 234 0018 0122     		movs	r2, #1
 235 001a 02FA03F3 		lsl	r3, r2, r3
 236              		.loc 1 1102 36 view .LVU72
 237 001e C365     		str	r3, [r0, #92]
1103:Drivers/STM32WBxx_HAL_Driver/Src/stm32wbxx_hal_dma.c **** }
 238              		.loc 1 1103 1 view .LVU73
 239 0020 7047     		bx	lr
 240              	.L14:
 241 0022 00BF     		.align	2
 242              	.L13:
 243 0024 3F820010 		.word	268468799
 244 0028 40090240 		.word	1073875264
 245              		.cfi_endproc
 246              	.LFE1118:
 248              		.section	.text.HAL_DMA_Init,"ax",%progbits
 249              		.align	1
 250              		.global	HAL_DMA_Init
 251              		.syntax unified
 252              		.thumb
 253              		.thumb_func
 255              	HAL_DMA_Init:
 256              	.LVL13:
 257              	.LFB1104:
 152:Drivers/STM32WBxx_HAL_Driver/Src/stm32wbxx_hal_dma.c ****   uint32_t tmp;
 258              		.loc 1 152 1 is_stmt 1 view -0
 259              		.cfi_startproc
 260              		@ args = 0, pretend = 0, frame = 0
 261              		@ frame_needed = 0, uses_anonymous_args = 0
ARM GAS  C:\Users\Nathan\AppData\Local\Temp\ccwtEZa1.s 			page 25


 153:Drivers/STM32WBxx_HAL_Driver/Src/stm32wbxx_hal_dma.c **** 
 262              		.loc 1 153 3 view .LVU75
 156:Drivers/STM32WBxx_HAL_Driver/Src/stm32wbxx_hal_dma.c ****   {
 263              		.loc 1 156 3 view .LVU76
 156:Drivers/STM32WBxx_HAL_Driver/Src/stm32wbxx_hal_dma.c ****   {
 264              		.loc 1 156 6 is_stmt 0 view .LVU77
 265 0000 0028     		cmp	r0, #0
 266 0002 5BD0     		beq	.L22
 152:Drivers/STM32WBxx_HAL_Driver/Src/stm32wbxx_hal_dma.c ****   uint32_t tmp;
 267              		.loc 1 152 1 view .LVU78
 268 0004 10B5     		push	{r4, lr}
 269              		.cfi_def_cfa_offset 8
 270              		.cfi_offset 4, -8
 271              		.cfi_offset 14, -4
 272 0006 0446     		mov	r4, r0
 162:Drivers/STM32WBxx_HAL_Driver/Src/stm32wbxx_hal_dma.c ****   assert_param(IS_DMA_DIRECTION(hdma->Init.Direction));
 273              		.loc 1 162 3 is_stmt 1 view .LVU79
 163:Drivers/STM32WBxx_HAL_Driver/Src/stm32wbxx_hal_dma.c ****   assert_param(IS_DMA_PERIPHERAL_INC_STATE(hdma->Init.PeriphInc));
 274              		.loc 1 163 3 view .LVU80
 164:Drivers/STM32WBxx_HAL_Driver/Src/stm32wbxx_hal_dma.c ****   assert_param(IS_DMA_MEMORY_INC_STATE(hdma->Init.MemInc));
 275              		.loc 1 164 3 view .LVU81
 165:Drivers/STM32WBxx_HAL_Driver/Src/stm32wbxx_hal_dma.c ****   assert_param(IS_DMA_PERIPHERAL_DATA_SIZE(hdma->Init.PeriphDataAlignment));
 276              		.loc 1 165 3 view .LVU82
 166:Drivers/STM32WBxx_HAL_Driver/Src/stm32wbxx_hal_dma.c ****   assert_param(IS_DMA_MEMORY_DATA_SIZE(hdma->Init.MemDataAlignment));
 277              		.loc 1 166 3 view .LVU83
 167:Drivers/STM32WBxx_HAL_Driver/Src/stm32wbxx_hal_dma.c ****   assert_param(IS_DMA_MODE(hdma->Init.Mode));
 278              		.loc 1 167 3 view .LVU84
 168:Drivers/STM32WBxx_HAL_Driver/Src/stm32wbxx_hal_dma.c ****   assert_param(IS_DMA_PRIORITY(hdma->Init.Priority));
 279              		.loc 1 168 3 view .LVU85
 169:Drivers/STM32WBxx_HAL_Driver/Src/stm32wbxx_hal_dma.c **** 
 280              		.loc 1 169 3 view .LVU86
 171:Drivers/STM32WBxx_HAL_Driver/Src/stm32wbxx_hal_dma.c **** 
 281              		.loc 1 171 3 view .LVU87
 175:Drivers/STM32WBxx_HAL_Driver/Src/stm32wbxx_hal_dma.c ****   {
 282              		.loc 1 175 3 view .LVU88
 175:Drivers/STM32WBxx_HAL_Driver/Src/stm32wbxx_hal_dma.c ****   {
 283              		.loc 1 175 22 is_stmt 0 view .LVU89
 284 0008 0268     		ldr	r2, [r0]
 175:Drivers/STM32WBxx_HAL_Driver/Src/stm32wbxx_hal_dma.c ****   {
 285              		.loc 1 175 6 view .LVU90
 286 000a 2D4B     		ldr	r3, .L29
 287 000c 9A42     		cmp	r2, r3
 288 000e 3DD8     		bhi	.L17
 178:Drivers/STM32WBxx_HAL_Driver/Src/stm32wbxx_hal_dma.c ****     hdma->DmaBaseAddress = DMA1;
 289              		.loc 1 178 5 is_stmt 1 view .LVU91
 178:Drivers/STM32WBxx_HAL_Driver/Src/stm32wbxx_hal_dma.c ****     hdma->DmaBaseAddress = DMA1;
 290              		.loc 1 178 53 is_stmt 0 view .LVU92
 291 0010 2C4B     		ldr	r3, .L29+4
 292 0012 1344     		add	r3, r3, r2
 178:Drivers/STM32WBxx_HAL_Driver/Src/stm32wbxx_hal_dma.c ****     hdma->DmaBaseAddress = DMA1;
 293              		.loc 1 178 80 view .LVU93
 294 0014 2C49     		ldr	r1, .L29+8
 295 0016 A1FB0313 		umull	r1, r3, r1, r3
 296 001a 1B09     		lsrs	r3, r3, #4
 178:Drivers/STM32WBxx_HAL_Driver/Src/stm32wbxx_hal_dma.c ****     hdma->DmaBaseAddress = DMA1;
 297              		.loc 1 178 135 view .LVU94
 298 001c 9B00     		lsls	r3, r3, #2
ARM GAS  C:\Users\Nathan\AppData\Local\Temp\ccwtEZa1.s 			page 26


 178:Drivers/STM32WBxx_HAL_Driver/Src/stm32wbxx_hal_dma.c ****     hdma->DmaBaseAddress = DMA1;
 299              		.loc 1 178 24 view .LVU95
 300 001e 4364     		str	r3, [r0, #68]
 179:Drivers/STM32WBxx_HAL_Driver/Src/stm32wbxx_hal_dma.c ****   }
 301              		.loc 1 179 5 is_stmt 1 view .LVU96
 179:Drivers/STM32WBxx_HAL_Driver/Src/stm32wbxx_hal_dma.c ****   }
 302              		.loc 1 179 26 is_stmt 0 view .LVU97
 303 0020 2A4B     		ldr	r3, .L29+12
 304 0022 0364     		str	r3, [r0, #64]
 305              	.L18:
 194:Drivers/STM32WBxx_HAL_Driver/Src/stm32wbxx_hal_dma.c **** 
 306              		.loc 1 194 3 is_stmt 1 view .LVU98
 194:Drivers/STM32WBxx_HAL_Driver/Src/stm32wbxx_hal_dma.c **** 
 307              		.loc 1 194 15 is_stmt 0 view .LVU99
 308 0024 0223     		movs	r3, #2
 309 0026 84F82530 		strb	r3, [r4, #37]
 197:Drivers/STM32WBxx_HAL_Driver/Src/stm32wbxx_hal_dma.c **** 
 310              		.loc 1 197 3 is_stmt 1 view .LVU100
 197:Drivers/STM32WBxx_HAL_Driver/Src/stm32wbxx_hal_dma.c **** 
 311              		.loc 1 197 7 is_stmt 0 view .LVU101
 312 002a 1168     		ldr	r1, [r2]
 313              	.LVL14:
 200:Drivers/STM32WBxx_HAL_Driver/Src/stm32wbxx_hal_dma.c ****                       DMA_CCR_MINC  | DMA_CCR_PINC   | DMA_CCR_CIRC   |
 314              		.loc 1 200 3 is_stmt 1 view .LVU102
 200:Drivers/STM32WBxx_HAL_Driver/Src/stm32wbxx_hal_dma.c ****                       DMA_CCR_MINC  | DMA_CCR_PINC   | DMA_CCR_CIRC   |
 315              		.loc 1 200 7 is_stmt 0 view .LVU103
 316 002c 6FF30E11 		bfc	r1, #4, #11
 317              	.LVL15:
 205:Drivers/STM32WBxx_HAL_Driver/Src/stm32wbxx_hal_dma.c ****           hdma->Init.PeriphInc           | hdma->Init.MemInc           |
 318              		.loc 1 205 3 is_stmt 1 view .LVU104
 205:Drivers/STM32WBxx_HAL_Driver/Src/stm32wbxx_hal_dma.c ****           hdma->Init.PeriphInc           | hdma->Init.MemInc           |
 319              		.loc 1 205 21 is_stmt 0 view .LVU105
 320 0030 A368     		ldr	r3, [r4, #8]
 206:Drivers/STM32WBxx_HAL_Driver/Src/stm32wbxx_hal_dma.c ****           hdma->Init.PeriphDataAlignment | hdma->Init.MemDataAlignment |
 321              		.loc 1 206 21 view .LVU106
 322 0032 E068     		ldr	r0, [r4, #12]
 323              	.LVL16:
 205:Drivers/STM32WBxx_HAL_Driver/Src/stm32wbxx_hal_dma.c ****           hdma->Init.PeriphInc           | hdma->Init.MemInc           |
 324              		.loc 1 205 39 view .LVU107
 325 0034 0343     		orrs	r3, r3, r0
 206:Drivers/STM32WBxx_HAL_Driver/Src/stm32wbxx_hal_dma.c ****           hdma->Init.PeriphDataAlignment | hdma->Init.MemDataAlignment |
 326              		.loc 1 206 54 view .LVU108
 327 0036 2069     		ldr	r0, [r4, #16]
 206:Drivers/STM32WBxx_HAL_Driver/Src/stm32wbxx_hal_dma.c ****           hdma->Init.PeriphDataAlignment | hdma->Init.MemDataAlignment |
 328              		.loc 1 206 42 view .LVU109
 329 0038 0343     		orrs	r3, r3, r0
 207:Drivers/STM32WBxx_HAL_Driver/Src/stm32wbxx_hal_dma.c ****           hdma->Init.Mode                | hdma->Init.Priority;
 330              		.loc 1 207 21 view .LVU110
 331 003a 6069     		ldr	r0, [r4, #20]
 206:Drivers/STM32WBxx_HAL_Driver/Src/stm32wbxx_hal_dma.c ****           hdma->Init.PeriphDataAlignment | hdma->Init.MemDataAlignment |
 332              		.loc 1 206 72 view .LVU111
 333 003c 0343     		orrs	r3, r3, r0
 207:Drivers/STM32WBxx_HAL_Driver/Src/stm32wbxx_hal_dma.c ****           hdma->Init.Mode                | hdma->Init.Priority;
 334              		.loc 1 207 54 view .LVU112
 335 003e A069     		ldr	r0, [r4, #24]
 207:Drivers/STM32WBxx_HAL_Driver/Src/stm32wbxx_hal_dma.c ****           hdma->Init.Mode                | hdma->Init.Priority;
 336              		.loc 1 207 42 view .LVU113
ARM GAS  C:\Users\Nathan\AppData\Local\Temp\ccwtEZa1.s 			page 27


 337 0040 0343     		orrs	r3, r3, r0
 208:Drivers/STM32WBxx_HAL_Driver/Src/stm32wbxx_hal_dma.c **** 
 338              		.loc 1 208 21 view .LVU114
 339 0042 E069     		ldr	r0, [r4, #28]
 207:Drivers/STM32WBxx_HAL_Driver/Src/stm32wbxx_hal_dma.c ****           hdma->Init.Mode                | hdma->Init.Priority;
 340              		.loc 1 207 72 view .LVU115
 341 0044 0343     		orrs	r3, r3, r0
 208:Drivers/STM32WBxx_HAL_Driver/Src/stm32wbxx_hal_dma.c **** 
 342              		.loc 1 208 54 view .LVU116
 343 0046 206A     		ldr	r0, [r4, #32]
 208:Drivers/STM32WBxx_HAL_Driver/Src/stm32wbxx_hal_dma.c **** 
 344              		.loc 1 208 42 view .LVU117
 345 0048 0343     		orrs	r3, r3, r0
 205:Drivers/STM32WBxx_HAL_Driver/Src/stm32wbxx_hal_dma.c ****           hdma->Init.PeriphInc           | hdma->Init.MemInc           |
 346              		.loc 1 205 7 view .LVU118
 347 004a 0B43     		orrs	r3, r3, r1
 348              	.LVL17:
 211:Drivers/STM32WBxx_HAL_Driver/Src/stm32wbxx_hal_dma.c **** 
 349              		.loc 1 211 3 is_stmt 1 view .LVU119
 211:Drivers/STM32WBxx_HAL_Driver/Src/stm32wbxx_hal_dma.c **** 
 350              		.loc 1 211 23 is_stmt 0 view .LVU120
 351 004c 1360     		str	r3, [r2]
 216:Drivers/STM32WBxx_HAL_Driver/Src/stm32wbxx_hal_dma.c **** 
 352              		.loc 1 216 3 is_stmt 1 view .LVU121
 353 004e 2046     		mov	r0, r4
 354 0050 FFF7FEFF 		bl	DMA_CalcDMAMUXChannelBaseAndMask
 355              	.LVL18:
 218:Drivers/STM32WBxx_HAL_Driver/Src/stm32wbxx_hal_dma.c ****   {
 356              		.loc 1 218 3 view .LVU122
 218:Drivers/STM32WBxx_HAL_Driver/Src/stm32wbxx_hal_dma.c ****   {
 357              		.loc 1 218 17 is_stmt 0 view .LVU123
 358 0054 A368     		ldr	r3, [r4, #8]
 218:Drivers/STM32WBxx_HAL_Driver/Src/stm32wbxx_hal_dma.c ****   {
 359              		.loc 1 218 6 view .LVU124
 360 0056 B3F5804F 		cmp	r3, #16384
 361 005a 22D0     		beq	.L27
 362              	.L19:
 225:Drivers/STM32WBxx_HAL_Driver/Src/stm32wbxx_hal_dma.c **** 
 363              		.loc 1 225 3 is_stmt 1 view .LVU125
 225:Drivers/STM32WBxx_HAL_Driver/Src/stm32wbxx_hal_dma.c **** 
 364              		.loc 1 225 41 is_stmt 0 view .LVU126
 365 005c 6368     		ldr	r3, [r4, #4]
 225:Drivers/STM32WBxx_HAL_Driver/Src/stm32wbxx_hal_dma.c **** 
 366              		.loc 1 225 7 view .LVU127
 367 005e A26C     		ldr	r2, [r4, #72]
 225:Drivers/STM32WBxx_HAL_Driver/Src/stm32wbxx_hal_dma.c **** 
 368              		.loc 1 225 50 view .LVU128
 369 0060 03F03F03 		and	r3, r3, #63
 225:Drivers/STM32WBxx_HAL_Driver/Src/stm32wbxx_hal_dma.c **** 
 370              		.loc 1 225 28 view .LVU129
 371 0064 1360     		str	r3, [r2]
 228:Drivers/STM32WBxx_HAL_Driver/Src/stm32wbxx_hal_dma.c **** 
 372              		.loc 1 228 3 is_stmt 1 view .LVU130
 228:Drivers/STM32WBxx_HAL_Driver/Src/stm32wbxx_hal_dma.c **** 
 373              		.loc 1 228 7 is_stmt 0 view .LVU131
 374 0066 E36C     		ldr	r3, [r4, #76]
 228:Drivers/STM32WBxx_HAL_Driver/Src/stm32wbxx_hal_dma.c **** 
ARM GAS  C:\Users\Nathan\AppData\Local\Temp\ccwtEZa1.s 			page 28


 375              		.loc 1 228 40 view .LVU132
 376 0068 226D     		ldr	r2, [r4, #80]
 228:Drivers/STM32WBxx_HAL_Driver/Src/stm32wbxx_hal_dma.c **** 
 377              		.loc 1 228 34 view .LVU133
 378 006a 5A60     		str	r2, [r3, #4]
 230:Drivers/STM32WBxx_HAL_Driver/Src/stm32wbxx_hal_dma.c ****   {
 379              		.loc 1 230 3 is_stmt 1 view .LVU134
 230:Drivers/STM32WBxx_HAL_Driver/Src/stm32wbxx_hal_dma.c ****   {
 380              		.loc 1 230 19 is_stmt 0 view .LVU135
 381 006c 6368     		ldr	r3, [r4, #4]
 230:Drivers/STM32WBxx_HAL_Driver/Src/stm32wbxx_hal_dma.c ****   {
 382              		.loc 1 230 35 view .LVU136
 383 006e 013B     		subs	r3, r3, #1
 230:Drivers/STM32WBxx_HAL_Driver/Src/stm32wbxx_hal_dma.c ****   {
 384              		.loc 1 230 6 view .LVU137
 385 0070 032B     		cmp	r3, #3
 386 0072 19D9     		bls	.L28
 245:Drivers/STM32WBxx_HAL_Driver/Src/stm32wbxx_hal_dma.c ****     hdma->DMAmuxRequestGenStatus = 0U;
 387              		.loc 1 245 5 is_stmt 1 view .LVU138
 245:Drivers/STM32WBxx_HAL_Driver/Src/stm32wbxx_hal_dma.c ****     hdma->DMAmuxRequestGenStatus = 0U;
 388              		.loc 1 245 28 is_stmt 0 view .LVU139
 389 0074 0023     		movs	r3, #0
 390 0076 6365     		str	r3, [r4, #84]
 246:Drivers/STM32WBxx_HAL_Driver/Src/stm32wbxx_hal_dma.c ****     hdma->DMAmuxRequestGenStatusMask = 0U;
 391              		.loc 1 246 5 is_stmt 1 view .LVU140
 246:Drivers/STM32WBxx_HAL_Driver/Src/stm32wbxx_hal_dma.c ****     hdma->DMAmuxRequestGenStatusMask = 0U;
 392              		.loc 1 246 34 is_stmt 0 view .LVU141
 393 0078 A365     		str	r3, [r4, #88]
 247:Drivers/STM32WBxx_HAL_Driver/Src/stm32wbxx_hal_dma.c ****   }
 394              		.loc 1 247 5 is_stmt 1 view .LVU142
 247:Drivers/STM32WBxx_HAL_Driver/Src/stm32wbxx_hal_dma.c ****   }
 395              		.loc 1 247 38 is_stmt 0 view .LVU143
 396 007a E365     		str	r3, [r4, #92]
 397              	.L21:
 251:Drivers/STM32WBxx_HAL_Driver/Src/stm32wbxx_hal_dma.c **** 
 398              		.loc 1 251 3 is_stmt 1 view .LVU144
 251:Drivers/STM32WBxx_HAL_Driver/Src/stm32wbxx_hal_dma.c **** 
 399              		.loc 1 251 19 is_stmt 0 view .LVU145
 400 007c 0020     		movs	r0, #0
 401 007e E063     		str	r0, [r4, #60]
 254:Drivers/STM32WBxx_HAL_Driver/Src/stm32wbxx_hal_dma.c **** 
 402              		.loc 1 254 3 is_stmt 1 view .LVU146
 254:Drivers/STM32WBxx_HAL_Driver/Src/stm32wbxx_hal_dma.c **** 
 403              		.loc 1 254 16 is_stmt 0 view .LVU147
 404 0080 0123     		movs	r3, #1
 405 0082 84F82530 		strb	r3, [r4, #37]
 257:Drivers/STM32WBxx_HAL_Driver/Src/stm32wbxx_hal_dma.c **** 
 406              		.loc 1 257 3 is_stmt 1 view .LVU148
 257:Drivers/STM32WBxx_HAL_Driver/Src/stm32wbxx_hal_dma.c **** 
 407              		.loc 1 257 14 is_stmt 0 view .LVU149
 408 0086 84F82400 		strb	r0, [r4, #36]
 259:Drivers/STM32WBxx_HAL_Driver/Src/stm32wbxx_hal_dma.c **** }
 409              		.loc 1 259 3 is_stmt 1 view .LVU150
 260:Drivers/STM32WBxx_HAL_Driver/Src/stm32wbxx_hal_dma.c **** 
 410              		.loc 1 260 1 is_stmt 0 view .LVU151
 411 008a 10BD     		pop	{r4, pc}
 412              	.LVL19:
ARM GAS  C:\Users\Nathan\AppData\Local\Temp\ccwtEZa1.s 			page 29


 413              	.L17:
 184:Drivers/STM32WBxx_HAL_Driver/Src/stm32wbxx_hal_dma.c ****     hdma->DmaBaseAddress = DMA2;
 414              		.loc 1 184 5 is_stmt 1 view .LVU152
 184:Drivers/STM32WBxx_HAL_Driver/Src/stm32wbxx_hal_dma.c ****     hdma->DmaBaseAddress = DMA2;
 415              		.loc 1 184 53 is_stmt 0 view .LVU153
 416 008c 104B     		ldr	r3, .L29+16
 417 008e 1344     		add	r3, r3, r2
 184:Drivers/STM32WBxx_HAL_Driver/Src/stm32wbxx_hal_dma.c ****     hdma->DmaBaseAddress = DMA2;
 418              		.loc 1 184 80 view .LVU154
 419 0090 0D49     		ldr	r1, .L29+8
 420 0092 A1FB0313 		umull	r1, r3, r1, r3
 421 0096 1B09     		lsrs	r3, r3, #4
 184:Drivers/STM32WBxx_HAL_Driver/Src/stm32wbxx_hal_dma.c ****     hdma->DmaBaseAddress = DMA2;
 422              		.loc 1 184 135 view .LVU155
 423 0098 9B00     		lsls	r3, r3, #2
 184:Drivers/STM32WBxx_HAL_Driver/Src/stm32wbxx_hal_dma.c ****     hdma->DmaBaseAddress = DMA2;
 424              		.loc 1 184 24 view .LVU156
 425 009a 4364     		str	r3, [r0, #68]
 185:Drivers/STM32WBxx_HAL_Driver/Src/stm32wbxx_hal_dma.c ****   }
 426              		.loc 1 185 5 is_stmt 1 view .LVU157
 185:Drivers/STM32WBxx_HAL_Driver/Src/stm32wbxx_hal_dma.c ****   }
 427              		.loc 1 185 26 is_stmt 0 view .LVU158
 428 009c 0D4B     		ldr	r3, .L29+20
 429 009e 0364     		str	r3, [r0, #64]
 430 00a0 C0E7     		b	.L18
 431              	.LVL20:
 432              	.L27:
 221:Drivers/STM32WBxx_HAL_Driver/Src/stm32wbxx_hal_dma.c ****   }
 433              		.loc 1 221 5 is_stmt 1 view .LVU159
 221:Drivers/STM32WBxx_HAL_Driver/Src/stm32wbxx_hal_dma.c ****   }
 434              		.loc 1 221 24 is_stmt 0 view .LVU160
 435 00a2 0023     		movs	r3, #0
 436 00a4 6360     		str	r3, [r4, #4]
 437 00a6 D9E7     		b	.L19
 438              	.L28:
 235:Drivers/STM32WBxx_HAL_Driver/Src/stm32wbxx_hal_dma.c **** 
 439              		.loc 1 235 5 is_stmt 1 view .LVU161
 440 00a8 2046     		mov	r0, r4
 441 00aa FFF7FEFF 		bl	DMA_CalcDMAMUXRequestGenBaseAndMask
 442              	.LVL21:
 238:Drivers/STM32WBxx_HAL_Driver/Src/stm32wbxx_hal_dma.c **** 
 443              		.loc 1 238 5 view .LVU162
 238:Drivers/STM32WBxx_HAL_Driver/Src/stm32wbxx_hal_dma.c **** 
 444              		.loc 1 238 9 is_stmt 0 view .LVU163
 445 00ae 636D     		ldr	r3, [r4, #84]
 238:Drivers/STM32WBxx_HAL_Driver/Src/stm32wbxx_hal_dma.c **** 
 446              		.loc 1 238 34 view .LVU164
 447 00b0 0022     		movs	r2, #0
 448 00b2 1A60     		str	r2, [r3]
 241:Drivers/STM32WBxx_HAL_Driver/Src/stm32wbxx_hal_dma.c ****   }
 449              		.loc 1 241 5 is_stmt 1 view .LVU165
 241:Drivers/STM32WBxx_HAL_Driver/Src/stm32wbxx_hal_dma.c ****   }
 450              		.loc 1 241 9 is_stmt 0 view .LVU166
 451 00b4 A36D     		ldr	r3, [r4, #88]
 241:Drivers/STM32WBxx_HAL_Driver/Src/stm32wbxx_hal_dma.c ****   }
 452              		.loc 1 241 47 view .LVU167
 453 00b6 E26D     		ldr	r2, [r4, #92]
ARM GAS  C:\Users\Nathan\AppData\Local\Temp\ccwtEZa1.s 			page 30


 241:Drivers/STM32WBxx_HAL_Driver/Src/stm32wbxx_hal_dma.c ****   }
 454              		.loc 1 241 41 view .LVU168
 455 00b8 5A60     		str	r2, [r3, #4]
 456 00ba DFE7     		b	.L21
 457              	.LVL22:
 458              	.L22:
 459              		.cfi_def_cfa_offset 0
 460              		.cfi_restore 4
 461              		.cfi_restore 14
 158:Drivers/STM32WBxx_HAL_Driver/Src/stm32wbxx_hal_dma.c ****   }
 462              		.loc 1 158 12 view .LVU169
 463 00bc 0120     		movs	r0, #1
 464              	.LVL23:
 260:Drivers/STM32WBxx_HAL_Driver/Src/stm32wbxx_hal_dma.c **** 
 465              		.loc 1 260 1 view .LVU170
 466 00be 7047     		bx	lr
 467              	.L30:
 468              		.align	2
 469              	.L29:
 470 00c0 07040240 		.word	1073873927
 471 00c4 F8FFFDBF 		.word	-1073872904
 472 00c8 CDCCCCCC 		.word	-858993459
 473 00cc 00000240 		.word	1073872896
 474 00d0 F8FBFDBF 		.word	-1073873928
 475 00d4 00040240 		.word	1073873920
 476              		.cfi_endproc
 477              	.LFE1104:
 479              		.section	.text.HAL_DMA_DeInit,"ax",%progbits
 480              		.align	1
 481              		.global	HAL_DMA_DeInit
 482              		.syntax unified
 483              		.thumb
 484              		.thumb_func
 486              	HAL_DMA_DeInit:
 487              	.LVL24:
 488              	.LFB1105:
 269:Drivers/STM32WBxx_HAL_Driver/Src/stm32wbxx_hal_dma.c **** 
 489              		.loc 1 269 1 is_stmt 1 view -0
 490              		.cfi_startproc
 491              		@ args = 0, pretend = 0, frame = 0
 492              		@ frame_needed = 0, uses_anonymous_args = 0
 272:Drivers/STM32WBxx_HAL_Driver/Src/stm32wbxx_hal_dma.c ****   {
 493              		.loc 1 272 3 view .LVU172
 272:Drivers/STM32WBxx_HAL_Driver/Src/stm32wbxx_hal_dma.c ****   {
 494              		.loc 1 272 6 is_stmt 0 view .LVU173
 495 0000 0028     		cmp	r0, #0
 496 0002 4BD0     		beq	.L36
 269:Drivers/STM32WBxx_HAL_Driver/Src/stm32wbxx_hal_dma.c **** 
 497              		.loc 1 269 1 view .LVU174
 498 0004 38B5     		push	{r3, r4, r5, lr}
 499              		.cfi_def_cfa_offset 16
 500              		.cfi_offset 3, -16
 501              		.cfi_offset 4, -12
 502              		.cfi_offset 5, -8
 503              		.cfi_offset 14, -4
 504 0006 0446     		mov	r4, r0
 278:Drivers/STM32WBxx_HAL_Driver/Src/stm32wbxx_hal_dma.c **** 
ARM GAS  C:\Users\Nathan\AppData\Local\Temp\ccwtEZa1.s 			page 31


 505              		.loc 1 278 3 is_stmt 1 view .LVU175
 281:Drivers/STM32WBxx_HAL_Driver/Src/stm32wbxx_hal_dma.c **** 
 506              		.loc 1 281 3 view .LVU176
 507 0008 0268     		ldr	r2, [r0]
 508 000a 1368     		ldr	r3, [r2]
 509 000c 23F00103 		bic	r3, r3, #1
 510 0010 1360     		str	r3, [r2]
 285:Drivers/STM32WBxx_HAL_Driver/Src/stm32wbxx_hal_dma.c ****   {
 511              		.loc 1 285 3 view .LVU177
 285:Drivers/STM32WBxx_HAL_Driver/Src/stm32wbxx_hal_dma.c ****   {
 512              		.loc 1 285 22 is_stmt 0 view .LVU178
 513 0012 0268     		ldr	r2, [r0]
 285:Drivers/STM32WBxx_HAL_Driver/Src/stm32wbxx_hal_dma.c ****   {
 514              		.loc 1 285 6 view .LVU179
 515 0014 224B     		ldr	r3, .L42
 516 0016 9A42     		cmp	r2, r3
 517 0018 2CD8     		bhi	.L33
 288:Drivers/STM32WBxx_HAL_Driver/Src/stm32wbxx_hal_dma.c ****     hdma->DmaBaseAddress = DMA1;
 518              		.loc 1 288 5 is_stmt 1 view .LVU180
 288:Drivers/STM32WBxx_HAL_Driver/Src/stm32wbxx_hal_dma.c ****     hdma->DmaBaseAddress = DMA1;
 519              		.loc 1 288 53 is_stmt 0 view .LVU181
 520 001a 224B     		ldr	r3, .L42+4
 521 001c 1344     		add	r3, r3, r2
 288:Drivers/STM32WBxx_HAL_Driver/Src/stm32wbxx_hal_dma.c ****     hdma->DmaBaseAddress = DMA1;
 522              		.loc 1 288 80 view .LVU182
 523 001e 2249     		ldr	r1, .L42+8
 524 0020 A1FB0313 		umull	r1, r3, r1, r3
 525 0024 1B09     		lsrs	r3, r3, #4
 288:Drivers/STM32WBxx_HAL_Driver/Src/stm32wbxx_hal_dma.c ****     hdma->DmaBaseAddress = DMA1;
 526              		.loc 1 288 135 view .LVU183
 527 0026 9B00     		lsls	r3, r3, #2
 288:Drivers/STM32WBxx_HAL_Driver/Src/stm32wbxx_hal_dma.c ****     hdma->DmaBaseAddress = DMA1;
 528              		.loc 1 288 24 view .LVU184
 529 0028 4364     		str	r3, [r0, #68]
 289:Drivers/STM32WBxx_HAL_Driver/Src/stm32wbxx_hal_dma.c ****   }
 530              		.loc 1 289 5 is_stmt 1 view .LVU185
 289:Drivers/STM32WBxx_HAL_Driver/Src/stm32wbxx_hal_dma.c ****   }
 531              		.loc 1 289 26 is_stmt 0 view .LVU186
 532 002a 204B     		ldr	r3, .L42+12
 533 002c 0364     		str	r3, [r0, #64]
 534              	.L34:
 304:Drivers/STM32WBxx_HAL_Driver/Src/stm32wbxx_hal_dma.c **** 
 535              		.loc 1 304 3 is_stmt 1 view .LVU187
 304:Drivers/STM32WBxx_HAL_Driver/Src/stm32wbxx_hal_dma.c **** 
 536              		.loc 1 304 24 is_stmt 0 view .LVU188
 537 002e 0025     		movs	r5, #0
 538 0030 1560     		str	r5, [r2]
 307:Drivers/STM32WBxx_HAL_Driver/Src/stm32wbxx_hal_dma.c **** 
 539              		.loc 1 307 3 is_stmt 1 view .LVU189
 307:Drivers/STM32WBxx_HAL_Driver/Src/stm32wbxx_hal_dma.c **** 
 540              		.loc 1 307 54 is_stmt 0 view .LVU190
 541 0032 636C     		ldr	r3, [r4, #68]
 307:Drivers/STM32WBxx_HAL_Driver/Src/stm32wbxx_hal_dma.c **** 
 542              		.loc 1 307 69 view .LVU191
 543 0034 03F01C02 		and	r2, r3, #28
 307:Drivers/STM32WBxx_HAL_Driver/Src/stm32wbxx_hal_dma.c **** 
 544              		.loc 1 307 7 view .LVU192
ARM GAS  C:\Users\Nathan\AppData\Local\Temp\ccwtEZa1.s 			page 32


 545 0038 216C     		ldr	r1, [r4, #64]
 307:Drivers/STM32WBxx_HAL_Driver/Src/stm32wbxx_hal_dma.c **** 
 546              		.loc 1 307 46 view .LVU193
 547 003a 0123     		movs	r3, #1
 548 003c 9340     		lsls	r3, r3, r2
 307:Drivers/STM32WBxx_HAL_Driver/Src/stm32wbxx_hal_dma.c **** 
 549              		.loc 1 307 30 view .LVU194
 550 003e 4B60     		str	r3, [r1, #4]
 312:Drivers/STM32WBxx_HAL_Driver/Src/stm32wbxx_hal_dma.c **** 
 551              		.loc 1 312 3 is_stmt 1 view .LVU195
 552 0040 2046     		mov	r0, r4
 553              	.LVL25:
 312:Drivers/STM32WBxx_HAL_Driver/Src/stm32wbxx_hal_dma.c **** 
 554              		.loc 1 312 3 is_stmt 0 view .LVU196
 555 0042 FFF7FEFF 		bl	DMA_CalcDMAMUXChannelBaseAndMask
 556              	.LVL26:
 315:Drivers/STM32WBxx_HAL_Driver/Src/stm32wbxx_hal_dma.c **** 
 557              		.loc 1 315 3 is_stmt 1 view .LVU197
 315:Drivers/STM32WBxx_HAL_Driver/Src/stm32wbxx_hal_dma.c **** 
 558              		.loc 1 315 7 is_stmt 0 view .LVU198
 559 0046 A36C     		ldr	r3, [r4, #72]
 315:Drivers/STM32WBxx_HAL_Driver/Src/stm32wbxx_hal_dma.c **** 
 560              		.loc 1 315 28 view .LVU199
 561 0048 1D60     		str	r5, [r3]
 318:Drivers/STM32WBxx_HAL_Driver/Src/stm32wbxx_hal_dma.c **** 
 562              		.loc 1 318 3 is_stmt 1 view .LVU200
 318:Drivers/STM32WBxx_HAL_Driver/Src/stm32wbxx_hal_dma.c **** 
 563              		.loc 1 318 7 is_stmt 0 view .LVU201
 564 004a E36C     		ldr	r3, [r4, #76]
 318:Drivers/STM32WBxx_HAL_Driver/Src/stm32wbxx_hal_dma.c **** 
 565              		.loc 1 318 40 view .LVU202
 566 004c 226D     		ldr	r2, [r4, #80]
 318:Drivers/STM32WBxx_HAL_Driver/Src/stm32wbxx_hal_dma.c **** 
 567              		.loc 1 318 34 view .LVU203
 568 004e 5A60     		str	r2, [r3, #4]
 321:Drivers/STM32WBxx_HAL_Driver/Src/stm32wbxx_hal_dma.c ****   {
 569              		.loc 1 321 3 is_stmt 1 view .LVU204
 321:Drivers/STM32WBxx_HAL_Driver/Src/stm32wbxx_hal_dma.c ****   {
 570              		.loc 1 321 19 is_stmt 0 view .LVU205
 571 0050 6368     		ldr	r3, [r4, #4]
 321:Drivers/STM32WBxx_HAL_Driver/Src/stm32wbxx_hal_dma.c ****   {
 572              		.loc 1 321 35 view .LVU206
 573 0052 013B     		subs	r3, r3, #1
 321:Drivers/STM32WBxx_HAL_Driver/Src/stm32wbxx_hal_dma.c ****   {
 574              		.loc 1 321 6 view .LVU207
 575 0054 032B     		cmp	r3, #3
 576 0056 18D9     		bls	.L41
 577              	.L35:
 335:Drivers/STM32WBxx_HAL_Driver/Src/stm32wbxx_hal_dma.c ****   hdma->DMAmuxRequestGenStatus = 0U;
 578              		.loc 1 335 3 is_stmt 1 view .LVU208
 335:Drivers/STM32WBxx_HAL_Driver/Src/stm32wbxx_hal_dma.c ****   hdma->DMAmuxRequestGenStatus = 0U;
 579              		.loc 1 335 26 is_stmt 0 view .LVU209
 580 0058 0020     		movs	r0, #0
 581 005a 6065     		str	r0, [r4, #84]
 336:Drivers/STM32WBxx_HAL_Driver/Src/stm32wbxx_hal_dma.c ****   hdma->DMAmuxRequestGenStatusMask = 0U;
 582              		.loc 1 336 3 is_stmt 1 view .LVU210
 336:Drivers/STM32WBxx_HAL_Driver/Src/stm32wbxx_hal_dma.c ****   hdma->DMAmuxRequestGenStatusMask = 0U;
ARM GAS  C:\Users\Nathan\AppData\Local\Temp\ccwtEZa1.s 			page 33


 583              		.loc 1 336 32 is_stmt 0 view .LVU211
 584 005c A065     		str	r0, [r4, #88]
 337:Drivers/STM32WBxx_HAL_Driver/Src/stm32wbxx_hal_dma.c **** 
 585              		.loc 1 337 3 is_stmt 1 view .LVU212
 337:Drivers/STM32WBxx_HAL_Driver/Src/stm32wbxx_hal_dma.c **** 
 586              		.loc 1 337 36 is_stmt 0 view .LVU213
 587 005e E065     		str	r0, [r4, #92]
 340:Drivers/STM32WBxx_HAL_Driver/Src/stm32wbxx_hal_dma.c ****   hdma->XferHalfCpltCallback = NULL;
 588              		.loc 1 340 3 is_stmt 1 view .LVU214
 340:Drivers/STM32WBxx_HAL_Driver/Src/stm32wbxx_hal_dma.c ****   hdma->XferHalfCpltCallback = NULL;
 589              		.loc 1 340 26 is_stmt 0 view .LVU215
 590 0060 E062     		str	r0, [r4, #44]
 341:Drivers/STM32WBxx_HAL_Driver/Src/stm32wbxx_hal_dma.c ****   hdma->XferErrorCallback = NULL;
 591              		.loc 1 341 3 is_stmt 1 view .LVU216
 341:Drivers/STM32WBxx_HAL_Driver/Src/stm32wbxx_hal_dma.c ****   hdma->XferErrorCallback = NULL;
 592              		.loc 1 341 30 is_stmt 0 view .LVU217
 593 0062 2063     		str	r0, [r4, #48]
 342:Drivers/STM32WBxx_HAL_Driver/Src/stm32wbxx_hal_dma.c ****   hdma->XferAbortCallback = NULL;
 594              		.loc 1 342 3 is_stmt 1 view .LVU218
 342:Drivers/STM32WBxx_HAL_Driver/Src/stm32wbxx_hal_dma.c ****   hdma->XferAbortCallback = NULL;
 595              		.loc 1 342 27 is_stmt 0 view .LVU219
 596 0064 6063     		str	r0, [r4, #52]
 343:Drivers/STM32WBxx_HAL_Driver/Src/stm32wbxx_hal_dma.c **** 
 597              		.loc 1 343 3 is_stmt 1 view .LVU220
 343:Drivers/STM32WBxx_HAL_Driver/Src/stm32wbxx_hal_dma.c **** 
 598              		.loc 1 343 27 is_stmt 0 view .LVU221
 599 0066 A063     		str	r0, [r4, #56]
 346:Drivers/STM32WBxx_HAL_Driver/Src/stm32wbxx_hal_dma.c **** 
 600              		.loc 1 346 3 is_stmt 1 view .LVU222
 346:Drivers/STM32WBxx_HAL_Driver/Src/stm32wbxx_hal_dma.c **** 
 601              		.loc 1 346 19 is_stmt 0 view .LVU223
 602 0068 E063     		str	r0, [r4, #60]
 349:Drivers/STM32WBxx_HAL_Driver/Src/stm32wbxx_hal_dma.c **** 
 603              		.loc 1 349 3 is_stmt 1 view .LVU224
 349:Drivers/STM32WBxx_HAL_Driver/Src/stm32wbxx_hal_dma.c **** 
 604              		.loc 1 349 15 is_stmt 0 view .LVU225
 605 006a 84F82500 		strb	r0, [r4, #37]
 352:Drivers/STM32WBxx_HAL_Driver/Src/stm32wbxx_hal_dma.c **** 
 606              		.loc 1 352 3 is_stmt 1 view .LVU226
 352:Drivers/STM32WBxx_HAL_Driver/Src/stm32wbxx_hal_dma.c **** 
 607              		.loc 1 352 3 view .LVU227
 608 006e 84F82400 		strb	r0, [r4, #36]
 352:Drivers/STM32WBxx_HAL_Driver/Src/stm32wbxx_hal_dma.c **** 
 609              		.loc 1 352 3 view .LVU228
 354:Drivers/STM32WBxx_HAL_Driver/Src/stm32wbxx_hal_dma.c **** }
 610              		.loc 1 354 3 view .LVU229
 355:Drivers/STM32WBxx_HAL_Driver/Src/stm32wbxx_hal_dma.c **** 
 611              		.loc 1 355 1 is_stmt 0 view .LVU230
 612 0072 38BD     		pop	{r3, r4, r5, pc}
 613              	.LVL27:
 614              	.L33:
 294:Drivers/STM32WBxx_HAL_Driver/Src/stm32wbxx_hal_dma.c ****     hdma->DmaBaseAddress = DMA2;
 615              		.loc 1 294 5 is_stmt 1 view .LVU231
 294:Drivers/STM32WBxx_HAL_Driver/Src/stm32wbxx_hal_dma.c ****     hdma->DmaBaseAddress = DMA2;
 616              		.loc 1 294 53 is_stmt 0 view .LVU232
 617 0074 0E4B     		ldr	r3, .L42+16
 618 0076 1344     		add	r3, r3, r2
ARM GAS  C:\Users\Nathan\AppData\Local\Temp\ccwtEZa1.s 			page 34


 294:Drivers/STM32WBxx_HAL_Driver/Src/stm32wbxx_hal_dma.c ****     hdma->DmaBaseAddress = DMA2;
 619              		.loc 1 294 80 view .LVU233
 620 0078 0B49     		ldr	r1, .L42+8
 621 007a A1FB0313 		umull	r1, r3, r1, r3
 622 007e 1B09     		lsrs	r3, r3, #4
 294:Drivers/STM32WBxx_HAL_Driver/Src/stm32wbxx_hal_dma.c ****     hdma->DmaBaseAddress = DMA2;
 623              		.loc 1 294 135 view .LVU234
 624 0080 9B00     		lsls	r3, r3, #2
 294:Drivers/STM32WBxx_HAL_Driver/Src/stm32wbxx_hal_dma.c ****     hdma->DmaBaseAddress = DMA2;
 625              		.loc 1 294 24 view .LVU235
 626 0082 4364     		str	r3, [r0, #68]
 295:Drivers/STM32WBxx_HAL_Driver/Src/stm32wbxx_hal_dma.c ****   }
 627              		.loc 1 295 5 is_stmt 1 view .LVU236
 295:Drivers/STM32WBxx_HAL_Driver/Src/stm32wbxx_hal_dma.c ****   }
 628              		.loc 1 295 26 is_stmt 0 view .LVU237
 629 0084 0B4B     		ldr	r3, .L42+20
 630 0086 0364     		str	r3, [r0, #64]
 631 0088 D1E7     		b	.L34
 632              	.LVL28:
 633              	.L41:
 326:Drivers/STM32WBxx_HAL_Driver/Src/stm32wbxx_hal_dma.c **** 
 634              		.loc 1 326 5 is_stmt 1 view .LVU238
 635 008a 2046     		mov	r0, r4
 636 008c FFF7FEFF 		bl	DMA_CalcDMAMUXRequestGenBaseAndMask
 637              	.LVL29:
 329:Drivers/STM32WBxx_HAL_Driver/Src/stm32wbxx_hal_dma.c **** 
 638              		.loc 1 329 5 view .LVU239
 329:Drivers/STM32WBxx_HAL_Driver/Src/stm32wbxx_hal_dma.c **** 
 639              		.loc 1 329 9 is_stmt 0 view .LVU240
 640 0090 636D     		ldr	r3, [r4, #84]
 329:Drivers/STM32WBxx_HAL_Driver/Src/stm32wbxx_hal_dma.c **** 
 641              		.loc 1 329 34 view .LVU241
 642 0092 1D60     		str	r5, [r3]
 332:Drivers/STM32WBxx_HAL_Driver/Src/stm32wbxx_hal_dma.c ****   }
 643              		.loc 1 332 5 is_stmt 1 view .LVU242
 332:Drivers/STM32WBxx_HAL_Driver/Src/stm32wbxx_hal_dma.c ****   }
 644              		.loc 1 332 9 is_stmt 0 view .LVU243
 645 0094 A36D     		ldr	r3, [r4, #88]
 332:Drivers/STM32WBxx_HAL_Driver/Src/stm32wbxx_hal_dma.c ****   }
 646              		.loc 1 332 47 view .LVU244
 647 0096 E26D     		ldr	r2, [r4, #92]
 332:Drivers/STM32WBxx_HAL_Driver/Src/stm32wbxx_hal_dma.c ****   }
 648              		.loc 1 332 41 view .LVU245
 649 0098 5A60     		str	r2, [r3, #4]
 650 009a DDE7     		b	.L35
 651              	.LVL30:
 652              	.L36:
 653              		.cfi_def_cfa_offset 0
 654              		.cfi_restore 3
 655              		.cfi_restore 4
 656              		.cfi_restore 5
 657              		.cfi_restore 14
 274:Drivers/STM32WBxx_HAL_Driver/Src/stm32wbxx_hal_dma.c ****   }
 658              		.loc 1 274 12 view .LVU246
 659 009c 0120     		movs	r0, #1
 660              	.LVL31:
 355:Drivers/STM32WBxx_HAL_Driver/Src/stm32wbxx_hal_dma.c **** 
ARM GAS  C:\Users\Nathan\AppData\Local\Temp\ccwtEZa1.s 			page 35


 661              		.loc 1 355 1 view .LVU247
 662 009e 7047     		bx	lr
 663              	.L43:
 664              		.align	2
 665              	.L42:
 666 00a0 07040240 		.word	1073873927
 667 00a4 F8FFFDBF 		.word	-1073872904
 668 00a8 CDCCCCCC 		.word	-858993459
 669 00ac 00000240 		.word	1073872896
 670 00b0 F8FBFDBF 		.word	-1073873928
 671 00b4 00040240 		.word	1073873920
 672              		.cfi_endproc
 673              	.LFE1105:
 675              		.section	.text.HAL_DMA_Start,"ax",%progbits
 676              		.align	1
 677              		.global	HAL_DMA_Start
 678              		.syntax unified
 679              		.thumb
 680              		.thumb_func
 682              	HAL_DMA_Start:
 683              	.LVL32:
 684              	.LFB1106:
 390:Drivers/STM32WBxx_HAL_Driver/Src/stm32wbxx_hal_dma.c ****   HAL_StatusTypeDef status = HAL_OK;
 685              		.loc 1 390 1 is_stmt 1 view -0
 686              		.cfi_startproc
 687              		@ args = 0, pretend = 0, frame = 0
 688              		@ frame_needed = 0, uses_anonymous_args = 0
 390:Drivers/STM32WBxx_HAL_Driver/Src/stm32wbxx_hal_dma.c ****   HAL_StatusTypeDef status = HAL_OK;
 689              		.loc 1 390 1 is_stmt 0 view .LVU249
 690 0000 70B5     		push	{r4, r5, r6, lr}
 691              		.cfi_def_cfa_offset 16
 692              		.cfi_offset 4, -16
 693              		.cfi_offset 5, -12
 694              		.cfi_offset 6, -8
 695              		.cfi_offset 14, -4
 696 0002 0446     		mov	r4, r0
 391:Drivers/STM32WBxx_HAL_Driver/Src/stm32wbxx_hal_dma.c **** 
 697              		.loc 1 391 3 is_stmt 1 view .LVU250
 698              	.LVL33:
 394:Drivers/STM32WBxx_HAL_Driver/Src/stm32wbxx_hal_dma.c **** 
 699              		.loc 1 394 3 view .LVU251
 397:Drivers/STM32WBxx_HAL_Driver/Src/stm32wbxx_hal_dma.c **** 
 700              		.loc 1 397 3 view .LVU252
 397:Drivers/STM32WBxx_HAL_Driver/Src/stm32wbxx_hal_dma.c **** 
 701              		.loc 1 397 3 view .LVU253
 702 0004 90F82400 		ldrb	r0, [r0, #36]	@ zero_extendqisi2
 703              	.LVL34:
 397:Drivers/STM32WBxx_HAL_Driver/Src/stm32wbxx_hal_dma.c **** 
 704              		.loc 1 397 3 is_stmt 0 view .LVU254
 705 0008 0128     		cmp	r0, #1
 706 000a 20D0     		beq	.L47
 397:Drivers/STM32WBxx_HAL_Driver/Src/stm32wbxx_hal_dma.c **** 
 707              		.loc 1 397 3 is_stmt 1 discriminator 2 view .LVU255
 708 000c 0120     		movs	r0, #1
 709 000e 84F82400 		strb	r0, [r4, #36]
 397:Drivers/STM32WBxx_HAL_Driver/Src/stm32wbxx_hal_dma.c **** 
 710              		.loc 1 397 3 discriminator 2 view .LVU256
ARM GAS  C:\Users\Nathan\AppData\Local\Temp\ccwtEZa1.s 			page 36


 399:Drivers/STM32WBxx_HAL_Driver/Src/stm32wbxx_hal_dma.c ****   {
 711              		.loc 1 399 3 view .LVU257
 399:Drivers/STM32WBxx_HAL_Driver/Src/stm32wbxx_hal_dma.c ****   {
 712              		.loc 1 399 34 is_stmt 0 view .LVU258
 713 0012 94F82500 		ldrb	r0, [r4, #37]	@ zero_extendqisi2
 714 0016 C0B2     		uxtb	r0, r0
 399:Drivers/STM32WBxx_HAL_Driver/Src/stm32wbxx_hal_dma.c ****   {
 715              		.loc 1 399 6 view .LVU259
 716 0018 0128     		cmp	r0, #1
 717 001a 04D0     		beq	.L49
 417:Drivers/STM32WBxx_HAL_Driver/Src/stm32wbxx_hal_dma.c ****     status = HAL_BUSY;
 718              		.loc 1 417 5 is_stmt 1 view .LVU260
 417:Drivers/STM32WBxx_HAL_Driver/Src/stm32wbxx_hal_dma.c ****     status = HAL_BUSY;
 719              		.loc 1 417 5 view .LVU261
 720 001c 0023     		movs	r3, #0
 721              	.LVL35:
 417:Drivers/STM32WBxx_HAL_Driver/Src/stm32wbxx_hal_dma.c ****     status = HAL_BUSY;
 722              		.loc 1 417 5 is_stmt 0 view .LVU262
 723 001e 84F82430 		strb	r3, [r4, #36]
 417:Drivers/STM32WBxx_HAL_Driver/Src/stm32wbxx_hal_dma.c ****     status = HAL_BUSY;
 724              		.loc 1 417 5 is_stmt 1 view .LVU263
 418:Drivers/STM32WBxx_HAL_Driver/Src/stm32wbxx_hal_dma.c ****   }
 725              		.loc 1 418 5 view .LVU264
 726              	.LVL36:
 418:Drivers/STM32WBxx_HAL_Driver/Src/stm32wbxx_hal_dma.c ****   }
 727              		.loc 1 418 12 is_stmt 0 view .LVU265
 728 0022 0220     		movs	r0, #2
 729              	.LVL37:
 730              	.L45:
 421:Drivers/STM32WBxx_HAL_Driver/Src/stm32wbxx_hal_dma.c **** 
 731              		.loc 1 421 1 view .LVU266
 732 0024 70BD     		pop	{r4, r5, r6, pc}
 733              	.LVL38:
 734              	.L49:
 402:Drivers/STM32WBxx_HAL_Driver/Src/stm32wbxx_hal_dma.c ****     hdma->ErrorCode = HAL_DMA_ERROR_NONE;
 735              		.loc 1 402 5 is_stmt 1 view .LVU267
 402:Drivers/STM32WBxx_HAL_Driver/Src/stm32wbxx_hal_dma.c ****     hdma->ErrorCode = HAL_DMA_ERROR_NONE;
 736              		.loc 1 402 17 is_stmt 0 view .LVU268
 737 0026 0220     		movs	r0, #2
 738 0028 84F82500 		strb	r0, [r4, #37]
 403:Drivers/STM32WBxx_HAL_Driver/Src/stm32wbxx_hal_dma.c **** 
 739              		.loc 1 403 5 is_stmt 1 view .LVU269
 403:Drivers/STM32WBxx_HAL_Driver/Src/stm32wbxx_hal_dma.c **** 
 740              		.loc 1 403 21 is_stmt 0 view .LVU270
 741 002c 0025     		movs	r5, #0
 742 002e E563     		str	r5, [r4, #60]
 406:Drivers/STM32WBxx_HAL_Driver/Src/stm32wbxx_hal_dma.c **** 
 743              		.loc 1 406 5 is_stmt 1 view .LVU271
 744 0030 2668     		ldr	r6, [r4]
 745 0032 3068     		ldr	r0, [r6]
 746 0034 20F00100 		bic	r0, r0, #1
 747 0038 3060     		str	r0, [r6]
 409:Drivers/STM32WBxx_HAL_Driver/Src/stm32wbxx_hal_dma.c **** 
 748              		.loc 1 409 5 view .LVU272
 749 003a 2046     		mov	r0, r4
 750 003c FFF7FEFF 		bl	DMA_SetConfig
 751              	.LVL39:
ARM GAS  C:\Users\Nathan\AppData\Local\Temp\ccwtEZa1.s 			page 37


 412:Drivers/STM32WBxx_HAL_Driver/Src/stm32wbxx_hal_dma.c ****   }
 752              		.loc 1 412 5 view .LVU273
 753 0040 2268     		ldr	r2, [r4]
 754 0042 1368     		ldr	r3, [r2]
 755 0044 43F00103 		orr	r3, r3, #1
 756 0048 1360     		str	r3, [r2]
 391:Drivers/STM32WBxx_HAL_Driver/Src/stm32wbxx_hal_dma.c **** 
 757              		.loc 1 391 21 is_stmt 0 view .LVU274
 758 004a 2846     		mov	r0, r5
 759 004c EAE7     		b	.L45
 760              	.LVL40:
 761              	.L47:
 397:Drivers/STM32WBxx_HAL_Driver/Src/stm32wbxx_hal_dma.c **** 
 762              		.loc 1 397 3 discriminator 1 view .LVU275
 763 004e 0220     		movs	r0, #2
 764 0050 E8E7     		b	.L45
 765              		.cfi_endproc
 766              	.LFE1106:
 768              		.section	.text.HAL_DMA_Start_IT,"ax",%progbits
 769              		.align	1
 770              		.global	HAL_DMA_Start_IT
 771              		.syntax unified
 772              		.thumb
 773              		.thumb_func
 775              	HAL_DMA_Start_IT:
 776              	.LVL41:
 777              	.LFB1107:
 434:Drivers/STM32WBxx_HAL_Driver/Src/stm32wbxx_hal_dma.c ****   HAL_StatusTypeDef status = HAL_OK;
 778              		.loc 1 434 1 is_stmt 1 view -0
 779              		.cfi_startproc
 780              		@ args = 0, pretend = 0, frame = 0
 781              		@ frame_needed = 0, uses_anonymous_args = 0
 434:Drivers/STM32WBxx_HAL_Driver/Src/stm32wbxx_hal_dma.c ****   HAL_StatusTypeDef status = HAL_OK;
 782              		.loc 1 434 1 is_stmt 0 view .LVU277
 783 0000 38B5     		push	{r3, r4, r5, lr}
 784              		.cfi_def_cfa_offset 16
 785              		.cfi_offset 3, -16
 786              		.cfi_offset 4, -12
 787              		.cfi_offset 5, -8
 788              		.cfi_offset 14, -4
 789 0002 0446     		mov	r4, r0
 435:Drivers/STM32WBxx_HAL_Driver/Src/stm32wbxx_hal_dma.c **** 
 790              		.loc 1 435 3 is_stmt 1 view .LVU278
 791              	.LVL42:
 438:Drivers/STM32WBxx_HAL_Driver/Src/stm32wbxx_hal_dma.c **** 
 792              		.loc 1 438 3 view .LVU279
 441:Drivers/STM32WBxx_HAL_Driver/Src/stm32wbxx_hal_dma.c **** 
 793              		.loc 1 441 3 view .LVU280
 441:Drivers/STM32WBxx_HAL_Driver/Src/stm32wbxx_hal_dma.c **** 
 794              		.loc 1 441 3 view .LVU281
 795 0004 90F82400 		ldrb	r0, [r0, #36]	@ zero_extendqisi2
 796              	.LVL43:
 441:Drivers/STM32WBxx_HAL_Driver/Src/stm32wbxx_hal_dma.c **** 
 797              		.loc 1 441 3 is_stmt 0 view .LVU282
 798 0008 0128     		cmp	r0, #1
 799 000a 41D0     		beq	.L57
 441:Drivers/STM32WBxx_HAL_Driver/Src/stm32wbxx_hal_dma.c **** 
ARM GAS  C:\Users\Nathan\AppData\Local\Temp\ccwtEZa1.s 			page 38


 800              		.loc 1 441 3 is_stmt 1 discriminator 2 view .LVU283
 801 000c 0120     		movs	r0, #1
 802 000e 84F82400 		strb	r0, [r4, #36]
 441:Drivers/STM32WBxx_HAL_Driver/Src/stm32wbxx_hal_dma.c **** 
 803              		.loc 1 441 3 discriminator 2 view .LVU284
 443:Drivers/STM32WBxx_HAL_Driver/Src/stm32wbxx_hal_dma.c ****   {
 804              		.loc 1 443 3 view .LVU285
 443:Drivers/STM32WBxx_HAL_Driver/Src/stm32wbxx_hal_dma.c ****   {
 805              		.loc 1 443 34 is_stmt 0 view .LVU286
 806 0012 94F82500 		ldrb	r0, [r4, #37]	@ zero_extendqisi2
 807 0016 C0B2     		uxtb	r0, r0
 443:Drivers/STM32WBxx_HAL_Driver/Src/stm32wbxx_hal_dma.c ****   {
 808              		.loc 1 443 6 view .LVU287
 809 0018 0128     		cmp	r0, #1
 810 001a 04D0     		beq	.L59
 488:Drivers/STM32WBxx_HAL_Driver/Src/stm32wbxx_hal_dma.c **** 
 811              		.loc 1 488 5 is_stmt 1 view .LVU288
 488:Drivers/STM32WBxx_HAL_Driver/Src/stm32wbxx_hal_dma.c **** 
 812              		.loc 1 488 5 view .LVU289
 813 001c 0023     		movs	r3, #0
 814              	.LVL44:
 488:Drivers/STM32WBxx_HAL_Driver/Src/stm32wbxx_hal_dma.c **** 
 815              		.loc 1 488 5 is_stmt 0 view .LVU290
 816 001e 84F82430 		strb	r3, [r4, #36]
 488:Drivers/STM32WBxx_HAL_Driver/Src/stm32wbxx_hal_dma.c **** 
 817              		.loc 1 488 5 is_stmt 1 view .LVU291
 491:Drivers/STM32WBxx_HAL_Driver/Src/stm32wbxx_hal_dma.c ****   }
 818              		.loc 1 491 5 view .LVU292
 819              	.LVL45:
 491:Drivers/STM32WBxx_HAL_Driver/Src/stm32wbxx_hal_dma.c ****   }
 820              		.loc 1 491 12 is_stmt 0 view .LVU293
 821 0022 0220     		movs	r0, #2
 822              	.LVL46:
 823              	.L51:
 494:Drivers/STM32WBxx_HAL_Driver/Src/stm32wbxx_hal_dma.c **** 
 824              		.loc 1 494 1 view .LVU294
 825 0024 38BD     		pop	{r3, r4, r5, pc}
 826              	.LVL47:
 827              	.L59:
 446:Drivers/STM32WBxx_HAL_Driver/Src/stm32wbxx_hal_dma.c ****     hdma->ErrorCode = HAL_DMA_ERROR_NONE;
 828              		.loc 1 446 5 is_stmt 1 view .LVU295
 446:Drivers/STM32WBxx_HAL_Driver/Src/stm32wbxx_hal_dma.c ****     hdma->ErrorCode = HAL_DMA_ERROR_NONE;
 829              		.loc 1 446 17 is_stmt 0 view .LVU296
 830 0026 0220     		movs	r0, #2
 831 0028 84F82500 		strb	r0, [r4, #37]
 447:Drivers/STM32WBxx_HAL_Driver/Src/stm32wbxx_hal_dma.c **** 
 832              		.loc 1 447 5 is_stmt 1 view .LVU297
 447:Drivers/STM32WBxx_HAL_Driver/Src/stm32wbxx_hal_dma.c **** 
 833              		.loc 1 447 21 is_stmt 0 view .LVU298
 834 002c 0020     		movs	r0, #0
 835 002e E063     		str	r0, [r4, #60]
 450:Drivers/STM32WBxx_HAL_Driver/Src/stm32wbxx_hal_dma.c **** 
 836              		.loc 1 450 5 is_stmt 1 view .LVU299
 837 0030 2568     		ldr	r5, [r4]
 838 0032 2868     		ldr	r0, [r5]
 839 0034 20F00100 		bic	r0, r0, #1
 840 0038 2860     		str	r0, [r5]
ARM GAS  C:\Users\Nathan\AppData\Local\Temp\ccwtEZa1.s 			page 39


 453:Drivers/STM32WBxx_HAL_Driver/Src/stm32wbxx_hal_dma.c **** 
 841              		.loc 1 453 5 view .LVU300
 842 003a 2046     		mov	r0, r4
 843 003c FFF7FEFF 		bl	DMA_SetConfig
 844              	.LVL48:
 457:Drivers/STM32WBxx_HAL_Driver/Src/stm32wbxx_hal_dma.c ****     {
 845              		.loc 1 457 5 view .LVU301
 457:Drivers/STM32WBxx_HAL_Driver/Src/stm32wbxx_hal_dma.c ****     {
 846              		.loc 1 457 21 is_stmt 0 view .LVU302
 847 0040 236B     		ldr	r3, [r4, #48]
 457:Drivers/STM32WBxx_HAL_Driver/Src/stm32wbxx_hal_dma.c ****     {
 848              		.loc 1 457 8 view .LVU303
 849 0042 D3B1     		cbz	r3, .L53
 460:Drivers/STM32WBxx_HAL_Driver/Src/stm32wbxx_hal_dma.c ****     }
 850              		.loc 1 460 7 is_stmt 1 view .LVU304
 851 0044 2268     		ldr	r2, [r4]
 852 0046 1368     		ldr	r3, [r2]
 853 0048 43F00E03 		orr	r3, r3, #14
 854 004c 1360     		str	r3, [r2]
 855              	.L54:
 469:Drivers/STM32WBxx_HAL_Driver/Src/stm32wbxx_hal_dma.c ****     {
 856              		.loc 1 469 5 view .LVU305
 469:Drivers/STM32WBxx_HAL_Driver/Src/stm32wbxx_hal_dma.c ****     {
 857              		.loc 1 469 14 is_stmt 0 view .LVU306
 858 004e A36C     		ldr	r3, [r4, #72]
 469:Drivers/STM32WBxx_HAL_Driver/Src/stm32wbxx_hal_dma.c ****     {
 859              		.loc 1 469 29 view .LVU307
 860 0050 1A68     		ldr	r2, [r3]
 469:Drivers/STM32WBxx_HAL_Driver/Src/stm32wbxx_hal_dma.c ****     {
 861              		.loc 1 469 8 view .LVU308
 862 0052 12F4803F 		tst	r2, #65536
 863 0056 03D0     		beq	.L55
 472:Drivers/STM32WBxx_HAL_Driver/Src/stm32wbxx_hal_dma.c ****     }
 864              		.loc 1 472 7 is_stmt 1 view .LVU309
 472:Drivers/STM32WBxx_HAL_Driver/Src/stm32wbxx_hal_dma.c ****     }
 865              		.loc 1 472 26 is_stmt 0 view .LVU310
 866 0058 1A68     		ldr	r2, [r3]
 472:Drivers/STM32WBxx_HAL_Driver/Src/stm32wbxx_hal_dma.c ****     }
 867              		.loc 1 472 32 view .LVU311
 868 005a 42F48072 		orr	r2, r2, #256
 869 005e 1A60     		str	r2, [r3]
 870              	.L55:
 475:Drivers/STM32WBxx_HAL_Driver/Src/stm32wbxx_hal_dma.c ****     {
 871              		.loc 1 475 5 is_stmt 1 view .LVU312
 475:Drivers/STM32WBxx_HAL_Driver/Src/stm32wbxx_hal_dma.c ****     {
 872              		.loc 1 475 13 is_stmt 0 view .LVU313
 873 0060 636D     		ldr	r3, [r4, #84]
 475:Drivers/STM32WBxx_HAL_Driver/Src/stm32wbxx_hal_dma.c ****     {
 874              		.loc 1 475 8 view .LVU314
 875 0062 1BB1     		cbz	r3, .L56
 479:Drivers/STM32WBxx_HAL_Driver/Src/stm32wbxx_hal_dma.c ****     }
 876              		.loc 1 479 7 is_stmt 1 view .LVU315
 479:Drivers/STM32WBxx_HAL_Driver/Src/stm32wbxx_hal_dma.c ****     }
 877              		.loc 1 479 29 is_stmt 0 view .LVU316
 878 0064 1A68     		ldr	r2, [r3]
 479:Drivers/STM32WBxx_HAL_Driver/Src/stm32wbxx_hal_dma.c ****     }
 879              		.loc 1 479 36 view .LVU317
ARM GAS  C:\Users\Nathan\AppData\Local\Temp\ccwtEZa1.s 			page 40


 880 0066 42F48072 		orr	r2, r2, #256
 881 006a 1A60     		str	r2, [r3]
 882              	.L56:
 483:Drivers/STM32WBxx_HAL_Driver/Src/stm32wbxx_hal_dma.c ****   }
 883              		.loc 1 483 5 is_stmt 1 view .LVU318
 884 006c 2268     		ldr	r2, [r4]
 885 006e 1368     		ldr	r3, [r2]
 886 0070 43F00103 		orr	r3, r3, #1
 887 0074 1360     		str	r3, [r2]
 435:Drivers/STM32WBxx_HAL_Driver/Src/stm32wbxx_hal_dma.c **** 
 888              		.loc 1 435 21 is_stmt 0 view .LVU319
 889 0076 0020     		movs	r0, #0
 890 0078 D4E7     		b	.L51
 891              	.L53:
 464:Drivers/STM32WBxx_HAL_Driver/Src/stm32wbxx_hal_dma.c ****       __HAL_DMA_ENABLE_IT(hdma, (DMA_IT_TC | DMA_IT_TE));
 892              		.loc 1 464 7 is_stmt 1 view .LVU320
 893 007a 2268     		ldr	r2, [r4]
 894 007c 1368     		ldr	r3, [r2]
 895 007e 23F00403 		bic	r3, r3, #4
 896 0082 1360     		str	r3, [r2]
 465:Drivers/STM32WBxx_HAL_Driver/Src/stm32wbxx_hal_dma.c ****     }
 897              		.loc 1 465 7 view .LVU321
 898 0084 2268     		ldr	r2, [r4]
 899 0086 1368     		ldr	r3, [r2]
 900 0088 43F00A03 		orr	r3, r3, #10
 901 008c 1360     		str	r3, [r2]
 902 008e DEE7     		b	.L54
 903              	.LVL49:
 904              	.L57:
 441:Drivers/STM32WBxx_HAL_Driver/Src/stm32wbxx_hal_dma.c **** 
 905              		.loc 1 441 3 is_stmt 0 discriminator 1 view .LVU322
 906 0090 0220     		movs	r0, #2
 907 0092 C7E7     		b	.L51
 908              		.cfi_endproc
 909              	.LFE1107:
 911              		.section	.text.HAL_DMA_Abort,"ax",%progbits
 912              		.align	1
 913              		.global	HAL_DMA_Abort
 914              		.syntax unified
 915              		.thumb
 916              		.thumb_func
 918              	HAL_DMA_Abort:
 919              	.LVL50:
 920              	.LFB1108:
 503:Drivers/STM32WBxx_HAL_Driver/Src/stm32wbxx_hal_dma.c **** 
 921              		.loc 1 503 1 is_stmt 1 view -0
 922              		.cfi_startproc
 923              		@ args = 0, pretend = 0, frame = 0
 924              		@ frame_needed = 0, uses_anonymous_args = 0
 925              		@ link register save eliminated.
 506:Drivers/STM32WBxx_HAL_Driver/Src/stm32wbxx_hal_dma.c ****   {
 926              		.loc 1 506 3 view .LVU324
 506:Drivers/STM32WBxx_HAL_Driver/Src/stm32wbxx_hal_dma.c ****   {
 927              		.loc 1 506 6 is_stmt 0 view .LVU325
 928 0000 0346     		mov	r3, r0
 929 0002 0028     		cmp	r0, #0
 930 0004 34D0     		beq	.L64
ARM GAS  C:\Users\Nathan\AppData\Local\Temp\ccwtEZa1.s 			page 41


 512:Drivers/STM32WBxx_HAL_Driver/Src/stm32wbxx_hal_dma.c ****   {
 931              		.loc 1 512 3 is_stmt 1 view .LVU326
 512:Drivers/STM32WBxx_HAL_Driver/Src/stm32wbxx_hal_dma.c ****   {
 932              		.loc 1 512 11 is_stmt 0 view .LVU327
 933 0006 90F82520 		ldrb	r2, [r0, #37]	@ zero_extendqisi2
 934 000a D2B2     		uxtb	r2, r2
 512:Drivers/STM32WBxx_HAL_Driver/Src/stm32wbxx_hal_dma.c ****   {
 935              		.loc 1 512 6 view .LVU328
 936 000c 022A     		cmp	r2, #2
 937 000e 06D0     		beq	.L62
 514:Drivers/STM32WBxx_HAL_Driver/Src/stm32wbxx_hal_dma.c **** 
 938              		.loc 1 514 5 is_stmt 1 view .LVU329
 514:Drivers/STM32WBxx_HAL_Driver/Src/stm32wbxx_hal_dma.c **** 
 939              		.loc 1 514 21 is_stmt 0 view .LVU330
 940 0010 0422     		movs	r2, #4
 941 0012 C263     		str	r2, [r0, #60]
 517:Drivers/STM32WBxx_HAL_Driver/Src/stm32wbxx_hal_dma.c **** 
 942              		.loc 1 517 5 is_stmt 1 view .LVU331
 517:Drivers/STM32WBxx_HAL_Driver/Src/stm32wbxx_hal_dma.c **** 
 943              		.loc 1 517 5 view .LVU332
 944 0014 0022     		movs	r2, #0
 945 0016 80F82420 		strb	r2, [r0, #36]
 517:Drivers/STM32WBxx_HAL_Driver/Src/stm32wbxx_hal_dma.c **** 
 946              		.loc 1 517 5 view .LVU333
 519:Drivers/STM32WBxx_HAL_Driver/Src/stm32wbxx_hal_dma.c ****   }
 947              		.loc 1 519 5 view .LVU334
 519:Drivers/STM32WBxx_HAL_Driver/Src/stm32wbxx_hal_dma.c ****   }
 948              		.loc 1 519 12 is_stmt 0 view .LVU335
 949 001a 0120     		movs	r0, #1
 950              	.LVL51:
 519:Drivers/STM32WBxx_HAL_Driver/Src/stm32wbxx_hal_dma.c ****   }
 951              		.loc 1 519 12 view .LVU336
 952 001c 7047     		bx	lr
 953              	.LVL52:
 954              	.L62:
 524:Drivers/STM32WBxx_HAL_Driver/Src/stm32wbxx_hal_dma.c **** 
 955              		.loc 1 524 5 is_stmt 1 view .LVU337
 956 001e 0168     		ldr	r1, [r0]
 957 0020 0A68     		ldr	r2, [r1]
 958 0022 22F00E02 		bic	r2, r2, #14
 959 0026 0A60     		str	r2, [r1]
 527:Drivers/STM32WBxx_HAL_Driver/Src/stm32wbxx_hal_dma.c **** 
 960              		.loc 1 527 5 view .LVU338
 527:Drivers/STM32WBxx_HAL_Driver/Src/stm32wbxx_hal_dma.c **** 
 961              		.loc 1 527 9 is_stmt 0 view .LVU339
 962 0028 816C     		ldr	r1, [r0, #72]
 527:Drivers/STM32WBxx_HAL_Driver/Src/stm32wbxx_hal_dma.c **** 
 963              		.loc 1 527 24 view .LVU340
 964 002a 0A68     		ldr	r2, [r1]
 527:Drivers/STM32WBxx_HAL_Driver/Src/stm32wbxx_hal_dma.c **** 
 965              		.loc 1 527 30 view .LVU341
 966 002c 22F48072 		bic	r2, r2, #256
 967 0030 0A60     		str	r2, [r1]
 530:Drivers/STM32WBxx_HAL_Driver/Src/stm32wbxx_hal_dma.c **** 
 968              		.loc 1 530 5 is_stmt 1 view .LVU342
 969 0032 0168     		ldr	r1, [r0]
 970 0034 0A68     		ldr	r2, [r1]
ARM GAS  C:\Users\Nathan\AppData\Local\Temp\ccwtEZa1.s 			page 42


 971 0036 22F00102 		bic	r2, r2, #1
 972 003a 0A60     		str	r2, [r1]
 533:Drivers/STM32WBxx_HAL_Driver/Src/stm32wbxx_hal_dma.c **** 
 973              		.loc 1 533 5 view .LVU343
 533:Drivers/STM32WBxx_HAL_Driver/Src/stm32wbxx_hal_dma.c **** 
 974              		.loc 1 533 56 is_stmt 0 view .LVU344
 975 003c 426C     		ldr	r2, [r0, #68]
 533:Drivers/STM32WBxx_HAL_Driver/Src/stm32wbxx_hal_dma.c **** 
 976              		.loc 1 533 71 view .LVU345
 977 003e 02F01C01 		and	r1, r2, #28
 533:Drivers/STM32WBxx_HAL_Driver/Src/stm32wbxx_hal_dma.c **** 
 978              		.loc 1 533 9 view .LVU346
 979 0042 006C     		ldr	r0, [r0, #64]
 980              	.LVL53:
 533:Drivers/STM32WBxx_HAL_Driver/Src/stm32wbxx_hal_dma.c **** 
 981              		.loc 1 533 48 view .LVU347
 982 0044 0122     		movs	r2, #1
 983 0046 8A40     		lsls	r2, r2, r1
 533:Drivers/STM32WBxx_HAL_Driver/Src/stm32wbxx_hal_dma.c **** 
 984              		.loc 1 533 32 view .LVU348
 985 0048 4260     		str	r2, [r0, #4]
 536:Drivers/STM32WBxx_HAL_Driver/Src/stm32wbxx_hal_dma.c **** 
 986              		.loc 1 536 5 is_stmt 1 view .LVU349
 536:Drivers/STM32WBxx_HAL_Driver/Src/stm32wbxx_hal_dma.c **** 
 987              		.loc 1 536 9 is_stmt 0 view .LVU350
 988 004a DA6C     		ldr	r2, [r3, #76]
 536:Drivers/STM32WBxx_HAL_Driver/Src/stm32wbxx_hal_dma.c **** 
 989              		.loc 1 536 42 view .LVU351
 990 004c 196D     		ldr	r1, [r3, #80]
 536:Drivers/STM32WBxx_HAL_Driver/Src/stm32wbxx_hal_dma.c **** 
 991              		.loc 1 536 36 view .LVU352
 992 004e 5160     		str	r1, [r2, #4]
 538:Drivers/STM32WBxx_HAL_Driver/Src/stm32wbxx_hal_dma.c ****     {
 993              		.loc 1 538 5 is_stmt 1 view .LVU353
 538:Drivers/STM32WBxx_HAL_Driver/Src/stm32wbxx_hal_dma.c ****     {
 994              		.loc 1 538 13 is_stmt 0 view .LVU354
 995 0050 5A6D     		ldr	r2, [r3, #84]
 538:Drivers/STM32WBxx_HAL_Driver/Src/stm32wbxx_hal_dma.c ****     {
 996              		.loc 1 538 8 view .LVU355
 997 0052 32B1     		cbz	r2, .L63
 542:Drivers/STM32WBxx_HAL_Driver/Src/stm32wbxx_hal_dma.c **** 
 998              		.loc 1 542 7 is_stmt 1 view .LVU356
 542:Drivers/STM32WBxx_HAL_Driver/Src/stm32wbxx_hal_dma.c **** 
 999              		.loc 1 542 29 is_stmt 0 view .LVU357
 1000 0054 1168     		ldr	r1, [r2]
 542:Drivers/STM32WBxx_HAL_Driver/Src/stm32wbxx_hal_dma.c **** 
 1001              		.loc 1 542 36 view .LVU358
 1002 0056 21F48071 		bic	r1, r1, #256
 1003 005a 1160     		str	r1, [r2]
 545:Drivers/STM32WBxx_HAL_Driver/Src/stm32wbxx_hal_dma.c ****     }
 1004              		.loc 1 545 7 is_stmt 1 view .LVU359
 545:Drivers/STM32WBxx_HAL_Driver/Src/stm32wbxx_hal_dma.c ****     }
 1005              		.loc 1 545 11 is_stmt 0 view .LVU360
 1006 005c 9A6D     		ldr	r2, [r3, #88]
 545:Drivers/STM32WBxx_HAL_Driver/Src/stm32wbxx_hal_dma.c ****     }
 1007              		.loc 1 545 49 view .LVU361
 1008 005e D96D     		ldr	r1, [r3, #92]
ARM GAS  C:\Users\Nathan\AppData\Local\Temp\ccwtEZa1.s 			page 43


 545:Drivers/STM32WBxx_HAL_Driver/Src/stm32wbxx_hal_dma.c ****     }
 1009              		.loc 1 545 43 view .LVU362
 1010 0060 5160     		str	r1, [r2, #4]
 1011              	.L63:
 549:Drivers/STM32WBxx_HAL_Driver/Src/stm32wbxx_hal_dma.c **** 
 1012              		.loc 1 549 5 is_stmt 1 view .LVU363
 549:Drivers/STM32WBxx_HAL_Driver/Src/stm32wbxx_hal_dma.c **** 
 1013              		.loc 1 549 17 is_stmt 0 view .LVU364
 1014 0062 0122     		movs	r2, #1
 1015 0064 83F82520 		strb	r2, [r3, #37]
 552:Drivers/STM32WBxx_HAL_Driver/Src/stm32wbxx_hal_dma.c ****   }
 1016              		.loc 1 552 5 is_stmt 1 view .LVU365
 552:Drivers/STM32WBxx_HAL_Driver/Src/stm32wbxx_hal_dma.c ****   }
 1017              		.loc 1 552 5 view .LVU366
 1018 0068 0020     		movs	r0, #0
 1019 006a 83F82400 		strb	r0, [r3, #36]
 552:Drivers/STM32WBxx_HAL_Driver/Src/stm32wbxx_hal_dma.c ****   }
 1020              		.loc 1 552 5 view .LVU367
 555:Drivers/STM32WBxx_HAL_Driver/Src/stm32wbxx_hal_dma.c **** }
 1021              		.loc 1 555 3 view .LVU368
 555:Drivers/STM32WBxx_HAL_Driver/Src/stm32wbxx_hal_dma.c **** }
 1022              		.loc 1 555 10 is_stmt 0 view .LVU369
 1023 006e 7047     		bx	lr
 1024              	.LVL54:
 1025              	.L64:
 508:Drivers/STM32WBxx_HAL_Driver/Src/stm32wbxx_hal_dma.c ****   }
 1026              		.loc 1 508 12 view .LVU370
 1027 0070 0120     		movs	r0, #1
 1028              	.LVL55:
 556:Drivers/STM32WBxx_HAL_Driver/Src/stm32wbxx_hal_dma.c **** 
 1029              		.loc 1 556 1 view .LVU371
 1030 0072 7047     		bx	lr
 1031              		.cfi_endproc
 1032              	.LFE1108:
 1034              		.section	.text.HAL_DMA_Abort_IT,"ax",%progbits
 1035              		.align	1
 1036              		.global	HAL_DMA_Abort_IT
 1037              		.syntax unified
 1038              		.thumb
 1039              		.thumb_func
 1041              	HAL_DMA_Abort_IT:
 1042              	.LVL56:
 1043              	.LFB1109:
 565:Drivers/STM32WBxx_HAL_Driver/Src/stm32wbxx_hal_dma.c ****   HAL_StatusTypeDef status = HAL_OK;
 1044              		.loc 1 565 1 is_stmt 1 view -0
 1045              		.cfi_startproc
 1046              		@ args = 0, pretend = 0, frame = 0
 1047              		@ frame_needed = 0, uses_anonymous_args = 0
 565:Drivers/STM32WBxx_HAL_Driver/Src/stm32wbxx_hal_dma.c ****   HAL_StatusTypeDef status = HAL_OK;
 1048              		.loc 1 565 1 is_stmt 0 view .LVU373
 1049 0000 08B5     		push	{r3, lr}
 1050              		.cfi_def_cfa_offset 8
 1051              		.cfi_offset 3, -8
 1052              		.cfi_offset 14, -4
 566:Drivers/STM32WBxx_HAL_Driver/Src/stm32wbxx_hal_dma.c **** 
 1053              		.loc 1 566 3 is_stmt 1 view .LVU374
 1054              	.LVL57:
ARM GAS  C:\Users\Nathan\AppData\Local\Temp\ccwtEZa1.s 			page 44


 568:Drivers/STM32WBxx_HAL_Driver/Src/stm32wbxx_hal_dma.c ****   {
 1055              		.loc 1 568 3 view .LVU375
 568:Drivers/STM32WBxx_HAL_Driver/Src/stm32wbxx_hal_dma.c ****   {
 1056              		.loc 1 568 33 is_stmt 0 view .LVU376
 1057 0002 90F82530 		ldrb	r3, [r0, #37]	@ zero_extendqisi2
 1058 0006 DBB2     		uxtb	r3, r3
 568:Drivers/STM32WBxx_HAL_Driver/Src/stm32wbxx_hal_dma.c ****   {
 1059              		.loc 1 568 6 view .LVU377
 1060 0008 022B     		cmp	r3, #2
 1061 000a 03D0     		beq	.L66
 571:Drivers/STM32WBxx_HAL_Driver/Src/stm32wbxx_hal_dma.c **** 
 1062              		.loc 1 571 5 is_stmt 1 view .LVU378
 571:Drivers/STM32WBxx_HAL_Driver/Src/stm32wbxx_hal_dma.c **** 
 1063              		.loc 1 571 21 is_stmt 0 view .LVU379
 1064 000c 0423     		movs	r3, #4
 1065 000e C363     		str	r3, [r0, #60]
 573:Drivers/STM32WBxx_HAL_Driver/Src/stm32wbxx_hal_dma.c ****   }
 1066              		.loc 1 573 5 is_stmt 1 view .LVU380
 1067              	.LVL58:
 573:Drivers/STM32WBxx_HAL_Driver/Src/stm32wbxx_hal_dma.c ****   }
 1068              		.loc 1 573 12 is_stmt 0 view .LVU381
 1069 0010 0120     		movs	r0, #1
 1070              	.LVL59:
 1071              	.L67:
 614:Drivers/STM32WBxx_HAL_Driver/Src/stm32wbxx_hal_dma.c **** }
 1072              		.loc 1 614 3 is_stmt 1 view .LVU382
 615:Drivers/STM32WBxx_HAL_Driver/Src/stm32wbxx_hal_dma.c **** 
 1073              		.loc 1 615 1 is_stmt 0 view .LVU383
 1074 0012 08BD     		pop	{r3, pc}
 1075              	.LVL60:
 1076              	.L66:
 578:Drivers/STM32WBxx_HAL_Driver/Src/stm32wbxx_hal_dma.c **** 
 1077              		.loc 1 578 5 is_stmt 1 view .LVU384
 1078 0014 0268     		ldr	r2, [r0]
 1079 0016 1368     		ldr	r3, [r2]
 1080 0018 23F00E03 		bic	r3, r3, #14
 1081 001c 1360     		str	r3, [r2]
 581:Drivers/STM32WBxx_HAL_Driver/Src/stm32wbxx_hal_dma.c **** 
 1082              		.loc 1 581 5 view .LVU385
 1083 001e 0268     		ldr	r2, [r0]
 1084 0020 1368     		ldr	r3, [r2]
 1085 0022 23F00103 		bic	r3, r3, #1
 1086 0026 1360     		str	r3, [r2]
 584:Drivers/STM32WBxx_HAL_Driver/Src/stm32wbxx_hal_dma.c **** 
 1087              		.loc 1 584 5 view .LVU386
 584:Drivers/STM32WBxx_HAL_Driver/Src/stm32wbxx_hal_dma.c **** 
 1088              		.loc 1 584 9 is_stmt 0 view .LVU387
 1089 0028 826C     		ldr	r2, [r0, #72]
 584:Drivers/STM32WBxx_HAL_Driver/Src/stm32wbxx_hal_dma.c **** 
 1090              		.loc 1 584 24 view .LVU388
 1091 002a 1368     		ldr	r3, [r2]
 584:Drivers/STM32WBxx_HAL_Driver/Src/stm32wbxx_hal_dma.c **** 
 1092              		.loc 1 584 30 view .LVU389
 1093 002c 23F48073 		bic	r3, r3, #256
 1094 0030 1360     		str	r3, [r2]
 587:Drivers/STM32WBxx_HAL_Driver/Src/stm32wbxx_hal_dma.c **** 
 1095              		.loc 1 587 5 is_stmt 1 view .LVU390
ARM GAS  C:\Users\Nathan\AppData\Local\Temp\ccwtEZa1.s 			page 45


 587:Drivers/STM32WBxx_HAL_Driver/Src/stm32wbxx_hal_dma.c **** 
 1096              		.loc 1 587 56 is_stmt 0 view .LVU391
 1097 0032 436C     		ldr	r3, [r0, #68]
 587:Drivers/STM32WBxx_HAL_Driver/Src/stm32wbxx_hal_dma.c **** 
 1098              		.loc 1 587 71 view .LVU392
 1099 0034 03F01C02 		and	r2, r3, #28
 587:Drivers/STM32WBxx_HAL_Driver/Src/stm32wbxx_hal_dma.c **** 
 1100              		.loc 1 587 9 view .LVU393
 1101 0038 016C     		ldr	r1, [r0, #64]
 587:Drivers/STM32WBxx_HAL_Driver/Src/stm32wbxx_hal_dma.c **** 
 1102              		.loc 1 587 48 view .LVU394
 1103 003a 0123     		movs	r3, #1
 1104 003c 9340     		lsls	r3, r3, r2
 587:Drivers/STM32WBxx_HAL_Driver/Src/stm32wbxx_hal_dma.c **** 
 1105              		.loc 1 587 32 view .LVU395
 1106 003e 4B60     		str	r3, [r1, #4]
 590:Drivers/STM32WBxx_HAL_Driver/Src/stm32wbxx_hal_dma.c **** 
 1107              		.loc 1 590 5 is_stmt 1 view .LVU396
 590:Drivers/STM32WBxx_HAL_Driver/Src/stm32wbxx_hal_dma.c **** 
 1108              		.loc 1 590 9 is_stmt 0 view .LVU397
 1109 0040 C36C     		ldr	r3, [r0, #76]
 590:Drivers/STM32WBxx_HAL_Driver/Src/stm32wbxx_hal_dma.c **** 
 1110              		.loc 1 590 42 view .LVU398
 1111 0042 026D     		ldr	r2, [r0, #80]
 590:Drivers/STM32WBxx_HAL_Driver/Src/stm32wbxx_hal_dma.c **** 
 1112              		.loc 1 590 36 view .LVU399
 1113 0044 5A60     		str	r2, [r3, #4]
 592:Drivers/STM32WBxx_HAL_Driver/Src/stm32wbxx_hal_dma.c ****     {
 1114              		.loc 1 592 5 is_stmt 1 view .LVU400
 592:Drivers/STM32WBxx_HAL_Driver/Src/stm32wbxx_hal_dma.c ****     {
 1115              		.loc 1 592 13 is_stmt 0 view .LVU401
 1116 0046 436D     		ldr	r3, [r0, #84]
 592:Drivers/STM32WBxx_HAL_Driver/Src/stm32wbxx_hal_dma.c ****     {
 1117              		.loc 1 592 8 view .LVU402
 1118 0048 33B1     		cbz	r3, .L68
 596:Drivers/STM32WBxx_HAL_Driver/Src/stm32wbxx_hal_dma.c **** 
 1119              		.loc 1 596 7 is_stmt 1 view .LVU403
 596:Drivers/STM32WBxx_HAL_Driver/Src/stm32wbxx_hal_dma.c **** 
 1120              		.loc 1 596 29 is_stmt 0 view .LVU404
 1121 004a 1A68     		ldr	r2, [r3]
 596:Drivers/STM32WBxx_HAL_Driver/Src/stm32wbxx_hal_dma.c **** 
 1122              		.loc 1 596 36 view .LVU405
 1123 004c 22F48072 		bic	r2, r2, #256
 1124 0050 1A60     		str	r2, [r3]
 599:Drivers/STM32WBxx_HAL_Driver/Src/stm32wbxx_hal_dma.c ****     }
 1125              		.loc 1 599 7 is_stmt 1 view .LVU406
 599:Drivers/STM32WBxx_HAL_Driver/Src/stm32wbxx_hal_dma.c ****     }
 1126              		.loc 1 599 11 is_stmt 0 view .LVU407
 1127 0052 836D     		ldr	r3, [r0, #88]
 599:Drivers/STM32WBxx_HAL_Driver/Src/stm32wbxx_hal_dma.c ****     }
 1128              		.loc 1 599 49 view .LVU408
 1129 0054 C26D     		ldr	r2, [r0, #92]
 599:Drivers/STM32WBxx_HAL_Driver/Src/stm32wbxx_hal_dma.c ****     }
 1130              		.loc 1 599 43 view .LVU409
 1131 0056 5A60     		str	r2, [r3, #4]
 1132              	.L68:
 603:Drivers/STM32WBxx_HAL_Driver/Src/stm32wbxx_hal_dma.c **** 
ARM GAS  C:\Users\Nathan\AppData\Local\Temp\ccwtEZa1.s 			page 46


 1133              		.loc 1 603 5 is_stmt 1 view .LVU410
 603:Drivers/STM32WBxx_HAL_Driver/Src/stm32wbxx_hal_dma.c **** 
 1134              		.loc 1 603 17 is_stmt 0 view .LVU411
 1135 0058 0123     		movs	r3, #1
 1136 005a 80F82530 		strb	r3, [r0, #37]
 606:Drivers/STM32WBxx_HAL_Driver/Src/stm32wbxx_hal_dma.c **** 
 1137              		.loc 1 606 5 is_stmt 1 view .LVU412
 606:Drivers/STM32WBxx_HAL_Driver/Src/stm32wbxx_hal_dma.c **** 
 1138              		.loc 1 606 5 view .LVU413
 1139 005e 0023     		movs	r3, #0
 1140 0060 80F82430 		strb	r3, [r0, #36]
 606:Drivers/STM32WBxx_HAL_Driver/Src/stm32wbxx_hal_dma.c **** 
 1141              		.loc 1 606 5 view .LVU414
 609:Drivers/STM32WBxx_HAL_Driver/Src/stm32wbxx_hal_dma.c ****     {
 1142              		.loc 1 609 5 view .LVU415
 609:Drivers/STM32WBxx_HAL_Driver/Src/stm32wbxx_hal_dma.c ****     {
 1143              		.loc 1 609 13 is_stmt 0 view .LVU416
 1144 0064 836B     		ldr	r3, [r0, #56]
 609:Drivers/STM32WBxx_HAL_Driver/Src/stm32wbxx_hal_dma.c ****     {
 1145              		.loc 1 609 8 view .LVU417
 1146 0066 13B1     		cbz	r3, .L69
 611:Drivers/STM32WBxx_HAL_Driver/Src/stm32wbxx_hal_dma.c ****     }
 1147              		.loc 1 611 7 is_stmt 1 view .LVU418
 1148 0068 9847     		blx	r3
 1149              	.LVL61:
 566:Drivers/STM32WBxx_HAL_Driver/Src/stm32wbxx_hal_dma.c **** 
 1150              		.loc 1 566 21 is_stmt 0 view .LVU419
 1151 006a 0020     		movs	r0, #0
 1152 006c D1E7     		b	.L67
 1153              	.LVL62:
 1154              	.L69:
 566:Drivers/STM32WBxx_HAL_Driver/Src/stm32wbxx_hal_dma.c **** 
 1155              		.loc 1 566 21 view .LVU420
 1156 006e 0020     		movs	r0, #0
 1157              	.LVL63:
 566:Drivers/STM32WBxx_HAL_Driver/Src/stm32wbxx_hal_dma.c **** 
 1158              		.loc 1 566 21 view .LVU421
 1159 0070 CFE7     		b	.L67
 1160              		.cfi_endproc
 1161              	.LFE1109:
 1163              		.section	.text.HAL_DMA_PollForTransfer,"ax",%progbits
 1164              		.align	1
 1165              		.global	HAL_DMA_PollForTransfer
 1166              		.syntax unified
 1167              		.thumb
 1168              		.thumb_func
 1170              	HAL_DMA_PollForTransfer:
 1171              	.LVL64:
 1172              	.LFB1110:
 627:Drivers/STM32WBxx_HAL_Driver/Src/stm32wbxx_hal_dma.c ****   uint32_t temp;
 1173              		.loc 1 627 1 is_stmt 1 view -0
 1174              		.cfi_startproc
 1175              		@ args = 0, pretend = 0, frame = 0
 1176              		@ frame_needed = 0, uses_anonymous_args = 0
 627:Drivers/STM32WBxx_HAL_Driver/Src/stm32wbxx_hal_dma.c ****   uint32_t temp;
 1177              		.loc 1 627 1 is_stmt 0 view .LVU423
 1178 0000 2DE9F041 		push	{r4, r5, r6, r7, r8, lr}
ARM GAS  C:\Users\Nathan\AppData\Local\Temp\ccwtEZa1.s 			page 47


 1179              		.cfi_def_cfa_offset 24
 1180              		.cfi_offset 4, -24
 1181              		.cfi_offset 5, -20
 1182              		.cfi_offset 6, -16
 1183              		.cfi_offset 7, -12
 1184              		.cfi_offset 8, -8
 1185              		.cfi_offset 14, -4
 1186 0004 0446     		mov	r4, r0
 628:Drivers/STM32WBxx_HAL_Driver/Src/stm32wbxx_hal_dma.c ****   uint32_t tickstart;
 1187              		.loc 1 628 3 is_stmt 1 view .LVU424
 629:Drivers/STM32WBxx_HAL_Driver/Src/stm32wbxx_hal_dma.c **** 
 1188              		.loc 1 629 3 view .LVU425
 631:Drivers/STM32WBxx_HAL_Driver/Src/stm32wbxx_hal_dma.c ****   {
 1189              		.loc 1 631 3 view .LVU426
 631:Drivers/STM32WBxx_HAL_Driver/Src/stm32wbxx_hal_dma.c ****   {
 1190              		.loc 1 631 33 is_stmt 0 view .LVU427
 1191 0006 90F82530 		ldrb	r3, [r0, #37]	@ zero_extendqisi2
 1192 000a DBB2     		uxtb	r3, r3
 631:Drivers/STM32WBxx_HAL_Driver/Src/stm32wbxx_hal_dma.c ****   {
 1193              		.loc 1 631 6 view .LVU428
 1194 000c 022B     		cmp	r3, #2
 1195 000e 07D0     		beq	.L72
 634:Drivers/STM32WBxx_HAL_Driver/Src/stm32wbxx_hal_dma.c ****     __HAL_UNLOCK(hdma);
 1196              		.loc 1 634 5 is_stmt 1 view .LVU429
 634:Drivers/STM32WBxx_HAL_Driver/Src/stm32wbxx_hal_dma.c ****     __HAL_UNLOCK(hdma);
 1197              		.loc 1 634 21 is_stmt 0 view .LVU430
 1198 0010 0423     		movs	r3, #4
 1199 0012 C363     		str	r3, [r0, #60]
 635:Drivers/STM32WBxx_HAL_Driver/Src/stm32wbxx_hal_dma.c ****     return HAL_ERROR;
 1200              		.loc 1 635 5 is_stmt 1 view .LVU431
 635:Drivers/STM32WBxx_HAL_Driver/Src/stm32wbxx_hal_dma.c ****     return HAL_ERROR;
 1201              		.loc 1 635 5 view .LVU432
 1202 0014 0023     		movs	r3, #0
 1203 0016 80F82430 		strb	r3, [r0, #36]
 635:Drivers/STM32WBxx_HAL_Driver/Src/stm32wbxx_hal_dma.c ****     return HAL_ERROR;
 1204              		.loc 1 635 5 view .LVU433
 636:Drivers/STM32WBxx_HAL_Driver/Src/stm32wbxx_hal_dma.c ****   }
 1205              		.loc 1 636 5 view .LVU434
 636:Drivers/STM32WBxx_HAL_Driver/Src/stm32wbxx_hal_dma.c ****   }
 1206              		.loc 1 636 12 is_stmt 0 view .LVU435
 1207 001a 0120     		movs	r0, #1
 1208              	.LVL65:
 1209              	.L73:
 746:Drivers/STM32WBxx_HAL_Driver/Src/stm32wbxx_hal_dma.c **** 
 1210              		.loc 1 746 1 view .LVU436
 1211 001c BDE8F081 		pop	{r4, r5, r6, r7, r8, pc}
 1212              	.LVL66:
 1213              	.L72:
 746:Drivers/STM32WBxx_HAL_Driver/Src/stm32wbxx_hal_dma.c **** 
 1214              		.loc 1 746 1 view .LVU437
 1215 0020 0E46     		mov	r6, r1
 1216 0022 1546     		mov	r5, r2
 640:Drivers/STM32WBxx_HAL_Driver/Src/stm32wbxx_hal_dma.c ****   {
 1217              		.loc 1 640 3 is_stmt 1 view .LVU438
 640:Drivers/STM32WBxx_HAL_Driver/Src/stm32wbxx_hal_dma.c ****   {
 1218              		.loc 1 640 12 is_stmt 0 view .LVU439
 1219 0024 0368     		ldr	r3, [r0]
ARM GAS  C:\Users\Nathan\AppData\Local\Temp\ccwtEZa1.s 			page 48


 640:Drivers/STM32WBxx_HAL_Driver/Src/stm32wbxx_hal_dma.c ****   {
 1220              		.loc 1 640 22 view .LVU440
 1221 0026 1B68     		ldr	r3, [r3]
 640:Drivers/STM32WBxx_HAL_Driver/Src/stm32wbxx_hal_dma.c ****   {
 1222              		.loc 1 640 6 view .LVU441
 1223 0028 13F0200F 		tst	r3, #32
 1224 002c 2BD1     		bne	.L86
 647:Drivers/STM32WBxx_HAL_Driver/Src/stm32wbxx_hal_dma.c ****   {
 1225              		.loc 1 647 3 is_stmt 1 view .LVU442
 647:Drivers/STM32WBxx_HAL_Driver/Src/stm32wbxx_hal_dma.c ****   {
 1226              		.loc 1 647 6 is_stmt 0 view .LVU443
 1227 002e 79BB     		cbnz	r1, .L75
 650:Drivers/STM32WBxx_HAL_Driver/Src/stm32wbxx_hal_dma.c ****   }
 1228              		.loc 1 650 5 is_stmt 1 view .LVU444
 650:Drivers/STM32WBxx_HAL_Driver/Src/stm32wbxx_hal_dma.c ****   }
 1229              		.loc 1 650 33 is_stmt 0 view .LVU445
 1230 0030 436C     		ldr	r3, [r0, #68]
 650:Drivers/STM32WBxx_HAL_Driver/Src/stm32wbxx_hal_dma.c ****   }
 1231              		.loc 1 650 48 view .LVU446
 1232 0032 03F01C03 		and	r3, r3, #28
 650:Drivers/STM32WBxx_HAL_Driver/Src/stm32wbxx_hal_dma.c ****   }
 1233              		.loc 1 650 10 view .LVU447
 1234 0036 0227     		movs	r7, #2
 1235 0038 9F40     		lsls	r7, r7, r3
 1236              	.LVL67:
 1237              	.L76:
 659:Drivers/STM32WBxx_HAL_Driver/Src/stm32wbxx_hal_dma.c **** 
 1238              		.loc 1 659 3 is_stmt 1 view .LVU448
 659:Drivers/STM32WBxx_HAL_Driver/Src/stm32wbxx_hal_dma.c **** 
 1239              		.loc 1 659 15 is_stmt 0 view .LVU449
 1240 003a FFF7FEFF 		bl	HAL_GetTick
 1241              	.LVL68:
 659:Drivers/STM32WBxx_HAL_Driver/Src/stm32wbxx_hal_dma.c **** 
 1242              		.loc 1 659 15 view .LVU450
 1243 003e 8046     		mov	r8, r0
 1244              	.LVL69:
 661:Drivers/STM32WBxx_HAL_Driver/Src/stm32wbxx_hal_dma.c ****   {
 1245              		.loc 1 661 3 is_stmt 1 view .LVU451
 1246              	.L79:
 661:Drivers/STM32WBxx_HAL_Driver/Src/stm32wbxx_hal_dma.c ****   {
 1247              		.loc 1 661 45 view .LVU452
 661:Drivers/STM32WBxx_HAL_Driver/Src/stm32wbxx_hal_dma.c ****   {
 1248              		.loc 1 661 15 is_stmt 0 view .LVU453
 1249 0040 226C     		ldr	r2, [r4, #64]
 661:Drivers/STM32WBxx_HAL_Driver/Src/stm32wbxx_hal_dma.c ****   {
 1250              		.loc 1 661 31 view .LVU454
 1251 0042 1368     		ldr	r3, [r2]
 661:Drivers/STM32WBxx_HAL_Driver/Src/stm32wbxx_hal_dma.c ****   {
 1252              		.loc 1 661 45 view .LVU455
 1253 0044 3B42     		tst	r3, r7
 1254 0046 34D1     		bne	.L87
 663:Drivers/STM32WBxx_HAL_Driver/Src/stm32wbxx_hal_dma.c ****     {
 1255              		.loc 1 663 5 is_stmt 1 view .LVU456
 663:Drivers/STM32WBxx_HAL_Driver/Src/stm32wbxx_hal_dma.c ****     {
 1256              		.loc 1 663 30 is_stmt 0 view .LVU457
 1257 0048 1168     		ldr	r1, [r2]
 663:Drivers/STM32WBxx_HAL_Driver/Src/stm32wbxx_hal_dma.c ****     {
ARM GAS  C:\Users\Nathan\AppData\Local\Temp\ccwtEZa1.s 			page 49


 1258              		.loc 1 663 60 view .LVU458
 1259 004a 636C     		ldr	r3, [r4, #68]
 663:Drivers/STM32WBxx_HAL_Driver/Src/stm32wbxx_hal_dma.c ****     {
 1260              		.loc 1 663 75 view .LVU459
 1261 004c 03F01C03 		and	r3, r3, #28
 663:Drivers/STM32WBxx_HAL_Driver/Src/stm32wbxx_hal_dma.c ****     {
 1262              		.loc 1 663 52 view .LVU460
 1263 0050 4FF0080C 		mov	ip, #8
 1264 0054 0CFA03FC 		lsl	ip, ip, r3
 663:Drivers/STM32WBxx_HAL_Driver/Src/stm32wbxx_hal_dma.c ****     {
 1265              		.loc 1 663 8 view .LVU461
 1266 0058 11EA0C0F 		tst	r1, ip
 1267 005c 1ED1     		bne	.L88
 682:Drivers/STM32WBxx_HAL_Driver/Src/stm32wbxx_hal_dma.c ****     {
 1268              		.loc 1 682 5 is_stmt 1 view .LVU462
 682:Drivers/STM32WBxx_HAL_Driver/Src/stm32wbxx_hal_dma.c ****     {
 1269              		.loc 1 682 8 is_stmt 0 view .LVU463
 1270 005e B5F1FF3F 		cmp	r5, #-1
 1271 0062 EDD0     		beq	.L79
 684:Drivers/STM32WBxx_HAL_Driver/Src/stm32wbxx_hal_dma.c ****       {
 1272              		.loc 1 684 7 is_stmt 1 view .LVU464
 684:Drivers/STM32WBxx_HAL_Driver/Src/stm32wbxx_hal_dma.c ****       {
 1273              		.loc 1 684 13 is_stmt 0 view .LVU465
 1274 0064 FFF7FEFF 		bl	HAL_GetTick
 1275              	.LVL70:
 684:Drivers/STM32WBxx_HAL_Driver/Src/stm32wbxx_hal_dma.c ****       {
 1276              		.loc 1 684 27 discriminator 1 view .LVU466
 1277 0068 A0EB0800 		sub	r0, r0, r8
 684:Drivers/STM32WBxx_HAL_Driver/Src/stm32wbxx_hal_dma.c ****       {
 1278              		.loc 1 684 10 discriminator 1 view .LVU467
 1279 006c A842     		cmp	r0, r5
 1280 006e 01D8     		bhi	.L80
 684:Drivers/STM32WBxx_HAL_Driver/Src/stm32wbxx_hal_dma.c ****       {
 1281              		.loc 1 684 51 discriminator 1 view .LVU468
 1282 0070 002D     		cmp	r5, #0
 1283 0072 E5D1     		bne	.L79
 1284              	.L80:
 687:Drivers/STM32WBxx_HAL_Driver/Src/stm32wbxx_hal_dma.c **** 
 1285              		.loc 1 687 9 is_stmt 1 view .LVU469
 687:Drivers/STM32WBxx_HAL_Driver/Src/stm32wbxx_hal_dma.c **** 
 1286              		.loc 1 687 25 is_stmt 0 view .LVU470
 1287 0074 2023     		movs	r3, #32
 1288 0076 E363     		str	r3, [r4, #60]
 690:Drivers/STM32WBxx_HAL_Driver/Src/stm32wbxx_hal_dma.c **** 
 1289              		.loc 1 690 9 is_stmt 1 view .LVU471
 690:Drivers/STM32WBxx_HAL_Driver/Src/stm32wbxx_hal_dma.c **** 
 1290              		.loc 1 690 21 is_stmt 0 view .LVU472
 1291 0078 0120     		movs	r0, #1
 1292 007a 84F82500 		strb	r0, [r4, #37]
 693:Drivers/STM32WBxx_HAL_Driver/Src/stm32wbxx_hal_dma.c **** 
 1293              		.loc 1 693 9 is_stmt 1 view .LVU473
 693:Drivers/STM32WBxx_HAL_Driver/Src/stm32wbxx_hal_dma.c **** 
 1294              		.loc 1 693 9 view .LVU474
 1295 007e 0023     		movs	r3, #0
 1296 0080 84F82430 		strb	r3, [r4, #36]
 693:Drivers/STM32WBxx_HAL_Driver/Src/stm32wbxx_hal_dma.c **** 
 1297              		.loc 1 693 9 view .LVU475
ARM GAS  C:\Users\Nathan\AppData\Local\Temp\ccwtEZa1.s 			page 50


 695:Drivers/STM32WBxx_HAL_Driver/Src/stm32wbxx_hal_dma.c ****       }
 1298              		.loc 1 695 9 view .LVU476
 695:Drivers/STM32WBxx_HAL_Driver/Src/stm32wbxx_hal_dma.c ****       }
 1299              		.loc 1 695 16 is_stmt 0 view .LVU477
 1300 0084 CAE7     		b	.L73
 1301              	.LVL71:
 1302              	.L86:
 642:Drivers/STM32WBxx_HAL_Driver/Src/stm32wbxx_hal_dma.c ****     return HAL_ERROR;
 1303              		.loc 1 642 5 is_stmt 1 view .LVU478
 642:Drivers/STM32WBxx_HAL_Driver/Src/stm32wbxx_hal_dma.c ****     return HAL_ERROR;
 1304              		.loc 1 642 21 is_stmt 0 view .LVU479
 1305 0086 4FF48073 		mov	r3, #256
 1306 008a C363     		str	r3, [r0, #60]
 643:Drivers/STM32WBxx_HAL_Driver/Src/stm32wbxx_hal_dma.c ****   }
 1307              		.loc 1 643 5 is_stmt 1 view .LVU480
 643:Drivers/STM32WBxx_HAL_Driver/Src/stm32wbxx_hal_dma.c ****   }
 1308              		.loc 1 643 12 is_stmt 0 view .LVU481
 1309 008c 0120     		movs	r0, #1
 1310              	.LVL72:
 643:Drivers/STM32WBxx_HAL_Driver/Src/stm32wbxx_hal_dma.c ****   }
 1311              		.loc 1 643 12 view .LVU482
 1312 008e C5E7     		b	.L73
 1313              	.LVL73:
 1314              	.L75:
 655:Drivers/STM32WBxx_HAL_Driver/Src/stm32wbxx_hal_dma.c ****   }
 1315              		.loc 1 655 5 is_stmt 1 view .LVU483
 655:Drivers/STM32WBxx_HAL_Driver/Src/stm32wbxx_hal_dma.c ****   }
 1316              		.loc 1 655 33 is_stmt 0 view .LVU484
 1317 0090 436C     		ldr	r3, [r0, #68]
 655:Drivers/STM32WBxx_HAL_Driver/Src/stm32wbxx_hal_dma.c ****   }
 1318              		.loc 1 655 49 view .LVU485
 1319 0092 03F01C03 		and	r3, r3, #28
 655:Drivers/STM32WBxx_HAL_Driver/Src/stm32wbxx_hal_dma.c ****   }
 1320              		.loc 1 655 10 view .LVU486
 1321 0096 0427     		movs	r7, #4
 1322 0098 9F40     		lsls	r7, r7, r3
 1323              	.LVL74:
 655:Drivers/STM32WBxx_HAL_Driver/Src/stm32wbxx_hal_dma.c ****   }
 1324              		.loc 1 655 10 view .LVU487
 1325 009a CEE7     		b	.L76
 1326              	.LVL75:
 1327              	.L88:
 668:Drivers/STM32WBxx_HAL_Driver/Src/stm32wbxx_hal_dma.c **** 
 1328              		.loc 1 668 7 is_stmt 1 view .LVU488
 668:Drivers/STM32WBxx_HAL_Driver/Src/stm32wbxx_hal_dma.c **** 
 1329              		.loc 1 668 50 is_stmt 0 view .LVU489
 1330 009c 0120     		movs	r0, #1
 1331 009e 00FA03F3 		lsl	r3, r0, r3
 668:Drivers/STM32WBxx_HAL_Driver/Src/stm32wbxx_hal_dma.c **** 
 1332              		.loc 1 668 34 view .LVU490
 1333 00a2 5360     		str	r3, [r2, #4]
 671:Drivers/STM32WBxx_HAL_Driver/Src/stm32wbxx_hal_dma.c **** 
 1334              		.loc 1 671 7 is_stmt 1 view .LVU491
 671:Drivers/STM32WBxx_HAL_Driver/Src/stm32wbxx_hal_dma.c **** 
 1335              		.loc 1 671 23 is_stmt 0 view .LVU492
 1336 00a4 E063     		str	r0, [r4, #60]
 674:Drivers/STM32WBxx_HAL_Driver/Src/stm32wbxx_hal_dma.c **** 
ARM GAS  C:\Users\Nathan\AppData\Local\Temp\ccwtEZa1.s 			page 51


 1337              		.loc 1 674 7 is_stmt 1 view .LVU493
 674:Drivers/STM32WBxx_HAL_Driver/Src/stm32wbxx_hal_dma.c **** 
 1338              		.loc 1 674 19 is_stmt 0 view .LVU494
 1339 00a6 84F82500 		strb	r0, [r4, #37]
 677:Drivers/STM32WBxx_HAL_Driver/Src/stm32wbxx_hal_dma.c **** 
 1340              		.loc 1 677 7 is_stmt 1 view .LVU495
 677:Drivers/STM32WBxx_HAL_Driver/Src/stm32wbxx_hal_dma.c **** 
 1341              		.loc 1 677 7 view .LVU496
 1342 00aa 0023     		movs	r3, #0
 1343 00ac 84F82430 		strb	r3, [r4, #36]
 677:Drivers/STM32WBxx_HAL_Driver/Src/stm32wbxx_hal_dma.c **** 
 1344              		.loc 1 677 7 view .LVU497
 679:Drivers/STM32WBxx_HAL_Driver/Src/stm32wbxx_hal_dma.c ****     }
 1345              		.loc 1 679 7 view .LVU498
 679:Drivers/STM32WBxx_HAL_Driver/Src/stm32wbxx_hal_dma.c ****     }
 1346              		.loc 1 679 14 is_stmt 0 view .LVU499
 1347 00b0 B4E7     		b	.L73
 1348              	.L87:
 701:Drivers/STM32WBxx_HAL_Driver/Src/stm32wbxx_hal_dma.c ****   {
 1349              		.loc 1 701 3 is_stmt 1 view .LVU500
 701:Drivers/STM32WBxx_HAL_Driver/Src/stm32wbxx_hal_dma.c ****   {
 1350              		.loc 1 701 11 is_stmt 0 view .LVU501
 1351 00b2 636D     		ldr	r3, [r4, #84]
 701:Drivers/STM32WBxx_HAL_Driver/Src/stm32wbxx_hal_dma.c ****   {
 1352              		.loc 1 701 6 view .LVU502
 1353 00b4 7BB1     		cbz	r3, .L82
 704:Drivers/STM32WBxx_HAL_Driver/Src/stm32wbxx_hal_dma.c ****     {
 1354              		.loc 1 704 5 is_stmt 1 view .LVU503
 704:Drivers/STM32WBxx_HAL_Driver/Src/stm32wbxx_hal_dma.c ****     {
 1355              		.loc 1 704 14 is_stmt 0 view .LVU504
 1356 00b6 A26D     		ldr	r2, [r4, #88]
 704:Drivers/STM32WBxx_HAL_Driver/Src/stm32wbxx_hal_dma.c ****     {
 1357              		.loc 1 704 38 view .LVU505
 1358 00b8 1168     		ldr	r1, [r2]
 704:Drivers/STM32WBxx_HAL_Driver/Src/stm32wbxx_hal_dma.c ****     {
 1359              		.loc 1 704 51 view .LVU506
 1360 00ba E26D     		ldr	r2, [r4, #92]
 704:Drivers/STM32WBxx_HAL_Driver/Src/stm32wbxx_hal_dma.c ****     {
 1361              		.loc 1 704 8 view .LVU507
 1362 00bc 1142     		tst	r1, r2
 1363 00be 0AD0     		beq	.L82
 707:Drivers/STM32WBxx_HAL_Driver/Src/stm32wbxx_hal_dma.c **** 
 1364              		.loc 1 707 7 is_stmt 1 view .LVU508
 707:Drivers/STM32WBxx_HAL_Driver/Src/stm32wbxx_hal_dma.c **** 
 1365              		.loc 1 707 29 is_stmt 0 view .LVU509
 1366 00c0 1A68     		ldr	r2, [r3]
 707:Drivers/STM32WBxx_HAL_Driver/Src/stm32wbxx_hal_dma.c **** 
 1367              		.loc 1 707 36 view .LVU510
 1368 00c2 42F48072 		orr	r2, r2, #256
 1369 00c6 1A60     		str	r2, [r3]
 710:Drivers/STM32WBxx_HAL_Driver/Src/stm32wbxx_hal_dma.c **** 
 1370              		.loc 1 710 7 is_stmt 1 view .LVU511
 710:Drivers/STM32WBxx_HAL_Driver/Src/stm32wbxx_hal_dma.c **** 
 1371              		.loc 1 710 11 is_stmt 0 view .LVU512
 1372 00c8 A36D     		ldr	r3, [r4, #88]
 710:Drivers/STM32WBxx_HAL_Driver/Src/stm32wbxx_hal_dma.c **** 
 1373              		.loc 1 710 49 view .LVU513
ARM GAS  C:\Users\Nathan\AppData\Local\Temp\ccwtEZa1.s 			page 52


 1374 00ca E26D     		ldr	r2, [r4, #92]
 710:Drivers/STM32WBxx_HAL_Driver/Src/stm32wbxx_hal_dma.c **** 
 1375              		.loc 1 710 43 view .LVU514
 1376 00cc 5A60     		str	r2, [r3, #4]
 713:Drivers/STM32WBxx_HAL_Driver/Src/stm32wbxx_hal_dma.c ****     }
 1377              		.loc 1 713 7 is_stmt 1 view .LVU515
 713:Drivers/STM32WBxx_HAL_Driver/Src/stm32wbxx_hal_dma.c ****     }
 1378              		.loc 1 713 11 is_stmt 0 view .LVU516
 1379 00ce E36B     		ldr	r3, [r4, #60]
 713:Drivers/STM32WBxx_HAL_Driver/Src/stm32wbxx_hal_dma.c ****     }
 1380              		.loc 1 713 23 view .LVU517
 1381 00d0 43F48063 		orr	r3, r3, #1024
 1382 00d4 E363     		str	r3, [r4, #60]
 1383              	.L82:
 718:Drivers/STM32WBxx_HAL_Driver/Src/stm32wbxx_hal_dma.c ****   {
 1384              		.loc 1 718 3 is_stmt 1 view .LVU518
 718:Drivers/STM32WBxx_HAL_Driver/Src/stm32wbxx_hal_dma.c ****   {
 1385              		.loc 1 718 12 is_stmt 0 view .LVU519
 1386 00d6 E36C     		ldr	r3, [r4, #76]
 718:Drivers/STM32WBxx_HAL_Driver/Src/stm32wbxx_hal_dma.c ****   {
 1387              		.loc 1 718 33 view .LVU520
 1388 00d8 1968     		ldr	r1, [r3]
 718:Drivers/STM32WBxx_HAL_Driver/Src/stm32wbxx_hal_dma.c ****   {
 1389              		.loc 1 718 45 view .LVU521
 1390 00da 226D     		ldr	r2, [r4, #80]
 718:Drivers/STM32WBxx_HAL_Driver/Src/stm32wbxx_hal_dma.c ****   {
 1391              		.loc 1 718 6 view .LVU522
 1392 00dc 1142     		tst	r1, r2
 1393 00de 04D0     		beq	.L83
 721:Drivers/STM32WBxx_HAL_Driver/Src/stm32wbxx_hal_dma.c **** 
 1394              		.loc 1 721 5 is_stmt 1 view .LVU523
 721:Drivers/STM32WBxx_HAL_Driver/Src/stm32wbxx_hal_dma.c **** 
 1395              		.loc 1 721 36 is_stmt 0 view .LVU524
 1396 00e0 5A60     		str	r2, [r3, #4]
 724:Drivers/STM32WBxx_HAL_Driver/Src/stm32wbxx_hal_dma.c ****   }
 1397              		.loc 1 724 5 is_stmt 1 view .LVU525
 724:Drivers/STM32WBxx_HAL_Driver/Src/stm32wbxx_hal_dma.c ****   }
 1398              		.loc 1 724 9 is_stmt 0 view .LVU526
 1399 00e2 E36B     		ldr	r3, [r4, #60]
 724:Drivers/STM32WBxx_HAL_Driver/Src/stm32wbxx_hal_dma.c ****   }
 1400              		.loc 1 724 21 view .LVU527
 1401 00e4 43F40073 		orr	r3, r3, #512
 1402 00e8 E363     		str	r3, [r4, #60]
 1403              	.L83:
 727:Drivers/STM32WBxx_HAL_Driver/Src/stm32wbxx_hal_dma.c ****   {
 1404              		.loc 1 727 3 is_stmt 1 view .LVU528
 727:Drivers/STM32WBxx_HAL_Driver/Src/stm32wbxx_hal_dma.c ****   {
 1405              		.loc 1 727 6 is_stmt 0 view .LVU529
 1406 00ea 76B9     		cbnz	r6, .L84
 730:Drivers/STM32WBxx_HAL_Driver/Src/stm32wbxx_hal_dma.c **** 
 1407              		.loc 1 730 5 is_stmt 1 view .LVU530
 730:Drivers/STM32WBxx_HAL_Driver/Src/stm32wbxx_hal_dma.c **** 
 1408              		.loc 1 730 56 is_stmt 0 view .LVU531
 1409 00ec 636C     		ldr	r3, [r4, #68]
 730:Drivers/STM32WBxx_HAL_Driver/Src/stm32wbxx_hal_dma.c **** 
 1410              		.loc 1 730 71 view .LVU532
 1411 00ee 03F01C02 		and	r2, r3, #28
ARM GAS  C:\Users\Nathan\AppData\Local\Temp\ccwtEZa1.s 			page 53


 730:Drivers/STM32WBxx_HAL_Driver/Src/stm32wbxx_hal_dma.c **** 
 1412              		.loc 1 730 9 view .LVU533
 1413 00f2 216C     		ldr	r1, [r4, #64]
 730:Drivers/STM32WBxx_HAL_Driver/Src/stm32wbxx_hal_dma.c **** 
 1414              		.loc 1 730 48 view .LVU534
 1415 00f4 0223     		movs	r3, #2
 1416 00f6 9340     		lsls	r3, r3, r2
 730:Drivers/STM32WBxx_HAL_Driver/Src/stm32wbxx_hal_dma.c **** 
 1417              		.loc 1 730 32 view .LVU535
 1418 00f8 4B60     		str	r3, [r1, #4]
 733:Drivers/STM32WBxx_HAL_Driver/Src/stm32wbxx_hal_dma.c **** 
 1419              		.loc 1 733 5 is_stmt 1 view .LVU536
 733:Drivers/STM32WBxx_HAL_Driver/Src/stm32wbxx_hal_dma.c **** 
 1420              		.loc 1 733 5 view .LVU537
 1421 00fa 0023     		movs	r3, #0
 1422 00fc 84F82430 		strb	r3, [r4, #36]
 733:Drivers/STM32WBxx_HAL_Driver/Src/stm32wbxx_hal_dma.c **** 
 1423              		.loc 1 733 5 view .LVU538
 737:Drivers/STM32WBxx_HAL_Driver/Src/stm32wbxx_hal_dma.c ****   }
 1424              		.loc 1 737 5 view .LVU539
 737:Drivers/STM32WBxx_HAL_Driver/Src/stm32wbxx_hal_dma.c ****   }
 1425              		.loc 1 737 17 is_stmt 0 view .LVU540
 1426 0100 0123     		movs	r3, #1
 1427 0102 84F82530 		strb	r3, [r4, #37]
 745:Drivers/STM32WBxx_HAL_Driver/Src/stm32wbxx_hal_dma.c **** }
 1428              		.loc 1 745 10 view .LVU541
 1429 0106 3046     		mov	r0, r6
 1430 0108 88E7     		b	.L73
 1431              	.L84:
 742:Drivers/STM32WBxx_HAL_Driver/Src/stm32wbxx_hal_dma.c ****   }
 1432              		.loc 1 742 5 is_stmt 1 view .LVU542
 742:Drivers/STM32WBxx_HAL_Driver/Src/stm32wbxx_hal_dma.c ****   }
 1433              		.loc 1 742 56 is_stmt 0 view .LVU543
 1434 010a 636C     		ldr	r3, [r4, #68]
 742:Drivers/STM32WBxx_HAL_Driver/Src/stm32wbxx_hal_dma.c ****   }
 1435              		.loc 1 742 71 view .LVU544
 1436 010c 03F01C02 		and	r2, r3, #28
 742:Drivers/STM32WBxx_HAL_Driver/Src/stm32wbxx_hal_dma.c ****   }
 1437              		.loc 1 742 9 view .LVU545
 1438 0110 216C     		ldr	r1, [r4, #64]
 742:Drivers/STM32WBxx_HAL_Driver/Src/stm32wbxx_hal_dma.c ****   }
 1439              		.loc 1 742 48 view .LVU546
 1440 0112 0423     		movs	r3, #4
 1441 0114 9340     		lsls	r3, r3, r2
 742:Drivers/STM32WBxx_HAL_Driver/Src/stm32wbxx_hal_dma.c ****   }
 1442              		.loc 1 742 32 view .LVU547
 1443 0116 4B60     		str	r3, [r1, #4]
 745:Drivers/STM32WBxx_HAL_Driver/Src/stm32wbxx_hal_dma.c **** }
 1444              		.loc 1 745 10 view .LVU548
 1445 0118 0020     		movs	r0, #0
 1446 011a 7FE7     		b	.L73
 1447              		.cfi_endproc
 1448              	.LFE1110:
 1450              		.section	.text.HAL_DMA_IRQHandler,"ax",%progbits
 1451              		.align	1
 1452              		.global	HAL_DMA_IRQHandler
 1453              		.syntax unified
ARM GAS  C:\Users\Nathan\AppData\Local\Temp\ccwtEZa1.s 			page 54


 1454              		.thumb
 1455              		.thumb_func
 1457              	HAL_DMA_IRQHandler:
 1458              	.LVL76:
 1459              	.LFB1111:
 755:Drivers/STM32WBxx_HAL_Driver/Src/stm32wbxx_hal_dma.c ****   uint32_t flag_it = hdma->DmaBaseAddress->ISR;
 1460              		.loc 1 755 1 is_stmt 1 view -0
 1461              		.cfi_startproc
 1462              		@ args = 0, pretend = 0, frame = 0
 1463              		@ frame_needed = 0, uses_anonymous_args = 0
 755:Drivers/STM32WBxx_HAL_Driver/Src/stm32wbxx_hal_dma.c ****   uint32_t flag_it = hdma->DmaBaseAddress->ISR;
 1464              		.loc 1 755 1 is_stmt 0 view .LVU550
 1465 0000 38B5     		push	{r3, r4, r5, lr}
 1466              		.cfi_def_cfa_offset 16
 1467              		.cfi_offset 3, -16
 1468              		.cfi_offset 4, -12
 1469              		.cfi_offset 5, -8
 1470              		.cfi_offset 14, -4
 756:Drivers/STM32WBxx_HAL_Driver/Src/stm32wbxx_hal_dma.c ****   uint32_t source_it = hdma->Instance->CCR;
 1471              		.loc 1 756 3 is_stmt 1 view .LVU551
 756:Drivers/STM32WBxx_HAL_Driver/Src/stm32wbxx_hal_dma.c ****   uint32_t source_it = hdma->Instance->CCR;
 1472              		.loc 1 756 26 is_stmt 0 view .LVU552
 1473 0002 036C     		ldr	r3, [r0, #64]
 756:Drivers/STM32WBxx_HAL_Driver/Src/stm32wbxx_hal_dma.c ****   uint32_t source_it = hdma->Instance->CCR;
 1474              		.loc 1 756 12 view .LVU553
 1475 0004 1968     		ldr	r1, [r3]
 1476              	.LVL77:
 757:Drivers/STM32WBxx_HAL_Driver/Src/stm32wbxx_hal_dma.c **** 
 1477              		.loc 1 757 3 is_stmt 1 view .LVU554
 757:Drivers/STM32WBxx_HAL_Driver/Src/stm32wbxx_hal_dma.c **** 
 1478              		.loc 1 757 28 is_stmt 0 view .LVU555
 1479 0006 0468     		ldr	r4, [r0]
 757:Drivers/STM32WBxx_HAL_Driver/Src/stm32wbxx_hal_dma.c **** 
 1480              		.loc 1 757 12 view .LVU556
 1481 0008 2568     		ldr	r5, [r4]
 1482              	.LVL78:
 760:Drivers/STM32WBxx_HAL_Driver/Src/stm32wbxx_hal_dma.c ****   {
 1483              		.loc 1 760 3 is_stmt 1 view .LVU557
 760:Drivers/STM32WBxx_HAL_Driver/Src/stm32wbxx_hal_dma.c ****   {
 1484              		.loc 1 760 41 is_stmt 0 view .LVU558
 1485 000a 436C     		ldr	r3, [r0, #68]
 760:Drivers/STM32WBxx_HAL_Driver/Src/stm32wbxx_hal_dma.c ****   {
 1486              		.loc 1 760 56 view .LVU559
 1487 000c 03F01C03 		and	r3, r3, #28
 760:Drivers/STM32WBxx_HAL_Driver/Src/stm32wbxx_hal_dma.c ****   {
 1488              		.loc 1 760 33 view .LVU560
 1489 0010 0422     		movs	r2, #4
 1490 0012 9A40     		lsls	r2, r2, r3
 760:Drivers/STM32WBxx_HAL_Driver/Src/stm32wbxx_hal_dma.c ****   {
 1491              		.loc 1 760 6 view .LVU561
 1492 0014 0A42     		tst	r2, r1
 1493 0016 15D0     		beq	.L90
 760:Drivers/STM32WBxx_HAL_Driver/Src/stm32wbxx_hal_dma.c ****   {
 1494              		.loc 1 760 74 discriminator 1 view .LVU562
 1495 0018 15F0040F 		tst	r5, #4
 1496 001c 12D0     		beq	.L90
 763:Drivers/STM32WBxx_HAL_Driver/Src/stm32wbxx_hal_dma.c ****     {
ARM GAS  C:\Users\Nathan\AppData\Local\Temp\ccwtEZa1.s 			page 55


 1497              		.loc 1 763 5 is_stmt 1 view .LVU563
 763:Drivers/STM32WBxx_HAL_Driver/Src/stm32wbxx_hal_dma.c ****     {
 1498              		.loc 1 763 24 is_stmt 0 view .LVU564
 1499 001e 2368     		ldr	r3, [r4]
 763:Drivers/STM32WBxx_HAL_Driver/Src/stm32wbxx_hal_dma.c ****     {
 1500              		.loc 1 763 8 view .LVU565
 1501 0020 13F0200F 		tst	r3, #32
 1502 0024 03D1     		bne	.L91
 766:Drivers/STM32WBxx_HAL_Driver/Src/stm32wbxx_hal_dma.c ****     }
 1503              		.loc 1 766 7 is_stmt 1 view .LVU566
 1504 0026 2368     		ldr	r3, [r4]
 1505 0028 23F00403 		bic	r3, r3, #4
 1506 002c 2360     		str	r3, [r4]
 1507              	.L91:
 769:Drivers/STM32WBxx_HAL_Driver/Src/stm32wbxx_hal_dma.c **** 
 1508              		.loc 1 769 5 view .LVU567
 769:Drivers/STM32WBxx_HAL_Driver/Src/stm32wbxx_hal_dma.c **** 
 1509              		.loc 1 769 57 is_stmt 0 view .LVU568
 1510 002e 436C     		ldr	r3, [r0, #68]
 769:Drivers/STM32WBxx_HAL_Driver/Src/stm32wbxx_hal_dma.c **** 
 1511              		.loc 1 769 72 view .LVU569
 1512 0030 03F01C02 		and	r2, r3, #28
 769:Drivers/STM32WBxx_HAL_Driver/Src/stm32wbxx_hal_dma.c **** 
 1513              		.loc 1 769 9 view .LVU570
 1514 0034 016C     		ldr	r1, [r0, #64]
 1515              	.LVL79:
 769:Drivers/STM32WBxx_HAL_Driver/Src/stm32wbxx_hal_dma.c **** 
 1516              		.loc 1 769 49 view .LVU571
 1517 0036 0423     		movs	r3, #4
 1518 0038 9340     		lsls	r3, r3, r2
 769:Drivers/STM32WBxx_HAL_Driver/Src/stm32wbxx_hal_dma.c **** 
 1519              		.loc 1 769 32 view .LVU572
 1520 003a 4B60     		str	r3, [r1, #4]
 774:Drivers/STM32WBxx_HAL_Driver/Src/stm32wbxx_hal_dma.c ****     {
 1521              		.loc 1 774 5 is_stmt 1 view .LVU573
 774:Drivers/STM32WBxx_HAL_Driver/Src/stm32wbxx_hal_dma.c ****     {
 1522              		.loc 1 774 13 is_stmt 0 view .LVU574
 1523 003c 036B     		ldr	r3, [r0, #48]
 774:Drivers/STM32WBxx_HAL_Driver/Src/stm32wbxx_hal_dma.c ****     {
 1524              		.loc 1 774 8 view .LVU575
 1525 003e 03B1     		cbz	r3, .L89
 777:Drivers/STM32WBxx_HAL_Driver/Src/stm32wbxx_hal_dma.c ****     }
 1526              		.loc 1 777 7 is_stmt 1 view .LVU576
 1527 0040 9847     		blx	r3
 1528              	.LVL80:
 1529              	.L89:
 836:Drivers/STM32WBxx_HAL_Driver/Src/stm32wbxx_hal_dma.c **** 
 1530              		.loc 1 836 1 is_stmt 0 view .LVU577
 1531 0042 38BD     		pop	{r3, r4, r5, pc}
 1532              	.LVL81:
 1533              	.L90:
 782:Drivers/STM32WBxx_HAL_Driver/Src/stm32wbxx_hal_dma.c ****   {
 1534              		.loc 1 782 8 is_stmt 1 view .LVU578
 782:Drivers/STM32WBxx_HAL_Driver/Src/stm32wbxx_hal_dma.c ****   {
 1535              		.loc 1 782 38 is_stmt 0 view .LVU579
 1536 0044 0222     		movs	r2, #2
 1537 0046 9A40     		lsls	r2, r2, r3
ARM GAS  C:\Users\Nathan\AppData\Local\Temp\ccwtEZa1.s 			page 56


 782:Drivers/STM32WBxx_HAL_Driver/Src/stm32wbxx_hal_dma.c ****   {
 1538              		.loc 1 782 11 view .LVU580
 1539 0048 0A42     		tst	r2, r1
 1540 004a 1CD0     		beq	.L93
 782:Drivers/STM32WBxx_HAL_Driver/Src/stm32wbxx_hal_dma.c ****   {
 1541              		.loc 1 782 79 discriminator 1 view .LVU581
 1542 004c 15F0020F 		tst	r5, #2
 1543 0050 19D0     		beq	.L93
 784:Drivers/STM32WBxx_HAL_Driver/Src/stm32wbxx_hal_dma.c ****     {
 1544              		.loc 1 784 5 is_stmt 1 view .LVU582
 784:Drivers/STM32WBxx_HAL_Driver/Src/stm32wbxx_hal_dma.c ****     {
 1545              		.loc 1 784 24 is_stmt 0 view .LVU583
 1546 0052 2368     		ldr	r3, [r4]
 784:Drivers/STM32WBxx_HAL_Driver/Src/stm32wbxx_hal_dma.c ****     {
 1547              		.loc 1 784 8 view .LVU584
 1548 0054 13F0200F 		tst	r3, #32
 1549 0058 06D1     		bne	.L94
 787:Drivers/STM32WBxx_HAL_Driver/Src/stm32wbxx_hal_dma.c **** 
 1550              		.loc 1 787 7 is_stmt 1 view .LVU585
 1551 005a 2368     		ldr	r3, [r4]
 1552 005c 23F00A03 		bic	r3, r3, #10
 1553 0060 2360     		str	r3, [r4]
 790:Drivers/STM32WBxx_HAL_Driver/Src/stm32wbxx_hal_dma.c ****     }
 1554              		.loc 1 790 7 view .LVU586
 790:Drivers/STM32WBxx_HAL_Driver/Src/stm32wbxx_hal_dma.c ****     }
 1555              		.loc 1 790 19 is_stmt 0 view .LVU587
 1556 0062 0123     		movs	r3, #1
 1557 0064 80F82530 		strb	r3, [r0, #37]
 1558              	.L94:
 793:Drivers/STM32WBxx_HAL_Driver/Src/stm32wbxx_hal_dma.c **** 
 1559              		.loc 1 793 5 is_stmt 1 view .LVU588
 793:Drivers/STM32WBxx_HAL_Driver/Src/stm32wbxx_hal_dma.c **** 
 1560              		.loc 1 793 57 is_stmt 0 view .LVU589
 1561 0068 436C     		ldr	r3, [r0, #68]
 793:Drivers/STM32WBxx_HAL_Driver/Src/stm32wbxx_hal_dma.c **** 
 1562              		.loc 1 793 72 view .LVU590
 1563 006a 03F01C02 		and	r2, r3, #28
 793:Drivers/STM32WBxx_HAL_Driver/Src/stm32wbxx_hal_dma.c **** 
 1564              		.loc 1 793 9 view .LVU591
 1565 006e 016C     		ldr	r1, [r0, #64]
 1566              	.LVL82:
 793:Drivers/STM32WBxx_HAL_Driver/Src/stm32wbxx_hal_dma.c **** 
 1567              		.loc 1 793 49 view .LVU592
 1568 0070 0223     		movs	r3, #2
 1569 0072 9340     		lsls	r3, r3, r2
 793:Drivers/STM32WBxx_HAL_Driver/Src/stm32wbxx_hal_dma.c **** 
 1570              		.loc 1 793 32 view .LVU593
 1571 0074 4B60     		str	r3, [r1, #4]
 796:Drivers/STM32WBxx_HAL_Driver/Src/stm32wbxx_hal_dma.c **** 
 1572              		.loc 1 796 5 is_stmt 1 view .LVU594
 796:Drivers/STM32WBxx_HAL_Driver/Src/stm32wbxx_hal_dma.c **** 
 1573              		.loc 1 796 5 view .LVU595
 1574 0076 0023     		movs	r3, #0
 1575 0078 80F82430 		strb	r3, [r0, #36]
 796:Drivers/STM32WBxx_HAL_Driver/Src/stm32wbxx_hal_dma.c **** 
 1576              		.loc 1 796 5 view .LVU596
 798:Drivers/STM32WBxx_HAL_Driver/Src/stm32wbxx_hal_dma.c ****     {
ARM GAS  C:\Users\Nathan\AppData\Local\Temp\ccwtEZa1.s 			page 57


 1577              		.loc 1 798 5 view .LVU597
 798:Drivers/STM32WBxx_HAL_Driver/Src/stm32wbxx_hal_dma.c ****     {
 1578              		.loc 1 798 13 is_stmt 0 view .LVU598
 1579 007c C36A     		ldr	r3, [r0, #44]
 798:Drivers/STM32WBxx_HAL_Driver/Src/stm32wbxx_hal_dma.c ****     {
 1580              		.loc 1 798 8 view .LVU599
 1581 007e 002B     		cmp	r3, #0
 1582 0080 DFD0     		beq	.L89
 801:Drivers/STM32WBxx_HAL_Driver/Src/stm32wbxx_hal_dma.c ****     }
 1583              		.loc 1 801 7 is_stmt 1 view .LVU600
 1584 0082 9847     		blx	r3
 1585              	.LVL83:
 801:Drivers/STM32WBxx_HAL_Driver/Src/stm32wbxx_hal_dma.c ****     }
 1586              		.loc 1 801 7 is_stmt 0 view .LVU601
 1587 0084 DDE7     		b	.L89
 1588              	.LVL84:
 1589              	.L93:
 806:Drivers/STM32WBxx_HAL_Driver/Src/stm32wbxx_hal_dma.c ****   {
 1590              		.loc 1 806 8 is_stmt 1 view .LVU602
 806:Drivers/STM32WBxx_HAL_Driver/Src/stm32wbxx_hal_dma.c ****   {
 1591              		.loc 1 806 38 is_stmt 0 view .LVU603
 1592 0086 0822     		movs	r2, #8
 1593 0088 02FA03F3 		lsl	r3, r2, r3
 806:Drivers/STM32WBxx_HAL_Driver/Src/stm32wbxx_hal_dma.c ****   {
 1594              		.loc 1 806 11 view .LVU604
 1595 008c 0B42     		tst	r3, r1
 1596 008e D8D0     		beq	.L89
 806:Drivers/STM32WBxx_HAL_Driver/Src/stm32wbxx_hal_dma.c ****   {
 1597              		.loc 1 806 79 discriminator 1 view .LVU605
 1598 0090 15F0080F 		tst	r5, #8
 1599 0094 D5D0     		beq	.L89
 811:Drivers/STM32WBxx_HAL_Driver/Src/stm32wbxx_hal_dma.c **** 
 1600              		.loc 1 811 5 is_stmt 1 view .LVU606
 1601 0096 2368     		ldr	r3, [r4]
 1602 0098 23F00E03 		bic	r3, r3, #14
 1603 009c 2360     		str	r3, [r4]
 814:Drivers/STM32WBxx_HAL_Driver/Src/stm32wbxx_hal_dma.c **** 
 1604              		.loc 1 814 5 view .LVU607
 814:Drivers/STM32WBxx_HAL_Driver/Src/stm32wbxx_hal_dma.c **** 
 1605              		.loc 1 814 56 is_stmt 0 view .LVU608
 1606 009e 436C     		ldr	r3, [r0, #68]
 814:Drivers/STM32WBxx_HAL_Driver/Src/stm32wbxx_hal_dma.c **** 
 1607              		.loc 1 814 71 view .LVU609
 1608 00a0 03F01C03 		and	r3, r3, #28
 814:Drivers/STM32WBxx_HAL_Driver/Src/stm32wbxx_hal_dma.c **** 
 1609              		.loc 1 814 9 view .LVU610
 1610 00a4 016C     		ldr	r1, [r0, #64]
 1611              	.LVL85:
 814:Drivers/STM32WBxx_HAL_Driver/Src/stm32wbxx_hal_dma.c **** 
 1612              		.loc 1 814 48 view .LVU611
 1613 00a6 0122     		movs	r2, #1
 1614 00a8 02FA03F3 		lsl	r3, r2, r3
 814:Drivers/STM32WBxx_HAL_Driver/Src/stm32wbxx_hal_dma.c **** 
 1615              		.loc 1 814 32 view .LVU612
 1616 00ac 4B60     		str	r3, [r1, #4]
 817:Drivers/STM32WBxx_HAL_Driver/Src/stm32wbxx_hal_dma.c **** 
 1617              		.loc 1 817 5 is_stmt 1 view .LVU613
ARM GAS  C:\Users\Nathan\AppData\Local\Temp\ccwtEZa1.s 			page 58


 817:Drivers/STM32WBxx_HAL_Driver/Src/stm32wbxx_hal_dma.c **** 
 1618              		.loc 1 817 21 is_stmt 0 view .LVU614
 1619 00ae C263     		str	r2, [r0, #60]
 820:Drivers/STM32WBxx_HAL_Driver/Src/stm32wbxx_hal_dma.c **** 
 1620              		.loc 1 820 5 is_stmt 1 view .LVU615
 820:Drivers/STM32WBxx_HAL_Driver/Src/stm32wbxx_hal_dma.c **** 
 1621              		.loc 1 820 17 is_stmt 0 view .LVU616
 1622 00b0 80F82520 		strb	r2, [r0, #37]
 823:Drivers/STM32WBxx_HAL_Driver/Src/stm32wbxx_hal_dma.c **** 
 1623              		.loc 1 823 5 is_stmt 1 view .LVU617
 823:Drivers/STM32WBxx_HAL_Driver/Src/stm32wbxx_hal_dma.c **** 
 1624              		.loc 1 823 5 view .LVU618
 1625 00b4 0023     		movs	r3, #0
 1626 00b6 80F82430 		strb	r3, [r0, #36]
 823:Drivers/STM32WBxx_HAL_Driver/Src/stm32wbxx_hal_dma.c **** 
 1627              		.loc 1 823 5 view .LVU619
 825:Drivers/STM32WBxx_HAL_Driver/Src/stm32wbxx_hal_dma.c ****     {
 1628              		.loc 1 825 5 view .LVU620
 825:Drivers/STM32WBxx_HAL_Driver/Src/stm32wbxx_hal_dma.c ****     {
 1629              		.loc 1 825 13 is_stmt 0 view .LVU621
 1630 00ba 436B     		ldr	r3, [r0, #52]
 825:Drivers/STM32WBxx_HAL_Driver/Src/stm32wbxx_hal_dma.c ****     {
 1631              		.loc 1 825 8 view .LVU622
 1632 00bc 002B     		cmp	r3, #0
 1633 00be C0D0     		beq	.L89
 828:Drivers/STM32WBxx_HAL_Driver/Src/stm32wbxx_hal_dma.c ****     }
 1634              		.loc 1 828 7 is_stmt 1 view .LVU623
 1635 00c0 9847     		blx	r3
 1636              	.LVL86:
 834:Drivers/STM32WBxx_HAL_Driver/Src/stm32wbxx_hal_dma.c ****   return;
 1637              		.loc 1 834 3 view .LVU624
 835:Drivers/STM32WBxx_HAL_Driver/Src/stm32wbxx_hal_dma.c **** }
 1638              		.loc 1 835 3 view .LVU625
 1639 00c2 BEE7     		b	.L89
 1640              		.cfi_endproc
 1641              	.LFE1111:
 1643              		.section	.text.HAL_DMA_RegisterCallback,"ax",%progbits
 1644              		.align	1
 1645              		.global	HAL_DMA_RegisterCallback
 1646              		.syntax unified
 1647              		.thumb
 1648              		.thumb_func
 1650              	HAL_DMA_RegisterCallback:
 1651              	.LVL87:
 1652              	.LFB1112:
 849:Drivers/STM32WBxx_HAL_Driver/Src/stm32wbxx_hal_dma.c ****   HAL_StatusTypeDef status = HAL_OK;
 1653              		.loc 1 849 1 view -0
 1654              		.cfi_startproc
 1655              		@ args = 0, pretend = 0, frame = 0
 1656              		@ frame_needed = 0, uses_anonymous_args = 0
 1657              		@ link register save eliminated.
 849:Drivers/STM32WBxx_HAL_Driver/Src/stm32wbxx_hal_dma.c ****   HAL_StatusTypeDef status = HAL_OK;
 1658              		.loc 1 849 1 is_stmt 0 view .LVU627
 1659 0000 0346     		mov	r3, r0
 850:Drivers/STM32WBxx_HAL_Driver/Src/stm32wbxx_hal_dma.c **** 
 1660              		.loc 1 850 3 is_stmt 1 view .LVU628
 1661              	.LVL88:
ARM GAS  C:\Users\Nathan\AppData\Local\Temp\ccwtEZa1.s 			page 59


 853:Drivers/STM32WBxx_HAL_Driver/Src/stm32wbxx_hal_dma.c **** 
 1662              		.loc 1 853 3 view .LVU629
 853:Drivers/STM32WBxx_HAL_Driver/Src/stm32wbxx_hal_dma.c **** 
 1663              		.loc 1 853 3 view .LVU630
 1664 0002 90F82400 		ldrb	r0, [r0, #36]	@ zero_extendqisi2
 1665              	.LVL89:
 853:Drivers/STM32WBxx_HAL_Driver/Src/stm32wbxx_hal_dma.c **** 
 1666              		.loc 1 853 3 is_stmt 0 view .LVU631
 1667 0006 0128     		cmp	r0, #1
 1668 0008 1ED0     		beq	.L104
 853:Drivers/STM32WBxx_HAL_Driver/Src/stm32wbxx_hal_dma.c **** 
 1669              		.loc 1 853 3 is_stmt 1 discriminator 2 view .LVU632
 1670 000a 0120     		movs	r0, #1
 1671 000c 83F82400 		strb	r0, [r3, #36]
 853:Drivers/STM32WBxx_HAL_Driver/Src/stm32wbxx_hal_dma.c **** 
 1672              		.loc 1 853 3 discriminator 2 view .LVU633
 855:Drivers/STM32WBxx_HAL_Driver/Src/stm32wbxx_hal_dma.c ****   {
 1673              		.loc 1 855 3 view .LVU634
 855:Drivers/STM32WBxx_HAL_Driver/Src/stm32wbxx_hal_dma.c ****   {
 1674              		.loc 1 855 34 is_stmt 0 view .LVU635
 1675 0010 93F82500 		ldrb	r0, [r3, #37]	@ zero_extendqisi2
 1676 0014 C0B2     		uxtb	r0, r0
 855:Drivers/STM32WBxx_HAL_Driver/Src/stm32wbxx_hal_dma.c ****   {
 1677              		.loc 1 855 6 view .LVU636
 1678 0016 0128     		cmp	r0, #1
 1679 0018 04D0     		beq	.L107
 882:Drivers/STM32WBxx_HAL_Driver/Src/stm32wbxx_hal_dma.c ****   }
 1680              		.loc 1 882 12 view .LVU637
 1681 001a 0120     		movs	r0, #1
 1682              	.L98:
 1683              	.LVL90:
 886:Drivers/STM32WBxx_HAL_Driver/Src/stm32wbxx_hal_dma.c **** 
 1684              		.loc 1 886 3 is_stmt 1 view .LVU638
 886:Drivers/STM32WBxx_HAL_Driver/Src/stm32wbxx_hal_dma.c **** 
 1685              		.loc 1 886 3 view .LVU639
 1686 001c 0022     		movs	r2, #0
 1687              	.LVL91:
 886:Drivers/STM32WBxx_HAL_Driver/Src/stm32wbxx_hal_dma.c **** 
 1688              		.loc 1 886 3 is_stmt 0 view .LVU640
 1689 001e 83F82420 		strb	r2, [r3, #36]
 886:Drivers/STM32WBxx_HAL_Driver/Src/stm32wbxx_hal_dma.c **** 
 1690              		.loc 1 886 3 is_stmt 1 view .LVU641
 888:Drivers/STM32WBxx_HAL_Driver/Src/stm32wbxx_hal_dma.c **** }
 1691              		.loc 1 888 3 view .LVU642
 888:Drivers/STM32WBxx_HAL_Driver/Src/stm32wbxx_hal_dma.c **** }
 1692              		.loc 1 888 10 is_stmt 0 view .LVU643
 1693 0022 7047     		bx	lr
 1694              	.LVL92:
 1695              	.L107:
 857:Drivers/STM32WBxx_HAL_Driver/Src/stm32wbxx_hal_dma.c ****     {
 1696              		.loc 1 857 5 is_stmt 1 view .LVU644
 1697 0024 0329     		cmp	r1, #3
 1698 0026 F9D8     		bhi	.L98
 1699 0028 DFE801F0 		tbb	[pc, r1]
 1700              	.L100:
 1701 002c 02       		.byte	(.L103-.L100)/2
 1702 002d 05       		.byte	(.L102-.L100)/2
ARM GAS  C:\Users\Nathan\AppData\Local\Temp\ccwtEZa1.s 			page 60


 1703 002e 08       		.byte	(.L101-.L100)/2
 1704 002f 0B       		.byte	(.L99-.L100)/2
 1705              		.p2align 1
 1706              	.L103:
 860:Drivers/STM32WBxx_HAL_Driver/Src/stm32wbxx_hal_dma.c ****         break;
 1707              		.loc 1 860 9 view .LVU645
 860:Drivers/STM32WBxx_HAL_Driver/Src/stm32wbxx_hal_dma.c ****         break;
 1708              		.loc 1 860 32 is_stmt 0 view .LVU646
 1709 0030 DA62     		str	r2, [r3, #44]
 861:Drivers/STM32WBxx_HAL_Driver/Src/stm32wbxx_hal_dma.c **** 
 1710              		.loc 1 861 9 is_stmt 1 view .LVU647
 850:Drivers/STM32WBxx_HAL_Driver/Src/stm32wbxx_hal_dma.c **** 
 1711              		.loc 1 850 21 is_stmt 0 view .LVU648
 1712 0032 0846     		mov	r0, r1
 861:Drivers/STM32WBxx_HAL_Driver/Src/stm32wbxx_hal_dma.c **** 
 1713              		.loc 1 861 9 view .LVU649
 1714 0034 F2E7     		b	.L98
 1715              	.L102:
 864:Drivers/STM32WBxx_HAL_Driver/Src/stm32wbxx_hal_dma.c ****         break;
 1716              		.loc 1 864 9 is_stmt 1 view .LVU650
 864:Drivers/STM32WBxx_HAL_Driver/Src/stm32wbxx_hal_dma.c ****         break;
 1717              		.loc 1 864 36 is_stmt 0 view .LVU651
 1718 0036 1A63     		str	r2, [r3, #48]
 865:Drivers/STM32WBxx_HAL_Driver/Src/stm32wbxx_hal_dma.c **** 
 1719              		.loc 1 865 9 is_stmt 1 view .LVU652
 850:Drivers/STM32WBxx_HAL_Driver/Src/stm32wbxx_hal_dma.c **** 
 1720              		.loc 1 850 21 is_stmt 0 view .LVU653
 1721 0038 0020     		movs	r0, #0
 865:Drivers/STM32WBxx_HAL_Driver/Src/stm32wbxx_hal_dma.c **** 
 1722              		.loc 1 865 9 view .LVU654
 1723 003a EFE7     		b	.L98
 1724              	.L101:
 868:Drivers/STM32WBxx_HAL_Driver/Src/stm32wbxx_hal_dma.c ****         break;
 1725              		.loc 1 868 9 is_stmt 1 view .LVU655
 868:Drivers/STM32WBxx_HAL_Driver/Src/stm32wbxx_hal_dma.c ****         break;
 1726              		.loc 1 868 33 is_stmt 0 view .LVU656
 1727 003c 5A63     		str	r2, [r3, #52]
 869:Drivers/STM32WBxx_HAL_Driver/Src/stm32wbxx_hal_dma.c **** 
 1728              		.loc 1 869 9 is_stmt 1 view .LVU657
 850:Drivers/STM32WBxx_HAL_Driver/Src/stm32wbxx_hal_dma.c **** 
 1729              		.loc 1 850 21 is_stmt 0 view .LVU658
 1730 003e 0020     		movs	r0, #0
 869:Drivers/STM32WBxx_HAL_Driver/Src/stm32wbxx_hal_dma.c **** 
 1731              		.loc 1 869 9 view .LVU659
 1732 0040 ECE7     		b	.L98
 1733              	.L99:
 872:Drivers/STM32WBxx_HAL_Driver/Src/stm32wbxx_hal_dma.c ****         break;
 1734              		.loc 1 872 9 is_stmt 1 view .LVU660
 872:Drivers/STM32WBxx_HAL_Driver/Src/stm32wbxx_hal_dma.c ****         break;
 1735              		.loc 1 872 33 is_stmt 0 view .LVU661
 1736 0042 9A63     		str	r2, [r3, #56]
 873:Drivers/STM32WBxx_HAL_Driver/Src/stm32wbxx_hal_dma.c **** 
 1737              		.loc 1 873 9 is_stmt 1 view .LVU662
 850:Drivers/STM32WBxx_HAL_Driver/Src/stm32wbxx_hal_dma.c **** 
 1738              		.loc 1 850 21 is_stmt 0 view .LVU663
 1739 0044 0020     		movs	r0, #0
 873:Drivers/STM32WBxx_HAL_Driver/Src/stm32wbxx_hal_dma.c **** 
ARM GAS  C:\Users\Nathan\AppData\Local\Temp\ccwtEZa1.s 			page 61


 1740              		.loc 1 873 9 view .LVU664
 1741 0046 E9E7     		b	.L98
 1742              	.L104:
 853:Drivers/STM32WBxx_HAL_Driver/Src/stm32wbxx_hal_dma.c **** 
 1743              		.loc 1 853 3 discriminator 1 view .LVU665
 1744 0048 0220     		movs	r0, #2
 889:Drivers/STM32WBxx_HAL_Driver/Src/stm32wbxx_hal_dma.c **** 
 1745              		.loc 1 889 1 view .LVU666
 1746 004a 7047     		bx	lr
 1747              		.cfi_endproc
 1748              	.LFE1112:
 1750              		.section	.text.HAL_DMA_UnRegisterCallback,"ax",%progbits
 1751              		.align	1
 1752              		.global	HAL_DMA_UnRegisterCallback
 1753              		.syntax unified
 1754              		.thumb
 1755              		.thumb_func
 1757              	HAL_DMA_UnRegisterCallback:
 1758              	.LVL93:
 1759              	.LFB1113:
 900:Drivers/STM32WBxx_HAL_Driver/Src/stm32wbxx_hal_dma.c ****   HAL_StatusTypeDef status = HAL_OK;
 1760              		.loc 1 900 1 is_stmt 1 view -0
 1761              		.cfi_startproc
 1762              		@ args = 0, pretend = 0, frame = 0
 1763              		@ frame_needed = 0, uses_anonymous_args = 0
 1764              		@ link register save eliminated.
 900:Drivers/STM32WBxx_HAL_Driver/Src/stm32wbxx_hal_dma.c ****   HAL_StatusTypeDef status = HAL_OK;
 1765              		.loc 1 900 1 is_stmt 0 view .LVU668
 1766 0000 0346     		mov	r3, r0
 901:Drivers/STM32WBxx_HAL_Driver/Src/stm32wbxx_hal_dma.c **** 
 1767              		.loc 1 901 3 is_stmt 1 view .LVU669
 1768              	.LVL94:
 904:Drivers/STM32WBxx_HAL_Driver/Src/stm32wbxx_hal_dma.c **** 
 1769              		.loc 1 904 3 view .LVU670
 904:Drivers/STM32WBxx_HAL_Driver/Src/stm32wbxx_hal_dma.c **** 
 1770              		.loc 1 904 3 view .LVU671
 1771 0002 90F82420 		ldrb	r2, [r0, #36]	@ zero_extendqisi2
 1772 0006 012A     		cmp	r2, #1
 1773 0008 26D0     		beq	.L117
 904:Drivers/STM32WBxx_HAL_Driver/Src/stm32wbxx_hal_dma.c **** 
 1774              		.loc 1 904 3 discriminator 2 view .LVU672
 1775 000a 0122     		movs	r2, #1
 1776 000c 80F82420 		strb	r2, [r0, #36]
 904:Drivers/STM32WBxx_HAL_Driver/Src/stm32wbxx_hal_dma.c **** 
 1777              		.loc 1 904 3 discriminator 2 view .LVU673
 906:Drivers/STM32WBxx_HAL_Driver/Src/stm32wbxx_hal_dma.c ****   {
 1778              		.loc 1 906 3 view .LVU674
 906:Drivers/STM32WBxx_HAL_Driver/Src/stm32wbxx_hal_dma.c ****   {
 1779              		.loc 1 906 34 is_stmt 0 view .LVU675
 1780 0010 90F82500 		ldrb	r0, [r0, #37]	@ zero_extendqisi2
 1781              	.LVL95:
 906:Drivers/STM32WBxx_HAL_Driver/Src/stm32wbxx_hal_dma.c ****   {
 1782              		.loc 1 906 34 view .LVU676
 1783 0014 C0B2     		uxtb	r0, r0
 906:Drivers/STM32WBxx_HAL_Driver/Src/stm32wbxx_hal_dma.c ****   {
 1784              		.loc 1 906 6 view .LVU677
 1785 0016 9042     		cmp	r0, r2
ARM GAS  C:\Users\Nathan\AppData\Local\Temp\ccwtEZa1.s 			page 62


 1786 0018 04D0     		beq	.L120
 940:Drivers/STM32WBxx_HAL_Driver/Src/stm32wbxx_hal_dma.c ****   }
 1787              		.loc 1 940 12 view .LVU678
 1788 001a 0120     		movs	r0, #1
 1789              	.L110:
 1790              	.LVL96:
 944:Drivers/STM32WBxx_HAL_Driver/Src/stm32wbxx_hal_dma.c **** 
 1791              		.loc 1 944 3 is_stmt 1 view .LVU679
 944:Drivers/STM32WBxx_HAL_Driver/Src/stm32wbxx_hal_dma.c **** 
 1792              		.loc 1 944 3 view .LVU680
 1793 001c 0022     		movs	r2, #0
 1794 001e 83F82420 		strb	r2, [r3, #36]
 944:Drivers/STM32WBxx_HAL_Driver/Src/stm32wbxx_hal_dma.c **** 
 1795              		.loc 1 944 3 view .LVU681
 946:Drivers/STM32WBxx_HAL_Driver/Src/stm32wbxx_hal_dma.c **** }
 1796              		.loc 1 946 3 view .LVU682
 946:Drivers/STM32WBxx_HAL_Driver/Src/stm32wbxx_hal_dma.c **** }
 1797              		.loc 1 946 10 is_stmt 0 view .LVU683
 1798 0022 7047     		bx	lr
 1799              	.LVL97:
 1800              	.L120:
 908:Drivers/STM32WBxx_HAL_Driver/Src/stm32wbxx_hal_dma.c ****     {
 1801              		.loc 1 908 5 is_stmt 1 view .LVU684
 1802 0024 0429     		cmp	r1, #4
 1803 0026 F9D8     		bhi	.L110
 1804 0028 DFE801F0 		tbb	[pc, r1]
 1805              	.L112:
 1806 002c 03       		.byte	(.L116-.L112)/2
 1807 002d 07       		.byte	(.L115-.L112)/2
 1808 002e 0A       		.byte	(.L114-.L112)/2
 1809 002f 0D       		.byte	(.L113-.L112)/2
 1810 0030 10       		.byte	(.L111-.L112)/2
 1811 0031 00       		.p2align 1
 1812              	.L116:
 911:Drivers/STM32WBxx_HAL_Driver/Src/stm32wbxx_hal_dma.c ****         break;
 1813              		.loc 1 911 9 view .LVU685
 911:Drivers/STM32WBxx_HAL_Driver/Src/stm32wbxx_hal_dma.c ****         break;
 1814              		.loc 1 911 32 is_stmt 0 view .LVU686
 1815 0032 0022     		movs	r2, #0
 1816 0034 DA62     		str	r2, [r3, #44]
 912:Drivers/STM32WBxx_HAL_Driver/Src/stm32wbxx_hal_dma.c **** 
 1817              		.loc 1 912 9 is_stmt 1 view .LVU687
 901:Drivers/STM32WBxx_HAL_Driver/Src/stm32wbxx_hal_dma.c **** 
 1818              		.loc 1 901 21 is_stmt 0 view .LVU688
 1819 0036 0846     		mov	r0, r1
 912:Drivers/STM32WBxx_HAL_Driver/Src/stm32wbxx_hal_dma.c **** 
 1820              		.loc 1 912 9 view .LVU689
 1821 0038 F0E7     		b	.L110
 1822              	.L115:
 915:Drivers/STM32WBxx_HAL_Driver/Src/stm32wbxx_hal_dma.c ****         break;
 1823              		.loc 1 915 9 is_stmt 1 view .LVU690
 915:Drivers/STM32WBxx_HAL_Driver/Src/stm32wbxx_hal_dma.c ****         break;
 1824              		.loc 1 915 36 is_stmt 0 view .LVU691
 1825 003a 0020     		movs	r0, #0
 1826 003c 1863     		str	r0, [r3, #48]
 916:Drivers/STM32WBxx_HAL_Driver/Src/stm32wbxx_hal_dma.c **** 
 1827              		.loc 1 916 9 is_stmt 1 view .LVU692
ARM GAS  C:\Users\Nathan\AppData\Local\Temp\ccwtEZa1.s 			page 63


 1828 003e EDE7     		b	.L110
 1829              	.L114:
 919:Drivers/STM32WBxx_HAL_Driver/Src/stm32wbxx_hal_dma.c ****         break;
 1830              		.loc 1 919 9 view .LVU693
 919:Drivers/STM32WBxx_HAL_Driver/Src/stm32wbxx_hal_dma.c ****         break;
 1831              		.loc 1 919 33 is_stmt 0 view .LVU694
 1832 0040 0020     		movs	r0, #0
 1833 0042 5863     		str	r0, [r3, #52]
 920:Drivers/STM32WBxx_HAL_Driver/Src/stm32wbxx_hal_dma.c **** 
 1834              		.loc 1 920 9 is_stmt 1 view .LVU695
 1835 0044 EAE7     		b	.L110
 1836              	.L113:
 923:Drivers/STM32WBxx_HAL_Driver/Src/stm32wbxx_hal_dma.c ****         break;
 1837              		.loc 1 923 9 view .LVU696
 923:Drivers/STM32WBxx_HAL_Driver/Src/stm32wbxx_hal_dma.c ****         break;
 1838              		.loc 1 923 33 is_stmt 0 view .LVU697
 1839 0046 0020     		movs	r0, #0
 1840 0048 9863     		str	r0, [r3, #56]
 924:Drivers/STM32WBxx_HAL_Driver/Src/stm32wbxx_hal_dma.c **** 
 1841              		.loc 1 924 9 is_stmt 1 view .LVU698
 1842 004a E7E7     		b	.L110
 1843              	.L111:
 927:Drivers/STM32WBxx_HAL_Driver/Src/stm32wbxx_hal_dma.c ****         hdma->XferHalfCpltCallback = NULL;
 1844              		.loc 1 927 9 view .LVU699
 927:Drivers/STM32WBxx_HAL_Driver/Src/stm32wbxx_hal_dma.c ****         hdma->XferHalfCpltCallback = NULL;
 1845              		.loc 1 927 32 is_stmt 0 view .LVU700
 1846 004c 0020     		movs	r0, #0
 1847 004e D862     		str	r0, [r3, #44]
 928:Drivers/STM32WBxx_HAL_Driver/Src/stm32wbxx_hal_dma.c ****         hdma->XferErrorCallback = NULL;
 1848              		.loc 1 928 9 is_stmt 1 view .LVU701
 928:Drivers/STM32WBxx_HAL_Driver/Src/stm32wbxx_hal_dma.c ****         hdma->XferErrorCallback = NULL;
 1849              		.loc 1 928 36 is_stmt 0 view .LVU702
 1850 0050 1863     		str	r0, [r3, #48]
 929:Drivers/STM32WBxx_HAL_Driver/Src/stm32wbxx_hal_dma.c ****         hdma->XferAbortCallback = NULL;
 1851              		.loc 1 929 9 is_stmt 1 view .LVU703
 929:Drivers/STM32WBxx_HAL_Driver/Src/stm32wbxx_hal_dma.c ****         hdma->XferAbortCallback = NULL;
 1852              		.loc 1 929 33 is_stmt 0 view .LVU704
 1853 0052 5863     		str	r0, [r3, #52]
 930:Drivers/STM32WBxx_HAL_Driver/Src/stm32wbxx_hal_dma.c ****         break;
 1854              		.loc 1 930 9 is_stmt 1 view .LVU705
 930:Drivers/STM32WBxx_HAL_Driver/Src/stm32wbxx_hal_dma.c ****         break;
 1855              		.loc 1 930 33 is_stmt 0 view .LVU706
 1856 0054 9863     		str	r0, [r3, #56]
 931:Drivers/STM32WBxx_HAL_Driver/Src/stm32wbxx_hal_dma.c **** 
 1857              		.loc 1 931 9 is_stmt 1 view .LVU707
 1858 0056 E1E7     		b	.L110
 1859              	.LVL98:
 1860              	.L117:
 904:Drivers/STM32WBxx_HAL_Driver/Src/stm32wbxx_hal_dma.c **** 
 1861              		.loc 1 904 3 is_stmt 0 discriminator 1 view .LVU708
 1862 0058 0220     		movs	r0, #2
 1863              	.LVL99:
 947:Drivers/STM32WBxx_HAL_Driver/Src/stm32wbxx_hal_dma.c **** 
 1864              		.loc 1 947 1 view .LVU709
 1865 005a 7047     		bx	lr
 1866              		.cfi_endproc
 1867              	.LFE1113:
ARM GAS  C:\Users\Nathan\AppData\Local\Temp\ccwtEZa1.s 			page 64


 1869              		.section	.text.HAL_DMA_GetState,"ax",%progbits
 1870              		.align	1
 1871              		.global	HAL_DMA_GetState
 1872              		.syntax unified
 1873              		.thumb
 1874              		.thumb_func
 1876              	HAL_DMA_GetState:
 1877              	.LVL100:
 1878              	.LFB1114:
 978:Drivers/STM32WBxx_HAL_Driver/Src/stm32wbxx_hal_dma.c ****   /* Return DMA handle state */
 1879              		.loc 1 978 1 is_stmt 1 view -0
 1880              		.cfi_startproc
 1881              		@ args = 0, pretend = 0, frame = 0
 1882              		@ frame_needed = 0, uses_anonymous_args = 0
 1883              		@ link register save eliminated.
 980:Drivers/STM32WBxx_HAL_Driver/Src/stm32wbxx_hal_dma.c **** }
 1884              		.loc 1 980 3 view .LVU711
 980:Drivers/STM32WBxx_HAL_Driver/Src/stm32wbxx_hal_dma.c **** }
 1885              		.loc 1 980 14 is_stmt 0 view .LVU712
 1886 0000 90F82500 		ldrb	r0, [r0, #37]	@ zero_extendqisi2
 1887              	.LVL101:
 981:Drivers/STM32WBxx_HAL_Driver/Src/stm32wbxx_hal_dma.c **** 
 1888              		.loc 1 981 1 view .LVU713
 1889 0004 7047     		bx	lr
 1890              		.cfi_endproc
 1891              	.LFE1114:
 1893              		.section	.text.HAL_DMA_GetError,"ax",%progbits
 1894              		.align	1
 1895              		.global	HAL_DMA_GetError
 1896              		.syntax unified
 1897              		.thumb
 1898              		.thumb_func
 1900              	HAL_DMA_GetError:
 1901              	.LVL102:
 1902              	.LFB1115:
 990:Drivers/STM32WBxx_HAL_Driver/Src/stm32wbxx_hal_dma.c ****   return hdma->ErrorCode;
 1903              		.loc 1 990 1 is_stmt 1 view -0
 1904              		.cfi_startproc
 1905              		@ args = 0, pretend = 0, frame = 0
 1906              		@ frame_needed = 0, uses_anonymous_args = 0
 1907              		@ link register save eliminated.
 991:Drivers/STM32WBxx_HAL_Driver/Src/stm32wbxx_hal_dma.c **** }
 1908              		.loc 1 991 3 view .LVU715
 991:Drivers/STM32WBxx_HAL_Driver/Src/stm32wbxx_hal_dma.c **** }
 1909              		.loc 1 991 14 is_stmt 0 view .LVU716
 1910 0000 C06B     		ldr	r0, [r0, #60]
 1911              	.LVL103:
 992:Drivers/STM32WBxx_HAL_Driver/Src/stm32wbxx_hal_dma.c **** 
 1912              		.loc 1 992 1 view .LVU717
 1913 0002 7047     		bx	lr
 1914              		.cfi_endproc
 1915              	.LFE1115:
 1917              		.text
 1918              	.Letext0:
 1919              		.file 2 "C:/PROGRAM FILES (X86)/ARM GNU TOOLCHAIN ARM-NONE-EABI/13.3 REL1/arm-none-eabi/include/ma
 1920              		.file 3 "C:/PROGRAM FILES (X86)/ARM GNU TOOLCHAIN ARM-NONE-EABI/13.3 REL1/arm-none-eabi/include/sy
 1921              		.file 4 "Drivers/CMSIS/Device/ST/STM32WBxx/Include/stm32wb55xx.h"
ARM GAS  C:\Users\Nathan\AppData\Local\Temp\ccwtEZa1.s 			page 65


 1922              		.file 5 "Drivers/STM32WBxx_HAL_Driver/Inc/stm32wbxx_hal_def.h"
 1923              		.file 6 "Drivers/STM32WBxx_HAL_Driver/Inc/stm32wbxx_hal_dma.h"
 1924              		.file 7 "Drivers/STM32WBxx_HAL_Driver/Inc/stm32wbxx_hal.h"
ARM GAS  C:\Users\Nathan\AppData\Local\Temp\ccwtEZa1.s 			page 66


DEFINED SYMBOLS
                            *ABS*:00000000 stm32wbxx_hal_dma.c
C:\Users\Nathan\AppData\Local\Temp\ccwtEZa1.s:21     .text.DMA_SetConfig:00000000 $t
C:\Users\Nathan\AppData\Local\Temp\ccwtEZa1.s:26     .text.DMA_SetConfig:00000000 DMA_SetConfig
C:\Users\Nathan\AppData\Local\Temp\ccwtEZa1.s:118    .text.DMA_CalcDMAMUXChannelBaseAndMask:00000000 $t
C:\Users\Nathan\AppData\Local\Temp\ccwtEZa1.s:123    .text.DMA_CalcDMAMUXChannelBaseAndMask:00000000 DMA_CalcDMAMUXChannelBaseAndMask
C:\Users\Nathan\AppData\Local\Temp\ccwtEZa1.s:188    .text.DMA_CalcDMAMUXChannelBaseAndMask:00000044 $d
C:\Users\Nathan\AppData\Local\Temp\ccwtEZa1.s:196    .text.DMA_CalcDMAMUXRequestGenBaseAndMask:00000000 $t
C:\Users\Nathan\AppData\Local\Temp\ccwtEZa1.s:201    .text.DMA_CalcDMAMUXRequestGenBaseAndMask:00000000 DMA_CalcDMAMUXRequestGenBaseAndMask
C:\Users\Nathan\AppData\Local\Temp\ccwtEZa1.s:243    .text.DMA_CalcDMAMUXRequestGenBaseAndMask:00000024 $d
C:\Users\Nathan\AppData\Local\Temp\ccwtEZa1.s:249    .text.HAL_DMA_Init:00000000 $t
C:\Users\Nathan\AppData\Local\Temp\ccwtEZa1.s:255    .text.HAL_DMA_Init:00000000 HAL_DMA_Init
C:\Users\Nathan\AppData\Local\Temp\ccwtEZa1.s:470    .text.HAL_DMA_Init:000000c0 $d
C:\Users\Nathan\AppData\Local\Temp\ccwtEZa1.s:480    .text.HAL_DMA_DeInit:00000000 $t
C:\Users\Nathan\AppData\Local\Temp\ccwtEZa1.s:486    .text.HAL_DMA_DeInit:00000000 HAL_DMA_DeInit
C:\Users\Nathan\AppData\Local\Temp\ccwtEZa1.s:666    .text.HAL_DMA_DeInit:000000a0 $d
C:\Users\Nathan\AppData\Local\Temp\ccwtEZa1.s:676    .text.HAL_DMA_Start:00000000 $t
C:\Users\Nathan\AppData\Local\Temp\ccwtEZa1.s:682    .text.HAL_DMA_Start:00000000 HAL_DMA_Start
C:\Users\Nathan\AppData\Local\Temp\ccwtEZa1.s:769    .text.HAL_DMA_Start_IT:00000000 $t
C:\Users\Nathan\AppData\Local\Temp\ccwtEZa1.s:775    .text.HAL_DMA_Start_IT:00000000 HAL_DMA_Start_IT
C:\Users\Nathan\AppData\Local\Temp\ccwtEZa1.s:912    .text.HAL_DMA_Abort:00000000 $t
C:\Users\Nathan\AppData\Local\Temp\ccwtEZa1.s:918    .text.HAL_DMA_Abort:00000000 HAL_DMA_Abort
C:\Users\Nathan\AppData\Local\Temp\ccwtEZa1.s:1035   .text.HAL_DMA_Abort_IT:00000000 $t
C:\Users\Nathan\AppData\Local\Temp\ccwtEZa1.s:1041   .text.HAL_DMA_Abort_IT:00000000 HAL_DMA_Abort_IT
C:\Users\Nathan\AppData\Local\Temp\ccwtEZa1.s:1164   .text.HAL_DMA_PollForTransfer:00000000 $t
C:\Users\Nathan\AppData\Local\Temp\ccwtEZa1.s:1170   .text.HAL_DMA_PollForTransfer:00000000 HAL_DMA_PollForTransfer
C:\Users\Nathan\AppData\Local\Temp\ccwtEZa1.s:1451   .text.HAL_DMA_IRQHandler:00000000 $t
C:\Users\Nathan\AppData\Local\Temp\ccwtEZa1.s:1457   .text.HAL_DMA_IRQHandler:00000000 HAL_DMA_IRQHandler
C:\Users\Nathan\AppData\Local\Temp\ccwtEZa1.s:1644   .text.HAL_DMA_RegisterCallback:00000000 $t
C:\Users\Nathan\AppData\Local\Temp\ccwtEZa1.s:1650   .text.HAL_DMA_RegisterCallback:00000000 HAL_DMA_RegisterCallback
C:\Users\Nathan\AppData\Local\Temp\ccwtEZa1.s:1701   .text.HAL_DMA_RegisterCallback:0000002c $d
C:\Users\Nathan\AppData\Local\Temp\ccwtEZa1.s:1705   .text.HAL_DMA_RegisterCallback:00000030 $t
C:\Users\Nathan\AppData\Local\Temp\ccwtEZa1.s:1751   .text.HAL_DMA_UnRegisterCallback:00000000 $t
C:\Users\Nathan\AppData\Local\Temp\ccwtEZa1.s:1757   .text.HAL_DMA_UnRegisterCallback:00000000 HAL_DMA_UnRegisterCallback
C:\Users\Nathan\AppData\Local\Temp\ccwtEZa1.s:1806   .text.HAL_DMA_UnRegisterCallback:0000002c $d
C:\Users\Nathan\AppData\Local\Temp\ccwtEZa1.s:1870   .text.HAL_DMA_GetState:00000000 $t
C:\Users\Nathan\AppData\Local\Temp\ccwtEZa1.s:1876   .text.HAL_DMA_GetState:00000000 HAL_DMA_GetState
C:\Users\Nathan\AppData\Local\Temp\ccwtEZa1.s:1894   .text.HAL_DMA_GetError:00000000 $t
C:\Users\Nathan\AppData\Local\Temp\ccwtEZa1.s:1900   .text.HAL_DMA_GetError:00000000 HAL_DMA_GetError
C:\Users\Nathan\AppData\Local\Temp\ccwtEZa1.s:1811   .text.HAL_DMA_UnRegisterCallback:00000031 $d
C:\Users\Nathan\AppData\Local\Temp\ccwtEZa1.s:1811   .text.HAL_DMA_UnRegisterCallback:00000032 $t

UNDEFINED SYMBOLS
HAL_GetTick
