ARM GAS  C:\Users\Nathan\AppData\Local\Temp\ccWT97xY.s 			page 1


   1              		.cpu cortex-m4
   2              		.arch armv7e-m
   3              		.fpu fpv4-sp-d16
   4              		.eabi_attribute 27, 1
   5              		.eabi_attribute 28, 1
   6              		.eabi_attribute 20, 1
   7              		.eabi_attribute 21, 1
   8              		.eabi_attribute 23, 3
   9              		.eabi_attribute 24, 1
  10              		.eabi_attribute 25, 1
  11              		.eabi_attribute 26, 1
  12              		.eabi_attribute 30, 1
  13              		.eabi_attribute 34, 1
  14              		.eabi_attribute 18, 4
  15              		.file	"stm32wbxx_hal_rtc_ex.c"
  16              		.text
  17              	.Ltext0:
  18              		.cfi_sections	.debug_frame
  19              		.file 1 "Drivers/STM32WBxx_HAL_Driver/Src/stm32wbxx_hal_rtc_ex.c"
  20              		.section	.text.HAL_RTCEx_SetTimeStamp,"ax",%progbits
  21              		.align	1
  22              		.global	HAL_RTCEx_SetTimeStamp
  23              		.syntax unified
  24              		.thumb
  25              		.thumb_func
  27              	HAL_RTCEx_SetTimeStamp:
  28              	.LVL0:
  29              	.LFB1104:
   1:Drivers/STM32WBxx_HAL_Driver/Src/stm32wbxx_hal_rtc_ex.c **** /**
   2:Drivers/STM32WBxx_HAL_Driver/Src/stm32wbxx_hal_rtc_ex.c ****   ******************************************************************************
   3:Drivers/STM32WBxx_HAL_Driver/Src/stm32wbxx_hal_rtc_ex.c ****   * @file    stm32wbxx_hal_rtc_ex.c
   4:Drivers/STM32WBxx_HAL_Driver/Src/stm32wbxx_hal_rtc_ex.c ****   * @author  MCD Application Team
   5:Drivers/STM32WBxx_HAL_Driver/Src/stm32wbxx_hal_rtc_ex.c ****   * @brief   Extended RTC HAL module driver.
   6:Drivers/STM32WBxx_HAL_Driver/Src/stm32wbxx_hal_rtc_ex.c ****   *          This file provides firmware functions to manage the following
   7:Drivers/STM32WBxx_HAL_Driver/Src/stm32wbxx_hal_rtc_ex.c ****   *          functionalities of the Real-Time Clock (RTC) Extended peripheral:
   8:Drivers/STM32WBxx_HAL_Driver/Src/stm32wbxx_hal_rtc_ex.c ****   *           + RTC Timestamp functions
   9:Drivers/STM32WBxx_HAL_Driver/Src/stm32wbxx_hal_rtc_ex.c ****   *           + RTC Tamper functions
  10:Drivers/STM32WBxx_HAL_Driver/Src/stm32wbxx_hal_rtc_ex.c ****   *           + RTC Wakeup functions
  11:Drivers/STM32WBxx_HAL_Driver/Src/stm32wbxx_hal_rtc_ex.c ****   *           + Extended Control functions
  12:Drivers/STM32WBxx_HAL_Driver/Src/stm32wbxx_hal_rtc_ex.c ****   *           + Extended RTC features functions
  13:Drivers/STM32WBxx_HAL_Driver/Src/stm32wbxx_hal_rtc_ex.c ****   *
  14:Drivers/STM32WBxx_HAL_Driver/Src/stm32wbxx_hal_rtc_ex.c ****   ******************************************************************************
  15:Drivers/STM32WBxx_HAL_Driver/Src/stm32wbxx_hal_rtc_ex.c ****   * @attention
  16:Drivers/STM32WBxx_HAL_Driver/Src/stm32wbxx_hal_rtc_ex.c ****   *
  17:Drivers/STM32WBxx_HAL_Driver/Src/stm32wbxx_hal_rtc_ex.c ****   * Copyright (c) 2019 STMicroelectronics.
  18:Drivers/STM32WBxx_HAL_Driver/Src/stm32wbxx_hal_rtc_ex.c ****   * All rights reserved.
  19:Drivers/STM32WBxx_HAL_Driver/Src/stm32wbxx_hal_rtc_ex.c ****   *
  20:Drivers/STM32WBxx_HAL_Driver/Src/stm32wbxx_hal_rtc_ex.c ****   * This software is licensed under terms that can be found in the LICENSE file
  21:Drivers/STM32WBxx_HAL_Driver/Src/stm32wbxx_hal_rtc_ex.c ****   * in the root directory of this software component.
  22:Drivers/STM32WBxx_HAL_Driver/Src/stm32wbxx_hal_rtc_ex.c ****   * If no LICENSE file comes with this software, it is provided AS-IS.
  23:Drivers/STM32WBxx_HAL_Driver/Src/stm32wbxx_hal_rtc_ex.c ****   *
  24:Drivers/STM32WBxx_HAL_Driver/Src/stm32wbxx_hal_rtc_ex.c ****   ******************************************************************************
  25:Drivers/STM32WBxx_HAL_Driver/Src/stm32wbxx_hal_rtc_ex.c ****   @verbatim
  26:Drivers/STM32WBxx_HAL_Driver/Src/stm32wbxx_hal_rtc_ex.c ****   ==============================================================================
  27:Drivers/STM32WBxx_HAL_Driver/Src/stm32wbxx_hal_rtc_ex.c ****                         ##### How to use this driver #####
  28:Drivers/STM32WBxx_HAL_Driver/Src/stm32wbxx_hal_rtc_ex.c ****   ==============================================================================
  29:Drivers/STM32WBxx_HAL_Driver/Src/stm32wbxx_hal_rtc_ex.c ****   [..]
ARM GAS  C:\Users\Nathan\AppData\Local\Temp\ccWT97xY.s 			page 2


  30:Drivers/STM32WBxx_HAL_Driver/Src/stm32wbxx_hal_rtc_ex.c ****     (+) Enable the RTC domain access.
  31:Drivers/STM32WBxx_HAL_Driver/Src/stm32wbxx_hal_rtc_ex.c ****     (+) Configure the RTC Prescaler (Asynchronous and Synchronous) and RTC hour
  32:Drivers/STM32WBxx_HAL_Driver/Src/stm32wbxx_hal_rtc_ex.c ****         format using the HAL_RTC_Init() function.
  33:Drivers/STM32WBxx_HAL_Driver/Src/stm32wbxx_hal_rtc_ex.c **** 
  34:Drivers/STM32WBxx_HAL_Driver/Src/stm32wbxx_hal_rtc_ex.c ****   *** RTC Wakeup configuration ***
  35:Drivers/STM32WBxx_HAL_Driver/Src/stm32wbxx_hal_rtc_ex.c ****   ================================
  36:Drivers/STM32WBxx_HAL_Driver/Src/stm32wbxx_hal_rtc_ex.c ****   [..]
  37:Drivers/STM32WBxx_HAL_Driver/Src/stm32wbxx_hal_rtc_ex.c ****     (+) To configure the RTC Wakeup Clock source and Counter use the
  38:Drivers/STM32WBxx_HAL_Driver/Src/stm32wbxx_hal_rtc_ex.c ****         HAL_RTCEx_SetWakeUpTimer() function.
  39:Drivers/STM32WBxx_HAL_Driver/Src/stm32wbxx_hal_rtc_ex.c ****         You can also configure the RTC Wakeup timer in interrupt mode using the
  40:Drivers/STM32WBxx_HAL_Driver/Src/stm32wbxx_hal_rtc_ex.c ****         HAL_RTCEx_SetWakeUpTimer_IT() function.
  41:Drivers/STM32WBxx_HAL_Driver/Src/stm32wbxx_hal_rtc_ex.c ****     (+) To read the RTC Wakeup Counter register, use the HAL_RTCEx_GetWakeUpTimer()
  42:Drivers/STM32WBxx_HAL_Driver/Src/stm32wbxx_hal_rtc_ex.c ****         function.
  43:Drivers/STM32WBxx_HAL_Driver/Src/stm32wbxx_hal_rtc_ex.c **** 
  44:Drivers/STM32WBxx_HAL_Driver/Src/stm32wbxx_hal_rtc_ex.c ****   *** Timestamp configuration ***
  45:Drivers/STM32WBxx_HAL_Driver/Src/stm32wbxx_hal_rtc_ex.c ****   ===============================
  46:Drivers/STM32WBxx_HAL_Driver/Src/stm32wbxx_hal_rtc_ex.c ****   [..]
  47:Drivers/STM32WBxx_HAL_Driver/Src/stm32wbxx_hal_rtc_ex.c ****     (+) To configure the RTC Timestamp use the HAL_RTCEx_SetTimeStamp() function.
  48:Drivers/STM32WBxx_HAL_Driver/Src/stm32wbxx_hal_rtc_ex.c ****         You can also configure the RTC Timestamp with interrupt mode using the
  49:Drivers/STM32WBxx_HAL_Driver/Src/stm32wbxx_hal_rtc_ex.c ****         HAL_RTCEx_SetTimeStamp_IT() function.
  50:Drivers/STM32WBxx_HAL_Driver/Src/stm32wbxx_hal_rtc_ex.c ****     (+) To read the RTC Timestamp Time and Date register, use the
  51:Drivers/STM32WBxx_HAL_Driver/Src/stm32wbxx_hal_rtc_ex.c ****         HAL_RTCEx_GetTimeStamp() function.
  52:Drivers/STM32WBxx_HAL_Driver/Src/stm32wbxx_hal_rtc_ex.c ****     (+) The Timestamp alternate function is mapped to RTC_AF1 (PC13).
  53:Drivers/STM32WBxx_HAL_Driver/Src/stm32wbxx_hal_rtc_ex.c **** 
  54:Drivers/STM32WBxx_HAL_Driver/Src/stm32wbxx_hal_rtc_ex.c ****   *** Internal Timestamp configuration ***
  55:Drivers/STM32WBxx_HAL_Driver/Src/stm32wbxx_hal_rtc_ex.c ****   ===============================
  56:Drivers/STM32WBxx_HAL_Driver/Src/stm32wbxx_hal_rtc_ex.c ****   [..]
  57:Drivers/STM32WBxx_HAL_Driver/Src/stm32wbxx_hal_rtc_ex.c ****     (+) To enable the RTC internal Timestamp use the HAL_RTCEx_SetInternalTimeStamp()
  58:Drivers/STM32WBxx_HAL_Driver/Src/stm32wbxx_hal_rtc_ex.c ****         function.
  59:Drivers/STM32WBxx_HAL_Driver/Src/stm32wbxx_hal_rtc_ex.c ****     (+) To read the RTC Timestamp Time and Date register, use the HAL_RTCEx_GetTimeStamp()
  60:Drivers/STM32WBxx_HAL_Driver/Src/stm32wbxx_hal_rtc_ex.c ****         function.
  61:Drivers/STM32WBxx_HAL_Driver/Src/stm32wbxx_hal_rtc_ex.c **** 
  62:Drivers/STM32WBxx_HAL_Driver/Src/stm32wbxx_hal_rtc_ex.c ****   *** Tamper configuration ***
  63:Drivers/STM32WBxx_HAL_Driver/Src/stm32wbxx_hal_rtc_ex.c ****   ============================
  64:Drivers/STM32WBxx_HAL_Driver/Src/stm32wbxx_hal_rtc_ex.c ****   [..]
  65:Drivers/STM32WBxx_HAL_Driver/Src/stm32wbxx_hal_rtc_ex.c ****     (+) To enable the RTC Tamper and configure the Tamper filter count, trigger
  66:Drivers/STM32WBxx_HAL_Driver/Src/stm32wbxx_hal_rtc_ex.c ****         Edge or Level according to the Tamper filter value (if equal to 0 Edge
  67:Drivers/STM32WBxx_HAL_Driver/Src/stm32wbxx_hal_rtc_ex.c ****         else Level), sampling frequency, NoErase, MaskFlag, precharge or
  68:Drivers/STM32WBxx_HAL_Driver/Src/stm32wbxx_hal_rtc_ex.c ****         discharge and Pull-UP use the HAL_RTCEx_SetTamper() function.
  69:Drivers/STM32WBxx_HAL_Driver/Src/stm32wbxx_hal_rtc_ex.c ****         You can configure RTC Tamper in interrupt mode using HAL_RTCEx_SetTamper_IT()
  70:Drivers/STM32WBxx_HAL_Driver/Src/stm32wbxx_hal_rtc_ex.c ****         function.
  71:Drivers/STM32WBxx_HAL_Driver/Src/stm32wbxx_hal_rtc_ex.c ****     (+) The default configuration of the Tamper erases the backup registers.
  72:Drivers/STM32WBxx_HAL_Driver/Src/stm32wbxx_hal_rtc_ex.c ****         To avoid this, enable the NoErase field on the RTC_TAMPCR register.
  73:Drivers/STM32WBxx_HAL_Driver/Src/stm32wbxx_hal_rtc_ex.c ****     (+) The TAMPER1 alternate function is mapped to RTC_AF1 (PC13).
  74:Drivers/STM32WBxx_HAL_Driver/Src/stm32wbxx_hal_rtc_ex.c ****     (+) The TAMPER2 alternate function is mapped to RTC_AF2 (PA0).
  75:Drivers/STM32WBxx_HAL_Driver/Src/stm32wbxx_hal_rtc_ex.c ****     (+) The TAMPER3 alternate function is mapped to RTC_AF3 (PC12).
  76:Drivers/STM32WBxx_HAL_Driver/Src/stm32wbxx_hal_rtc_ex.c **** 
  77:Drivers/STM32WBxx_HAL_Driver/Src/stm32wbxx_hal_rtc_ex.c ****   *** Backup Data Registers configuration ***
  78:Drivers/STM32WBxx_HAL_Driver/Src/stm32wbxx_hal_rtc_ex.c ****   ===========================================
  79:Drivers/STM32WBxx_HAL_Driver/Src/stm32wbxx_hal_rtc_ex.c ****   [..]
  80:Drivers/STM32WBxx_HAL_Driver/Src/stm32wbxx_hal_rtc_ex.c ****     (+) To write to the RTC Backup Data registers, use the HAL_RTCEx_BKUPWrite()
  81:Drivers/STM32WBxx_HAL_Driver/Src/stm32wbxx_hal_rtc_ex.c ****         function.
  82:Drivers/STM32WBxx_HAL_Driver/Src/stm32wbxx_hal_rtc_ex.c ****     (+) To read the RTC Backup Data registers, use the HAL_RTCEx_BKUPRead()
  83:Drivers/STM32WBxx_HAL_Driver/Src/stm32wbxx_hal_rtc_ex.c ****         function.
  84:Drivers/STM32WBxx_HAL_Driver/Src/stm32wbxx_hal_rtc_ex.c **** 
  85:Drivers/STM32WBxx_HAL_Driver/Src/stm32wbxx_hal_rtc_ex.c ****   *** Smooth Digital Calibration configuration ***
  86:Drivers/STM32WBxx_HAL_Driver/Src/stm32wbxx_hal_rtc_ex.c ****   ================================================
ARM GAS  C:\Users\Nathan\AppData\Local\Temp\ccWT97xY.s 			page 3


  87:Drivers/STM32WBxx_HAL_Driver/Src/stm32wbxx_hal_rtc_ex.c ****   [..]
  88:Drivers/STM32WBxx_HAL_Driver/Src/stm32wbxx_hal_rtc_ex.c ****     (+) RTC frequency can be digitally calibrated with a resolution of about
  89:Drivers/STM32WBxx_HAL_Driver/Src/stm32wbxx_hal_rtc_ex.c ****         0.954 ppm with a range from -487.1 ppm to +488.5 ppm.
  90:Drivers/STM32WBxx_HAL_Driver/Src/stm32wbxx_hal_rtc_ex.c ****         The correction of the frequency is performed using a series of small
  91:Drivers/STM32WBxx_HAL_Driver/Src/stm32wbxx_hal_rtc_ex.c ****         adjustments (adding and/or subtracting individual RTCCLK pulses).
  92:Drivers/STM32WBxx_HAL_Driver/Src/stm32wbxx_hal_rtc_ex.c ****     (+) The smooth digital calibration is performed during a cycle of about 2^20
  93:Drivers/STM32WBxx_HAL_Driver/Src/stm32wbxx_hal_rtc_ex.c ****         RTCCLK pulses (or 32 seconds) when the input frequency is 32,768 Hz.
  94:Drivers/STM32WBxx_HAL_Driver/Src/stm32wbxx_hal_rtc_ex.c ****         This cycle is maintained by a 20-bit counter clocked by RTCCLK.
  95:Drivers/STM32WBxx_HAL_Driver/Src/stm32wbxx_hal_rtc_ex.c ****     (+) The smooth calibration register (RTC_CALR) specifies the number of RTCCLK
  96:Drivers/STM32WBxx_HAL_Driver/Src/stm32wbxx_hal_rtc_ex.c ****         clock cycles to be masked during the 32-second cycle.
  97:Drivers/STM32WBxx_HAL_Driver/Src/stm32wbxx_hal_rtc_ex.c ****     (+) To configure the RTC Smooth Digital Calibration value and the corresponding
  98:Drivers/STM32WBxx_HAL_Driver/Src/stm32wbxx_hal_rtc_ex.c ****         calibration cycle period (32s,16s and 8s) use the HAL_RTCEx_SetSmoothCalib()
  99:Drivers/STM32WBxx_HAL_Driver/Src/stm32wbxx_hal_rtc_ex.c ****         function.
 100:Drivers/STM32WBxx_HAL_Driver/Src/stm32wbxx_hal_rtc_ex.c **** 
 101:Drivers/STM32WBxx_HAL_Driver/Src/stm32wbxx_hal_rtc_ex.c ****   *** Outputs configuration ***
 102:Drivers/STM32WBxx_HAL_Driver/Src/stm32wbxx_hal_rtc_ex.c ****   =============================
 103:Drivers/STM32WBxx_HAL_Driver/Src/stm32wbxx_hal_rtc_ex.c ****   [..] The RTC has 2 different outputs:
 104:Drivers/STM32WBxx_HAL_Driver/Src/stm32wbxx_hal_rtc_ex.c ****     (+) RTC_ALARM: this output is used to manage the RTC alarms (Alarm A and Alarm B)
 105:Drivers/STM32WBxx_HAL_Driver/Src/stm32wbxx_hal_rtc_ex.c ****         and WaKeUp signals.
 106:Drivers/STM32WBxx_HAL_Driver/Src/stm32wbxx_hal_rtc_ex.c ****         To output the selected RTC signal, use the HAL_RTC_Init() function.
 107:Drivers/STM32WBxx_HAL_Driver/Src/stm32wbxx_hal_rtc_ex.c ****     (+) RTC_CALIB: this output is 512Hz signal or 1Hz.
 108:Drivers/STM32WBxx_HAL_Driver/Src/stm32wbxx_hal_rtc_ex.c ****         To enable the RTC_CALIB, use the HAL_RTCEx_SetCalibrationOutPut() function.
 109:Drivers/STM32WBxx_HAL_Driver/Src/stm32wbxx_hal_rtc_ex.c ****     (+) Two pins can be used as RTC_ALARM or RTC_CALIB output, selected through
 110:Drivers/STM32WBxx_HAL_Driver/Src/stm32wbxx_hal_rtc_ex.c ****         bit OUT_RMP of the RTC_OR register:
 111:Drivers/STM32WBxx_HAL_Driver/Src/stm32wbxx_hal_rtc_ex.c ****     (+) When the RTC_CALIB or RTC_ALARM output is selected, the RTC_OUT pin is
 112:Drivers/STM32WBxx_HAL_Driver/Src/stm32wbxx_hal_rtc_ex.c ****         automatically configured in output alternate function.
 113:Drivers/STM32WBxx_HAL_Driver/Src/stm32wbxx_hal_rtc_ex.c **** 
 114:Drivers/STM32WBxx_HAL_Driver/Src/stm32wbxx_hal_rtc_ex.c ****   @endverbatim
 115:Drivers/STM32WBxx_HAL_Driver/Src/stm32wbxx_hal_rtc_ex.c ****   ******************************************************************************
 116:Drivers/STM32WBxx_HAL_Driver/Src/stm32wbxx_hal_rtc_ex.c ****   */
 117:Drivers/STM32WBxx_HAL_Driver/Src/stm32wbxx_hal_rtc_ex.c **** 
 118:Drivers/STM32WBxx_HAL_Driver/Src/stm32wbxx_hal_rtc_ex.c **** /* Includes ------------------------------------------------------------------*/
 119:Drivers/STM32WBxx_HAL_Driver/Src/stm32wbxx_hal_rtc_ex.c **** #include "stm32wbxx_hal.h"
 120:Drivers/STM32WBxx_HAL_Driver/Src/stm32wbxx_hal_rtc_ex.c **** 
 121:Drivers/STM32WBxx_HAL_Driver/Src/stm32wbxx_hal_rtc_ex.c **** /** @addtogroup STM32WBxx_HAL_Driver
 122:Drivers/STM32WBxx_HAL_Driver/Src/stm32wbxx_hal_rtc_ex.c ****   * @{
 123:Drivers/STM32WBxx_HAL_Driver/Src/stm32wbxx_hal_rtc_ex.c ****   */
 124:Drivers/STM32WBxx_HAL_Driver/Src/stm32wbxx_hal_rtc_ex.c **** 
 125:Drivers/STM32WBxx_HAL_Driver/Src/stm32wbxx_hal_rtc_ex.c **** /** @defgroup RTCEx RTCEx
 126:Drivers/STM32WBxx_HAL_Driver/Src/stm32wbxx_hal_rtc_ex.c ****   * @brief    RTC Extended HAL module driver
 127:Drivers/STM32WBxx_HAL_Driver/Src/stm32wbxx_hal_rtc_ex.c ****   * @{
 128:Drivers/STM32WBxx_HAL_Driver/Src/stm32wbxx_hal_rtc_ex.c ****   */
 129:Drivers/STM32WBxx_HAL_Driver/Src/stm32wbxx_hal_rtc_ex.c **** 
 130:Drivers/STM32WBxx_HAL_Driver/Src/stm32wbxx_hal_rtc_ex.c **** #ifdef HAL_RTC_MODULE_ENABLED
 131:Drivers/STM32WBxx_HAL_Driver/Src/stm32wbxx_hal_rtc_ex.c **** 
 132:Drivers/STM32WBxx_HAL_Driver/Src/stm32wbxx_hal_rtc_ex.c **** /* Private typedef -----------------------------------------------------------*/
 133:Drivers/STM32WBxx_HAL_Driver/Src/stm32wbxx_hal_rtc_ex.c **** /* Private define ------------------------------------------------------------*/
 134:Drivers/STM32WBxx_HAL_Driver/Src/stm32wbxx_hal_rtc_ex.c **** /* Private macro -------------------------------------------------------------*/
 135:Drivers/STM32WBxx_HAL_Driver/Src/stm32wbxx_hal_rtc_ex.c **** /* Private variables ---------------------------------------------------------*/
 136:Drivers/STM32WBxx_HAL_Driver/Src/stm32wbxx_hal_rtc_ex.c **** /* Private function prototypes -----------------------------------------------*/
 137:Drivers/STM32WBxx_HAL_Driver/Src/stm32wbxx_hal_rtc_ex.c **** /* Exported functions --------------------------------------------------------*/
 138:Drivers/STM32WBxx_HAL_Driver/Src/stm32wbxx_hal_rtc_ex.c **** 
 139:Drivers/STM32WBxx_HAL_Driver/Src/stm32wbxx_hal_rtc_ex.c **** /** @defgroup RTCEx_Exported_Functions RTCEx Exported Functions
 140:Drivers/STM32WBxx_HAL_Driver/Src/stm32wbxx_hal_rtc_ex.c ****   * @{
 141:Drivers/STM32WBxx_HAL_Driver/Src/stm32wbxx_hal_rtc_ex.c ****   */
 142:Drivers/STM32WBxx_HAL_Driver/Src/stm32wbxx_hal_rtc_ex.c **** 
 143:Drivers/STM32WBxx_HAL_Driver/Src/stm32wbxx_hal_rtc_ex.c **** /** @defgroup RTCEx_Exported_Functions_Group1 RTC Timestamp and Tamper functions
ARM GAS  C:\Users\Nathan\AppData\Local\Temp\ccWT97xY.s 			page 4


 144:Drivers/STM32WBxx_HAL_Driver/Src/stm32wbxx_hal_rtc_ex.c ****   * @brief    RTC Timestamp and Tamper functions
 145:Drivers/STM32WBxx_HAL_Driver/Src/stm32wbxx_hal_rtc_ex.c ****   *
 146:Drivers/STM32WBxx_HAL_Driver/Src/stm32wbxx_hal_rtc_ex.c **** @verbatim
 147:Drivers/STM32WBxx_HAL_Driver/Src/stm32wbxx_hal_rtc_ex.c ****  ===============================================================================
 148:Drivers/STM32WBxx_HAL_Driver/Src/stm32wbxx_hal_rtc_ex.c ****                  ##### RTC Timestamp and Tamper functions #####
 149:Drivers/STM32WBxx_HAL_Driver/Src/stm32wbxx_hal_rtc_ex.c ****  ===============================================================================
 150:Drivers/STM32WBxx_HAL_Driver/Src/stm32wbxx_hal_rtc_ex.c **** 
 151:Drivers/STM32WBxx_HAL_Driver/Src/stm32wbxx_hal_rtc_ex.c ****  [..] This section provides functions allowing to configure Timestamp feature
 152:Drivers/STM32WBxx_HAL_Driver/Src/stm32wbxx_hal_rtc_ex.c **** 
 153:Drivers/STM32WBxx_HAL_Driver/Src/stm32wbxx_hal_rtc_ex.c **** @endverbatim
 154:Drivers/STM32WBxx_HAL_Driver/Src/stm32wbxx_hal_rtc_ex.c ****   * @{
 155:Drivers/STM32WBxx_HAL_Driver/Src/stm32wbxx_hal_rtc_ex.c ****   */
 156:Drivers/STM32WBxx_HAL_Driver/Src/stm32wbxx_hal_rtc_ex.c **** 
 157:Drivers/STM32WBxx_HAL_Driver/Src/stm32wbxx_hal_rtc_ex.c **** /**
 158:Drivers/STM32WBxx_HAL_Driver/Src/stm32wbxx_hal_rtc_ex.c ****   * @brief  Sets Timestamp.
 159:Drivers/STM32WBxx_HAL_Driver/Src/stm32wbxx_hal_rtc_ex.c ****   * @note   This API must be called before enabling the Timestamp feature.
 160:Drivers/STM32WBxx_HAL_Driver/Src/stm32wbxx_hal_rtc_ex.c ****   * @param  hrtc pointer to a RTC_HandleTypeDef structure that contains
 161:Drivers/STM32WBxx_HAL_Driver/Src/stm32wbxx_hal_rtc_ex.c ****   *                the configuration information for RTC.
 162:Drivers/STM32WBxx_HAL_Driver/Src/stm32wbxx_hal_rtc_ex.c ****   * @param  RTC_TimeStampEdge Specifies the pin edge on which the Timestamp is
 163:Drivers/STM32WBxx_HAL_Driver/Src/stm32wbxx_hal_rtc_ex.c ****   *         activated.
 164:Drivers/STM32WBxx_HAL_Driver/Src/stm32wbxx_hal_rtc_ex.c ****   *          This parameter can be one of the following values:
 165:Drivers/STM32WBxx_HAL_Driver/Src/stm32wbxx_hal_rtc_ex.c ****   *             @arg RTC_TIMESTAMPEDGE_RISING: the Timestamp event occurs on
 166:Drivers/STM32WBxx_HAL_Driver/Src/stm32wbxx_hal_rtc_ex.c ****   *                                        the rising edge of the related pin.
 167:Drivers/STM32WBxx_HAL_Driver/Src/stm32wbxx_hal_rtc_ex.c ****   *             @arg RTC_TIMESTAMPEDGE_FALLING: the Timestamp event occurs on
 168:Drivers/STM32WBxx_HAL_Driver/Src/stm32wbxx_hal_rtc_ex.c ****   *                                        the falling edge of the related pin.
 169:Drivers/STM32WBxx_HAL_Driver/Src/stm32wbxx_hal_rtc_ex.c ****   * @param  RTC_TimeStampPin Specifies the RTC Timestamp Pin.
 170:Drivers/STM32WBxx_HAL_Driver/Src/stm32wbxx_hal_rtc_ex.c ****   *          This parameter can be one of the following values:
 171:Drivers/STM32WBxx_HAL_Driver/Src/stm32wbxx_hal_rtc_ex.c ****   *             @arg RTC_TIMESTAMPPIN_DEFAULT: PC13 is selected as RTC Timestamp Pin.
 172:Drivers/STM32WBxx_HAL_Driver/Src/stm32wbxx_hal_rtc_ex.c ****   * @note Although unused, parameter RTC_TimeStampPin has been kept for portability
 173:Drivers/STM32WBxx_HAL_Driver/Src/stm32wbxx_hal_rtc_ex.c ****   *       reasons.
 174:Drivers/STM32WBxx_HAL_Driver/Src/stm32wbxx_hal_rtc_ex.c ****   * @retval HAL status
 175:Drivers/STM32WBxx_HAL_Driver/Src/stm32wbxx_hal_rtc_ex.c ****   */
 176:Drivers/STM32WBxx_HAL_Driver/Src/stm32wbxx_hal_rtc_ex.c **** HAL_StatusTypeDef HAL_RTCEx_SetTimeStamp(RTC_HandleTypeDef *hrtc, uint32_t RTC_TimeStampEdge, uint3
 177:Drivers/STM32WBxx_HAL_Driver/Src/stm32wbxx_hal_rtc_ex.c **** {
  30              		.loc 1 177 1 view -0
  31              		.cfi_startproc
  32              		@ args = 0, pretend = 0, frame = 0
  33              		@ frame_needed = 0, uses_anonymous_args = 0
  34              		@ link register save eliminated.
 178:Drivers/STM32WBxx_HAL_Driver/Src/stm32wbxx_hal_rtc_ex.c ****   uint32_t tmpreg = 0U;
  35              		.loc 1 178 3 view .LVU1
 179:Drivers/STM32WBxx_HAL_Driver/Src/stm32wbxx_hal_rtc_ex.c **** 
 180:Drivers/STM32WBxx_HAL_Driver/Src/stm32wbxx_hal_rtc_ex.c ****   /* Check the parameters */
 181:Drivers/STM32WBxx_HAL_Driver/Src/stm32wbxx_hal_rtc_ex.c ****   assert_param(IS_TIMESTAMP_EDGE(RTC_TimeStampEdge));
  36              		.loc 1 181 3 view .LVU2
 182:Drivers/STM32WBxx_HAL_Driver/Src/stm32wbxx_hal_rtc_ex.c ****   assert_param(IS_RTC_TIMESTAMP_PIN(RTC_TimeStampPin));
  37              		.loc 1 182 3 view .LVU3
 183:Drivers/STM32WBxx_HAL_Driver/Src/stm32wbxx_hal_rtc_ex.c **** 
 184:Drivers/STM32WBxx_HAL_Driver/Src/stm32wbxx_hal_rtc_ex.c ****   /* Prevent compilation warning due to unused argument(s) if assert_param check
 185:Drivers/STM32WBxx_HAL_Driver/Src/stm32wbxx_hal_rtc_ex.c ****      is disabled */
 186:Drivers/STM32WBxx_HAL_Driver/Src/stm32wbxx_hal_rtc_ex.c ****   UNUSED(RTC_TimeStampPin);
  38              		.loc 1 186 3 view .LVU4
 187:Drivers/STM32WBxx_HAL_Driver/Src/stm32wbxx_hal_rtc_ex.c **** 
 188:Drivers/STM32WBxx_HAL_Driver/Src/stm32wbxx_hal_rtc_ex.c ****   /* Process Locked */
 189:Drivers/STM32WBxx_HAL_Driver/Src/stm32wbxx_hal_rtc_ex.c ****   __HAL_LOCK(hrtc);
  39              		.loc 1 189 3 view .LVU5
  40              		.loc 1 189 3 view .LVU6
ARM GAS  C:\Users\Nathan\AppData\Local\Temp\ccWT97xY.s 			page 5


  41 0000 90F82020 		ldrb	r2, [r0, #32]	@ zero_extendqisi2
  42              	.LVL1:
  43              		.loc 1 189 3 is_stmt 0 view .LVU7
  44 0004 012A     		cmp	r2, #1
  45 0006 31D0     		beq	.L3
 177:Drivers/STM32WBxx_HAL_Driver/Src/stm32wbxx_hal_rtc_ex.c ****   uint32_t tmpreg = 0U;
  46              		.loc 1 177 1 view .LVU8
  47 0008 10B4     		push	{r4}
  48              		.cfi_def_cfa_offset 4
  49              		.cfi_offset 4, -4
  50 000a 0346     		mov	r3, r0
  51              		.loc 1 189 3 is_stmt 1 discriminator 2 view .LVU9
  52 000c 0120     		movs	r0, #1
  53              	.LVL2:
  54              		.loc 1 189 3 is_stmt 0 discriminator 2 view .LVU10
  55 000e 83F82000 		strb	r0, [r3, #32]
  56              		.loc 1 189 3 is_stmt 1 discriminator 2 view .LVU11
 190:Drivers/STM32WBxx_HAL_Driver/Src/stm32wbxx_hal_rtc_ex.c **** 
 191:Drivers/STM32WBxx_HAL_Driver/Src/stm32wbxx_hal_rtc_ex.c ****   /* Change RTC state to BUSY */
 192:Drivers/STM32WBxx_HAL_Driver/Src/stm32wbxx_hal_rtc_ex.c ****   hrtc->State = HAL_RTC_STATE_BUSY;
  57              		.loc 1 192 3 view .LVU12
  58              		.loc 1 192 15 is_stmt 0 view .LVU13
  59 0012 0222     		movs	r2, #2
  60 0014 83F82120 		strb	r2, [r3, #33]
 193:Drivers/STM32WBxx_HAL_Driver/Src/stm32wbxx_hal_rtc_ex.c **** 
 194:Drivers/STM32WBxx_HAL_Driver/Src/stm32wbxx_hal_rtc_ex.c ****   /* Get the RTC_CR register and clear the bits to be configured */
 195:Drivers/STM32WBxx_HAL_Driver/Src/stm32wbxx_hal_rtc_ex.c ****   tmpreg = (uint32_t)(hrtc->Instance->CR & (uint32_t)~(RTC_CR_TSEDGE | RTC_CR_TSE));
  61              		.loc 1 195 3 is_stmt 1 view .LVU14
  62              		.loc 1 195 27 is_stmt 0 view .LVU15
  63 0018 1C68     		ldr	r4, [r3]
  64              		.loc 1 195 37 view .LVU16
  65 001a A268     		ldr	r2, [r4, #8]
  66              		.loc 1 195 10 view .LVU17
  67 001c 22F40062 		bic	r2, r2, #2048
  68 0020 22F00802 		bic	r2, r2, #8
  69              	.LVL3:
 196:Drivers/STM32WBxx_HAL_Driver/Src/stm32wbxx_hal_rtc_ex.c **** 
 197:Drivers/STM32WBxx_HAL_Driver/Src/stm32wbxx_hal_rtc_ex.c ****   /* Configure the Timestamp TSEDGE bit */
 198:Drivers/STM32WBxx_HAL_Driver/Src/stm32wbxx_hal_rtc_ex.c ****   tmpreg |= RTC_TimeStampEdge;
  70              		.loc 1 198 3 is_stmt 1 view .LVU18
  71              		.loc 1 198 10 is_stmt 0 view .LVU19
  72 0024 0A43     		orrs	r2, r2, r1
  73              	.LVL4:
 199:Drivers/STM32WBxx_HAL_Driver/Src/stm32wbxx_hal_rtc_ex.c **** 
 200:Drivers/STM32WBxx_HAL_Driver/Src/stm32wbxx_hal_rtc_ex.c ****   /* Disable the write protection for RTC registers */
 201:Drivers/STM32WBxx_HAL_Driver/Src/stm32wbxx_hal_rtc_ex.c ****   __HAL_RTC_WRITEPROTECTION_DISABLE(hrtc);
  74              		.loc 1 201 3 is_stmt 1 view .LVU20
  75              		.loc 1 201 3 view .LVU21
  76 0026 CA21     		movs	r1, #202
  77              	.LVL5:
  78              		.loc 1 201 3 is_stmt 0 view .LVU22
  79 0028 6162     		str	r1, [r4, #36]
  80              		.loc 1 201 3 is_stmt 1 view .LVU23
  81 002a 1968     		ldr	r1, [r3]
  82 002c 5324     		movs	r4, #83
  83 002e 4C62     		str	r4, [r1, #36]
  84              		.loc 1 201 3 view .LVU24
ARM GAS  C:\Users\Nathan\AppData\Local\Temp\ccWT97xY.s 			page 6


 202:Drivers/STM32WBxx_HAL_Driver/Src/stm32wbxx_hal_rtc_ex.c **** 
 203:Drivers/STM32WBxx_HAL_Driver/Src/stm32wbxx_hal_rtc_ex.c ****   /* Copy the desired configuration into the CR register */
 204:Drivers/STM32WBxx_HAL_Driver/Src/stm32wbxx_hal_rtc_ex.c ****   hrtc->Instance->CR = (uint32_t)tmpreg;
  85              		.loc 1 204 3 view .LVU25
  86              		.loc 1 204 7 is_stmt 0 view .LVU26
  87 0030 1968     		ldr	r1, [r3]
  88              		.loc 1 204 22 view .LVU27
  89 0032 8A60     		str	r2, [r1, #8]
 205:Drivers/STM32WBxx_HAL_Driver/Src/stm32wbxx_hal_rtc_ex.c **** 
 206:Drivers/STM32WBxx_HAL_Driver/Src/stm32wbxx_hal_rtc_ex.c ****   /* Clear RTC Timestamp flag */
 207:Drivers/STM32WBxx_HAL_Driver/Src/stm32wbxx_hal_rtc_ex.c ****   __HAL_RTC_TIMESTAMP_CLEAR_FLAG(hrtc, RTC_FLAG_TSF);
  90              		.loc 1 207 3 is_stmt 1 view .LVU28
  91 0034 1968     		ldr	r1, [r3]
  92 0036 CA68     		ldr	r2, [r1, #12]
  93              	.LVL6:
  94              		.loc 1 207 3 is_stmt 0 view .LVU29
  95 0038 D2B2     		uxtb	r2, r2
  96 003a 62F40862 		orn	r2, r2, #2176
  97 003e CA60     		str	r2, [r1, #12]
 208:Drivers/STM32WBxx_HAL_Driver/Src/stm32wbxx_hal_rtc_ex.c **** 
 209:Drivers/STM32WBxx_HAL_Driver/Src/stm32wbxx_hal_rtc_ex.c ****   /* Clear RTC Timestamp overrun Flag */
 210:Drivers/STM32WBxx_HAL_Driver/Src/stm32wbxx_hal_rtc_ex.c ****   __HAL_RTC_TIMESTAMP_CLEAR_FLAG(hrtc, RTC_FLAG_TSOVF);
  98              		.loc 1 210 3 is_stmt 1 view .LVU30
  99 0040 1968     		ldr	r1, [r3]
 100 0042 CA68     		ldr	r2, [r1, #12]
 101 0044 D2B2     		uxtb	r2, r2
 102 0046 62F48452 		orn	r2, r2, #4224
 103 004a CA60     		str	r2, [r1, #12]
 211:Drivers/STM32WBxx_HAL_Driver/Src/stm32wbxx_hal_rtc_ex.c **** 
 212:Drivers/STM32WBxx_HAL_Driver/Src/stm32wbxx_hal_rtc_ex.c ****   /* Enable the Timestamp saving */
 213:Drivers/STM32WBxx_HAL_Driver/Src/stm32wbxx_hal_rtc_ex.c ****   __HAL_RTC_TIMESTAMP_ENABLE(hrtc);
 104              		.loc 1 213 3 view .LVU31
 105 004c 1968     		ldr	r1, [r3]
 106 004e 8A68     		ldr	r2, [r1, #8]
 107 0050 42F40062 		orr	r2, r2, #2048
 108 0054 8A60     		str	r2, [r1, #8]
 214:Drivers/STM32WBxx_HAL_Driver/Src/stm32wbxx_hal_rtc_ex.c **** 
 215:Drivers/STM32WBxx_HAL_Driver/Src/stm32wbxx_hal_rtc_ex.c ****   /* Enable the write protection for RTC registers */
 216:Drivers/STM32WBxx_HAL_Driver/Src/stm32wbxx_hal_rtc_ex.c ****   __HAL_RTC_WRITEPROTECTION_ENABLE(hrtc);
 109              		.loc 1 216 3 view .LVU32
 110              		.loc 1 216 3 view .LVU33
 111 0056 1A68     		ldr	r2, [r3]
 112 0058 FF21     		movs	r1, #255
 113 005a 5162     		str	r1, [r2, #36]
 114              		.loc 1 216 3 view .LVU34
 217:Drivers/STM32WBxx_HAL_Driver/Src/stm32wbxx_hal_rtc_ex.c **** 
 218:Drivers/STM32WBxx_HAL_Driver/Src/stm32wbxx_hal_rtc_ex.c ****   /* Change RTC state back to READY */
 219:Drivers/STM32WBxx_HAL_Driver/Src/stm32wbxx_hal_rtc_ex.c ****   hrtc->State = HAL_RTC_STATE_READY;
 115              		.loc 1 219 3 view .LVU35
 116              		.loc 1 219 15 is_stmt 0 view .LVU36
 117 005c 83F82100 		strb	r0, [r3, #33]
 220:Drivers/STM32WBxx_HAL_Driver/Src/stm32wbxx_hal_rtc_ex.c **** 
 221:Drivers/STM32WBxx_HAL_Driver/Src/stm32wbxx_hal_rtc_ex.c ****   /* Process Unlocked */
 222:Drivers/STM32WBxx_HAL_Driver/Src/stm32wbxx_hal_rtc_ex.c ****   __HAL_UNLOCK(hrtc);
 118              		.loc 1 222 3 is_stmt 1 view .LVU37
 119              		.loc 1 222 3 view .LVU38
 120 0060 0020     		movs	r0, #0
ARM GAS  C:\Users\Nathan\AppData\Local\Temp\ccWT97xY.s 			page 7


 121 0062 83F82000 		strb	r0, [r3, #32]
 122              		.loc 1 222 3 view .LVU39
 223:Drivers/STM32WBxx_HAL_Driver/Src/stm32wbxx_hal_rtc_ex.c **** 
 224:Drivers/STM32WBxx_HAL_Driver/Src/stm32wbxx_hal_rtc_ex.c ****   return HAL_OK;
 123              		.loc 1 224 3 view .LVU40
 225:Drivers/STM32WBxx_HAL_Driver/Src/stm32wbxx_hal_rtc_ex.c **** }
 124              		.loc 1 225 1 is_stmt 0 view .LVU41
 125 0066 5DF8044B 		ldr	r4, [sp], #4
 126              		.cfi_restore 4
 127              		.cfi_def_cfa_offset 0
 128 006a 7047     		bx	lr
 129              	.LVL7:
 130              	.L3:
 189:Drivers/STM32WBxx_HAL_Driver/Src/stm32wbxx_hal_rtc_ex.c **** 
 131              		.loc 1 189 3 discriminator 1 view .LVU42
 132 006c 0220     		movs	r0, #2
 133              	.LVL8:
 134              		.loc 1 225 1 view .LVU43
 135 006e 7047     		bx	lr
 136              		.cfi_endproc
 137              	.LFE1104:
 139              		.section	.text.HAL_RTCEx_SetTimeStamp_IT,"ax",%progbits
 140              		.align	1
 141              		.global	HAL_RTCEx_SetTimeStamp_IT
 142              		.syntax unified
 143              		.thumb
 144              		.thumb_func
 146              	HAL_RTCEx_SetTimeStamp_IT:
 147              	.LVL9:
 148              	.LFB1105:
 226:Drivers/STM32WBxx_HAL_Driver/Src/stm32wbxx_hal_rtc_ex.c **** 
 227:Drivers/STM32WBxx_HAL_Driver/Src/stm32wbxx_hal_rtc_ex.c **** /**
 228:Drivers/STM32WBxx_HAL_Driver/Src/stm32wbxx_hal_rtc_ex.c ****   * @brief  Sets Timestamp with Interrupt.
 229:Drivers/STM32WBxx_HAL_Driver/Src/stm32wbxx_hal_rtc_ex.c ****   * @param  hrtc pointer to a RTC_HandleTypeDef structure that contains
 230:Drivers/STM32WBxx_HAL_Driver/Src/stm32wbxx_hal_rtc_ex.c ****   *                the configuration information for RTC.
 231:Drivers/STM32WBxx_HAL_Driver/Src/stm32wbxx_hal_rtc_ex.c ****   * @note   This API must be called before enabling the Timestamp feature.
 232:Drivers/STM32WBxx_HAL_Driver/Src/stm32wbxx_hal_rtc_ex.c ****   * @param  RTC_TimeStampEdge Specifies the pin edge on which the Timestamp is
 233:Drivers/STM32WBxx_HAL_Driver/Src/stm32wbxx_hal_rtc_ex.c ****   *         activated.
 234:Drivers/STM32WBxx_HAL_Driver/Src/stm32wbxx_hal_rtc_ex.c ****   *          This parameter can be one of the following values:
 235:Drivers/STM32WBxx_HAL_Driver/Src/stm32wbxx_hal_rtc_ex.c ****   *             @arg RTC_TIMESTAMPEDGE_RISING: the Timestamp event occurs on
 236:Drivers/STM32WBxx_HAL_Driver/Src/stm32wbxx_hal_rtc_ex.c ****   *                                        the rising edge of the related pin.
 237:Drivers/STM32WBxx_HAL_Driver/Src/stm32wbxx_hal_rtc_ex.c ****   *             @arg RTC_TIMESTAMPEDGE_FALLING: the Timestamp event occurs on
 238:Drivers/STM32WBxx_HAL_Driver/Src/stm32wbxx_hal_rtc_ex.c ****   *                                        the falling edge of the related pin.
 239:Drivers/STM32WBxx_HAL_Driver/Src/stm32wbxx_hal_rtc_ex.c ****   * @param  RTC_TimeStampPin Specifies the RTC Timestamp Pin.
 240:Drivers/STM32WBxx_HAL_Driver/Src/stm32wbxx_hal_rtc_ex.c ****   *          This parameter can be one of the following values:
 241:Drivers/STM32WBxx_HAL_Driver/Src/stm32wbxx_hal_rtc_ex.c ****   *             @arg RTC_TIMESTAMPPIN_DEFAULT: PC13 is selected as RTC Timestamp Pin.
 242:Drivers/STM32WBxx_HAL_Driver/Src/stm32wbxx_hal_rtc_ex.c ****   * @note Although unused, parameter RTC_TimeStampPin has been kept for portability
 243:Drivers/STM32WBxx_HAL_Driver/Src/stm32wbxx_hal_rtc_ex.c ****   *       reasons.
 244:Drivers/STM32WBxx_HAL_Driver/Src/stm32wbxx_hal_rtc_ex.c ****   * @retval HAL status
 245:Drivers/STM32WBxx_HAL_Driver/Src/stm32wbxx_hal_rtc_ex.c ****   */
 246:Drivers/STM32WBxx_HAL_Driver/Src/stm32wbxx_hal_rtc_ex.c **** HAL_StatusTypeDef HAL_RTCEx_SetTimeStamp_IT(RTC_HandleTypeDef *hrtc, uint32_t RTC_TimeStampEdge, ui
 247:Drivers/STM32WBxx_HAL_Driver/Src/stm32wbxx_hal_rtc_ex.c **** {
 149              		.loc 1 247 1 is_stmt 1 view -0
 150              		.cfi_startproc
 151              		@ args = 0, pretend = 0, frame = 0
 152              		@ frame_needed = 0, uses_anonymous_args = 0
 153              		@ link register save eliminated.
ARM GAS  C:\Users\Nathan\AppData\Local\Temp\ccWT97xY.s 			page 8


 248:Drivers/STM32WBxx_HAL_Driver/Src/stm32wbxx_hal_rtc_ex.c ****   uint32_t tmpreg = 0U;
 154              		.loc 1 248 3 view .LVU45
 249:Drivers/STM32WBxx_HAL_Driver/Src/stm32wbxx_hal_rtc_ex.c **** 
 250:Drivers/STM32WBxx_HAL_Driver/Src/stm32wbxx_hal_rtc_ex.c ****   /* Check the parameters */
 251:Drivers/STM32WBxx_HAL_Driver/Src/stm32wbxx_hal_rtc_ex.c ****   assert_param(IS_TIMESTAMP_EDGE(RTC_TimeStampEdge));
 155              		.loc 1 251 3 view .LVU46
 252:Drivers/STM32WBxx_HAL_Driver/Src/stm32wbxx_hal_rtc_ex.c ****   assert_param(IS_RTC_TIMESTAMP_PIN(RTC_TimeStampPin));
 156              		.loc 1 252 3 view .LVU47
 253:Drivers/STM32WBxx_HAL_Driver/Src/stm32wbxx_hal_rtc_ex.c **** 
 254:Drivers/STM32WBxx_HAL_Driver/Src/stm32wbxx_hal_rtc_ex.c ****   /* Prevent compilation warning due to unused argument(s) if assert_param check
 255:Drivers/STM32WBxx_HAL_Driver/Src/stm32wbxx_hal_rtc_ex.c ****      is disabled */
 256:Drivers/STM32WBxx_HAL_Driver/Src/stm32wbxx_hal_rtc_ex.c ****   UNUSED(RTC_TimeStampPin);
 157              		.loc 1 256 3 view .LVU48
 257:Drivers/STM32WBxx_HAL_Driver/Src/stm32wbxx_hal_rtc_ex.c **** 
 258:Drivers/STM32WBxx_HAL_Driver/Src/stm32wbxx_hal_rtc_ex.c ****   /* Process Locked */
 259:Drivers/STM32WBxx_HAL_Driver/Src/stm32wbxx_hal_rtc_ex.c ****   __HAL_LOCK(hrtc);
 158              		.loc 1 259 3 view .LVU49
 159              		.loc 1 259 3 view .LVU50
 160 0000 90F82020 		ldrb	r2, [r0, #32]	@ zero_extendqisi2
 161              	.LVL10:
 162              		.loc 1 259 3 is_stmt 0 view .LVU51
 163 0004 012A     		cmp	r2, #1
 164 0006 41D0     		beq	.L10
 247:Drivers/STM32WBxx_HAL_Driver/Src/stm32wbxx_hal_rtc_ex.c ****   uint32_t tmpreg = 0U;
 165              		.loc 1 247 1 view .LVU52
 166 0008 10B4     		push	{r4}
 167              		.cfi_def_cfa_offset 4
 168              		.cfi_offset 4, -4
 169 000a 0346     		mov	r3, r0
 170              		.loc 1 259 3 is_stmt 1 discriminator 2 view .LVU53
 171 000c 0120     		movs	r0, #1
 172              	.LVL11:
 173              		.loc 1 259 3 is_stmt 0 discriminator 2 view .LVU54
 174 000e 83F82000 		strb	r0, [r3, #32]
 175              		.loc 1 259 3 is_stmt 1 discriminator 2 view .LVU55
 260:Drivers/STM32WBxx_HAL_Driver/Src/stm32wbxx_hal_rtc_ex.c **** 
 261:Drivers/STM32WBxx_HAL_Driver/Src/stm32wbxx_hal_rtc_ex.c ****   /* Change RTC state to BUSY */
 262:Drivers/STM32WBxx_HAL_Driver/Src/stm32wbxx_hal_rtc_ex.c ****   hrtc->State = HAL_RTC_STATE_BUSY;
 176              		.loc 1 262 3 view .LVU56
 177              		.loc 1 262 15 is_stmt 0 view .LVU57
 178 0012 0222     		movs	r2, #2
 179 0014 83F82120 		strb	r2, [r3, #33]
 263:Drivers/STM32WBxx_HAL_Driver/Src/stm32wbxx_hal_rtc_ex.c **** 
 264:Drivers/STM32WBxx_HAL_Driver/Src/stm32wbxx_hal_rtc_ex.c ****   /* Get the RTC_CR register and clear the bits to be configured */
 265:Drivers/STM32WBxx_HAL_Driver/Src/stm32wbxx_hal_rtc_ex.c ****   tmpreg = (uint32_t)(hrtc->Instance->CR & (uint32_t)~(RTC_CR_TSEDGE | RTC_CR_TSE));
 180              		.loc 1 265 3 is_stmt 1 view .LVU58
 181              		.loc 1 265 27 is_stmt 0 view .LVU59
 182 0018 1C68     		ldr	r4, [r3]
 183              		.loc 1 265 37 view .LVU60
 184 001a A268     		ldr	r2, [r4, #8]
 185              		.loc 1 265 10 view .LVU61
 186 001c 22F40062 		bic	r2, r2, #2048
 187 0020 22F00802 		bic	r2, r2, #8
 188              	.LVL12:
 266:Drivers/STM32WBxx_HAL_Driver/Src/stm32wbxx_hal_rtc_ex.c **** 
 267:Drivers/STM32WBxx_HAL_Driver/Src/stm32wbxx_hal_rtc_ex.c ****   /* Configure the Timestamp TSEDGE bit */
 268:Drivers/STM32WBxx_HAL_Driver/Src/stm32wbxx_hal_rtc_ex.c ****   tmpreg |= RTC_TimeStampEdge;
ARM GAS  C:\Users\Nathan\AppData\Local\Temp\ccWT97xY.s 			page 9


 189              		.loc 1 268 3 is_stmt 1 view .LVU62
 190              		.loc 1 268 10 is_stmt 0 view .LVU63
 191 0024 0A43     		orrs	r2, r2, r1
 192              	.LVL13:
 269:Drivers/STM32WBxx_HAL_Driver/Src/stm32wbxx_hal_rtc_ex.c **** 
 270:Drivers/STM32WBxx_HAL_Driver/Src/stm32wbxx_hal_rtc_ex.c ****   /* Disable the write protection for RTC registers */
 271:Drivers/STM32WBxx_HAL_Driver/Src/stm32wbxx_hal_rtc_ex.c ****   __HAL_RTC_WRITEPROTECTION_DISABLE(hrtc);
 193              		.loc 1 271 3 is_stmt 1 view .LVU64
 194              		.loc 1 271 3 view .LVU65
 195 0026 CA21     		movs	r1, #202
 196              	.LVL14:
 197              		.loc 1 271 3 is_stmt 0 view .LVU66
 198 0028 6162     		str	r1, [r4, #36]
 199              		.loc 1 271 3 is_stmt 1 view .LVU67
 200 002a 1968     		ldr	r1, [r3]
 201 002c 5324     		movs	r4, #83
 202 002e 4C62     		str	r4, [r1, #36]
 203              		.loc 1 271 3 view .LVU68
 272:Drivers/STM32WBxx_HAL_Driver/Src/stm32wbxx_hal_rtc_ex.c **** 
 273:Drivers/STM32WBxx_HAL_Driver/Src/stm32wbxx_hal_rtc_ex.c ****   /* Copy the desired configuration into the CR register */
 274:Drivers/STM32WBxx_HAL_Driver/Src/stm32wbxx_hal_rtc_ex.c ****   hrtc->Instance->CR = (uint32_t)tmpreg;
 204              		.loc 1 274 3 view .LVU69
 205              		.loc 1 274 7 is_stmt 0 view .LVU70
 206 0030 1968     		ldr	r1, [r3]
 207              		.loc 1 274 22 view .LVU71
 208 0032 8A60     		str	r2, [r1, #8]
 275:Drivers/STM32WBxx_HAL_Driver/Src/stm32wbxx_hal_rtc_ex.c **** 
 276:Drivers/STM32WBxx_HAL_Driver/Src/stm32wbxx_hal_rtc_ex.c ****   /* Clear RTC Timestamp flag */
 277:Drivers/STM32WBxx_HAL_Driver/Src/stm32wbxx_hal_rtc_ex.c ****   __HAL_RTC_TIMESTAMP_CLEAR_FLAG(hrtc, RTC_FLAG_TSF);
 209              		.loc 1 277 3 is_stmt 1 view .LVU72
 210 0034 1968     		ldr	r1, [r3]
 211 0036 CA68     		ldr	r2, [r1, #12]
 212              	.LVL15:
 213              		.loc 1 277 3 is_stmt 0 view .LVU73
 214 0038 D2B2     		uxtb	r2, r2
 215 003a 62F40862 		orn	r2, r2, #2176
 216 003e CA60     		str	r2, [r1, #12]
 278:Drivers/STM32WBxx_HAL_Driver/Src/stm32wbxx_hal_rtc_ex.c **** 
 279:Drivers/STM32WBxx_HAL_Driver/Src/stm32wbxx_hal_rtc_ex.c ****   /* Clear RTC Timestamp overrun Flag */
 280:Drivers/STM32WBxx_HAL_Driver/Src/stm32wbxx_hal_rtc_ex.c ****   __HAL_RTC_TIMESTAMP_CLEAR_FLAG(hrtc, RTC_FLAG_TSOVF);
 217              		.loc 1 280 3 is_stmt 1 view .LVU74
 218 0040 1968     		ldr	r1, [r3]
 219 0042 CA68     		ldr	r2, [r1, #12]
 220 0044 D2B2     		uxtb	r2, r2
 221 0046 62F48452 		orn	r2, r2, #4224
 222 004a CA60     		str	r2, [r1, #12]
 281:Drivers/STM32WBxx_HAL_Driver/Src/stm32wbxx_hal_rtc_ex.c **** 
 282:Drivers/STM32WBxx_HAL_Driver/Src/stm32wbxx_hal_rtc_ex.c ****   /* Enable the Timestamp saving */
 283:Drivers/STM32WBxx_HAL_Driver/Src/stm32wbxx_hal_rtc_ex.c ****   __HAL_RTC_TIMESTAMP_ENABLE(hrtc);
 223              		.loc 1 283 3 view .LVU75
 224 004c 1968     		ldr	r1, [r3]
 225 004e 8A68     		ldr	r2, [r1, #8]
 226 0050 42F40062 		orr	r2, r2, #2048
 227 0054 8A60     		str	r2, [r1, #8]
 284:Drivers/STM32WBxx_HAL_Driver/Src/stm32wbxx_hal_rtc_ex.c **** 
 285:Drivers/STM32WBxx_HAL_Driver/Src/stm32wbxx_hal_rtc_ex.c ****   /* Enable IT Timestamp */
 286:Drivers/STM32WBxx_HAL_Driver/Src/stm32wbxx_hal_rtc_ex.c ****   __HAL_RTC_TIMESTAMP_ENABLE_IT(hrtc, RTC_IT_TS);
ARM GAS  C:\Users\Nathan\AppData\Local\Temp\ccWT97xY.s 			page 10


 228              		.loc 1 286 3 view .LVU76
 229 0056 1968     		ldr	r1, [r3]
 230 0058 8A68     		ldr	r2, [r1, #8]
 231 005a 42F40042 		orr	r2, r2, #32768
 232 005e 8A60     		str	r2, [r1, #8]
 287:Drivers/STM32WBxx_HAL_Driver/Src/stm32wbxx_hal_rtc_ex.c **** 
 288:Drivers/STM32WBxx_HAL_Driver/Src/stm32wbxx_hal_rtc_ex.c ****   /* Enable the write protection for RTC registers */
 289:Drivers/STM32WBxx_HAL_Driver/Src/stm32wbxx_hal_rtc_ex.c ****   __HAL_RTC_WRITEPROTECTION_ENABLE(hrtc);
 233              		.loc 1 289 3 view .LVU77
 234              		.loc 1 289 3 view .LVU78
 235 0060 1A68     		ldr	r2, [r3]
 236 0062 FF21     		movs	r1, #255
 237 0064 5162     		str	r1, [r2, #36]
 238              		.loc 1 289 3 view .LVU79
 290:Drivers/STM32WBxx_HAL_Driver/Src/stm32wbxx_hal_rtc_ex.c **** 
 291:Drivers/STM32WBxx_HAL_Driver/Src/stm32wbxx_hal_rtc_ex.c ****   /* Enable and configure the EXTI line associated to the RTC Timestamp and Tamper interrupts */
 292:Drivers/STM32WBxx_HAL_Driver/Src/stm32wbxx_hal_rtc_ex.c ****   __HAL_RTC_TAMPER_TIMESTAMP_EXTI_ENABLE_IT();
 239              		.loc 1 292 3 view .LVU80
 240 0066 0A4A     		ldr	r2, .L15
 241 0068 D2F88010 		ldr	r1, [r2, #128]
 242 006c 41F48021 		orr	r1, r1, #262144
 243 0070 C2F88010 		str	r1, [r2, #128]
 293:Drivers/STM32WBxx_HAL_Driver/Src/stm32wbxx_hal_rtc_ex.c ****   __HAL_RTC_TAMPER_TIMESTAMP_EXTI_ENABLE_RISING_EDGE();
 244              		.loc 1 293 3 view .LVU81
 245 0074 1168     		ldr	r1, [r2]
 246 0076 41F48021 		orr	r1, r1, #262144
 247 007a 1160     		str	r1, [r2]
 294:Drivers/STM32WBxx_HAL_Driver/Src/stm32wbxx_hal_rtc_ex.c **** 
 295:Drivers/STM32WBxx_HAL_Driver/Src/stm32wbxx_hal_rtc_ex.c ****   /* Change RTC state back to READY */
 296:Drivers/STM32WBxx_HAL_Driver/Src/stm32wbxx_hal_rtc_ex.c ****   hrtc->State = HAL_RTC_STATE_READY;
 248              		.loc 1 296 3 view .LVU82
 249              		.loc 1 296 15 is_stmt 0 view .LVU83
 250 007c 83F82100 		strb	r0, [r3, #33]
 297:Drivers/STM32WBxx_HAL_Driver/Src/stm32wbxx_hal_rtc_ex.c **** 
 298:Drivers/STM32WBxx_HAL_Driver/Src/stm32wbxx_hal_rtc_ex.c ****   /* Process Unlocked */
 299:Drivers/STM32WBxx_HAL_Driver/Src/stm32wbxx_hal_rtc_ex.c ****   __HAL_UNLOCK(hrtc);
 251              		.loc 1 299 3 is_stmt 1 view .LVU84
 252              		.loc 1 299 3 view .LVU85
 253 0080 0020     		movs	r0, #0
 254 0082 83F82000 		strb	r0, [r3, #32]
 255              		.loc 1 299 3 view .LVU86
 300:Drivers/STM32WBxx_HAL_Driver/Src/stm32wbxx_hal_rtc_ex.c **** 
 301:Drivers/STM32WBxx_HAL_Driver/Src/stm32wbxx_hal_rtc_ex.c ****   return HAL_OK;
 256              		.loc 1 301 3 view .LVU87
 302:Drivers/STM32WBxx_HAL_Driver/Src/stm32wbxx_hal_rtc_ex.c **** }
 257              		.loc 1 302 1 is_stmt 0 view .LVU88
 258 0086 5DF8044B 		ldr	r4, [sp], #4
 259              		.cfi_restore 4
 260              		.cfi_def_cfa_offset 0
 261 008a 7047     		bx	lr
 262              	.LVL16:
 263              	.L10:
 259:Drivers/STM32WBxx_HAL_Driver/Src/stm32wbxx_hal_rtc_ex.c **** 
 264              		.loc 1 259 3 discriminator 1 view .LVU89
 265 008c 0220     		movs	r0, #2
 266              	.LVL17:
 267              		.loc 1 302 1 view .LVU90
ARM GAS  C:\Users\Nathan\AppData\Local\Temp\ccWT97xY.s 			page 11


 268 008e 7047     		bx	lr
 269              	.L16:
 270              		.align	2
 271              	.L15:
 272 0090 00080058 		.word	1476397056
 273              		.cfi_endproc
 274              	.LFE1105:
 276              		.section	.text.HAL_RTCEx_DeactivateTimeStamp,"ax",%progbits
 277              		.align	1
 278              		.global	HAL_RTCEx_DeactivateTimeStamp
 279              		.syntax unified
 280              		.thumb
 281              		.thumb_func
 283              	HAL_RTCEx_DeactivateTimeStamp:
 284              	.LVL18:
 285              	.LFB1106:
 303:Drivers/STM32WBxx_HAL_Driver/Src/stm32wbxx_hal_rtc_ex.c **** 
 304:Drivers/STM32WBxx_HAL_Driver/Src/stm32wbxx_hal_rtc_ex.c **** /**
 305:Drivers/STM32WBxx_HAL_Driver/Src/stm32wbxx_hal_rtc_ex.c ****   * @brief  Deactivates Timestamp.
 306:Drivers/STM32WBxx_HAL_Driver/Src/stm32wbxx_hal_rtc_ex.c ****   * @param  hrtc pointer to a RTC_HandleTypeDef structure that contains
 307:Drivers/STM32WBxx_HAL_Driver/Src/stm32wbxx_hal_rtc_ex.c ****   *                the configuration information for RTC.
 308:Drivers/STM32WBxx_HAL_Driver/Src/stm32wbxx_hal_rtc_ex.c ****   * @retval HAL status
 309:Drivers/STM32WBxx_HAL_Driver/Src/stm32wbxx_hal_rtc_ex.c ****   */
 310:Drivers/STM32WBxx_HAL_Driver/Src/stm32wbxx_hal_rtc_ex.c **** HAL_StatusTypeDef HAL_RTCEx_DeactivateTimeStamp(RTC_HandleTypeDef *hrtc)
 311:Drivers/STM32WBxx_HAL_Driver/Src/stm32wbxx_hal_rtc_ex.c **** {
 286              		.loc 1 311 1 is_stmt 1 view -0
 287              		.cfi_startproc
 288              		@ args = 0, pretend = 0, frame = 0
 289              		@ frame_needed = 0, uses_anonymous_args = 0
 290              		@ link register save eliminated.
 291              		.loc 1 311 1 is_stmt 0 view .LVU92
 292 0000 0346     		mov	r3, r0
 312:Drivers/STM32WBxx_HAL_Driver/Src/stm32wbxx_hal_rtc_ex.c ****   uint32_t tmpreg = 0U;
 293              		.loc 1 312 3 is_stmt 1 view .LVU93
 294              	.LVL19:
 313:Drivers/STM32WBxx_HAL_Driver/Src/stm32wbxx_hal_rtc_ex.c **** 
 314:Drivers/STM32WBxx_HAL_Driver/Src/stm32wbxx_hal_rtc_ex.c ****   /* Process Locked */
 315:Drivers/STM32WBxx_HAL_Driver/Src/stm32wbxx_hal_rtc_ex.c ****   __HAL_LOCK(hrtc);
 295              		.loc 1 315 3 view .LVU94
 296              		.loc 1 315 3 view .LVU95
 297 0002 90F82020 		ldrb	r2, [r0, #32]	@ zero_extendqisi2
 298 0006 012A     		cmp	r2, #1
 299 0008 20D0     		beq	.L19
 300              		.loc 1 315 3 discriminator 2 view .LVU96
 301 000a 0121     		movs	r1, #1
 302 000c 80F82010 		strb	r1, [r0, #32]
 303              		.loc 1 315 3 discriminator 2 view .LVU97
 316:Drivers/STM32WBxx_HAL_Driver/Src/stm32wbxx_hal_rtc_ex.c **** 
 317:Drivers/STM32WBxx_HAL_Driver/Src/stm32wbxx_hal_rtc_ex.c ****   hrtc->State = HAL_RTC_STATE_BUSY;
 304              		.loc 1 317 3 view .LVU98
 305              		.loc 1 317 15 is_stmt 0 view .LVU99
 306 0010 0222     		movs	r2, #2
 307 0012 80F82120 		strb	r2, [r0, #33]
 318:Drivers/STM32WBxx_HAL_Driver/Src/stm32wbxx_hal_rtc_ex.c **** 
 319:Drivers/STM32WBxx_HAL_Driver/Src/stm32wbxx_hal_rtc_ex.c ****   /* Disable the write protection for RTC registers */
 320:Drivers/STM32WBxx_HAL_Driver/Src/stm32wbxx_hal_rtc_ex.c ****   __HAL_RTC_WRITEPROTECTION_DISABLE(hrtc);
 308              		.loc 1 320 3 is_stmt 1 view .LVU100
ARM GAS  C:\Users\Nathan\AppData\Local\Temp\ccWT97xY.s 			page 12


 309              		.loc 1 320 3 view .LVU101
 310 0016 0268     		ldr	r2, [r0]
 311 0018 CA20     		movs	r0, #202
 312              	.LVL20:
 313              		.loc 1 320 3 is_stmt 0 view .LVU102
 314 001a 5062     		str	r0, [r2, #36]
 315              		.loc 1 320 3 is_stmt 1 view .LVU103
 316 001c 1A68     		ldr	r2, [r3]
 317 001e 5320     		movs	r0, #83
 318 0020 5062     		str	r0, [r2, #36]
 319              		.loc 1 320 3 view .LVU104
 321:Drivers/STM32WBxx_HAL_Driver/Src/stm32wbxx_hal_rtc_ex.c **** 
 322:Drivers/STM32WBxx_HAL_Driver/Src/stm32wbxx_hal_rtc_ex.c ****   /* In case interrupt mode is used, the interrupt source must disabled */
 323:Drivers/STM32WBxx_HAL_Driver/Src/stm32wbxx_hal_rtc_ex.c ****   __HAL_RTC_TIMESTAMP_DISABLE_IT(hrtc, RTC_IT_TS);
 320              		.loc 1 323 3 view .LVU105
 321 0022 1868     		ldr	r0, [r3]
 322 0024 8268     		ldr	r2, [r0, #8]
 323 0026 22F40042 		bic	r2, r2, #32768
 324 002a 8260     		str	r2, [r0, #8]
 324:Drivers/STM32WBxx_HAL_Driver/Src/stm32wbxx_hal_rtc_ex.c **** 
 325:Drivers/STM32WBxx_HAL_Driver/Src/stm32wbxx_hal_rtc_ex.c ****   /* Get the RTC_CR register and clear the bits to be configured */
 326:Drivers/STM32WBxx_HAL_Driver/Src/stm32wbxx_hal_rtc_ex.c ****   tmpreg = (uint32_t)(hrtc->Instance->CR & (uint32_t)~(RTC_CR_TSEDGE | RTC_CR_TSE));
 325              		.loc 1 326 3 view .LVU106
 326              		.loc 1 326 27 is_stmt 0 view .LVU107
 327 002c 1868     		ldr	r0, [r3]
 328              		.loc 1 326 37 view .LVU108
 329 002e 8268     		ldr	r2, [r0, #8]
 330              		.loc 1 326 10 view .LVU109
 331 0030 22F40062 		bic	r2, r2, #2048
 332 0034 22F00802 		bic	r2, r2, #8
 333              	.LVL21:
 327:Drivers/STM32WBxx_HAL_Driver/Src/stm32wbxx_hal_rtc_ex.c **** 
 328:Drivers/STM32WBxx_HAL_Driver/Src/stm32wbxx_hal_rtc_ex.c ****   /* Configure the Timestamp TSEDGE and Enable bits */
 329:Drivers/STM32WBxx_HAL_Driver/Src/stm32wbxx_hal_rtc_ex.c ****   hrtc->Instance->CR = (uint32_t)tmpreg;
 334              		.loc 1 329 3 is_stmt 1 view .LVU110
 335              		.loc 1 329 22 is_stmt 0 view .LVU111
 336 0038 8260     		str	r2, [r0, #8]
 330:Drivers/STM32WBxx_HAL_Driver/Src/stm32wbxx_hal_rtc_ex.c **** 
 331:Drivers/STM32WBxx_HAL_Driver/Src/stm32wbxx_hal_rtc_ex.c ****   /* Enable the write protection for RTC registers */
 332:Drivers/STM32WBxx_HAL_Driver/Src/stm32wbxx_hal_rtc_ex.c ****   __HAL_RTC_WRITEPROTECTION_ENABLE(hrtc);
 337              		.loc 1 332 3 is_stmt 1 view .LVU112
 338              		.loc 1 332 3 view .LVU113
 339 003a 1A68     		ldr	r2, [r3]
 340              	.LVL22:
 341              		.loc 1 332 3 is_stmt 0 view .LVU114
 342 003c FF20     		movs	r0, #255
 343              	.LVL23:
 344              		.loc 1 332 3 view .LVU115
 345 003e 5062     		str	r0, [r2, #36]
 346              		.loc 1 332 3 is_stmt 1 view .LVU116
 333:Drivers/STM32WBxx_HAL_Driver/Src/stm32wbxx_hal_rtc_ex.c **** 
 334:Drivers/STM32WBxx_HAL_Driver/Src/stm32wbxx_hal_rtc_ex.c ****   hrtc->State = HAL_RTC_STATE_READY;
 347              		.loc 1 334 3 view .LVU117
 348              		.loc 1 334 15 is_stmt 0 view .LVU118
 349 0040 83F82110 		strb	r1, [r3, #33]
 335:Drivers/STM32WBxx_HAL_Driver/Src/stm32wbxx_hal_rtc_ex.c **** 
 336:Drivers/STM32WBxx_HAL_Driver/Src/stm32wbxx_hal_rtc_ex.c ****   /* Process Unlocked */
ARM GAS  C:\Users\Nathan\AppData\Local\Temp\ccWT97xY.s 			page 13


 337:Drivers/STM32WBxx_HAL_Driver/Src/stm32wbxx_hal_rtc_ex.c ****   __HAL_UNLOCK(hrtc);
 350              		.loc 1 337 3 is_stmt 1 view .LVU119
 351              		.loc 1 337 3 view .LVU120
 352 0044 0020     		movs	r0, #0
 353 0046 83F82000 		strb	r0, [r3, #32]
 354              		.loc 1 337 3 view .LVU121
 338:Drivers/STM32WBxx_HAL_Driver/Src/stm32wbxx_hal_rtc_ex.c **** 
 339:Drivers/STM32WBxx_HAL_Driver/Src/stm32wbxx_hal_rtc_ex.c ****   return HAL_OK;
 355              		.loc 1 339 3 view .LVU122
 356              		.loc 1 339 10 is_stmt 0 view .LVU123
 357 004a 7047     		bx	lr
 358              	.LVL24:
 359              	.L19:
 315:Drivers/STM32WBxx_HAL_Driver/Src/stm32wbxx_hal_rtc_ex.c **** 
 360              		.loc 1 315 3 discriminator 1 view .LVU124
 361 004c 0220     		movs	r0, #2
 362              	.LVL25:
 340:Drivers/STM32WBxx_HAL_Driver/Src/stm32wbxx_hal_rtc_ex.c **** }
 363              		.loc 1 340 1 view .LVU125
 364 004e 7047     		bx	lr
 365              		.cfi_endproc
 366              	.LFE1106:
 368              		.section	.text.HAL_RTCEx_SetInternalTimeStamp,"ax",%progbits
 369              		.align	1
 370              		.global	HAL_RTCEx_SetInternalTimeStamp
 371              		.syntax unified
 372              		.thumb
 373              		.thumb_func
 375              	HAL_RTCEx_SetInternalTimeStamp:
 376              	.LVL26:
 377              	.LFB1107:
 341:Drivers/STM32WBxx_HAL_Driver/Src/stm32wbxx_hal_rtc_ex.c **** 
 342:Drivers/STM32WBxx_HAL_Driver/Src/stm32wbxx_hal_rtc_ex.c **** /**
 343:Drivers/STM32WBxx_HAL_Driver/Src/stm32wbxx_hal_rtc_ex.c ****   * @brief  Sets Internal Timestamp.
 344:Drivers/STM32WBxx_HAL_Driver/Src/stm32wbxx_hal_rtc_ex.c ****   * @note   This API must be called before enabling the internal Timestamp feature.
 345:Drivers/STM32WBxx_HAL_Driver/Src/stm32wbxx_hal_rtc_ex.c ****   * @param  hrtc pointer to a RTC_HandleTypeDef structure that contains
 346:Drivers/STM32WBxx_HAL_Driver/Src/stm32wbxx_hal_rtc_ex.c ****   *                the configuration information for RTC.
 347:Drivers/STM32WBxx_HAL_Driver/Src/stm32wbxx_hal_rtc_ex.c ****   * @retval HAL status
 348:Drivers/STM32WBxx_HAL_Driver/Src/stm32wbxx_hal_rtc_ex.c ****   */
 349:Drivers/STM32WBxx_HAL_Driver/Src/stm32wbxx_hal_rtc_ex.c **** HAL_StatusTypeDef HAL_RTCEx_SetInternalTimeStamp(RTC_HandleTypeDef *hrtc)
 350:Drivers/STM32WBxx_HAL_Driver/Src/stm32wbxx_hal_rtc_ex.c **** {
 378              		.loc 1 350 1 is_stmt 1 view -0
 379              		.cfi_startproc
 380              		@ args = 0, pretend = 0, frame = 0
 381              		@ frame_needed = 0, uses_anonymous_args = 0
 382              		@ link register save eliminated.
 351:Drivers/STM32WBxx_HAL_Driver/Src/stm32wbxx_hal_rtc_ex.c ****   /* Process Locked */
 352:Drivers/STM32WBxx_HAL_Driver/Src/stm32wbxx_hal_rtc_ex.c ****   __HAL_LOCK(hrtc);
 383              		.loc 1 352 3 view .LVU127
 384              		.loc 1 352 3 view .LVU128
 385 0000 90F82020 		ldrb	r2, [r0, #32]	@ zero_extendqisi2
 386 0004 012A     		cmp	r2, #1
 387 0006 23D0     		beq	.L22
 350:Drivers/STM32WBxx_HAL_Driver/Src/stm32wbxx_hal_rtc_ex.c ****   /* Process Locked */
 388              		.loc 1 350 1 is_stmt 0 view .LVU129
 389 0008 10B4     		push	{r4}
 390              		.cfi_def_cfa_offset 4
ARM GAS  C:\Users\Nathan\AppData\Local\Temp\ccWT97xY.s 			page 14


 391              		.cfi_offset 4, -4
 392 000a 0346     		mov	r3, r0
 393              		.loc 1 352 3 is_stmt 1 discriminator 2 view .LVU130
 394 000c 0120     		movs	r0, #1
 395              	.LVL27:
 396              		.loc 1 352 3 is_stmt 0 discriminator 2 view .LVU131
 397 000e 83F82000 		strb	r0, [r3, #32]
 398              		.loc 1 352 3 is_stmt 1 discriminator 2 view .LVU132
 353:Drivers/STM32WBxx_HAL_Driver/Src/stm32wbxx_hal_rtc_ex.c **** 
 354:Drivers/STM32WBxx_HAL_Driver/Src/stm32wbxx_hal_rtc_ex.c ****   hrtc->State = HAL_RTC_STATE_BUSY;
 399              		.loc 1 354 3 view .LVU133
 400              		.loc 1 354 15 is_stmt 0 view .LVU134
 401 0012 0222     		movs	r2, #2
 402 0014 83F82120 		strb	r2, [r3, #33]
 355:Drivers/STM32WBxx_HAL_Driver/Src/stm32wbxx_hal_rtc_ex.c **** 
 356:Drivers/STM32WBxx_HAL_Driver/Src/stm32wbxx_hal_rtc_ex.c ****   /* Disable the write protection for RTC registers */
 357:Drivers/STM32WBxx_HAL_Driver/Src/stm32wbxx_hal_rtc_ex.c ****   __HAL_RTC_WRITEPROTECTION_DISABLE(hrtc);
 403              		.loc 1 357 3 is_stmt 1 view .LVU135
 404              		.loc 1 357 3 view .LVU136
 405 0018 1A68     		ldr	r2, [r3]
 406 001a CA21     		movs	r1, #202
 407 001c 5162     		str	r1, [r2, #36]
 408              		.loc 1 357 3 view .LVU137
 409 001e 1A68     		ldr	r2, [r3]
 410 0020 5321     		movs	r1, #83
 411 0022 5162     		str	r1, [r2, #36]
 412              		.loc 1 357 3 view .LVU138
 358:Drivers/STM32WBxx_HAL_Driver/Src/stm32wbxx_hal_rtc_ex.c **** 
 359:Drivers/STM32WBxx_HAL_Driver/Src/stm32wbxx_hal_rtc_ex.c ****   /* Clear the internal Timestamp flag */
 360:Drivers/STM32WBxx_HAL_Driver/Src/stm32wbxx_hal_rtc_ex.c ****   __HAL_RTC_INTERNAL_TIMESTAMP_CLEAR_FLAG(hrtc, RTC_FLAG_ITSF);
 413              		.loc 1 360 3 view .LVU139
 414 0024 1C68     		ldr	r4, [r3]
 415 0026 E168     		ldr	r1, [r4, #12]
 416 0028 C9B2     		uxtb	r1, r1
 417 002a 0A4A     		ldr	r2, .L27
 418 002c 0A43     		orrs	r2, r2, r1
 419 002e E260     		str	r2, [r4, #12]
 361:Drivers/STM32WBxx_HAL_Driver/Src/stm32wbxx_hal_rtc_ex.c **** 
 362:Drivers/STM32WBxx_HAL_Driver/Src/stm32wbxx_hal_rtc_ex.c ****   /* Configure the internal Timestamp Enable bits */
 363:Drivers/STM32WBxx_HAL_Driver/Src/stm32wbxx_hal_rtc_ex.c ****   __HAL_RTC_INTERNAL_TIMESTAMP_ENABLE(hrtc);
 420              		.loc 1 363 3 view .LVU140
 421 0030 1968     		ldr	r1, [r3]
 422 0032 8A68     		ldr	r2, [r1, #8]
 423 0034 42F08072 		orr	r2, r2, #16777216
 424 0038 8A60     		str	r2, [r1, #8]
 364:Drivers/STM32WBxx_HAL_Driver/Src/stm32wbxx_hal_rtc_ex.c **** 
 365:Drivers/STM32WBxx_HAL_Driver/Src/stm32wbxx_hal_rtc_ex.c ****   /* Enable the write protection for RTC registers */
 366:Drivers/STM32WBxx_HAL_Driver/Src/stm32wbxx_hal_rtc_ex.c ****   __HAL_RTC_WRITEPROTECTION_ENABLE(hrtc);
 425              		.loc 1 366 3 view .LVU141
 426              		.loc 1 366 3 view .LVU142
 427 003a 1A68     		ldr	r2, [r3]
 428 003c FF21     		movs	r1, #255
 429 003e 5162     		str	r1, [r2, #36]
 430              		.loc 1 366 3 view .LVU143
 367:Drivers/STM32WBxx_HAL_Driver/Src/stm32wbxx_hal_rtc_ex.c **** 
 368:Drivers/STM32WBxx_HAL_Driver/Src/stm32wbxx_hal_rtc_ex.c ****   /* Change RTC state */
 369:Drivers/STM32WBxx_HAL_Driver/Src/stm32wbxx_hal_rtc_ex.c ****   hrtc->State = HAL_RTC_STATE_READY;
ARM GAS  C:\Users\Nathan\AppData\Local\Temp\ccWT97xY.s 			page 15


 431              		.loc 1 369 3 view .LVU144
 432              		.loc 1 369 15 is_stmt 0 view .LVU145
 433 0040 83F82100 		strb	r0, [r3, #33]
 370:Drivers/STM32WBxx_HAL_Driver/Src/stm32wbxx_hal_rtc_ex.c **** 
 371:Drivers/STM32WBxx_HAL_Driver/Src/stm32wbxx_hal_rtc_ex.c ****   /* Process Unlocked */
 372:Drivers/STM32WBxx_HAL_Driver/Src/stm32wbxx_hal_rtc_ex.c ****   __HAL_UNLOCK(hrtc);
 434              		.loc 1 372 3 is_stmt 1 view .LVU146
 435              		.loc 1 372 3 view .LVU147
 436 0044 0020     		movs	r0, #0
 437 0046 83F82000 		strb	r0, [r3, #32]
 438              		.loc 1 372 3 view .LVU148
 373:Drivers/STM32WBxx_HAL_Driver/Src/stm32wbxx_hal_rtc_ex.c **** 
 374:Drivers/STM32WBxx_HAL_Driver/Src/stm32wbxx_hal_rtc_ex.c ****   return HAL_OK;
 439              		.loc 1 374 3 view .LVU149
 375:Drivers/STM32WBxx_HAL_Driver/Src/stm32wbxx_hal_rtc_ex.c **** }
 440              		.loc 1 375 1 is_stmt 0 view .LVU150
 441 004a 5DF8044B 		ldr	r4, [sp], #4
 442              		.cfi_restore 4
 443              		.cfi_def_cfa_offset 0
 444 004e 7047     		bx	lr
 445              	.LVL28:
 446              	.L22:
 352:Drivers/STM32WBxx_HAL_Driver/Src/stm32wbxx_hal_rtc_ex.c **** 
 447              		.loc 1 352 3 discriminator 1 view .LVU151
 448 0050 0220     		movs	r0, #2
 449              	.LVL29:
 450              		.loc 1 375 1 view .LVU152
 451 0052 7047     		bx	lr
 452              	.L28:
 453              		.align	2
 454              	.L27:
 455 0054 7FFFFDFF 		.word	-131201
 456              		.cfi_endproc
 457              	.LFE1107:
 459              		.section	.text.HAL_RTCEx_DeactivateInternalTimeStamp,"ax",%progbits
 460              		.align	1
 461              		.global	HAL_RTCEx_DeactivateInternalTimeStamp
 462              		.syntax unified
 463              		.thumb
 464              		.thumb_func
 466              	HAL_RTCEx_DeactivateInternalTimeStamp:
 467              	.LVL30:
 468              	.LFB1108:
 376:Drivers/STM32WBxx_HAL_Driver/Src/stm32wbxx_hal_rtc_ex.c **** 
 377:Drivers/STM32WBxx_HAL_Driver/Src/stm32wbxx_hal_rtc_ex.c **** /**
 378:Drivers/STM32WBxx_HAL_Driver/Src/stm32wbxx_hal_rtc_ex.c ****   * @brief  Deactivates internal Timestamp.
 379:Drivers/STM32WBxx_HAL_Driver/Src/stm32wbxx_hal_rtc_ex.c ****   * @param  hrtc pointer to a RTC_HandleTypeDef structure that contains
 380:Drivers/STM32WBxx_HAL_Driver/Src/stm32wbxx_hal_rtc_ex.c ****   *                the configuration information for RTC.
 381:Drivers/STM32WBxx_HAL_Driver/Src/stm32wbxx_hal_rtc_ex.c ****   * @retval HAL status
 382:Drivers/STM32WBxx_HAL_Driver/Src/stm32wbxx_hal_rtc_ex.c ****   */
 383:Drivers/STM32WBxx_HAL_Driver/Src/stm32wbxx_hal_rtc_ex.c **** HAL_StatusTypeDef HAL_RTCEx_DeactivateInternalTimeStamp(RTC_HandleTypeDef *hrtc)
 384:Drivers/STM32WBxx_HAL_Driver/Src/stm32wbxx_hal_rtc_ex.c **** {
 469              		.loc 1 384 1 is_stmt 1 view -0
 470              		.cfi_startproc
 471              		@ args = 0, pretend = 0, frame = 0
 472              		@ frame_needed = 0, uses_anonymous_args = 0
 473              		@ link register save eliminated.
ARM GAS  C:\Users\Nathan\AppData\Local\Temp\ccWT97xY.s 			page 16


 385:Drivers/STM32WBxx_HAL_Driver/Src/stm32wbxx_hal_rtc_ex.c ****   /* Process Locked */
 386:Drivers/STM32WBxx_HAL_Driver/Src/stm32wbxx_hal_rtc_ex.c ****   __HAL_LOCK(hrtc);
 474              		.loc 1 386 3 view .LVU154
 475              		.loc 1 386 3 view .LVU155
 476 0000 90F82030 		ldrb	r3, [r0, #32]	@ zero_extendqisi2
 477 0004 012B     		cmp	r3, #1
 478 0006 1AD0     		beq	.L31
 479              		.loc 1 386 3 discriminator 2 view .LVU156
 480 0008 0122     		movs	r2, #1
 481 000a 80F82020 		strb	r2, [r0, #32]
 482              		.loc 1 386 3 discriminator 2 view .LVU157
 387:Drivers/STM32WBxx_HAL_Driver/Src/stm32wbxx_hal_rtc_ex.c **** 
 388:Drivers/STM32WBxx_HAL_Driver/Src/stm32wbxx_hal_rtc_ex.c ****   hrtc->State = HAL_RTC_STATE_BUSY;
 483              		.loc 1 388 3 view .LVU158
 484              		.loc 1 388 15 is_stmt 0 view .LVU159
 485 000e 0223     		movs	r3, #2
 486 0010 80F82130 		strb	r3, [r0, #33]
 389:Drivers/STM32WBxx_HAL_Driver/Src/stm32wbxx_hal_rtc_ex.c **** 
 390:Drivers/STM32WBxx_HAL_Driver/Src/stm32wbxx_hal_rtc_ex.c ****   /* Disable the write protection for RTC registers */
 391:Drivers/STM32WBxx_HAL_Driver/Src/stm32wbxx_hal_rtc_ex.c ****   __HAL_RTC_WRITEPROTECTION_DISABLE(hrtc);
 487              		.loc 1 391 3 is_stmt 1 view .LVU160
 488              		.loc 1 391 3 view .LVU161
 489 0014 0368     		ldr	r3, [r0]
 490 0016 CA21     		movs	r1, #202
 491 0018 5962     		str	r1, [r3, #36]
 492              		.loc 1 391 3 view .LVU162
 493 001a 0368     		ldr	r3, [r0]
 494 001c 5321     		movs	r1, #83
 495 001e 5962     		str	r1, [r3, #36]
 496              		.loc 1 391 3 view .LVU163
 392:Drivers/STM32WBxx_HAL_Driver/Src/stm32wbxx_hal_rtc_ex.c **** 
 393:Drivers/STM32WBxx_HAL_Driver/Src/stm32wbxx_hal_rtc_ex.c ****   /* Configure the internal Timestamp Enable bits */
 394:Drivers/STM32WBxx_HAL_Driver/Src/stm32wbxx_hal_rtc_ex.c ****   __HAL_RTC_INTERNAL_TIMESTAMP_DISABLE(hrtc);
 497              		.loc 1 394 3 view .LVU164
 498 0020 0168     		ldr	r1, [r0]
 499 0022 8B68     		ldr	r3, [r1, #8]
 500 0024 23F08073 		bic	r3, r3, #16777216
 501 0028 8B60     		str	r3, [r1, #8]
 395:Drivers/STM32WBxx_HAL_Driver/Src/stm32wbxx_hal_rtc_ex.c **** 
 396:Drivers/STM32WBxx_HAL_Driver/Src/stm32wbxx_hal_rtc_ex.c ****   /* Enable the write protection for RTC registers */
 397:Drivers/STM32WBxx_HAL_Driver/Src/stm32wbxx_hal_rtc_ex.c ****   __HAL_RTC_WRITEPROTECTION_ENABLE(hrtc);
 502              		.loc 1 397 3 view .LVU165
 503              		.loc 1 397 3 view .LVU166
 504 002a 0368     		ldr	r3, [r0]
 505 002c FF21     		movs	r1, #255
 506 002e 5962     		str	r1, [r3, #36]
 507              		.loc 1 397 3 view .LVU167
 398:Drivers/STM32WBxx_HAL_Driver/Src/stm32wbxx_hal_rtc_ex.c **** 
 399:Drivers/STM32WBxx_HAL_Driver/Src/stm32wbxx_hal_rtc_ex.c ****   hrtc->State = HAL_RTC_STATE_READY;
 508              		.loc 1 399 3 view .LVU168
 509              		.loc 1 399 15 is_stmt 0 view .LVU169
 510 0030 80F82120 		strb	r2, [r0, #33]
 400:Drivers/STM32WBxx_HAL_Driver/Src/stm32wbxx_hal_rtc_ex.c **** 
 401:Drivers/STM32WBxx_HAL_Driver/Src/stm32wbxx_hal_rtc_ex.c ****   /* Process Unlocked */
 402:Drivers/STM32WBxx_HAL_Driver/Src/stm32wbxx_hal_rtc_ex.c ****   __HAL_UNLOCK(hrtc);
 511              		.loc 1 402 3 is_stmt 1 view .LVU170
 512              		.loc 1 402 3 view .LVU171
ARM GAS  C:\Users\Nathan\AppData\Local\Temp\ccWT97xY.s 			page 17


 513 0034 0023     		movs	r3, #0
 514 0036 80F82030 		strb	r3, [r0, #32]
 515              		.loc 1 402 3 view .LVU172
 403:Drivers/STM32WBxx_HAL_Driver/Src/stm32wbxx_hal_rtc_ex.c **** 
 404:Drivers/STM32WBxx_HAL_Driver/Src/stm32wbxx_hal_rtc_ex.c ****   return HAL_OK;
 516              		.loc 1 404 3 view .LVU173
 517              		.loc 1 404 10 is_stmt 0 view .LVU174
 518 003a 1846     		mov	r0, r3
 519              	.LVL31:
 520              		.loc 1 404 10 view .LVU175
 521 003c 7047     		bx	lr
 522              	.LVL32:
 523              	.L31:
 386:Drivers/STM32WBxx_HAL_Driver/Src/stm32wbxx_hal_rtc_ex.c **** 
 524              		.loc 1 386 3 discriminator 1 view .LVU176
 525 003e 0220     		movs	r0, #2
 526              	.LVL33:
 405:Drivers/STM32WBxx_HAL_Driver/Src/stm32wbxx_hal_rtc_ex.c **** }
 527              		.loc 1 405 1 view .LVU177
 528 0040 7047     		bx	lr
 529              		.cfi_endproc
 530              	.LFE1108:
 532              		.section	.text.HAL_RTCEx_GetTimeStamp,"ax",%progbits
 533              		.align	1
 534              		.global	HAL_RTCEx_GetTimeStamp
 535              		.syntax unified
 536              		.thumb
 537              		.thumb_func
 539              	HAL_RTCEx_GetTimeStamp:
 540              	.LVL34:
 541              	.LFB1109:
 406:Drivers/STM32WBxx_HAL_Driver/Src/stm32wbxx_hal_rtc_ex.c **** 
 407:Drivers/STM32WBxx_HAL_Driver/Src/stm32wbxx_hal_rtc_ex.c **** /**
 408:Drivers/STM32WBxx_HAL_Driver/Src/stm32wbxx_hal_rtc_ex.c ****   * @brief  Gets the RTC Timestamp value.
 409:Drivers/STM32WBxx_HAL_Driver/Src/stm32wbxx_hal_rtc_ex.c ****   * @param  hrtc pointer to a RTC_HandleTypeDef structure that contains
 410:Drivers/STM32WBxx_HAL_Driver/Src/stm32wbxx_hal_rtc_ex.c ****   *                the configuration information for RTC.
 411:Drivers/STM32WBxx_HAL_Driver/Src/stm32wbxx_hal_rtc_ex.c ****   * @param  sTimeStamp Pointer to Time structure
 412:Drivers/STM32WBxx_HAL_Driver/Src/stm32wbxx_hal_rtc_ex.c ****   * @param  sTimeStampDate Pointer to Date structure
 413:Drivers/STM32WBxx_HAL_Driver/Src/stm32wbxx_hal_rtc_ex.c ****   * @param  Format specifies the format of the entered parameters.
 414:Drivers/STM32WBxx_HAL_Driver/Src/stm32wbxx_hal_rtc_ex.c ****   *          This parameter can be one of the following values:
 415:Drivers/STM32WBxx_HAL_Driver/Src/stm32wbxx_hal_rtc_ex.c ****   *             @arg RTC_FORMAT_BIN: Binary data format
 416:Drivers/STM32WBxx_HAL_Driver/Src/stm32wbxx_hal_rtc_ex.c ****   *             @arg RTC_FORMAT_BCD: BCD data format
 417:Drivers/STM32WBxx_HAL_Driver/Src/stm32wbxx_hal_rtc_ex.c ****   * @retval HAL status
 418:Drivers/STM32WBxx_HAL_Driver/Src/stm32wbxx_hal_rtc_ex.c ****   */
 419:Drivers/STM32WBxx_HAL_Driver/Src/stm32wbxx_hal_rtc_ex.c **** HAL_StatusTypeDef HAL_RTCEx_GetTimeStamp(RTC_HandleTypeDef *hrtc, RTC_TimeTypeDef *sTimeStamp, RTC_
 420:Drivers/STM32WBxx_HAL_Driver/Src/stm32wbxx_hal_rtc_ex.c **** {
 542              		.loc 1 420 1 is_stmt 1 view -0
 543              		.cfi_startproc
 544              		@ args = 0, pretend = 0, frame = 0
 545              		@ frame_needed = 0, uses_anonymous_args = 0
 546              		.loc 1 420 1 is_stmt 0 view .LVU179
 547 0000 70B5     		push	{r4, r5, r6, lr}
 548              		.cfi_def_cfa_offset 16
 549              		.cfi_offset 4, -16
 550              		.cfi_offset 5, -12
 551              		.cfi_offset 6, -8
 552              		.cfi_offset 14, -4
ARM GAS  C:\Users\Nathan\AppData\Local\Temp\ccWT97xY.s 			page 18


 553 0002 0646     		mov	r6, r0
 554 0004 0C46     		mov	r4, r1
 555 0006 1546     		mov	r5, r2
 421:Drivers/STM32WBxx_HAL_Driver/Src/stm32wbxx_hal_rtc_ex.c ****   uint32_t tmptime = 0U;
 556              		.loc 1 421 3 is_stmt 1 view .LVU180
 557              	.LVL35:
 422:Drivers/STM32WBxx_HAL_Driver/Src/stm32wbxx_hal_rtc_ex.c ****   uint32_t tmpdate = 0U;
 558              		.loc 1 422 3 view .LVU181
 423:Drivers/STM32WBxx_HAL_Driver/Src/stm32wbxx_hal_rtc_ex.c **** 
 424:Drivers/STM32WBxx_HAL_Driver/Src/stm32wbxx_hal_rtc_ex.c ****   /* Check the parameters */
 425:Drivers/STM32WBxx_HAL_Driver/Src/stm32wbxx_hal_rtc_ex.c ****   assert_param(IS_RTC_FORMAT(Format));
 559              		.loc 1 425 3 view .LVU182
 426:Drivers/STM32WBxx_HAL_Driver/Src/stm32wbxx_hal_rtc_ex.c **** 
 427:Drivers/STM32WBxx_HAL_Driver/Src/stm32wbxx_hal_rtc_ex.c ****   /* Get the Timestamp time and date registers values */
 428:Drivers/STM32WBxx_HAL_Driver/Src/stm32wbxx_hal_rtc_ex.c ****   tmptime = (uint32_t)(hrtc->Instance->TSTR & RTC_TR_RESERVED_MASK);
 560              		.loc 1 428 3 view .LVU183
 561              		.loc 1 428 28 is_stmt 0 view .LVU184
 562 0008 0168     		ldr	r1, [r0]
 563              	.LVL36:
 564              		.loc 1 428 38 view .LVU185
 565 000a 0A6B     		ldr	r2, [r1, #48]
 566              	.LVL37:
 429:Drivers/STM32WBxx_HAL_Driver/Src/stm32wbxx_hal_rtc_ex.c ****   tmpdate = (uint32_t)(hrtc->Instance->TSDR & RTC_DR_RESERVED_MASK);
 567              		.loc 1 429 3 is_stmt 1 view .LVU186
 568              		.loc 1 429 38 is_stmt 0 view .LVU187
 569 000c 496B     		ldr	r1, [r1, #52]
 570              	.LVL38:
 430:Drivers/STM32WBxx_HAL_Driver/Src/stm32wbxx_hal_rtc_ex.c **** 
 431:Drivers/STM32WBxx_HAL_Driver/Src/stm32wbxx_hal_rtc_ex.c ****   /* Fill the Time structure fields with the read parameters */
 432:Drivers/STM32WBxx_HAL_Driver/Src/stm32wbxx_hal_rtc_ex.c ****   sTimeStamp->Hours      = (uint8_t)((tmptime & (RTC_TSTR_HT  | RTC_TSTR_HU))  >> RTC_TSTR_HU_Pos);
 571              		.loc 1 432 3 is_stmt 1 view .LVU188
 572              		.loc 1 432 28 is_stmt 0 view .LVU189
 573 000e C2F30540 		ubfx	r0, r2, #16, #6
 574              	.LVL39:
 575              		.loc 1 432 26 view .LVU190
 576 0012 2070     		strb	r0, [r4]
 433:Drivers/STM32WBxx_HAL_Driver/Src/stm32wbxx_hal_rtc_ex.c ****   sTimeStamp->Minutes    = (uint8_t)((tmptime & (RTC_TSTR_MNT | RTC_TSTR_MNU)) >> RTC_TSTR_MNU_Pos)
 577              		.loc 1 433 3 is_stmt 1 view .LVU191
 578              		.loc 1 433 28 is_stmt 0 view .LVU192
 579 0014 C2F30620 		ubfx	r0, r2, #8, #7
 580              		.loc 1 433 26 view .LVU193
 581 0018 6070     		strb	r0, [r4, #1]
 434:Drivers/STM32WBxx_HAL_Driver/Src/stm32wbxx_hal_rtc_ex.c ****   sTimeStamp->Seconds    = (uint8_t)((tmptime & (RTC_TSTR_ST  | RTC_TSTR_SU))  >> RTC_TSTR_SU_Pos);
 582              		.loc 1 434 3 is_stmt 1 view .LVU194
 583              		.loc 1 434 28 is_stmt 0 view .LVU195
 584 001a 02F07F00 		and	r0, r2, #127
 585              		.loc 1 434 26 view .LVU196
 586 001e A070     		strb	r0, [r4, #2]
 435:Drivers/STM32WBxx_HAL_Driver/Src/stm32wbxx_hal_rtc_ex.c ****   sTimeStamp->TimeFormat = (uint8_t)((tmptime & (RTC_TSTR_PM))                 >> RTC_TSTR_PM_Pos);
 587              		.loc 1 435 3 is_stmt 1 view .LVU197
 588              		.loc 1 435 28 is_stmt 0 view .LVU198
 589 0020 C2F38052 		ubfx	r2, r2, #22, #1
 590              	.LVL40:
 591              		.loc 1 435 26 view .LVU199
 592 0024 E270     		strb	r2, [r4, #3]
 436:Drivers/STM32WBxx_HAL_Driver/Src/stm32wbxx_hal_rtc_ex.c ****   sTimeStamp->SubSeconds = (uint32_t) hrtc->Instance->TSSSR;
 593              		.loc 1 436 3 is_stmt 1 view .LVU200
ARM GAS  C:\Users\Nathan\AppData\Local\Temp\ccWT97xY.s 			page 19


 594              		.loc 1 436 43 is_stmt 0 view .LVU201
 595 0026 3268     		ldr	r2, [r6]
 596              		.loc 1 436 53 view .LVU202
 597 0028 926B     		ldr	r2, [r2, #56]
 598              		.loc 1 436 26 view .LVU203
 599 002a 6260     		str	r2, [r4, #4]
 437:Drivers/STM32WBxx_HAL_Driver/Src/stm32wbxx_hal_rtc_ex.c **** 
 438:Drivers/STM32WBxx_HAL_Driver/Src/stm32wbxx_hal_rtc_ex.c ****   /* Fill the Date structure fields with the read parameters */
 439:Drivers/STM32WBxx_HAL_Driver/Src/stm32wbxx_hal_rtc_ex.c ****   sTimeStampDate->Year    = 0U;
 600              		.loc 1 439 3 is_stmt 1 view .LVU204
 601              		.loc 1 439 27 is_stmt 0 view .LVU205
 602 002c 0022     		movs	r2, #0
 603 002e EA70     		strb	r2, [r5, #3]
 440:Drivers/STM32WBxx_HAL_Driver/Src/stm32wbxx_hal_rtc_ex.c ****   sTimeStampDate->Month   = (uint8_t)((tmpdate & (RTC_TSDR_MT | RTC_TSDR_MU)) >> RTC_TSDR_MU_Pos);
 604              		.loc 1 440 3 is_stmt 1 view .LVU206
 605              		.loc 1 440 29 is_stmt 0 view .LVU207
 606 0030 C1F30422 		ubfx	r2, r1, #8, #5
 607              		.loc 1 440 27 view .LVU208
 608 0034 6A70     		strb	r2, [r5, #1]
 441:Drivers/STM32WBxx_HAL_Driver/Src/stm32wbxx_hal_rtc_ex.c ****   sTimeStampDate->Date    = (uint8_t)((tmpdate & (RTC_TSDR_DT | RTC_TSDR_DU)) >> RTC_TSDR_DU_Pos);
 609              		.loc 1 441 3 is_stmt 1 view .LVU209
 610              		.loc 1 441 29 is_stmt 0 view .LVU210
 611 0036 01F03F02 		and	r2, r1, #63
 612              		.loc 1 441 27 view .LVU211
 613 003a AA70     		strb	r2, [r5, #2]
 442:Drivers/STM32WBxx_HAL_Driver/Src/stm32wbxx_hal_rtc_ex.c ****   sTimeStampDate->WeekDay = (uint8_t)((tmpdate & (RTC_TSDR_WDU))              >> RTC_TSDR_WDU_Pos);
 614              		.loc 1 442 3 is_stmt 1 view .LVU212
 615              		.loc 1 442 29 is_stmt 0 view .LVU213
 616 003c C1F34231 		ubfx	r1, r1, #13, #3
 617              	.LVL41:
 618              		.loc 1 442 27 view .LVU214
 619 0040 2970     		strb	r1, [r5]
 443:Drivers/STM32WBxx_HAL_Driver/Src/stm32wbxx_hal_rtc_ex.c **** 
 444:Drivers/STM32WBxx_HAL_Driver/Src/stm32wbxx_hal_rtc_ex.c ****   /* Check the input parameters format */
 445:Drivers/STM32WBxx_HAL_Driver/Src/stm32wbxx_hal_rtc_ex.c ****   if (Format == RTC_FORMAT_BIN)
 620              		.loc 1 445 3 is_stmt 1 view .LVU215
 621              		.loc 1 445 6 is_stmt 0 view .LVU216
 622 0042 6BB1     		cbz	r3, .L35
 623              	.LVL42:
 624              	.L33:
 446:Drivers/STM32WBxx_HAL_Driver/Src/stm32wbxx_hal_rtc_ex.c ****   {
 447:Drivers/STM32WBxx_HAL_Driver/Src/stm32wbxx_hal_rtc_ex.c ****     /* Convert the Timestamp structure parameters to Binary format */
 448:Drivers/STM32WBxx_HAL_Driver/Src/stm32wbxx_hal_rtc_ex.c ****     sTimeStamp->Hours   = (uint8_t)RTC_Bcd2ToByte(sTimeStamp->Hours);
 449:Drivers/STM32WBxx_HAL_Driver/Src/stm32wbxx_hal_rtc_ex.c ****     sTimeStamp->Minutes = (uint8_t)RTC_Bcd2ToByte(sTimeStamp->Minutes);
 450:Drivers/STM32WBxx_HAL_Driver/Src/stm32wbxx_hal_rtc_ex.c ****     sTimeStamp->Seconds = (uint8_t)RTC_Bcd2ToByte(sTimeStamp->Seconds);
 451:Drivers/STM32WBxx_HAL_Driver/Src/stm32wbxx_hal_rtc_ex.c **** 
 452:Drivers/STM32WBxx_HAL_Driver/Src/stm32wbxx_hal_rtc_ex.c ****     /* Convert the DateTimeStamp structure parameters to Binary format */
 453:Drivers/STM32WBxx_HAL_Driver/Src/stm32wbxx_hal_rtc_ex.c ****     sTimeStampDate->Month   = (uint8_t)RTC_Bcd2ToByte(sTimeStampDate->Month);
 454:Drivers/STM32WBxx_HAL_Driver/Src/stm32wbxx_hal_rtc_ex.c ****     sTimeStampDate->Date    = (uint8_t)RTC_Bcd2ToByte(sTimeStampDate->Date);
 455:Drivers/STM32WBxx_HAL_Driver/Src/stm32wbxx_hal_rtc_ex.c ****     sTimeStampDate->WeekDay = (uint8_t)RTC_Bcd2ToByte(sTimeStampDate->WeekDay);
 456:Drivers/STM32WBxx_HAL_Driver/Src/stm32wbxx_hal_rtc_ex.c ****   }
 457:Drivers/STM32WBxx_HAL_Driver/Src/stm32wbxx_hal_rtc_ex.c **** 
 458:Drivers/STM32WBxx_HAL_Driver/Src/stm32wbxx_hal_rtc_ex.c ****   /* Clear the internal Timestamp Flag */
 459:Drivers/STM32WBxx_HAL_Driver/Src/stm32wbxx_hal_rtc_ex.c ****   __HAL_RTC_INTERNAL_TIMESTAMP_CLEAR_FLAG(hrtc, RTC_FLAG_ITSF);
 625              		.loc 1 459 3 is_stmt 1 view .LVU217
 626 0044 3168     		ldr	r1, [r6]
 627 0046 CA68     		ldr	r2, [r1, #12]
ARM GAS  C:\Users\Nathan\AppData\Local\Temp\ccWT97xY.s 			page 20


 628 0048 D2B2     		uxtb	r2, r2
 629 004a 124B     		ldr	r3, .L36
 630 004c 1343     		orrs	r3, r3, r2
 631 004e CB60     		str	r3, [r1, #12]
 460:Drivers/STM32WBxx_HAL_Driver/Src/stm32wbxx_hal_rtc_ex.c **** 
 461:Drivers/STM32WBxx_HAL_Driver/Src/stm32wbxx_hal_rtc_ex.c ****   /* Clear the Timestamp Flag */
 462:Drivers/STM32WBxx_HAL_Driver/Src/stm32wbxx_hal_rtc_ex.c ****   __HAL_RTC_TIMESTAMP_CLEAR_FLAG(hrtc, RTC_FLAG_TSF);
 632              		.loc 1 462 3 view .LVU218
 633 0050 3268     		ldr	r2, [r6]
 634 0052 D368     		ldr	r3, [r2, #12]
 635 0054 DBB2     		uxtb	r3, r3
 636 0056 63F40863 		orn	r3, r3, #2176
 637 005a D360     		str	r3, [r2, #12]
 463:Drivers/STM32WBxx_HAL_Driver/Src/stm32wbxx_hal_rtc_ex.c **** 
 464:Drivers/STM32WBxx_HAL_Driver/Src/stm32wbxx_hal_rtc_ex.c ****   return HAL_OK;
 638              		.loc 1 464 3 view .LVU219
 465:Drivers/STM32WBxx_HAL_Driver/Src/stm32wbxx_hal_rtc_ex.c **** }
 639              		.loc 1 465 1 is_stmt 0 view .LVU220
 640 005c 0020     		movs	r0, #0
 641 005e 70BD     		pop	{r4, r5, r6, pc}
 642              	.LVL43:
 643              	.L35:
 448:Drivers/STM32WBxx_HAL_Driver/Src/stm32wbxx_hal_rtc_ex.c ****     sTimeStamp->Minutes = (uint8_t)RTC_Bcd2ToByte(sTimeStamp->Minutes);
 644              		.loc 1 448 5 is_stmt 1 view .LVU221
 448:Drivers/STM32WBxx_HAL_Driver/Src/stm32wbxx_hal_rtc_ex.c ****     sTimeStamp->Minutes = (uint8_t)RTC_Bcd2ToByte(sTimeStamp->Minutes);
 645              		.loc 1 448 36 is_stmt 0 view .LVU222
 646 0060 2078     		ldrb	r0, [r4]	@ zero_extendqisi2
 647 0062 FFF7FEFF 		bl	RTC_Bcd2ToByte
 648              	.LVL44:
 448:Drivers/STM32WBxx_HAL_Driver/Src/stm32wbxx_hal_rtc_ex.c ****     sTimeStamp->Minutes = (uint8_t)RTC_Bcd2ToByte(sTimeStamp->Minutes);
 649              		.loc 1 448 25 discriminator 1 view .LVU223
 650 0066 2070     		strb	r0, [r4]
 449:Drivers/STM32WBxx_HAL_Driver/Src/stm32wbxx_hal_rtc_ex.c ****     sTimeStamp->Seconds = (uint8_t)RTC_Bcd2ToByte(sTimeStamp->Seconds);
 651              		.loc 1 449 5 is_stmt 1 view .LVU224
 449:Drivers/STM32WBxx_HAL_Driver/Src/stm32wbxx_hal_rtc_ex.c ****     sTimeStamp->Seconds = (uint8_t)RTC_Bcd2ToByte(sTimeStamp->Seconds);
 652              		.loc 1 449 36 is_stmt 0 view .LVU225
 653 0068 6078     		ldrb	r0, [r4, #1]	@ zero_extendqisi2
 654 006a FFF7FEFF 		bl	RTC_Bcd2ToByte
 655              	.LVL45:
 449:Drivers/STM32WBxx_HAL_Driver/Src/stm32wbxx_hal_rtc_ex.c ****     sTimeStamp->Seconds = (uint8_t)RTC_Bcd2ToByte(sTimeStamp->Seconds);
 656              		.loc 1 449 25 discriminator 1 view .LVU226
 657 006e 6070     		strb	r0, [r4, #1]
 450:Drivers/STM32WBxx_HAL_Driver/Src/stm32wbxx_hal_rtc_ex.c **** 
 658              		.loc 1 450 5 is_stmt 1 view .LVU227
 450:Drivers/STM32WBxx_HAL_Driver/Src/stm32wbxx_hal_rtc_ex.c **** 
 659              		.loc 1 450 36 is_stmt 0 view .LVU228
 660 0070 A078     		ldrb	r0, [r4, #2]	@ zero_extendqisi2
 661 0072 FFF7FEFF 		bl	RTC_Bcd2ToByte
 662              	.LVL46:
 450:Drivers/STM32WBxx_HAL_Driver/Src/stm32wbxx_hal_rtc_ex.c **** 
 663              		.loc 1 450 25 discriminator 1 view .LVU229
 664 0076 A070     		strb	r0, [r4, #2]
 453:Drivers/STM32WBxx_HAL_Driver/Src/stm32wbxx_hal_rtc_ex.c ****     sTimeStampDate->Date    = (uint8_t)RTC_Bcd2ToByte(sTimeStampDate->Date);
 665              		.loc 1 453 5 is_stmt 1 view .LVU230
 453:Drivers/STM32WBxx_HAL_Driver/Src/stm32wbxx_hal_rtc_ex.c ****     sTimeStampDate->Date    = (uint8_t)RTC_Bcd2ToByte(sTimeStampDate->Date);
 666              		.loc 1 453 40 is_stmt 0 view .LVU231
 667 0078 6878     		ldrb	r0, [r5, #1]	@ zero_extendqisi2
ARM GAS  C:\Users\Nathan\AppData\Local\Temp\ccWT97xY.s 			page 21


 668 007a FFF7FEFF 		bl	RTC_Bcd2ToByte
 669              	.LVL47:
 453:Drivers/STM32WBxx_HAL_Driver/Src/stm32wbxx_hal_rtc_ex.c ****     sTimeStampDate->Date    = (uint8_t)RTC_Bcd2ToByte(sTimeStampDate->Date);
 670              		.loc 1 453 29 discriminator 1 view .LVU232
 671 007e 6870     		strb	r0, [r5, #1]
 454:Drivers/STM32WBxx_HAL_Driver/Src/stm32wbxx_hal_rtc_ex.c ****     sTimeStampDate->WeekDay = (uint8_t)RTC_Bcd2ToByte(sTimeStampDate->WeekDay);
 672              		.loc 1 454 5 is_stmt 1 view .LVU233
 454:Drivers/STM32WBxx_HAL_Driver/Src/stm32wbxx_hal_rtc_ex.c ****     sTimeStampDate->WeekDay = (uint8_t)RTC_Bcd2ToByte(sTimeStampDate->WeekDay);
 673              		.loc 1 454 40 is_stmt 0 view .LVU234
 674 0080 A878     		ldrb	r0, [r5, #2]	@ zero_extendqisi2
 675 0082 FFF7FEFF 		bl	RTC_Bcd2ToByte
 676              	.LVL48:
 454:Drivers/STM32WBxx_HAL_Driver/Src/stm32wbxx_hal_rtc_ex.c ****     sTimeStampDate->WeekDay = (uint8_t)RTC_Bcd2ToByte(sTimeStampDate->WeekDay);
 677              		.loc 1 454 29 discriminator 1 view .LVU235
 678 0086 A870     		strb	r0, [r5, #2]
 455:Drivers/STM32WBxx_HAL_Driver/Src/stm32wbxx_hal_rtc_ex.c ****   }
 679              		.loc 1 455 5 is_stmt 1 view .LVU236
 455:Drivers/STM32WBxx_HAL_Driver/Src/stm32wbxx_hal_rtc_ex.c ****   }
 680              		.loc 1 455 40 is_stmt 0 view .LVU237
 681 0088 2878     		ldrb	r0, [r5]	@ zero_extendqisi2
 682 008a FFF7FEFF 		bl	RTC_Bcd2ToByte
 683              	.LVL49:
 455:Drivers/STM32WBxx_HAL_Driver/Src/stm32wbxx_hal_rtc_ex.c ****   }
 684              		.loc 1 455 29 discriminator 1 view .LVU238
 685 008e 2870     		strb	r0, [r5]
 686 0090 D8E7     		b	.L33
 687              	.L37:
 688 0092 00BF     		.align	2
 689              	.L36:
 690 0094 7FFFFDFF 		.word	-131201
 691              		.cfi_endproc
 692              	.LFE1109:
 694              		.section	.text.HAL_RTCEx_SetTamper,"ax",%progbits
 695              		.align	1
 696              		.global	HAL_RTCEx_SetTamper
 697              		.syntax unified
 698              		.thumb
 699              		.thumb_func
 701              	HAL_RTCEx_SetTamper:
 702              	.LVL50:
 703              	.LFB1110:
 466:Drivers/STM32WBxx_HAL_Driver/Src/stm32wbxx_hal_rtc_ex.c **** 
 467:Drivers/STM32WBxx_HAL_Driver/Src/stm32wbxx_hal_rtc_ex.c **** /**
 468:Drivers/STM32WBxx_HAL_Driver/Src/stm32wbxx_hal_rtc_ex.c ****   * @brief  Sets Tamper.
 469:Drivers/STM32WBxx_HAL_Driver/Src/stm32wbxx_hal_rtc_ex.c ****   * @note   By calling this API the tamper global interrupt will be disabled and
 470:Drivers/STM32WBxx_HAL_Driver/Src/stm32wbxx_hal_rtc_ex.c ****   *         the selected tamper's interrupt as well.
 471:Drivers/STM32WBxx_HAL_Driver/Src/stm32wbxx_hal_rtc_ex.c ****   * @param  hrtc pointer to a RTC_HandleTypeDef structure that contains
 472:Drivers/STM32WBxx_HAL_Driver/Src/stm32wbxx_hal_rtc_ex.c ****   *                the configuration information for RTC.
 473:Drivers/STM32WBxx_HAL_Driver/Src/stm32wbxx_hal_rtc_ex.c ****   * @param  sTamper Pointer to Tamper Structure.
 474:Drivers/STM32WBxx_HAL_Driver/Src/stm32wbxx_hal_rtc_ex.c ****   * @retval HAL status
 475:Drivers/STM32WBxx_HAL_Driver/Src/stm32wbxx_hal_rtc_ex.c ****   */
 476:Drivers/STM32WBxx_HAL_Driver/Src/stm32wbxx_hal_rtc_ex.c **** HAL_StatusTypeDef HAL_RTCEx_SetTamper(RTC_HandleTypeDef *hrtc, RTC_TamperTypeDef *sTamper)
 477:Drivers/STM32WBxx_HAL_Driver/Src/stm32wbxx_hal_rtc_ex.c **** {
 704              		.loc 1 477 1 is_stmt 1 view -0
 705              		.cfi_startproc
 706              		@ args = 0, pretend = 0, frame = 0
 707              		@ frame_needed = 0, uses_anonymous_args = 0
ARM GAS  C:\Users\Nathan\AppData\Local\Temp\ccWT97xY.s 			page 22


 708              		@ link register save eliminated.
 478:Drivers/STM32WBxx_HAL_Driver/Src/stm32wbxx_hal_rtc_ex.c ****   uint32_t tmpreg = 0U;
 709              		.loc 1 478 3 view .LVU240
 479:Drivers/STM32WBxx_HAL_Driver/Src/stm32wbxx_hal_rtc_ex.c **** 
 480:Drivers/STM32WBxx_HAL_Driver/Src/stm32wbxx_hal_rtc_ex.c ****   /* Check the parameters */
 481:Drivers/STM32WBxx_HAL_Driver/Src/stm32wbxx_hal_rtc_ex.c ****   assert_param(IS_RTC_TAMPER(sTamper->Tamper));
 710              		.loc 1 481 3 view .LVU241
 482:Drivers/STM32WBxx_HAL_Driver/Src/stm32wbxx_hal_rtc_ex.c ****   assert_param(IS_RTC_TAMPER_TRIGGER(sTamper->Trigger));
 711              		.loc 1 482 3 view .LVU242
 483:Drivers/STM32WBxx_HAL_Driver/Src/stm32wbxx_hal_rtc_ex.c ****   assert_param(IS_RTC_TAMPER_ERASE_MODE(sTamper->NoErase));
 712              		.loc 1 483 3 view .LVU243
 484:Drivers/STM32WBxx_HAL_Driver/Src/stm32wbxx_hal_rtc_ex.c ****   assert_param(IS_RTC_TAMPER_MASKFLAG_STATE(sTamper->MaskFlag));
 713              		.loc 1 484 3 view .LVU244
 485:Drivers/STM32WBxx_HAL_Driver/Src/stm32wbxx_hal_rtc_ex.c ****   assert_param(IS_RTC_TAMPER_FILTER(sTamper->Filter));
 714              		.loc 1 485 3 view .LVU245
 486:Drivers/STM32WBxx_HAL_Driver/Src/stm32wbxx_hal_rtc_ex.c ****   assert_param(IS_RTC_TAMPER_FILTER_CONFIG_CORRECT(sTamper->Filter, sTamper->Trigger));
 715              		.loc 1 486 3 view .LVU246
 487:Drivers/STM32WBxx_HAL_Driver/Src/stm32wbxx_hal_rtc_ex.c ****   assert_param(IS_RTC_TAMPER_SAMPLING_FREQ(sTamper->SamplingFrequency));
 716              		.loc 1 487 3 view .LVU247
 488:Drivers/STM32WBxx_HAL_Driver/Src/stm32wbxx_hal_rtc_ex.c ****   assert_param(IS_RTC_TAMPER_PRECHARGE_DURATION(sTamper->PrechargeDuration));
 717              		.loc 1 488 3 view .LVU248
 489:Drivers/STM32WBxx_HAL_Driver/Src/stm32wbxx_hal_rtc_ex.c ****   assert_param(IS_RTC_TAMPER_PULLUP_STATE(sTamper->TamperPullUp));
 718              		.loc 1 489 3 view .LVU249
 490:Drivers/STM32WBxx_HAL_Driver/Src/stm32wbxx_hal_rtc_ex.c ****   assert_param(IS_RTC_TAMPER_TIMESTAMPONTAMPER_DETECTION(sTamper->TimeStampOnTamperDetection));
 719              		.loc 1 490 3 view .LVU250
 491:Drivers/STM32WBxx_HAL_Driver/Src/stm32wbxx_hal_rtc_ex.c **** 
 492:Drivers/STM32WBxx_HAL_Driver/Src/stm32wbxx_hal_rtc_ex.c ****   /* Process Locked */
 493:Drivers/STM32WBxx_HAL_Driver/Src/stm32wbxx_hal_rtc_ex.c ****   __HAL_LOCK(hrtc);
 720              		.loc 1 493 3 view .LVU251
 721              		.loc 1 493 3 view .LVU252
 722 0000 90F82030 		ldrb	r3, [r0, #32]	@ zero_extendqisi2
 723 0004 012B     		cmp	r3, #1
 724 0006 7FD0     		beq	.L57
 477:Drivers/STM32WBxx_HAL_Driver/Src/stm32wbxx_hal_rtc_ex.c ****   uint32_t tmpreg = 0U;
 725              		.loc 1 477 1 is_stmt 0 view .LVU253
 726 0008 30B4     		push	{r4, r5}
 727              		.cfi_def_cfa_offset 8
 728              		.cfi_offset 4, -8
 729              		.cfi_offset 5, -4
 730 000a 8446     		mov	ip, r0
 731              		.loc 1 493 3 is_stmt 1 discriminator 2 view .LVU254
 732 000c 0123     		movs	r3, #1
 733 000e 80F82030 		strb	r3, [r0, #32]
 734              		.loc 1 493 3 discriminator 2 view .LVU255
 494:Drivers/STM32WBxx_HAL_Driver/Src/stm32wbxx_hal_rtc_ex.c **** 
 495:Drivers/STM32WBxx_HAL_Driver/Src/stm32wbxx_hal_rtc_ex.c ****   hrtc->State = HAL_RTC_STATE_BUSY;
 735              		.loc 1 495 3 view .LVU256
 736              		.loc 1 495 15 is_stmt 0 view .LVU257
 737 0012 0223     		movs	r3, #2
 738 0014 80F82130 		strb	r3, [r0, #33]
 496:Drivers/STM32WBxx_HAL_Driver/Src/stm32wbxx_hal_rtc_ex.c **** 
 497:Drivers/STM32WBxx_HAL_Driver/Src/stm32wbxx_hal_rtc_ex.c ****   /* Copy control register into temporary variable */
 498:Drivers/STM32WBxx_HAL_Driver/Src/stm32wbxx_hal_rtc_ex.c ****   tmpreg = hrtc->Instance->TAMPCR;
 739              		.loc 1 498 3 is_stmt 1 view .LVU258
 740              		.loc 1 498 16 is_stmt 0 view .LVU259
 741 0018 0068     		ldr	r0, [r0]
 742              	.LVL51:
ARM GAS  C:\Users\Nathan\AppData\Local\Temp\ccWT97xY.s 			page 23


 743              		.loc 1 498 10 view .LVU260
 744 001a 036C     		ldr	r3, [r0, #64]
 745              	.LVL52:
 499:Drivers/STM32WBxx_HAL_Driver/Src/stm32wbxx_hal_rtc_ex.c **** 
 500:Drivers/STM32WBxx_HAL_Driver/Src/stm32wbxx_hal_rtc_ex.c ****   /* Enable selected tamper */
 501:Drivers/STM32WBxx_HAL_Driver/Src/stm32wbxx_hal_rtc_ex.c ****   tmpreg |= (sTamper->Tamper);
 746              		.loc 1 501 3 is_stmt 1 view .LVU261
 747              		.loc 1 501 21 is_stmt 0 view .LVU262
 748 001c 0C68     		ldr	r4, [r1]
 749              		.loc 1 501 10 view .LVU263
 750 001e 2343     		orrs	r3, r3, r4
 751              	.LVL53:
 502:Drivers/STM32WBxx_HAL_Driver/Src/stm32wbxx_hal_rtc_ex.c **** 
 503:Drivers/STM32WBxx_HAL_Driver/Src/stm32wbxx_hal_rtc_ex.c ****   /* Configure the tamper trigger bit (this bit is just on the right of the
 504:Drivers/STM32WBxx_HAL_Driver/Src/stm32wbxx_hal_rtc_ex.c ****        tamper enable bit, hence the one-time right shift before updating it) */
 505:Drivers/STM32WBxx_HAL_Driver/Src/stm32wbxx_hal_rtc_ex.c ****   if (sTamper->Trigger == RTC_TAMPERTRIGGER_FALLINGEDGE)
 752              		.loc 1 505 3 is_stmt 1 view .LVU264
 753              		.loc 1 505 14 is_stmt 0 view .LVU265
 754 0020 8A68     		ldr	r2, [r1, #8]
 755              		.loc 1 505 6 view .LVU266
 756 0022 022A     		cmp	r2, #2
 757 0024 4DD0     		beq	.L62
 506:Drivers/STM32WBxx_HAL_Driver/Src/stm32wbxx_hal_rtc_ex.c ****   {
 507:Drivers/STM32WBxx_HAL_Driver/Src/stm32wbxx_hal_rtc_ex.c ****     /* Set the tamper trigger bit (case of falling edge or high level) */
 508:Drivers/STM32WBxx_HAL_Driver/Src/stm32wbxx_hal_rtc_ex.c ****     tmpreg |= (uint32_t)(sTamper->Tamper << 1U);
 509:Drivers/STM32WBxx_HAL_Driver/Src/stm32wbxx_hal_rtc_ex.c ****   }
 510:Drivers/STM32WBxx_HAL_Driver/Src/stm32wbxx_hal_rtc_ex.c ****   else
 511:Drivers/STM32WBxx_HAL_Driver/Src/stm32wbxx_hal_rtc_ex.c ****   {
 512:Drivers/STM32WBxx_HAL_Driver/Src/stm32wbxx_hal_rtc_ex.c ****     /* Clear the tamper trigger bit (case of rising edge or low level) */
 513:Drivers/STM32WBxx_HAL_Driver/Src/stm32wbxx_hal_rtc_ex.c ****     tmpreg &= (uint32_t)~(sTamper->Tamper << 1U);
 758              		.loc 1 513 5 is_stmt 1 view .LVU267
 759              		.loc 1 513 12 is_stmt 0 view .LVU268
 760 0026 23EA4403 		bic	r3, r3, r4, lsl #1
 761              	.LVL54:
 762              	.L41:
 514:Drivers/STM32WBxx_HAL_Driver/Src/stm32wbxx_hal_rtc_ex.c ****   }
 515:Drivers/STM32WBxx_HAL_Driver/Src/stm32wbxx_hal_rtc_ex.c **** 
 516:Drivers/STM32WBxx_HAL_Driver/Src/stm32wbxx_hal_rtc_ex.c ****   /* Configure the backup registers erasure enabling bits */
 517:Drivers/STM32WBxx_HAL_Driver/Src/stm32wbxx_hal_rtc_ex.c ****   if (sTamper->NoErase != RTC_TAMPER_ERASE_BACKUP_ENABLE)
 763              		.loc 1 517 3 is_stmt 1 view .LVU269
 764              		.loc 1 517 14 is_stmt 0 view .LVU270
 765 002a CA68     		ldr	r2, [r1, #12]
 766              		.loc 1 517 6 view .LVU271
 767 002c 002A     		cmp	r2, #0
 768 002e 4BD0     		beq	.L42
 518:Drivers/STM32WBxx_HAL_Driver/Src/stm32wbxx_hal_rtc_ex.c ****   {
 519:Drivers/STM32WBxx_HAL_Driver/Src/stm32wbxx_hal_rtc_ex.c **** #if defined(RTC_TAMPER1_SUPPORT)
 520:Drivers/STM32WBxx_HAL_Driver/Src/stm32wbxx_hal_rtc_ex.c ****     if ((sTamper->Tamper & RTC_TAMPER_1) != 0U)
 769              		.loc 1 520 5 is_stmt 1 view .LVU272
 770              		.loc 1 520 8 is_stmt 0 view .LVU273
 771 0030 14F0010F 		tst	r4, #1
 772 0034 01D0     		beq	.L43
 521:Drivers/STM32WBxx_HAL_Driver/Src/stm32wbxx_hal_rtc_ex.c ****     {
 522:Drivers/STM32WBxx_HAL_Driver/Src/stm32wbxx_hal_rtc_ex.c ****       tmpreg |= (uint32_t)(RTC_TAMPCR_TAMP1NOERASE);
 773              		.loc 1 522 7 is_stmt 1 view .LVU274
 774              		.loc 1 522 14 is_stmt 0 view .LVU275
 775 0036 43F40033 		orr	r3, r3, #131072
ARM GAS  C:\Users\Nathan\AppData\Local\Temp\ccWT97xY.s 			page 24


 776              	.LVL55:
 777              	.L43:
 523:Drivers/STM32WBxx_HAL_Driver/Src/stm32wbxx_hal_rtc_ex.c ****     }
 524:Drivers/STM32WBxx_HAL_Driver/Src/stm32wbxx_hal_rtc_ex.c **** #endif /* RTC_TAMPER1_SUPPORT */
 525:Drivers/STM32WBxx_HAL_Driver/Src/stm32wbxx_hal_rtc_ex.c ****     if ((sTamper->Tamper & RTC_TAMPER_2) != 0U)
 778              		.loc 1 525 5 is_stmt 1 view .LVU276
 779              		.loc 1 525 8 is_stmt 0 view .LVU277
 780 003a 14F0080F 		tst	r4, #8
 781 003e 01D0     		beq	.L44
 526:Drivers/STM32WBxx_HAL_Driver/Src/stm32wbxx_hal_rtc_ex.c ****     {
 527:Drivers/STM32WBxx_HAL_Driver/Src/stm32wbxx_hal_rtc_ex.c ****       tmpreg |= (uint32_t)(RTC_TAMPCR_TAMP2NOERASE);
 782              		.loc 1 527 7 is_stmt 1 view .LVU278
 783              		.loc 1 527 14 is_stmt 0 view .LVU279
 784 0040 43F48013 		orr	r3, r3, #1048576
 785              	.LVL56:
 786              	.L44:
 528:Drivers/STM32WBxx_HAL_Driver/Src/stm32wbxx_hal_rtc_ex.c ****     }
 529:Drivers/STM32WBxx_HAL_Driver/Src/stm32wbxx_hal_rtc_ex.c **** #if defined(RTC_TAMPER3_SUPPORT)
 530:Drivers/STM32WBxx_HAL_Driver/Src/stm32wbxx_hal_rtc_ex.c ****     if ((sTamper->Tamper & RTC_TAMPER_3) != 0U)
 787              		.loc 1 530 5 is_stmt 1 view .LVU280
 788              		.loc 1 530 8 is_stmt 0 view .LVU281
 789 0044 14F0200F 		tst	r4, #32
 790 0048 01D0     		beq	.L45
 531:Drivers/STM32WBxx_HAL_Driver/Src/stm32wbxx_hal_rtc_ex.c ****     {
 532:Drivers/STM32WBxx_HAL_Driver/Src/stm32wbxx_hal_rtc_ex.c ****       tmpreg |= (uint32_t)(RTC_TAMPCR_TAMP3NOERASE);
 791              		.loc 1 532 7 is_stmt 1 view .LVU282
 792              		.loc 1 532 14 is_stmt 0 view .LVU283
 793 004a 43F40003 		orr	r3, r3, #8388608
 794              	.LVL57:
 795              	.L45:
 533:Drivers/STM32WBxx_HAL_Driver/Src/stm32wbxx_hal_rtc_ex.c ****     }
 534:Drivers/STM32WBxx_HAL_Driver/Src/stm32wbxx_hal_rtc_ex.c **** #endif /* RTC_TAMPER3_SUPPORT */
 535:Drivers/STM32WBxx_HAL_Driver/Src/stm32wbxx_hal_rtc_ex.c ****   }
 536:Drivers/STM32WBxx_HAL_Driver/Src/stm32wbxx_hal_rtc_ex.c ****   else
 537:Drivers/STM32WBxx_HAL_Driver/Src/stm32wbxx_hal_rtc_ex.c ****   {
 538:Drivers/STM32WBxx_HAL_Driver/Src/stm32wbxx_hal_rtc_ex.c **** #if defined(RTC_TAMPER1_SUPPORT)
 539:Drivers/STM32WBxx_HAL_Driver/Src/stm32wbxx_hal_rtc_ex.c ****     if ((sTamper->Tamper & RTC_TAMPER_1) != 0U)
 540:Drivers/STM32WBxx_HAL_Driver/Src/stm32wbxx_hal_rtc_ex.c ****     {
 541:Drivers/STM32WBxx_HAL_Driver/Src/stm32wbxx_hal_rtc_ex.c ****       tmpreg &= (uint32_t)~(RTC_TAMPCR_TAMP1NOERASE);
 542:Drivers/STM32WBxx_HAL_Driver/Src/stm32wbxx_hal_rtc_ex.c ****     }
 543:Drivers/STM32WBxx_HAL_Driver/Src/stm32wbxx_hal_rtc_ex.c **** #endif /* RTC_TAMPER1_SUPPORT */
 544:Drivers/STM32WBxx_HAL_Driver/Src/stm32wbxx_hal_rtc_ex.c ****     if ((sTamper->Tamper & RTC_TAMPER_2) != 0U)
 545:Drivers/STM32WBxx_HAL_Driver/Src/stm32wbxx_hal_rtc_ex.c ****     {
 546:Drivers/STM32WBxx_HAL_Driver/Src/stm32wbxx_hal_rtc_ex.c ****       tmpreg &= (uint32_t)~(RTC_TAMPCR_TAMP2NOERASE);
 547:Drivers/STM32WBxx_HAL_Driver/Src/stm32wbxx_hal_rtc_ex.c ****     }
 548:Drivers/STM32WBxx_HAL_Driver/Src/stm32wbxx_hal_rtc_ex.c **** #if defined(RTC_TAMPER3_SUPPORT)
 549:Drivers/STM32WBxx_HAL_Driver/Src/stm32wbxx_hal_rtc_ex.c ****     if ((sTamper->Tamper & RTC_TAMPER_3) != 0U)
 550:Drivers/STM32WBxx_HAL_Driver/Src/stm32wbxx_hal_rtc_ex.c ****     {
 551:Drivers/STM32WBxx_HAL_Driver/Src/stm32wbxx_hal_rtc_ex.c ****       tmpreg &= (uint32_t)~(RTC_TAMPCR_TAMP3NOERASE);
 552:Drivers/STM32WBxx_HAL_Driver/Src/stm32wbxx_hal_rtc_ex.c ****     }
 553:Drivers/STM32WBxx_HAL_Driver/Src/stm32wbxx_hal_rtc_ex.c **** #endif /* RTC_TAMPER3_SUPPORT */
 554:Drivers/STM32WBxx_HAL_Driver/Src/stm32wbxx_hal_rtc_ex.c ****   }
 555:Drivers/STM32WBxx_HAL_Driver/Src/stm32wbxx_hal_rtc_ex.c **** 
 556:Drivers/STM32WBxx_HAL_Driver/Src/stm32wbxx_hal_rtc_ex.c ****   /* Configure the tamper flags masking bits */
 557:Drivers/STM32WBxx_HAL_Driver/Src/stm32wbxx_hal_rtc_ex.c ****   if (sTamper->MaskFlag != RTC_TAMPERMASK_FLAG_DISABLE)
 796              		.loc 1 557 3 is_stmt 1 view .LVU284
 797              		.loc 1 557 14 is_stmt 0 view .LVU285
ARM GAS  C:\Users\Nathan\AppData\Local\Temp\ccWT97xY.s 			page 25


 798 004e 0A69     		ldr	r2, [r1, #16]
 799              		.loc 1 557 6 view .LVU286
 800 0050 002A     		cmp	r2, #0
 801 0052 49D0     		beq	.L48
 558:Drivers/STM32WBxx_HAL_Driver/Src/stm32wbxx_hal_rtc_ex.c ****   {
 559:Drivers/STM32WBxx_HAL_Driver/Src/stm32wbxx_hal_rtc_ex.c **** #if defined(RTC_TAMPER1_SUPPORT)
 560:Drivers/STM32WBxx_HAL_Driver/Src/stm32wbxx_hal_rtc_ex.c ****     if ((sTamper->Tamper & RTC_TAMPER_1) != 0U)
 802              		.loc 1 560 5 is_stmt 1 view .LVU287
 803              		.loc 1 560 8 is_stmt 0 view .LVU288
 804 0054 14F0010F 		tst	r4, #1
 805 0058 01D0     		beq	.L49
 561:Drivers/STM32WBxx_HAL_Driver/Src/stm32wbxx_hal_rtc_ex.c ****     {
 562:Drivers/STM32WBxx_HAL_Driver/Src/stm32wbxx_hal_rtc_ex.c ****       tmpreg |= (uint32_t)(RTC_TAMPCR_TAMP1MF);
 806              		.loc 1 562 7 is_stmt 1 view .LVU289
 807              		.loc 1 562 14 is_stmt 0 view .LVU290
 808 005a 43F48023 		orr	r3, r3, #262144
 809              	.LVL58:
 810              	.L49:
 563:Drivers/STM32WBxx_HAL_Driver/Src/stm32wbxx_hal_rtc_ex.c ****     }
 564:Drivers/STM32WBxx_HAL_Driver/Src/stm32wbxx_hal_rtc_ex.c **** #endif /* RTC_TAMPER1_SUPPORT */
 565:Drivers/STM32WBxx_HAL_Driver/Src/stm32wbxx_hal_rtc_ex.c ****     if ((sTamper->Tamper & RTC_TAMPER_2) != 0U)
 811              		.loc 1 565 5 is_stmt 1 view .LVU291
 812              		.loc 1 565 8 is_stmt 0 view .LVU292
 813 005e 14F0080F 		tst	r4, #8
 814 0062 01D0     		beq	.L50
 566:Drivers/STM32WBxx_HAL_Driver/Src/stm32wbxx_hal_rtc_ex.c ****     {
 567:Drivers/STM32WBxx_HAL_Driver/Src/stm32wbxx_hal_rtc_ex.c ****       tmpreg |= (uint32_t)(RTC_TAMPCR_TAMP2MF);
 815              		.loc 1 567 7 is_stmt 1 view .LVU293
 816              		.loc 1 567 14 is_stmt 0 view .LVU294
 817 0064 43F40013 		orr	r3, r3, #2097152
 818              	.LVL59:
 819              	.L50:
 568:Drivers/STM32WBxx_HAL_Driver/Src/stm32wbxx_hal_rtc_ex.c ****     }
 569:Drivers/STM32WBxx_HAL_Driver/Src/stm32wbxx_hal_rtc_ex.c **** #if defined(RTC_TAMPER3_SUPPORT)
 570:Drivers/STM32WBxx_HAL_Driver/Src/stm32wbxx_hal_rtc_ex.c ****     if ((sTamper->Tamper & RTC_TAMPER_3) != 0U)
 820              		.loc 1 570 5 is_stmt 1 view .LVU295
 821              		.loc 1 570 8 is_stmt 0 view .LVU296
 822 0068 14F0200F 		tst	r4, #32
 823 006c 01D0     		beq	.L51
 571:Drivers/STM32WBxx_HAL_Driver/Src/stm32wbxx_hal_rtc_ex.c ****     {
 572:Drivers/STM32WBxx_HAL_Driver/Src/stm32wbxx_hal_rtc_ex.c ****       tmpreg |= (uint32_t)(RTC_TAMPCR_TAMP3MF);
 824              		.loc 1 572 7 is_stmt 1 view .LVU297
 825              		.loc 1 572 14 is_stmt 0 view .LVU298
 826 006e 43F08073 		orr	r3, r3, #16777216
 827              	.LVL60:
 828              	.L51:
 573:Drivers/STM32WBxx_HAL_Driver/Src/stm32wbxx_hal_rtc_ex.c ****     }
 574:Drivers/STM32WBxx_HAL_Driver/Src/stm32wbxx_hal_rtc_ex.c **** #endif /* RTC_TAMPER3_SUPPORT */
 575:Drivers/STM32WBxx_HAL_Driver/Src/stm32wbxx_hal_rtc_ex.c ****   }
 576:Drivers/STM32WBxx_HAL_Driver/Src/stm32wbxx_hal_rtc_ex.c ****   else
 577:Drivers/STM32WBxx_HAL_Driver/Src/stm32wbxx_hal_rtc_ex.c ****   {
 578:Drivers/STM32WBxx_HAL_Driver/Src/stm32wbxx_hal_rtc_ex.c **** #if defined(RTC_TAMPER1_SUPPORT)
 579:Drivers/STM32WBxx_HAL_Driver/Src/stm32wbxx_hal_rtc_ex.c ****     if ((sTamper->Tamper & RTC_TAMPER_1) != 0U)
 580:Drivers/STM32WBxx_HAL_Driver/Src/stm32wbxx_hal_rtc_ex.c ****     {
 581:Drivers/STM32WBxx_HAL_Driver/Src/stm32wbxx_hal_rtc_ex.c ****       tmpreg &= (uint32_t)~(RTC_TAMPCR_TAMP1MF);
 582:Drivers/STM32WBxx_HAL_Driver/Src/stm32wbxx_hal_rtc_ex.c ****     }
 583:Drivers/STM32WBxx_HAL_Driver/Src/stm32wbxx_hal_rtc_ex.c **** #endif /* RTC_TAMPER1_SUPPORT */
ARM GAS  C:\Users\Nathan\AppData\Local\Temp\ccWT97xY.s 			page 26


 584:Drivers/STM32WBxx_HAL_Driver/Src/stm32wbxx_hal_rtc_ex.c ****     if ((sTamper->Tamper & RTC_TAMPER_2) != 0U)
 585:Drivers/STM32WBxx_HAL_Driver/Src/stm32wbxx_hal_rtc_ex.c ****     {
 586:Drivers/STM32WBxx_HAL_Driver/Src/stm32wbxx_hal_rtc_ex.c ****       tmpreg &= (uint32_t)~(RTC_TAMPCR_TAMP2MF);
 587:Drivers/STM32WBxx_HAL_Driver/Src/stm32wbxx_hal_rtc_ex.c ****     }
 588:Drivers/STM32WBxx_HAL_Driver/Src/stm32wbxx_hal_rtc_ex.c **** #if defined(RTC_TAMPER3_SUPPORT)
 589:Drivers/STM32WBxx_HAL_Driver/Src/stm32wbxx_hal_rtc_ex.c ****     if ((sTamper->Tamper & RTC_TAMPER_3) != 0U)
 590:Drivers/STM32WBxx_HAL_Driver/Src/stm32wbxx_hal_rtc_ex.c ****     {
 591:Drivers/STM32WBxx_HAL_Driver/Src/stm32wbxx_hal_rtc_ex.c ****       tmpreg &= (uint32_t)~(RTC_TAMPCR_TAMP3MF);
 592:Drivers/STM32WBxx_HAL_Driver/Src/stm32wbxx_hal_rtc_ex.c ****     }
 593:Drivers/STM32WBxx_HAL_Driver/Src/stm32wbxx_hal_rtc_ex.c **** #endif /* RTC_TAMPER3_SUPPORT */
 594:Drivers/STM32WBxx_HAL_Driver/Src/stm32wbxx_hal_rtc_ex.c ****   }
 595:Drivers/STM32WBxx_HAL_Driver/Src/stm32wbxx_hal_rtc_ex.c **** 
 596:Drivers/STM32WBxx_HAL_Driver/Src/stm32wbxx_hal_rtc_ex.c ****   /* Clear remaining fields before setting them */
 597:Drivers/STM32WBxx_HAL_Driver/Src/stm32wbxx_hal_rtc_ex.c ****   tmpreg &= ~(RTC_TAMPERFILTER_MASK              | \
 829              		.loc 1 597 3 is_stmt 1 view .LVU299
 830              		.loc 1 597 10 is_stmt 0 view .LVU300
 831 0072 23F47F42 		bic	r2, r3, #65280
 832 0076 22F08002 		bic	r2, r2, #128
 833              	.LVL61:
 598:Drivers/STM32WBxx_HAL_Driver/Src/stm32wbxx_hal_rtc_ex.c ****               RTC_TAMPERSAMPLINGFREQ_RTCCLK_MASK | \
 599:Drivers/STM32WBxx_HAL_Driver/Src/stm32wbxx_hal_rtc_ex.c ****               RTC_TAMPERPRECHARGEDURATION_MASK   | \
 600:Drivers/STM32WBxx_HAL_Driver/Src/stm32wbxx_hal_rtc_ex.c ****               RTC_TAMPER_PULLUP_MASK             | \
 601:Drivers/STM32WBxx_HAL_Driver/Src/stm32wbxx_hal_rtc_ex.c ****               RTC_TIMESTAMPONTAMPERDETECTION_MASK);
 602:Drivers/STM32WBxx_HAL_Driver/Src/stm32wbxx_hal_rtc_ex.c **** 
 603:Drivers/STM32WBxx_HAL_Driver/Src/stm32wbxx_hal_rtc_ex.c ****   /* Set remaining parameters of desired configuration into temporary variable */
 604:Drivers/STM32WBxx_HAL_Driver/Src/stm32wbxx_hal_rtc_ex.c ****   tmpreg |= ((uint32_t)sTamper->Filter            | \
 834              		.loc 1 604 3 is_stmt 1 view .LVU301
 835              		.loc 1 604 31 is_stmt 0 view .LVU302
 836 007a 4B69     		ldr	r3, [r1, #20]
 837              		.loc 1 604 51 view .LVU303
 838 007c 8D69     		ldr	r5, [r1, #24]
 839 007e 2B43     		orrs	r3, r3, r5
 605:Drivers/STM32WBxx_HAL_Driver/Src/stm32wbxx_hal_rtc_ex.c ****              (uint32_t)sTamper->SamplingFrequency | \
 840              		.loc 1 605 51 view .LVU304
 841 0080 CD69     		ldr	r5, [r1, #28]
 842 0082 2B43     		orrs	r3, r3, r5
 606:Drivers/STM32WBxx_HAL_Driver/Src/stm32wbxx_hal_rtc_ex.c ****              (uint32_t)sTamper->PrechargeDuration | \
 843              		.loc 1 606 51 view .LVU305
 844 0084 0D6A     		ldr	r5, [r1, #32]
 845 0086 2B43     		orrs	r3, r3, r5
 607:Drivers/STM32WBxx_HAL_Driver/Src/stm32wbxx_hal_rtc_ex.c ****              (uint32_t)sTamper->TamperPullUp      | \
 608:Drivers/STM32WBxx_HAL_Driver/Src/stm32wbxx_hal_rtc_ex.c ****              (uint32_t)sTamper->TimeStampOnTamperDetection);
 846              		.loc 1 608 31 view .LVU306
 847 0088 496A     		ldr	r1, [r1, #36]
 848              	.LVL62:
 607:Drivers/STM32WBxx_HAL_Driver/Src/stm32wbxx_hal_rtc_ex.c ****              (uint32_t)sTamper->TamperPullUp      | \
 849              		.loc 1 607 51 view .LVU307
 850 008a 0B43     		orrs	r3, r3, r1
 604:Drivers/STM32WBxx_HAL_Driver/Src/stm32wbxx_hal_rtc_ex.c ****              (uint32_t)sTamper->SamplingFrequency | \
 851              		.loc 1 604 10 view .LVU308
 852 008c 1343     		orrs	r3, r3, r2
 853              	.LVL63:
 609:Drivers/STM32WBxx_HAL_Driver/Src/stm32wbxx_hal_rtc_ex.c **** 
 610:Drivers/STM32WBxx_HAL_Driver/Src/stm32wbxx_hal_rtc_ex.c ****   /* Disable interrupt on selected tamper in case it is enabled */
 611:Drivers/STM32WBxx_HAL_Driver/Src/stm32wbxx_hal_rtc_ex.c **** #if defined(RTC_TAMPER1_SUPPORT)
 612:Drivers/STM32WBxx_HAL_Driver/Src/stm32wbxx_hal_rtc_ex.c ****   if ((sTamper->Tamper & RTC_TAMPER_1) != 0U)
 854              		.loc 1 612 3 is_stmt 1 view .LVU309
ARM GAS  C:\Users\Nathan\AppData\Local\Temp\ccWT97xY.s 			page 27


 855              		.loc 1 612 6 is_stmt 0 view .LVU310
 856 008e 14F0010F 		tst	r4, #1
 857 0092 01D0     		beq	.L54
 613:Drivers/STM32WBxx_HAL_Driver/Src/stm32wbxx_hal_rtc_ex.c ****   {
 614:Drivers/STM32WBxx_HAL_Driver/Src/stm32wbxx_hal_rtc_ex.c ****     tmpreg &= (uint32_t)~RTC_IT_TAMP1;
 858              		.loc 1 614 5 is_stmt 1 view .LVU311
 859              		.loc 1 614 12 is_stmt 0 view .LVU312
 860 0094 23F48033 		bic	r3, r3, #65536
 861              	.LVL64:
 862              	.L54:
 615:Drivers/STM32WBxx_HAL_Driver/Src/stm32wbxx_hal_rtc_ex.c ****   }
 616:Drivers/STM32WBxx_HAL_Driver/Src/stm32wbxx_hal_rtc_ex.c **** #endif /* RTC_TAMPER1_SUPPORT */
 617:Drivers/STM32WBxx_HAL_Driver/Src/stm32wbxx_hal_rtc_ex.c ****   if ((sTamper->Tamper & RTC_TAMPER_2) != 0U)
 863              		.loc 1 617 3 is_stmt 1 view .LVU313
 864              		.loc 1 617 6 is_stmt 0 view .LVU314
 865 0098 14F0080F 		tst	r4, #8
 866 009c 01D0     		beq	.L55
 618:Drivers/STM32WBxx_HAL_Driver/Src/stm32wbxx_hal_rtc_ex.c ****   {
 619:Drivers/STM32WBxx_HAL_Driver/Src/stm32wbxx_hal_rtc_ex.c ****     tmpreg &= (uint32_t)~RTC_IT_TAMP2;
 867              		.loc 1 619 5 is_stmt 1 view .LVU315
 868              		.loc 1 619 12 is_stmt 0 view .LVU316
 869 009e 23F40023 		bic	r3, r3, #524288
 870              	.LVL65:
 871              	.L55:
 620:Drivers/STM32WBxx_HAL_Driver/Src/stm32wbxx_hal_rtc_ex.c ****   }
 621:Drivers/STM32WBxx_HAL_Driver/Src/stm32wbxx_hal_rtc_ex.c **** #if defined(RTC_TAMPER3_SUPPORT)
 622:Drivers/STM32WBxx_HAL_Driver/Src/stm32wbxx_hal_rtc_ex.c ****   if ((sTamper->Tamper & RTC_TAMPER_3) != 0U)
 872              		.loc 1 622 3 is_stmt 1 view .LVU317
 873              		.loc 1 622 6 is_stmt 0 view .LVU318
 874 00a2 14F0200F 		tst	r4, #32
 875 00a6 01D0     		beq	.L56
 623:Drivers/STM32WBxx_HAL_Driver/Src/stm32wbxx_hal_rtc_ex.c ****   {
 624:Drivers/STM32WBxx_HAL_Driver/Src/stm32wbxx_hal_rtc_ex.c ****     tmpreg &= (uint32_t)~RTC_IT_TAMP3;
 876              		.loc 1 624 5 is_stmt 1 view .LVU319
 877              		.loc 1 624 12 is_stmt 0 view .LVU320
 878 00a8 23F48003 		bic	r3, r3, #4194304
 879              	.LVL66:
 880              	.L56:
 625:Drivers/STM32WBxx_HAL_Driver/Src/stm32wbxx_hal_rtc_ex.c ****   }
 626:Drivers/STM32WBxx_HAL_Driver/Src/stm32wbxx_hal_rtc_ex.c **** #endif /* RTC_TAMPER3_SUPPORT */
 627:Drivers/STM32WBxx_HAL_Driver/Src/stm32wbxx_hal_rtc_ex.c **** 
 628:Drivers/STM32WBxx_HAL_Driver/Src/stm32wbxx_hal_rtc_ex.c ****   /* Disable tamper global interrupt in case it is enabled */
 629:Drivers/STM32WBxx_HAL_Driver/Src/stm32wbxx_hal_rtc_ex.c ****   tmpreg &= (uint32_t)~RTC_TAMPCR_TAMPIE;
 881              		.loc 1 629 3 is_stmt 1 view .LVU321
 882              		.loc 1 629 10 is_stmt 0 view .LVU322
 883 00ac 23F00403 		bic	r3, r3, #4
 884              	.LVL67:
 630:Drivers/STM32WBxx_HAL_Driver/Src/stm32wbxx_hal_rtc_ex.c **** 
 631:Drivers/STM32WBxx_HAL_Driver/Src/stm32wbxx_hal_rtc_ex.c ****   /* Copy desired configuration into configuration register */
 632:Drivers/STM32WBxx_HAL_Driver/Src/stm32wbxx_hal_rtc_ex.c ****   hrtc->Instance->TAMPCR = tmpreg;
 885              		.loc 1 632 3 is_stmt 1 view .LVU323
 886              		.loc 1 632 26 is_stmt 0 view .LVU324
 887 00b0 0364     		str	r3, [r0, #64]
 633:Drivers/STM32WBxx_HAL_Driver/Src/stm32wbxx_hal_rtc_ex.c **** 
 634:Drivers/STM32WBxx_HAL_Driver/Src/stm32wbxx_hal_rtc_ex.c ****   hrtc->State = HAL_RTC_STATE_READY;
 888              		.loc 1 634 3 is_stmt 1 view .LVU325
 889              		.loc 1 634 15 is_stmt 0 view .LVU326
ARM GAS  C:\Users\Nathan\AppData\Local\Temp\ccWT97xY.s 			page 28


 890 00b2 0123     		movs	r3, #1
 891              	.LVL68:
 892              		.loc 1 634 15 view .LVU327
 893 00b4 8CF82130 		strb	r3, [ip, #33]
 894              	.LVL69:
 635:Drivers/STM32WBxx_HAL_Driver/Src/stm32wbxx_hal_rtc_ex.c **** 
 636:Drivers/STM32WBxx_HAL_Driver/Src/stm32wbxx_hal_rtc_ex.c ****   /* Process Unlocked */
 637:Drivers/STM32WBxx_HAL_Driver/Src/stm32wbxx_hal_rtc_ex.c ****   __HAL_UNLOCK(hrtc);
 895              		.loc 1 637 3 is_stmt 1 view .LVU328
 896              		.loc 1 637 3 view .LVU329
 897 00b8 0020     		movs	r0, #0
 898 00ba 8CF82000 		strb	r0, [ip, #32]
 899              		.loc 1 637 3 view .LVU330
 638:Drivers/STM32WBxx_HAL_Driver/Src/stm32wbxx_hal_rtc_ex.c **** 
 639:Drivers/STM32WBxx_HAL_Driver/Src/stm32wbxx_hal_rtc_ex.c ****   return HAL_OK;
 900              		.loc 1 639 3 view .LVU331
 640:Drivers/STM32WBxx_HAL_Driver/Src/stm32wbxx_hal_rtc_ex.c **** }
 901              		.loc 1 640 1 is_stmt 0 view .LVU332
 902 00be 30BC     		pop	{r4, r5}
 903              		.cfi_remember_state
 904              		.cfi_restore 5
 905              		.cfi_restore 4
 906              		.cfi_def_cfa_offset 0
 907 00c0 7047     		bx	lr
 908              	.LVL70:
 909              	.L62:
 910              		.cfi_restore_state
 508:Drivers/STM32WBxx_HAL_Driver/Src/stm32wbxx_hal_rtc_ex.c ****   }
 911              		.loc 1 508 5 is_stmt 1 view .LVU333
 508:Drivers/STM32WBxx_HAL_Driver/Src/stm32wbxx_hal_rtc_ex.c ****   }
 912              		.loc 1 508 12 is_stmt 0 view .LVU334
 913 00c2 43EA4403 		orr	r3, r3, r4, lsl #1
 914              	.LVL71:
 508:Drivers/STM32WBxx_HAL_Driver/Src/stm32wbxx_hal_rtc_ex.c ****   }
 915              		.loc 1 508 12 view .LVU335
 916 00c6 B0E7     		b	.L41
 917              	.L42:
 539:Drivers/STM32WBxx_HAL_Driver/Src/stm32wbxx_hal_rtc_ex.c ****     {
 918              		.loc 1 539 5 is_stmt 1 view .LVU336
 539:Drivers/STM32WBxx_HAL_Driver/Src/stm32wbxx_hal_rtc_ex.c ****     {
 919              		.loc 1 539 8 is_stmt 0 view .LVU337
 920 00c8 14F0010F 		tst	r4, #1
 921 00cc 01D0     		beq	.L46
 541:Drivers/STM32WBxx_HAL_Driver/Src/stm32wbxx_hal_rtc_ex.c ****     }
 922              		.loc 1 541 7 is_stmt 1 view .LVU338
 541:Drivers/STM32WBxx_HAL_Driver/Src/stm32wbxx_hal_rtc_ex.c ****     }
 923              		.loc 1 541 14 is_stmt 0 view .LVU339
 924 00ce 23F40033 		bic	r3, r3, #131072
 925              	.LVL72:
 926              	.L46:
 544:Drivers/STM32WBxx_HAL_Driver/Src/stm32wbxx_hal_rtc_ex.c ****     {
 927              		.loc 1 544 5 is_stmt 1 view .LVU340
 544:Drivers/STM32WBxx_HAL_Driver/Src/stm32wbxx_hal_rtc_ex.c ****     {
 928              		.loc 1 544 8 is_stmt 0 view .LVU341
 929 00d2 14F0080F 		tst	r4, #8
 930 00d6 01D0     		beq	.L47
 546:Drivers/STM32WBxx_HAL_Driver/Src/stm32wbxx_hal_rtc_ex.c ****     }
ARM GAS  C:\Users\Nathan\AppData\Local\Temp\ccWT97xY.s 			page 29


 931              		.loc 1 546 7 is_stmt 1 view .LVU342
 546:Drivers/STM32WBxx_HAL_Driver/Src/stm32wbxx_hal_rtc_ex.c ****     }
 932              		.loc 1 546 14 is_stmt 0 view .LVU343
 933 00d8 23F48013 		bic	r3, r3, #1048576
 934              	.LVL73:
 935              	.L47:
 549:Drivers/STM32WBxx_HAL_Driver/Src/stm32wbxx_hal_rtc_ex.c ****     {
 936              		.loc 1 549 5 is_stmt 1 view .LVU344
 549:Drivers/STM32WBxx_HAL_Driver/Src/stm32wbxx_hal_rtc_ex.c ****     {
 937              		.loc 1 549 8 is_stmt 0 view .LVU345
 938 00dc 14F0200F 		tst	r4, #32
 939 00e0 B5D0     		beq	.L45
 551:Drivers/STM32WBxx_HAL_Driver/Src/stm32wbxx_hal_rtc_ex.c ****     }
 940              		.loc 1 551 7 is_stmt 1 view .LVU346
 551:Drivers/STM32WBxx_HAL_Driver/Src/stm32wbxx_hal_rtc_ex.c ****     }
 941              		.loc 1 551 14 is_stmt 0 view .LVU347
 942 00e2 23F40003 		bic	r3, r3, #8388608
 943              	.LVL74:
 551:Drivers/STM32WBxx_HAL_Driver/Src/stm32wbxx_hal_rtc_ex.c ****     }
 944              		.loc 1 551 14 view .LVU348
 945 00e6 B2E7     		b	.L45
 946              	.L48:
 579:Drivers/STM32WBxx_HAL_Driver/Src/stm32wbxx_hal_rtc_ex.c ****     {
 947              		.loc 1 579 5 is_stmt 1 view .LVU349
 579:Drivers/STM32WBxx_HAL_Driver/Src/stm32wbxx_hal_rtc_ex.c ****     {
 948              		.loc 1 579 8 is_stmt 0 view .LVU350
 949 00e8 14F0010F 		tst	r4, #1
 950 00ec 01D0     		beq	.L52
 581:Drivers/STM32WBxx_HAL_Driver/Src/stm32wbxx_hal_rtc_ex.c ****     }
 951              		.loc 1 581 7 is_stmt 1 view .LVU351
 581:Drivers/STM32WBxx_HAL_Driver/Src/stm32wbxx_hal_rtc_ex.c ****     }
 952              		.loc 1 581 14 is_stmt 0 view .LVU352
 953 00ee 23F48023 		bic	r3, r3, #262144
 954              	.LVL75:
 955              	.L52:
 584:Drivers/STM32WBxx_HAL_Driver/Src/stm32wbxx_hal_rtc_ex.c ****     {
 956              		.loc 1 584 5 is_stmt 1 view .LVU353
 584:Drivers/STM32WBxx_HAL_Driver/Src/stm32wbxx_hal_rtc_ex.c ****     {
 957              		.loc 1 584 8 is_stmt 0 view .LVU354
 958 00f2 14F0080F 		tst	r4, #8
 959 00f6 01D0     		beq	.L53
 586:Drivers/STM32WBxx_HAL_Driver/Src/stm32wbxx_hal_rtc_ex.c ****     }
 960              		.loc 1 586 7 is_stmt 1 view .LVU355
 586:Drivers/STM32WBxx_HAL_Driver/Src/stm32wbxx_hal_rtc_ex.c ****     }
 961              		.loc 1 586 14 is_stmt 0 view .LVU356
 962 00f8 23F40013 		bic	r3, r3, #2097152
 963              	.LVL76:
 964              	.L53:
 589:Drivers/STM32WBxx_HAL_Driver/Src/stm32wbxx_hal_rtc_ex.c ****     {
 965              		.loc 1 589 5 is_stmt 1 view .LVU357
 589:Drivers/STM32WBxx_HAL_Driver/Src/stm32wbxx_hal_rtc_ex.c ****     {
 966              		.loc 1 589 8 is_stmt 0 view .LVU358
 967 00fc 14F0200F 		tst	r4, #32
 968 0100 B7D0     		beq	.L51
 591:Drivers/STM32WBxx_HAL_Driver/Src/stm32wbxx_hal_rtc_ex.c ****     }
 969              		.loc 1 591 7 is_stmt 1 view .LVU359
 591:Drivers/STM32WBxx_HAL_Driver/Src/stm32wbxx_hal_rtc_ex.c ****     }
ARM GAS  C:\Users\Nathan\AppData\Local\Temp\ccWT97xY.s 			page 30


 970              		.loc 1 591 14 is_stmt 0 view .LVU360
 971 0102 23F08073 		bic	r3, r3, #16777216
 972              	.LVL77:
 591:Drivers/STM32WBxx_HAL_Driver/Src/stm32wbxx_hal_rtc_ex.c ****     }
 973              		.loc 1 591 14 view .LVU361
 974 0106 B4E7     		b	.L51
 975              	.LVL78:
 976              	.L57:
 977              		.cfi_def_cfa_offset 0
 978              		.cfi_restore 4
 979              		.cfi_restore 5
 493:Drivers/STM32WBxx_HAL_Driver/Src/stm32wbxx_hal_rtc_ex.c **** 
 980              		.loc 1 493 3 discriminator 1 view .LVU362
 981 0108 0220     		movs	r0, #2
 982              	.LVL79:
 983              		.loc 1 640 1 view .LVU363
 984 010a 7047     		bx	lr
 985              		.cfi_endproc
 986              	.LFE1110:
 988              		.section	.text.HAL_RTCEx_SetTamper_IT,"ax",%progbits
 989              		.align	1
 990              		.global	HAL_RTCEx_SetTamper_IT
 991              		.syntax unified
 992              		.thumb
 993              		.thumb_func
 995              	HAL_RTCEx_SetTamper_IT:
 996              	.LVL80:
 997              	.LFB1111:
 641:Drivers/STM32WBxx_HAL_Driver/Src/stm32wbxx_hal_rtc_ex.c **** 
 642:Drivers/STM32WBxx_HAL_Driver/Src/stm32wbxx_hal_rtc_ex.c **** /**
 643:Drivers/STM32WBxx_HAL_Driver/Src/stm32wbxx_hal_rtc_ex.c ****   * @brief  Sets Tamper with interrupt.
 644:Drivers/STM32WBxx_HAL_Driver/Src/stm32wbxx_hal_rtc_ex.c ****   * @note   By setting the tamper global interrupt bit, interrupts will be
 645:Drivers/STM32WBxx_HAL_Driver/Src/stm32wbxx_hal_rtc_ex.c ****   *         enabled for all tampers.
 646:Drivers/STM32WBxx_HAL_Driver/Src/stm32wbxx_hal_rtc_ex.c ****   * @param  hrtc pointer to a RTC_HandleTypeDef structure that contains
 647:Drivers/STM32WBxx_HAL_Driver/Src/stm32wbxx_hal_rtc_ex.c ****   *                the configuration information for RTC.
 648:Drivers/STM32WBxx_HAL_Driver/Src/stm32wbxx_hal_rtc_ex.c ****   * @param  sTamper Pointer to RTC Tamper.
 649:Drivers/STM32WBxx_HAL_Driver/Src/stm32wbxx_hal_rtc_ex.c ****   * @retval HAL status
 650:Drivers/STM32WBxx_HAL_Driver/Src/stm32wbxx_hal_rtc_ex.c ****   */
 651:Drivers/STM32WBxx_HAL_Driver/Src/stm32wbxx_hal_rtc_ex.c **** HAL_StatusTypeDef HAL_RTCEx_SetTamper_IT(RTC_HandleTypeDef *hrtc, RTC_TamperTypeDef *sTamper)
 652:Drivers/STM32WBxx_HAL_Driver/Src/stm32wbxx_hal_rtc_ex.c **** {
 998              		.loc 1 652 1 is_stmt 1 view -0
 999              		.cfi_startproc
 1000              		@ args = 0, pretend = 0, frame = 0
 1001              		@ frame_needed = 0, uses_anonymous_args = 0
 1002              		@ link register save eliminated.
 653:Drivers/STM32WBxx_HAL_Driver/Src/stm32wbxx_hal_rtc_ex.c ****   uint32_t tmpreg = 0U;
 1003              		.loc 1 653 3 view .LVU365
 654:Drivers/STM32WBxx_HAL_Driver/Src/stm32wbxx_hal_rtc_ex.c **** 
 655:Drivers/STM32WBxx_HAL_Driver/Src/stm32wbxx_hal_rtc_ex.c ****   /* Check the parameters */
 656:Drivers/STM32WBxx_HAL_Driver/Src/stm32wbxx_hal_rtc_ex.c ****   assert_param(IS_RTC_TAMPER(sTamper->Tamper));
 1004              		.loc 1 656 3 view .LVU366
 657:Drivers/STM32WBxx_HAL_Driver/Src/stm32wbxx_hal_rtc_ex.c ****   assert_param(IS_RTC_TAMPER_INTERRUPT(sTamper->Interrupt));
 1005              		.loc 1 657 3 view .LVU367
 658:Drivers/STM32WBxx_HAL_Driver/Src/stm32wbxx_hal_rtc_ex.c ****   assert_param(IS_RTC_TAMPER_TRIGGER(sTamper->Trigger));
 1006              		.loc 1 658 3 view .LVU368
 659:Drivers/STM32WBxx_HAL_Driver/Src/stm32wbxx_hal_rtc_ex.c ****   assert_param(IS_RTC_TAMPER_ERASE_MODE(sTamper->NoErase));
 1007              		.loc 1 659 3 view .LVU369
ARM GAS  C:\Users\Nathan\AppData\Local\Temp\ccWT97xY.s 			page 31


 660:Drivers/STM32WBxx_HAL_Driver/Src/stm32wbxx_hal_rtc_ex.c ****   assert_param(IS_RTC_TAMPER_MASKFLAG_STATE(sTamper->MaskFlag));
 1008              		.loc 1 660 3 view .LVU370
 661:Drivers/STM32WBxx_HAL_Driver/Src/stm32wbxx_hal_rtc_ex.c ****   assert_param(IS_RTC_TAMPER_FILTER(sTamper->Filter));
 1009              		.loc 1 661 3 view .LVU371
 662:Drivers/STM32WBxx_HAL_Driver/Src/stm32wbxx_hal_rtc_ex.c ****   assert_param(IS_RTC_TAMPER_FILTER_CONFIG_CORRECT(sTamper->Filter, sTamper->Trigger));
 1010              		.loc 1 662 3 view .LVU372
 663:Drivers/STM32WBxx_HAL_Driver/Src/stm32wbxx_hal_rtc_ex.c ****   assert_param(IS_RTC_TAMPER_SAMPLING_FREQ(sTamper->SamplingFrequency));
 1011              		.loc 1 663 3 view .LVU373
 664:Drivers/STM32WBxx_HAL_Driver/Src/stm32wbxx_hal_rtc_ex.c ****   assert_param(IS_RTC_TAMPER_PRECHARGE_DURATION(sTamper->PrechargeDuration));
 1012              		.loc 1 664 3 view .LVU374
 665:Drivers/STM32WBxx_HAL_Driver/Src/stm32wbxx_hal_rtc_ex.c ****   assert_param(IS_RTC_TAMPER_PULLUP_STATE(sTamper->TamperPullUp));
 1013              		.loc 1 665 3 view .LVU375
 666:Drivers/STM32WBxx_HAL_Driver/Src/stm32wbxx_hal_rtc_ex.c ****   assert_param(IS_RTC_TAMPER_TIMESTAMPONTAMPER_DETECTION(sTamper->TimeStampOnTamperDetection));
 1014              		.loc 1 666 3 view .LVU376
 667:Drivers/STM32WBxx_HAL_Driver/Src/stm32wbxx_hal_rtc_ex.c **** 
 668:Drivers/STM32WBxx_HAL_Driver/Src/stm32wbxx_hal_rtc_ex.c ****   /* Process Locked */
 669:Drivers/STM32WBxx_HAL_Driver/Src/stm32wbxx_hal_rtc_ex.c ****   __HAL_LOCK(hrtc);
 1015              		.loc 1 669 3 view .LVU377
 1016              		.loc 1 669 3 view .LVU378
 1017 0000 90F82030 		ldrb	r3, [r0, #32]	@ zero_extendqisi2
 1018 0004 012B     		cmp	r3, #1
 1019 0006 7AD0     		beq	.L79
 652:Drivers/STM32WBxx_HAL_Driver/Src/stm32wbxx_hal_rtc_ex.c ****   uint32_t tmpreg = 0U;
 1020              		.loc 1 652 1 is_stmt 0 view .LVU379
 1021 0008 10B4     		push	{r4}
 1022              		.cfi_def_cfa_offset 4
 1023              		.cfi_offset 4, -4
 1024 000a 8446     		mov	ip, r0
 1025              		.loc 1 669 3 is_stmt 1 discriminator 2 view .LVU380
 1026 000c 0123     		movs	r3, #1
 1027 000e 80F82030 		strb	r3, [r0, #32]
 1028              		.loc 1 669 3 discriminator 2 view .LVU381
 670:Drivers/STM32WBxx_HAL_Driver/Src/stm32wbxx_hal_rtc_ex.c **** 
 671:Drivers/STM32WBxx_HAL_Driver/Src/stm32wbxx_hal_rtc_ex.c ****   hrtc->State = HAL_RTC_STATE_BUSY;
 1029              		.loc 1 671 3 view .LVU382
 1030              		.loc 1 671 15 is_stmt 0 view .LVU383
 1031 0012 0223     		movs	r3, #2
 1032 0014 80F82130 		strb	r3, [r0, #33]
 672:Drivers/STM32WBxx_HAL_Driver/Src/stm32wbxx_hal_rtc_ex.c **** 
 673:Drivers/STM32WBxx_HAL_Driver/Src/stm32wbxx_hal_rtc_ex.c ****   /* Copy control register into temporary variable */
 674:Drivers/STM32WBxx_HAL_Driver/Src/stm32wbxx_hal_rtc_ex.c ****   tmpreg = hrtc->Instance->TAMPCR;
 1033              		.loc 1 674 3 is_stmt 1 view .LVU384
 1034              		.loc 1 674 16 is_stmt 0 view .LVU385
 1035 0018 0068     		ldr	r0, [r0]
 1036              	.LVL81:
 1037              		.loc 1 674 10 view .LVU386
 1038 001a 036C     		ldr	r3, [r0, #64]
 1039              	.LVL82:
 675:Drivers/STM32WBxx_HAL_Driver/Src/stm32wbxx_hal_rtc_ex.c **** 
 676:Drivers/STM32WBxx_HAL_Driver/Src/stm32wbxx_hal_rtc_ex.c ****   /* Enable selected tamper */
 677:Drivers/STM32WBxx_HAL_Driver/Src/stm32wbxx_hal_rtc_ex.c ****   tmpreg |= (sTamper->Tamper);
 1040              		.loc 1 677 3 is_stmt 1 view .LVU387
 1041              		.loc 1 677 21 is_stmt 0 view .LVU388
 1042 001c 0A68     		ldr	r2, [r1]
 1043              		.loc 1 677 10 view .LVU389
 1044 001e 1343     		orrs	r3, r3, r2
 1045              	.LVL83:
ARM GAS  C:\Users\Nathan\AppData\Local\Temp\ccWT97xY.s 			page 32


 678:Drivers/STM32WBxx_HAL_Driver/Src/stm32wbxx_hal_rtc_ex.c **** 
 679:Drivers/STM32WBxx_HAL_Driver/Src/stm32wbxx_hal_rtc_ex.c ****   /* Configure the tamper trigger bit (this bit is just on the right of the
 680:Drivers/STM32WBxx_HAL_Driver/Src/stm32wbxx_hal_rtc_ex.c ****        tamper enable bit, hence the one-time right shift before updating it) */
 681:Drivers/STM32WBxx_HAL_Driver/Src/stm32wbxx_hal_rtc_ex.c ****   if (sTamper->Trigger == RTC_TAMPERTRIGGER_FALLINGEDGE)
 1046              		.loc 1 681 3 is_stmt 1 view .LVU390
 1047              		.loc 1 681 6 is_stmt 0 view .LVU391
 1048 0020 8C68     		ldr	r4, [r1, #8]
 1049 0022 022C     		cmp	r4, #2
 1050 0024 48D0     		beq	.L84
 682:Drivers/STM32WBxx_HAL_Driver/Src/stm32wbxx_hal_rtc_ex.c ****   {
 683:Drivers/STM32WBxx_HAL_Driver/Src/stm32wbxx_hal_rtc_ex.c ****     /* Set the tamper trigger bit (case of falling edge or high level) */
 684:Drivers/STM32WBxx_HAL_Driver/Src/stm32wbxx_hal_rtc_ex.c ****     tmpreg |= (uint32_t)(sTamper->Tamper << 1U);
 685:Drivers/STM32WBxx_HAL_Driver/Src/stm32wbxx_hal_rtc_ex.c ****   }
 686:Drivers/STM32WBxx_HAL_Driver/Src/stm32wbxx_hal_rtc_ex.c ****   else
 687:Drivers/STM32WBxx_HAL_Driver/Src/stm32wbxx_hal_rtc_ex.c ****   {
 688:Drivers/STM32WBxx_HAL_Driver/Src/stm32wbxx_hal_rtc_ex.c ****     /* Clear the tamper trigger bit (case of rising edge or low level) */
 689:Drivers/STM32WBxx_HAL_Driver/Src/stm32wbxx_hal_rtc_ex.c ****     tmpreg &= (uint32_t)~(sTamper->Tamper << 1U);
 1051              		.loc 1 689 5 is_stmt 1 view .LVU392
 1052              		.loc 1 689 12 is_stmt 0 view .LVU393
 1053 0026 23EA4203 		bic	r3, r3, r2, lsl #1
 1054              	.LVL84:
 1055              	.L66:
 690:Drivers/STM32WBxx_HAL_Driver/Src/stm32wbxx_hal_rtc_ex.c ****   }
 691:Drivers/STM32WBxx_HAL_Driver/Src/stm32wbxx_hal_rtc_ex.c **** 
 692:Drivers/STM32WBxx_HAL_Driver/Src/stm32wbxx_hal_rtc_ex.c ****   /* Configure the backup registers erasure enabling bits */
 693:Drivers/STM32WBxx_HAL_Driver/Src/stm32wbxx_hal_rtc_ex.c ****   if (sTamper->NoErase != RTC_TAMPER_ERASE_BACKUP_ENABLE)
 1056              		.loc 1 693 3 is_stmt 1 view .LVU394
 1057              		.loc 1 693 6 is_stmt 0 view .LVU395
 1058 002a CC68     		ldr	r4, [r1, #12]
 1059 002c 002C     		cmp	r4, #0
 1060 002e 46D0     		beq	.L67
 694:Drivers/STM32WBxx_HAL_Driver/Src/stm32wbxx_hal_rtc_ex.c ****   {
 695:Drivers/STM32WBxx_HAL_Driver/Src/stm32wbxx_hal_rtc_ex.c **** #if defined(RTC_TAMPER1_SUPPORT)
 696:Drivers/STM32WBxx_HAL_Driver/Src/stm32wbxx_hal_rtc_ex.c ****     if ((sTamper->Tamper & RTC_TAMPER_1) != 0U)
 1061              		.loc 1 696 5 is_stmt 1 view .LVU396
 1062              		.loc 1 696 8 is_stmt 0 view .LVU397
 1063 0030 12F0010F 		tst	r2, #1
 1064 0034 01D0     		beq	.L68
 697:Drivers/STM32WBxx_HAL_Driver/Src/stm32wbxx_hal_rtc_ex.c ****     {
 698:Drivers/STM32WBxx_HAL_Driver/Src/stm32wbxx_hal_rtc_ex.c ****       tmpreg |= (uint32_t)(RTC_TAMPCR_TAMP1NOERASE);
 1065              		.loc 1 698 7 is_stmt 1 view .LVU398
 1066              		.loc 1 698 14 is_stmt 0 view .LVU399
 1067 0036 43F40033 		orr	r3, r3, #131072
 1068              	.LVL85:
 1069              	.L68:
 699:Drivers/STM32WBxx_HAL_Driver/Src/stm32wbxx_hal_rtc_ex.c ****     }
 700:Drivers/STM32WBxx_HAL_Driver/Src/stm32wbxx_hal_rtc_ex.c **** #endif /* RTC_TAMPER1_SUPPORT */
 701:Drivers/STM32WBxx_HAL_Driver/Src/stm32wbxx_hal_rtc_ex.c ****     if ((sTamper->Tamper & RTC_TAMPER_2) != 0U)
 1070              		.loc 1 701 5 is_stmt 1 view .LVU400
 1071              		.loc 1 701 8 is_stmt 0 view .LVU401
 1072 003a 12F0080F 		tst	r2, #8
 1073 003e 01D0     		beq	.L69
 702:Drivers/STM32WBxx_HAL_Driver/Src/stm32wbxx_hal_rtc_ex.c ****     {
 703:Drivers/STM32WBxx_HAL_Driver/Src/stm32wbxx_hal_rtc_ex.c ****       tmpreg |= (uint32_t)(RTC_TAMPCR_TAMP2NOERASE);
 1074              		.loc 1 703 7 is_stmt 1 view .LVU402
 1075              		.loc 1 703 14 is_stmt 0 view .LVU403
 1076 0040 43F48013 		orr	r3, r3, #1048576
ARM GAS  C:\Users\Nathan\AppData\Local\Temp\ccWT97xY.s 			page 33


 1077              	.LVL86:
 1078              	.L69:
 704:Drivers/STM32WBxx_HAL_Driver/Src/stm32wbxx_hal_rtc_ex.c ****     }
 705:Drivers/STM32WBxx_HAL_Driver/Src/stm32wbxx_hal_rtc_ex.c **** #if defined(RTC_TAMPER3_SUPPORT)
 706:Drivers/STM32WBxx_HAL_Driver/Src/stm32wbxx_hal_rtc_ex.c ****     if ((sTamper->Tamper & RTC_TAMPER_3) != 0U)
 1079              		.loc 1 706 5 is_stmt 1 view .LVU404
 1080              		.loc 1 706 8 is_stmt 0 view .LVU405
 1081 0044 12F0200F 		tst	r2, #32
 1082 0048 01D0     		beq	.L70
 707:Drivers/STM32WBxx_HAL_Driver/Src/stm32wbxx_hal_rtc_ex.c ****     {
 708:Drivers/STM32WBxx_HAL_Driver/Src/stm32wbxx_hal_rtc_ex.c ****       tmpreg |= (uint32_t)(RTC_TAMPCR_TAMP3NOERASE);
 1083              		.loc 1 708 7 is_stmt 1 view .LVU406
 1084              		.loc 1 708 14 is_stmt 0 view .LVU407
 1085 004a 43F40003 		orr	r3, r3, #8388608
 1086              	.LVL87:
 1087              	.L70:
 709:Drivers/STM32WBxx_HAL_Driver/Src/stm32wbxx_hal_rtc_ex.c ****     }
 710:Drivers/STM32WBxx_HAL_Driver/Src/stm32wbxx_hal_rtc_ex.c **** #endif /* RTC_TAMPER3_SUPPORT */
 711:Drivers/STM32WBxx_HAL_Driver/Src/stm32wbxx_hal_rtc_ex.c ****   }
 712:Drivers/STM32WBxx_HAL_Driver/Src/stm32wbxx_hal_rtc_ex.c ****   else
 713:Drivers/STM32WBxx_HAL_Driver/Src/stm32wbxx_hal_rtc_ex.c ****   {
 714:Drivers/STM32WBxx_HAL_Driver/Src/stm32wbxx_hal_rtc_ex.c **** #if defined(RTC_TAMPER1_SUPPORT)
 715:Drivers/STM32WBxx_HAL_Driver/Src/stm32wbxx_hal_rtc_ex.c ****     if ((sTamper->Tamper & RTC_TAMPER_1) != 0U)
 716:Drivers/STM32WBxx_HAL_Driver/Src/stm32wbxx_hal_rtc_ex.c ****     {
 717:Drivers/STM32WBxx_HAL_Driver/Src/stm32wbxx_hal_rtc_ex.c ****       tmpreg &= (uint32_t)~(RTC_TAMPCR_TAMP1NOERASE);
 718:Drivers/STM32WBxx_HAL_Driver/Src/stm32wbxx_hal_rtc_ex.c ****     }
 719:Drivers/STM32WBxx_HAL_Driver/Src/stm32wbxx_hal_rtc_ex.c **** #endif /* RTC_TAMPER1_SUPPORT */
 720:Drivers/STM32WBxx_HAL_Driver/Src/stm32wbxx_hal_rtc_ex.c ****     if ((sTamper->Tamper & RTC_TAMPER_2) != 0U)
 721:Drivers/STM32WBxx_HAL_Driver/Src/stm32wbxx_hal_rtc_ex.c ****     {
 722:Drivers/STM32WBxx_HAL_Driver/Src/stm32wbxx_hal_rtc_ex.c ****       tmpreg &= (uint32_t)~(RTC_TAMPCR_TAMP2NOERASE);
 723:Drivers/STM32WBxx_HAL_Driver/Src/stm32wbxx_hal_rtc_ex.c ****     }
 724:Drivers/STM32WBxx_HAL_Driver/Src/stm32wbxx_hal_rtc_ex.c **** #if defined(RTC_TAMPER3_SUPPORT)
 725:Drivers/STM32WBxx_HAL_Driver/Src/stm32wbxx_hal_rtc_ex.c ****     if ((sTamper->Tamper & RTC_TAMPER_3) != 0U)
 726:Drivers/STM32WBxx_HAL_Driver/Src/stm32wbxx_hal_rtc_ex.c ****     {
 727:Drivers/STM32WBxx_HAL_Driver/Src/stm32wbxx_hal_rtc_ex.c ****       tmpreg &= (uint32_t)~(RTC_TAMPCR_TAMP3NOERASE);
 728:Drivers/STM32WBxx_HAL_Driver/Src/stm32wbxx_hal_rtc_ex.c ****     }
 729:Drivers/STM32WBxx_HAL_Driver/Src/stm32wbxx_hal_rtc_ex.c **** #endif /* RTC_TAMPER3_SUPPORT */
 730:Drivers/STM32WBxx_HAL_Driver/Src/stm32wbxx_hal_rtc_ex.c ****   }
 731:Drivers/STM32WBxx_HAL_Driver/Src/stm32wbxx_hal_rtc_ex.c **** 
 732:Drivers/STM32WBxx_HAL_Driver/Src/stm32wbxx_hal_rtc_ex.c ****   /* Configure the tamper flags masking bits */
 733:Drivers/STM32WBxx_HAL_Driver/Src/stm32wbxx_hal_rtc_ex.c ****   if (sTamper->MaskFlag != RTC_TAMPERMASK_FLAG_DISABLE)
 1088              		.loc 1 733 3 is_stmt 1 view .LVU408
 1089              		.loc 1 733 6 is_stmt 0 view .LVU409
 1090 004e 0C69     		ldr	r4, [r1, #16]
 1091 0050 002C     		cmp	r4, #0
 1092 0052 44D0     		beq	.L73
 734:Drivers/STM32WBxx_HAL_Driver/Src/stm32wbxx_hal_rtc_ex.c ****   {
 735:Drivers/STM32WBxx_HAL_Driver/Src/stm32wbxx_hal_rtc_ex.c **** #if defined(RTC_TAMPER1_SUPPORT)
 736:Drivers/STM32WBxx_HAL_Driver/Src/stm32wbxx_hal_rtc_ex.c ****     if ((sTamper->Tamper & RTC_TAMPER_1) != 0U)
 1093              		.loc 1 736 5 is_stmt 1 view .LVU410
 1094              		.loc 1 736 8 is_stmt 0 view .LVU411
 1095 0054 12F0010F 		tst	r2, #1
 1096 0058 01D0     		beq	.L74
 737:Drivers/STM32WBxx_HAL_Driver/Src/stm32wbxx_hal_rtc_ex.c ****     {
 738:Drivers/STM32WBxx_HAL_Driver/Src/stm32wbxx_hal_rtc_ex.c ****       tmpreg |= (uint32_t)(RTC_TAMPCR_TAMP1MF);
 1097              		.loc 1 738 7 is_stmt 1 view .LVU412
 1098              		.loc 1 738 14 is_stmt 0 view .LVU413
ARM GAS  C:\Users\Nathan\AppData\Local\Temp\ccWT97xY.s 			page 34


 1099 005a 43F48023 		orr	r3, r3, #262144
 1100              	.LVL88:
 1101              	.L74:
 739:Drivers/STM32WBxx_HAL_Driver/Src/stm32wbxx_hal_rtc_ex.c ****     }
 740:Drivers/STM32WBxx_HAL_Driver/Src/stm32wbxx_hal_rtc_ex.c **** #endif /* RTC_TAMPER1_SUPPORT */
 741:Drivers/STM32WBxx_HAL_Driver/Src/stm32wbxx_hal_rtc_ex.c ****     if ((sTamper->Tamper & RTC_TAMPER_2) != 0U)
 1102              		.loc 1 741 5 is_stmt 1 view .LVU414
 1103              		.loc 1 741 8 is_stmt 0 view .LVU415
 1104 005e 12F0080F 		tst	r2, #8
 1105 0062 01D0     		beq	.L75
 742:Drivers/STM32WBxx_HAL_Driver/Src/stm32wbxx_hal_rtc_ex.c ****     {
 743:Drivers/STM32WBxx_HAL_Driver/Src/stm32wbxx_hal_rtc_ex.c ****       tmpreg |= (uint32_t)(RTC_TAMPCR_TAMP2MF);
 1106              		.loc 1 743 7 is_stmt 1 view .LVU416
 1107              		.loc 1 743 14 is_stmt 0 view .LVU417
 1108 0064 43F40013 		orr	r3, r3, #2097152
 1109              	.LVL89:
 1110              	.L75:
 744:Drivers/STM32WBxx_HAL_Driver/Src/stm32wbxx_hal_rtc_ex.c ****     }
 745:Drivers/STM32WBxx_HAL_Driver/Src/stm32wbxx_hal_rtc_ex.c **** #if defined(RTC_TAMPER3_SUPPORT)
 746:Drivers/STM32WBxx_HAL_Driver/Src/stm32wbxx_hal_rtc_ex.c ****     if ((sTamper->Tamper & RTC_TAMPER_3) != 0U)
 1111              		.loc 1 746 5 is_stmt 1 view .LVU418
 1112              		.loc 1 746 8 is_stmt 0 view .LVU419
 1113 0068 12F0200F 		tst	r2, #32
 1114 006c 01D0     		beq	.L76
 747:Drivers/STM32WBxx_HAL_Driver/Src/stm32wbxx_hal_rtc_ex.c ****     {
 748:Drivers/STM32WBxx_HAL_Driver/Src/stm32wbxx_hal_rtc_ex.c ****       tmpreg |= (uint32_t)(RTC_TAMPCR_TAMP3MF);
 1115              		.loc 1 748 7 is_stmt 1 view .LVU420
 1116              		.loc 1 748 14 is_stmt 0 view .LVU421
 1117 006e 43F08073 		orr	r3, r3, #16777216
 1118              	.LVL90:
 1119              	.L76:
 749:Drivers/STM32WBxx_HAL_Driver/Src/stm32wbxx_hal_rtc_ex.c ****     }
 750:Drivers/STM32WBxx_HAL_Driver/Src/stm32wbxx_hal_rtc_ex.c **** #endif /* RTC_TAMPER3_SUPPORT */
 751:Drivers/STM32WBxx_HAL_Driver/Src/stm32wbxx_hal_rtc_ex.c ****   }
 752:Drivers/STM32WBxx_HAL_Driver/Src/stm32wbxx_hal_rtc_ex.c ****   else
 753:Drivers/STM32WBxx_HAL_Driver/Src/stm32wbxx_hal_rtc_ex.c ****   {
 754:Drivers/STM32WBxx_HAL_Driver/Src/stm32wbxx_hal_rtc_ex.c **** #if defined(RTC_TAMPER1_SUPPORT)
 755:Drivers/STM32WBxx_HAL_Driver/Src/stm32wbxx_hal_rtc_ex.c ****     if ((sTamper->Tamper & RTC_TAMPER_1) != 0U)
 756:Drivers/STM32WBxx_HAL_Driver/Src/stm32wbxx_hal_rtc_ex.c ****     {
 757:Drivers/STM32WBxx_HAL_Driver/Src/stm32wbxx_hal_rtc_ex.c ****       tmpreg &= (uint32_t)~(RTC_TAMPCR_TAMP1MF);
 758:Drivers/STM32WBxx_HAL_Driver/Src/stm32wbxx_hal_rtc_ex.c ****     }
 759:Drivers/STM32WBxx_HAL_Driver/Src/stm32wbxx_hal_rtc_ex.c **** #endif /* RTC_TAMPER1_SUPPORT */
 760:Drivers/STM32WBxx_HAL_Driver/Src/stm32wbxx_hal_rtc_ex.c ****     if ((sTamper->Tamper & RTC_TAMPER_2) != 0U)
 761:Drivers/STM32WBxx_HAL_Driver/Src/stm32wbxx_hal_rtc_ex.c ****     {
 762:Drivers/STM32WBxx_HAL_Driver/Src/stm32wbxx_hal_rtc_ex.c ****       tmpreg &= (uint32_t)~(RTC_TAMPCR_TAMP2MF);
 763:Drivers/STM32WBxx_HAL_Driver/Src/stm32wbxx_hal_rtc_ex.c ****     }
 764:Drivers/STM32WBxx_HAL_Driver/Src/stm32wbxx_hal_rtc_ex.c **** #if defined(RTC_TAMPER3_SUPPORT)
 765:Drivers/STM32WBxx_HAL_Driver/Src/stm32wbxx_hal_rtc_ex.c ****     if ((sTamper->Tamper & RTC_TAMPER_3) != 0U)
 766:Drivers/STM32WBxx_HAL_Driver/Src/stm32wbxx_hal_rtc_ex.c ****     {
 767:Drivers/STM32WBxx_HAL_Driver/Src/stm32wbxx_hal_rtc_ex.c ****       tmpreg &= (uint32_t)~(RTC_TAMPCR_TAMP3MF);
 768:Drivers/STM32WBxx_HAL_Driver/Src/stm32wbxx_hal_rtc_ex.c ****     }
 769:Drivers/STM32WBxx_HAL_Driver/Src/stm32wbxx_hal_rtc_ex.c **** #endif /* RTC_TAMPER3_SUPPORT */
 770:Drivers/STM32WBxx_HAL_Driver/Src/stm32wbxx_hal_rtc_ex.c ****   }
 771:Drivers/STM32WBxx_HAL_Driver/Src/stm32wbxx_hal_rtc_ex.c **** 
 772:Drivers/STM32WBxx_HAL_Driver/Src/stm32wbxx_hal_rtc_ex.c ****   /* Clear remaining fields before setting them */
 773:Drivers/STM32WBxx_HAL_Driver/Src/stm32wbxx_hal_rtc_ex.c ****   tmpreg &= ~(RTC_TAMPERFILTER_MASK              | \
 1120              		.loc 1 773 3 is_stmt 1 view .LVU422
ARM GAS  C:\Users\Nathan\AppData\Local\Temp\ccWT97xY.s 			page 35


 1121              		.loc 1 773 10 is_stmt 0 view .LVU423
 1122 0072 6FF3CF13 		bfc	r3, #7, #9
 1123              	.LVL91:
 774:Drivers/STM32WBxx_HAL_Driver/Src/stm32wbxx_hal_rtc_ex.c ****               RTC_TAMPERSAMPLINGFREQ_RTCCLK_MASK | \
 775:Drivers/STM32WBxx_HAL_Driver/Src/stm32wbxx_hal_rtc_ex.c ****               RTC_TAMPERPRECHARGEDURATION_MASK   | \
 776:Drivers/STM32WBxx_HAL_Driver/Src/stm32wbxx_hal_rtc_ex.c ****               RTC_TAMPER_PULLUP_MASK             | \
 777:Drivers/STM32WBxx_HAL_Driver/Src/stm32wbxx_hal_rtc_ex.c ****               RTC_TIMESTAMPONTAMPERDETECTION_MASK);
 778:Drivers/STM32WBxx_HAL_Driver/Src/stm32wbxx_hal_rtc_ex.c **** 
 779:Drivers/STM32WBxx_HAL_Driver/Src/stm32wbxx_hal_rtc_ex.c ****   /* Set remaining parameters of desired configuration into temporary variable */
 780:Drivers/STM32WBxx_HAL_Driver/Src/stm32wbxx_hal_rtc_ex.c ****   tmpreg |= ((uint32_t)sTamper->Filter            | \
 1124              		.loc 1 780 3 is_stmt 1 view .LVU424
 1125              		.loc 1 780 31 is_stmt 0 view .LVU425
 1126 0076 4A69     		ldr	r2, [r1, #20]
 1127              		.loc 1 780 51 view .LVU426
 1128 0078 8C69     		ldr	r4, [r1, #24]
 1129 007a 2243     		orrs	r2, r2, r4
 781:Drivers/STM32WBxx_HAL_Driver/Src/stm32wbxx_hal_rtc_ex.c ****              (uint32_t)sTamper->SamplingFrequency | \
 1130              		.loc 1 781 51 view .LVU427
 1131 007c CC69     		ldr	r4, [r1, #28]
 1132 007e 2243     		orrs	r2, r2, r4
 782:Drivers/STM32WBxx_HAL_Driver/Src/stm32wbxx_hal_rtc_ex.c ****              (uint32_t)sTamper->PrechargeDuration | \
 1133              		.loc 1 782 51 view .LVU428
 1134 0080 0C6A     		ldr	r4, [r1, #32]
 1135 0082 2243     		orrs	r2, r2, r4
 783:Drivers/STM32WBxx_HAL_Driver/Src/stm32wbxx_hal_rtc_ex.c ****              (uint32_t)sTamper->TamperPullUp      | \
 1136              		.loc 1 783 51 view .LVU429
 1137 0084 4C6A     		ldr	r4, [r1, #36]
 1138 0086 2243     		orrs	r2, r2, r4
 780:Drivers/STM32WBxx_HAL_Driver/Src/stm32wbxx_hal_rtc_ex.c ****              (uint32_t)sTamper->SamplingFrequency | \
 1139              		.loc 1 780 10 view .LVU430
 1140 0088 1343     		orrs	r3, r3, r2
 1141              	.LVL92:
 784:Drivers/STM32WBxx_HAL_Driver/Src/stm32wbxx_hal_rtc_ex.c ****              (uint32_t)sTamper->TimeStampOnTamperDetection);
 785:Drivers/STM32WBxx_HAL_Driver/Src/stm32wbxx_hal_rtc_ex.c **** 
 786:Drivers/STM32WBxx_HAL_Driver/Src/stm32wbxx_hal_rtc_ex.c ****   /* Enable interrupt on selected tamper */
 787:Drivers/STM32WBxx_HAL_Driver/Src/stm32wbxx_hal_rtc_ex.c ****   tmpreg |= (uint32_t)sTamper->Interrupt;
 1142              		.loc 1 787 3 is_stmt 1 view .LVU431
 1143              		.loc 1 787 30 is_stmt 0 view .LVU432
 1144 008a 4A68     		ldr	r2, [r1, #4]
 1145              		.loc 1 787 10 view .LVU433
 1146 008c 1343     		orrs	r3, r3, r2
 1147              	.LVL93:
 788:Drivers/STM32WBxx_HAL_Driver/Src/stm32wbxx_hal_rtc_ex.c **** 
 789:Drivers/STM32WBxx_HAL_Driver/Src/stm32wbxx_hal_rtc_ex.c ****   /* Copy desired configuration into configuration register */
 790:Drivers/STM32WBxx_HAL_Driver/Src/stm32wbxx_hal_rtc_ex.c ****   hrtc->Instance->TAMPCR = tmpreg;
 1148              		.loc 1 790 3 is_stmt 1 view .LVU434
 1149              		.loc 1 790 26 is_stmt 0 view .LVU435
 1150 008e 0364     		str	r3, [r0, #64]
 791:Drivers/STM32WBxx_HAL_Driver/Src/stm32wbxx_hal_rtc_ex.c **** 
 792:Drivers/STM32WBxx_HAL_Driver/Src/stm32wbxx_hal_rtc_ex.c ****   /* Enable and configure the EXTI line associated to the RTC Timestamp and Tamper interrupts */
 793:Drivers/STM32WBxx_HAL_Driver/Src/stm32wbxx_hal_rtc_ex.c ****   __HAL_RTC_TAMPER_TIMESTAMP_EXTI_ENABLE_IT();
 1151              		.loc 1 793 3 is_stmt 1 view .LVU436
 1152 0090 1C4B     		ldr	r3, .L85
 1153              	.LVL94:
 1154              		.loc 1 793 3 is_stmt 0 view .LVU437
 1155 0092 D3F88020 		ldr	r2, [r3, #128]
 1156 0096 42F48022 		orr	r2, r2, #262144
ARM GAS  C:\Users\Nathan\AppData\Local\Temp\ccWT97xY.s 			page 36


 1157 009a C3F88020 		str	r2, [r3, #128]
 1158              	.LVL95:
 794:Drivers/STM32WBxx_HAL_Driver/Src/stm32wbxx_hal_rtc_ex.c ****   __HAL_RTC_TAMPER_TIMESTAMP_EXTI_ENABLE_RISING_EDGE();
 1159              		.loc 1 794 3 is_stmt 1 view .LVU438
 1160 009e 1A68     		ldr	r2, [r3]
 1161 00a0 42F48022 		orr	r2, r2, #262144
 1162 00a4 1A60     		str	r2, [r3]
 795:Drivers/STM32WBxx_HAL_Driver/Src/stm32wbxx_hal_rtc_ex.c **** 
 796:Drivers/STM32WBxx_HAL_Driver/Src/stm32wbxx_hal_rtc_ex.c ****   hrtc->State = HAL_RTC_STATE_READY;
 1163              		.loc 1 796 3 view .LVU439
 1164              		.loc 1 796 15 is_stmt 0 view .LVU440
 1165 00a6 0123     		movs	r3, #1
 1166 00a8 8CF82130 		strb	r3, [ip, #33]
 797:Drivers/STM32WBxx_HAL_Driver/Src/stm32wbxx_hal_rtc_ex.c **** 
 798:Drivers/STM32WBxx_HAL_Driver/Src/stm32wbxx_hal_rtc_ex.c ****   /* Process Unlocked */
 799:Drivers/STM32WBxx_HAL_Driver/Src/stm32wbxx_hal_rtc_ex.c ****   __HAL_UNLOCK(hrtc);
 1167              		.loc 1 799 3 is_stmt 1 view .LVU441
 1168              		.loc 1 799 3 view .LVU442
 1169 00ac 0020     		movs	r0, #0
 1170 00ae 8CF82000 		strb	r0, [ip, #32]
 1171              		.loc 1 799 3 view .LVU443
 800:Drivers/STM32WBxx_HAL_Driver/Src/stm32wbxx_hal_rtc_ex.c **** 
 801:Drivers/STM32WBxx_HAL_Driver/Src/stm32wbxx_hal_rtc_ex.c ****   return HAL_OK;
 1172              		.loc 1 801 3 view .LVU444
 802:Drivers/STM32WBxx_HAL_Driver/Src/stm32wbxx_hal_rtc_ex.c **** }
 1173              		.loc 1 802 1 is_stmt 0 view .LVU445
 1174 00b2 5DF8044B 		ldr	r4, [sp], #4
 1175              		.cfi_remember_state
 1176              		.cfi_restore 4
 1177              		.cfi_def_cfa_offset 0
 1178 00b6 7047     		bx	lr
 1179              	.LVL96:
 1180              	.L84:
 1181              		.cfi_restore_state
 684:Drivers/STM32WBxx_HAL_Driver/Src/stm32wbxx_hal_rtc_ex.c ****   }
 1182              		.loc 1 684 5 is_stmt 1 view .LVU446
 684:Drivers/STM32WBxx_HAL_Driver/Src/stm32wbxx_hal_rtc_ex.c ****   }
 1183              		.loc 1 684 12 is_stmt 0 view .LVU447
 1184 00b8 43EA4203 		orr	r3, r3, r2, lsl #1
 1185              	.LVL97:
 684:Drivers/STM32WBxx_HAL_Driver/Src/stm32wbxx_hal_rtc_ex.c ****   }
 1186              		.loc 1 684 12 view .LVU448
 1187 00bc B5E7     		b	.L66
 1188              	.L67:
 715:Drivers/STM32WBxx_HAL_Driver/Src/stm32wbxx_hal_rtc_ex.c ****     {
 1189              		.loc 1 715 5 is_stmt 1 view .LVU449
 715:Drivers/STM32WBxx_HAL_Driver/Src/stm32wbxx_hal_rtc_ex.c ****     {
 1190              		.loc 1 715 8 is_stmt 0 view .LVU450
 1191 00be 12F0010F 		tst	r2, #1
 1192 00c2 01D0     		beq	.L71
 717:Drivers/STM32WBxx_HAL_Driver/Src/stm32wbxx_hal_rtc_ex.c ****     }
 1193              		.loc 1 717 7 is_stmt 1 view .LVU451
 717:Drivers/STM32WBxx_HAL_Driver/Src/stm32wbxx_hal_rtc_ex.c ****     }
 1194              		.loc 1 717 14 is_stmt 0 view .LVU452
 1195 00c4 23F40033 		bic	r3, r3, #131072
 1196              	.LVL98:
 1197              	.L71:
ARM GAS  C:\Users\Nathan\AppData\Local\Temp\ccWT97xY.s 			page 37


 720:Drivers/STM32WBxx_HAL_Driver/Src/stm32wbxx_hal_rtc_ex.c ****     {
 1198              		.loc 1 720 5 is_stmt 1 view .LVU453
 720:Drivers/STM32WBxx_HAL_Driver/Src/stm32wbxx_hal_rtc_ex.c ****     {
 1199              		.loc 1 720 8 is_stmt 0 view .LVU454
 1200 00c8 12F0080F 		tst	r2, #8
 1201 00cc 01D0     		beq	.L72
 722:Drivers/STM32WBxx_HAL_Driver/Src/stm32wbxx_hal_rtc_ex.c ****     }
 1202              		.loc 1 722 7 is_stmt 1 view .LVU455
 722:Drivers/STM32WBxx_HAL_Driver/Src/stm32wbxx_hal_rtc_ex.c ****     }
 1203              		.loc 1 722 14 is_stmt 0 view .LVU456
 1204 00ce 23F48013 		bic	r3, r3, #1048576
 1205              	.LVL99:
 1206              	.L72:
 725:Drivers/STM32WBxx_HAL_Driver/Src/stm32wbxx_hal_rtc_ex.c ****     {
 1207              		.loc 1 725 5 is_stmt 1 view .LVU457
 725:Drivers/STM32WBxx_HAL_Driver/Src/stm32wbxx_hal_rtc_ex.c ****     {
 1208              		.loc 1 725 8 is_stmt 0 view .LVU458
 1209 00d2 12F0200F 		tst	r2, #32
 1210 00d6 BAD0     		beq	.L70
 727:Drivers/STM32WBxx_HAL_Driver/Src/stm32wbxx_hal_rtc_ex.c ****     }
 1211              		.loc 1 727 7 is_stmt 1 view .LVU459
 727:Drivers/STM32WBxx_HAL_Driver/Src/stm32wbxx_hal_rtc_ex.c ****     }
 1212              		.loc 1 727 14 is_stmt 0 view .LVU460
 1213 00d8 23F40003 		bic	r3, r3, #8388608
 1214              	.LVL100:
 727:Drivers/STM32WBxx_HAL_Driver/Src/stm32wbxx_hal_rtc_ex.c ****     }
 1215              		.loc 1 727 14 view .LVU461
 1216 00dc B7E7     		b	.L70
 1217              	.L73:
 755:Drivers/STM32WBxx_HAL_Driver/Src/stm32wbxx_hal_rtc_ex.c ****     {
 1218              		.loc 1 755 5 is_stmt 1 view .LVU462
 755:Drivers/STM32WBxx_HAL_Driver/Src/stm32wbxx_hal_rtc_ex.c ****     {
 1219              		.loc 1 755 8 is_stmt 0 view .LVU463
 1220 00de 12F0010F 		tst	r2, #1
 1221 00e2 01D0     		beq	.L77
 757:Drivers/STM32WBxx_HAL_Driver/Src/stm32wbxx_hal_rtc_ex.c ****     }
 1222              		.loc 1 757 7 is_stmt 1 view .LVU464
 757:Drivers/STM32WBxx_HAL_Driver/Src/stm32wbxx_hal_rtc_ex.c ****     }
 1223              		.loc 1 757 14 is_stmt 0 view .LVU465
 1224 00e4 23F48023 		bic	r3, r3, #262144
 1225              	.LVL101:
 1226              	.L77:
 760:Drivers/STM32WBxx_HAL_Driver/Src/stm32wbxx_hal_rtc_ex.c ****     {
 1227              		.loc 1 760 5 is_stmt 1 view .LVU466
 760:Drivers/STM32WBxx_HAL_Driver/Src/stm32wbxx_hal_rtc_ex.c ****     {
 1228              		.loc 1 760 8 is_stmt 0 view .LVU467
 1229 00e8 12F0080F 		tst	r2, #8
 1230 00ec 01D0     		beq	.L78
 762:Drivers/STM32WBxx_HAL_Driver/Src/stm32wbxx_hal_rtc_ex.c ****     }
 1231              		.loc 1 762 7 is_stmt 1 view .LVU468
 762:Drivers/STM32WBxx_HAL_Driver/Src/stm32wbxx_hal_rtc_ex.c ****     }
 1232              		.loc 1 762 14 is_stmt 0 view .LVU469
 1233 00ee 23F40013 		bic	r3, r3, #2097152
 1234              	.LVL102:
 1235              	.L78:
 765:Drivers/STM32WBxx_HAL_Driver/Src/stm32wbxx_hal_rtc_ex.c ****     {
 1236              		.loc 1 765 5 is_stmt 1 view .LVU470
ARM GAS  C:\Users\Nathan\AppData\Local\Temp\ccWT97xY.s 			page 38


 765:Drivers/STM32WBxx_HAL_Driver/Src/stm32wbxx_hal_rtc_ex.c ****     {
 1237              		.loc 1 765 8 is_stmt 0 view .LVU471
 1238 00f2 12F0200F 		tst	r2, #32
 1239 00f6 BCD0     		beq	.L76
 767:Drivers/STM32WBxx_HAL_Driver/Src/stm32wbxx_hal_rtc_ex.c ****     }
 1240              		.loc 1 767 7 is_stmt 1 view .LVU472
 767:Drivers/STM32WBxx_HAL_Driver/Src/stm32wbxx_hal_rtc_ex.c ****     }
 1241              		.loc 1 767 14 is_stmt 0 view .LVU473
 1242 00f8 23F08073 		bic	r3, r3, #16777216
 1243              	.LVL103:
 767:Drivers/STM32WBxx_HAL_Driver/Src/stm32wbxx_hal_rtc_ex.c ****     }
 1244              		.loc 1 767 14 view .LVU474
 1245 00fc B9E7     		b	.L76
 1246              	.LVL104:
 1247              	.L79:
 1248              		.cfi_def_cfa_offset 0
 1249              		.cfi_restore 4
 669:Drivers/STM32WBxx_HAL_Driver/Src/stm32wbxx_hal_rtc_ex.c **** 
 1250              		.loc 1 669 3 discriminator 1 view .LVU475
 1251 00fe 0220     		movs	r0, #2
 1252              	.LVL105:
 1253              		.loc 1 802 1 view .LVU476
 1254 0100 7047     		bx	lr
 1255              	.L86:
 1256 0102 00BF     		.align	2
 1257              	.L85:
 1258 0104 00080058 		.word	1476397056
 1259              		.cfi_endproc
 1260              	.LFE1111:
 1262              		.section	.text.HAL_RTCEx_DeactivateTamper,"ax",%progbits
 1263              		.align	1
 1264              		.global	HAL_RTCEx_DeactivateTamper
 1265              		.syntax unified
 1266              		.thumb
 1267              		.thumb_func
 1269              	HAL_RTCEx_DeactivateTamper:
 1270              	.LVL106:
 1271              	.LFB1112:
 803:Drivers/STM32WBxx_HAL_Driver/Src/stm32wbxx_hal_rtc_ex.c **** 
 804:Drivers/STM32WBxx_HAL_Driver/Src/stm32wbxx_hal_rtc_ex.c **** /**
 805:Drivers/STM32WBxx_HAL_Driver/Src/stm32wbxx_hal_rtc_ex.c ****   * @brief  Deactivates Tamper.
 806:Drivers/STM32WBxx_HAL_Driver/Src/stm32wbxx_hal_rtc_ex.c ****   * @note   By calling this API the tamper global interrupt will be disabled.
 807:Drivers/STM32WBxx_HAL_Driver/Src/stm32wbxx_hal_rtc_ex.c ****   * @param  hrtc pointer to a RTC_HandleTypeDef structure that contains
 808:Drivers/STM32WBxx_HAL_Driver/Src/stm32wbxx_hal_rtc_ex.c ****   *                the configuration information for RTC.
 809:Drivers/STM32WBxx_HAL_Driver/Src/stm32wbxx_hal_rtc_ex.c ****   * @param  Tamper Selected tamper pin.
 810:Drivers/STM32WBxx_HAL_Driver/Src/stm32wbxx_hal_rtc_ex.c ****   *          This parameter can be any combination of the following values:
 811:Drivers/STM32WBxx_HAL_Driver/Src/stm32wbxx_hal_rtc_ex.c ****   *            @arg RTC_TAMPER_1:  Tamper 1 (*)
 812:Drivers/STM32WBxx_HAL_Driver/Src/stm32wbxx_hal_rtc_ex.c ****   *            @arg RTC_TAMPER_2:  Tamper 2
 813:Drivers/STM32WBxx_HAL_Driver/Src/stm32wbxx_hal_rtc_ex.c ****   *            @arg RTC_TAMPER_3:  Tamper 3 (*)
 814:Drivers/STM32WBxx_HAL_Driver/Src/stm32wbxx_hal_rtc_ex.c ****   *
 815:Drivers/STM32WBxx_HAL_Driver/Src/stm32wbxx_hal_rtc_ex.c ****   *         (*) value not applicable to all devices.
 816:Drivers/STM32WBxx_HAL_Driver/Src/stm32wbxx_hal_rtc_ex.c ****   * @retval HAL status
 817:Drivers/STM32WBxx_HAL_Driver/Src/stm32wbxx_hal_rtc_ex.c ****   */
 818:Drivers/STM32WBxx_HAL_Driver/Src/stm32wbxx_hal_rtc_ex.c **** HAL_StatusTypeDef HAL_RTCEx_DeactivateTamper(RTC_HandleTypeDef *hrtc, uint32_t Tamper)
 819:Drivers/STM32WBxx_HAL_Driver/Src/stm32wbxx_hal_rtc_ex.c **** {
 1272              		.loc 1 819 1 is_stmt 1 view -0
 1273              		.cfi_startproc
ARM GAS  C:\Users\Nathan\AppData\Local\Temp\ccWT97xY.s 			page 39


 1274              		@ args = 0, pretend = 0, frame = 0
 1275              		@ frame_needed = 0, uses_anonymous_args = 0
 1276              		@ link register save eliminated.
 1277              		.loc 1 819 1 is_stmt 0 view .LVU478
 1278 0000 0346     		mov	r3, r0
 820:Drivers/STM32WBxx_HAL_Driver/Src/stm32wbxx_hal_rtc_ex.c ****   assert_param(IS_RTC_TAMPER(Tamper));
 1279              		.loc 1 820 3 is_stmt 1 view .LVU479
 821:Drivers/STM32WBxx_HAL_Driver/Src/stm32wbxx_hal_rtc_ex.c **** 
 822:Drivers/STM32WBxx_HAL_Driver/Src/stm32wbxx_hal_rtc_ex.c ****   /* Process Locked */
 823:Drivers/STM32WBxx_HAL_Driver/Src/stm32wbxx_hal_rtc_ex.c ****   __HAL_LOCK(hrtc);
 1280              		.loc 1 823 3 view .LVU480
 1281              		.loc 1 823 3 view .LVU481
 1282 0002 90F82020 		ldrb	r2, [r0, #32]	@ zero_extendqisi2
 1283 0006 012A     		cmp	r2, #1
 1284 0008 2FD0     		beq	.L92
 1285              		.loc 1 823 3 discriminator 2 view .LVU482
 1286 000a 0122     		movs	r2, #1
 1287 000c 80F82020 		strb	r2, [r0, #32]
 1288              		.loc 1 823 3 discriminator 2 view .LVU483
 824:Drivers/STM32WBxx_HAL_Driver/Src/stm32wbxx_hal_rtc_ex.c **** 
 825:Drivers/STM32WBxx_HAL_Driver/Src/stm32wbxx_hal_rtc_ex.c ****   hrtc->State = HAL_RTC_STATE_BUSY;
 1289              		.loc 1 825 3 view .LVU484
 1290              		.loc 1 825 15 is_stmt 0 view .LVU485
 1291 0010 0222     		movs	r2, #2
 1292 0012 80F82120 		strb	r2, [r0, #33]
 826:Drivers/STM32WBxx_HAL_Driver/Src/stm32wbxx_hal_rtc_ex.c **** 
 827:Drivers/STM32WBxx_HAL_Driver/Src/stm32wbxx_hal_rtc_ex.c ****   /* Disable the selected Tamper pin */
 828:Drivers/STM32WBxx_HAL_Driver/Src/stm32wbxx_hal_rtc_ex.c ****   hrtc->Instance->TAMPCR &= (uint32_t)~Tamper;
 1293              		.loc 1 828 3 is_stmt 1 view .LVU486
 1294              		.loc 1 828 7 is_stmt 0 view .LVU487
 1295 0016 0068     		ldr	r0, [r0]
 1296              	.LVL107:
 1297              		.loc 1 828 17 view .LVU488
 1298 0018 026C     		ldr	r2, [r0, #64]
 1299              		.loc 1 828 26 view .LVU489
 1300 001a 22EA0102 		bic	r2, r2, r1
 1301 001e 0264     		str	r2, [r0, #64]
 829:Drivers/STM32WBxx_HAL_Driver/Src/stm32wbxx_hal_rtc_ex.c **** 
 830:Drivers/STM32WBxx_HAL_Driver/Src/stm32wbxx_hal_rtc_ex.c **** #if defined(RTC_TAMPER1_SUPPORT)
 831:Drivers/STM32WBxx_HAL_Driver/Src/stm32wbxx_hal_rtc_ex.c ****   if ((Tamper & RTC_TAMPER_1) != 0U)
 1302              		.loc 1 831 3 is_stmt 1 view .LVU490
 1303              		.loc 1 831 6 is_stmt 0 view .LVU491
 1304 0020 11F0010F 		tst	r1, #1
 1305 0024 06D0     		beq	.L89
 832:Drivers/STM32WBxx_HAL_Driver/Src/stm32wbxx_hal_rtc_ex.c ****   {
 833:Drivers/STM32WBxx_HAL_Driver/Src/stm32wbxx_hal_rtc_ex.c ****     /* Disable the Tamper 1 interrupt */
 834:Drivers/STM32WBxx_HAL_Driver/Src/stm32wbxx_hal_rtc_ex.c ****     hrtc->Instance->TAMPCR &= (uint32_t)~(RTC_IT_TAMP | RTC_IT_TAMP1);
 1306              		.loc 1 834 5 is_stmt 1 view .LVU492
 1307              		.loc 1 834 9 is_stmt 0 view .LVU493
 1308 0026 1868     		ldr	r0, [r3]
 1309              		.loc 1 834 19 view .LVU494
 1310 0028 026C     		ldr	r2, [r0, #64]
 1311              		.loc 1 834 28 view .LVU495
 1312 002a 22F48032 		bic	r2, r2, #65536
 1313 002e 22F00402 		bic	r2, r2, #4
 1314 0032 0264     		str	r2, [r0, #64]
 1315              	.L89:
ARM GAS  C:\Users\Nathan\AppData\Local\Temp\ccWT97xY.s 			page 40


 835:Drivers/STM32WBxx_HAL_Driver/Src/stm32wbxx_hal_rtc_ex.c ****   }
 836:Drivers/STM32WBxx_HAL_Driver/Src/stm32wbxx_hal_rtc_ex.c **** #endif /* RTC_TAMPER1_SUPPORT */
 837:Drivers/STM32WBxx_HAL_Driver/Src/stm32wbxx_hal_rtc_ex.c ****   if ((Tamper & RTC_TAMPER_2) != 0U)
 1316              		.loc 1 837 3 is_stmt 1 view .LVU496
 1317              		.loc 1 837 6 is_stmt 0 view .LVU497
 1318 0034 11F0080F 		tst	r1, #8
 1319 0038 06D0     		beq	.L90
 838:Drivers/STM32WBxx_HAL_Driver/Src/stm32wbxx_hal_rtc_ex.c ****   {
 839:Drivers/STM32WBxx_HAL_Driver/Src/stm32wbxx_hal_rtc_ex.c ****     /* Disable the Tamper 2 interrupt */
 840:Drivers/STM32WBxx_HAL_Driver/Src/stm32wbxx_hal_rtc_ex.c ****     hrtc->Instance->TAMPCR &= (uint32_t)~(RTC_IT_TAMP | RTC_IT_TAMP2);
 1320              		.loc 1 840 5 is_stmt 1 view .LVU498
 1321              		.loc 1 840 9 is_stmt 0 view .LVU499
 1322 003a 1868     		ldr	r0, [r3]
 1323              		.loc 1 840 19 view .LVU500
 1324 003c 026C     		ldr	r2, [r0, #64]
 1325              		.loc 1 840 28 view .LVU501
 1326 003e 22F40022 		bic	r2, r2, #524288
 1327 0042 22F00402 		bic	r2, r2, #4
 1328 0046 0264     		str	r2, [r0, #64]
 1329              	.L90:
 841:Drivers/STM32WBxx_HAL_Driver/Src/stm32wbxx_hal_rtc_ex.c ****   }
 842:Drivers/STM32WBxx_HAL_Driver/Src/stm32wbxx_hal_rtc_ex.c **** #if defined(RTC_TAMPER3_SUPPORT)
 843:Drivers/STM32WBxx_HAL_Driver/Src/stm32wbxx_hal_rtc_ex.c ****   if ((Tamper & RTC_TAMPER_3) != 0U)
 1330              		.loc 1 843 3 is_stmt 1 view .LVU502
 1331              		.loc 1 843 6 is_stmt 0 view .LVU503
 1332 0048 11F0200F 		tst	r1, #32
 1333 004c 06D0     		beq	.L91
 844:Drivers/STM32WBxx_HAL_Driver/Src/stm32wbxx_hal_rtc_ex.c ****   {
 845:Drivers/STM32WBxx_HAL_Driver/Src/stm32wbxx_hal_rtc_ex.c ****     /* Disable the Tamper 3 interrupt */
 846:Drivers/STM32WBxx_HAL_Driver/Src/stm32wbxx_hal_rtc_ex.c ****     hrtc->Instance->TAMPCR &= (uint32_t)~(RTC_IT_TAMP | RTC_IT_TAMP3);
 1334              		.loc 1 846 5 is_stmt 1 view .LVU504
 1335              		.loc 1 846 9 is_stmt 0 view .LVU505
 1336 004e 1968     		ldr	r1, [r3]
 1337              	.LVL108:
 1338              		.loc 1 846 19 view .LVU506
 1339 0050 0A6C     		ldr	r2, [r1, #64]
 1340              		.loc 1 846 28 view .LVU507
 1341 0052 22F48002 		bic	r2, r2, #4194304
 1342 0056 22F00402 		bic	r2, r2, #4
 1343 005a 0A64     		str	r2, [r1, #64]
 1344              	.L91:
 847:Drivers/STM32WBxx_HAL_Driver/Src/stm32wbxx_hal_rtc_ex.c ****   }
 848:Drivers/STM32WBxx_HAL_Driver/Src/stm32wbxx_hal_rtc_ex.c **** #endif /* RTC_TAMPER3_SUPPORT */
 849:Drivers/STM32WBxx_HAL_Driver/Src/stm32wbxx_hal_rtc_ex.c **** 
 850:Drivers/STM32WBxx_HAL_Driver/Src/stm32wbxx_hal_rtc_ex.c ****   hrtc->State = HAL_RTC_STATE_READY;
 1345              		.loc 1 850 3 is_stmt 1 view .LVU508
 1346              		.loc 1 850 15 is_stmt 0 view .LVU509
 1347 005c 0122     		movs	r2, #1
 1348 005e 83F82120 		strb	r2, [r3, #33]
 851:Drivers/STM32WBxx_HAL_Driver/Src/stm32wbxx_hal_rtc_ex.c **** 
 852:Drivers/STM32WBxx_HAL_Driver/Src/stm32wbxx_hal_rtc_ex.c ****   /* Process Unlocked */
 853:Drivers/STM32WBxx_HAL_Driver/Src/stm32wbxx_hal_rtc_ex.c ****   __HAL_UNLOCK(hrtc);
 1349              		.loc 1 853 3 is_stmt 1 view .LVU510
 1350              		.loc 1 853 3 view .LVU511
 1351 0062 0020     		movs	r0, #0
 1352 0064 83F82000 		strb	r0, [r3, #32]
 1353              		.loc 1 853 3 view .LVU512
ARM GAS  C:\Users\Nathan\AppData\Local\Temp\ccWT97xY.s 			page 41


 854:Drivers/STM32WBxx_HAL_Driver/Src/stm32wbxx_hal_rtc_ex.c **** 
 855:Drivers/STM32WBxx_HAL_Driver/Src/stm32wbxx_hal_rtc_ex.c ****   return HAL_OK;
 1354              		.loc 1 855 3 view .LVU513
 1355              		.loc 1 855 10 is_stmt 0 view .LVU514
 1356 0068 7047     		bx	lr
 1357              	.LVL109:
 1358              	.L92:
 823:Drivers/STM32WBxx_HAL_Driver/Src/stm32wbxx_hal_rtc_ex.c **** 
 1359              		.loc 1 823 3 discriminator 1 view .LVU515
 1360 006a 0220     		movs	r0, #2
 1361              	.LVL110:
 856:Drivers/STM32WBxx_HAL_Driver/Src/stm32wbxx_hal_rtc_ex.c **** }
 1362              		.loc 1 856 1 view .LVU516
 1363 006c 7047     		bx	lr
 1364              		.cfi_endproc
 1365              	.LFE1112:
 1367              		.section	.text.HAL_RTCEx_TimeStampEventCallback,"ax",%progbits
 1368              		.align	1
 1369              		.weak	HAL_RTCEx_TimeStampEventCallback
 1370              		.syntax unified
 1371              		.thumb
 1372              		.thumb_func
 1374              	HAL_RTCEx_TimeStampEventCallback:
 1375              	.LVL111:
 1376              	.LFB1114:
 857:Drivers/STM32WBxx_HAL_Driver/Src/stm32wbxx_hal_rtc_ex.c **** 
 858:Drivers/STM32WBxx_HAL_Driver/Src/stm32wbxx_hal_rtc_ex.c **** /**
 859:Drivers/STM32WBxx_HAL_Driver/Src/stm32wbxx_hal_rtc_ex.c ****   * @brief  Handles Timestamp and Tamper interrupt request.
 860:Drivers/STM32WBxx_HAL_Driver/Src/stm32wbxx_hal_rtc_ex.c ****   * @param  hrtc pointer to a RTC_HandleTypeDef structure that contains
 861:Drivers/STM32WBxx_HAL_Driver/Src/stm32wbxx_hal_rtc_ex.c ****   *                the configuration information for RTC.
 862:Drivers/STM32WBxx_HAL_Driver/Src/stm32wbxx_hal_rtc_ex.c ****   * @retval None
 863:Drivers/STM32WBxx_HAL_Driver/Src/stm32wbxx_hal_rtc_ex.c ****   */
 864:Drivers/STM32WBxx_HAL_Driver/Src/stm32wbxx_hal_rtc_ex.c **** void HAL_RTCEx_TamperTimeStampIRQHandler(RTC_HandleTypeDef *hrtc)
 865:Drivers/STM32WBxx_HAL_Driver/Src/stm32wbxx_hal_rtc_ex.c **** {
 866:Drivers/STM32WBxx_HAL_Driver/Src/stm32wbxx_hal_rtc_ex.c ****   /* Clear the EXTI flag associated to the RTC Timestamp and Tamper interrupts */
 867:Drivers/STM32WBxx_HAL_Driver/Src/stm32wbxx_hal_rtc_ex.c ****   __HAL_RTC_TAMPER_TIMESTAMP_EXTI_CLEAR_FLAG();
 868:Drivers/STM32WBxx_HAL_Driver/Src/stm32wbxx_hal_rtc_ex.c **** 
 869:Drivers/STM32WBxx_HAL_Driver/Src/stm32wbxx_hal_rtc_ex.c ****   /* Get the Timestamp interrupt source enable status */
 870:Drivers/STM32WBxx_HAL_Driver/Src/stm32wbxx_hal_rtc_ex.c ****   if (__HAL_RTC_TIMESTAMP_GET_IT_SOURCE(hrtc, RTC_IT_TS) != 0U)
 871:Drivers/STM32WBxx_HAL_Driver/Src/stm32wbxx_hal_rtc_ex.c ****   {
 872:Drivers/STM32WBxx_HAL_Driver/Src/stm32wbxx_hal_rtc_ex.c ****     /* Get the pending status of the Timestamp Interrupt */
 873:Drivers/STM32WBxx_HAL_Driver/Src/stm32wbxx_hal_rtc_ex.c ****     if (__HAL_RTC_TIMESTAMP_GET_FLAG(hrtc, RTC_FLAG_TSF) != 0U)
 874:Drivers/STM32WBxx_HAL_Driver/Src/stm32wbxx_hal_rtc_ex.c ****     {
 875:Drivers/STM32WBxx_HAL_Driver/Src/stm32wbxx_hal_rtc_ex.c ****       /* Timestamp callback */
 876:Drivers/STM32WBxx_HAL_Driver/Src/stm32wbxx_hal_rtc_ex.c **** #if (USE_HAL_RTC_REGISTER_CALLBACKS == 1)
 877:Drivers/STM32WBxx_HAL_Driver/Src/stm32wbxx_hal_rtc_ex.c ****       hrtc->TimeStampEventCallback(hrtc);
 878:Drivers/STM32WBxx_HAL_Driver/Src/stm32wbxx_hal_rtc_ex.c **** #else
 879:Drivers/STM32WBxx_HAL_Driver/Src/stm32wbxx_hal_rtc_ex.c ****       HAL_RTCEx_TimeStampEventCallback(hrtc);
 880:Drivers/STM32WBxx_HAL_Driver/Src/stm32wbxx_hal_rtc_ex.c **** #endif /* USE_HAL_RTC_REGISTER_CALLBACKS */
 881:Drivers/STM32WBxx_HAL_Driver/Src/stm32wbxx_hal_rtc_ex.c **** 
 882:Drivers/STM32WBxx_HAL_Driver/Src/stm32wbxx_hal_rtc_ex.c ****       /* Clear the Timestamp interrupt pending bit after returning from callback
 883:Drivers/STM32WBxx_HAL_Driver/Src/stm32wbxx_hal_rtc_ex.c ****          as RTC_TSTR and RTC_TSDR registers are cleared when TSF bit is reset */
 884:Drivers/STM32WBxx_HAL_Driver/Src/stm32wbxx_hal_rtc_ex.c ****       __HAL_RTC_TIMESTAMP_CLEAR_FLAG(hrtc, RTC_FLAG_TSF);
 885:Drivers/STM32WBxx_HAL_Driver/Src/stm32wbxx_hal_rtc_ex.c ****     }
 886:Drivers/STM32WBxx_HAL_Driver/Src/stm32wbxx_hal_rtc_ex.c ****   }
 887:Drivers/STM32WBxx_HAL_Driver/Src/stm32wbxx_hal_rtc_ex.c **** 
 888:Drivers/STM32WBxx_HAL_Driver/Src/stm32wbxx_hal_rtc_ex.c **** #if defined(RTC_TAMPER1_SUPPORT)
ARM GAS  C:\Users\Nathan\AppData\Local\Temp\ccWT97xY.s 			page 42


 889:Drivers/STM32WBxx_HAL_Driver/Src/stm32wbxx_hal_rtc_ex.c ****   /* Get the Tamper 1 interrupt source enable status */
 890:Drivers/STM32WBxx_HAL_Driver/Src/stm32wbxx_hal_rtc_ex.c ****   if (__HAL_RTC_TAMPER_GET_IT_SOURCE(hrtc, RTC_IT_TAMP | RTC_IT_TAMP1) != 0U)
 891:Drivers/STM32WBxx_HAL_Driver/Src/stm32wbxx_hal_rtc_ex.c ****   {
 892:Drivers/STM32WBxx_HAL_Driver/Src/stm32wbxx_hal_rtc_ex.c ****     /* Get the pending status of the Tamper 1 Interrupt */
 893:Drivers/STM32WBxx_HAL_Driver/Src/stm32wbxx_hal_rtc_ex.c ****     if (__HAL_RTC_TAMPER_GET_FLAG(hrtc, RTC_FLAG_TAMP1F) != 0U)
 894:Drivers/STM32WBxx_HAL_Driver/Src/stm32wbxx_hal_rtc_ex.c ****     {
 895:Drivers/STM32WBxx_HAL_Driver/Src/stm32wbxx_hal_rtc_ex.c ****       /* Clear the Tamper interrupt pending bit */
 896:Drivers/STM32WBxx_HAL_Driver/Src/stm32wbxx_hal_rtc_ex.c ****       __HAL_RTC_TAMPER_CLEAR_FLAG(hrtc, RTC_FLAG_TAMP1F);
 897:Drivers/STM32WBxx_HAL_Driver/Src/stm32wbxx_hal_rtc_ex.c **** 
 898:Drivers/STM32WBxx_HAL_Driver/Src/stm32wbxx_hal_rtc_ex.c ****       /* Tamper callback */
 899:Drivers/STM32WBxx_HAL_Driver/Src/stm32wbxx_hal_rtc_ex.c **** #if (USE_HAL_RTC_REGISTER_CALLBACKS == 1)
 900:Drivers/STM32WBxx_HAL_Driver/Src/stm32wbxx_hal_rtc_ex.c ****       hrtc->Tamper1EventCallback(hrtc);
 901:Drivers/STM32WBxx_HAL_Driver/Src/stm32wbxx_hal_rtc_ex.c **** #else
 902:Drivers/STM32WBxx_HAL_Driver/Src/stm32wbxx_hal_rtc_ex.c ****       HAL_RTCEx_Tamper1EventCallback(hrtc);
 903:Drivers/STM32WBxx_HAL_Driver/Src/stm32wbxx_hal_rtc_ex.c **** #endif /* USE_HAL_RTC_REGISTER_CALLBACKS */
 904:Drivers/STM32WBxx_HAL_Driver/Src/stm32wbxx_hal_rtc_ex.c ****     }
 905:Drivers/STM32WBxx_HAL_Driver/Src/stm32wbxx_hal_rtc_ex.c ****   }
 906:Drivers/STM32WBxx_HAL_Driver/Src/stm32wbxx_hal_rtc_ex.c **** #endif /* RTC_TAMPER1_SUPPORT */
 907:Drivers/STM32WBxx_HAL_Driver/Src/stm32wbxx_hal_rtc_ex.c **** 
 908:Drivers/STM32WBxx_HAL_Driver/Src/stm32wbxx_hal_rtc_ex.c ****   /* Get the Tamper 2 interrupt source enable status */
 909:Drivers/STM32WBxx_HAL_Driver/Src/stm32wbxx_hal_rtc_ex.c ****   if (__HAL_RTC_TAMPER_GET_IT_SOURCE(hrtc, RTC_IT_TAMP | RTC_IT_TAMP2) != 0U)
 910:Drivers/STM32WBxx_HAL_Driver/Src/stm32wbxx_hal_rtc_ex.c ****   {
 911:Drivers/STM32WBxx_HAL_Driver/Src/stm32wbxx_hal_rtc_ex.c ****     /* Get the pending status of the Tamper 2 Interrupt */
 912:Drivers/STM32WBxx_HAL_Driver/Src/stm32wbxx_hal_rtc_ex.c ****     if (__HAL_RTC_TAMPER_GET_FLAG(hrtc, RTC_FLAG_TAMP2F) != 0U)
 913:Drivers/STM32WBxx_HAL_Driver/Src/stm32wbxx_hal_rtc_ex.c ****     {
 914:Drivers/STM32WBxx_HAL_Driver/Src/stm32wbxx_hal_rtc_ex.c ****       /* Clear the Tamper interrupt pending bit */
 915:Drivers/STM32WBxx_HAL_Driver/Src/stm32wbxx_hal_rtc_ex.c ****       __HAL_RTC_TAMPER_CLEAR_FLAG(hrtc, RTC_FLAG_TAMP2F);
 916:Drivers/STM32WBxx_HAL_Driver/Src/stm32wbxx_hal_rtc_ex.c **** 
 917:Drivers/STM32WBxx_HAL_Driver/Src/stm32wbxx_hal_rtc_ex.c ****       /* Tamper callback */
 918:Drivers/STM32WBxx_HAL_Driver/Src/stm32wbxx_hal_rtc_ex.c **** #if (USE_HAL_RTC_REGISTER_CALLBACKS == 1)
 919:Drivers/STM32WBxx_HAL_Driver/Src/stm32wbxx_hal_rtc_ex.c ****       hrtc->Tamper2EventCallback(hrtc);
 920:Drivers/STM32WBxx_HAL_Driver/Src/stm32wbxx_hal_rtc_ex.c **** #else
 921:Drivers/STM32WBxx_HAL_Driver/Src/stm32wbxx_hal_rtc_ex.c ****       HAL_RTCEx_Tamper2EventCallback(hrtc);
 922:Drivers/STM32WBxx_HAL_Driver/Src/stm32wbxx_hal_rtc_ex.c **** #endif /* USE_HAL_RTC_REGISTER_CALLBACKS */
 923:Drivers/STM32WBxx_HAL_Driver/Src/stm32wbxx_hal_rtc_ex.c ****     }
 924:Drivers/STM32WBxx_HAL_Driver/Src/stm32wbxx_hal_rtc_ex.c ****   }
 925:Drivers/STM32WBxx_HAL_Driver/Src/stm32wbxx_hal_rtc_ex.c **** 
 926:Drivers/STM32WBxx_HAL_Driver/Src/stm32wbxx_hal_rtc_ex.c **** #if defined(RTC_TAMPER3_SUPPORT)
 927:Drivers/STM32WBxx_HAL_Driver/Src/stm32wbxx_hal_rtc_ex.c ****   /* Get the Tamper 3 interrupt source enable status */
 928:Drivers/STM32WBxx_HAL_Driver/Src/stm32wbxx_hal_rtc_ex.c ****   if (__HAL_RTC_TAMPER_GET_IT_SOURCE(hrtc, RTC_IT_TAMP | RTC_IT_TAMP3) != 0U)
 929:Drivers/STM32WBxx_HAL_Driver/Src/stm32wbxx_hal_rtc_ex.c ****   {
 930:Drivers/STM32WBxx_HAL_Driver/Src/stm32wbxx_hal_rtc_ex.c ****     /* Get the pending status of the Tamper 3 Interrupt */
 931:Drivers/STM32WBxx_HAL_Driver/Src/stm32wbxx_hal_rtc_ex.c ****     if (__HAL_RTC_TAMPER_GET_FLAG(hrtc, RTC_FLAG_TAMP3F) != 0U)
 932:Drivers/STM32WBxx_HAL_Driver/Src/stm32wbxx_hal_rtc_ex.c ****     {
 933:Drivers/STM32WBxx_HAL_Driver/Src/stm32wbxx_hal_rtc_ex.c ****       /* Clear the Tamper interrupt pending bit */
 934:Drivers/STM32WBxx_HAL_Driver/Src/stm32wbxx_hal_rtc_ex.c ****       __HAL_RTC_TAMPER_CLEAR_FLAG(hrtc, RTC_FLAG_TAMP3F);
 935:Drivers/STM32WBxx_HAL_Driver/Src/stm32wbxx_hal_rtc_ex.c **** 
 936:Drivers/STM32WBxx_HAL_Driver/Src/stm32wbxx_hal_rtc_ex.c ****       /* Tamper callback */
 937:Drivers/STM32WBxx_HAL_Driver/Src/stm32wbxx_hal_rtc_ex.c **** #if (USE_HAL_RTC_REGISTER_CALLBACKS == 1)
 938:Drivers/STM32WBxx_HAL_Driver/Src/stm32wbxx_hal_rtc_ex.c ****       hrtc->Tamper3EventCallback(hrtc);
 939:Drivers/STM32WBxx_HAL_Driver/Src/stm32wbxx_hal_rtc_ex.c **** #else
 940:Drivers/STM32WBxx_HAL_Driver/Src/stm32wbxx_hal_rtc_ex.c ****       HAL_RTCEx_Tamper3EventCallback(hrtc);
 941:Drivers/STM32WBxx_HAL_Driver/Src/stm32wbxx_hal_rtc_ex.c **** #endif /* USE_HAL_RTC_REGISTER_CALLBACKS */
 942:Drivers/STM32WBxx_HAL_Driver/Src/stm32wbxx_hal_rtc_ex.c ****     }
 943:Drivers/STM32WBxx_HAL_Driver/Src/stm32wbxx_hal_rtc_ex.c ****   }
 944:Drivers/STM32WBxx_HAL_Driver/Src/stm32wbxx_hal_rtc_ex.c **** #endif /* RTC_TAMPER3_SUPPORT */
 945:Drivers/STM32WBxx_HAL_Driver/Src/stm32wbxx_hal_rtc_ex.c **** 
ARM GAS  C:\Users\Nathan\AppData\Local\Temp\ccWT97xY.s 			page 43


 946:Drivers/STM32WBxx_HAL_Driver/Src/stm32wbxx_hal_rtc_ex.c ****   /* Change RTC state */
 947:Drivers/STM32WBxx_HAL_Driver/Src/stm32wbxx_hal_rtc_ex.c ****   hrtc->State = HAL_RTC_STATE_READY;
 948:Drivers/STM32WBxx_HAL_Driver/Src/stm32wbxx_hal_rtc_ex.c **** }
 949:Drivers/STM32WBxx_HAL_Driver/Src/stm32wbxx_hal_rtc_ex.c **** 
 950:Drivers/STM32WBxx_HAL_Driver/Src/stm32wbxx_hal_rtc_ex.c **** /**
 951:Drivers/STM32WBxx_HAL_Driver/Src/stm32wbxx_hal_rtc_ex.c ****   * @brief  Timestamp callback.
 952:Drivers/STM32WBxx_HAL_Driver/Src/stm32wbxx_hal_rtc_ex.c ****   * @param  hrtc pointer to a RTC_HandleTypeDef structure that contains
 953:Drivers/STM32WBxx_HAL_Driver/Src/stm32wbxx_hal_rtc_ex.c ****   *                the configuration information for RTC.
 954:Drivers/STM32WBxx_HAL_Driver/Src/stm32wbxx_hal_rtc_ex.c ****   * @retval None
 955:Drivers/STM32WBxx_HAL_Driver/Src/stm32wbxx_hal_rtc_ex.c ****   */
 956:Drivers/STM32WBxx_HAL_Driver/Src/stm32wbxx_hal_rtc_ex.c **** __weak void HAL_RTCEx_TimeStampEventCallback(RTC_HandleTypeDef *hrtc)
 957:Drivers/STM32WBxx_HAL_Driver/Src/stm32wbxx_hal_rtc_ex.c **** {
 1377              		.loc 1 957 1 is_stmt 1 view -0
 1378              		.cfi_startproc
 1379              		@ args = 0, pretend = 0, frame = 0
 1380              		@ frame_needed = 0, uses_anonymous_args = 0
 1381              		@ link register save eliminated.
 958:Drivers/STM32WBxx_HAL_Driver/Src/stm32wbxx_hal_rtc_ex.c ****   /* Prevent unused argument(s) compilation warning */
 959:Drivers/STM32WBxx_HAL_Driver/Src/stm32wbxx_hal_rtc_ex.c ****   UNUSED(hrtc);
 1382              		.loc 1 959 3 view .LVU518
 960:Drivers/STM32WBxx_HAL_Driver/Src/stm32wbxx_hal_rtc_ex.c **** 
 961:Drivers/STM32WBxx_HAL_Driver/Src/stm32wbxx_hal_rtc_ex.c ****   /* NOTE: This function should not be modified, when the callback is needed,
 962:Drivers/STM32WBxx_HAL_Driver/Src/stm32wbxx_hal_rtc_ex.c ****            the HAL_RTCEx_TimeStampEventCallback could be implemented in the user file
 963:Drivers/STM32WBxx_HAL_Driver/Src/stm32wbxx_hal_rtc_ex.c ****   */
 964:Drivers/STM32WBxx_HAL_Driver/Src/stm32wbxx_hal_rtc_ex.c **** }
 1383              		.loc 1 964 1 is_stmt 0 view .LVU519
 1384 0000 7047     		bx	lr
 1385              		.cfi_endproc
 1386              	.LFE1114:
 1388              		.section	.text.HAL_RTCEx_Tamper1EventCallback,"ax",%progbits
 1389              		.align	1
 1390              		.weak	HAL_RTCEx_Tamper1EventCallback
 1391              		.syntax unified
 1392              		.thumb
 1393              		.thumb_func
 1395              	HAL_RTCEx_Tamper1EventCallback:
 1396              	.LVL112:
 1397              	.LFB1115:
 965:Drivers/STM32WBxx_HAL_Driver/Src/stm32wbxx_hal_rtc_ex.c **** 
 966:Drivers/STM32WBxx_HAL_Driver/Src/stm32wbxx_hal_rtc_ex.c **** #if defined(RTC_TAMPER1_SUPPORT)
 967:Drivers/STM32WBxx_HAL_Driver/Src/stm32wbxx_hal_rtc_ex.c **** /**
 968:Drivers/STM32WBxx_HAL_Driver/Src/stm32wbxx_hal_rtc_ex.c ****   * @brief  Tamper 1 callback.
 969:Drivers/STM32WBxx_HAL_Driver/Src/stm32wbxx_hal_rtc_ex.c ****   * @param  hrtc pointer to a RTC_HandleTypeDef structure that contains
 970:Drivers/STM32WBxx_HAL_Driver/Src/stm32wbxx_hal_rtc_ex.c ****   *                the configuration information for RTC.
 971:Drivers/STM32WBxx_HAL_Driver/Src/stm32wbxx_hal_rtc_ex.c ****   * @retval None
 972:Drivers/STM32WBxx_HAL_Driver/Src/stm32wbxx_hal_rtc_ex.c ****   */
 973:Drivers/STM32WBxx_HAL_Driver/Src/stm32wbxx_hal_rtc_ex.c **** __weak void HAL_RTCEx_Tamper1EventCallback(RTC_HandleTypeDef *hrtc)
 974:Drivers/STM32WBxx_HAL_Driver/Src/stm32wbxx_hal_rtc_ex.c **** {
 1398              		.loc 1 974 1 is_stmt 1 view -0
 1399              		.cfi_startproc
 1400              		@ args = 0, pretend = 0, frame = 0
 1401              		@ frame_needed = 0, uses_anonymous_args = 0
 1402              		@ link register save eliminated.
 975:Drivers/STM32WBxx_HAL_Driver/Src/stm32wbxx_hal_rtc_ex.c ****   /* Prevent unused argument(s) compilation warning */
 976:Drivers/STM32WBxx_HAL_Driver/Src/stm32wbxx_hal_rtc_ex.c ****   UNUSED(hrtc);
 1403              		.loc 1 976 3 view .LVU521
 977:Drivers/STM32WBxx_HAL_Driver/Src/stm32wbxx_hal_rtc_ex.c **** 
ARM GAS  C:\Users\Nathan\AppData\Local\Temp\ccWT97xY.s 			page 44


 978:Drivers/STM32WBxx_HAL_Driver/Src/stm32wbxx_hal_rtc_ex.c ****   /* NOTE: This function should not be modified, when the callback is needed,
 979:Drivers/STM32WBxx_HAL_Driver/Src/stm32wbxx_hal_rtc_ex.c ****            the HAL_RTCEx_Tamper1EventCallback could be implemented in the user file
 980:Drivers/STM32WBxx_HAL_Driver/Src/stm32wbxx_hal_rtc_ex.c ****    */
 981:Drivers/STM32WBxx_HAL_Driver/Src/stm32wbxx_hal_rtc_ex.c **** }
 1404              		.loc 1 981 1 is_stmt 0 view .LVU522
 1405 0000 7047     		bx	lr
 1406              		.cfi_endproc
 1407              	.LFE1115:
 1409              		.section	.text.HAL_RTCEx_Tamper2EventCallback,"ax",%progbits
 1410              		.align	1
 1411              		.weak	HAL_RTCEx_Tamper2EventCallback
 1412              		.syntax unified
 1413              		.thumb
 1414              		.thumb_func
 1416              	HAL_RTCEx_Tamper2EventCallback:
 1417              	.LVL113:
 1418              	.LFB1116:
 982:Drivers/STM32WBxx_HAL_Driver/Src/stm32wbxx_hal_rtc_ex.c **** #endif /* RTC_TAMPER1_SUPPORT */
 983:Drivers/STM32WBxx_HAL_Driver/Src/stm32wbxx_hal_rtc_ex.c **** 
 984:Drivers/STM32WBxx_HAL_Driver/Src/stm32wbxx_hal_rtc_ex.c **** /**
 985:Drivers/STM32WBxx_HAL_Driver/Src/stm32wbxx_hal_rtc_ex.c ****   * @brief  Tamper 2 callback.
 986:Drivers/STM32WBxx_HAL_Driver/Src/stm32wbxx_hal_rtc_ex.c ****   * @param  hrtc pointer to a RTC_HandleTypeDef structure that contains
 987:Drivers/STM32WBxx_HAL_Driver/Src/stm32wbxx_hal_rtc_ex.c ****   *                the configuration information for RTC.
 988:Drivers/STM32WBxx_HAL_Driver/Src/stm32wbxx_hal_rtc_ex.c ****   * @retval None
 989:Drivers/STM32WBxx_HAL_Driver/Src/stm32wbxx_hal_rtc_ex.c ****   */
 990:Drivers/STM32WBxx_HAL_Driver/Src/stm32wbxx_hal_rtc_ex.c **** __weak void HAL_RTCEx_Tamper2EventCallback(RTC_HandleTypeDef *hrtc)
 991:Drivers/STM32WBxx_HAL_Driver/Src/stm32wbxx_hal_rtc_ex.c **** {
 1419              		.loc 1 991 1 is_stmt 1 view -0
 1420              		.cfi_startproc
 1421              		@ args = 0, pretend = 0, frame = 0
 1422              		@ frame_needed = 0, uses_anonymous_args = 0
 1423              		@ link register save eliminated.
 992:Drivers/STM32WBxx_HAL_Driver/Src/stm32wbxx_hal_rtc_ex.c ****   /* Prevent unused argument(s) compilation warning */
 993:Drivers/STM32WBxx_HAL_Driver/Src/stm32wbxx_hal_rtc_ex.c ****   UNUSED(hrtc);
 1424              		.loc 1 993 3 view .LVU524
 994:Drivers/STM32WBxx_HAL_Driver/Src/stm32wbxx_hal_rtc_ex.c **** 
 995:Drivers/STM32WBxx_HAL_Driver/Src/stm32wbxx_hal_rtc_ex.c ****   /* NOTE: This function should not be modified, when the callback is needed,
 996:Drivers/STM32WBxx_HAL_Driver/Src/stm32wbxx_hal_rtc_ex.c ****            the HAL_RTCEx_Tamper2EventCallback could be implemented in the user file
 997:Drivers/STM32WBxx_HAL_Driver/Src/stm32wbxx_hal_rtc_ex.c ****    */
 998:Drivers/STM32WBxx_HAL_Driver/Src/stm32wbxx_hal_rtc_ex.c **** }
 1425              		.loc 1 998 1 is_stmt 0 view .LVU525
 1426 0000 7047     		bx	lr
 1427              		.cfi_endproc
 1428              	.LFE1116:
 1430              		.section	.text.HAL_RTCEx_Tamper3EventCallback,"ax",%progbits
 1431              		.align	1
 1432              		.weak	HAL_RTCEx_Tamper3EventCallback
 1433              		.syntax unified
 1434              		.thumb
 1435              		.thumb_func
 1437              	HAL_RTCEx_Tamper3EventCallback:
 1438              	.LVL114:
 1439              	.LFB1117:
 999:Drivers/STM32WBxx_HAL_Driver/Src/stm32wbxx_hal_rtc_ex.c **** 
1000:Drivers/STM32WBxx_HAL_Driver/Src/stm32wbxx_hal_rtc_ex.c **** #if defined(RTC_TAMPER3_SUPPORT)
1001:Drivers/STM32WBxx_HAL_Driver/Src/stm32wbxx_hal_rtc_ex.c **** /**
1002:Drivers/STM32WBxx_HAL_Driver/Src/stm32wbxx_hal_rtc_ex.c ****   * @brief  Tamper 3 callback.
ARM GAS  C:\Users\Nathan\AppData\Local\Temp\ccWT97xY.s 			page 45


1003:Drivers/STM32WBxx_HAL_Driver/Src/stm32wbxx_hal_rtc_ex.c ****   * @param  hrtc pointer to a RTC_HandleTypeDef structure that contains
1004:Drivers/STM32WBxx_HAL_Driver/Src/stm32wbxx_hal_rtc_ex.c ****   *                the configuration information for RTC.
1005:Drivers/STM32WBxx_HAL_Driver/Src/stm32wbxx_hal_rtc_ex.c ****   * @retval None
1006:Drivers/STM32WBxx_HAL_Driver/Src/stm32wbxx_hal_rtc_ex.c ****   */
1007:Drivers/STM32WBxx_HAL_Driver/Src/stm32wbxx_hal_rtc_ex.c **** __weak void HAL_RTCEx_Tamper3EventCallback(RTC_HandleTypeDef *hrtc)
1008:Drivers/STM32WBxx_HAL_Driver/Src/stm32wbxx_hal_rtc_ex.c **** {
 1440              		.loc 1 1008 1 is_stmt 1 view -0
 1441              		.cfi_startproc
 1442              		@ args = 0, pretend = 0, frame = 0
 1443              		@ frame_needed = 0, uses_anonymous_args = 0
 1444              		@ link register save eliminated.
1009:Drivers/STM32WBxx_HAL_Driver/Src/stm32wbxx_hal_rtc_ex.c ****   /* Prevent unused argument(s) compilation warning */
1010:Drivers/STM32WBxx_HAL_Driver/Src/stm32wbxx_hal_rtc_ex.c ****   UNUSED(hrtc);
 1445              		.loc 1 1010 3 view .LVU527
1011:Drivers/STM32WBxx_HAL_Driver/Src/stm32wbxx_hal_rtc_ex.c **** 
1012:Drivers/STM32WBxx_HAL_Driver/Src/stm32wbxx_hal_rtc_ex.c ****   /* NOTE: This function should not be modified, when the callback is needed,
1013:Drivers/STM32WBxx_HAL_Driver/Src/stm32wbxx_hal_rtc_ex.c ****            the HAL_RTCEx_Tamper3EventCallback could be implemented in the user file
1014:Drivers/STM32WBxx_HAL_Driver/Src/stm32wbxx_hal_rtc_ex.c ****    */
1015:Drivers/STM32WBxx_HAL_Driver/Src/stm32wbxx_hal_rtc_ex.c **** }
 1446              		.loc 1 1015 1 is_stmt 0 view .LVU528
 1447 0000 7047     		bx	lr
 1448              		.cfi_endproc
 1449              	.LFE1117:
 1451              		.section	.text.HAL_RTCEx_TamperTimeStampIRQHandler,"ax",%progbits
 1452              		.align	1
 1453              		.global	HAL_RTCEx_TamperTimeStampIRQHandler
 1454              		.syntax unified
 1455              		.thumb
 1456              		.thumb_func
 1458              	HAL_RTCEx_TamperTimeStampIRQHandler:
 1459              	.LVL115:
 1460              	.LFB1113:
 865:Drivers/STM32WBxx_HAL_Driver/Src/stm32wbxx_hal_rtc_ex.c ****   /* Clear the EXTI flag associated to the RTC Timestamp and Tamper interrupts */
 1461              		.loc 1 865 1 is_stmt 1 view -0
 1462              		.cfi_startproc
 1463              		@ args = 0, pretend = 0, frame = 0
 1464              		@ frame_needed = 0, uses_anonymous_args = 0
 865:Drivers/STM32WBxx_HAL_Driver/Src/stm32wbxx_hal_rtc_ex.c ****   /* Clear the EXTI flag associated to the RTC Timestamp and Tamper interrupts */
 1465              		.loc 1 865 1 is_stmt 0 view .LVU530
 1466 0000 10B5     		push	{r4, lr}
 1467              		.cfi_def_cfa_offset 8
 1468              		.cfi_offset 4, -8
 1469              		.cfi_offset 14, -4
 1470 0002 0446     		mov	r4, r0
 867:Drivers/STM32WBxx_HAL_Driver/Src/stm32wbxx_hal_rtc_ex.c **** 
 1471              		.loc 1 867 3 is_stmt 1 view .LVU531
 1472 0004 2A4B     		ldr	r3, .L107
 1473 0006 4FF48022 		mov	r2, #262144
 1474 000a DA60     		str	r2, [r3, #12]
 870:Drivers/STM32WBxx_HAL_Driver/Src/stm32wbxx_hal_rtc_ex.c ****   {
 1475              		.loc 1 870 3 view .LVU532
 870:Drivers/STM32WBxx_HAL_Driver/Src/stm32wbxx_hal_rtc_ex.c ****   {
 1476              		.loc 1 870 7 is_stmt 0 view .LVU533
 1477 000c 0368     		ldr	r3, [r0]
 1478 000e 9A68     		ldr	r2, [r3, #8]
 870:Drivers/STM32WBxx_HAL_Driver/Src/stm32wbxx_hal_rtc_ex.c ****   {
 1479              		.loc 1 870 6 view .LVU534
ARM GAS  C:\Users\Nathan\AppData\Local\Temp\ccWT97xY.s 			page 46


 1480 0010 12F4004F 		tst	r2, #32768
 1481 0014 03D0     		beq	.L98
 873:Drivers/STM32WBxx_HAL_Driver/Src/stm32wbxx_hal_rtc_ex.c ****     {
 1482              		.loc 1 873 5 is_stmt 1 view .LVU535
 873:Drivers/STM32WBxx_HAL_Driver/Src/stm32wbxx_hal_rtc_ex.c ****     {
 1483              		.loc 1 873 9 is_stmt 0 view .LVU536
 1484 0016 DB68     		ldr	r3, [r3, #12]
 873:Drivers/STM32WBxx_HAL_Driver/Src/stm32wbxx_hal_rtc_ex.c ****     {
 1485              		.loc 1 873 8 view .LVU537
 1486 0018 13F4006F 		tst	r3, #2048
 1487 001c 1ED1     		bne	.L103
 1488              	.LVL116:
 1489              	.L98:
 890:Drivers/STM32WBxx_HAL_Driver/Src/stm32wbxx_hal_rtc_ex.c ****   {
 1490              		.loc 1 890 3 is_stmt 1 view .LVU538
 890:Drivers/STM32WBxx_HAL_Driver/Src/stm32wbxx_hal_rtc_ex.c ****   {
 1491              		.loc 1 890 7 is_stmt 0 view .LVU539
 1492 001e 2268     		ldr	r2, [r4]
 1493 0020 116C     		ldr	r1, [r2, #64]
 1494 0022 244B     		ldr	r3, .L107+4
 1495 0024 0B40     		ands	r3, r3, r1
 890:Drivers/STM32WBxx_HAL_Driver/Src/stm32wbxx_hal_rtc_ex.c ****   {
 1496              		.loc 1 890 6 view .LVU540
 1497 0026 1BB1     		cbz	r3, .L99
 893:Drivers/STM32WBxx_HAL_Driver/Src/stm32wbxx_hal_rtc_ex.c ****     {
 1498              		.loc 1 893 5 is_stmt 1 view .LVU541
 893:Drivers/STM32WBxx_HAL_Driver/Src/stm32wbxx_hal_rtc_ex.c ****     {
 1499              		.loc 1 893 9 is_stmt 0 view .LVU542
 1500 0028 D368     		ldr	r3, [r2, #12]
 893:Drivers/STM32WBxx_HAL_Driver/Src/stm32wbxx_hal_rtc_ex.c ****     {
 1501              		.loc 1 893 8 view .LVU543
 1502 002a 13F4005F 		tst	r3, #8192
 1503 002e 1ED1     		bne	.L104
 1504              	.L99:
 909:Drivers/STM32WBxx_HAL_Driver/Src/stm32wbxx_hal_rtc_ex.c ****   {
 1505              		.loc 1 909 3 is_stmt 1 view .LVU544
 909:Drivers/STM32WBxx_HAL_Driver/Src/stm32wbxx_hal_rtc_ex.c ****   {
 1506              		.loc 1 909 7 is_stmt 0 view .LVU545
 1507 0030 2268     		ldr	r2, [r4]
 1508 0032 116C     		ldr	r1, [r2, #64]
 1509 0034 204B     		ldr	r3, .L107+8
 1510 0036 0B40     		ands	r3, r3, r1
 909:Drivers/STM32WBxx_HAL_Driver/Src/stm32wbxx_hal_rtc_ex.c ****   {
 1511              		.loc 1 909 6 view .LVU546
 1512 0038 1BB1     		cbz	r3, .L100
 912:Drivers/STM32WBxx_HAL_Driver/Src/stm32wbxx_hal_rtc_ex.c ****     {
 1513              		.loc 1 912 5 is_stmt 1 view .LVU547
 912:Drivers/STM32WBxx_HAL_Driver/Src/stm32wbxx_hal_rtc_ex.c ****     {
 1514              		.loc 1 912 9 is_stmt 0 view .LVU548
 1515 003a D368     		ldr	r3, [r2, #12]
 912:Drivers/STM32WBxx_HAL_Driver/Src/stm32wbxx_hal_rtc_ex.c ****     {
 1516              		.loc 1 912 8 view .LVU549
 1517 003c 13F4804F 		tst	r3, #16384
 1518 0040 1ED1     		bne	.L105
 1519              	.L100:
 928:Drivers/STM32WBxx_HAL_Driver/Src/stm32wbxx_hal_rtc_ex.c ****   {
 1520              		.loc 1 928 3 is_stmt 1 view .LVU550
ARM GAS  C:\Users\Nathan\AppData\Local\Temp\ccWT97xY.s 			page 47


 928:Drivers/STM32WBxx_HAL_Driver/Src/stm32wbxx_hal_rtc_ex.c ****   {
 1521              		.loc 1 928 7 is_stmt 0 view .LVU551
 1522 0042 2268     		ldr	r2, [r4]
 1523 0044 116C     		ldr	r1, [r2, #64]
 1524 0046 1D4B     		ldr	r3, .L107+12
 1525 0048 0B40     		ands	r3, r3, r1
 928:Drivers/STM32WBxx_HAL_Driver/Src/stm32wbxx_hal_rtc_ex.c ****   {
 1526              		.loc 1 928 6 view .LVU552
 1527 004a 1BB1     		cbz	r3, .L101
 931:Drivers/STM32WBxx_HAL_Driver/Src/stm32wbxx_hal_rtc_ex.c ****     {
 1528              		.loc 1 931 5 is_stmt 1 view .LVU553
 931:Drivers/STM32WBxx_HAL_Driver/Src/stm32wbxx_hal_rtc_ex.c ****     {
 1529              		.loc 1 931 9 is_stmt 0 view .LVU554
 1530 004c D368     		ldr	r3, [r2, #12]
 931:Drivers/STM32WBxx_HAL_Driver/Src/stm32wbxx_hal_rtc_ex.c ****     {
 1531              		.loc 1 931 8 view .LVU555
 1532 004e 13F4004F 		tst	r3, #32768
 1533 0052 1ED1     		bne	.L106
 1534              	.L101:
 947:Drivers/STM32WBxx_HAL_Driver/Src/stm32wbxx_hal_rtc_ex.c **** }
 1535              		.loc 1 947 3 is_stmt 1 view .LVU556
 947:Drivers/STM32WBxx_HAL_Driver/Src/stm32wbxx_hal_rtc_ex.c **** }
 1536              		.loc 1 947 15 is_stmt 0 view .LVU557
 1537 0054 0123     		movs	r3, #1
 1538 0056 84F82130 		strb	r3, [r4, #33]
 948:Drivers/STM32WBxx_HAL_Driver/Src/stm32wbxx_hal_rtc_ex.c **** 
 1539              		.loc 1 948 1 view .LVU558
 1540 005a 10BD     		pop	{r4, pc}
 1541              	.LVL117:
 1542              	.L103:
 879:Drivers/STM32WBxx_HAL_Driver/Src/stm32wbxx_hal_rtc_ex.c **** #endif /* USE_HAL_RTC_REGISTER_CALLBACKS */
 1543              		.loc 1 879 7 is_stmt 1 view .LVU559
 1544 005c FFF7FEFF 		bl	HAL_RTCEx_TimeStampEventCallback
 1545              	.LVL118:
 884:Drivers/STM32WBxx_HAL_Driver/Src/stm32wbxx_hal_rtc_ex.c ****     }
 1546              		.loc 1 884 7 view .LVU560
 1547 0060 2268     		ldr	r2, [r4]
 1548 0062 D368     		ldr	r3, [r2, #12]
 1549 0064 DBB2     		uxtb	r3, r3
 1550 0066 63F40863 		orn	r3, r3, #2176
 1551 006a D360     		str	r3, [r2, #12]
 1552 006c D7E7     		b	.L98
 1553              	.L104:
 896:Drivers/STM32WBxx_HAL_Driver/Src/stm32wbxx_hal_rtc_ex.c **** 
 1554              		.loc 1 896 7 view .LVU561
 1555 006e D368     		ldr	r3, [r2, #12]
 1556 0070 DBB2     		uxtb	r3, r3
 1557 0072 63F40253 		orn	r3, r3, #8320
 1558 0076 D360     		str	r3, [r2, #12]
 902:Drivers/STM32WBxx_HAL_Driver/Src/stm32wbxx_hal_rtc_ex.c **** #endif /* USE_HAL_RTC_REGISTER_CALLBACKS */
 1559              		.loc 1 902 7 view .LVU562
 1560 0078 2046     		mov	r0, r4
 1561 007a FFF7FEFF 		bl	HAL_RTCEx_Tamper1EventCallback
 1562              	.LVL119:
 1563 007e D7E7     		b	.L99
 1564              	.L105:
 915:Drivers/STM32WBxx_HAL_Driver/Src/stm32wbxx_hal_rtc_ex.c **** 
ARM GAS  C:\Users\Nathan\AppData\Local\Temp\ccWT97xY.s 			page 48


 1565              		.loc 1 915 7 view .LVU563
 1566 0080 D368     		ldr	r3, [r2, #12]
 1567 0082 DBB2     		uxtb	r3, r3
 1568 0084 63F48143 		orn	r3, r3, #16512
 1569 0088 D360     		str	r3, [r2, #12]
 921:Drivers/STM32WBxx_HAL_Driver/Src/stm32wbxx_hal_rtc_ex.c **** #endif /* USE_HAL_RTC_REGISTER_CALLBACKS */
 1570              		.loc 1 921 7 view .LVU564
 1571 008a 2046     		mov	r0, r4
 1572 008c FFF7FEFF 		bl	HAL_RTCEx_Tamper2EventCallback
 1573              	.LVL120:
 1574 0090 D7E7     		b	.L100
 1575              	.L106:
 934:Drivers/STM32WBxx_HAL_Driver/Src/stm32wbxx_hal_rtc_ex.c **** 
 1576              		.loc 1 934 7 view .LVU565
 1577 0092 D368     		ldr	r3, [r2, #12]
 1578 0094 DBB2     		uxtb	r3, r3
 1579 0096 43F07F43 		orr	r3, r3, #-16777216
 1580 009a 43F47F03 		orr	r3, r3, #16711680
 1581 009e 43F4FE43 		orr	r3, r3, #32512
 1582 00a2 43F07F03 		orr	r3, r3, #127
 1583 00a6 D360     		str	r3, [r2, #12]
 940:Drivers/STM32WBxx_HAL_Driver/Src/stm32wbxx_hal_rtc_ex.c **** #endif /* USE_HAL_RTC_REGISTER_CALLBACKS */
 1584              		.loc 1 940 7 view .LVU566
 1585 00a8 2046     		mov	r0, r4
 1586 00aa FFF7FEFF 		bl	HAL_RTCEx_Tamper3EventCallback
 1587              	.LVL121:
 1588 00ae D1E7     		b	.L101
 1589              	.L108:
 1590              		.align	2
 1591              	.L107:
 1592 00b0 00080058 		.word	1476397056
 1593 00b4 04000100 		.word	65540
 1594 00b8 04000800 		.word	524292
 1595 00bc 04004000 		.word	4194308
 1596              		.cfi_endproc
 1597              	.LFE1113:
 1599              		.section	.text.HAL_RTCEx_PollForTimeStampEvent,"ax",%progbits
 1600              		.align	1
 1601              		.global	HAL_RTCEx_PollForTimeStampEvent
 1602              		.syntax unified
 1603              		.thumb
 1604              		.thumb_func
 1606              	HAL_RTCEx_PollForTimeStampEvent:
 1607              	.LVL122:
 1608              	.LFB1118:
1016:Drivers/STM32WBxx_HAL_Driver/Src/stm32wbxx_hal_rtc_ex.c **** #endif /* RTC_TAMPER3_SUPPORT */
1017:Drivers/STM32WBxx_HAL_Driver/Src/stm32wbxx_hal_rtc_ex.c **** 
1018:Drivers/STM32WBxx_HAL_Driver/Src/stm32wbxx_hal_rtc_ex.c **** /**
1019:Drivers/STM32WBxx_HAL_Driver/Src/stm32wbxx_hal_rtc_ex.c ****   * @brief  Handles Timestamp polling request.
1020:Drivers/STM32WBxx_HAL_Driver/Src/stm32wbxx_hal_rtc_ex.c ****   * @param  hrtc pointer to a RTC_HandleTypeDef structure that contains
1021:Drivers/STM32WBxx_HAL_Driver/Src/stm32wbxx_hal_rtc_ex.c ****   *                the configuration information for RTC.
1022:Drivers/STM32WBxx_HAL_Driver/Src/stm32wbxx_hal_rtc_ex.c ****   * @param  Timeout Timeout duration
1023:Drivers/STM32WBxx_HAL_Driver/Src/stm32wbxx_hal_rtc_ex.c ****   * @retval HAL status
1024:Drivers/STM32WBxx_HAL_Driver/Src/stm32wbxx_hal_rtc_ex.c ****   */
1025:Drivers/STM32WBxx_HAL_Driver/Src/stm32wbxx_hal_rtc_ex.c **** HAL_StatusTypeDef HAL_RTCEx_PollForTimeStampEvent(RTC_HandleTypeDef *hrtc, uint32_t Timeout)
1026:Drivers/STM32WBxx_HAL_Driver/Src/stm32wbxx_hal_rtc_ex.c **** {
 1609              		.loc 1 1026 1 view -0
ARM GAS  C:\Users\Nathan\AppData\Local\Temp\ccWT97xY.s 			page 49


 1610              		.cfi_startproc
 1611              		@ args = 0, pretend = 0, frame = 0
 1612              		@ frame_needed = 0, uses_anonymous_args = 0
 1613              		.loc 1 1026 1 is_stmt 0 view .LVU568
 1614 0000 70B5     		push	{r4, r5, r6, lr}
 1615              		.cfi_def_cfa_offset 16
 1616              		.cfi_offset 4, -16
 1617              		.cfi_offset 5, -12
 1618              		.cfi_offset 6, -8
 1619              		.cfi_offset 14, -4
 1620 0002 0546     		mov	r5, r0
 1621 0004 0C46     		mov	r4, r1
1027:Drivers/STM32WBxx_HAL_Driver/Src/stm32wbxx_hal_rtc_ex.c ****   uint32_t tickstart = 0U;
 1622              		.loc 1 1027 3 is_stmt 1 view .LVU569
 1623              	.LVL123:
1028:Drivers/STM32WBxx_HAL_Driver/Src/stm32wbxx_hal_rtc_ex.c **** 
1029:Drivers/STM32WBxx_HAL_Driver/Src/stm32wbxx_hal_rtc_ex.c ****   /* Get tick */
1030:Drivers/STM32WBxx_HAL_Driver/Src/stm32wbxx_hal_rtc_ex.c ****   tickstart = HAL_GetTick();
 1624              		.loc 1 1030 3 view .LVU570
 1625              		.loc 1 1030 15 is_stmt 0 view .LVU571
 1626 0006 FFF7FEFF 		bl	HAL_GetTick
 1627              	.LVL124:
 1628              		.loc 1 1030 15 view .LVU572
 1629 000a 0646     		mov	r6, r0
 1630              	.LVL125:
1031:Drivers/STM32WBxx_HAL_Driver/Src/stm32wbxx_hal_rtc_ex.c **** 
1032:Drivers/STM32WBxx_HAL_Driver/Src/stm32wbxx_hal_rtc_ex.c ****   while (__HAL_RTC_TIMESTAMP_GET_FLAG(hrtc, RTC_FLAG_TSF) == 0U)
 1631              		.loc 1 1032 3 is_stmt 1 view .LVU573
 1632              		.loc 1 1032 9 is_stmt 0 view .LVU574
 1633 000c 04E0     		b	.L110
 1634              	.LVL126:
 1635              	.L111:
1033:Drivers/STM32WBxx_HAL_Driver/Src/stm32wbxx_hal_rtc_ex.c ****   {
1034:Drivers/STM32WBxx_HAL_Driver/Src/stm32wbxx_hal_rtc_ex.c ****     if (Timeout != HAL_MAX_DELAY)
1035:Drivers/STM32WBxx_HAL_Driver/Src/stm32wbxx_hal_rtc_ex.c ****     {
1036:Drivers/STM32WBxx_HAL_Driver/Src/stm32wbxx_hal_rtc_ex.c ****       if ((Timeout == 0U) || ((HAL_GetTick() - tickstart) > Timeout))
1037:Drivers/STM32WBxx_HAL_Driver/Src/stm32wbxx_hal_rtc_ex.c ****       {
1038:Drivers/STM32WBxx_HAL_Driver/Src/stm32wbxx_hal_rtc_ex.c ****         hrtc->State = HAL_RTC_STATE_TIMEOUT;
1039:Drivers/STM32WBxx_HAL_Driver/Src/stm32wbxx_hal_rtc_ex.c ****         return HAL_TIMEOUT;
1040:Drivers/STM32WBxx_HAL_Driver/Src/stm32wbxx_hal_rtc_ex.c ****       }
1041:Drivers/STM32WBxx_HAL_Driver/Src/stm32wbxx_hal_rtc_ex.c ****     }
1042:Drivers/STM32WBxx_HAL_Driver/Src/stm32wbxx_hal_rtc_ex.c **** 
1043:Drivers/STM32WBxx_HAL_Driver/Src/stm32wbxx_hal_rtc_ex.c ****     if (__HAL_RTC_TIMESTAMP_GET_FLAG(hrtc, RTC_FLAG_TSOVF) != 0U)
 1636              		.loc 1 1043 5 is_stmt 1 view .LVU575
 1637              		.loc 1 1043 9 is_stmt 0 view .LVU576
 1638 000e 2B68     		ldr	r3, [r5]
 1639 0010 DA68     		ldr	r2, [r3, #12]
 1640              		.loc 1 1043 8 view .LVU577
 1641 0012 12F4805F 		tst	r2, #4096
 1642 0016 11D1     		bne	.L116
 1643              	.L110:
1032:Drivers/STM32WBxx_HAL_Driver/Src/stm32wbxx_hal_rtc_ex.c ****   {
 1644              		.loc 1 1032 59 is_stmt 1 view .LVU578
1032:Drivers/STM32WBxx_HAL_Driver/Src/stm32wbxx_hal_rtc_ex.c ****   {
 1645              		.loc 1 1032 10 is_stmt 0 view .LVU579
 1646 0018 2B68     		ldr	r3, [r5]
 1647 001a DB68     		ldr	r3, [r3, #12]
ARM GAS  C:\Users\Nathan\AppData\Local\Temp\ccWT97xY.s 			page 50


1032:Drivers/STM32WBxx_HAL_Driver/Src/stm32wbxx_hal_rtc_ex.c ****   {
 1648              		.loc 1 1032 59 view .LVU580
 1649 001c 13F4006F 		tst	r3, #2048
 1650 0020 16D1     		bne	.L117
1034:Drivers/STM32WBxx_HAL_Driver/Src/stm32wbxx_hal_rtc_ex.c ****     {
 1651              		.loc 1 1034 5 is_stmt 1 view .LVU581
1034:Drivers/STM32WBxx_HAL_Driver/Src/stm32wbxx_hal_rtc_ex.c ****     {
 1652              		.loc 1 1034 8 is_stmt 0 view .LVU582
 1653 0022 B4F1FF3F 		cmp	r4, #-1
 1654 0026 F2D0     		beq	.L111
1036:Drivers/STM32WBxx_HAL_Driver/Src/stm32wbxx_hal_rtc_ex.c ****       {
 1655              		.loc 1 1036 7 is_stmt 1 view .LVU583
1036:Drivers/STM32WBxx_HAL_Driver/Src/stm32wbxx_hal_rtc_ex.c ****       {
 1656              		.loc 1 1036 10 is_stmt 0 view .LVU584
 1657 0028 24B1     		cbz	r4, .L112
1036:Drivers/STM32WBxx_HAL_Driver/Src/stm32wbxx_hal_rtc_ex.c ****       {
 1658              		.loc 1 1036 32 discriminator 1 view .LVU585
 1659 002a FFF7FEFF 		bl	HAL_GetTick
 1660              	.LVL127:
1036:Drivers/STM32WBxx_HAL_Driver/Src/stm32wbxx_hal_rtc_ex.c ****       {
 1661              		.loc 1 1036 46 discriminator 1 view .LVU586
 1662 002e 831B     		subs	r3, r0, r6
1036:Drivers/STM32WBxx_HAL_Driver/Src/stm32wbxx_hal_rtc_ex.c ****       {
 1663              		.loc 1 1036 27 discriminator 1 view .LVU587
 1664 0030 A342     		cmp	r3, r4
 1665 0032 ECD9     		bls	.L111
 1666              	.L112:
1038:Drivers/STM32WBxx_HAL_Driver/Src/stm32wbxx_hal_rtc_ex.c ****         return HAL_TIMEOUT;
 1667              		.loc 1 1038 9 is_stmt 1 view .LVU588
1038:Drivers/STM32WBxx_HAL_Driver/Src/stm32wbxx_hal_rtc_ex.c ****         return HAL_TIMEOUT;
 1668              		.loc 1 1038 21 is_stmt 0 view .LVU589
 1669 0034 0320     		movs	r0, #3
 1670 0036 85F82100 		strb	r0, [r5, #33]
1039:Drivers/STM32WBxx_HAL_Driver/Src/stm32wbxx_hal_rtc_ex.c ****       }
 1671              		.loc 1 1039 9 is_stmt 1 view .LVU590
 1672              	.L113:
1044:Drivers/STM32WBxx_HAL_Driver/Src/stm32wbxx_hal_rtc_ex.c ****     {
1045:Drivers/STM32WBxx_HAL_Driver/Src/stm32wbxx_hal_rtc_ex.c ****       /* Clear the Timestamp Overrun Flag */
1046:Drivers/STM32WBxx_HAL_Driver/Src/stm32wbxx_hal_rtc_ex.c ****       __HAL_RTC_TIMESTAMP_CLEAR_FLAG(hrtc, RTC_FLAG_TSOVF);
1047:Drivers/STM32WBxx_HAL_Driver/Src/stm32wbxx_hal_rtc_ex.c **** 
1048:Drivers/STM32WBxx_HAL_Driver/Src/stm32wbxx_hal_rtc_ex.c ****       /* Change Timestamp state */
1049:Drivers/STM32WBxx_HAL_Driver/Src/stm32wbxx_hal_rtc_ex.c ****       hrtc->State = HAL_RTC_STATE_ERROR;
1050:Drivers/STM32WBxx_HAL_Driver/Src/stm32wbxx_hal_rtc_ex.c **** 
1051:Drivers/STM32WBxx_HAL_Driver/Src/stm32wbxx_hal_rtc_ex.c ****       return HAL_ERROR;
1052:Drivers/STM32WBxx_HAL_Driver/Src/stm32wbxx_hal_rtc_ex.c ****     }
1053:Drivers/STM32WBxx_HAL_Driver/Src/stm32wbxx_hal_rtc_ex.c ****   }
1054:Drivers/STM32WBxx_HAL_Driver/Src/stm32wbxx_hal_rtc_ex.c **** 
1055:Drivers/STM32WBxx_HAL_Driver/Src/stm32wbxx_hal_rtc_ex.c ****   /* Change RTC state */
1056:Drivers/STM32WBxx_HAL_Driver/Src/stm32wbxx_hal_rtc_ex.c ****   hrtc->State = HAL_RTC_STATE_READY;
1057:Drivers/STM32WBxx_HAL_Driver/Src/stm32wbxx_hal_rtc_ex.c **** 
1058:Drivers/STM32WBxx_HAL_Driver/Src/stm32wbxx_hal_rtc_ex.c ****   return HAL_OK;
1059:Drivers/STM32WBxx_HAL_Driver/Src/stm32wbxx_hal_rtc_ex.c **** }
 1673              		.loc 1 1059 1 is_stmt 0 view .LVU591
 1674 003a 70BD     		pop	{r4, r5, r6, pc}
 1675              	.LVL128:
 1676              	.L116:
1046:Drivers/STM32WBxx_HAL_Driver/Src/stm32wbxx_hal_rtc_ex.c **** 
ARM GAS  C:\Users\Nathan\AppData\Local\Temp\ccWT97xY.s 			page 51


 1677              		.loc 1 1046 7 is_stmt 1 view .LVU592
 1678 003c DA68     		ldr	r2, [r3, #12]
 1679 003e D2B2     		uxtb	r2, r2
 1680 0040 62F48452 		orn	r2, r2, #4224
 1681 0044 DA60     		str	r2, [r3, #12]
1049:Drivers/STM32WBxx_HAL_Driver/Src/stm32wbxx_hal_rtc_ex.c **** 
 1682              		.loc 1 1049 7 view .LVU593
1049:Drivers/STM32WBxx_HAL_Driver/Src/stm32wbxx_hal_rtc_ex.c **** 
 1683              		.loc 1 1049 19 is_stmt 0 view .LVU594
 1684 0046 0423     		movs	r3, #4
 1685 0048 85F82130 		strb	r3, [r5, #33]
1051:Drivers/STM32WBxx_HAL_Driver/Src/stm32wbxx_hal_rtc_ex.c ****     }
 1686              		.loc 1 1051 7 is_stmt 1 view .LVU595
1051:Drivers/STM32WBxx_HAL_Driver/Src/stm32wbxx_hal_rtc_ex.c ****     }
 1687              		.loc 1 1051 14 is_stmt 0 view .LVU596
 1688 004c 0120     		movs	r0, #1
 1689 004e F4E7     		b	.L113
 1690              	.L117:
1056:Drivers/STM32WBxx_HAL_Driver/Src/stm32wbxx_hal_rtc_ex.c **** 
 1691              		.loc 1 1056 3 is_stmt 1 view .LVU597
1056:Drivers/STM32WBxx_HAL_Driver/Src/stm32wbxx_hal_rtc_ex.c **** 
 1692              		.loc 1 1056 15 is_stmt 0 view .LVU598
 1693 0050 0123     		movs	r3, #1
 1694 0052 85F82130 		strb	r3, [r5, #33]
1058:Drivers/STM32WBxx_HAL_Driver/Src/stm32wbxx_hal_rtc_ex.c **** }
 1695              		.loc 1 1058 3 is_stmt 1 view .LVU599
1058:Drivers/STM32WBxx_HAL_Driver/Src/stm32wbxx_hal_rtc_ex.c **** }
 1696              		.loc 1 1058 10 is_stmt 0 view .LVU600
 1697 0056 0020     		movs	r0, #0
 1698 0058 EFE7     		b	.L113
 1699              		.cfi_endproc
 1700              	.LFE1118:
 1702              		.section	.text.HAL_RTCEx_PollForTamper1Event,"ax",%progbits
 1703              		.align	1
 1704              		.global	HAL_RTCEx_PollForTamper1Event
 1705              		.syntax unified
 1706              		.thumb
 1707              		.thumb_func
 1709              	HAL_RTCEx_PollForTamper1Event:
 1710              	.LVL129:
 1711              	.LFB1119:
1060:Drivers/STM32WBxx_HAL_Driver/Src/stm32wbxx_hal_rtc_ex.c **** 
1061:Drivers/STM32WBxx_HAL_Driver/Src/stm32wbxx_hal_rtc_ex.c **** #if defined(RTC_TAMPER1_SUPPORT)
1062:Drivers/STM32WBxx_HAL_Driver/Src/stm32wbxx_hal_rtc_ex.c **** /**
1063:Drivers/STM32WBxx_HAL_Driver/Src/stm32wbxx_hal_rtc_ex.c ****   * @brief  Handles Tamper 1 Polling.
1064:Drivers/STM32WBxx_HAL_Driver/Src/stm32wbxx_hal_rtc_ex.c ****   * @param  hrtc pointer to a RTC_HandleTypeDef structure that contains
1065:Drivers/STM32WBxx_HAL_Driver/Src/stm32wbxx_hal_rtc_ex.c ****   *                the configuration information for RTC.
1066:Drivers/STM32WBxx_HAL_Driver/Src/stm32wbxx_hal_rtc_ex.c ****   * @param  Timeout Timeout duration
1067:Drivers/STM32WBxx_HAL_Driver/Src/stm32wbxx_hal_rtc_ex.c ****   * @retval HAL status
1068:Drivers/STM32WBxx_HAL_Driver/Src/stm32wbxx_hal_rtc_ex.c ****   */
1069:Drivers/STM32WBxx_HAL_Driver/Src/stm32wbxx_hal_rtc_ex.c **** HAL_StatusTypeDef HAL_RTCEx_PollForTamper1Event(RTC_HandleTypeDef *hrtc, uint32_t Timeout)
1070:Drivers/STM32WBxx_HAL_Driver/Src/stm32wbxx_hal_rtc_ex.c **** {
 1712              		.loc 1 1070 1 is_stmt 1 view -0
 1713              		.cfi_startproc
 1714              		@ args = 0, pretend = 0, frame = 0
 1715              		@ frame_needed = 0, uses_anonymous_args = 0
 1716              		.loc 1 1070 1 is_stmt 0 view .LVU602
ARM GAS  C:\Users\Nathan\AppData\Local\Temp\ccWT97xY.s 			page 52


 1717 0000 70B5     		push	{r4, r5, r6, lr}
 1718              		.cfi_def_cfa_offset 16
 1719              		.cfi_offset 4, -16
 1720              		.cfi_offset 5, -12
 1721              		.cfi_offset 6, -8
 1722              		.cfi_offset 14, -4
 1723 0002 0446     		mov	r4, r0
 1724 0004 0D46     		mov	r5, r1
1071:Drivers/STM32WBxx_HAL_Driver/Src/stm32wbxx_hal_rtc_ex.c ****   uint32_t tickstart = 0U;
 1725              		.loc 1 1071 3 is_stmt 1 view .LVU603
 1726              	.LVL130:
1072:Drivers/STM32WBxx_HAL_Driver/Src/stm32wbxx_hal_rtc_ex.c **** 
1073:Drivers/STM32WBxx_HAL_Driver/Src/stm32wbxx_hal_rtc_ex.c ****   /* Get tick */
1074:Drivers/STM32WBxx_HAL_Driver/Src/stm32wbxx_hal_rtc_ex.c ****   tickstart = HAL_GetTick();
 1727              		.loc 1 1074 3 view .LVU604
 1728              		.loc 1 1074 15 is_stmt 0 view .LVU605
 1729 0006 FFF7FEFF 		bl	HAL_GetTick
 1730              	.LVL131:
 1731              		.loc 1 1074 15 view .LVU606
 1732 000a 0646     		mov	r6, r0
 1733              	.LVL132:
1075:Drivers/STM32WBxx_HAL_Driver/Src/stm32wbxx_hal_rtc_ex.c **** 
1076:Drivers/STM32WBxx_HAL_Driver/Src/stm32wbxx_hal_rtc_ex.c ****   /* Get the status of the Interrupt */
1077:Drivers/STM32WBxx_HAL_Driver/Src/stm32wbxx_hal_rtc_ex.c ****   while (__HAL_RTC_TAMPER_GET_FLAG(hrtc, RTC_FLAG_TAMP1F) == 0U)
 1734              		.loc 1 1077 3 is_stmt 1 view .LVU607
 1735              	.L120:
 1736              		.loc 1 1077 59 view .LVU608
 1737              		.loc 1 1077 10 is_stmt 0 view .LVU609
 1738 000c 2368     		ldr	r3, [r4]
 1739 000e DA68     		ldr	r2, [r3, #12]
 1740              		.loc 1 1077 59 view .LVU610
 1741 0010 12F4005F 		tst	r2, #8192
 1742 0014 0CD1     		bne	.L125
1078:Drivers/STM32WBxx_HAL_Driver/Src/stm32wbxx_hal_rtc_ex.c ****   {
1079:Drivers/STM32WBxx_HAL_Driver/Src/stm32wbxx_hal_rtc_ex.c ****     if (Timeout != HAL_MAX_DELAY)
 1743              		.loc 1 1079 5 is_stmt 1 view .LVU611
 1744              		.loc 1 1079 8 is_stmt 0 view .LVU612
 1745 0016 B5F1FF3F 		cmp	r5, #-1
 1746 001a F7D0     		beq	.L120
1080:Drivers/STM32WBxx_HAL_Driver/Src/stm32wbxx_hal_rtc_ex.c ****     {
1081:Drivers/STM32WBxx_HAL_Driver/Src/stm32wbxx_hal_rtc_ex.c ****       if ((Timeout == 0U) || ((HAL_GetTick() - tickstart) > Timeout))
 1747              		.loc 1 1081 7 is_stmt 1 view .LVU613
 1748              		.loc 1 1081 10 is_stmt 0 view .LVU614
 1749 001c 25B1     		cbz	r5, .L121
 1750              		.loc 1 1081 32 discriminator 1 view .LVU615
 1751 001e FFF7FEFF 		bl	HAL_GetTick
 1752              	.LVL133:
 1753              		.loc 1 1081 46 discriminator 1 view .LVU616
 1754 0022 801B     		subs	r0, r0, r6
 1755              		.loc 1 1081 27 discriminator 1 view .LVU617
 1756 0024 A842     		cmp	r0, r5
 1757 0026 F1D9     		bls	.L120
 1758              	.L121:
1082:Drivers/STM32WBxx_HAL_Driver/Src/stm32wbxx_hal_rtc_ex.c ****       {
1083:Drivers/STM32WBxx_HAL_Driver/Src/stm32wbxx_hal_rtc_ex.c ****         hrtc->State = HAL_RTC_STATE_TIMEOUT;
 1759              		.loc 1 1083 9 is_stmt 1 view .LVU618
 1760              		.loc 1 1083 21 is_stmt 0 view .LVU619
ARM GAS  C:\Users\Nathan\AppData\Local\Temp\ccWT97xY.s 			page 53


 1761 0028 0320     		movs	r0, #3
 1762 002a 84F82100 		strb	r0, [r4, #33]
1084:Drivers/STM32WBxx_HAL_Driver/Src/stm32wbxx_hal_rtc_ex.c ****         return HAL_TIMEOUT;
 1763              		.loc 1 1084 9 is_stmt 1 view .LVU620
 1764              		.loc 1 1084 16 is_stmt 0 view .LVU621
 1765 002e 08E0     		b	.L122
 1766              	.L125:
1085:Drivers/STM32WBxx_HAL_Driver/Src/stm32wbxx_hal_rtc_ex.c ****       }
1086:Drivers/STM32WBxx_HAL_Driver/Src/stm32wbxx_hal_rtc_ex.c ****     }
1087:Drivers/STM32WBxx_HAL_Driver/Src/stm32wbxx_hal_rtc_ex.c ****   }
1088:Drivers/STM32WBxx_HAL_Driver/Src/stm32wbxx_hal_rtc_ex.c **** 
1089:Drivers/STM32WBxx_HAL_Driver/Src/stm32wbxx_hal_rtc_ex.c ****   /* Clear the Tamper Flag */
1090:Drivers/STM32WBxx_HAL_Driver/Src/stm32wbxx_hal_rtc_ex.c ****   __HAL_RTC_TAMPER_CLEAR_FLAG(hrtc, RTC_FLAG_TAMP1F);
 1767              		.loc 1 1090 3 is_stmt 1 view .LVU622
 1768 0030 DA68     		ldr	r2, [r3, #12]
 1769 0032 D2B2     		uxtb	r2, r2
 1770 0034 62F40252 		orn	r2, r2, #8320
 1771 0038 DA60     		str	r2, [r3, #12]
1091:Drivers/STM32WBxx_HAL_Driver/Src/stm32wbxx_hal_rtc_ex.c **** 
1092:Drivers/STM32WBxx_HAL_Driver/Src/stm32wbxx_hal_rtc_ex.c ****   /* Change RTC state */
1093:Drivers/STM32WBxx_HAL_Driver/Src/stm32wbxx_hal_rtc_ex.c ****   hrtc->State = HAL_RTC_STATE_READY;
 1772              		.loc 1 1093 3 view .LVU623
 1773              		.loc 1 1093 15 is_stmt 0 view .LVU624
 1774 003a 0123     		movs	r3, #1
 1775 003c 84F82130 		strb	r3, [r4, #33]
1094:Drivers/STM32WBxx_HAL_Driver/Src/stm32wbxx_hal_rtc_ex.c **** 
1095:Drivers/STM32WBxx_HAL_Driver/Src/stm32wbxx_hal_rtc_ex.c ****   return HAL_OK;
 1776              		.loc 1 1095 3 is_stmt 1 view .LVU625
 1777              		.loc 1 1095 10 is_stmt 0 view .LVU626
 1778 0040 0020     		movs	r0, #0
 1779              	.L122:
1096:Drivers/STM32WBxx_HAL_Driver/Src/stm32wbxx_hal_rtc_ex.c **** }
 1780              		.loc 1 1096 1 view .LVU627
 1781 0042 70BD     		pop	{r4, r5, r6, pc}
 1782              		.loc 1 1096 1 view .LVU628
 1783              		.cfi_endproc
 1784              	.LFE1119:
 1786              		.section	.text.HAL_RTCEx_PollForTamper2Event,"ax",%progbits
 1787              		.align	1
 1788              		.global	HAL_RTCEx_PollForTamper2Event
 1789              		.syntax unified
 1790              		.thumb
 1791              		.thumb_func
 1793              	HAL_RTCEx_PollForTamper2Event:
 1794              	.LVL134:
 1795              	.LFB1120:
1097:Drivers/STM32WBxx_HAL_Driver/Src/stm32wbxx_hal_rtc_ex.c **** #endif /* RTC_TAMPER1_SUPPORT */
1098:Drivers/STM32WBxx_HAL_Driver/Src/stm32wbxx_hal_rtc_ex.c **** 
1099:Drivers/STM32WBxx_HAL_Driver/Src/stm32wbxx_hal_rtc_ex.c **** /**
1100:Drivers/STM32WBxx_HAL_Driver/Src/stm32wbxx_hal_rtc_ex.c ****   * @brief  Handles Tamper 2 Polling.
1101:Drivers/STM32WBxx_HAL_Driver/Src/stm32wbxx_hal_rtc_ex.c ****   * @param  hrtc pointer to a RTC_HandleTypeDef structure that contains
1102:Drivers/STM32WBxx_HAL_Driver/Src/stm32wbxx_hal_rtc_ex.c ****   *                the configuration information for RTC.
1103:Drivers/STM32WBxx_HAL_Driver/Src/stm32wbxx_hal_rtc_ex.c ****   * @param  Timeout Timeout duration
1104:Drivers/STM32WBxx_HAL_Driver/Src/stm32wbxx_hal_rtc_ex.c ****   * @retval HAL status
1105:Drivers/STM32WBxx_HAL_Driver/Src/stm32wbxx_hal_rtc_ex.c ****   */
1106:Drivers/STM32WBxx_HAL_Driver/Src/stm32wbxx_hal_rtc_ex.c **** HAL_StatusTypeDef HAL_RTCEx_PollForTamper2Event(RTC_HandleTypeDef *hrtc, uint32_t Timeout)
1107:Drivers/STM32WBxx_HAL_Driver/Src/stm32wbxx_hal_rtc_ex.c **** {
ARM GAS  C:\Users\Nathan\AppData\Local\Temp\ccWT97xY.s 			page 54


 1796              		.loc 1 1107 1 is_stmt 1 view -0
 1797              		.cfi_startproc
 1798              		@ args = 0, pretend = 0, frame = 0
 1799              		@ frame_needed = 0, uses_anonymous_args = 0
 1800              		.loc 1 1107 1 is_stmt 0 view .LVU630
 1801 0000 70B5     		push	{r4, r5, r6, lr}
 1802              		.cfi_def_cfa_offset 16
 1803              		.cfi_offset 4, -16
 1804              		.cfi_offset 5, -12
 1805              		.cfi_offset 6, -8
 1806              		.cfi_offset 14, -4
 1807 0002 0446     		mov	r4, r0
 1808 0004 0D46     		mov	r5, r1
1108:Drivers/STM32WBxx_HAL_Driver/Src/stm32wbxx_hal_rtc_ex.c ****   uint32_t tickstart = 0U;
 1809              		.loc 1 1108 3 is_stmt 1 view .LVU631
 1810              	.LVL135:
1109:Drivers/STM32WBxx_HAL_Driver/Src/stm32wbxx_hal_rtc_ex.c **** 
1110:Drivers/STM32WBxx_HAL_Driver/Src/stm32wbxx_hal_rtc_ex.c ****   /* Get tick */
1111:Drivers/STM32WBxx_HAL_Driver/Src/stm32wbxx_hal_rtc_ex.c ****   tickstart = HAL_GetTick();
 1811              		.loc 1 1111 3 view .LVU632
 1812              		.loc 1 1111 15 is_stmt 0 view .LVU633
 1813 0006 FFF7FEFF 		bl	HAL_GetTick
 1814              	.LVL136:
 1815              		.loc 1 1111 15 view .LVU634
 1816 000a 0646     		mov	r6, r0
 1817              	.LVL137:
1112:Drivers/STM32WBxx_HAL_Driver/Src/stm32wbxx_hal_rtc_ex.c **** 
1113:Drivers/STM32WBxx_HAL_Driver/Src/stm32wbxx_hal_rtc_ex.c ****   /* Get the status of the Interrupt */
1114:Drivers/STM32WBxx_HAL_Driver/Src/stm32wbxx_hal_rtc_ex.c ****   while (__HAL_RTC_TAMPER_GET_FLAG(hrtc, RTC_FLAG_TAMP2F) == 0U)
 1818              		.loc 1 1114 3 is_stmt 1 view .LVU635
 1819              	.L128:
 1820              		.loc 1 1114 59 view .LVU636
 1821              		.loc 1 1114 10 is_stmt 0 view .LVU637
 1822 000c 2368     		ldr	r3, [r4]
 1823 000e DA68     		ldr	r2, [r3, #12]
 1824              		.loc 1 1114 59 view .LVU638
 1825 0010 12F4804F 		tst	r2, #16384
 1826 0014 0CD1     		bne	.L133
1115:Drivers/STM32WBxx_HAL_Driver/Src/stm32wbxx_hal_rtc_ex.c ****   {
1116:Drivers/STM32WBxx_HAL_Driver/Src/stm32wbxx_hal_rtc_ex.c ****     if (Timeout != HAL_MAX_DELAY)
 1827              		.loc 1 1116 5 is_stmt 1 view .LVU639
 1828              		.loc 1 1116 8 is_stmt 0 view .LVU640
 1829 0016 B5F1FF3F 		cmp	r5, #-1
 1830 001a F7D0     		beq	.L128
1117:Drivers/STM32WBxx_HAL_Driver/Src/stm32wbxx_hal_rtc_ex.c ****     {
1118:Drivers/STM32WBxx_HAL_Driver/Src/stm32wbxx_hal_rtc_ex.c ****       if ((Timeout == 0U) || ((HAL_GetTick() - tickstart) > Timeout))
 1831              		.loc 1 1118 7 is_stmt 1 view .LVU641
 1832              		.loc 1 1118 10 is_stmt 0 view .LVU642
 1833 001c 25B1     		cbz	r5, .L129
 1834              		.loc 1 1118 32 discriminator 1 view .LVU643
 1835 001e FFF7FEFF 		bl	HAL_GetTick
 1836              	.LVL138:
 1837              		.loc 1 1118 46 discriminator 1 view .LVU644
 1838 0022 801B     		subs	r0, r0, r6
 1839              		.loc 1 1118 27 discriminator 1 view .LVU645
 1840 0024 A842     		cmp	r0, r5
 1841 0026 F1D9     		bls	.L128
ARM GAS  C:\Users\Nathan\AppData\Local\Temp\ccWT97xY.s 			page 55


 1842              	.L129:
1119:Drivers/STM32WBxx_HAL_Driver/Src/stm32wbxx_hal_rtc_ex.c ****       {
1120:Drivers/STM32WBxx_HAL_Driver/Src/stm32wbxx_hal_rtc_ex.c ****         hrtc->State = HAL_RTC_STATE_TIMEOUT;
 1843              		.loc 1 1120 9 is_stmt 1 view .LVU646
 1844              		.loc 1 1120 21 is_stmt 0 view .LVU647
 1845 0028 0320     		movs	r0, #3
 1846 002a 84F82100 		strb	r0, [r4, #33]
1121:Drivers/STM32WBxx_HAL_Driver/Src/stm32wbxx_hal_rtc_ex.c ****         return HAL_TIMEOUT;
 1847              		.loc 1 1121 9 is_stmt 1 view .LVU648
 1848              		.loc 1 1121 16 is_stmt 0 view .LVU649
 1849 002e 08E0     		b	.L130
 1850              	.L133:
1122:Drivers/STM32WBxx_HAL_Driver/Src/stm32wbxx_hal_rtc_ex.c ****       }
1123:Drivers/STM32WBxx_HAL_Driver/Src/stm32wbxx_hal_rtc_ex.c ****     }
1124:Drivers/STM32WBxx_HAL_Driver/Src/stm32wbxx_hal_rtc_ex.c ****   }
1125:Drivers/STM32WBxx_HAL_Driver/Src/stm32wbxx_hal_rtc_ex.c **** 
1126:Drivers/STM32WBxx_HAL_Driver/Src/stm32wbxx_hal_rtc_ex.c ****   /* Clear the Tamper Flag */
1127:Drivers/STM32WBxx_HAL_Driver/Src/stm32wbxx_hal_rtc_ex.c ****   __HAL_RTC_TAMPER_CLEAR_FLAG(hrtc, RTC_FLAG_TAMP2F);
 1851              		.loc 1 1127 3 is_stmt 1 view .LVU650
 1852 0030 DA68     		ldr	r2, [r3, #12]
 1853 0032 D2B2     		uxtb	r2, r2
 1854 0034 62F48142 		orn	r2, r2, #16512
 1855 0038 DA60     		str	r2, [r3, #12]
1128:Drivers/STM32WBxx_HAL_Driver/Src/stm32wbxx_hal_rtc_ex.c **** 
1129:Drivers/STM32WBxx_HAL_Driver/Src/stm32wbxx_hal_rtc_ex.c ****   /* Change RTC state */
1130:Drivers/STM32WBxx_HAL_Driver/Src/stm32wbxx_hal_rtc_ex.c ****   hrtc->State = HAL_RTC_STATE_READY;
 1856              		.loc 1 1130 3 view .LVU651
 1857              		.loc 1 1130 15 is_stmt 0 view .LVU652
 1858 003a 0123     		movs	r3, #1
 1859 003c 84F82130 		strb	r3, [r4, #33]
1131:Drivers/STM32WBxx_HAL_Driver/Src/stm32wbxx_hal_rtc_ex.c **** 
1132:Drivers/STM32WBxx_HAL_Driver/Src/stm32wbxx_hal_rtc_ex.c ****   return HAL_OK;
 1860              		.loc 1 1132 3 is_stmt 1 view .LVU653
 1861              		.loc 1 1132 10 is_stmt 0 view .LVU654
 1862 0040 0020     		movs	r0, #0
 1863              	.L130:
1133:Drivers/STM32WBxx_HAL_Driver/Src/stm32wbxx_hal_rtc_ex.c **** }
 1864              		.loc 1 1133 1 view .LVU655
 1865 0042 70BD     		pop	{r4, r5, r6, pc}
 1866              		.loc 1 1133 1 view .LVU656
 1867              		.cfi_endproc
 1868              	.LFE1120:
 1870              		.section	.text.HAL_RTCEx_PollForTamper3Event,"ax",%progbits
 1871              		.align	1
 1872              		.global	HAL_RTCEx_PollForTamper3Event
 1873              		.syntax unified
 1874              		.thumb
 1875              		.thumb_func
 1877              	HAL_RTCEx_PollForTamper3Event:
 1878              	.LVL139:
 1879              	.LFB1121:
1134:Drivers/STM32WBxx_HAL_Driver/Src/stm32wbxx_hal_rtc_ex.c **** 
1135:Drivers/STM32WBxx_HAL_Driver/Src/stm32wbxx_hal_rtc_ex.c **** #if defined(RTC_TAMPER3_SUPPORT)
1136:Drivers/STM32WBxx_HAL_Driver/Src/stm32wbxx_hal_rtc_ex.c **** /**
1137:Drivers/STM32WBxx_HAL_Driver/Src/stm32wbxx_hal_rtc_ex.c ****   * @brief  Handles Tamper 3 Polling.
1138:Drivers/STM32WBxx_HAL_Driver/Src/stm32wbxx_hal_rtc_ex.c ****   * @param  hrtc pointer to a RTC_HandleTypeDef structure that contains
1139:Drivers/STM32WBxx_HAL_Driver/Src/stm32wbxx_hal_rtc_ex.c ****   *                the configuration information for RTC.
ARM GAS  C:\Users\Nathan\AppData\Local\Temp\ccWT97xY.s 			page 56


1140:Drivers/STM32WBxx_HAL_Driver/Src/stm32wbxx_hal_rtc_ex.c ****   * @param  Timeout Timeout duration
1141:Drivers/STM32WBxx_HAL_Driver/Src/stm32wbxx_hal_rtc_ex.c ****   * @retval HAL status
1142:Drivers/STM32WBxx_HAL_Driver/Src/stm32wbxx_hal_rtc_ex.c ****   */
1143:Drivers/STM32WBxx_HAL_Driver/Src/stm32wbxx_hal_rtc_ex.c **** HAL_StatusTypeDef HAL_RTCEx_PollForTamper3Event(RTC_HandleTypeDef *hrtc, uint32_t Timeout)
1144:Drivers/STM32WBxx_HAL_Driver/Src/stm32wbxx_hal_rtc_ex.c **** {
 1880              		.loc 1 1144 1 is_stmt 1 view -0
 1881              		.cfi_startproc
 1882              		@ args = 0, pretend = 0, frame = 0
 1883              		@ frame_needed = 0, uses_anonymous_args = 0
 1884              		.loc 1 1144 1 is_stmt 0 view .LVU658
 1885 0000 70B5     		push	{r4, r5, r6, lr}
 1886              		.cfi_def_cfa_offset 16
 1887              		.cfi_offset 4, -16
 1888              		.cfi_offset 5, -12
 1889              		.cfi_offset 6, -8
 1890              		.cfi_offset 14, -4
 1891 0002 0446     		mov	r4, r0
 1892 0004 0D46     		mov	r5, r1
1145:Drivers/STM32WBxx_HAL_Driver/Src/stm32wbxx_hal_rtc_ex.c ****   uint32_t tickstart = HAL_GetTick();
 1893              		.loc 1 1145 3 is_stmt 1 view .LVU659
 1894              		.loc 1 1145 24 is_stmt 0 view .LVU660
 1895 0006 FFF7FEFF 		bl	HAL_GetTick
 1896              	.LVL140:
 1897              		.loc 1 1145 24 view .LVU661
 1898 000a 0646     		mov	r6, r0
 1899              	.LVL141:
1146:Drivers/STM32WBxx_HAL_Driver/Src/stm32wbxx_hal_rtc_ex.c **** 
1147:Drivers/STM32WBxx_HAL_Driver/Src/stm32wbxx_hal_rtc_ex.c ****   /* Get the status of the Interrupt */
1148:Drivers/STM32WBxx_HAL_Driver/Src/stm32wbxx_hal_rtc_ex.c ****   while (__HAL_RTC_TAMPER_GET_FLAG(hrtc, RTC_FLAG_TAMP3F) == 0U)
 1900              		.loc 1 1148 3 is_stmt 1 view .LVU662
 1901              	.L136:
 1902              		.loc 1 1148 59 view .LVU663
 1903              		.loc 1 1148 10 is_stmt 0 view .LVU664
 1904 000c 2368     		ldr	r3, [r4]
 1905 000e DA68     		ldr	r2, [r3, #12]
 1906              		.loc 1 1148 59 view .LVU665
 1907 0010 12F4004F 		tst	r2, #32768
 1908 0014 0CD1     		bne	.L141
1149:Drivers/STM32WBxx_HAL_Driver/Src/stm32wbxx_hal_rtc_ex.c ****   {
1150:Drivers/STM32WBxx_HAL_Driver/Src/stm32wbxx_hal_rtc_ex.c ****     if (Timeout != HAL_MAX_DELAY)
 1909              		.loc 1 1150 5 is_stmt 1 view .LVU666
 1910              		.loc 1 1150 8 is_stmt 0 view .LVU667
 1911 0016 B5F1FF3F 		cmp	r5, #-1
 1912 001a F7D0     		beq	.L136
1151:Drivers/STM32WBxx_HAL_Driver/Src/stm32wbxx_hal_rtc_ex.c ****     {
1152:Drivers/STM32WBxx_HAL_Driver/Src/stm32wbxx_hal_rtc_ex.c ****       if ((Timeout == 0U) || ((HAL_GetTick() - tickstart) > Timeout))
 1913              		.loc 1 1152 7 is_stmt 1 view .LVU668
 1914              		.loc 1 1152 10 is_stmt 0 view .LVU669
 1915 001c 25B1     		cbz	r5, .L137
 1916              		.loc 1 1152 32 discriminator 1 view .LVU670
 1917 001e FFF7FEFF 		bl	HAL_GetTick
 1918              	.LVL142:
 1919              		.loc 1 1152 46 discriminator 1 view .LVU671
 1920 0022 801B     		subs	r0, r0, r6
 1921              		.loc 1 1152 27 discriminator 1 view .LVU672
 1922 0024 A842     		cmp	r0, r5
 1923 0026 F1D9     		bls	.L136
ARM GAS  C:\Users\Nathan\AppData\Local\Temp\ccWT97xY.s 			page 57


 1924              	.L137:
1153:Drivers/STM32WBxx_HAL_Driver/Src/stm32wbxx_hal_rtc_ex.c ****       {
1154:Drivers/STM32WBxx_HAL_Driver/Src/stm32wbxx_hal_rtc_ex.c ****         hrtc->State = HAL_RTC_STATE_TIMEOUT;
 1925              		.loc 1 1154 9 is_stmt 1 view .LVU673
 1926              		.loc 1 1154 21 is_stmt 0 view .LVU674
 1927 0028 0320     		movs	r0, #3
 1928 002a 84F82100 		strb	r0, [r4, #33]
1155:Drivers/STM32WBxx_HAL_Driver/Src/stm32wbxx_hal_rtc_ex.c ****         return HAL_TIMEOUT;
 1929              		.loc 1 1155 9 is_stmt 1 view .LVU675
 1930              		.loc 1 1155 16 is_stmt 0 view .LVU676
 1931 002e 0EE0     		b	.L138
 1932              	.L141:
1156:Drivers/STM32WBxx_HAL_Driver/Src/stm32wbxx_hal_rtc_ex.c ****       }
1157:Drivers/STM32WBxx_HAL_Driver/Src/stm32wbxx_hal_rtc_ex.c ****     }
1158:Drivers/STM32WBxx_HAL_Driver/Src/stm32wbxx_hal_rtc_ex.c ****   }
1159:Drivers/STM32WBxx_HAL_Driver/Src/stm32wbxx_hal_rtc_ex.c **** 
1160:Drivers/STM32WBxx_HAL_Driver/Src/stm32wbxx_hal_rtc_ex.c ****   /* Clear the Tamper Flag */
1161:Drivers/STM32WBxx_HAL_Driver/Src/stm32wbxx_hal_rtc_ex.c ****   __HAL_RTC_TAMPER_CLEAR_FLAG(hrtc, RTC_FLAG_TAMP3F);
 1933              		.loc 1 1161 3 is_stmt 1 view .LVU677
 1934 0030 DA68     		ldr	r2, [r3, #12]
 1935 0032 D2B2     		uxtb	r2, r2
 1936 0034 42F07F42 		orr	r2, r2, #-16777216
 1937 0038 42F47F02 		orr	r2, r2, #16711680
 1938 003c 42F4FE42 		orr	r2, r2, #32512
 1939 0040 42F07F02 		orr	r2, r2, #127
 1940 0044 DA60     		str	r2, [r3, #12]
1162:Drivers/STM32WBxx_HAL_Driver/Src/stm32wbxx_hal_rtc_ex.c **** 
1163:Drivers/STM32WBxx_HAL_Driver/Src/stm32wbxx_hal_rtc_ex.c ****   /* Change RTC state */
1164:Drivers/STM32WBxx_HAL_Driver/Src/stm32wbxx_hal_rtc_ex.c ****   hrtc->State = HAL_RTC_STATE_READY;
 1941              		.loc 1 1164 3 view .LVU678
 1942              		.loc 1 1164 15 is_stmt 0 view .LVU679
 1943 0046 0123     		movs	r3, #1
 1944 0048 84F82130 		strb	r3, [r4, #33]
1165:Drivers/STM32WBxx_HAL_Driver/Src/stm32wbxx_hal_rtc_ex.c **** 
1166:Drivers/STM32WBxx_HAL_Driver/Src/stm32wbxx_hal_rtc_ex.c ****   return HAL_OK;
 1945              		.loc 1 1166 3 is_stmt 1 view .LVU680
 1946              		.loc 1 1166 10 is_stmt 0 view .LVU681
 1947 004c 0020     		movs	r0, #0
 1948              	.L138:
1167:Drivers/STM32WBxx_HAL_Driver/Src/stm32wbxx_hal_rtc_ex.c **** }
 1949              		.loc 1 1167 1 view .LVU682
 1950 004e 70BD     		pop	{r4, r5, r6, pc}
 1951              		.loc 1 1167 1 view .LVU683
 1952              		.cfi_endproc
 1953              	.LFE1121:
 1955              		.section	.text.HAL_RTCEx_SetWakeUpTimer,"ax",%progbits
 1956              		.align	1
 1957              		.global	HAL_RTCEx_SetWakeUpTimer
 1958              		.syntax unified
 1959              		.thumb
 1960              		.thumb_func
 1962              	HAL_RTCEx_SetWakeUpTimer:
 1963              	.LVL143:
 1964              	.LFB1122:
1168:Drivers/STM32WBxx_HAL_Driver/Src/stm32wbxx_hal_rtc_ex.c **** #endif /* RTC_TAMPER3_SUPPORT */
1169:Drivers/STM32WBxx_HAL_Driver/Src/stm32wbxx_hal_rtc_ex.c **** 
1170:Drivers/STM32WBxx_HAL_Driver/Src/stm32wbxx_hal_rtc_ex.c **** /**
ARM GAS  C:\Users\Nathan\AppData\Local\Temp\ccWT97xY.s 			page 58


1171:Drivers/STM32WBxx_HAL_Driver/Src/stm32wbxx_hal_rtc_ex.c ****   * @}
1172:Drivers/STM32WBxx_HAL_Driver/Src/stm32wbxx_hal_rtc_ex.c ****   */
1173:Drivers/STM32WBxx_HAL_Driver/Src/stm32wbxx_hal_rtc_ex.c **** 
1174:Drivers/STM32WBxx_HAL_Driver/Src/stm32wbxx_hal_rtc_ex.c **** /** @defgroup RTCEx_Exported_Functions_Group2 RTC Wakeup functions
1175:Drivers/STM32WBxx_HAL_Driver/Src/stm32wbxx_hal_rtc_ex.c ****   * @brief    RTC Wakeup functions
1176:Drivers/STM32WBxx_HAL_Driver/Src/stm32wbxx_hal_rtc_ex.c ****   *
1177:Drivers/STM32WBxx_HAL_Driver/Src/stm32wbxx_hal_rtc_ex.c **** @verbatim
1178:Drivers/STM32WBxx_HAL_Driver/Src/stm32wbxx_hal_rtc_ex.c ****  ===============================================================================
1179:Drivers/STM32WBxx_HAL_Driver/Src/stm32wbxx_hal_rtc_ex.c ****                         ##### RTC Wakeup functions #####
1180:Drivers/STM32WBxx_HAL_Driver/Src/stm32wbxx_hal_rtc_ex.c ****  ===============================================================================
1181:Drivers/STM32WBxx_HAL_Driver/Src/stm32wbxx_hal_rtc_ex.c **** 
1182:Drivers/STM32WBxx_HAL_Driver/Src/stm32wbxx_hal_rtc_ex.c ****  [..] This section provides functions allowing to configure Wakeup feature
1183:Drivers/STM32WBxx_HAL_Driver/Src/stm32wbxx_hal_rtc_ex.c **** 
1184:Drivers/STM32WBxx_HAL_Driver/Src/stm32wbxx_hal_rtc_ex.c **** @endverbatim
1185:Drivers/STM32WBxx_HAL_Driver/Src/stm32wbxx_hal_rtc_ex.c ****   * @{
1186:Drivers/STM32WBxx_HAL_Driver/Src/stm32wbxx_hal_rtc_ex.c ****   */
1187:Drivers/STM32WBxx_HAL_Driver/Src/stm32wbxx_hal_rtc_ex.c **** 
1188:Drivers/STM32WBxx_HAL_Driver/Src/stm32wbxx_hal_rtc_ex.c **** /**
1189:Drivers/STM32WBxx_HAL_Driver/Src/stm32wbxx_hal_rtc_ex.c ****   * @brief  Sets wakeup timer.
1190:Drivers/STM32WBxx_HAL_Driver/Src/stm32wbxx_hal_rtc_ex.c ****   * @param  hrtc pointer to a RTC_HandleTypeDef structure that contains
1191:Drivers/STM32WBxx_HAL_Driver/Src/stm32wbxx_hal_rtc_ex.c ****   *                the configuration information for RTC.
1192:Drivers/STM32WBxx_HAL_Driver/Src/stm32wbxx_hal_rtc_ex.c ****   * @param  WakeUpCounter Wakeup counter
1193:Drivers/STM32WBxx_HAL_Driver/Src/stm32wbxx_hal_rtc_ex.c ****   * @param  WakeUpClock Wakeup clock
1194:Drivers/STM32WBxx_HAL_Driver/Src/stm32wbxx_hal_rtc_ex.c ****   * @retval HAL status
1195:Drivers/STM32WBxx_HAL_Driver/Src/stm32wbxx_hal_rtc_ex.c ****   */
1196:Drivers/STM32WBxx_HAL_Driver/Src/stm32wbxx_hal_rtc_ex.c **** HAL_StatusTypeDef HAL_RTCEx_SetWakeUpTimer(RTC_HandleTypeDef *hrtc, uint32_t WakeUpCounter, uint32_
1197:Drivers/STM32WBxx_HAL_Driver/Src/stm32wbxx_hal_rtc_ex.c **** {
 1965              		.loc 1 1197 1 is_stmt 1 view -0
 1966              		.cfi_startproc
 1967              		@ args = 0, pretend = 0, frame = 0
 1968              		@ frame_needed = 0, uses_anonymous_args = 0
 1969              		.loc 1 1197 1 is_stmt 0 view .LVU685
 1970 0000 F8B5     		push	{r3, r4, r5, r6, r7, lr}
 1971              		.cfi_def_cfa_offset 24
 1972              		.cfi_offset 3, -24
 1973              		.cfi_offset 4, -20
 1974              		.cfi_offset 5, -16
 1975              		.cfi_offset 6, -12
 1976              		.cfi_offset 7, -8
 1977              		.cfi_offset 14, -4
1198:Drivers/STM32WBxx_HAL_Driver/Src/stm32wbxx_hal_rtc_ex.c ****   uint32_t tickstart = 0U;
 1978              		.loc 1 1198 3 is_stmt 1 view .LVU686
 1979              	.LVL144:
1199:Drivers/STM32WBxx_HAL_Driver/Src/stm32wbxx_hal_rtc_ex.c **** 
1200:Drivers/STM32WBxx_HAL_Driver/Src/stm32wbxx_hal_rtc_ex.c ****   /* Check the parameters */
1201:Drivers/STM32WBxx_HAL_Driver/Src/stm32wbxx_hal_rtc_ex.c ****   assert_param(IS_RTC_WAKEUP_CLOCK(WakeUpClock));
 1980              		.loc 1 1201 3 view .LVU687
1202:Drivers/STM32WBxx_HAL_Driver/Src/stm32wbxx_hal_rtc_ex.c ****   assert_param(IS_RTC_WAKEUP_COUNTER(WakeUpCounter));
 1981              		.loc 1 1202 3 view .LVU688
1203:Drivers/STM32WBxx_HAL_Driver/Src/stm32wbxx_hal_rtc_ex.c **** 
1204:Drivers/STM32WBxx_HAL_Driver/Src/stm32wbxx_hal_rtc_ex.c ****   /* Process Locked */
1205:Drivers/STM32WBxx_HAL_Driver/Src/stm32wbxx_hal_rtc_ex.c ****   __HAL_LOCK(hrtc);
 1982              		.loc 1 1205 3 view .LVU689
 1983              		.loc 1 1205 3 view .LVU690
 1984 0002 90F82030 		ldrb	r3, [r0, #32]	@ zero_extendqisi2
 1985 0006 012B     		cmp	r3, #1
 1986 0008 67D0     		beq	.L149
ARM GAS  C:\Users\Nathan\AppData\Local\Temp\ccWT97xY.s 			page 59


 1987 000a 0446     		mov	r4, r0
 1988 000c 0D46     		mov	r5, r1
 1989 000e 1646     		mov	r6, r2
 1990              		.loc 1 1205 3 discriminator 2 view .LVU691
 1991 0010 0123     		movs	r3, #1
 1992 0012 80F82030 		strb	r3, [r0, #32]
 1993              		.loc 1 1205 3 discriminator 2 view .LVU692
1206:Drivers/STM32WBxx_HAL_Driver/Src/stm32wbxx_hal_rtc_ex.c **** 
1207:Drivers/STM32WBxx_HAL_Driver/Src/stm32wbxx_hal_rtc_ex.c ****   hrtc->State = HAL_RTC_STATE_BUSY;
 1994              		.loc 1 1207 3 view .LVU693
 1995              		.loc 1 1207 15 is_stmt 0 view .LVU694
 1996 0016 0223     		movs	r3, #2
 1997 0018 80F82130 		strb	r3, [r0, #33]
1208:Drivers/STM32WBxx_HAL_Driver/Src/stm32wbxx_hal_rtc_ex.c **** 
1209:Drivers/STM32WBxx_HAL_Driver/Src/stm32wbxx_hal_rtc_ex.c ****   /* Disable the write protection for RTC registers */
1210:Drivers/STM32WBxx_HAL_Driver/Src/stm32wbxx_hal_rtc_ex.c ****   __HAL_RTC_WRITEPROTECTION_DISABLE(hrtc);
 1998              		.loc 1 1210 3 is_stmt 1 view .LVU695
 1999              		.loc 1 1210 3 view .LVU696
 2000 001c 0368     		ldr	r3, [r0]
 2001 001e CA22     		movs	r2, #202
 2002              	.LVL145:
 2003              		.loc 1 1210 3 is_stmt 0 view .LVU697
 2004 0020 5A62     		str	r2, [r3, #36]
 2005              		.loc 1 1210 3 is_stmt 1 view .LVU698
 2006 0022 0368     		ldr	r3, [r0]
 2007 0024 5322     		movs	r2, #83
 2008 0026 5A62     		str	r2, [r3, #36]
 2009              		.loc 1 1210 3 view .LVU699
1211:Drivers/STM32WBxx_HAL_Driver/Src/stm32wbxx_hal_rtc_ex.c **** 
1212:Drivers/STM32WBxx_HAL_Driver/Src/stm32wbxx_hal_rtc_ex.c ****   /* Check RTC WUTWF flag is reset only when wakeup timer enabled*/
1213:Drivers/STM32WBxx_HAL_Driver/Src/stm32wbxx_hal_rtc_ex.c ****   if ((hrtc->Instance->CR & RTC_CR_WUTE) != 0U)
 2010              		.loc 1 1213 3 view .LVU700
 2011              		.loc 1 1213 12 is_stmt 0 view .LVU701
 2012 0028 0368     		ldr	r3, [r0]
 2013              		.loc 1 1213 22 view .LVU702
 2014 002a 9B68     		ldr	r3, [r3, #8]
 2015              		.loc 1 1213 6 view .LVU703
 2016 002c 13F4806F 		tst	r3, #1024
 2017 0030 17D0     		beq	.L144
1214:Drivers/STM32WBxx_HAL_Driver/Src/stm32wbxx_hal_rtc_ex.c ****   {
1215:Drivers/STM32WBxx_HAL_Driver/Src/stm32wbxx_hal_rtc_ex.c ****     tickstart = HAL_GetTick();
 2018              		.loc 1 1215 5 is_stmt 1 view .LVU704
 2019              		.loc 1 1215 17 is_stmt 0 view .LVU705
 2020 0032 FFF7FEFF 		bl	HAL_GetTick
 2021              	.LVL146:
 2022              		.loc 1 1215 17 view .LVU706
 2023 0036 0746     		mov	r7, r0
 2024              	.LVL147:
1216:Drivers/STM32WBxx_HAL_Driver/Src/stm32wbxx_hal_rtc_ex.c **** 
1217:Drivers/STM32WBxx_HAL_Driver/Src/stm32wbxx_hal_rtc_ex.c ****     /* Wait till RTC WUTWF flag is reset and if timeout is reached exit */
1218:Drivers/STM32WBxx_HAL_Driver/Src/stm32wbxx_hal_rtc_ex.c ****     while (__HAL_RTC_WAKEUPTIMER_GET_FLAG(hrtc, RTC_FLAG_WUTWF) != 0U)
 2025              		.loc 1 1218 5 is_stmt 1 view .LVU707
 2026              	.L145:
 2027              		.loc 1 1218 65 view .LVU708
 2028              		.loc 1 1218 12 is_stmt 0 view .LVU709
 2029 0038 2368     		ldr	r3, [r4]
 2030 003a DB68     		ldr	r3, [r3, #12]
ARM GAS  C:\Users\Nathan\AppData\Local\Temp\ccWT97xY.s 			page 60


 2031              		.loc 1 1218 65 view .LVU710
 2032 003c 13F0040F 		tst	r3, #4
 2033 0040 0FD0     		beq	.L144
1219:Drivers/STM32WBxx_HAL_Driver/Src/stm32wbxx_hal_rtc_ex.c ****     {
1220:Drivers/STM32WBxx_HAL_Driver/Src/stm32wbxx_hal_rtc_ex.c ****       if ((HAL_GetTick() - tickstart) > RTC_TIMEOUT_VALUE)
 2034              		.loc 1 1220 7 is_stmt 1 view .LVU711
 2035              		.loc 1 1220 12 is_stmt 0 view .LVU712
 2036 0042 FFF7FEFF 		bl	HAL_GetTick
 2037              	.LVL148:
 2038              		.loc 1 1220 26 discriminator 1 view .LVU713
 2039 0046 C01B     		subs	r0, r0, r7
 2040              		.loc 1 1220 10 discriminator 1 view .LVU714
 2041 0048 B0F57A7F 		cmp	r0, #1000
 2042 004c F4D9     		bls	.L145
1221:Drivers/STM32WBxx_HAL_Driver/Src/stm32wbxx_hal_rtc_ex.c ****       {
1222:Drivers/STM32WBxx_HAL_Driver/Src/stm32wbxx_hal_rtc_ex.c ****         /* Enable the write protection for RTC registers */
1223:Drivers/STM32WBxx_HAL_Driver/Src/stm32wbxx_hal_rtc_ex.c ****         __HAL_RTC_WRITEPROTECTION_ENABLE(hrtc);
 2043              		.loc 1 1223 9 is_stmt 1 view .LVU715
 2044              		.loc 1 1223 9 view .LVU716
 2045 004e 2368     		ldr	r3, [r4]
 2046 0050 FF22     		movs	r2, #255
 2047 0052 5A62     		str	r2, [r3, #36]
 2048              		.loc 1 1223 9 view .LVU717
1224:Drivers/STM32WBxx_HAL_Driver/Src/stm32wbxx_hal_rtc_ex.c **** 
1225:Drivers/STM32WBxx_HAL_Driver/Src/stm32wbxx_hal_rtc_ex.c ****         hrtc->State = HAL_RTC_STATE_TIMEOUT;
 2049              		.loc 1 1225 9 view .LVU718
 2050              		.loc 1 1225 21 is_stmt 0 view .LVU719
 2051 0054 0320     		movs	r0, #3
 2052 0056 84F82100 		strb	r0, [r4, #33]
1226:Drivers/STM32WBxx_HAL_Driver/Src/stm32wbxx_hal_rtc_ex.c **** 
1227:Drivers/STM32WBxx_HAL_Driver/Src/stm32wbxx_hal_rtc_ex.c ****         /* Process Unlocked */
1228:Drivers/STM32WBxx_HAL_Driver/Src/stm32wbxx_hal_rtc_ex.c ****         __HAL_UNLOCK(hrtc);
 2053              		.loc 1 1228 9 is_stmt 1 view .LVU720
 2054              		.loc 1 1228 9 view .LVU721
 2055 005a 0023     		movs	r3, #0
 2056 005c 84F82030 		strb	r3, [r4, #32]
 2057              		.loc 1 1228 9 view .LVU722
1229:Drivers/STM32WBxx_HAL_Driver/Src/stm32wbxx_hal_rtc_ex.c **** 
1230:Drivers/STM32WBxx_HAL_Driver/Src/stm32wbxx_hal_rtc_ex.c ****         return HAL_TIMEOUT;
 2058              		.loc 1 1230 9 view .LVU723
 2059              		.loc 1 1230 16 is_stmt 0 view .LVU724
 2060 0060 3AE0     		b	.L143
 2061              	.LVL149:
 2062              	.L144:
1231:Drivers/STM32WBxx_HAL_Driver/Src/stm32wbxx_hal_rtc_ex.c ****       }
1232:Drivers/STM32WBxx_HAL_Driver/Src/stm32wbxx_hal_rtc_ex.c ****     }
1233:Drivers/STM32WBxx_HAL_Driver/Src/stm32wbxx_hal_rtc_ex.c ****   }
1234:Drivers/STM32WBxx_HAL_Driver/Src/stm32wbxx_hal_rtc_ex.c **** 
1235:Drivers/STM32WBxx_HAL_Driver/Src/stm32wbxx_hal_rtc_ex.c ****   /* Disable the Wakeup timer */
1236:Drivers/STM32WBxx_HAL_Driver/Src/stm32wbxx_hal_rtc_ex.c ****   __HAL_RTC_WAKEUPTIMER_DISABLE(hrtc);
 2063              		.loc 1 1236 3 is_stmt 1 view .LVU725
 2064 0062 2268     		ldr	r2, [r4]
 2065 0064 9368     		ldr	r3, [r2, #8]
 2066 0066 23F48063 		bic	r3, r3, #1024
 2067 006a 9360     		str	r3, [r2, #8]
1237:Drivers/STM32WBxx_HAL_Driver/Src/stm32wbxx_hal_rtc_ex.c **** 
1238:Drivers/STM32WBxx_HAL_Driver/Src/stm32wbxx_hal_rtc_ex.c ****   /* Clear the Wakeup flag */
ARM GAS  C:\Users\Nathan\AppData\Local\Temp\ccWT97xY.s 			page 61


1239:Drivers/STM32WBxx_HAL_Driver/Src/stm32wbxx_hal_rtc_ex.c ****   __HAL_RTC_WAKEUPTIMER_CLEAR_FLAG(hrtc, RTC_FLAG_WUTF);
 2068              		.loc 1 1239 3 view .LVU726
 2069 006c 2268     		ldr	r2, [r4]
 2070 006e D368     		ldr	r3, [r2, #12]
 2071 0070 DBB2     		uxtb	r3, r3
 2072 0072 63F49063 		orn	r3, r3, #1152
 2073 0076 D360     		str	r3, [r2, #12]
1240:Drivers/STM32WBxx_HAL_Driver/Src/stm32wbxx_hal_rtc_ex.c **** 
1241:Drivers/STM32WBxx_HAL_Driver/Src/stm32wbxx_hal_rtc_ex.c ****   /* Get tick */
1242:Drivers/STM32WBxx_HAL_Driver/Src/stm32wbxx_hal_rtc_ex.c ****   tickstart = HAL_GetTick();
 2074              		.loc 1 1242 3 view .LVU727
 2075              		.loc 1 1242 15 is_stmt 0 view .LVU728
 2076 0078 FFF7FEFF 		bl	HAL_GetTick
 2077              	.LVL150:
 2078 007c 0746     		mov	r7, r0
 2079              	.LVL151:
1243:Drivers/STM32WBxx_HAL_Driver/Src/stm32wbxx_hal_rtc_ex.c **** 
1244:Drivers/STM32WBxx_HAL_Driver/Src/stm32wbxx_hal_rtc_ex.c ****   /* Wait till RTC WUTWF flag is set and if timeout is reached exit */
1245:Drivers/STM32WBxx_HAL_Driver/Src/stm32wbxx_hal_rtc_ex.c ****   while (__HAL_RTC_WAKEUPTIMER_GET_FLAG(hrtc, RTC_FLAG_WUTWF) == 0U)
 2080              		.loc 1 1245 3 is_stmt 1 view .LVU729
 2081              	.L147:
 2082              		.loc 1 1245 63 view .LVU730
 2083              		.loc 1 1245 10 is_stmt 0 view .LVU731
 2084 007e 2368     		ldr	r3, [r4]
 2085 0080 DA68     		ldr	r2, [r3, #12]
 2086              		.loc 1 1245 63 view .LVU732
 2087 0082 12F0040F 		tst	r2, #4
 2088 0086 0FD1     		bne	.L151
1246:Drivers/STM32WBxx_HAL_Driver/Src/stm32wbxx_hal_rtc_ex.c ****   {
1247:Drivers/STM32WBxx_HAL_Driver/Src/stm32wbxx_hal_rtc_ex.c ****     if ((HAL_GetTick() - tickstart) > RTC_TIMEOUT_VALUE)
 2089              		.loc 1 1247 5 is_stmt 1 view .LVU733
 2090              		.loc 1 1247 10 is_stmt 0 view .LVU734
 2091 0088 FFF7FEFF 		bl	HAL_GetTick
 2092              	.LVL152:
 2093              		.loc 1 1247 24 discriminator 1 view .LVU735
 2094 008c C01B     		subs	r0, r0, r7
 2095              		.loc 1 1247 8 discriminator 1 view .LVU736
 2096 008e B0F57A7F 		cmp	r0, #1000
 2097 0092 F4D9     		bls	.L147
1248:Drivers/STM32WBxx_HAL_Driver/Src/stm32wbxx_hal_rtc_ex.c ****     {
1249:Drivers/STM32WBxx_HAL_Driver/Src/stm32wbxx_hal_rtc_ex.c ****       /* Enable the write protection for RTC registers */
1250:Drivers/STM32WBxx_HAL_Driver/Src/stm32wbxx_hal_rtc_ex.c ****       __HAL_RTC_WRITEPROTECTION_ENABLE(hrtc);
 2098              		.loc 1 1250 7 is_stmt 1 view .LVU737
 2099              		.loc 1 1250 7 view .LVU738
 2100 0094 2368     		ldr	r3, [r4]
 2101 0096 FF22     		movs	r2, #255
 2102 0098 5A62     		str	r2, [r3, #36]
 2103              		.loc 1 1250 7 view .LVU739
1251:Drivers/STM32WBxx_HAL_Driver/Src/stm32wbxx_hal_rtc_ex.c **** 
1252:Drivers/STM32WBxx_HAL_Driver/Src/stm32wbxx_hal_rtc_ex.c ****       hrtc->State = HAL_RTC_STATE_TIMEOUT;
 2104              		.loc 1 1252 7 view .LVU740
 2105              		.loc 1 1252 19 is_stmt 0 view .LVU741
 2106 009a 0320     		movs	r0, #3
 2107 009c 84F82100 		strb	r0, [r4, #33]
1253:Drivers/STM32WBxx_HAL_Driver/Src/stm32wbxx_hal_rtc_ex.c **** 
1254:Drivers/STM32WBxx_HAL_Driver/Src/stm32wbxx_hal_rtc_ex.c ****       /* Process Unlocked */
1255:Drivers/STM32WBxx_HAL_Driver/Src/stm32wbxx_hal_rtc_ex.c ****       __HAL_UNLOCK(hrtc);
ARM GAS  C:\Users\Nathan\AppData\Local\Temp\ccWT97xY.s 			page 62


 2108              		.loc 1 1255 7 is_stmt 1 view .LVU742
 2109              		.loc 1 1255 7 view .LVU743
 2110 00a0 0023     		movs	r3, #0
 2111 00a2 84F82030 		strb	r3, [r4, #32]
 2112              		.loc 1 1255 7 view .LVU744
1256:Drivers/STM32WBxx_HAL_Driver/Src/stm32wbxx_hal_rtc_ex.c **** 
1257:Drivers/STM32WBxx_HAL_Driver/Src/stm32wbxx_hal_rtc_ex.c ****       return HAL_TIMEOUT;
 2113              		.loc 1 1257 7 view .LVU745
 2114              		.loc 1 1257 14 is_stmt 0 view .LVU746
 2115 00a6 17E0     		b	.L143
 2116              	.L151:
1258:Drivers/STM32WBxx_HAL_Driver/Src/stm32wbxx_hal_rtc_ex.c ****     }
1259:Drivers/STM32WBxx_HAL_Driver/Src/stm32wbxx_hal_rtc_ex.c ****   }
1260:Drivers/STM32WBxx_HAL_Driver/Src/stm32wbxx_hal_rtc_ex.c **** 
1261:Drivers/STM32WBxx_HAL_Driver/Src/stm32wbxx_hal_rtc_ex.c ****   /* Clear the Wakeup Timer clock source bits in CR register */
1262:Drivers/STM32WBxx_HAL_Driver/Src/stm32wbxx_hal_rtc_ex.c ****   hrtc->Instance->CR &= (uint32_t)~RTC_CR_WUCKSEL;
 2117              		.loc 1 1262 3 is_stmt 1 view .LVU747
 2118              		.loc 1 1262 17 is_stmt 0 view .LVU748
 2119 00a8 9A68     		ldr	r2, [r3, #8]
 2120              		.loc 1 1262 22 view .LVU749
 2121 00aa 22F00702 		bic	r2, r2, #7
 2122 00ae 9A60     		str	r2, [r3, #8]
1263:Drivers/STM32WBxx_HAL_Driver/Src/stm32wbxx_hal_rtc_ex.c **** 
1264:Drivers/STM32WBxx_HAL_Driver/Src/stm32wbxx_hal_rtc_ex.c ****   /* Configure the clock source */
1265:Drivers/STM32WBxx_HAL_Driver/Src/stm32wbxx_hal_rtc_ex.c ****   hrtc->Instance->CR |= (uint32_t)WakeUpClock;
 2123              		.loc 1 1265 3 is_stmt 1 view .LVU750
 2124              		.loc 1 1265 7 is_stmt 0 view .LVU751
 2125 00b0 2268     		ldr	r2, [r4]
 2126              		.loc 1 1265 17 view .LVU752
 2127 00b2 9368     		ldr	r3, [r2, #8]
 2128              		.loc 1 1265 22 view .LVU753
 2129 00b4 3343     		orrs	r3, r3, r6
 2130 00b6 9360     		str	r3, [r2, #8]
1266:Drivers/STM32WBxx_HAL_Driver/Src/stm32wbxx_hal_rtc_ex.c **** 
1267:Drivers/STM32WBxx_HAL_Driver/Src/stm32wbxx_hal_rtc_ex.c ****   /* Configure the Wakeup Timer counter */
1268:Drivers/STM32WBxx_HAL_Driver/Src/stm32wbxx_hal_rtc_ex.c ****   hrtc->Instance->WUTR = (uint32_t)WakeUpCounter;
 2131              		.loc 1 1268 3 is_stmt 1 view .LVU754
 2132              		.loc 1 1268 7 is_stmt 0 view .LVU755
 2133 00b8 2368     		ldr	r3, [r4]
 2134              		.loc 1 1268 24 view .LVU756
 2135 00ba 5D61     		str	r5, [r3, #20]
1269:Drivers/STM32WBxx_HAL_Driver/Src/stm32wbxx_hal_rtc_ex.c **** 
1270:Drivers/STM32WBxx_HAL_Driver/Src/stm32wbxx_hal_rtc_ex.c ****   /* Enable the Wakeup Timer */
1271:Drivers/STM32WBxx_HAL_Driver/Src/stm32wbxx_hal_rtc_ex.c ****   __HAL_RTC_WAKEUPTIMER_ENABLE(hrtc);
 2136              		.loc 1 1271 3 is_stmt 1 view .LVU757
 2137 00bc 2268     		ldr	r2, [r4]
 2138 00be 9368     		ldr	r3, [r2, #8]
 2139 00c0 43F48063 		orr	r3, r3, #1024
 2140 00c4 9360     		str	r3, [r2, #8]
1272:Drivers/STM32WBxx_HAL_Driver/Src/stm32wbxx_hal_rtc_ex.c **** 
1273:Drivers/STM32WBxx_HAL_Driver/Src/stm32wbxx_hal_rtc_ex.c ****   /* Enable the write protection for RTC registers */
1274:Drivers/STM32WBxx_HAL_Driver/Src/stm32wbxx_hal_rtc_ex.c ****   __HAL_RTC_WRITEPROTECTION_ENABLE(hrtc);
 2141              		.loc 1 1274 3 view .LVU758
 2142              		.loc 1 1274 3 view .LVU759
 2143 00c6 2368     		ldr	r3, [r4]
 2144 00c8 FF22     		movs	r2, #255
 2145 00ca 5A62     		str	r2, [r3, #36]
ARM GAS  C:\Users\Nathan\AppData\Local\Temp\ccWT97xY.s 			page 63


 2146              		.loc 1 1274 3 view .LVU760
1275:Drivers/STM32WBxx_HAL_Driver/Src/stm32wbxx_hal_rtc_ex.c **** 
1276:Drivers/STM32WBxx_HAL_Driver/Src/stm32wbxx_hal_rtc_ex.c ****   hrtc->State = HAL_RTC_STATE_READY;
 2147              		.loc 1 1276 3 view .LVU761
 2148              		.loc 1 1276 15 is_stmt 0 view .LVU762
 2149 00cc 0123     		movs	r3, #1
 2150 00ce 84F82130 		strb	r3, [r4, #33]
1277:Drivers/STM32WBxx_HAL_Driver/Src/stm32wbxx_hal_rtc_ex.c **** 
1278:Drivers/STM32WBxx_HAL_Driver/Src/stm32wbxx_hal_rtc_ex.c ****   /* Process Unlocked */
1279:Drivers/STM32WBxx_HAL_Driver/Src/stm32wbxx_hal_rtc_ex.c ****   __HAL_UNLOCK(hrtc);
 2151              		.loc 1 1279 3 is_stmt 1 view .LVU763
 2152              		.loc 1 1279 3 view .LVU764
 2153 00d2 0020     		movs	r0, #0
 2154 00d4 84F82000 		strb	r0, [r4, #32]
 2155              		.loc 1 1279 3 view .LVU765
1280:Drivers/STM32WBxx_HAL_Driver/Src/stm32wbxx_hal_rtc_ex.c **** 
1281:Drivers/STM32WBxx_HAL_Driver/Src/stm32wbxx_hal_rtc_ex.c ****   return HAL_OK;
 2156              		.loc 1 1281 3 view .LVU766
 2157              	.LVL153:
 2158              	.L143:
1282:Drivers/STM32WBxx_HAL_Driver/Src/stm32wbxx_hal_rtc_ex.c **** }
 2159              		.loc 1 1282 1 is_stmt 0 view .LVU767
 2160 00d8 F8BD     		pop	{r3, r4, r5, r6, r7, pc}
 2161              	.LVL154:
 2162              	.L149:
1205:Drivers/STM32WBxx_HAL_Driver/Src/stm32wbxx_hal_rtc_ex.c **** 
 2163              		.loc 1 1205 3 discriminator 1 view .LVU768
 2164 00da 0220     		movs	r0, #2
 2165              	.LVL155:
1205:Drivers/STM32WBxx_HAL_Driver/Src/stm32wbxx_hal_rtc_ex.c **** 
 2166              		.loc 1 1205 3 discriminator 1 view .LVU769
 2167 00dc FCE7     		b	.L143
 2168              		.cfi_endproc
 2169              	.LFE1122:
 2171              		.section	.text.HAL_RTCEx_SetWakeUpTimer_IT,"ax",%progbits
 2172              		.align	1
 2173              		.global	HAL_RTCEx_SetWakeUpTimer_IT
 2174              		.syntax unified
 2175              		.thumb
 2176              		.thumb_func
 2178              	HAL_RTCEx_SetWakeUpTimer_IT:
 2179              	.LVL156:
 2180              	.LFB1123:
1283:Drivers/STM32WBxx_HAL_Driver/Src/stm32wbxx_hal_rtc_ex.c **** 
1284:Drivers/STM32WBxx_HAL_Driver/Src/stm32wbxx_hal_rtc_ex.c **** /**
1285:Drivers/STM32WBxx_HAL_Driver/Src/stm32wbxx_hal_rtc_ex.c ****   * @brief  Sets wakeup timer with interrupt.
1286:Drivers/STM32WBxx_HAL_Driver/Src/stm32wbxx_hal_rtc_ex.c ****   * @param  hrtc pointer to a RTC_HandleTypeDef structure that contains
1287:Drivers/STM32WBxx_HAL_Driver/Src/stm32wbxx_hal_rtc_ex.c ****   *                the configuration information for RTC.
1288:Drivers/STM32WBxx_HAL_Driver/Src/stm32wbxx_hal_rtc_ex.c ****   * @param  WakeUpCounter Wakeup counter
1289:Drivers/STM32WBxx_HAL_Driver/Src/stm32wbxx_hal_rtc_ex.c ****   * @param  WakeUpClock Wakeup clock
1290:Drivers/STM32WBxx_HAL_Driver/Src/stm32wbxx_hal_rtc_ex.c ****   * @retval HAL status
1291:Drivers/STM32WBxx_HAL_Driver/Src/stm32wbxx_hal_rtc_ex.c ****   */
1292:Drivers/STM32WBxx_HAL_Driver/Src/stm32wbxx_hal_rtc_ex.c **** HAL_StatusTypeDef HAL_RTCEx_SetWakeUpTimer_IT(RTC_HandleTypeDef *hrtc, uint32_t WakeUpCounter, uint
1293:Drivers/STM32WBxx_HAL_Driver/Src/stm32wbxx_hal_rtc_ex.c **** {
 2181              		.loc 1 1293 1 is_stmt 1 view -0
 2182              		.cfi_startproc
 2183              		@ args = 0, pretend = 0, frame = 8
ARM GAS  C:\Users\Nathan\AppData\Local\Temp\ccWT97xY.s 			page 64


 2184              		@ frame_needed = 0, uses_anonymous_args = 0
 2185              		@ link register save eliminated.
 2186              		.loc 1 1293 1 is_stmt 0 view .LVU771
 2187 0000 10B4     		push	{r4}
 2188              		.cfi_def_cfa_offset 4
 2189              		.cfi_offset 4, -4
 2190 0002 83B0     		sub	sp, sp, #12
 2191              		.cfi_def_cfa_offset 16
 2192 0004 8446     		mov	ip, r0
1294:Drivers/STM32WBxx_HAL_Driver/Src/stm32wbxx_hal_rtc_ex.c ****   __IO uint32_t count  = RTC_TIMEOUT_VALUE * (SystemCoreClock / 32U / 1000U);
 2193              		.loc 1 1294 3 is_stmt 1 view .LVU772
 2194              		.loc 1 1294 69 is_stmt 0 view .LVU773
 2195 0006 464B     		ldr	r3, .L163
 2196 0008 1868     		ldr	r0, [r3]
 2197              	.LVL157:
 2198              		.loc 1 1294 69 view .LVU774
 2199 000a 464B     		ldr	r3, .L163+4
 2200 000c A3FB0030 		umull	r3, r0, r3, r0
 2201 0010 C00A     		lsrs	r0, r0, #11
 2202              		.loc 1 1294 44 view .LVU775
 2203 0012 4FF47A73 		mov	r3, #1000
 2204 0016 03FB00F0 		mul	r0, r3, r0
 2205              		.loc 1 1294 17 view .LVU776
 2206 001a 0190     		str	r0, [sp, #4]
1295:Drivers/STM32WBxx_HAL_Driver/Src/stm32wbxx_hal_rtc_ex.c **** 
1296:Drivers/STM32WBxx_HAL_Driver/Src/stm32wbxx_hal_rtc_ex.c ****   /* Check the parameters */
1297:Drivers/STM32WBxx_HAL_Driver/Src/stm32wbxx_hal_rtc_ex.c ****   assert_param(IS_RTC_WAKEUP_CLOCK(WakeUpClock));
 2207              		.loc 1 1297 3 is_stmt 1 view .LVU777
1298:Drivers/STM32WBxx_HAL_Driver/Src/stm32wbxx_hal_rtc_ex.c ****   assert_param(IS_RTC_WAKEUP_COUNTER(WakeUpCounter));
 2208              		.loc 1 1298 3 view .LVU778
1299:Drivers/STM32WBxx_HAL_Driver/Src/stm32wbxx_hal_rtc_ex.c **** 
1300:Drivers/STM32WBxx_HAL_Driver/Src/stm32wbxx_hal_rtc_ex.c ****   /* Process Locked */
1301:Drivers/STM32WBxx_HAL_Driver/Src/stm32wbxx_hal_rtc_ex.c ****   __HAL_LOCK(hrtc);
 2209              		.loc 1 1301 3 view .LVU779
 2210              		.loc 1 1301 3 view .LVU780
 2211 001c 9CF82030 		ldrb	r3, [ip, #32]	@ zero_extendqisi2
 2212 0020 012B     		cmp	r3, #1
 2213 0022 7AD0     		beq	.L159
 2214              		.loc 1 1301 3 discriminator 2 view .LVU781
 2215 0024 0123     		movs	r3, #1
 2216 0026 8CF82030 		strb	r3, [ip, #32]
 2217              		.loc 1 1301 3 discriminator 2 view .LVU782
1302:Drivers/STM32WBxx_HAL_Driver/Src/stm32wbxx_hal_rtc_ex.c **** 
1303:Drivers/STM32WBxx_HAL_Driver/Src/stm32wbxx_hal_rtc_ex.c ****   hrtc->State = HAL_RTC_STATE_BUSY;
 2218              		.loc 1 1303 3 view .LVU783
 2219              		.loc 1 1303 15 is_stmt 0 view .LVU784
 2220 002a 0223     		movs	r3, #2
 2221 002c 8CF82130 		strb	r3, [ip, #33]
1304:Drivers/STM32WBxx_HAL_Driver/Src/stm32wbxx_hal_rtc_ex.c **** 
1305:Drivers/STM32WBxx_HAL_Driver/Src/stm32wbxx_hal_rtc_ex.c ****   /* Disable the write protection for RTC registers */
1306:Drivers/STM32WBxx_HAL_Driver/Src/stm32wbxx_hal_rtc_ex.c ****   __HAL_RTC_WRITEPROTECTION_DISABLE(hrtc);
 2222              		.loc 1 1306 3 is_stmt 1 view .LVU785
 2223              		.loc 1 1306 3 view .LVU786
 2224 0030 DCF80030 		ldr	r3, [ip]
 2225 0034 CA24     		movs	r4, #202
 2226 0036 5C62     		str	r4, [r3, #36]
 2227              		.loc 1 1306 3 view .LVU787
ARM GAS  C:\Users\Nathan\AppData\Local\Temp\ccWT97xY.s 			page 65


 2228 0038 DCF80030 		ldr	r3, [ip]
 2229 003c 5324     		movs	r4, #83
 2230 003e 5C62     		str	r4, [r3, #36]
 2231              		.loc 1 1306 3 view .LVU788
1307:Drivers/STM32WBxx_HAL_Driver/Src/stm32wbxx_hal_rtc_ex.c **** 
1308:Drivers/STM32WBxx_HAL_Driver/Src/stm32wbxx_hal_rtc_ex.c ****   /* Check RTC WUTWF flag is reset only when wakeup timer enabled */
1309:Drivers/STM32WBxx_HAL_Driver/Src/stm32wbxx_hal_rtc_ex.c ****   if ((hrtc->Instance->CR & RTC_CR_WUTE) != 0U)
 2232              		.loc 1 1309 3 view .LVU789
 2233              		.loc 1 1309 12 is_stmt 0 view .LVU790
 2234 0040 DCF80040 		ldr	r4, [ip]
 2235              		.loc 1 1309 22 view .LVU791
 2236 0044 A368     		ldr	r3, [r4, #8]
 2237              		.loc 1 1309 6 view .LVU792
 2238 0046 13F4806F 		tst	r3, #1024
 2239 004a 09D0     		beq	.L154
 2240              	.L156:
1310:Drivers/STM32WBxx_HAL_Driver/Src/stm32wbxx_hal_rtc_ex.c ****   {
1311:Drivers/STM32WBxx_HAL_Driver/Src/stm32wbxx_hal_rtc_ex.c ****     /* Wait till RTC WUTWF flag is reset and if timeout is reached exit */
1312:Drivers/STM32WBxx_HAL_Driver/Src/stm32wbxx_hal_rtc_ex.c ****     do
 2241              		.loc 1 1312 5 is_stmt 1 view .LVU793
1313:Drivers/STM32WBxx_HAL_Driver/Src/stm32wbxx_hal_rtc_ex.c ****     {
1314:Drivers/STM32WBxx_HAL_Driver/Src/stm32wbxx_hal_rtc_ex.c ****       count = count - 1U;
 2242              		.loc 1 1314 7 view .LVU794
 2243              		.loc 1 1314 21 is_stmt 0 view .LVU795
 2244 004c 019B     		ldr	r3, [sp, #4]
 2245 004e 013B     		subs	r3, r3, #1
 2246              		.loc 1 1314 13 view .LVU796
 2247 0050 0193     		str	r3, [sp, #4]
1315:Drivers/STM32WBxx_HAL_Driver/Src/stm32wbxx_hal_rtc_ex.c ****       if (count == 0U)
 2248              		.loc 1 1315 7 is_stmt 1 view .LVU797
 2249              		.loc 1 1315 17 is_stmt 0 view .LVU798
 2250 0052 019B     		ldr	r3, [sp, #4]
 2251              		.loc 1 1315 10 view .LVU799
 2252 0054 002B     		cmp	r3, #0
 2253 0056 49D0     		beq	.L161
1316:Drivers/STM32WBxx_HAL_Driver/Src/stm32wbxx_hal_rtc_ex.c ****       {
1317:Drivers/STM32WBxx_HAL_Driver/Src/stm32wbxx_hal_rtc_ex.c ****         /* Enable the write protection for RTC registers */
1318:Drivers/STM32WBxx_HAL_Driver/Src/stm32wbxx_hal_rtc_ex.c ****         __HAL_RTC_WRITEPROTECTION_ENABLE(hrtc);
1319:Drivers/STM32WBxx_HAL_Driver/Src/stm32wbxx_hal_rtc_ex.c **** 
1320:Drivers/STM32WBxx_HAL_Driver/Src/stm32wbxx_hal_rtc_ex.c ****         hrtc->State = HAL_RTC_STATE_TIMEOUT;
1321:Drivers/STM32WBxx_HAL_Driver/Src/stm32wbxx_hal_rtc_ex.c **** 
1322:Drivers/STM32WBxx_HAL_Driver/Src/stm32wbxx_hal_rtc_ex.c ****         /* Process Unlocked */
1323:Drivers/STM32WBxx_HAL_Driver/Src/stm32wbxx_hal_rtc_ex.c ****         __HAL_UNLOCK(hrtc);
1324:Drivers/STM32WBxx_HAL_Driver/Src/stm32wbxx_hal_rtc_ex.c **** 
1325:Drivers/STM32WBxx_HAL_Driver/Src/stm32wbxx_hal_rtc_ex.c ****         return HAL_TIMEOUT;
1326:Drivers/STM32WBxx_HAL_Driver/Src/stm32wbxx_hal_rtc_ex.c ****       }
1327:Drivers/STM32WBxx_HAL_Driver/Src/stm32wbxx_hal_rtc_ex.c ****     } while (__HAL_RTC_WAKEUPTIMER_GET_FLAG(hrtc, RTC_FLAG_WUTWF) != 0U);
 2254              		.loc 1 1327 67 is_stmt 1 view .LVU800
 2255              		.loc 1 1327 14 is_stmt 0 view .LVU801
 2256 0058 E368     		ldr	r3, [r4, #12]
 2257              		.loc 1 1327 67 view .LVU802
 2258 005a 13F0040F 		tst	r3, #4
 2259 005e F5D1     		bne	.L156
 2260              	.L154:
1328:Drivers/STM32WBxx_HAL_Driver/Src/stm32wbxx_hal_rtc_ex.c ****   }
1329:Drivers/STM32WBxx_HAL_Driver/Src/stm32wbxx_hal_rtc_ex.c **** 
1330:Drivers/STM32WBxx_HAL_Driver/Src/stm32wbxx_hal_rtc_ex.c ****   /* Disable the Wakeup timer */
ARM GAS  C:\Users\Nathan\AppData\Local\Temp\ccWT97xY.s 			page 66


1331:Drivers/STM32WBxx_HAL_Driver/Src/stm32wbxx_hal_rtc_ex.c ****   __HAL_RTC_WAKEUPTIMER_DISABLE(hrtc);
 2261              		.loc 1 1331 3 is_stmt 1 view .LVU803
 2262 0060 A368     		ldr	r3, [r4, #8]
 2263 0062 23F48063 		bic	r3, r3, #1024
 2264 0066 A360     		str	r3, [r4, #8]
1332:Drivers/STM32WBxx_HAL_Driver/Src/stm32wbxx_hal_rtc_ex.c **** 
1333:Drivers/STM32WBxx_HAL_Driver/Src/stm32wbxx_hal_rtc_ex.c ****   /* Clear the Wakeup flag */
1334:Drivers/STM32WBxx_HAL_Driver/Src/stm32wbxx_hal_rtc_ex.c ****   __HAL_RTC_WAKEUPTIMER_CLEAR_FLAG(hrtc, RTC_FLAG_WUTF);
 2265              		.loc 1 1334 3 view .LVU804
 2266 0068 DCF80040 		ldr	r4, [ip]
 2267 006c E368     		ldr	r3, [r4, #12]
 2268 006e DBB2     		uxtb	r3, r3
 2269 0070 63F49063 		orn	r3, r3, #1152
 2270 0074 E360     		str	r3, [r4, #12]
1335:Drivers/STM32WBxx_HAL_Driver/Src/stm32wbxx_hal_rtc_ex.c **** 
1336:Drivers/STM32WBxx_HAL_Driver/Src/stm32wbxx_hal_rtc_ex.c ****   /* Reload the counter */
1337:Drivers/STM32WBxx_HAL_Driver/Src/stm32wbxx_hal_rtc_ex.c ****   count = RTC_TIMEOUT_VALUE * (SystemCoreClock / 32U / 1000U);
 2271              		.loc 1 1337 3 view .LVU805
 2272              		.loc 1 1337 9 is_stmt 0 view .LVU806
 2273 0076 0190     		str	r0, [sp, #4]
 2274              	.L158:
1338:Drivers/STM32WBxx_HAL_Driver/Src/stm32wbxx_hal_rtc_ex.c **** 
1339:Drivers/STM32WBxx_HAL_Driver/Src/stm32wbxx_hal_rtc_ex.c ****   /* Wait till RTC WUTWF flag is set and if timeout is reached exit */
1340:Drivers/STM32WBxx_HAL_Driver/Src/stm32wbxx_hal_rtc_ex.c ****   do
 2275              		.loc 1 1340 3 is_stmt 1 view .LVU807
1341:Drivers/STM32WBxx_HAL_Driver/Src/stm32wbxx_hal_rtc_ex.c ****   {
1342:Drivers/STM32WBxx_HAL_Driver/Src/stm32wbxx_hal_rtc_ex.c ****     count = count - 1U;
 2276              		.loc 1 1342 5 view .LVU808
 2277              		.loc 1 1342 19 is_stmt 0 view .LVU809
 2278 0078 019B     		ldr	r3, [sp, #4]
 2279 007a 013B     		subs	r3, r3, #1
 2280              		.loc 1 1342 11 view .LVU810
 2281 007c 0193     		str	r3, [sp, #4]
1343:Drivers/STM32WBxx_HAL_Driver/Src/stm32wbxx_hal_rtc_ex.c ****     if (count == 0U)
 2282              		.loc 1 1343 5 is_stmt 1 view .LVU811
 2283              		.loc 1 1343 15 is_stmt 0 view .LVU812
 2284 007e 019B     		ldr	r3, [sp, #4]
 2285              		.loc 1 1343 8 view .LVU813
 2286 0080 002B     		cmp	r3, #0
 2287 0082 3CD0     		beq	.L162
1344:Drivers/STM32WBxx_HAL_Driver/Src/stm32wbxx_hal_rtc_ex.c ****     {
1345:Drivers/STM32WBxx_HAL_Driver/Src/stm32wbxx_hal_rtc_ex.c ****       /* Enable the write protection for RTC registers */
1346:Drivers/STM32WBxx_HAL_Driver/Src/stm32wbxx_hal_rtc_ex.c ****       __HAL_RTC_WRITEPROTECTION_ENABLE(hrtc);
1347:Drivers/STM32WBxx_HAL_Driver/Src/stm32wbxx_hal_rtc_ex.c **** 
1348:Drivers/STM32WBxx_HAL_Driver/Src/stm32wbxx_hal_rtc_ex.c ****       hrtc->State = HAL_RTC_STATE_TIMEOUT;
1349:Drivers/STM32WBxx_HAL_Driver/Src/stm32wbxx_hal_rtc_ex.c **** 
1350:Drivers/STM32WBxx_HAL_Driver/Src/stm32wbxx_hal_rtc_ex.c ****       /* Process Unlocked */
1351:Drivers/STM32WBxx_HAL_Driver/Src/stm32wbxx_hal_rtc_ex.c ****       __HAL_UNLOCK(hrtc);
1352:Drivers/STM32WBxx_HAL_Driver/Src/stm32wbxx_hal_rtc_ex.c **** 
1353:Drivers/STM32WBxx_HAL_Driver/Src/stm32wbxx_hal_rtc_ex.c ****       return HAL_TIMEOUT;
1354:Drivers/STM32WBxx_HAL_Driver/Src/stm32wbxx_hal_rtc_ex.c ****     }
1355:Drivers/STM32WBxx_HAL_Driver/Src/stm32wbxx_hal_rtc_ex.c ****   } while (__HAL_RTC_WAKEUPTIMER_GET_FLAG(hrtc, RTC_FLAG_WUTWF) == 0U);
 2288              		.loc 1 1355 65 is_stmt 1 view .LVU814
 2289              		.loc 1 1355 12 is_stmt 0 view .LVU815
 2290 0084 DCF80030 		ldr	r3, [ip]
 2291 0088 D868     		ldr	r0, [r3, #12]
 2292              		.loc 1 1355 65 view .LVU816
ARM GAS  C:\Users\Nathan\AppData\Local\Temp\ccWT97xY.s 			page 67


 2293 008a 10F0040F 		tst	r0, #4
 2294 008e F3D0     		beq	.L158
1356:Drivers/STM32WBxx_HAL_Driver/Src/stm32wbxx_hal_rtc_ex.c **** 
1357:Drivers/STM32WBxx_HAL_Driver/Src/stm32wbxx_hal_rtc_ex.c ****   /* Clear the Wakeup Timer clock source bits in CR register */
1358:Drivers/STM32WBxx_HAL_Driver/Src/stm32wbxx_hal_rtc_ex.c ****   hrtc->Instance->CR &= (uint32_t)~RTC_CR_WUCKSEL;
 2295              		.loc 1 1358 3 is_stmt 1 view .LVU817
 2296              		.loc 1 1358 17 is_stmt 0 view .LVU818
 2297 0090 9868     		ldr	r0, [r3, #8]
 2298              		.loc 1 1358 22 view .LVU819
 2299 0092 20F00700 		bic	r0, r0, #7
 2300 0096 9860     		str	r0, [r3, #8]
1359:Drivers/STM32WBxx_HAL_Driver/Src/stm32wbxx_hal_rtc_ex.c **** 
1360:Drivers/STM32WBxx_HAL_Driver/Src/stm32wbxx_hal_rtc_ex.c ****   /* Configure the clock source */
1361:Drivers/STM32WBxx_HAL_Driver/Src/stm32wbxx_hal_rtc_ex.c ****   hrtc->Instance->CR |= (uint32_t)WakeUpClock;
 2301              		.loc 1 1361 3 is_stmt 1 view .LVU820
 2302              		.loc 1 1361 7 is_stmt 0 view .LVU821
 2303 0098 DCF80000 		ldr	r0, [ip]
 2304              		.loc 1 1361 17 view .LVU822
 2305 009c 8368     		ldr	r3, [r0, #8]
 2306              		.loc 1 1361 22 view .LVU823
 2307 009e 1343     		orrs	r3, r3, r2
 2308 00a0 8360     		str	r3, [r0, #8]
1362:Drivers/STM32WBxx_HAL_Driver/Src/stm32wbxx_hal_rtc_ex.c **** 
1363:Drivers/STM32WBxx_HAL_Driver/Src/stm32wbxx_hal_rtc_ex.c ****   /* Configure the Wakeup Timer counter */
1364:Drivers/STM32WBxx_HAL_Driver/Src/stm32wbxx_hal_rtc_ex.c ****   hrtc->Instance->WUTR = (uint32_t)WakeUpCounter;
 2309              		.loc 1 1364 3 is_stmt 1 view .LVU824
 2310              		.loc 1 1364 7 is_stmt 0 view .LVU825
 2311 00a2 DCF80030 		ldr	r3, [ip]
 2312              		.loc 1 1364 24 view .LVU826
 2313 00a6 5961     		str	r1, [r3, #20]
1365:Drivers/STM32WBxx_HAL_Driver/Src/stm32wbxx_hal_rtc_ex.c **** 
1366:Drivers/STM32WBxx_HAL_Driver/Src/stm32wbxx_hal_rtc_ex.c ****   /* Enable and configure the EXTI line associated to the RTC Wakeup Timer interrupt */
1367:Drivers/STM32WBxx_HAL_Driver/Src/stm32wbxx_hal_rtc_ex.c ****   __HAL_RTC_WAKEUPTIMER_EXTI_ENABLE_IT();
 2314              		.loc 1 1367 3 is_stmt 1 view .LVU827
 2315 00a8 1F4B     		ldr	r3, .L163+8
 2316 00aa D3F88020 		ldr	r2, [r3, #128]
 2317              	.LVL158:
 2318              		.loc 1 1367 3 is_stmt 0 view .LVU828
 2319 00ae 42F40022 		orr	r2, r2, #524288
 2320 00b2 C3F88020 		str	r2, [r3, #128]
1368:Drivers/STM32WBxx_HAL_Driver/Src/stm32wbxx_hal_rtc_ex.c ****   __HAL_RTC_WAKEUPTIMER_EXTI_ENABLE_RISING_EDGE();
 2321              		.loc 1 1368 3 is_stmt 1 view .LVU829
 2322 00b6 1A68     		ldr	r2, [r3]
 2323 00b8 42F40022 		orr	r2, r2, #524288
 2324 00bc 1A60     		str	r2, [r3]
1369:Drivers/STM32WBxx_HAL_Driver/Src/stm32wbxx_hal_rtc_ex.c **** 
1370:Drivers/STM32WBxx_HAL_Driver/Src/stm32wbxx_hal_rtc_ex.c ****   /* Configure the interrupt in the RTC_CR register */
1371:Drivers/STM32WBxx_HAL_Driver/Src/stm32wbxx_hal_rtc_ex.c ****   __HAL_RTC_WAKEUPTIMER_ENABLE_IT(hrtc, RTC_IT_WUT);
 2325              		.loc 1 1371 3 view .LVU830
 2326 00be DCF80020 		ldr	r2, [ip]
 2327 00c2 9368     		ldr	r3, [r2, #8]
 2328 00c4 43F48043 		orr	r3, r3, #16384
 2329 00c8 9360     		str	r3, [r2, #8]
1372:Drivers/STM32WBxx_HAL_Driver/Src/stm32wbxx_hal_rtc_ex.c **** 
1373:Drivers/STM32WBxx_HAL_Driver/Src/stm32wbxx_hal_rtc_ex.c ****   /* Enable the Wakeup Timer */
1374:Drivers/STM32WBxx_HAL_Driver/Src/stm32wbxx_hal_rtc_ex.c ****   __HAL_RTC_WAKEUPTIMER_ENABLE(hrtc);
 2330              		.loc 1 1374 3 view .LVU831
ARM GAS  C:\Users\Nathan\AppData\Local\Temp\ccWT97xY.s 			page 68


 2331 00ca DCF80020 		ldr	r2, [ip]
 2332 00ce 9368     		ldr	r3, [r2, #8]
 2333 00d0 43F48063 		orr	r3, r3, #1024
 2334 00d4 9360     		str	r3, [r2, #8]
1375:Drivers/STM32WBxx_HAL_Driver/Src/stm32wbxx_hal_rtc_ex.c **** 
1376:Drivers/STM32WBxx_HAL_Driver/Src/stm32wbxx_hal_rtc_ex.c ****   /* Enable the write protection for RTC registers */
1377:Drivers/STM32WBxx_HAL_Driver/Src/stm32wbxx_hal_rtc_ex.c ****   __HAL_RTC_WRITEPROTECTION_ENABLE(hrtc);
 2335              		.loc 1 1377 3 view .LVU832
 2336              		.loc 1 1377 3 view .LVU833
 2337 00d6 DCF80030 		ldr	r3, [ip]
 2338 00da FF22     		movs	r2, #255
 2339 00dc 5A62     		str	r2, [r3, #36]
 2340              		.loc 1 1377 3 view .LVU834
1378:Drivers/STM32WBxx_HAL_Driver/Src/stm32wbxx_hal_rtc_ex.c **** 
1379:Drivers/STM32WBxx_HAL_Driver/Src/stm32wbxx_hal_rtc_ex.c ****   hrtc->State = HAL_RTC_STATE_READY;
 2341              		.loc 1 1379 3 view .LVU835
 2342              		.loc 1 1379 15 is_stmt 0 view .LVU836
 2343 00de 0123     		movs	r3, #1
 2344 00e0 8CF82130 		strb	r3, [ip, #33]
1380:Drivers/STM32WBxx_HAL_Driver/Src/stm32wbxx_hal_rtc_ex.c **** 
1381:Drivers/STM32WBxx_HAL_Driver/Src/stm32wbxx_hal_rtc_ex.c ****   /* Process Unlocked */
1382:Drivers/STM32WBxx_HAL_Driver/Src/stm32wbxx_hal_rtc_ex.c ****   __HAL_UNLOCK(hrtc);
 2345              		.loc 1 1382 3 is_stmt 1 view .LVU837
 2346              		.loc 1 1382 3 view .LVU838
 2347 00e4 0020     		movs	r0, #0
 2348 00e6 8CF82000 		strb	r0, [ip, #32]
 2349              		.loc 1 1382 3 view .LVU839
1383:Drivers/STM32WBxx_HAL_Driver/Src/stm32wbxx_hal_rtc_ex.c **** 
1384:Drivers/STM32WBxx_HAL_Driver/Src/stm32wbxx_hal_rtc_ex.c ****   return HAL_OK;
 2350              		.loc 1 1384 3 view .LVU840
 2351              		.loc 1 1384 10 is_stmt 0 view .LVU841
 2352 00ea 12E0     		b	.L153
 2353              	.LVL159:
 2354              	.L161:
1318:Drivers/STM32WBxx_HAL_Driver/Src/stm32wbxx_hal_rtc_ex.c **** 
 2355              		.loc 1 1318 9 is_stmt 1 view .LVU842
1318:Drivers/STM32WBxx_HAL_Driver/Src/stm32wbxx_hal_rtc_ex.c **** 
 2356              		.loc 1 1318 9 view .LVU843
 2357 00ec FF23     		movs	r3, #255
 2358 00ee 6362     		str	r3, [r4, #36]
1318:Drivers/STM32WBxx_HAL_Driver/Src/stm32wbxx_hal_rtc_ex.c **** 
 2359              		.loc 1 1318 9 view .LVU844
1320:Drivers/STM32WBxx_HAL_Driver/Src/stm32wbxx_hal_rtc_ex.c **** 
 2360              		.loc 1 1320 9 view .LVU845
1320:Drivers/STM32WBxx_HAL_Driver/Src/stm32wbxx_hal_rtc_ex.c **** 
 2361              		.loc 1 1320 21 is_stmt 0 view .LVU846
 2362 00f0 0320     		movs	r0, #3
 2363 00f2 8CF82100 		strb	r0, [ip, #33]
1323:Drivers/STM32WBxx_HAL_Driver/Src/stm32wbxx_hal_rtc_ex.c **** 
 2364              		.loc 1 1323 9 is_stmt 1 view .LVU847
1323:Drivers/STM32WBxx_HAL_Driver/Src/stm32wbxx_hal_rtc_ex.c **** 
 2365              		.loc 1 1323 9 view .LVU848
 2366 00f6 0023     		movs	r3, #0
 2367 00f8 8CF82030 		strb	r3, [ip, #32]
1323:Drivers/STM32WBxx_HAL_Driver/Src/stm32wbxx_hal_rtc_ex.c **** 
 2368              		.loc 1 1323 9 view .LVU849
1325:Drivers/STM32WBxx_HAL_Driver/Src/stm32wbxx_hal_rtc_ex.c ****       }
ARM GAS  C:\Users\Nathan\AppData\Local\Temp\ccWT97xY.s 			page 69


 2369              		.loc 1 1325 9 view .LVU850
1325:Drivers/STM32WBxx_HAL_Driver/Src/stm32wbxx_hal_rtc_ex.c ****       }
 2370              		.loc 1 1325 16 is_stmt 0 view .LVU851
 2371 00fc 09E0     		b	.L153
 2372              	.L162:
1346:Drivers/STM32WBxx_HAL_Driver/Src/stm32wbxx_hal_rtc_ex.c **** 
 2373              		.loc 1 1346 7 is_stmt 1 view .LVU852
1346:Drivers/STM32WBxx_HAL_Driver/Src/stm32wbxx_hal_rtc_ex.c **** 
 2374              		.loc 1 1346 7 view .LVU853
 2375 00fe DCF80030 		ldr	r3, [ip]
 2376 0102 FF22     		movs	r2, #255
 2377              	.LVL160:
1346:Drivers/STM32WBxx_HAL_Driver/Src/stm32wbxx_hal_rtc_ex.c **** 
 2378              		.loc 1 1346 7 is_stmt 0 view .LVU854
 2379 0104 5A62     		str	r2, [r3, #36]
1346:Drivers/STM32WBxx_HAL_Driver/Src/stm32wbxx_hal_rtc_ex.c **** 
 2380              		.loc 1 1346 7 is_stmt 1 view .LVU855
1348:Drivers/STM32WBxx_HAL_Driver/Src/stm32wbxx_hal_rtc_ex.c **** 
 2381              		.loc 1 1348 7 view .LVU856
1348:Drivers/STM32WBxx_HAL_Driver/Src/stm32wbxx_hal_rtc_ex.c **** 
 2382              		.loc 1 1348 19 is_stmt 0 view .LVU857
 2383 0106 0320     		movs	r0, #3
 2384 0108 8CF82100 		strb	r0, [ip, #33]
1351:Drivers/STM32WBxx_HAL_Driver/Src/stm32wbxx_hal_rtc_ex.c **** 
 2385              		.loc 1 1351 7 is_stmt 1 view .LVU858
1351:Drivers/STM32WBxx_HAL_Driver/Src/stm32wbxx_hal_rtc_ex.c **** 
 2386              		.loc 1 1351 7 view .LVU859
 2387 010c 0023     		movs	r3, #0
 2388 010e 8CF82030 		strb	r3, [ip, #32]
1351:Drivers/STM32WBxx_HAL_Driver/Src/stm32wbxx_hal_rtc_ex.c **** 
 2389              		.loc 1 1351 7 view .LVU860
1353:Drivers/STM32WBxx_HAL_Driver/Src/stm32wbxx_hal_rtc_ex.c ****     }
 2390              		.loc 1 1353 7 view .LVU861
 2391              	.L153:
1385:Drivers/STM32WBxx_HAL_Driver/Src/stm32wbxx_hal_rtc_ex.c **** }
 2392              		.loc 1 1385 1 is_stmt 0 view .LVU862
 2393 0112 03B0     		add	sp, sp, #12
 2394              		.cfi_remember_state
 2395              		.cfi_def_cfa_offset 4
 2396              		@ sp needed
 2397 0114 5DF8044B 		ldr	r4, [sp], #4
 2398              		.cfi_restore 4
 2399              		.cfi_def_cfa_offset 0
 2400 0118 7047     		bx	lr
 2401              	.LVL161:
 2402              	.L159:
 2403              		.cfi_restore_state
1301:Drivers/STM32WBxx_HAL_Driver/Src/stm32wbxx_hal_rtc_ex.c **** 
 2404              		.loc 1 1301 3 discriminator 1 view .LVU863
 2405 011a 0220     		movs	r0, #2
 2406 011c F9E7     		b	.L153
 2407              	.L164:
 2408 011e 00BF     		.align	2
 2409              	.L163:
 2410 0120 00000000 		.word	SystemCoreClock
 2411 0124 D34D6210 		.word	274877907
 2412 0128 00080058 		.word	1476397056
ARM GAS  C:\Users\Nathan\AppData\Local\Temp\ccWT97xY.s 			page 70


 2413              		.cfi_endproc
 2414              	.LFE1123:
 2416              		.section	.text.HAL_RTCEx_DeactivateWakeUpTimer,"ax",%progbits
 2417              		.align	1
 2418              		.global	HAL_RTCEx_DeactivateWakeUpTimer
 2419              		.syntax unified
 2420              		.thumb
 2421              		.thumb_func
 2423              	HAL_RTCEx_DeactivateWakeUpTimer:
 2424              	.LVL162:
 2425              	.LFB1124:
1386:Drivers/STM32WBxx_HAL_Driver/Src/stm32wbxx_hal_rtc_ex.c **** 
1387:Drivers/STM32WBxx_HAL_Driver/Src/stm32wbxx_hal_rtc_ex.c **** /**
1388:Drivers/STM32WBxx_HAL_Driver/Src/stm32wbxx_hal_rtc_ex.c ****   * @brief  Deactivates wakeup timer counter.
1389:Drivers/STM32WBxx_HAL_Driver/Src/stm32wbxx_hal_rtc_ex.c ****   * @param  hrtc pointer to a RTC_HandleTypeDef structure that contains
1390:Drivers/STM32WBxx_HAL_Driver/Src/stm32wbxx_hal_rtc_ex.c ****   *                the configuration information for RTC.
1391:Drivers/STM32WBxx_HAL_Driver/Src/stm32wbxx_hal_rtc_ex.c ****   * @retval HAL status
1392:Drivers/STM32WBxx_HAL_Driver/Src/stm32wbxx_hal_rtc_ex.c ****   */
1393:Drivers/STM32WBxx_HAL_Driver/Src/stm32wbxx_hal_rtc_ex.c **** HAL_StatusTypeDef HAL_RTCEx_DeactivateWakeUpTimer(RTC_HandleTypeDef *hrtc)
1394:Drivers/STM32WBxx_HAL_Driver/Src/stm32wbxx_hal_rtc_ex.c **** {
 2426              		.loc 1 1394 1 is_stmt 1 view -0
 2427              		.cfi_startproc
 2428              		@ args = 0, pretend = 0, frame = 0
 2429              		@ frame_needed = 0, uses_anonymous_args = 0
 2430              		.loc 1 1394 1 is_stmt 0 view .LVU865
 2431 0000 38B5     		push	{r3, r4, r5, lr}
 2432              		.cfi_def_cfa_offset 16
 2433              		.cfi_offset 3, -16
 2434              		.cfi_offset 4, -12
 2435              		.cfi_offset 5, -8
 2436              		.cfi_offset 14, -4
1395:Drivers/STM32WBxx_HAL_Driver/Src/stm32wbxx_hal_rtc_ex.c ****   uint32_t tickstart = 0U;
 2437              		.loc 1 1395 3 is_stmt 1 view .LVU866
 2438              	.LVL163:
1396:Drivers/STM32WBxx_HAL_Driver/Src/stm32wbxx_hal_rtc_ex.c **** 
1397:Drivers/STM32WBxx_HAL_Driver/Src/stm32wbxx_hal_rtc_ex.c ****   /* Process Locked */
1398:Drivers/STM32WBxx_HAL_Driver/Src/stm32wbxx_hal_rtc_ex.c ****   __HAL_LOCK(hrtc);
 2439              		.loc 1 1398 3 view .LVU867
 2440              		.loc 1 1398 3 view .LVU868
 2441 0002 90F82030 		ldrb	r3, [r0, #32]	@ zero_extendqisi2
 2442 0006 012B     		cmp	r3, #1
 2443 0008 37D0     		beq	.L169
 2444 000a 0446     		mov	r4, r0
 2445              		.loc 1 1398 3 discriminator 2 view .LVU869
 2446 000c 0123     		movs	r3, #1
 2447 000e 80F82030 		strb	r3, [r0, #32]
 2448              		.loc 1 1398 3 discriminator 2 view .LVU870
1399:Drivers/STM32WBxx_HAL_Driver/Src/stm32wbxx_hal_rtc_ex.c **** 
1400:Drivers/STM32WBxx_HAL_Driver/Src/stm32wbxx_hal_rtc_ex.c ****   hrtc->State = HAL_RTC_STATE_BUSY;
 2449              		.loc 1 1400 3 view .LVU871
 2450              		.loc 1 1400 15 is_stmt 0 view .LVU872
 2451 0012 0223     		movs	r3, #2
 2452 0014 80F82130 		strb	r3, [r0, #33]
1401:Drivers/STM32WBxx_HAL_Driver/Src/stm32wbxx_hal_rtc_ex.c **** 
1402:Drivers/STM32WBxx_HAL_Driver/Src/stm32wbxx_hal_rtc_ex.c ****   /* Disable the write protection for RTC registers */
1403:Drivers/STM32WBxx_HAL_Driver/Src/stm32wbxx_hal_rtc_ex.c ****   __HAL_RTC_WRITEPROTECTION_DISABLE(hrtc);
 2453              		.loc 1 1403 3 is_stmt 1 view .LVU873
ARM GAS  C:\Users\Nathan\AppData\Local\Temp\ccWT97xY.s 			page 71


 2454              		.loc 1 1403 3 view .LVU874
 2455 0018 0368     		ldr	r3, [r0]
 2456 001a CA22     		movs	r2, #202
 2457 001c 5A62     		str	r2, [r3, #36]
 2458              		.loc 1 1403 3 view .LVU875
 2459 001e 0368     		ldr	r3, [r0]
 2460 0020 5322     		movs	r2, #83
 2461 0022 5A62     		str	r2, [r3, #36]
 2462              		.loc 1 1403 3 view .LVU876
1404:Drivers/STM32WBxx_HAL_Driver/Src/stm32wbxx_hal_rtc_ex.c **** 
1405:Drivers/STM32WBxx_HAL_Driver/Src/stm32wbxx_hal_rtc_ex.c ****   /* Disable the Wakeup Timer */
1406:Drivers/STM32WBxx_HAL_Driver/Src/stm32wbxx_hal_rtc_ex.c ****   __HAL_RTC_WAKEUPTIMER_DISABLE(hrtc);
 2463              		.loc 1 1406 3 view .LVU877
 2464 0024 0268     		ldr	r2, [r0]
 2465 0026 9368     		ldr	r3, [r2, #8]
 2466 0028 23F48063 		bic	r3, r3, #1024
 2467 002c 9360     		str	r3, [r2, #8]
1407:Drivers/STM32WBxx_HAL_Driver/Src/stm32wbxx_hal_rtc_ex.c **** 
1408:Drivers/STM32WBxx_HAL_Driver/Src/stm32wbxx_hal_rtc_ex.c ****   /* In case interrupt mode is used, the interrupt source must disabled */
1409:Drivers/STM32WBxx_HAL_Driver/Src/stm32wbxx_hal_rtc_ex.c ****   __HAL_RTC_WAKEUPTIMER_DISABLE_IT(hrtc, RTC_IT_WUT);
 2468              		.loc 1 1409 3 view .LVU878
 2469 002e 0268     		ldr	r2, [r0]
 2470 0030 9368     		ldr	r3, [r2, #8]
 2471 0032 23F48043 		bic	r3, r3, #16384
 2472 0036 9360     		str	r3, [r2, #8]
1410:Drivers/STM32WBxx_HAL_Driver/Src/stm32wbxx_hal_rtc_ex.c **** 
1411:Drivers/STM32WBxx_HAL_Driver/Src/stm32wbxx_hal_rtc_ex.c ****   /* Get tick */
1412:Drivers/STM32WBxx_HAL_Driver/Src/stm32wbxx_hal_rtc_ex.c ****   tickstart = HAL_GetTick();
 2473              		.loc 1 1412 3 view .LVU879
 2474              		.loc 1 1412 15 is_stmt 0 view .LVU880
 2475 0038 FFF7FEFF 		bl	HAL_GetTick
 2476              	.LVL164:
 2477              		.loc 1 1412 15 view .LVU881
 2478 003c 0546     		mov	r5, r0
 2479              	.LVL165:
1413:Drivers/STM32WBxx_HAL_Driver/Src/stm32wbxx_hal_rtc_ex.c **** 
1414:Drivers/STM32WBxx_HAL_Driver/Src/stm32wbxx_hal_rtc_ex.c ****   /* Wait till RTC WUTWF flag is set and if timeout is reached exit */
1415:Drivers/STM32WBxx_HAL_Driver/Src/stm32wbxx_hal_rtc_ex.c ****   while (__HAL_RTC_WAKEUPTIMER_GET_FLAG(hrtc, RTC_FLAG_WUTWF) == 0U)
 2480              		.loc 1 1415 3 is_stmt 1 view .LVU882
 2481              	.L167:
 2482              		.loc 1 1415 63 view .LVU883
 2483              		.loc 1 1415 10 is_stmt 0 view .LVU884
 2484 003e 2368     		ldr	r3, [r4]
 2485 0040 DA68     		ldr	r2, [r3, #12]
 2486              		.loc 1 1415 63 view .LVU885
 2487 0042 12F0040F 		tst	r2, #4
 2488 0046 0FD1     		bne	.L171
1416:Drivers/STM32WBxx_HAL_Driver/Src/stm32wbxx_hal_rtc_ex.c ****   {
1417:Drivers/STM32WBxx_HAL_Driver/Src/stm32wbxx_hal_rtc_ex.c ****     if ((HAL_GetTick() - tickstart) > RTC_TIMEOUT_VALUE)
 2489              		.loc 1 1417 5 is_stmt 1 view .LVU886
 2490              		.loc 1 1417 10 is_stmt 0 view .LVU887
 2491 0048 FFF7FEFF 		bl	HAL_GetTick
 2492              	.LVL166:
 2493              		.loc 1 1417 24 discriminator 1 view .LVU888
 2494 004c 431B     		subs	r3, r0, r5
 2495              		.loc 1 1417 8 discriminator 1 view .LVU889
 2496 004e B3F57A7F 		cmp	r3, #1000
ARM GAS  C:\Users\Nathan\AppData\Local\Temp\ccWT97xY.s 			page 72


 2497 0052 F4D9     		bls	.L167
1418:Drivers/STM32WBxx_HAL_Driver/Src/stm32wbxx_hal_rtc_ex.c ****     {
1419:Drivers/STM32WBxx_HAL_Driver/Src/stm32wbxx_hal_rtc_ex.c ****       /* Enable the write protection for RTC registers */
1420:Drivers/STM32WBxx_HAL_Driver/Src/stm32wbxx_hal_rtc_ex.c ****       __HAL_RTC_WRITEPROTECTION_ENABLE(hrtc);
 2498              		.loc 1 1420 7 is_stmt 1 view .LVU890
 2499              		.loc 1 1420 7 view .LVU891
 2500 0054 2368     		ldr	r3, [r4]
 2501 0056 FF22     		movs	r2, #255
 2502 0058 5A62     		str	r2, [r3, #36]
 2503              		.loc 1 1420 7 view .LVU892
1421:Drivers/STM32WBxx_HAL_Driver/Src/stm32wbxx_hal_rtc_ex.c **** 
1422:Drivers/STM32WBxx_HAL_Driver/Src/stm32wbxx_hal_rtc_ex.c ****       hrtc->State = HAL_RTC_STATE_TIMEOUT;
 2504              		.loc 1 1422 7 view .LVU893
 2505              		.loc 1 1422 19 is_stmt 0 view .LVU894
 2506 005a 0320     		movs	r0, #3
 2507 005c 84F82100 		strb	r0, [r4, #33]
1423:Drivers/STM32WBxx_HAL_Driver/Src/stm32wbxx_hal_rtc_ex.c **** 
1424:Drivers/STM32WBxx_HAL_Driver/Src/stm32wbxx_hal_rtc_ex.c ****       /* Process Unlocked */
1425:Drivers/STM32WBxx_HAL_Driver/Src/stm32wbxx_hal_rtc_ex.c ****       __HAL_UNLOCK(hrtc);
 2508              		.loc 1 1425 7 is_stmt 1 view .LVU895
 2509              		.loc 1 1425 7 view .LVU896
 2510 0060 0023     		movs	r3, #0
 2511 0062 84F82030 		strb	r3, [r4, #32]
 2512              		.loc 1 1425 7 view .LVU897
1426:Drivers/STM32WBxx_HAL_Driver/Src/stm32wbxx_hal_rtc_ex.c **** 
1427:Drivers/STM32WBxx_HAL_Driver/Src/stm32wbxx_hal_rtc_ex.c ****       return HAL_TIMEOUT;
 2513              		.loc 1 1427 7 view .LVU898
 2514              		.loc 1 1427 14 is_stmt 0 view .LVU899
 2515 0066 07E0     		b	.L166
 2516              	.L171:
1428:Drivers/STM32WBxx_HAL_Driver/Src/stm32wbxx_hal_rtc_ex.c ****     }
1429:Drivers/STM32WBxx_HAL_Driver/Src/stm32wbxx_hal_rtc_ex.c ****   }
1430:Drivers/STM32WBxx_HAL_Driver/Src/stm32wbxx_hal_rtc_ex.c **** 
1431:Drivers/STM32WBxx_HAL_Driver/Src/stm32wbxx_hal_rtc_ex.c ****   /* Enable the write protection for RTC registers */
1432:Drivers/STM32WBxx_HAL_Driver/Src/stm32wbxx_hal_rtc_ex.c ****   __HAL_RTC_WRITEPROTECTION_ENABLE(hrtc);
 2517              		.loc 1 1432 3 is_stmt 1 view .LVU900
 2518              		.loc 1 1432 3 view .LVU901
 2519 0068 FF22     		movs	r2, #255
 2520 006a 5A62     		str	r2, [r3, #36]
 2521              		.loc 1 1432 3 view .LVU902
1433:Drivers/STM32WBxx_HAL_Driver/Src/stm32wbxx_hal_rtc_ex.c **** 
1434:Drivers/STM32WBxx_HAL_Driver/Src/stm32wbxx_hal_rtc_ex.c ****   hrtc->State = HAL_RTC_STATE_READY;
 2522              		.loc 1 1434 3 view .LVU903
 2523              		.loc 1 1434 15 is_stmt 0 view .LVU904
 2524 006c 0123     		movs	r3, #1
 2525 006e 84F82130 		strb	r3, [r4, #33]
1435:Drivers/STM32WBxx_HAL_Driver/Src/stm32wbxx_hal_rtc_ex.c **** 
1436:Drivers/STM32WBxx_HAL_Driver/Src/stm32wbxx_hal_rtc_ex.c ****   /* Process Unlocked */
1437:Drivers/STM32WBxx_HAL_Driver/Src/stm32wbxx_hal_rtc_ex.c ****   __HAL_UNLOCK(hrtc);
 2526              		.loc 1 1437 3 is_stmt 1 view .LVU905
 2527              		.loc 1 1437 3 view .LVU906
 2528 0072 0020     		movs	r0, #0
 2529 0074 84F82000 		strb	r0, [r4, #32]
 2530              		.loc 1 1437 3 view .LVU907
1438:Drivers/STM32WBxx_HAL_Driver/Src/stm32wbxx_hal_rtc_ex.c **** 
1439:Drivers/STM32WBxx_HAL_Driver/Src/stm32wbxx_hal_rtc_ex.c ****   return HAL_OK;
 2531              		.loc 1 1439 3 view .LVU908
ARM GAS  C:\Users\Nathan\AppData\Local\Temp\ccWT97xY.s 			page 73


 2532              	.LVL167:
 2533              	.L166:
1440:Drivers/STM32WBxx_HAL_Driver/Src/stm32wbxx_hal_rtc_ex.c **** }
 2534              		.loc 1 1440 1 is_stmt 0 view .LVU909
 2535 0078 38BD     		pop	{r3, r4, r5, pc}
 2536              	.LVL168:
 2537              	.L169:
1398:Drivers/STM32WBxx_HAL_Driver/Src/stm32wbxx_hal_rtc_ex.c **** 
 2538              		.loc 1 1398 3 discriminator 1 view .LVU910
 2539 007a 0220     		movs	r0, #2
 2540              	.LVL169:
1398:Drivers/STM32WBxx_HAL_Driver/Src/stm32wbxx_hal_rtc_ex.c **** 
 2541              		.loc 1 1398 3 discriminator 1 view .LVU911
 2542 007c FCE7     		b	.L166
 2543              		.cfi_endproc
 2544              	.LFE1124:
 2546              		.section	.text.HAL_RTCEx_GetWakeUpTimer,"ax",%progbits
 2547              		.align	1
 2548              		.global	HAL_RTCEx_GetWakeUpTimer
 2549              		.syntax unified
 2550              		.thumb
 2551              		.thumb_func
 2553              	HAL_RTCEx_GetWakeUpTimer:
 2554              	.LVL170:
 2555              	.LFB1125:
1441:Drivers/STM32WBxx_HAL_Driver/Src/stm32wbxx_hal_rtc_ex.c **** 
1442:Drivers/STM32WBxx_HAL_Driver/Src/stm32wbxx_hal_rtc_ex.c **** /**
1443:Drivers/STM32WBxx_HAL_Driver/Src/stm32wbxx_hal_rtc_ex.c ****   * @brief  Gets wakeup timer counter.
1444:Drivers/STM32WBxx_HAL_Driver/Src/stm32wbxx_hal_rtc_ex.c ****   * @param  hrtc pointer to a RTC_HandleTypeDef structure that contains
1445:Drivers/STM32WBxx_HAL_Driver/Src/stm32wbxx_hal_rtc_ex.c ****   *                the configuration information for RTC.
1446:Drivers/STM32WBxx_HAL_Driver/Src/stm32wbxx_hal_rtc_ex.c ****   * @retval Counter value
1447:Drivers/STM32WBxx_HAL_Driver/Src/stm32wbxx_hal_rtc_ex.c ****   */
1448:Drivers/STM32WBxx_HAL_Driver/Src/stm32wbxx_hal_rtc_ex.c **** uint32_t HAL_RTCEx_GetWakeUpTimer(RTC_HandleTypeDef *hrtc)
1449:Drivers/STM32WBxx_HAL_Driver/Src/stm32wbxx_hal_rtc_ex.c **** {
 2556              		.loc 1 1449 1 is_stmt 1 view -0
 2557              		.cfi_startproc
 2558              		@ args = 0, pretend = 0, frame = 0
 2559              		@ frame_needed = 0, uses_anonymous_args = 0
 2560              		@ link register save eliminated.
1450:Drivers/STM32WBxx_HAL_Driver/Src/stm32wbxx_hal_rtc_ex.c ****   /* Get the counter value */
1451:Drivers/STM32WBxx_HAL_Driver/Src/stm32wbxx_hal_rtc_ex.c ****   return ((uint32_t)(hrtc->Instance->WUTR & RTC_WUTR_WUT));
 2561              		.loc 1 1451 3 view .LVU913
 2562              		.loc 1 1451 26 is_stmt 0 view .LVU914
 2563 0000 0368     		ldr	r3, [r0]
 2564              		.loc 1 1451 36 view .LVU915
 2565 0002 5869     		ldr	r0, [r3, #20]
 2566              	.LVL171:
1452:Drivers/STM32WBxx_HAL_Driver/Src/stm32wbxx_hal_rtc_ex.c **** }
 2567              		.loc 1 1452 1 view .LVU916
 2568 0004 80B2     		uxth	r0, r0
 2569 0006 7047     		bx	lr
 2570              		.cfi_endproc
 2571              	.LFE1125:
 2573              		.section	.text.HAL_RTCEx_WakeUpTimerEventCallback,"ax",%progbits
 2574              		.align	1
 2575              		.weak	HAL_RTCEx_WakeUpTimerEventCallback
 2576              		.syntax unified
ARM GAS  C:\Users\Nathan\AppData\Local\Temp\ccWT97xY.s 			page 74


 2577              		.thumb
 2578              		.thumb_func
 2580              	HAL_RTCEx_WakeUpTimerEventCallback:
 2581              	.LVL172:
 2582              	.LFB1127:
1453:Drivers/STM32WBxx_HAL_Driver/Src/stm32wbxx_hal_rtc_ex.c **** 
1454:Drivers/STM32WBxx_HAL_Driver/Src/stm32wbxx_hal_rtc_ex.c **** /**
1455:Drivers/STM32WBxx_HAL_Driver/Src/stm32wbxx_hal_rtc_ex.c ****   * @brief  Handles Wakeup Timer interrupt request.
1456:Drivers/STM32WBxx_HAL_Driver/Src/stm32wbxx_hal_rtc_ex.c ****   * @note   Unlike alarm interrupt line (shared by Alarms A and B) or tamper
1457:Drivers/STM32WBxx_HAL_Driver/Src/stm32wbxx_hal_rtc_ex.c ****   *         interrupt line (shared by timestamp and tampers) wakeup timer
1458:Drivers/STM32WBxx_HAL_Driver/Src/stm32wbxx_hal_rtc_ex.c ****   *         interrupt line is exclusive to the wakeup timer.
1459:Drivers/STM32WBxx_HAL_Driver/Src/stm32wbxx_hal_rtc_ex.c ****   *         There is no need in this case to check on the interrupt enable
1460:Drivers/STM32WBxx_HAL_Driver/Src/stm32wbxx_hal_rtc_ex.c ****   *         status via __HAL_RTC_WAKEUPTIMER_GET_IT_SOURCE().
1461:Drivers/STM32WBxx_HAL_Driver/Src/stm32wbxx_hal_rtc_ex.c ****   * @param  hrtc pointer to a RTC_HandleTypeDef structure that contains
1462:Drivers/STM32WBxx_HAL_Driver/Src/stm32wbxx_hal_rtc_ex.c ****   *                the configuration information for RTC.
1463:Drivers/STM32WBxx_HAL_Driver/Src/stm32wbxx_hal_rtc_ex.c ****   * @retval None
1464:Drivers/STM32WBxx_HAL_Driver/Src/stm32wbxx_hal_rtc_ex.c ****   */
1465:Drivers/STM32WBxx_HAL_Driver/Src/stm32wbxx_hal_rtc_ex.c **** void HAL_RTCEx_WakeUpTimerIRQHandler(RTC_HandleTypeDef *hrtc)
1466:Drivers/STM32WBxx_HAL_Driver/Src/stm32wbxx_hal_rtc_ex.c **** {
1467:Drivers/STM32WBxx_HAL_Driver/Src/stm32wbxx_hal_rtc_ex.c ****   /* Clear the EXTI flag associated to the RTC Wakeup Timer interrupt */
1468:Drivers/STM32WBxx_HAL_Driver/Src/stm32wbxx_hal_rtc_ex.c ****   __HAL_RTC_WAKEUPTIMER_EXTI_CLEAR_FLAG();
1469:Drivers/STM32WBxx_HAL_Driver/Src/stm32wbxx_hal_rtc_ex.c **** 
1470:Drivers/STM32WBxx_HAL_Driver/Src/stm32wbxx_hal_rtc_ex.c ****   /* Get the pending status of the Wakeup timer Interrupt */
1471:Drivers/STM32WBxx_HAL_Driver/Src/stm32wbxx_hal_rtc_ex.c ****   if (__HAL_RTC_WAKEUPTIMER_GET_FLAG(hrtc, RTC_FLAG_WUTF) != 0U)
1472:Drivers/STM32WBxx_HAL_Driver/Src/stm32wbxx_hal_rtc_ex.c ****   {
1473:Drivers/STM32WBxx_HAL_Driver/Src/stm32wbxx_hal_rtc_ex.c ****     /* Clear the Wakeup timer interrupt pending bit */
1474:Drivers/STM32WBxx_HAL_Driver/Src/stm32wbxx_hal_rtc_ex.c ****     __HAL_RTC_WAKEUPTIMER_CLEAR_FLAG(hrtc, RTC_FLAG_WUTF);
1475:Drivers/STM32WBxx_HAL_Driver/Src/stm32wbxx_hal_rtc_ex.c **** 
1476:Drivers/STM32WBxx_HAL_Driver/Src/stm32wbxx_hal_rtc_ex.c ****     /* Wakeup timer callback */
1477:Drivers/STM32WBxx_HAL_Driver/Src/stm32wbxx_hal_rtc_ex.c **** #if (USE_HAL_RTC_REGISTER_CALLBACKS == 1)
1478:Drivers/STM32WBxx_HAL_Driver/Src/stm32wbxx_hal_rtc_ex.c ****     hrtc->WakeUpTimerEventCallback(hrtc);
1479:Drivers/STM32WBxx_HAL_Driver/Src/stm32wbxx_hal_rtc_ex.c **** #else
1480:Drivers/STM32WBxx_HAL_Driver/Src/stm32wbxx_hal_rtc_ex.c ****     HAL_RTCEx_WakeUpTimerEventCallback(hrtc);
1481:Drivers/STM32WBxx_HAL_Driver/Src/stm32wbxx_hal_rtc_ex.c **** #endif /* USE_HAL_RTC_REGISTER_CALLBACKS */
1482:Drivers/STM32WBxx_HAL_Driver/Src/stm32wbxx_hal_rtc_ex.c ****   }
1483:Drivers/STM32WBxx_HAL_Driver/Src/stm32wbxx_hal_rtc_ex.c **** 
1484:Drivers/STM32WBxx_HAL_Driver/Src/stm32wbxx_hal_rtc_ex.c ****   /* Change RTC state */
1485:Drivers/STM32WBxx_HAL_Driver/Src/stm32wbxx_hal_rtc_ex.c ****   hrtc->State = HAL_RTC_STATE_READY;
1486:Drivers/STM32WBxx_HAL_Driver/Src/stm32wbxx_hal_rtc_ex.c **** }
1487:Drivers/STM32WBxx_HAL_Driver/Src/stm32wbxx_hal_rtc_ex.c **** 
1488:Drivers/STM32WBxx_HAL_Driver/Src/stm32wbxx_hal_rtc_ex.c **** /**
1489:Drivers/STM32WBxx_HAL_Driver/Src/stm32wbxx_hal_rtc_ex.c ****   * @brief  Wakeup Timer callback.
1490:Drivers/STM32WBxx_HAL_Driver/Src/stm32wbxx_hal_rtc_ex.c ****   * @param  hrtc pointer to a RTC_HandleTypeDef structure that contains
1491:Drivers/STM32WBxx_HAL_Driver/Src/stm32wbxx_hal_rtc_ex.c ****   *                the configuration information for RTC.
1492:Drivers/STM32WBxx_HAL_Driver/Src/stm32wbxx_hal_rtc_ex.c ****   * @retval None
1493:Drivers/STM32WBxx_HAL_Driver/Src/stm32wbxx_hal_rtc_ex.c ****   */
1494:Drivers/STM32WBxx_HAL_Driver/Src/stm32wbxx_hal_rtc_ex.c **** __weak void HAL_RTCEx_WakeUpTimerEventCallback(RTC_HandleTypeDef *hrtc)
1495:Drivers/STM32WBxx_HAL_Driver/Src/stm32wbxx_hal_rtc_ex.c **** {
 2583              		.loc 1 1495 1 is_stmt 1 view -0
 2584              		.cfi_startproc
 2585              		@ args = 0, pretend = 0, frame = 0
 2586              		@ frame_needed = 0, uses_anonymous_args = 0
 2587              		@ link register save eliminated.
1496:Drivers/STM32WBxx_HAL_Driver/Src/stm32wbxx_hal_rtc_ex.c ****   /* Prevent unused argument(s) compilation warning */
1497:Drivers/STM32WBxx_HAL_Driver/Src/stm32wbxx_hal_rtc_ex.c ****   UNUSED(hrtc);
 2588              		.loc 1 1497 3 view .LVU918
1498:Drivers/STM32WBxx_HAL_Driver/Src/stm32wbxx_hal_rtc_ex.c **** 
ARM GAS  C:\Users\Nathan\AppData\Local\Temp\ccWT97xY.s 			page 75


1499:Drivers/STM32WBxx_HAL_Driver/Src/stm32wbxx_hal_rtc_ex.c ****   /* NOTE: This function should not be modified, when the callback is needed,
1500:Drivers/STM32WBxx_HAL_Driver/Src/stm32wbxx_hal_rtc_ex.c ****            the HAL_RTCEx_WakeUpTimerEventCallback could be implemented in the user file
1501:Drivers/STM32WBxx_HAL_Driver/Src/stm32wbxx_hal_rtc_ex.c ****    */
1502:Drivers/STM32WBxx_HAL_Driver/Src/stm32wbxx_hal_rtc_ex.c **** }
 2589              		.loc 1 1502 1 is_stmt 0 view .LVU919
 2590 0000 7047     		bx	lr
 2591              		.cfi_endproc
 2592              	.LFE1127:
 2594              		.section	.text.HAL_RTCEx_WakeUpTimerIRQHandler,"ax",%progbits
 2595              		.align	1
 2596              		.global	HAL_RTCEx_WakeUpTimerIRQHandler
 2597              		.syntax unified
 2598              		.thumb
 2599              		.thumb_func
 2601              	HAL_RTCEx_WakeUpTimerIRQHandler:
 2602              	.LVL173:
 2603              	.LFB1126:
1466:Drivers/STM32WBxx_HAL_Driver/Src/stm32wbxx_hal_rtc_ex.c ****   /* Clear the EXTI flag associated to the RTC Wakeup Timer interrupt */
 2604              		.loc 1 1466 1 is_stmt 1 view -0
 2605              		.cfi_startproc
 2606              		@ args = 0, pretend = 0, frame = 0
 2607              		@ frame_needed = 0, uses_anonymous_args = 0
1466:Drivers/STM32WBxx_HAL_Driver/Src/stm32wbxx_hal_rtc_ex.c ****   /* Clear the EXTI flag associated to the RTC Wakeup Timer interrupt */
 2608              		.loc 1 1466 1 is_stmt 0 view .LVU921
 2609 0000 10B5     		push	{r4, lr}
 2610              		.cfi_def_cfa_offset 8
 2611              		.cfi_offset 4, -8
 2612              		.cfi_offset 14, -4
 2613 0002 0446     		mov	r4, r0
1468:Drivers/STM32WBxx_HAL_Driver/Src/stm32wbxx_hal_rtc_ex.c **** 
 2614              		.loc 1 1468 3 is_stmt 1 view .LVU922
 2615 0004 0A4B     		ldr	r3, .L178
 2616 0006 4FF40022 		mov	r2, #524288
 2617 000a DA60     		str	r2, [r3, #12]
1471:Drivers/STM32WBxx_HAL_Driver/Src/stm32wbxx_hal_rtc_ex.c ****   {
 2618              		.loc 1 1471 3 view .LVU923
1471:Drivers/STM32WBxx_HAL_Driver/Src/stm32wbxx_hal_rtc_ex.c ****   {
 2619              		.loc 1 1471 7 is_stmt 0 view .LVU924
 2620 000c 0368     		ldr	r3, [r0]
 2621 000e DA68     		ldr	r2, [r3, #12]
1471:Drivers/STM32WBxx_HAL_Driver/Src/stm32wbxx_hal_rtc_ex.c ****   {
 2622              		.loc 1 1471 6 view .LVU925
 2623 0010 12F4806F 		tst	r2, #1024
 2624 0014 03D1     		bne	.L177
 2625              	.LVL174:
 2626              	.L175:
1485:Drivers/STM32WBxx_HAL_Driver/Src/stm32wbxx_hal_rtc_ex.c **** }
 2627              		.loc 1 1485 3 is_stmt 1 view .LVU926
1485:Drivers/STM32WBxx_HAL_Driver/Src/stm32wbxx_hal_rtc_ex.c **** }
 2628              		.loc 1 1485 15 is_stmt 0 view .LVU927
 2629 0016 0123     		movs	r3, #1
 2630 0018 84F82130 		strb	r3, [r4, #33]
1486:Drivers/STM32WBxx_HAL_Driver/Src/stm32wbxx_hal_rtc_ex.c **** 
 2631              		.loc 1 1486 1 view .LVU928
 2632 001c 10BD     		pop	{r4, pc}
 2633              	.LVL175:
 2634              	.L177:
ARM GAS  C:\Users\Nathan\AppData\Local\Temp\ccWT97xY.s 			page 76


1474:Drivers/STM32WBxx_HAL_Driver/Src/stm32wbxx_hal_rtc_ex.c **** 
 2635              		.loc 1 1474 5 is_stmt 1 view .LVU929
 2636 001e DA68     		ldr	r2, [r3, #12]
 2637 0020 D2B2     		uxtb	r2, r2
 2638 0022 62F49062 		orn	r2, r2, #1152
 2639 0026 DA60     		str	r2, [r3, #12]
1480:Drivers/STM32WBxx_HAL_Driver/Src/stm32wbxx_hal_rtc_ex.c **** #endif /* USE_HAL_RTC_REGISTER_CALLBACKS */
 2640              		.loc 1 1480 5 view .LVU930
 2641 0028 FFF7FEFF 		bl	HAL_RTCEx_WakeUpTimerEventCallback
 2642              	.LVL176:
1480:Drivers/STM32WBxx_HAL_Driver/Src/stm32wbxx_hal_rtc_ex.c **** #endif /* USE_HAL_RTC_REGISTER_CALLBACKS */
 2643              		.loc 1 1480 5 is_stmt 0 view .LVU931
 2644 002c F3E7     		b	.L175
 2645              	.L179:
 2646 002e 00BF     		.align	2
 2647              	.L178:
 2648 0030 00080058 		.word	1476397056
 2649              		.cfi_endproc
 2650              	.LFE1126:
 2652              		.section	.text.HAL_RTCEx_PollForWakeUpTimerEvent,"ax",%progbits
 2653              		.align	1
 2654              		.global	HAL_RTCEx_PollForWakeUpTimerEvent
 2655              		.syntax unified
 2656              		.thumb
 2657              		.thumb_func
 2659              	HAL_RTCEx_PollForWakeUpTimerEvent:
 2660              	.LVL177:
 2661              	.LFB1128:
1503:Drivers/STM32WBxx_HAL_Driver/Src/stm32wbxx_hal_rtc_ex.c **** 
1504:Drivers/STM32WBxx_HAL_Driver/Src/stm32wbxx_hal_rtc_ex.c **** /**
1505:Drivers/STM32WBxx_HAL_Driver/Src/stm32wbxx_hal_rtc_ex.c ****   * @brief  Handles Wakeup Timer Polling.
1506:Drivers/STM32WBxx_HAL_Driver/Src/stm32wbxx_hal_rtc_ex.c ****   * @param  hrtc pointer to a RTC_HandleTypeDef structure that contains
1507:Drivers/STM32WBxx_HAL_Driver/Src/stm32wbxx_hal_rtc_ex.c ****   *                the configuration information for RTC.
1508:Drivers/STM32WBxx_HAL_Driver/Src/stm32wbxx_hal_rtc_ex.c ****   * @param  Timeout Timeout duration
1509:Drivers/STM32WBxx_HAL_Driver/Src/stm32wbxx_hal_rtc_ex.c ****   * @retval HAL status
1510:Drivers/STM32WBxx_HAL_Driver/Src/stm32wbxx_hal_rtc_ex.c ****   */
1511:Drivers/STM32WBxx_HAL_Driver/Src/stm32wbxx_hal_rtc_ex.c **** HAL_StatusTypeDef HAL_RTCEx_PollForWakeUpTimerEvent(RTC_HandleTypeDef *hrtc, uint32_t Timeout)
1512:Drivers/STM32WBxx_HAL_Driver/Src/stm32wbxx_hal_rtc_ex.c **** {
 2662              		.loc 1 1512 1 is_stmt 1 view -0
 2663              		.cfi_startproc
 2664              		@ args = 0, pretend = 0, frame = 0
 2665              		@ frame_needed = 0, uses_anonymous_args = 0
 2666              		.loc 1 1512 1 is_stmt 0 view .LVU933
 2667 0000 70B5     		push	{r4, r5, r6, lr}
 2668              		.cfi_def_cfa_offset 16
 2669              		.cfi_offset 4, -16
 2670              		.cfi_offset 5, -12
 2671              		.cfi_offset 6, -8
 2672              		.cfi_offset 14, -4
 2673 0002 0446     		mov	r4, r0
 2674 0004 0D46     		mov	r5, r1
1513:Drivers/STM32WBxx_HAL_Driver/Src/stm32wbxx_hal_rtc_ex.c ****   uint32_t tickstart = 0U;
 2675              		.loc 1 1513 3 is_stmt 1 view .LVU934
 2676              	.LVL178:
1514:Drivers/STM32WBxx_HAL_Driver/Src/stm32wbxx_hal_rtc_ex.c **** 
1515:Drivers/STM32WBxx_HAL_Driver/Src/stm32wbxx_hal_rtc_ex.c ****   /* Get tick */
1516:Drivers/STM32WBxx_HAL_Driver/Src/stm32wbxx_hal_rtc_ex.c ****   tickstart = HAL_GetTick();
ARM GAS  C:\Users\Nathan\AppData\Local\Temp\ccWT97xY.s 			page 77


 2677              		.loc 1 1516 3 view .LVU935
 2678              		.loc 1 1516 15 is_stmt 0 view .LVU936
 2679 0006 FFF7FEFF 		bl	HAL_GetTick
 2680              	.LVL179:
 2681              		.loc 1 1516 15 view .LVU937
 2682 000a 0646     		mov	r6, r0
 2683              	.LVL180:
1517:Drivers/STM32WBxx_HAL_Driver/Src/stm32wbxx_hal_rtc_ex.c **** 
1518:Drivers/STM32WBxx_HAL_Driver/Src/stm32wbxx_hal_rtc_ex.c ****   while (__HAL_RTC_WAKEUPTIMER_GET_FLAG(hrtc, RTC_FLAG_WUTF) == 0U)
 2684              		.loc 1 1518 3 is_stmt 1 view .LVU938
 2685              	.L182:
 2686              		.loc 1 1518 62 view .LVU939
 2687              		.loc 1 1518 10 is_stmt 0 view .LVU940
 2688 000c 2368     		ldr	r3, [r4]
 2689 000e DA68     		ldr	r2, [r3, #12]
 2690              		.loc 1 1518 62 view .LVU941
 2691 0010 12F4806F 		tst	r2, #1024
 2692 0014 0CD1     		bne	.L187
1519:Drivers/STM32WBxx_HAL_Driver/Src/stm32wbxx_hal_rtc_ex.c ****   {
1520:Drivers/STM32WBxx_HAL_Driver/Src/stm32wbxx_hal_rtc_ex.c ****     if (Timeout != HAL_MAX_DELAY)
 2693              		.loc 1 1520 5 is_stmt 1 view .LVU942
 2694              		.loc 1 1520 8 is_stmt 0 view .LVU943
 2695 0016 B5F1FF3F 		cmp	r5, #-1
 2696 001a F7D0     		beq	.L182
1521:Drivers/STM32WBxx_HAL_Driver/Src/stm32wbxx_hal_rtc_ex.c ****     {
1522:Drivers/STM32WBxx_HAL_Driver/Src/stm32wbxx_hal_rtc_ex.c ****       if ((Timeout == 0U) || ((HAL_GetTick() - tickstart) > Timeout))
 2697              		.loc 1 1522 7 is_stmt 1 view .LVU944
 2698              		.loc 1 1522 10 is_stmt 0 view .LVU945
 2699 001c 25B1     		cbz	r5, .L183
 2700              		.loc 1 1522 32 discriminator 1 view .LVU946
 2701 001e FFF7FEFF 		bl	HAL_GetTick
 2702              	.LVL181:
 2703              		.loc 1 1522 46 discriminator 1 view .LVU947
 2704 0022 801B     		subs	r0, r0, r6
 2705              		.loc 1 1522 27 discriminator 1 view .LVU948
 2706 0024 A842     		cmp	r0, r5
 2707 0026 F1D9     		bls	.L182
 2708              	.L183:
1523:Drivers/STM32WBxx_HAL_Driver/Src/stm32wbxx_hal_rtc_ex.c ****       {
1524:Drivers/STM32WBxx_HAL_Driver/Src/stm32wbxx_hal_rtc_ex.c ****         hrtc->State = HAL_RTC_STATE_TIMEOUT;
 2709              		.loc 1 1524 9 is_stmt 1 view .LVU949
 2710              		.loc 1 1524 21 is_stmt 0 view .LVU950
 2711 0028 0320     		movs	r0, #3
 2712 002a 84F82100 		strb	r0, [r4, #33]
1525:Drivers/STM32WBxx_HAL_Driver/Src/stm32wbxx_hal_rtc_ex.c ****         return HAL_TIMEOUT;
 2713              		.loc 1 1525 9 is_stmt 1 view .LVU951
 2714              		.loc 1 1525 16 is_stmt 0 view .LVU952
 2715 002e 08E0     		b	.L184
 2716              	.L187:
1526:Drivers/STM32WBxx_HAL_Driver/Src/stm32wbxx_hal_rtc_ex.c ****       }
1527:Drivers/STM32WBxx_HAL_Driver/Src/stm32wbxx_hal_rtc_ex.c ****     }
1528:Drivers/STM32WBxx_HAL_Driver/Src/stm32wbxx_hal_rtc_ex.c ****   }
1529:Drivers/STM32WBxx_HAL_Driver/Src/stm32wbxx_hal_rtc_ex.c **** 
1530:Drivers/STM32WBxx_HAL_Driver/Src/stm32wbxx_hal_rtc_ex.c ****   /* Clear the Wakeup timer Flag */
1531:Drivers/STM32WBxx_HAL_Driver/Src/stm32wbxx_hal_rtc_ex.c ****   __HAL_RTC_WAKEUPTIMER_CLEAR_FLAG(hrtc, RTC_FLAG_WUTF);
 2717              		.loc 1 1531 3 is_stmt 1 view .LVU953
 2718 0030 DA68     		ldr	r2, [r3, #12]
ARM GAS  C:\Users\Nathan\AppData\Local\Temp\ccWT97xY.s 			page 78


 2719 0032 D2B2     		uxtb	r2, r2
 2720 0034 62F49062 		orn	r2, r2, #1152
 2721 0038 DA60     		str	r2, [r3, #12]
1532:Drivers/STM32WBxx_HAL_Driver/Src/stm32wbxx_hal_rtc_ex.c **** 
1533:Drivers/STM32WBxx_HAL_Driver/Src/stm32wbxx_hal_rtc_ex.c ****   /* Change RTC state */
1534:Drivers/STM32WBxx_HAL_Driver/Src/stm32wbxx_hal_rtc_ex.c ****   hrtc->State = HAL_RTC_STATE_READY;
 2722              		.loc 1 1534 3 view .LVU954
 2723              		.loc 1 1534 15 is_stmt 0 view .LVU955
 2724 003a 0123     		movs	r3, #1
 2725 003c 84F82130 		strb	r3, [r4, #33]
1535:Drivers/STM32WBxx_HAL_Driver/Src/stm32wbxx_hal_rtc_ex.c **** 
1536:Drivers/STM32WBxx_HAL_Driver/Src/stm32wbxx_hal_rtc_ex.c ****   return HAL_OK;
 2726              		.loc 1 1536 3 is_stmt 1 view .LVU956
 2727              		.loc 1 1536 10 is_stmt 0 view .LVU957
 2728 0040 0020     		movs	r0, #0
 2729              	.L184:
1537:Drivers/STM32WBxx_HAL_Driver/Src/stm32wbxx_hal_rtc_ex.c **** }
 2730              		.loc 1 1537 1 view .LVU958
 2731 0042 70BD     		pop	{r4, r5, r6, pc}
 2732              		.loc 1 1537 1 view .LVU959
 2733              		.cfi_endproc
 2734              	.LFE1128:
 2736              		.section	.text.HAL_RTCEx_BKUPWrite,"ax",%progbits
 2737              		.align	1
 2738              		.global	HAL_RTCEx_BKUPWrite
 2739              		.syntax unified
 2740              		.thumb
 2741              		.thumb_func
 2743              	HAL_RTCEx_BKUPWrite:
 2744              	.LVL182:
 2745              	.LFB1129:
1538:Drivers/STM32WBxx_HAL_Driver/Src/stm32wbxx_hal_rtc_ex.c **** 
1539:Drivers/STM32WBxx_HAL_Driver/Src/stm32wbxx_hal_rtc_ex.c **** /**
1540:Drivers/STM32WBxx_HAL_Driver/Src/stm32wbxx_hal_rtc_ex.c ****   * @}
1541:Drivers/STM32WBxx_HAL_Driver/Src/stm32wbxx_hal_rtc_ex.c ****   */
1542:Drivers/STM32WBxx_HAL_Driver/Src/stm32wbxx_hal_rtc_ex.c **** 
1543:Drivers/STM32WBxx_HAL_Driver/Src/stm32wbxx_hal_rtc_ex.c **** /** @defgroup RTCEx_Exported_Functions_Group3 Extended Peripheral Control functions
1544:Drivers/STM32WBxx_HAL_Driver/Src/stm32wbxx_hal_rtc_ex.c ****   * @brief    Extended Peripheral Control functions
1545:Drivers/STM32WBxx_HAL_Driver/Src/stm32wbxx_hal_rtc_ex.c ****   *
1546:Drivers/STM32WBxx_HAL_Driver/Src/stm32wbxx_hal_rtc_ex.c **** @verbatim
1547:Drivers/STM32WBxx_HAL_Driver/Src/stm32wbxx_hal_rtc_ex.c ****  ===============================================================================
1548:Drivers/STM32WBxx_HAL_Driver/Src/stm32wbxx_hal_rtc_ex.c ****               ##### Extended Peripheral Control functions #####
1549:Drivers/STM32WBxx_HAL_Driver/Src/stm32wbxx_hal_rtc_ex.c ****  ===============================================================================
1550:Drivers/STM32WBxx_HAL_Driver/Src/stm32wbxx_hal_rtc_ex.c ****     [..]
1551:Drivers/STM32WBxx_HAL_Driver/Src/stm32wbxx_hal_rtc_ex.c ****     This subsection provides functions allowing to
1552:Drivers/STM32WBxx_HAL_Driver/Src/stm32wbxx_hal_rtc_ex.c ****       (+) Write a data in a specified RTC Backup data register
1553:Drivers/STM32WBxx_HAL_Driver/Src/stm32wbxx_hal_rtc_ex.c ****       (+) Read a data in a specified RTC Backup data register
1554:Drivers/STM32WBxx_HAL_Driver/Src/stm32wbxx_hal_rtc_ex.c ****       (+) Set the Smooth calibration parameters.
1555:Drivers/STM32WBxx_HAL_Driver/Src/stm32wbxx_hal_rtc_ex.c ****       (+) Configure the Synchronization Shift Control Settings.
1556:Drivers/STM32WBxx_HAL_Driver/Src/stm32wbxx_hal_rtc_ex.c ****       (+) Configure the Calibration Pinout (RTC_CALIB) Selection (1Hz or 512Hz).
1557:Drivers/STM32WBxx_HAL_Driver/Src/stm32wbxx_hal_rtc_ex.c ****       (+) Deactivate the Calibration Pinout (RTC_CALIB) Selection (1Hz or 512Hz).
1558:Drivers/STM32WBxx_HAL_Driver/Src/stm32wbxx_hal_rtc_ex.c ****       (+) Enable the RTC reference clock detection.
1559:Drivers/STM32WBxx_HAL_Driver/Src/stm32wbxx_hal_rtc_ex.c ****       (+) Disable the RTC reference clock detection.
1560:Drivers/STM32WBxx_HAL_Driver/Src/stm32wbxx_hal_rtc_ex.c ****       (+) Enable the Bypass Shadow feature.
1561:Drivers/STM32WBxx_HAL_Driver/Src/stm32wbxx_hal_rtc_ex.c ****       (+) Disable the Bypass Shadow feature.
1562:Drivers/STM32WBxx_HAL_Driver/Src/stm32wbxx_hal_rtc_ex.c **** 
1563:Drivers/STM32WBxx_HAL_Driver/Src/stm32wbxx_hal_rtc_ex.c **** @endverbatim
ARM GAS  C:\Users\Nathan\AppData\Local\Temp\ccWT97xY.s 			page 79


1564:Drivers/STM32WBxx_HAL_Driver/Src/stm32wbxx_hal_rtc_ex.c ****   * @{
1565:Drivers/STM32WBxx_HAL_Driver/Src/stm32wbxx_hal_rtc_ex.c ****   */
1566:Drivers/STM32WBxx_HAL_Driver/Src/stm32wbxx_hal_rtc_ex.c **** 
1567:Drivers/STM32WBxx_HAL_Driver/Src/stm32wbxx_hal_rtc_ex.c **** /**
1568:Drivers/STM32WBxx_HAL_Driver/Src/stm32wbxx_hal_rtc_ex.c ****   * @brief  Writes a data in a specified RTC Backup data register.
1569:Drivers/STM32WBxx_HAL_Driver/Src/stm32wbxx_hal_rtc_ex.c ****   * @param  hrtc pointer to a RTC_HandleTypeDef structure that contains
1570:Drivers/STM32WBxx_HAL_Driver/Src/stm32wbxx_hal_rtc_ex.c ****   *                the configuration information for RTC.
1571:Drivers/STM32WBxx_HAL_Driver/Src/stm32wbxx_hal_rtc_ex.c ****   * @param  BackupRegister RTC Backup data Register number.
1572:Drivers/STM32WBxx_HAL_Driver/Src/stm32wbxx_hal_rtc_ex.c ****   *          This parameter can be: RTC_BKP_DRx (where x can be from 0 to 19)
1573:Drivers/STM32WBxx_HAL_Driver/Src/stm32wbxx_hal_rtc_ex.c ****   *                                 to specify the register.
1574:Drivers/STM32WBxx_HAL_Driver/Src/stm32wbxx_hal_rtc_ex.c ****   * @param  Data Data to be written in the specified RTC Backup data register.
1575:Drivers/STM32WBxx_HAL_Driver/Src/stm32wbxx_hal_rtc_ex.c ****   * @retval None
1576:Drivers/STM32WBxx_HAL_Driver/Src/stm32wbxx_hal_rtc_ex.c ****   */
1577:Drivers/STM32WBxx_HAL_Driver/Src/stm32wbxx_hal_rtc_ex.c **** void HAL_RTCEx_BKUPWrite(RTC_HandleTypeDef *hrtc, uint32_t BackupRegister, uint32_t Data)
1578:Drivers/STM32WBxx_HAL_Driver/Src/stm32wbxx_hal_rtc_ex.c **** {
 2746              		.loc 1 1578 1 is_stmt 1 view -0
 2747              		.cfi_startproc
 2748              		@ args = 0, pretend = 0, frame = 0
 2749              		@ frame_needed = 0, uses_anonymous_args = 0
 2750              		@ link register save eliminated.
1579:Drivers/STM32WBxx_HAL_Driver/Src/stm32wbxx_hal_rtc_ex.c ****   uint32_t tmp = 0U;
 2751              		.loc 1 1579 3 view .LVU961
1580:Drivers/STM32WBxx_HAL_Driver/Src/stm32wbxx_hal_rtc_ex.c **** 
1581:Drivers/STM32WBxx_HAL_Driver/Src/stm32wbxx_hal_rtc_ex.c ****   /* Check the parameters */
1582:Drivers/STM32WBxx_HAL_Driver/Src/stm32wbxx_hal_rtc_ex.c ****   assert_param(IS_RTC_BKP(BackupRegister));
 2752              		.loc 1 1582 3 view .LVU962
1583:Drivers/STM32WBxx_HAL_Driver/Src/stm32wbxx_hal_rtc_ex.c **** 
1584:Drivers/STM32WBxx_HAL_Driver/Src/stm32wbxx_hal_rtc_ex.c ****   tmp = (uint32_t) &(hrtc->Instance->BKP0R);
 2753              		.loc 1 1584 3 view .LVU963
 2754              		.loc 1 1584 26 is_stmt 0 view .LVU964
 2755 0000 0368     		ldr	r3, [r0]
 2756              		.loc 1 1584 20 view .LVU965
 2757 0002 5033     		adds	r3, r3, #80
 2758              	.LVL183:
1585:Drivers/STM32WBxx_HAL_Driver/Src/stm32wbxx_hal_rtc_ex.c ****   tmp += (BackupRegister * 4U);
 2759              		.loc 1 1585 3 is_stmt 1 view .LVU966
1586:Drivers/STM32WBxx_HAL_Driver/Src/stm32wbxx_hal_rtc_ex.c **** 
1587:Drivers/STM32WBxx_HAL_Driver/Src/stm32wbxx_hal_rtc_ex.c ****   /* Write the specified register */
1588:Drivers/STM32WBxx_HAL_Driver/Src/stm32wbxx_hal_rtc_ex.c ****   *(__IO uint32_t *)tmp = (uint32_t)Data;
 2760              		.loc 1 1588 3 view .LVU967
 2761              		.loc 1 1588 25 is_stmt 0 view .LVU968
 2762 0004 43F82120 		str	r2, [r3, r1, lsl #2]
1589:Drivers/STM32WBxx_HAL_Driver/Src/stm32wbxx_hal_rtc_ex.c **** }
 2763              		.loc 1 1589 1 view .LVU969
 2764 0008 7047     		bx	lr
 2765              		.cfi_endproc
 2766              	.LFE1129:
 2768              		.section	.text.HAL_RTCEx_BKUPRead,"ax",%progbits
 2769              		.align	1
 2770              		.global	HAL_RTCEx_BKUPRead
 2771              		.syntax unified
 2772              		.thumb
 2773              		.thumb_func
 2775              	HAL_RTCEx_BKUPRead:
 2776              	.LVL184:
 2777              	.LFB1130:
1590:Drivers/STM32WBxx_HAL_Driver/Src/stm32wbxx_hal_rtc_ex.c **** 
ARM GAS  C:\Users\Nathan\AppData\Local\Temp\ccWT97xY.s 			page 80


1591:Drivers/STM32WBxx_HAL_Driver/Src/stm32wbxx_hal_rtc_ex.c **** /**
1592:Drivers/STM32WBxx_HAL_Driver/Src/stm32wbxx_hal_rtc_ex.c ****   * @brief  Reads data from the specified RTC Backup data Register.
1593:Drivers/STM32WBxx_HAL_Driver/Src/stm32wbxx_hal_rtc_ex.c ****   * @param  hrtc pointer to a RTC_HandleTypeDef structure that contains
1594:Drivers/STM32WBxx_HAL_Driver/Src/stm32wbxx_hal_rtc_ex.c ****   *                the configuration information for RTC.
1595:Drivers/STM32WBxx_HAL_Driver/Src/stm32wbxx_hal_rtc_ex.c ****   * @param  BackupRegister RTC Backup data Register number.
1596:Drivers/STM32WBxx_HAL_Driver/Src/stm32wbxx_hal_rtc_ex.c ****   *          This parameter can be: RTC_BKP_DRx (where x can be from 0 to 19)
1597:Drivers/STM32WBxx_HAL_Driver/Src/stm32wbxx_hal_rtc_ex.c ****   *                                 to specify the register.
1598:Drivers/STM32WBxx_HAL_Driver/Src/stm32wbxx_hal_rtc_ex.c ****   * @retval Read value
1599:Drivers/STM32WBxx_HAL_Driver/Src/stm32wbxx_hal_rtc_ex.c ****   */
1600:Drivers/STM32WBxx_HAL_Driver/Src/stm32wbxx_hal_rtc_ex.c **** uint32_t HAL_RTCEx_BKUPRead(RTC_HandleTypeDef *hrtc, uint32_t BackupRegister)
1601:Drivers/STM32WBxx_HAL_Driver/Src/stm32wbxx_hal_rtc_ex.c **** {
 2778              		.loc 1 1601 1 is_stmt 1 view -0
 2779              		.cfi_startproc
 2780              		@ args = 0, pretend = 0, frame = 0
 2781              		@ frame_needed = 0, uses_anonymous_args = 0
 2782              		@ link register save eliminated.
1602:Drivers/STM32WBxx_HAL_Driver/Src/stm32wbxx_hal_rtc_ex.c ****   uint32_t tmp = 0U;
 2783              		.loc 1 1602 3 view .LVU971
1603:Drivers/STM32WBxx_HAL_Driver/Src/stm32wbxx_hal_rtc_ex.c **** 
1604:Drivers/STM32WBxx_HAL_Driver/Src/stm32wbxx_hal_rtc_ex.c ****   /* Check the parameters */
1605:Drivers/STM32WBxx_HAL_Driver/Src/stm32wbxx_hal_rtc_ex.c ****   assert_param(IS_RTC_BKP(BackupRegister));
 2784              		.loc 1 1605 3 view .LVU972
1606:Drivers/STM32WBxx_HAL_Driver/Src/stm32wbxx_hal_rtc_ex.c **** 
1607:Drivers/STM32WBxx_HAL_Driver/Src/stm32wbxx_hal_rtc_ex.c ****   tmp = (uint32_t) &(hrtc->Instance->BKP0R);
 2785              		.loc 1 1607 3 view .LVU973
 2786              		.loc 1 1607 26 is_stmt 0 view .LVU974
 2787 0000 0368     		ldr	r3, [r0]
 2788              		.loc 1 1607 20 view .LVU975
 2789 0002 5033     		adds	r3, r3, #80
 2790              	.LVL185:
1608:Drivers/STM32WBxx_HAL_Driver/Src/stm32wbxx_hal_rtc_ex.c ****   tmp += (BackupRegister * 4U);
 2791              		.loc 1 1608 3 is_stmt 1 view .LVU976
1609:Drivers/STM32WBxx_HAL_Driver/Src/stm32wbxx_hal_rtc_ex.c **** 
1610:Drivers/STM32WBxx_HAL_Driver/Src/stm32wbxx_hal_rtc_ex.c ****   /* Read the specified register */
1611:Drivers/STM32WBxx_HAL_Driver/Src/stm32wbxx_hal_rtc_ex.c ****   return (*(__IO uint32_t *)tmp);
 2792              		.loc 1 1611 3 view .LVU977
 2793              		.loc 1 1611 11 is_stmt 0 view .LVU978
 2794 0004 53F82100 		ldr	r0, [r3, r1, lsl #2]
 2795              	.LVL186:
1612:Drivers/STM32WBxx_HAL_Driver/Src/stm32wbxx_hal_rtc_ex.c **** }
 2796              		.loc 1 1612 1 view .LVU979
 2797 0008 7047     		bx	lr
 2798              		.cfi_endproc
 2799              	.LFE1130:
 2801              		.section	.text.HAL_RTCEx_SetSmoothCalib,"ax",%progbits
 2802              		.align	1
 2803              		.global	HAL_RTCEx_SetSmoothCalib
 2804              		.syntax unified
 2805              		.thumb
 2806              		.thumb_func
 2808              	HAL_RTCEx_SetSmoothCalib:
 2809              	.LVL187:
 2810              	.LFB1131:
1613:Drivers/STM32WBxx_HAL_Driver/Src/stm32wbxx_hal_rtc_ex.c **** 
1614:Drivers/STM32WBxx_HAL_Driver/Src/stm32wbxx_hal_rtc_ex.c **** /**
1615:Drivers/STM32WBxx_HAL_Driver/Src/stm32wbxx_hal_rtc_ex.c ****   * @brief  Sets the Smooth calibration parameters.
1616:Drivers/STM32WBxx_HAL_Driver/Src/stm32wbxx_hal_rtc_ex.c ****   * @param  hrtc pointer to a RTC_HandleTypeDef structure that contains
ARM GAS  C:\Users\Nathan\AppData\Local\Temp\ccWT97xY.s 			page 81


1617:Drivers/STM32WBxx_HAL_Driver/Src/stm32wbxx_hal_rtc_ex.c ****   *                the configuration information for RTC.
1618:Drivers/STM32WBxx_HAL_Driver/Src/stm32wbxx_hal_rtc_ex.c ****   * @param  SmoothCalibPeriod Select the Smooth Calibration Period.
1619:Drivers/STM32WBxx_HAL_Driver/Src/stm32wbxx_hal_rtc_ex.c ****   *          This parameter can be can be one of the following values:
1620:Drivers/STM32WBxx_HAL_Driver/Src/stm32wbxx_hal_rtc_ex.c ****   *             @arg RTC_SMOOTHCALIB_PERIOD_32SEC: The smooth calibration period is 32s.
1621:Drivers/STM32WBxx_HAL_Driver/Src/stm32wbxx_hal_rtc_ex.c ****   *             @arg RTC_SMOOTHCALIB_PERIOD_16SEC: The smooth calibration period is 16s.
1622:Drivers/STM32WBxx_HAL_Driver/Src/stm32wbxx_hal_rtc_ex.c ****   *             @arg RTC_SMOOTHCALIB_PERIOD_8SEC: The smooth calibration period is 8s.
1623:Drivers/STM32WBxx_HAL_Driver/Src/stm32wbxx_hal_rtc_ex.c ****   * @param  SmoothCalibPlusPulses Select to Set or reset the CALP bit.
1624:Drivers/STM32WBxx_HAL_Driver/Src/stm32wbxx_hal_rtc_ex.c ****   *          This parameter can be one of the following values:
1625:Drivers/STM32WBxx_HAL_Driver/Src/stm32wbxx_hal_rtc_ex.c ****   *             @arg RTC_SMOOTHCALIB_PLUSPULSES_SET: Add one RTCCLK pulse every 2*11 pulses.
1626:Drivers/STM32WBxx_HAL_Driver/Src/stm32wbxx_hal_rtc_ex.c ****   *             @arg RTC_SMOOTHCALIB_PLUSPULSES_RESET: No RTCCLK pulses are added.
1627:Drivers/STM32WBxx_HAL_Driver/Src/stm32wbxx_hal_rtc_ex.c ****   * @param  SmoothCalibMinusPulsesValue Select the value of CALM[8:0] bits.
1628:Drivers/STM32WBxx_HAL_Driver/Src/stm32wbxx_hal_rtc_ex.c ****   *          This parameter can be one any value from 0 to 0x000001FF.
1629:Drivers/STM32WBxx_HAL_Driver/Src/stm32wbxx_hal_rtc_ex.c ****   * @note   To deactivate the smooth calibration, the field SmoothCalibPlusPulses
1630:Drivers/STM32WBxx_HAL_Driver/Src/stm32wbxx_hal_rtc_ex.c ****   *         must be equal to SMOOTHCALIB_PLUSPULSES_RESET and the field
1631:Drivers/STM32WBxx_HAL_Driver/Src/stm32wbxx_hal_rtc_ex.c ****   *         SmoothCalibMinusPulsesValue must be equal to 0.
1632:Drivers/STM32WBxx_HAL_Driver/Src/stm32wbxx_hal_rtc_ex.c ****   * @retval HAL status
1633:Drivers/STM32WBxx_HAL_Driver/Src/stm32wbxx_hal_rtc_ex.c ****   */
1634:Drivers/STM32WBxx_HAL_Driver/Src/stm32wbxx_hal_rtc_ex.c **** HAL_StatusTypeDef HAL_RTCEx_SetSmoothCalib(RTC_HandleTypeDef *hrtc, uint32_t SmoothCalibPeriod, uin
1635:Drivers/STM32WBxx_HAL_Driver/Src/stm32wbxx_hal_rtc_ex.c **** {
 2811              		.loc 1 1635 1 is_stmt 1 view -0
 2812              		.cfi_startproc
 2813              		@ args = 0, pretend = 0, frame = 0
 2814              		@ frame_needed = 0, uses_anonymous_args = 0
 2815              		.loc 1 1635 1 is_stmt 0 view .LVU981
 2816 0000 2DE9F041 		push	{r4, r5, r6, r7, r8, lr}
 2817              		.cfi_def_cfa_offset 24
 2818              		.cfi_offset 4, -24
 2819              		.cfi_offset 5, -20
 2820              		.cfi_offset 6, -16
 2821              		.cfi_offset 7, -12
 2822              		.cfi_offset 8, -8
 2823              		.cfi_offset 14, -4
 2824 0004 1E46     		mov	r6, r3
1636:Drivers/STM32WBxx_HAL_Driver/Src/stm32wbxx_hal_rtc_ex.c ****   uint32_t tickstart = 0U;
 2825              		.loc 1 1636 3 is_stmt 1 view .LVU982
 2826              	.LVL188:
1637:Drivers/STM32WBxx_HAL_Driver/Src/stm32wbxx_hal_rtc_ex.c **** 
1638:Drivers/STM32WBxx_HAL_Driver/Src/stm32wbxx_hal_rtc_ex.c ****   /* Check the parameters */
1639:Drivers/STM32WBxx_HAL_Driver/Src/stm32wbxx_hal_rtc_ex.c ****   assert_param(IS_RTC_SMOOTH_CALIB_PERIOD(SmoothCalibPeriod));
 2827              		.loc 1 1639 3 view .LVU983
1640:Drivers/STM32WBxx_HAL_Driver/Src/stm32wbxx_hal_rtc_ex.c ****   assert_param(IS_RTC_SMOOTH_CALIB_PLUS(SmoothCalibPlusPulses));
 2828              		.loc 1 1640 3 view .LVU984
1641:Drivers/STM32WBxx_HAL_Driver/Src/stm32wbxx_hal_rtc_ex.c ****   assert_param(IS_RTC_SMOOTH_CALIB_MINUS(SmoothCalibMinusPulsesValue));
 2829              		.loc 1 1641 3 view .LVU985
1642:Drivers/STM32WBxx_HAL_Driver/Src/stm32wbxx_hal_rtc_ex.c **** 
1643:Drivers/STM32WBxx_HAL_Driver/Src/stm32wbxx_hal_rtc_ex.c ****   /* Process Locked */
1644:Drivers/STM32WBxx_HAL_Driver/Src/stm32wbxx_hal_rtc_ex.c ****   __HAL_LOCK(hrtc);
 2830              		.loc 1 1644 3 view .LVU986
 2831              		.loc 1 1644 3 view .LVU987
 2832 0006 90F82030 		ldrb	r3, [r0, #32]	@ zero_extendqisi2
 2833              	.LVL189:
 2834              		.loc 1 1644 3 is_stmt 0 view .LVU988
 2835 000a 012B     		cmp	r3, #1
 2836 000c 3BD0     		beq	.L195
 2837 000e 0446     		mov	r4, r0
 2838 0010 0D46     		mov	r5, r1
 2839 0012 1746     		mov	r7, r2
ARM GAS  C:\Users\Nathan\AppData\Local\Temp\ccWT97xY.s 			page 82


 2840              		.loc 1 1644 3 is_stmt 1 discriminator 2 view .LVU989
 2841 0014 0123     		movs	r3, #1
 2842 0016 80F82030 		strb	r3, [r0, #32]
 2843              		.loc 1 1644 3 discriminator 2 view .LVU990
1645:Drivers/STM32WBxx_HAL_Driver/Src/stm32wbxx_hal_rtc_ex.c **** 
1646:Drivers/STM32WBxx_HAL_Driver/Src/stm32wbxx_hal_rtc_ex.c ****   hrtc->State = HAL_RTC_STATE_BUSY;
 2844              		.loc 1 1646 3 view .LVU991
 2845              		.loc 1 1646 15 is_stmt 0 view .LVU992
 2846 001a 0223     		movs	r3, #2
 2847 001c 80F82130 		strb	r3, [r0, #33]
1647:Drivers/STM32WBxx_HAL_Driver/Src/stm32wbxx_hal_rtc_ex.c **** 
1648:Drivers/STM32WBxx_HAL_Driver/Src/stm32wbxx_hal_rtc_ex.c ****   /* Disable the write protection for RTC registers */
1649:Drivers/STM32WBxx_HAL_Driver/Src/stm32wbxx_hal_rtc_ex.c ****   __HAL_RTC_WRITEPROTECTION_DISABLE(hrtc);
 2848              		.loc 1 1649 3 is_stmt 1 view .LVU993
 2849              		.loc 1 1649 3 view .LVU994
 2850 0020 0368     		ldr	r3, [r0]
 2851 0022 CA22     		movs	r2, #202
 2852              	.LVL190:
 2853              		.loc 1 1649 3 is_stmt 0 view .LVU995
 2854 0024 5A62     		str	r2, [r3, #36]
 2855              		.loc 1 1649 3 is_stmt 1 view .LVU996
 2856 0026 0368     		ldr	r3, [r0]
 2857 0028 5322     		movs	r2, #83
 2858 002a 5A62     		str	r2, [r3, #36]
 2859              		.loc 1 1649 3 view .LVU997
1650:Drivers/STM32WBxx_HAL_Driver/Src/stm32wbxx_hal_rtc_ex.c **** 
1651:Drivers/STM32WBxx_HAL_Driver/Src/stm32wbxx_hal_rtc_ex.c ****   /* check if a calibration is pending*/
1652:Drivers/STM32WBxx_HAL_Driver/Src/stm32wbxx_hal_rtc_ex.c ****   if ((hrtc->Instance->ISR & RTC_ISR_RECALPF) != 0U)
 2860              		.loc 1 1652 3 view .LVU998
 2861              		.loc 1 1652 12 is_stmt 0 view .LVU999
 2862 002c 0368     		ldr	r3, [r0]
 2863              		.loc 1 1652 22 view .LVU1000
 2864 002e DB68     		ldr	r3, [r3, #12]
 2865              		.loc 1 1652 6 view .LVU1001
 2866 0030 13F4803F 		tst	r3, #65536
 2867 0034 0ED1     		bne	.L197
 2868              	.LVL191:
 2869              	.L192:
1653:Drivers/STM32WBxx_HAL_Driver/Src/stm32wbxx_hal_rtc_ex.c ****   {
1654:Drivers/STM32WBxx_HAL_Driver/Src/stm32wbxx_hal_rtc_ex.c ****     /* Get tick */
1655:Drivers/STM32WBxx_HAL_Driver/Src/stm32wbxx_hal_rtc_ex.c ****     tickstart = HAL_GetTick();
1656:Drivers/STM32WBxx_HAL_Driver/Src/stm32wbxx_hal_rtc_ex.c **** 
1657:Drivers/STM32WBxx_HAL_Driver/Src/stm32wbxx_hal_rtc_ex.c ****     /* check if a calibration is pending*/
1658:Drivers/STM32WBxx_HAL_Driver/Src/stm32wbxx_hal_rtc_ex.c ****     while ((hrtc->Instance->ISR & RTC_ISR_RECALPF) != 0U)
1659:Drivers/STM32WBxx_HAL_Driver/Src/stm32wbxx_hal_rtc_ex.c ****     {
1660:Drivers/STM32WBxx_HAL_Driver/Src/stm32wbxx_hal_rtc_ex.c ****       if ((HAL_GetTick() - tickstart) > RTC_TIMEOUT_VALUE)
1661:Drivers/STM32WBxx_HAL_Driver/Src/stm32wbxx_hal_rtc_ex.c ****       {
1662:Drivers/STM32WBxx_HAL_Driver/Src/stm32wbxx_hal_rtc_ex.c ****         /* Enable the write protection for RTC registers */
1663:Drivers/STM32WBxx_HAL_Driver/Src/stm32wbxx_hal_rtc_ex.c ****         __HAL_RTC_WRITEPROTECTION_ENABLE(hrtc);
1664:Drivers/STM32WBxx_HAL_Driver/Src/stm32wbxx_hal_rtc_ex.c **** 
1665:Drivers/STM32WBxx_HAL_Driver/Src/stm32wbxx_hal_rtc_ex.c ****         /* Change RTC state */
1666:Drivers/STM32WBxx_HAL_Driver/Src/stm32wbxx_hal_rtc_ex.c ****         hrtc->State = HAL_RTC_STATE_TIMEOUT;
1667:Drivers/STM32WBxx_HAL_Driver/Src/stm32wbxx_hal_rtc_ex.c **** 
1668:Drivers/STM32WBxx_HAL_Driver/Src/stm32wbxx_hal_rtc_ex.c ****         /* Process Unlocked */
1669:Drivers/STM32WBxx_HAL_Driver/Src/stm32wbxx_hal_rtc_ex.c ****         __HAL_UNLOCK(hrtc);
1670:Drivers/STM32WBxx_HAL_Driver/Src/stm32wbxx_hal_rtc_ex.c **** 
1671:Drivers/STM32WBxx_HAL_Driver/Src/stm32wbxx_hal_rtc_ex.c ****         return HAL_TIMEOUT;
ARM GAS  C:\Users\Nathan\AppData\Local\Temp\ccWT97xY.s 			page 83


1672:Drivers/STM32WBxx_HAL_Driver/Src/stm32wbxx_hal_rtc_ex.c ****       }
1673:Drivers/STM32WBxx_HAL_Driver/Src/stm32wbxx_hal_rtc_ex.c ****     }
1674:Drivers/STM32WBxx_HAL_Driver/Src/stm32wbxx_hal_rtc_ex.c ****   }
1675:Drivers/STM32WBxx_HAL_Driver/Src/stm32wbxx_hal_rtc_ex.c **** 
1676:Drivers/STM32WBxx_HAL_Driver/Src/stm32wbxx_hal_rtc_ex.c ****   /* Configure the Smooth calibration settings */
1677:Drivers/STM32WBxx_HAL_Driver/Src/stm32wbxx_hal_rtc_ex.c ****   hrtc->Instance->CALR = (uint32_t)((uint32_t)SmoothCalibPeriod     | \
 2870              		.loc 1 1677 3 is_stmt 1 view .LVU1002
 2871              		.loc 1 1677 69 is_stmt 0 view .LVU1003
 2872 0036 3D43     		orrs	r5, r5, r7
 2873              	.LVL192:
 2874              		.loc 1 1677 7 view .LVU1004
 2875 0038 2368     		ldr	r3, [r4]
 2876              		.loc 1 1677 26 view .LVU1005
 2877 003a 3543     		orrs	r5, r5, r6
 2878              		.loc 1 1677 24 view .LVU1006
 2879 003c DD63     		str	r5, [r3, #60]
1678:Drivers/STM32WBxx_HAL_Driver/Src/stm32wbxx_hal_rtc_ex.c ****                                     (uint32_t)SmoothCalibPlusPulses | \
1679:Drivers/STM32WBxx_HAL_Driver/Src/stm32wbxx_hal_rtc_ex.c ****                                     (uint32_t)SmoothCalibMinusPulsesValue);
1680:Drivers/STM32WBxx_HAL_Driver/Src/stm32wbxx_hal_rtc_ex.c **** 
1681:Drivers/STM32WBxx_HAL_Driver/Src/stm32wbxx_hal_rtc_ex.c ****   /* Enable the write protection for RTC registers */
1682:Drivers/STM32WBxx_HAL_Driver/Src/stm32wbxx_hal_rtc_ex.c ****   __HAL_RTC_WRITEPROTECTION_ENABLE(hrtc);
 2880              		.loc 1 1682 3 is_stmt 1 view .LVU1007
 2881              		.loc 1 1682 3 view .LVU1008
 2882 003e 2368     		ldr	r3, [r4]
 2883 0040 FF22     		movs	r2, #255
 2884 0042 5A62     		str	r2, [r3, #36]
 2885              		.loc 1 1682 3 view .LVU1009
1683:Drivers/STM32WBxx_HAL_Driver/Src/stm32wbxx_hal_rtc_ex.c **** 
1684:Drivers/STM32WBxx_HAL_Driver/Src/stm32wbxx_hal_rtc_ex.c ****   /* Change RTC state */
1685:Drivers/STM32WBxx_HAL_Driver/Src/stm32wbxx_hal_rtc_ex.c ****   hrtc->State = HAL_RTC_STATE_READY;
 2886              		.loc 1 1685 3 view .LVU1010
 2887              		.loc 1 1685 15 is_stmt 0 view .LVU1011
 2888 0044 0123     		movs	r3, #1
 2889 0046 84F82130 		strb	r3, [r4, #33]
1686:Drivers/STM32WBxx_HAL_Driver/Src/stm32wbxx_hal_rtc_ex.c **** 
1687:Drivers/STM32WBxx_HAL_Driver/Src/stm32wbxx_hal_rtc_ex.c ****   /* Process Unlocked */
1688:Drivers/STM32WBxx_HAL_Driver/Src/stm32wbxx_hal_rtc_ex.c ****   __HAL_UNLOCK(hrtc);
 2890              		.loc 1 1688 3 is_stmt 1 view .LVU1012
 2891              		.loc 1 1688 3 view .LVU1013
 2892 004a 0020     		movs	r0, #0
 2893 004c 84F82000 		strb	r0, [r4, #32]
 2894              		.loc 1 1688 3 view .LVU1014
1689:Drivers/STM32WBxx_HAL_Driver/Src/stm32wbxx_hal_rtc_ex.c **** 
1690:Drivers/STM32WBxx_HAL_Driver/Src/stm32wbxx_hal_rtc_ex.c ****   return HAL_OK;
 2895              		.loc 1 1690 3 view .LVU1015
 2896              	.LVL193:
 2897              	.L191:
1691:Drivers/STM32WBxx_HAL_Driver/Src/stm32wbxx_hal_rtc_ex.c **** }
 2898              		.loc 1 1691 1 is_stmt 0 view .LVU1016
 2899 0050 BDE8F081 		pop	{r4, r5, r6, r7, r8, pc}
 2900              	.LVL194:
 2901              	.L197:
1655:Drivers/STM32WBxx_HAL_Driver/Src/stm32wbxx_hal_rtc_ex.c **** 
 2902              		.loc 1 1655 5 is_stmt 1 view .LVU1017
1655:Drivers/STM32WBxx_HAL_Driver/Src/stm32wbxx_hal_rtc_ex.c **** 
 2903              		.loc 1 1655 17 is_stmt 0 view .LVU1018
 2904 0054 FFF7FEFF 		bl	HAL_GetTick
ARM GAS  C:\Users\Nathan\AppData\Local\Temp\ccWT97xY.s 			page 84


 2905              	.LVL195:
1655:Drivers/STM32WBxx_HAL_Driver/Src/stm32wbxx_hal_rtc_ex.c **** 
 2906              		.loc 1 1655 17 view .LVU1019
 2907 0058 8046     		mov	r8, r0
 2908              	.LVL196:
1658:Drivers/STM32WBxx_HAL_Driver/Src/stm32wbxx_hal_rtc_ex.c ****     {
 2909              		.loc 1 1658 5 is_stmt 1 view .LVU1020
 2910              	.L193:
1658:Drivers/STM32WBxx_HAL_Driver/Src/stm32wbxx_hal_rtc_ex.c ****     {
 2911              		.loc 1 1658 52 view .LVU1021
1658:Drivers/STM32WBxx_HAL_Driver/Src/stm32wbxx_hal_rtc_ex.c ****     {
 2912              		.loc 1 1658 17 is_stmt 0 view .LVU1022
 2913 005a 2368     		ldr	r3, [r4]
1658:Drivers/STM32WBxx_HAL_Driver/Src/stm32wbxx_hal_rtc_ex.c ****     {
 2914              		.loc 1 1658 27 view .LVU1023
 2915 005c D968     		ldr	r1, [r3, #12]
1658:Drivers/STM32WBxx_HAL_Driver/Src/stm32wbxx_hal_rtc_ex.c ****     {
 2916              		.loc 1 1658 52 view .LVU1024
 2917 005e 11F4803F 		tst	r1, #65536
 2918 0062 E8D0     		beq	.L192
1660:Drivers/STM32WBxx_HAL_Driver/Src/stm32wbxx_hal_rtc_ex.c ****       {
 2919              		.loc 1 1660 7 is_stmt 1 view .LVU1025
1660:Drivers/STM32WBxx_HAL_Driver/Src/stm32wbxx_hal_rtc_ex.c ****       {
 2920              		.loc 1 1660 12 is_stmt 0 view .LVU1026
 2921 0064 FFF7FEFF 		bl	HAL_GetTick
 2922              	.LVL197:
1660:Drivers/STM32WBxx_HAL_Driver/Src/stm32wbxx_hal_rtc_ex.c ****       {
 2923              		.loc 1 1660 26 discriminator 1 view .LVU1027
 2924 0068 A0EB0800 		sub	r0, r0, r8
1660:Drivers/STM32WBxx_HAL_Driver/Src/stm32wbxx_hal_rtc_ex.c ****       {
 2925              		.loc 1 1660 10 discriminator 1 view .LVU1028
 2926 006c B0F57A7F 		cmp	r0, #1000
 2927 0070 F3D9     		bls	.L193
1663:Drivers/STM32WBxx_HAL_Driver/Src/stm32wbxx_hal_rtc_ex.c **** 
 2928              		.loc 1 1663 9 is_stmt 1 view .LVU1029
1663:Drivers/STM32WBxx_HAL_Driver/Src/stm32wbxx_hal_rtc_ex.c **** 
 2929              		.loc 1 1663 9 view .LVU1030
 2930 0072 2368     		ldr	r3, [r4]
 2931 0074 FF22     		movs	r2, #255
 2932 0076 5A62     		str	r2, [r3, #36]
1663:Drivers/STM32WBxx_HAL_Driver/Src/stm32wbxx_hal_rtc_ex.c **** 
 2933              		.loc 1 1663 9 view .LVU1031
1666:Drivers/STM32WBxx_HAL_Driver/Src/stm32wbxx_hal_rtc_ex.c **** 
 2934              		.loc 1 1666 9 view .LVU1032
1666:Drivers/STM32WBxx_HAL_Driver/Src/stm32wbxx_hal_rtc_ex.c **** 
 2935              		.loc 1 1666 21 is_stmt 0 view .LVU1033
 2936 0078 0320     		movs	r0, #3
 2937 007a 84F82100 		strb	r0, [r4, #33]
1669:Drivers/STM32WBxx_HAL_Driver/Src/stm32wbxx_hal_rtc_ex.c **** 
 2938              		.loc 1 1669 9 is_stmt 1 view .LVU1034
1669:Drivers/STM32WBxx_HAL_Driver/Src/stm32wbxx_hal_rtc_ex.c **** 
 2939              		.loc 1 1669 9 view .LVU1035
 2940 007e 0023     		movs	r3, #0
 2941 0080 84F82030 		strb	r3, [r4, #32]
1669:Drivers/STM32WBxx_HAL_Driver/Src/stm32wbxx_hal_rtc_ex.c **** 
 2942              		.loc 1 1669 9 view .LVU1036
1671:Drivers/STM32WBxx_HAL_Driver/Src/stm32wbxx_hal_rtc_ex.c ****       }
ARM GAS  C:\Users\Nathan\AppData\Local\Temp\ccWT97xY.s 			page 85


 2943              		.loc 1 1671 9 view .LVU1037
1671:Drivers/STM32WBxx_HAL_Driver/Src/stm32wbxx_hal_rtc_ex.c ****       }
 2944              		.loc 1 1671 16 is_stmt 0 view .LVU1038
 2945 0084 E4E7     		b	.L191
 2946              	.LVL198:
 2947              	.L195:
1644:Drivers/STM32WBxx_HAL_Driver/Src/stm32wbxx_hal_rtc_ex.c **** 
 2948              		.loc 1 1644 3 discriminator 1 view .LVU1039
 2949 0086 0220     		movs	r0, #2
 2950              	.LVL199:
1644:Drivers/STM32WBxx_HAL_Driver/Src/stm32wbxx_hal_rtc_ex.c **** 
 2951              		.loc 1 1644 3 discriminator 1 view .LVU1040
 2952 0088 E2E7     		b	.L191
 2953              		.cfi_endproc
 2954              	.LFE1131:
 2956              		.section	.text.HAL_RTCEx_SetSynchroShift,"ax",%progbits
 2957              		.align	1
 2958              		.global	HAL_RTCEx_SetSynchroShift
 2959              		.syntax unified
 2960              		.thumb
 2961              		.thumb_func
 2963              	HAL_RTCEx_SetSynchroShift:
 2964              	.LVL200:
 2965              	.LFB1132:
1692:Drivers/STM32WBxx_HAL_Driver/Src/stm32wbxx_hal_rtc_ex.c **** 
1693:Drivers/STM32WBxx_HAL_Driver/Src/stm32wbxx_hal_rtc_ex.c **** /**
1694:Drivers/STM32WBxx_HAL_Driver/Src/stm32wbxx_hal_rtc_ex.c ****   * @brief  Configures the Synchronization Shift Control Settings.
1695:Drivers/STM32WBxx_HAL_Driver/Src/stm32wbxx_hal_rtc_ex.c ****   * @note   When REFCKON is set, firmware must not write to Shift control register.
1696:Drivers/STM32WBxx_HAL_Driver/Src/stm32wbxx_hal_rtc_ex.c ****   * @param  hrtc pointer to a RTC_HandleTypeDef structure that contains
1697:Drivers/STM32WBxx_HAL_Driver/Src/stm32wbxx_hal_rtc_ex.c ****   *                the configuration information for RTC.
1698:Drivers/STM32WBxx_HAL_Driver/Src/stm32wbxx_hal_rtc_ex.c ****   * @param  ShiftAdd1S Select to add or not 1 second to the time calendar.
1699:Drivers/STM32WBxx_HAL_Driver/Src/stm32wbxx_hal_rtc_ex.c ****   *          This parameter can be one of the following values:
1700:Drivers/STM32WBxx_HAL_Driver/Src/stm32wbxx_hal_rtc_ex.c ****   *             @arg RTC_SHIFTADD1S_SET: Add one second to the clock calendar.
1701:Drivers/STM32WBxx_HAL_Driver/Src/stm32wbxx_hal_rtc_ex.c ****   *             @arg RTC_SHIFTADD1S_RESET: No effect.
1702:Drivers/STM32WBxx_HAL_Driver/Src/stm32wbxx_hal_rtc_ex.c ****   * @param  ShiftSubFS Select the number of Second Fractions to substitute.
1703:Drivers/STM32WBxx_HAL_Driver/Src/stm32wbxx_hal_rtc_ex.c ****   *          This parameter can be one any value from 0 to 0x7FFF.
1704:Drivers/STM32WBxx_HAL_Driver/Src/stm32wbxx_hal_rtc_ex.c ****   * @retval HAL status
1705:Drivers/STM32WBxx_HAL_Driver/Src/stm32wbxx_hal_rtc_ex.c ****   */
1706:Drivers/STM32WBxx_HAL_Driver/Src/stm32wbxx_hal_rtc_ex.c **** HAL_StatusTypeDef HAL_RTCEx_SetSynchroShift(RTC_HandleTypeDef *hrtc, uint32_t ShiftAdd1S, uint32_t 
1707:Drivers/STM32WBxx_HAL_Driver/Src/stm32wbxx_hal_rtc_ex.c **** {
 2966              		.loc 1 1707 1 is_stmt 1 view -0
 2967              		.cfi_startproc
 2968              		@ args = 0, pretend = 0, frame = 0
 2969              		@ frame_needed = 0, uses_anonymous_args = 0
1708:Drivers/STM32WBxx_HAL_Driver/Src/stm32wbxx_hal_rtc_ex.c ****   uint32_t tickstart = 0U;
 2970              		.loc 1 1708 3 view .LVU1042
1709:Drivers/STM32WBxx_HAL_Driver/Src/stm32wbxx_hal_rtc_ex.c **** 
1710:Drivers/STM32WBxx_HAL_Driver/Src/stm32wbxx_hal_rtc_ex.c ****   /* Check the parameters */
1711:Drivers/STM32WBxx_HAL_Driver/Src/stm32wbxx_hal_rtc_ex.c ****   assert_param(IS_RTC_SHIFT_ADD1S(ShiftAdd1S));
 2971              		.loc 1 1711 3 view .LVU1043
1712:Drivers/STM32WBxx_HAL_Driver/Src/stm32wbxx_hal_rtc_ex.c ****   assert_param(IS_RTC_SHIFT_SUBFS(ShiftSubFS));
 2972              		.loc 1 1712 3 view .LVU1044
1713:Drivers/STM32WBxx_HAL_Driver/Src/stm32wbxx_hal_rtc_ex.c **** 
1714:Drivers/STM32WBxx_HAL_Driver/Src/stm32wbxx_hal_rtc_ex.c ****   /* Process Locked */
1715:Drivers/STM32WBxx_HAL_Driver/Src/stm32wbxx_hal_rtc_ex.c ****   __HAL_LOCK(hrtc);
 2973              		.loc 1 1715 3 view .LVU1045
 2974              		.loc 1 1715 3 view .LVU1046
ARM GAS  C:\Users\Nathan\AppData\Local\Temp\ccWT97xY.s 			page 86


 2975 0000 90F82030 		ldrb	r3, [r0, #32]	@ zero_extendqisi2
 2976 0004 012B     		cmp	r3, #1
 2977 0006 59D0     		beq	.L204
1707:Drivers/STM32WBxx_HAL_Driver/Src/stm32wbxx_hal_rtc_ex.c ****   uint32_t tickstart = 0U;
 2978              		.loc 1 1707 1 is_stmt 0 view .LVU1047
 2979 0008 2DE9F041 		push	{r4, r5, r6, r7, r8, lr}
 2980              		.cfi_def_cfa_offset 24
 2981              		.cfi_offset 4, -24
 2982              		.cfi_offset 5, -20
 2983              		.cfi_offset 6, -16
 2984              		.cfi_offset 7, -12
 2985              		.cfi_offset 8, -8
 2986              		.cfi_offset 14, -4
 2987 000c 0446     		mov	r4, r0
 2988 000e 8846     		mov	r8, r1
 2989 0010 1746     		mov	r7, r2
 2990              		.loc 1 1715 3 is_stmt 1 discriminator 2 view .LVU1048
 2991 0012 0123     		movs	r3, #1
 2992 0014 80F82030 		strb	r3, [r0, #32]
 2993              		.loc 1 1715 3 discriminator 2 view .LVU1049
1716:Drivers/STM32WBxx_HAL_Driver/Src/stm32wbxx_hal_rtc_ex.c **** 
1717:Drivers/STM32WBxx_HAL_Driver/Src/stm32wbxx_hal_rtc_ex.c ****   hrtc->State = HAL_RTC_STATE_BUSY;
 2994              		.loc 1 1717 3 view .LVU1050
 2995              		.loc 1 1717 15 is_stmt 0 view .LVU1051
 2996 0018 0223     		movs	r3, #2
 2997 001a 80F82130 		strb	r3, [r0, #33]
1718:Drivers/STM32WBxx_HAL_Driver/Src/stm32wbxx_hal_rtc_ex.c **** 
1719:Drivers/STM32WBxx_HAL_Driver/Src/stm32wbxx_hal_rtc_ex.c ****   /* Disable the write protection for RTC registers */
1720:Drivers/STM32WBxx_HAL_Driver/Src/stm32wbxx_hal_rtc_ex.c ****   __HAL_RTC_WRITEPROTECTION_DISABLE(hrtc);
 2998              		.loc 1 1720 3 is_stmt 1 view .LVU1052
 2999              		.loc 1 1720 3 view .LVU1053
 3000 001e 0368     		ldr	r3, [r0]
 3001 0020 CA22     		movs	r2, #202
 3002              	.LVL201:
 3003              		.loc 1 1720 3 is_stmt 0 view .LVU1054
 3004 0022 5A62     		str	r2, [r3, #36]
 3005              		.loc 1 1720 3 is_stmt 1 view .LVU1055
 3006 0024 0368     		ldr	r3, [r0]
 3007 0026 5322     		movs	r2, #83
 3008 0028 5A62     		str	r2, [r3, #36]
 3009              		.loc 1 1720 3 view .LVU1056
1721:Drivers/STM32WBxx_HAL_Driver/Src/stm32wbxx_hal_rtc_ex.c **** 
1722:Drivers/STM32WBxx_HAL_Driver/Src/stm32wbxx_hal_rtc_ex.c ****   /* Get tick */
1723:Drivers/STM32WBxx_HAL_Driver/Src/stm32wbxx_hal_rtc_ex.c ****   tickstart = HAL_GetTick();
 3010              		.loc 1 1723 3 view .LVU1057
 3011              		.loc 1 1723 15 is_stmt 0 view .LVU1058
 3012 002a FFF7FEFF 		bl	HAL_GetTick
 3013              	.LVL202:
 3014              		.loc 1 1723 15 view .LVU1059
 3015 002e 0646     		mov	r6, r0
 3016              	.LVL203:
1724:Drivers/STM32WBxx_HAL_Driver/Src/stm32wbxx_hal_rtc_ex.c **** 
1725:Drivers/STM32WBxx_HAL_Driver/Src/stm32wbxx_hal_rtc_ex.c ****   /* Wait until the shift is completed */
1726:Drivers/STM32WBxx_HAL_Driver/Src/stm32wbxx_hal_rtc_ex.c ****   while ((hrtc->Instance->ISR & RTC_ISR_SHPF) != 0U)
 3017              		.loc 1 1726 3 is_stmt 1 view .LVU1060
 3018              	.L200:
 3019              		.loc 1 1726 47 view .LVU1061
ARM GAS  C:\Users\Nathan\AppData\Local\Temp\ccWT97xY.s 			page 87


 3020              		.loc 1 1726 15 is_stmt 0 view .LVU1062
 3021 0030 2368     		ldr	r3, [r4]
 3022              		.loc 1 1726 25 view .LVU1063
 3023 0032 DD68     		ldr	r5, [r3, #12]
 3024              		.loc 1 1726 47 view .LVU1064
 3025 0034 15F0080F 		tst	r5, #8
 3026 0038 10D0     		beq	.L209
1727:Drivers/STM32WBxx_HAL_Driver/Src/stm32wbxx_hal_rtc_ex.c ****   {
1728:Drivers/STM32WBxx_HAL_Driver/Src/stm32wbxx_hal_rtc_ex.c ****     if ((HAL_GetTick() - tickstart) > RTC_TIMEOUT_VALUE)
 3027              		.loc 1 1728 5 is_stmt 1 view .LVU1065
 3028              		.loc 1 1728 10 is_stmt 0 view .LVU1066
 3029 003a FFF7FEFF 		bl	HAL_GetTick
 3030              	.LVL204:
 3031              		.loc 1 1728 24 discriminator 1 view .LVU1067
 3032 003e 831B     		subs	r3, r0, r6
 3033              		.loc 1 1728 8 discriminator 1 view .LVU1068
 3034 0040 B3F57A7F 		cmp	r3, #1000
 3035 0044 F4D9     		bls	.L200
1729:Drivers/STM32WBxx_HAL_Driver/Src/stm32wbxx_hal_rtc_ex.c ****     {
1730:Drivers/STM32WBxx_HAL_Driver/Src/stm32wbxx_hal_rtc_ex.c ****       /* Enable the write protection for RTC registers */
1731:Drivers/STM32WBxx_HAL_Driver/Src/stm32wbxx_hal_rtc_ex.c ****       __HAL_RTC_WRITEPROTECTION_ENABLE(hrtc);
 3036              		.loc 1 1731 7 is_stmt 1 view .LVU1069
 3037              		.loc 1 1731 7 view .LVU1070
 3038 0046 2368     		ldr	r3, [r4]
 3039 0048 FF22     		movs	r2, #255
 3040 004a 5A62     		str	r2, [r3, #36]
 3041              		.loc 1 1731 7 view .LVU1071
1732:Drivers/STM32WBxx_HAL_Driver/Src/stm32wbxx_hal_rtc_ex.c **** 
1733:Drivers/STM32WBxx_HAL_Driver/Src/stm32wbxx_hal_rtc_ex.c ****       hrtc->State = HAL_RTC_STATE_TIMEOUT;
 3042              		.loc 1 1733 7 view .LVU1072
 3043              		.loc 1 1733 19 is_stmt 0 view .LVU1073
 3044 004c 0320     		movs	r0, #3
 3045 004e 84F82100 		strb	r0, [r4, #33]
1734:Drivers/STM32WBxx_HAL_Driver/Src/stm32wbxx_hal_rtc_ex.c **** 
1735:Drivers/STM32WBxx_HAL_Driver/Src/stm32wbxx_hal_rtc_ex.c ****       /* Process Unlocked */
1736:Drivers/STM32WBxx_HAL_Driver/Src/stm32wbxx_hal_rtc_ex.c ****       __HAL_UNLOCK(hrtc);
 3046              		.loc 1 1736 7 is_stmt 1 view .LVU1074
 3047              		.loc 1 1736 7 view .LVU1075
 3048 0052 0023     		movs	r3, #0
 3049 0054 84F82030 		strb	r3, [r4, #32]
 3050              		.loc 1 1736 7 view .LVU1076
1737:Drivers/STM32WBxx_HAL_Driver/Src/stm32wbxx_hal_rtc_ex.c **** 
1738:Drivers/STM32WBxx_HAL_Driver/Src/stm32wbxx_hal_rtc_ex.c ****       return HAL_TIMEOUT;
 3051              		.loc 1 1738 7 view .LVU1077
 3052              	.LVL205:
 3053              	.L199:
1739:Drivers/STM32WBxx_HAL_Driver/Src/stm32wbxx_hal_rtc_ex.c ****     }
1740:Drivers/STM32WBxx_HAL_Driver/Src/stm32wbxx_hal_rtc_ex.c ****   }
1741:Drivers/STM32WBxx_HAL_Driver/Src/stm32wbxx_hal_rtc_ex.c **** 
1742:Drivers/STM32WBxx_HAL_Driver/Src/stm32wbxx_hal_rtc_ex.c ****   /* Check if the reference clock detection is disabled */
1743:Drivers/STM32WBxx_HAL_Driver/Src/stm32wbxx_hal_rtc_ex.c ****   if ((hrtc->Instance->CR & RTC_CR_REFCKON) == 0U)
1744:Drivers/STM32WBxx_HAL_Driver/Src/stm32wbxx_hal_rtc_ex.c ****   {
1745:Drivers/STM32WBxx_HAL_Driver/Src/stm32wbxx_hal_rtc_ex.c ****     /* Configure the Shift settings */
1746:Drivers/STM32WBxx_HAL_Driver/Src/stm32wbxx_hal_rtc_ex.c ****     hrtc->Instance->SHIFTR = (uint32_t)(uint32_t)(ShiftSubFS) | (uint32_t)(ShiftAdd1S);
1747:Drivers/STM32WBxx_HAL_Driver/Src/stm32wbxx_hal_rtc_ex.c **** 
1748:Drivers/STM32WBxx_HAL_Driver/Src/stm32wbxx_hal_rtc_ex.c ****     /* If  RTC_CR_BYPSHAD bit = 0, wait for synchro else this check is not needed */
1749:Drivers/STM32WBxx_HAL_Driver/Src/stm32wbxx_hal_rtc_ex.c ****     if ((hrtc->Instance->CR & RTC_CR_BYPSHAD) == 0U)
ARM GAS  C:\Users\Nathan\AppData\Local\Temp\ccWT97xY.s 			page 88


1750:Drivers/STM32WBxx_HAL_Driver/Src/stm32wbxx_hal_rtc_ex.c ****     {
1751:Drivers/STM32WBxx_HAL_Driver/Src/stm32wbxx_hal_rtc_ex.c ****       if (HAL_RTC_WaitForSynchro(hrtc) != HAL_OK)
1752:Drivers/STM32WBxx_HAL_Driver/Src/stm32wbxx_hal_rtc_ex.c ****       {
1753:Drivers/STM32WBxx_HAL_Driver/Src/stm32wbxx_hal_rtc_ex.c ****         /* Enable the write protection for RTC registers */
1754:Drivers/STM32WBxx_HAL_Driver/Src/stm32wbxx_hal_rtc_ex.c ****         __HAL_RTC_WRITEPROTECTION_ENABLE(hrtc);
1755:Drivers/STM32WBxx_HAL_Driver/Src/stm32wbxx_hal_rtc_ex.c **** 
1756:Drivers/STM32WBxx_HAL_Driver/Src/stm32wbxx_hal_rtc_ex.c ****         hrtc->State = HAL_RTC_STATE_ERROR;
1757:Drivers/STM32WBxx_HAL_Driver/Src/stm32wbxx_hal_rtc_ex.c **** 
1758:Drivers/STM32WBxx_HAL_Driver/Src/stm32wbxx_hal_rtc_ex.c ****         /* Process Unlocked */
1759:Drivers/STM32WBxx_HAL_Driver/Src/stm32wbxx_hal_rtc_ex.c ****         __HAL_UNLOCK(hrtc);
1760:Drivers/STM32WBxx_HAL_Driver/Src/stm32wbxx_hal_rtc_ex.c **** 
1761:Drivers/STM32WBxx_HAL_Driver/Src/stm32wbxx_hal_rtc_ex.c ****         return HAL_ERROR;
1762:Drivers/STM32WBxx_HAL_Driver/Src/stm32wbxx_hal_rtc_ex.c ****       }
1763:Drivers/STM32WBxx_HAL_Driver/Src/stm32wbxx_hal_rtc_ex.c ****     }
1764:Drivers/STM32WBxx_HAL_Driver/Src/stm32wbxx_hal_rtc_ex.c ****   }
1765:Drivers/STM32WBxx_HAL_Driver/Src/stm32wbxx_hal_rtc_ex.c ****   else
1766:Drivers/STM32WBxx_HAL_Driver/Src/stm32wbxx_hal_rtc_ex.c ****   {
1767:Drivers/STM32WBxx_HAL_Driver/Src/stm32wbxx_hal_rtc_ex.c ****     /* Enable the write protection for RTC registers */
1768:Drivers/STM32WBxx_HAL_Driver/Src/stm32wbxx_hal_rtc_ex.c ****     __HAL_RTC_WRITEPROTECTION_ENABLE(hrtc);
1769:Drivers/STM32WBxx_HAL_Driver/Src/stm32wbxx_hal_rtc_ex.c **** 
1770:Drivers/STM32WBxx_HAL_Driver/Src/stm32wbxx_hal_rtc_ex.c ****     /* Change RTC state */
1771:Drivers/STM32WBxx_HAL_Driver/Src/stm32wbxx_hal_rtc_ex.c ****     hrtc->State = HAL_RTC_STATE_ERROR;
1772:Drivers/STM32WBxx_HAL_Driver/Src/stm32wbxx_hal_rtc_ex.c **** 
1773:Drivers/STM32WBxx_HAL_Driver/Src/stm32wbxx_hal_rtc_ex.c ****     /* Process Unlocked */
1774:Drivers/STM32WBxx_HAL_Driver/Src/stm32wbxx_hal_rtc_ex.c ****     __HAL_UNLOCK(hrtc);
1775:Drivers/STM32WBxx_HAL_Driver/Src/stm32wbxx_hal_rtc_ex.c **** 
1776:Drivers/STM32WBxx_HAL_Driver/Src/stm32wbxx_hal_rtc_ex.c ****     return HAL_ERROR;
1777:Drivers/STM32WBxx_HAL_Driver/Src/stm32wbxx_hal_rtc_ex.c ****   }
1778:Drivers/STM32WBxx_HAL_Driver/Src/stm32wbxx_hal_rtc_ex.c **** 
1779:Drivers/STM32WBxx_HAL_Driver/Src/stm32wbxx_hal_rtc_ex.c ****   /* Enable the write protection for RTC registers */
1780:Drivers/STM32WBxx_HAL_Driver/Src/stm32wbxx_hal_rtc_ex.c ****   __HAL_RTC_WRITEPROTECTION_ENABLE(hrtc);
1781:Drivers/STM32WBxx_HAL_Driver/Src/stm32wbxx_hal_rtc_ex.c **** 
1782:Drivers/STM32WBxx_HAL_Driver/Src/stm32wbxx_hal_rtc_ex.c ****   /* Change RTC state */
1783:Drivers/STM32WBxx_HAL_Driver/Src/stm32wbxx_hal_rtc_ex.c ****   hrtc->State = HAL_RTC_STATE_READY;
1784:Drivers/STM32WBxx_HAL_Driver/Src/stm32wbxx_hal_rtc_ex.c **** 
1785:Drivers/STM32WBxx_HAL_Driver/Src/stm32wbxx_hal_rtc_ex.c ****   /* Process Unlocked */
1786:Drivers/STM32WBxx_HAL_Driver/Src/stm32wbxx_hal_rtc_ex.c ****   __HAL_UNLOCK(hrtc);
1787:Drivers/STM32WBxx_HAL_Driver/Src/stm32wbxx_hal_rtc_ex.c **** 
1788:Drivers/STM32WBxx_HAL_Driver/Src/stm32wbxx_hal_rtc_ex.c ****   return HAL_OK;
1789:Drivers/STM32WBxx_HAL_Driver/Src/stm32wbxx_hal_rtc_ex.c **** }
 3054              		.loc 1 1789 1 is_stmt 0 view .LVU1078
 3055 0058 BDE8F081 		pop	{r4, r5, r6, r7, r8, pc}
 3056              	.LVL206:
 3057              	.L209:
1743:Drivers/STM32WBxx_HAL_Driver/Src/stm32wbxx_hal_rtc_ex.c ****   {
 3058              		.loc 1 1743 3 is_stmt 1 view .LVU1079
1743:Drivers/STM32WBxx_HAL_Driver/Src/stm32wbxx_hal_rtc_ex.c ****   {
 3059              		.loc 1 1743 22 is_stmt 0 view .LVU1080
 3060 005c 9A68     		ldr	r2, [r3, #8]
1743:Drivers/STM32WBxx_HAL_Driver/Src/stm32wbxx_hal_rtc_ex.c ****   {
 3061              		.loc 1 1743 6 view .LVU1081
 3062 005e 12F0100F 		tst	r2, #16
 3063 0062 21D1     		bne	.L202
1746:Drivers/STM32WBxx_HAL_Driver/Src/stm32wbxx_hal_rtc_ex.c **** 
 3064              		.loc 1 1746 5 is_stmt 1 view .LVU1082
1746:Drivers/STM32WBxx_HAL_Driver/Src/stm32wbxx_hal_rtc_ex.c **** 
 3065              		.loc 1 1746 63 is_stmt 0 view .LVU1083
ARM GAS  C:\Users\Nathan\AppData\Local\Temp\ccWT97xY.s 			page 89


 3066 0064 47EA0807 		orr	r7, r7, r8
 3067              	.LVL207:
1746:Drivers/STM32WBxx_HAL_Driver/Src/stm32wbxx_hal_rtc_ex.c **** 
 3068              		.loc 1 1746 28 view .LVU1084
 3069 0068 DF62     		str	r7, [r3, #44]
1749:Drivers/STM32WBxx_HAL_Driver/Src/stm32wbxx_hal_rtc_ex.c ****     {
 3070              		.loc 1 1749 5 is_stmt 1 view .LVU1085
1749:Drivers/STM32WBxx_HAL_Driver/Src/stm32wbxx_hal_rtc_ex.c ****     {
 3071              		.loc 1 1749 14 is_stmt 0 view .LVU1086
 3072 006a 2368     		ldr	r3, [r4]
1749:Drivers/STM32WBxx_HAL_Driver/Src/stm32wbxx_hal_rtc_ex.c ****     {
 3073              		.loc 1 1749 24 view .LVU1087
 3074 006c 9B68     		ldr	r3, [r3, #8]
1749:Drivers/STM32WBxx_HAL_Driver/Src/stm32wbxx_hal_rtc_ex.c ****     {
 3075              		.loc 1 1749 8 view .LVU1088
 3076 006e 13F0200F 		tst	r3, #32
 3077 0072 09D0     		beq	.L210
 3078              	.L203:
1780:Drivers/STM32WBxx_HAL_Driver/Src/stm32wbxx_hal_rtc_ex.c **** 
 3079              		.loc 1 1780 3 is_stmt 1 view .LVU1089
1780:Drivers/STM32WBxx_HAL_Driver/Src/stm32wbxx_hal_rtc_ex.c **** 
 3080              		.loc 1 1780 3 view .LVU1090
 3081 0074 2368     		ldr	r3, [r4]
 3082 0076 FF22     		movs	r2, #255
 3083 0078 5A62     		str	r2, [r3, #36]
1780:Drivers/STM32WBxx_HAL_Driver/Src/stm32wbxx_hal_rtc_ex.c **** 
 3084              		.loc 1 1780 3 view .LVU1091
1783:Drivers/STM32WBxx_HAL_Driver/Src/stm32wbxx_hal_rtc_ex.c **** 
 3085              		.loc 1 1783 3 view .LVU1092
1783:Drivers/STM32WBxx_HAL_Driver/Src/stm32wbxx_hal_rtc_ex.c **** 
 3086              		.loc 1 1783 15 is_stmt 0 view .LVU1093
 3087 007a 0123     		movs	r3, #1
 3088 007c 84F82130 		strb	r3, [r4, #33]
1786:Drivers/STM32WBxx_HAL_Driver/Src/stm32wbxx_hal_rtc_ex.c **** 
 3089              		.loc 1 1786 3 is_stmt 1 view .LVU1094
1786:Drivers/STM32WBxx_HAL_Driver/Src/stm32wbxx_hal_rtc_ex.c **** 
 3090              		.loc 1 1786 3 view .LVU1095
 3091 0080 0020     		movs	r0, #0
 3092 0082 84F82000 		strb	r0, [r4, #32]
1786:Drivers/STM32WBxx_HAL_Driver/Src/stm32wbxx_hal_rtc_ex.c **** 
 3093              		.loc 1 1786 3 view .LVU1096
1788:Drivers/STM32WBxx_HAL_Driver/Src/stm32wbxx_hal_rtc_ex.c **** }
 3094              		.loc 1 1788 3 view .LVU1097
1788:Drivers/STM32WBxx_HAL_Driver/Src/stm32wbxx_hal_rtc_ex.c **** }
 3095              		.loc 1 1788 10 is_stmt 0 view .LVU1098
 3096 0086 E7E7     		b	.L199
 3097              	.L210:
1751:Drivers/STM32WBxx_HAL_Driver/Src/stm32wbxx_hal_rtc_ex.c ****       {
 3098              		.loc 1 1751 7 is_stmt 1 view .LVU1099
1751:Drivers/STM32WBxx_HAL_Driver/Src/stm32wbxx_hal_rtc_ex.c ****       {
 3099              		.loc 1 1751 11 is_stmt 0 view .LVU1100
 3100 0088 2046     		mov	r0, r4
 3101 008a FFF7FEFF 		bl	HAL_RTC_WaitForSynchro
 3102              	.LVL208:
1751:Drivers/STM32WBxx_HAL_Driver/Src/stm32wbxx_hal_rtc_ex.c ****       {
 3103              		.loc 1 1751 10 discriminator 1 view .LVU1101
 3104 008e 0028     		cmp	r0, #0
ARM GAS  C:\Users\Nathan\AppData\Local\Temp\ccWT97xY.s 			page 90


 3105 0090 F0D0     		beq	.L203
1754:Drivers/STM32WBxx_HAL_Driver/Src/stm32wbxx_hal_rtc_ex.c **** 
 3106              		.loc 1 1754 9 is_stmt 1 view .LVU1102
1754:Drivers/STM32WBxx_HAL_Driver/Src/stm32wbxx_hal_rtc_ex.c **** 
 3107              		.loc 1 1754 9 view .LVU1103
 3108 0092 2368     		ldr	r3, [r4]
 3109 0094 FF22     		movs	r2, #255
 3110 0096 5A62     		str	r2, [r3, #36]
1754:Drivers/STM32WBxx_HAL_Driver/Src/stm32wbxx_hal_rtc_ex.c **** 
 3111              		.loc 1 1754 9 view .LVU1104
1756:Drivers/STM32WBxx_HAL_Driver/Src/stm32wbxx_hal_rtc_ex.c **** 
 3112              		.loc 1 1756 9 view .LVU1105
1756:Drivers/STM32WBxx_HAL_Driver/Src/stm32wbxx_hal_rtc_ex.c **** 
 3113              		.loc 1 1756 21 is_stmt 0 view .LVU1106
 3114 0098 0423     		movs	r3, #4
 3115 009a 84F82130 		strb	r3, [r4, #33]
1759:Drivers/STM32WBxx_HAL_Driver/Src/stm32wbxx_hal_rtc_ex.c **** 
 3116              		.loc 1 1759 9 is_stmt 1 view .LVU1107
1759:Drivers/STM32WBxx_HAL_Driver/Src/stm32wbxx_hal_rtc_ex.c **** 
 3117              		.loc 1 1759 9 view .LVU1108
 3118 009e 0023     		movs	r3, #0
 3119 00a0 84F82030 		strb	r3, [r4, #32]
1759:Drivers/STM32WBxx_HAL_Driver/Src/stm32wbxx_hal_rtc_ex.c **** 
 3120              		.loc 1 1759 9 view .LVU1109
1761:Drivers/STM32WBxx_HAL_Driver/Src/stm32wbxx_hal_rtc_ex.c ****       }
 3121              		.loc 1 1761 9 view .LVU1110
1761:Drivers/STM32WBxx_HAL_Driver/Src/stm32wbxx_hal_rtc_ex.c ****       }
 3122              		.loc 1 1761 16 is_stmt 0 view .LVU1111
 3123 00a4 0120     		movs	r0, #1
 3124 00a6 D7E7     		b	.L199
 3125              	.LVL209:
 3126              	.L202:
1768:Drivers/STM32WBxx_HAL_Driver/Src/stm32wbxx_hal_rtc_ex.c **** 
 3127              		.loc 1 1768 5 is_stmt 1 view .LVU1112
1768:Drivers/STM32WBxx_HAL_Driver/Src/stm32wbxx_hal_rtc_ex.c **** 
 3128              		.loc 1 1768 5 view .LVU1113
 3129 00a8 FF22     		movs	r2, #255
 3130 00aa 5A62     		str	r2, [r3, #36]
1768:Drivers/STM32WBxx_HAL_Driver/Src/stm32wbxx_hal_rtc_ex.c **** 
 3131              		.loc 1 1768 5 view .LVU1114
1771:Drivers/STM32WBxx_HAL_Driver/Src/stm32wbxx_hal_rtc_ex.c **** 
 3132              		.loc 1 1771 5 view .LVU1115
1771:Drivers/STM32WBxx_HAL_Driver/Src/stm32wbxx_hal_rtc_ex.c **** 
 3133              		.loc 1 1771 17 is_stmt 0 view .LVU1116
 3134 00ac 0423     		movs	r3, #4
 3135 00ae 84F82130 		strb	r3, [r4, #33]
1774:Drivers/STM32WBxx_HAL_Driver/Src/stm32wbxx_hal_rtc_ex.c **** 
 3136              		.loc 1 1774 5 is_stmt 1 view .LVU1117
1774:Drivers/STM32WBxx_HAL_Driver/Src/stm32wbxx_hal_rtc_ex.c **** 
 3137              		.loc 1 1774 5 view .LVU1118
 3138 00b2 0023     		movs	r3, #0
 3139 00b4 84F82030 		strb	r3, [r4, #32]
1774:Drivers/STM32WBxx_HAL_Driver/Src/stm32wbxx_hal_rtc_ex.c **** 
 3140              		.loc 1 1774 5 view .LVU1119
1776:Drivers/STM32WBxx_HAL_Driver/Src/stm32wbxx_hal_rtc_ex.c ****   }
 3141              		.loc 1 1776 5 view .LVU1120
1776:Drivers/STM32WBxx_HAL_Driver/Src/stm32wbxx_hal_rtc_ex.c ****   }
ARM GAS  C:\Users\Nathan\AppData\Local\Temp\ccWT97xY.s 			page 91


 3142              		.loc 1 1776 12 is_stmt 0 view .LVU1121
 3143 00b8 0120     		movs	r0, #1
 3144 00ba CDE7     		b	.L199
 3145              	.LVL210:
 3146              	.L204:
 3147              		.cfi_def_cfa_offset 0
 3148              		.cfi_restore 4
 3149              		.cfi_restore 5
 3150              		.cfi_restore 6
 3151              		.cfi_restore 7
 3152              		.cfi_restore 8
 3153              		.cfi_restore 14
1715:Drivers/STM32WBxx_HAL_Driver/Src/stm32wbxx_hal_rtc_ex.c **** 
 3154              		.loc 1 1715 3 discriminator 1 view .LVU1122
 3155 00bc 0220     		movs	r0, #2
 3156              	.LVL211:
 3157              		.loc 1 1789 1 view .LVU1123
 3158 00be 7047     		bx	lr
 3159              		.cfi_endproc
 3160              	.LFE1132:
 3162              		.section	.text.HAL_RTCEx_SetCalibrationOutPut,"ax",%progbits
 3163              		.align	1
 3164              		.global	HAL_RTCEx_SetCalibrationOutPut
 3165              		.syntax unified
 3166              		.thumb
 3167              		.thumb_func
 3169              	HAL_RTCEx_SetCalibrationOutPut:
 3170              	.LVL212:
 3171              	.LFB1133:
1790:Drivers/STM32WBxx_HAL_Driver/Src/stm32wbxx_hal_rtc_ex.c **** 
1791:Drivers/STM32WBxx_HAL_Driver/Src/stm32wbxx_hal_rtc_ex.c **** /**
1792:Drivers/STM32WBxx_HAL_Driver/Src/stm32wbxx_hal_rtc_ex.c ****   * @brief  Configures the Calibration Pinout (RTC_CALIB) Selection (1Hz or 512Hz).
1793:Drivers/STM32WBxx_HAL_Driver/Src/stm32wbxx_hal_rtc_ex.c ****   * @param  hrtc pointer to a RTC_HandleTypeDef structure that contains
1794:Drivers/STM32WBxx_HAL_Driver/Src/stm32wbxx_hal_rtc_ex.c ****   *                the configuration information for RTC.
1795:Drivers/STM32WBxx_HAL_Driver/Src/stm32wbxx_hal_rtc_ex.c ****   * @param  CalibOutput Select the Calibration output Selection.
1796:Drivers/STM32WBxx_HAL_Driver/Src/stm32wbxx_hal_rtc_ex.c ****   *          This parameter can be one of the following values:
1797:Drivers/STM32WBxx_HAL_Driver/Src/stm32wbxx_hal_rtc_ex.c ****   *             @arg RTC_CALIBOUTPUT_512HZ: A signal has a regular waveform at 512Hz.
1798:Drivers/STM32WBxx_HAL_Driver/Src/stm32wbxx_hal_rtc_ex.c ****   *             @arg RTC_CALIBOUTPUT_1HZ: A signal has a regular waveform at 1Hz.
1799:Drivers/STM32WBxx_HAL_Driver/Src/stm32wbxx_hal_rtc_ex.c ****   * @retval HAL status
1800:Drivers/STM32WBxx_HAL_Driver/Src/stm32wbxx_hal_rtc_ex.c ****   */
1801:Drivers/STM32WBxx_HAL_Driver/Src/stm32wbxx_hal_rtc_ex.c **** HAL_StatusTypeDef HAL_RTCEx_SetCalibrationOutPut(RTC_HandleTypeDef *hrtc, uint32_t CalibOutput)
1802:Drivers/STM32WBxx_HAL_Driver/Src/stm32wbxx_hal_rtc_ex.c **** {
 3172              		.loc 1 1802 1 is_stmt 1 view -0
 3173              		.cfi_startproc
 3174              		@ args = 0, pretend = 0, frame = 0
 3175              		@ frame_needed = 0, uses_anonymous_args = 0
 3176              		@ link register save eliminated.
1803:Drivers/STM32WBxx_HAL_Driver/Src/stm32wbxx_hal_rtc_ex.c ****   /* Check the parameters */
1804:Drivers/STM32WBxx_HAL_Driver/Src/stm32wbxx_hal_rtc_ex.c ****   assert_param(IS_RTC_CALIB_OUTPUT(CalibOutput));
 3177              		.loc 1 1804 3 view .LVU1125
1805:Drivers/STM32WBxx_HAL_Driver/Src/stm32wbxx_hal_rtc_ex.c **** 
1806:Drivers/STM32WBxx_HAL_Driver/Src/stm32wbxx_hal_rtc_ex.c ****   /* Process Locked */
1807:Drivers/STM32WBxx_HAL_Driver/Src/stm32wbxx_hal_rtc_ex.c ****   __HAL_LOCK(hrtc);
 3178              		.loc 1 1807 3 view .LVU1126
 3179              		.loc 1 1807 3 view .LVU1127
 3180 0000 90F82020 		ldrb	r2, [r0, #32]	@ zero_extendqisi2
 3181 0004 012A     		cmp	r2, #1
ARM GAS  C:\Users\Nathan\AppData\Local\Temp\ccWT97xY.s 			page 92


 3182 0006 26D0     		beq	.L213
1802:Drivers/STM32WBxx_HAL_Driver/Src/stm32wbxx_hal_rtc_ex.c ****   /* Check the parameters */
 3183              		.loc 1 1802 1 is_stmt 0 view .LVU1128
 3184 0008 10B4     		push	{r4}
 3185              		.cfi_def_cfa_offset 4
 3186              		.cfi_offset 4, -4
 3187 000a 0346     		mov	r3, r0
 3188              		.loc 1 1807 3 is_stmt 1 discriminator 2 view .LVU1129
 3189 000c 0120     		movs	r0, #1
 3190              	.LVL213:
 3191              		.loc 1 1807 3 is_stmt 0 discriminator 2 view .LVU1130
 3192 000e 83F82000 		strb	r0, [r3, #32]
 3193              		.loc 1 1807 3 is_stmt 1 discriminator 2 view .LVU1131
1808:Drivers/STM32WBxx_HAL_Driver/Src/stm32wbxx_hal_rtc_ex.c **** 
1809:Drivers/STM32WBxx_HAL_Driver/Src/stm32wbxx_hal_rtc_ex.c ****   hrtc->State = HAL_RTC_STATE_BUSY;
 3194              		.loc 1 1809 3 view .LVU1132
 3195              		.loc 1 1809 15 is_stmt 0 view .LVU1133
 3196 0012 0222     		movs	r2, #2
 3197 0014 83F82120 		strb	r2, [r3, #33]
1810:Drivers/STM32WBxx_HAL_Driver/Src/stm32wbxx_hal_rtc_ex.c **** 
1811:Drivers/STM32WBxx_HAL_Driver/Src/stm32wbxx_hal_rtc_ex.c ****   /* Disable the write protection for RTC registers */
1812:Drivers/STM32WBxx_HAL_Driver/Src/stm32wbxx_hal_rtc_ex.c ****   __HAL_RTC_WRITEPROTECTION_DISABLE(hrtc);
 3198              		.loc 1 1812 3 is_stmt 1 view .LVU1134
 3199              		.loc 1 1812 3 view .LVU1135
 3200 0018 1A68     		ldr	r2, [r3]
 3201 001a CA24     		movs	r4, #202
 3202 001c 5462     		str	r4, [r2, #36]
 3203              		.loc 1 1812 3 view .LVU1136
 3204 001e 1A68     		ldr	r2, [r3]
 3205 0020 5324     		movs	r4, #83
 3206 0022 5462     		str	r4, [r2, #36]
 3207              		.loc 1 1812 3 view .LVU1137
1813:Drivers/STM32WBxx_HAL_Driver/Src/stm32wbxx_hal_rtc_ex.c **** 
1814:Drivers/STM32WBxx_HAL_Driver/Src/stm32wbxx_hal_rtc_ex.c ****   /* Clear flags before config */
1815:Drivers/STM32WBxx_HAL_Driver/Src/stm32wbxx_hal_rtc_ex.c ****   hrtc->Instance->CR &= (uint32_t)~RTC_CR_COSEL;
 3208              		.loc 1 1815 3 view .LVU1138
 3209              		.loc 1 1815 7 is_stmt 0 view .LVU1139
 3210 0024 1C68     		ldr	r4, [r3]
 3211              		.loc 1 1815 17 view .LVU1140
 3212 0026 A268     		ldr	r2, [r4, #8]
 3213              		.loc 1 1815 22 view .LVU1141
 3214 0028 22F40022 		bic	r2, r2, #524288
 3215 002c A260     		str	r2, [r4, #8]
1816:Drivers/STM32WBxx_HAL_Driver/Src/stm32wbxx_hal_rtc_ex.c **** 
1817:Drivers/STM32WBxx_HAL_Driver/Src/stm32wbxx_hal_rtc_ex.c ****   /* Configure the RTC_CR register */
1818:Drivers/STM32WBxx_HAL_Driver/Src/stm32wbxx_hal_rtc_ex.c ****   hrtc->Instance->CR |= (uint32_t)CalibOutput;
 3216              		.loc 1 1818 3 is_stmt 1 view .LVU1142
 3217              		.loc 1 1818 7 is_stmt 0 view .LVU1143
 3218 002e 1C68     		ldr	r4, [r3]
 3219              		.loc 1 1818 17 view .LVU1144
 3220 0030 A268     		ldr	r2, [r4, #8]
 3221              		.loc 1 1818 22 view .LVU1145
 3222 0032 0A43     		orrs	r2, r2, r1
 3223 0034 A260     		str	r2, [r4, #8]
1819:Drivers/STM32WBxx_HAL_Driver/Src/stm32wbxx_hal_rtc_ex.c **** 
1820:Drivers/STM32WBxx_HAL_Driver/Src/stm32wbxx_hal_rtc_ex.c ****   __HAL_RTC_CALIBRATION_OUTPUT_ENABLE(hrtc);
 3224              		.loc 1 1820 3 is_stmt 1 view .LVU1146
ARM GAS  C:\Users\Nathan\AppData\Local\Temp\ccWT97xY.s 			page 93


 3225 0036 1968     		ldr	r1, [r3]
 3226              	.LVL214:
 3227              		.loc 1 1820 3 is_stmt 0 view .LVU1147
 3228 0038 8A68     		ldr	r2, [r1, #8]
 3229 003a 42F40002 		orr	r2, r2, #8388608
 3230 003e 8A60     		str	r2, [r1, #8]
1821:Drivers/STM32WBxx_HAL_Driver/Src/stm32wbxx_hal_rtc_ex.c **** 
1822:Drivers/STM32WBxx_HAL_Driver/Src/stm32wbxx_hal_rtc_ex.c ****   /* Enable the write protection for RTC registers */
1823:Drivers/STM32WBxx_HAL_Driver/Src/stm32wbxx_hal_rtc_ex.c ****   __HAL_RTC_WRITEPROTECTION_ENABLE(hrtc);
 3231              		.loc 1 1823 3 is_stmt 1 view .LVU1148
 3232              		.loc 1 1823 3 view .LVU1149
 3233 0040 1A68     		ldr	r2, [r3]
 3234 0042 FF21     		movs	r1, #255
 3235 0044 5162     		str	r1, [r2, #36]
 3236              		.loc 1 1823 3 view .LVU1150
1824:Drivers/STM32WBxx_HAL_Driver/Src/stm32wbxx_hal_rtc_ex.c **** 
1825:Drivers/STM32WBxx_HAL_Driver/Src/stm32wbxx_hal_rtc_ex.c ****   /* Change RTC state */
1826:Drivers/STM32WBxx_HAL_Driver/Src/stm32wbxx_hal_rtc_ex.c ****   hrtc->State = HAL_RTC_STATE_READY;
 3237              		.loc 1 1826 3 view .LVU1151
 3238              		.loc 1 1826 15 is_stmt 0 view .LVU1152
 3239 0046 83F82100 		strb	r0, [r3, #33]
1827:Drivers/STM32WBxx_HAL_Driver/Src/stm32wbxx_hal_rtc_ex.c **** 
1828:Drivers/STM32WBxx_HAL_Driver/Src/stm32wbxx_hal_rtc_ex.c ****   /* Process Unlocked */
1829:Drivers/STM32WBxx_HAL_Driver/Src/stm32wbxx_hal_rtc_ex.c ****   __HAL_UNLOCK(hrtc);
 3240              		.loc 1 1829 3 is_stmt 1 view .LVU1153
 3241              		.loc 1 1829 3 view .LVU1154
 3242 004a 0020     		movs	r0, #0
 3243 004c 83F82000 		strb	r0, [r3, #32]
 3244              		.loc 1 1829 3 view .LVU1155
1830:Drivers/STM32WBxx_HAL_Driver/Src/stm32wbxx_hal_rtc_ex.c **** 
1831:Drivers/STM32WBxx_HAL_Driver/Src/stm32wbxx_hal_rtc_ex.c ****   return HAL_OK;
 3245              		.loc 1 1831 3 view .LVU1156
1832:Drivers/STM32WBxx_HAL_Driver/Src/stm32wbxx_hal_rtc_ex.c **** }
 3246              		.loc 1 1832 1 is_stmt 0 view .LVU1157
 3247 0050 5DF8044B 		ldr	r4, [sp], #4
 3248              		.cfi_restore 4
 3249              		.cfi_def_cfa_offset 0
 3250 0054 7047     		bx	lr
 3251              	.LVL215:
 3252              	.L213:
1807:Drivers/STM32WBxx_HAL_Driver/Src/stm32wbxx_hal_rtc_ex.c **** 
 3253              		.loc 1 1807 3 discriminator 1 view .LVU1158
 3254 0056 0220     		movs	r0, #2
 3255              	.LVL216:
 3256              		.loc 1 1832 1 view .LVU1159
 3257 0058 7047     		bx	lr
 3258              		.cfi_endproc
 3259              	.LFE1133:
 3261              		.section	.text.HAL_RTCEx_DeactivateCalibrationOutPut,"ax",%progbits
 3262              		.align	1
 3263              		.global	HAL_RTCEx_DeactivateCalibrationOutPut
 3264              		.syntax unified
 3265              		.thumb
 3266              		.thumb_func
 3268              	HAL_RTCEx_DeactivateCalibrationOutPut:
 3269              	.LVL217:
 3270              	.LFB1134:
ARM GAS  C:\Users\Nathan\AppData\Local\Temp\ccWT97xY.s 			page 94


1833:Drivers/STM32WBxx_HAL_Driver/Src/stm32wbxx_hal_rtc_ex.c **** 
1834:Drivers/STM32WBxx_HAL_Driver/Src/stm32wbxx_hal_rtc_ex.c **** /**
1835:Drivers/STM32WBxx_HAL_Driver/Src/stm32wbxx_hal_rtc_ex.c ****   * @brief  Deactivates the Calibration Pinout (RTC_CALIB) Selection (1Hz or 512Hz).
1836:Drivers/STM32WBxx_HAL_Driver/Src/stm32wbxx_hal_rtc_ex.c ****   * @param  hrtc pointer to a RTC_HandleTypeDef structure that contains
1837:Drivers/STM32WBxx_HAL_Driver/Src/stm32wbxx_hal_rtc_ex.c ****   *                the configuration information for RTC.
1838:Drivers/STM32WBxx_HAL_Driver/Src/stm32wbxx_hal_rtc_ex.c ****   * @retval HAL status
1839:Drivers/STM32WBxx_HAL_Driver/Src/stm32wbxx_hal_rtc_ex.c ****   */
1840:Drivers/STM32WBxx_HAL_Driver/Src/stm32wbxx_hal_rtc_ex.c **** HAL_StatusTypeDef HAL_RTCEx_DeactivateCalibrationOutPut(RTC_HandleTypeDef *hrtc)
1841:Drivers/STM32WBxx_HAL_Driver/Src/stm32wbxx_hal_rtc_ex.c **** {
 3271              		.loc 1 1841 1 is_stmt 1 view -0
 3272              		.cfi_startproc
 3273              		@ args = 0, pretend = 0, frame = 0
 3274              		@ frame_needed = 0, uses_anonymous_args = 0
 3275              		@ link register save eliminated.
1842:Drivers/STM32WBxx_HAL_Driver/Src/stm32wbxx_hal_rtc_ex.c ****   /* Process Locked */
1843:Drivers/STM32WBxx_HAL_Driver/Src/stm32wbxx_hal_rtc_ex.c ****   __HAL_LOCK(hrtc);
 3276              		.loc 1 1843 3 view .LVU1161
 3277              		.loc 1 1843 3 view .LVU1162
 3278 0000 90F82030 		ldrb	r3, [r0, #32]	@ zero_extendqisi2
 3279 0004 012B     		cmp	r3, #1
 3280 0006 1AD0     		beq	.L220
 3281              		.loc 1 1843 3 discriminator 2 view .LVU1163
 3282 0008 0122     		movs	r2, #1
 3283 000a 80F82020 		strb	r2, [r0, #32]
 3284              		.loc 1 1843 3 discriminator 2 view .LVU1164
1844:Drivers/STM32WBxx_HAL_Driver/Src/stm32wbxx_hal_rtc_ex.c **** 
1845:Drivers/STM32WBxx_HAL_Driver/Src/stm32wbxx_hal_rtc_ex.c ****   hrtc->State = HAL_RTC_STATE_BUSY;
 3285              		.loc 1 1845 3 view .LVU1165
 3286              		.loc 1 1845 15 is_stmt 0 view .LVU1166
 3287 000e 0223     		movs	r3, #2
 3288 0010 80F82130 		strb	r3, [r0, #33]
1846:Drivers/STM32WBxx_HAL_Driver/Src/stm32wbxx_hal_rtc_ex.c **** 
1847:Drivers/STM32WBxx_HAL_Driver/Src/stm32wbxx_hal_rtc_ex.c ****   /* Disable the write protection for RTC registers */
1848:Drivers/STM32WBxx_HAL_Driver/Src/stm32wbxx_hal_rtc_ex.c ****   __HAL_RTC_WRITEPROTECTION_DISABLE(hrtc);
 3289              		.loc 1 1848 3 is_stmt 1 view .LVU1167
 3290              		.loc 1 1848 3 view .LVU1168
 3291 0014 0368     		ldr	r3, [r0]
 3292 0016 CA21     		movs	r1, #202
 3293 0018 5962     		str	r1, [r3, #36]
 3294              		.loc 1 1848 3 view .LVU1169
 3295 001a 0368     		ldr	r3, [r0]
 3296 001c 5321     		movs	r1, #83
 3297 001e 5962     		str	r1, [r3, #36]
 3298              		.loc 1 1848 3 view .LVU1170
1849:Drivers/STM32WBxx_HAL_Driver/Src/stm32wbxx_hal_rtc_ex.c **** 
1850:Drivers/STM32WBxx_HAL_Driver/Src/stm32wbxx_hal_rtc_ex.c ****   __HAL_RTC_CALIBRATION_OUTPUT_DISABLE(hrtc);
 3299              		.loc 1 1850 3 view .LVU1171
 3300 0020 0168     		ldr	r1, [r0]
 3301 0022 8B68     		ldr	r3, [r1, #8]
 3302 0024 23F40003 		bic	r3, r3, #8388608
 3303 0028 8B60     		str	r3, [r1, #8]
1851:Drivers/STM32WBxx_HAL_Driver/Src/stm32wbxx_hal_rtc_ex.c **** 
1852:Drivers/STM32WBxx_HAL_Driver/Src/stm32wbxx_hal_rtc_ex.c ****   /* Enable the write protection for RTC registers */
1853:Drivers/STM32WBxx_HAL_Driver/Src/stm32wbxx_hal_rtc_ex.c ****   __HAL_RTC_WRITEPROTECTION_ENABLE(hrtc);
 3304              		.loc 1 1853 3 view .LVU1172
 3305              		.loc 1 1853 3 view .LVU1173
 3306 002a 0368     		ldr	r3, [r0]
ARM GAS  C:\Users\Nathan\AppData\Local\Temp\ccWT97xY.s 			page 95


 3307 002c FF21     		movs	r1, #255
 3308 002e 5962     		str	r1, [r3, #36]
 3309              		.loc 1 1853 3 view .LVU1174
1854:Drivers/STM32WBxx_HAL_Driver/Src/stm32wbxx_hal_rtc_ex.c **** 
1855:Drivers/STM32WBxx_HAL_Driver/Src/stm32wbxx_hal_rtc_ex.c ****   /* Change RTC state */
1856:Drivers/STM32WBxx_HAL_Driver/Src/stm32wbxx_hal_rtc_ex.c ****   hrtc->State = HAL_RTC_STATE_READY;
 3310              		.loc 1 1856 3 view .LVU1175
 3311              		.loc 1 1856 15 is_stmt 0 view .LVU1176
 3312 0030 80F82120 		strb	r2, [r0, #33]
1857:Drivers/STM32WBxx_HAL_Driver/Src/stm32wbxx_hal_rtc_ex.c **** 
1858:Drivers/STM32WBxx_HAL_Driver/Src/stm32wbxx_hal_rtc_ex.c ****   /* Process Unlocked */
1859:Drivers/STM32WBxx_HAL_Driver/Src/stm32wbxx_hal_rtc_ex.c ****   __HAL_UNLOCK(hrtc);
 3313              		.loc 1 1859 3 is_stmt 1 view .LVU1177
 3314              		.loc 1 1859 3 view .LVU1178
 3315 0034 0023     		movs	r3, #0
 3316 0036 80F82030 		strb	r3, [r0, #32]
 3317              		.loc 1 1859 3 view .LVU1179
1860:Drivers/STM32WBxx_HAL_Driver/Src/stm32wbxx_hal_rtc_ex.c **** 
1861:Drivers/STM32WBxx_HAL_Driver/Src/stm32wbxx_hal_rtc_ex.c ****   return HAL_OK;
 3318              		.loc 1 1861 3 view .LVU1180
 3319              		.loc 1 1861 10 is_stmt 0 view .LVU1181
 3320 003a 1846     		mov	r0, r3
 3321              	.LVL218:
 3322              		.loc 1 1861 10 view .LVU1182
 3323 003c 7047     		bx	lr
 3324              	.LVL219:
 3325              	.L220:
1843:Drivers/STM32WBxx_HAL_Driver/Src/stm32wbxx_hal_rtc_ex.c **** 
 3326              		.loc 1 1843 3 discriminator 1 view .LVU1183
 3327 003e 0220     		movs	r0, #2
 3328              	.LVL220:
1862:Drivers/STM32WBxx_HAL_Driver/Src/stm32wbxx_hal_rtc_ex.c **** }
 3329              		.loc 1 1862 1 view .LVU1184
 3330 0040 7047     		bx	lr
 3331              		.cfi_endproc
 3332              	.LFE1134:
 3334              		.section	.text.HAL_RTCEx_SetRefClock,"ax",%progbits
 3335              		.align	1
 3336              		.global	HAL_RTCEx_SetRefClock
 3337              		.syntax unified
 3338              		.thumb
 3339              		.thumb_func
 3341              	HAL_RTCEx_SetRefClock:
 3342              	.LVL221:
 3343              	.LFB1135:
1863:Drivers/STM32WBxx_HAL_Driver/Src/stm32wbxx_hal_rtc_ex.c **** 
1864:Drivers/STM32WBxx_HAL_Driver/Src/stm32wbxx_hal_rtc_ex.c **** /**
1865:Drivers/STM32WBxx_HAL_Driver/Src/stm32wbxx_hal_rtc_ex.c ****   * @brief  Enables the RTC reference clock detection.
1866:Drivers/STM32WBxx_HAL_Driver/Src/stm32wbxx_hal_rtc_ex.c ****   * @param  hrtc pointer to a RTC_HandleTypeDef structure that contains
1867:Drivers/STM32WBxx_HAL_Driver/Src/stm32wbxx_hal_rtc_ex.c ****   *                the configuration information for RTC.
1868:Drivers/STM32WBxx_HAL_Driver/Src/stm32wbxx_hal_rtc_ex.c ****   * @retval HAL status
1869:Drivers/STM32WBxx_HAL_Driver/Src/stm32wbxx_hal_rtc_ex.c ****   */
1870:Drivers/STM32WBxx_HAL_Driver/Src/stm32wbxx_hal_rtc_ex.c **** HAL_StatusTypeDef HAL_RTCEx_SetRefClock(RTC_HandleTypeDef *hrtc)
1871:Drivers/STM32WBxx_HAL_Driver/Src/stm32wbxx_hal_rtc_ex.c **** {
 3344              		.loc 1 1871 1 is_stmt 1 view -0
 3345              		.cfi_startproc
 3346              		@ args = 0, pretend = 0, frame = 0
ARM GAS  C:\Users\Nathan\AppData\Local\Temp\ccWT97xY.s 			page 96


 3347              		@ frame_needed = 0, uses_anonymous_args = 0
1872:Drivers/STM32WBxx_HAL_Driver/Src/stm32wbxx_hal_rtc_ex.c ****   HAL_StatusTypeDef status;
 3348              		.loc 1 1872 3 view .LVU1186
1873:Drivers/STM32WBxx_HAL_Driver/Src/stm32wbxx_hal_rtc_ex.c **** 
1874:Drivers/STM32WBxx_HAL_Driver/Src/stm32wbxx_hal_rtc_ex.c ****   /* Process Locked */
1875:Drivers/STM32WBxx_HAL_Driver/Src/stm32wbxx_hal_rtc_ex.c ****   __HAL_LOCK(hrtc);
 3349              		.loc 1 1875 3 view .LVU1187
 3350              		.loc 1 1875 3 view .LVU1188
 3351 0000 90F82030 		ldrb	r3, [r0, #32]	@ zero_extendqisi2
 3352 0004 012B     		cmp	r3, #1
 3353 0006 25D0     		beq	.L224
1871:Drivers/STM32WBxx_HAL_Driver/Src/stm32wbxx_hal_rtc_ex.c ****   HAL_StatusTypeDef status;
 3354              		.loc 1 1871 1 is_stmt 0 view .LVU1189
 3355 0008 10B5     		push	{r4, lr}
 3356              		.cfi_def_cfa_offset 8
 3357              		.cfi_offset 4, -8
 3358              		.cfi_offset 14, -4
 3359 000a 0446     		mov	r4, r0
 3360              		.loc 1 1875 3 is_stmt 1 discriminator 2 view .LVU1190
 3361 000c 0123     		movs	r3, #1
 3362 000e 80F82030 		strb	r3, [r0, #32]
 3363              		.loc 1 1875 3 discriminator 2 view .LVU1191
1876:Drivers/STM32WBxx_HAL_Driver/Src/stm32wbxx_hal_rtc_ex.c **** 
1877:Drivers/STM32WBxx_HAL_Driver/Src/stm32wbxx_hal_rtc_ex.c ****   hrtc->State = HAL_RTC_STATE_BUSY;
 3364              		.loc 1 1877 3 view .LVU1192
 3365              		.loc 1 1877 15 is_stmt 0 view .LVU1193
 3366 0012 0223     		movs	r3, #2
 3367 0014 80F82130 		strb	r3, [r0, #33]
1878:Drivers/STM32WBxx_HAL_Driver/Src/stm32wbxx_hal_rtc_ex.c **** 
1879:Drivers/STM32WBxx_HAL_Driver/Src/stm32wbxx_hal_rtc_ex.c ****   /* Disable the write protection for RTC registers */
1880:Drivers/STM32WBxx_HAL_Driver/Src/stm32wbxx_hal_rtc_ex.c ****   __HAL_RTC_WRITEPROTECTION_DISABLE(hrtc);
 3368              		.loc 1 1880 3 is_stmt 1 view .LVU1194
 3369              		.loc 1 1880 3 view .LVU1195
 3370 0018 0368     		ldr	r3, [r0]
 3371 001a CA22     		movs	r2, #202
 3372 001c 5A62     		str	r2, [r3, #36]
 3373              		.loc 1 1880 3 view .LVU1196
 3374 001e 0368     		ldr	r3, [r0]
 3375 0020 5322     		movs	r2, #83
 3376 0022 5A62     		str	r2, [r3, #36]
 3377              		.loc 1 1880 3 view .LVU1197
1881:Drivers/STM32WBxx_HAL_Driver/Src/stm32wbxx_hal_rtc_ex.c **** 
1882:Drivers/STM32WBxx_HAL_Driver/Src/stm32wbxx_hal_rtc_ex.c ****   /* Enter Initialization mode */
1883:Drivers/STM32WBxx_HAL_Driver/Src/stm32wbxx_hal_rtc_ex.c ****   status = RTC_EnterInitMode(hrtc);
 3378              		.loc 1 1883 3 view .LVU1198
 3379              		.loc 1 1883 12 is_stmt 0 view .LVU1199
 3380 0024 FFF7FEFF 		bl	RTC_EnterInitMode
 3381              	.LVL222:
1884:Drivers/STM32WBxx_HAL_Driver/Src/stm32wbxx_hal_rtc_ex.c **** 
1885:Drivers/STM32WBxx_HAL_Driver/Src/stm32wbxx_hal_rtc_ex.c ****   if (status == HAL_OK)
 3382              		.loc 1 1885 3 is_stmt 1 view .LVU1200
 3383              		.loc 1 1885 6 is_stmt 0 view .LVU1201
 3384 0028 30B1     		cbz	r0, .L229
 3385              	.L223:
 3386              	.LVL223:
1886:Drivers/STM32WBxx_HAL_Driver/Src/stm32wbxx_hal_rtc_ex.c ****   {
1887:Drivers/STM32WBxx_HAL_Driver/Src/stm32wbxx_hal_rtc_ex.c ****     /* Enable the reference clock detection */
ARM GAS  C:\Users\Nathan\AppData\Local\Temp\ccWT97xY.s 			page 97


1888:Drivers/STM32WBxx_HAL_Driver/Src/stm32wbxx_hal_rtc_ex.c ****     __HAL_RTC_CLOCKREF_DETECTION_ENABLE(hrtc);
1889:Drivers/STM32WBxx_HAL_Driver/Src/stm32wbxx_hal_rtc_ex.c **** 
1890:Drivers/STM32WBxx_HAL_Driver/Src/stm32wbxx_hal_rtc_ex.c ****     /* Exit Initialization mode */
1891:Drivers/STM32WBxx_HAL_Driver/Src/stm32wbxx_hal_rtc_ex.c ****     status = RTC_ExitInitMode(hrtc);
1892:Drivers/STM32WBxx_HAL_Driver/Src/stm32wbxx_hal_rtc_ex.c ****   }
1893:Drivers/STM32WBxx_HAL_Driver/Src/stm32wbxx_hal_rtc_ex.c **** 
1894:Drivers/STM32WBxx_HAL_Driver/Src/stm32wbxx_hal_rtc_ex.c ****   if (status == HAL_OK)
1895:Drivers/STM32WBxx_HAL_Driver/Src/stm32wbxx_hal_rtc_ex.c ****   {
1896:Drivers/STM32WBxx_HAL_Driver/Src/stm32wbxx_hal_rtc_ex.c ****     hrtc->State = HAL_RTC_STATE_READY;
1897:Drivers/STM32WBxx_HAL_Driver/Src/stm32wbxx_hal_rtc_ex.c ****   }
1898:Drivers/STM32WBxx_HAL_Driver/Src/stm32wbxx_hal_rtc_ex.c **** 
1899:Drivers/STM32WBxx_HAL_Driver/Src/stm32wbxx_hal_rtc_ex.c ****   /* Enable the write protection for RTC registers */
1900:Drivers/STM32WBxx_HAL_Driver/Src/stm32wbxx_hal_rtc_ex.c ****   __HAL_RTC_WRITEPROTECTION_ENABLE(hrtc);
 3387              		.loc 1 1900 3 is_stmt 1 view .LVU1202
 3388              		.loc 1 1900 3 view .LVU1203
 3389 002a 2368     		ldr	r3, [r4]
 3390 002c FF22     		movs	r2, #255
 3391 002e 5A62     		str	r2, [r3, #36]
 3392              		.loc 1 1900 3 view .LVU1204
1901:Drivers/STM32WBxx_HAL_Driver/Src/stm32wbxx_hal_rtc_ex.c **** 
1902:Drivers/STM32WBxx_HAL_Driver/Src/stm32wbxx_hal_rtc_ex.c ****   /* Process Unlocked */
1903:Drivers/STM32WBxx_HAL_Driver/Src/stm32wbxx_hal_rtc_ex.c ****   __HAL_UNLOCK(hrtc);
 3393              		.loc 1 1903 3 view .LVU1205
 3394              		.loc 1 1903 3 view .LVU1206
 3395 0030 0023     		movs	r3, #0
 3396 0032 84F82030 		strb	r3, [r4, #32]
 3397              		.loc 1 1903 3 view .LVU1207
1904:Drivers/STM32WBxx_HAL_Driver/Src/stm32wbxx_hal_rtc_ex.c **** 
1905:Drivers/STM32WBxx_HAL_Driver/Src/stm32wbxx_hal_rtc_ex.c ****   return status;
 3398              		.loc 1 1905 3 view .LVU1208
1906:Drivers/STM32WBxx_HAL_Driver/Src/stm32wbxx_hal_rtc_ex.c **** }
 3399              		.loc 1 1906 1 is_stmt 0 view .LVU1209
 3400 0036 10BD     		pop	{r4, pc}
 3401              	.LVL224:
 3402              	.L229:
1888:Drivers/STM32WBxx_HAL_Driver/Src/stm32wbxx_hal_rtc_ex.c **** 
 3403              		.loc 1 1888 5 is_stmt 1 view .LVU1210
 3404 0038 2268     		ldr	r2, [r4]
 3405 003a 9368     		ldr	r3, [r2, #8]
 3406 003c 43F01003 		orr	r3, r3, #16
 3407 0040 9360     		str	r3, [r2, #8]
1891:Drivers/STM32WBxx_HAL_Driver/Src/stm32wbxx_hal_rtc_ex.c ****   }
 3408              		.loc 1 1891 5 view .LVU1211
1891:Drivers/STM32WBxx_HAL_Driver/Src/stm32wbxx_hal_rtc_ex.c ****   }
 3409              		.loc 1 1891 14 is_stmt 0 view .LVU1212
 3410 0042 2046     		mov	r0, r4
 3411              	.LVL225:
1891:Drivers/STM32WBxx_HAL_Driver/Src/stm32wbxx_hal_rtc_ex.c ****   }
 3412              		.loc 1 1891 14 view .LVU1213
 3413 0044 FFF7FEFF 		bl	RTC_ExitInitMode
 3414              	.LVL226:
1894:Drivers/STM32WBxx_HAL_Driver/Src/stm32wbxx_hal_rtc_ex.c ****   {
 3415              		.loc 1 1894 3 is_stmt 1 view .LVU1214
1894:Drivers/STM32WBxx_HAL_Driver/Src/stm32wbxx_hal_rtc_ex.c ****   {
 3416              		.loc 1 1894 6 is_stmt 0 view .LVU1215
 3417 0048 0028     		cmp	r0, #0
 3418 004a EED1     		bne	.L223
ARM GAS  C:\Users\Nathan\AppData\Local\Temp\ccWT97xY.s 			page 98


1896:Drivers/STM32WBxx_HAL_Driver/Src/stm32wbxx_hal_rtc_ex.c ****   }
 3419              		.loc 1 1896 5 is_stmt 1 view .LVU1216
1896:Drivers/STM32WBxx_HAL_Driver/Src/stm32wbxx_hal_rtc_ex.c ****   }
 3420              		.loc 1 1896 17 is_stmt 0 view .LVU1217
 3421 004c 0123     		movs	r3, #1
 3422 004e 84F82130 		strb	r3, [r4, #33]
 3423 0052 EAE7     		b	.L223
 3424              	.LVL227:
 3425              	.L224:
 3426              		.cfi_def_cfa_offset 0
 3427              		.cfi_restore 4
 3428              		.cfi_restore 14
1875:Drivers/STM32WBxx_HAL_Driver/Src/stm32wbxx_hal_rtc_ex.c **** 
 3429              		.loc 1 1875 3 discriminator 1 view .LVU1218
 3430 0054 0220     		movs	r0, #2
 3431              	.LVL228:
 3432              		.loc 1 1906 1 view .LVU1219
 3433 0056 7047     		bx	lr
 3434              		.cfi_endproc
 3435              	.LFE1135:
 3437              		.section	.text.HAL_RTCEx_DeactivateRefClock,"ax",%progbits
 3438              		.align	1
 3439              		.global	HAL_RTCEx_DeactivateRefClock
 3440              		.syntax unified
 3441              		.thumb
 3442              		.thumb_func
 3444              	HAL_RTCEx_DeactivateRefClock:
 3445              	.LVL229:
 3446              	.LFB1136:
1907:Drivers/STM32WBxx_HAL_Driver/Src/stm32wbxx_hal_rtc_ex.c **** 
1908:Drivers/STM32WBxx_HAL_Driver/Src/stm32wbxx_hal_rtc_ex.c **** /**
1909:Drivers/STM32WBxx_HAL_Driver/Src/stm32wbxx_hal_rtc_ex.c ****   * @brief  Disable the RTC reference clock detection.
1910:Drivers/STM32WBxx_HAL_Driver/Src/stm32wbxx_hal_rtc_ex.c ****   * @param  hrtc pointer to a RTC_HandleTypeDef structure that contains
1911:Drivers/STM32WBxx_HAL_Driver/Src/stm32wbxx_hal_rtc_ex.c ****   *                the configuration information for RTC.
1912:Drivers/STM32WBxx_HAL_Driver/Src/stm32wbxx_hal_rtc_ex.c ****   * @retval HAL status
1913:Drivers/STM32WBxx_HAL_Driver/Src/stm32wbxx_hal_rtc_ex.c ****   */
1914:Drivers/STM32WBxx_HAL_Driver/Src/stm32wbxx_hal_rtc_ex.c **** HAL_StatusTypeDef HAL_RTCEx_DeactivateRefClock(RTC_HandleTypeDef *hrtc)
1915:Drivers/STM32WBxx_HAL_Driver/Src/stm32wbxx_hal_rtc_ex.c **** {
 3447              		.loc 1 1915 1 is_stmt 1 view -0
 3448              		.cfi_startproc
 3449              		@ args = 0, pretend = 0, frame = 0
 3450              		@ frame_needed = 0, uses_anonymous_args = 0
1916:Drivers/STM32WBxx_HAL_Driver/Src/stm32wbxx_hal_rtc_ex.c ****   HAL_StatusTypeDef status;
 3451              		.loc 1 1916 3 view .LVU1221
1917:Drivers/STM32WBxx_HAL_Driver/Src/stm32wbxx_hal_rtc_ex.c **** 
1918:Drivers/STM32WBxx_HAL_Driver/Src/stm32wbxx_hal_rtc_ex.c ****   /* Process Locked */
1919:Drivers/STM32WBxx_HAL_Driver/Src/stm32wbxx_hal_rtc_ex.c ****   __HAL_LOCK(hrtc);
 3452              		.loc 1 1919 3 view .LVU1222
 3453              		.loc 1 1919 3 view .LVU1223
 3454 0000 90F82030 		ldrb	r3, [r0, #32]	@ zero_extendqisi2
 3455 0004 012B     		cmp	r3, #1
 3456 0006 25D0     		beq	.L233
1915:Drivers/STM32WBxx_HAL_Driver/Src/stm32wbxx_hal_rtc_ex.c ****   HAL_StatusTypeDef status;
 3457              		.loc 1 1915 1 is_stmt 0 view .LVU1224
 3458 0008 10B5     		push	{r4, lr}
 3459              		.cfi_def_cfa_offset 8
 3460              		.cfi_offset 4, -8
ARM GAS  C:\Users\Nathan\AppData\Local\Temp\ccWT97xY.s 			page 99


 3461              		.cfi_offset 14, -4
 3462 000a 0446     		mov	r4, r0
 3463              		.loc 1 1919 3 is_stmt 1 discriminator 2 view .LVU1225
 3464 000c 0123     		movs	r3, #1
 3465 000e 80F82030 		strb	r3, [r0, #32]
 3466              		.loc 1 1919 3 discriminator 2 view .LVU1226
1920:Drivers/STM32WBxx_HAL_Driver/Src/stm32wbxx_hal_rtc_ex.c **** 
1921:Drivers/STM32WBxx_HAL_Driver/Src/stm32wbxx_hal_rtc_ex.c ****   hrtc->State = HAL_RTC_STATE_BUSY;
 3467              		.loc 1 1921 3 view .LVU1227
 3468              		.loc 1 1921 15 is_stmt 0 view .LVU1228
 3469 0012 0223     		movs	r3, #2
 3470 0014 80F82130 		strb	r3, [r0, #33]
1922:Drivers/STM32WBxx_HAL_Driver/Src/stm32wbxx_hal_rtc_ex.c **** 
1923:Drivers/STM32WBxx_HAL_Driver/Src/stm32wbxx_hal_rtc_ex.c ****   /* Disable the write protection for RTC registers */
1924:Drivers/STM32WBxx_HAL_Driver/Src/stm32wbxx_hal_rtc_ex.c ****   __HAL_RTC_WRITEPROTECTION_DISABLE(hrtc);
 3471              		.loc 1 1924 3 is_stmt 1 view .LVU1229
 3472              		.loc 1 1924 3 view .LVU1230
 3473 0018 0368     		ldr	r3, [r0]
 3474 001a CA22     		movs	r2, #202
 3475 001c 5A62     		str	r2, [r3, #36]
 3476              		.loc 1 1924 3 view .LVU1231
 3477 001e 0368     		ldr	r3, [r0]
 3478 0020 5322     		movs	r2, #83
 3479 0022 5A62     		str	r2, [r3, #36]
 3480              		.loc 1 1924 3 view .LVU1232
1925:Drivers/STM32WBxx_HAL_Driver/Src/stm32wbxx_hal_rtc_ex.c **** 
1926:Drivers/STM32WBxx_HAL_Driver/Src/stm32wbxx_hal_rtc_ex.c ****   /* Enter Initialization mode */
1927:Drivers/STM32WBxx_HAL_Driver/Src/stm32wbxx_hal_rtc_ex.c ****   status = RTC_EnterInitMode(hrtc);
 3481              		.loc 1 1927 3 view .LVU1233
 3482              		.loc 1 1927 12 is_stmt 0 view .LVU1234
 3483 0024 FFF7FEFF 		bl	RTC_EnterInitMode
 3484              	.LVL230:
1928:Drivers/STM32WBxx_HAL_Driver/Src/stm32wbxx_hal_rtc_ex.c **** 
1929:Drivers/STM32WBxx_HAL_Driver/Src/stm32wbxx_hal_rtc_ex.c ****   if (status == HAL_OK)
 3485              		.loc 1 1929 3 is_stmt 1 view .LVU1235
 3486              		.loc 1 1929 6 is_stmt 0 view .LVU1236
 3487 0028 30B1     		cbz	r0, .L238
 3488              	.L232:
 3489              	.LVL231:
1930:Drivers/STM32WBxx_HAL_Driver/Src/stm32wbxx_hal_rtc_ex.c ****   {
1931:Drivers/STM32WBxx_HAL_Driver/Src/stm32wbxx_hal_rtc_ex.c ****     /* Disable the reference clock detection */
1932:Drivers/STM32WBxx_HAL_Driver/Src/stm32wbxx_hal_rtc_ex.c ****     __HAL_RTC_CLOCKREF_DETECTION_DISABLE(hrtc);
1933:Drivers/STM32WBxx_HAL_Driver/Src/stm32wbxx_hal_rtc_ex.c **** 
1934:Drivers/STM32WBxx_HAL_Driver/Src/stm32wbxx_hal_rtc_ex.c ****     /* Exit Initialization mode */
1935:Drivers/STM32WBxx_HAL_Driver/Src/stm32wbxx_hal_rtc_ex.c ****     status = RTC_ExitInitMode(hrtc);
1936:Drivers/STM32WBxx_HAL_Driver/Src/stm32wbxx_hal_rtc_ex.c ****   }
1937:Drivers/STM32WBxx_HAL_Driver/Src/stm32wbxx_hal_rtc_ex.c **** 
1938:Drivers/STM32WBxx_HAL_Driver/Src/stm32wbxx_hal_rtc_ex.c ****   if (status == HAL_OK)
1939:Drivers/STM32WBxx_HAL_Driver/Src/stm32wbxx_hal_rtc_ex.c ****   {
1940:Drivers/STM32WBxx_HAL_Driver/Src/stm32wbxx_hal_rtc_ex.c ****     hrtc->State = HAL_RTC_STATE_READY;
1941:Drivers/STM32WBxx_HAL_Driver/Src/stm32wbxx_hal_rtc_ex.c ****   }
1942:Drivers/STM32WBxx_HAL_Driver/Src/stm32wbxx_hal_rtc_ex.c **** 
1943:Drivers/STM32WBxx_HAL_Driver/Src/stm32wbxx_hal_rtc_ex.c ****   /* Enable the write protection for RTC registers */
1944:Drivers/STM32WBxx_HAL_Driver/Src/stm32wbxx_hal_rtc_ex.c ****   __HAL_RTC_WRITEPROTECTION_ENABLE(hrtc);
 3490              		.loc 1 1944 3 is_stmt 1 view .LVU1237
 3491              		.loc 1 1944 3 view .LVU1238
 3492 002a 2368     		ldr	r3, [r4]
ARM GAS  C:\Users\Nathan\AppData\Local\Temp\ccWT97xY.s 			page 100


 3493 002c FF22     		movs	r2, #255
 3494 002e 5A62     		str	r2, [r3, #36]
 3495              		.loc 1 1944 3 view .LVU1239
1945:Drivers/STM32WBxx_HAL_Driver/Src/stm32wbxx_hal_rtc_ex.c **** 
1946:Drivers/STM32WBxx_HAL_Driver/Src/stm32wbxx_hal_rtc_ex.c ****   /* Process Unlocked */
1947:Drivers/STM32WBxx_HAL_Driver/Src/stm32wbxx_hal_rtc_ex.c ****   __HAL_UNLOCK(hrtc);
 3496              		.loc 1 1947 3 view .LVU1240
 3497              		.loc 1 1947 3 view .LVU1241
 3498 0030 0023     		movs	r3, #0
 3499 0032 84F82030 		strb	r3, [r4, #32]
 3500              		.loc 1 1947 3 view .LVU1242
1948:Drivers/STM32WBxx_HAL_Driver/Src/stm32wbxx_hal_rtc_ex.c **** 
1949:Drivers/STM32WBxx_HAL_Driver/Src/stm32wbxx_hal_rtc_ex.c ****   return status;
 3501              		.loc 1 1949 3 view .LVU1243
1950:Drivers/STM32WBxx_HAL_Driver/Src/stm32wbxx_hal_rtc_ex.c **** }
 3502              		.loc 1 1950 1 is_stmt 0 view .LVU1244
 3503 0036 10BD     		pop	{r4, pc}
 3504              	.LVL232:
 3505              	.L238:
1932:Drivers/STM32WBxx_HAL_Driver/Src/stm32wbxx_hal_rtc_ex.c **** 
 3506              		.loc 1 1932 5 is_stmt 1 view .LVU1245
 3507 0038 2268     		ldr	r2, [r4]
 3508 003a 9368     		ldr	r3, [r2, #8]
 3509 003c 23F01003 		bic	r3, r3, #16
 3510 0040 9360     		str	r3, [r2, #8]
1935:Drivers/STM32WBxx_HAL_Driver/Src/stm32wbxx_hal_rtc_ex.c ****   }
 3511              		.loc 1 1935 5 view .LVU1246
1935:Drivers/STM32WBxx_HAL_Driver/Src/stm32wbxx_hal_rtc_ex.c ****   }
 3512              		.loc 1 1935 14 is_stmt 0 view .LVU1247
 3513 0042 2046     		mov	r0, r4
 3514              	.LVL233:
1935:Drivers/STM32WBxx_HAL_Driver/Src/stm32wbxx_hal_rtc_ex.c ****   }
 3515              		.loc 1 1935 14 view .LVU1248
 3516 0044 FFF7FEFF 		bl	RTC_ExitInitMode
 3517              	.LVL234:
1938:Drivers/STM32WBxx_HAL_Driver/Src/stm32wbxx_hal_rtc_ex.c ****   {
 3518              		.loc 1 1938 3 is_stmt 1 view .LVU1249
1938:Drivers/STM32WBxx_HAL_Driver/Src/stm32wbxx_hal_rtc_ex.c ****   {
 3519              		.loc 1 1938 6 is_stmt 0 view .LVU1250
 3520 0048 0028     		cmp	r0, #0
 3521 004a EED1     		bne	.L232
1940:Drivers/STM32WBxx_HAL_Driver/Src/stm32wbxx_hal_rtc_ex.c ****   }
 3522              		.loc 1 1940 5 is_stmt 1 view .LVU1251
1940:Drivers/STM32WBxx_HAL_Driver/Src/stm32wbxx_hal_rtc_ex.c ****   }
 3523              		.loc 1 1940 17 is_stmt 0 view .LVU1252
 3524 004c 0123     		movs	r3, #1
 3525 004e 84F82130 		strb	r3, [r4, #33]
 3526 0052 EAE7     		b	.L232
 3527              	.LVL235:
 3528              	.L233:
 3529              		.cfi_def_cfa_offset 0
 3530              		.cfi_restore 4
 3531              		.cfi_restore 14
1919:Drivers/STM32WBxx_HAL_Driver/Src/stm32wbxx_hal_rtc_ex.c **** 
 3532              		.loc 1 1919 3 discriminator 1 view .LVU1253
 3533 0054 0220     		movs	r0, #2
 3534              	.LVL236:
ARM GAS  C:\Users\Nathan\AppData\Local\Temp\ccWT97xY.s 			page 101


 3535              		.loc 1 1950 1 view .LVU1254
 3536 0056 7047     		bx	lr
 3537              		.cfi_endproc
 3538              	.LFE1136:
 3540              		.section	.text.HAL_RTCEx_EnableBypassShadow,"ax",%progbits
 3541              		.align	1
 3542              		.global	HAL_RTCEx_EnableBypassShadow
 3543              		.syntax unified
 3544              		.thumb
 3545              		.thumb_func
 3547              	HAL_RTCEx_EnableBypassShadow:
 3548              	.LVL237:
 3549              	.LFB1137:
1951:Drivers/STM32WBxx_HAL_Driver/Src/stm32wbxx_hal_rtc_ex.c **** 
1952:Drivers/STM32WBxx_HAL_Driver/Src/stm32wbxx_hal_rtc_ex.c **** /**
1953:Drivers/STM32WBxx_HAL_Driver/Src/stm32wbxx_hal_rtc_ex.c ****   * @brief  Enables the Bypass Shadow feature.
1954:Drivers/STM32WBxx_HAL_Driver/Src/stm32wbxx_hal_rtc_ex.c ****   * @param  hrtc pointer to a RTC_HandleTypeDef structure that contains
1955:Drivers/STM32WBxx_HAL_Driver/Src/stm32wbxx_hal_rtc_ex.c ****   *                the configuration information for RTC.
1956:Drivers/STM32WBxx_HAL_Driver/Src/stm32wbxx_hal_rtc_ex.c ****   * @note   When the Bypass Shadow is enabled the calendar value are taken
1957:Drivers/STM32WBxx_HAL_Driver/Src/stm32wbxx_hal_rtc_ex.c ****   *         directly from the Calendar counter.
1958:Drivers/STM32WBxx_HAL_Driver/Src/stm32wbxx_hal_rtc_ex.c ****   * @retval HAL status
1959:Drivers/STM32WBxx_HAL_Driver/Src/stm32wbxx_hal_rtc_ex.c ****   */
1960:Drivers/STM32WBxx_HAL_Driver/Src/stm32wbxx_hal_rtc_ex.c **** HAL_StatusTypeDef HAL_RTCEx_EnableBypassShadow(RTC_HandleTypeDef *hrtc)
1961:Drivers/STM32WBxx_HAL_Driver/Src/stm32wbxx_hal_rtc_ex.c **** {
 3550              		.loc 1 1961 1 is_stmt 1 view -0
 3551              		.cfi_startproc
 3552              		@ args = 0, pretend = 0, frame = 0
 3553              		@ frame_needed = 0, uses_anonymous_args = 0
 3554              		@ link register save eliminated.
1962:Drivers/STM32WBxx_HAL_Driver/Src/stm32wbxx_hal_rtc_ex.c ****   /* Process Locked */
1963:Drivers/STM32WBxx_HAL_Driver/Src/stm32wbxx_hal_rtc_ex.c ****   __HAL_LOCK(hrtc);
 3555              		.loc 1 1963 3 view .LVU1256
 3556              		.loc 1 1963 3 view .LVU1257
 3557 0000 90F82030 		ldrb	r3, [r0, #32]	@ zero_extendqisi2
 3558 0004 012B     		cmp	r3, #1
 3559 0006 1AD0     		beq	.L241
 3560              		.loc 1 1963 3 discriminator 2 view .LVU1258
 3561 0008 0122     		movs	r2, #1
 3562 000a 80F82020 		strb	r2, [r0, #32]
 3563              		.loc 1 1963 3 discriminator 2 view .LVU1259
1964:Drivers/STM32WBxx_HAL_Driver/Src/stm32wbxx_hal_rtc_ex.c **** 
1965:Drivers/STM32WBxx_HAL_Driver/Src/stm32wbxx_hal_rtc_ex.c ****   hrtc->State = HAL_RTC_STATE_BUSY;
 3564              		.loc 1 1965 3 view .LVU1260
 3565              		.loc 1 1965 15 is_stmt 0 view .LVU1261
 3566 000e 0223     		movs	r3, #2
 3567 0010 80F82130 		strb	r3, [r0, #33]
1966:Drivers/STM32WBxx_HAL_Driver/Src/stm32wbxx_hal_rtc_ex.c **** 
1967:Drivers/STM32WBxx_HAL_Driver/Src/stm32wbxx_hal_rtc_ex.c ****   /* Disable the write protection for RTC registers */
1968:Drivers/STM32WBxx_HAL_Driver/Src/stm32wbxx_hal_rtc_ex.c ****   __HAL_RTC_WRITEPROTECTION_DISABLE(hrtc);
 3568              		.loc 1 1968 3 is_stmt 1 view .LVU1262
 3569              		.loc 1 1968 3 view .LVU1263
 3570 0014 0368     		ldr	r3, [r0]
 3571 0016 CA21     		movs	r1, #202
 3572 0018 5962     		str	r1, [r3, #36]
 3573              		.loc 1 1968 3 view .LVU1264
 3574 001a 0368     		ldr	r3, [r0]
 3575 001c 5321     		movs	r1, #83
ARM GAS  C:\Users\Nathan\AppData\Local\Temp\ccWT97xY.s 			page 102


 3576 001e 5962     		str	r1, [r3, #36]
 3577              		.loc 1 1968 3 view .LVU1265
1969:Drivers/STM32WBxx_HAL_Driver/Src/stm32wbxx_hal_rtc_ex.c **** 
1970:Drivers/STM32WBxx_HAL_Driver/Src/stm32wbxx_hal_rtc_ex.c ****   /* Set the BYPSHAD bit */
1971:Drivers/STM32WBxx_HAL_Driver/Src/stm32wbxx_hal_rtc_ex.c ****   hrtc->Instance->CR |= (uint32_t)RTC_CR_BYPSHAD;
 3578              		.loc 1 1971 3 view .LVU1266
 3579              		.loc 1 1971 7 is_stmt 0 view .LVU1267
 3580 0020 0168     		ldr	r1, [r0]
 3581              		.loc 1 1971 17 view .LVU1268
 3582 0022 8B68     		ldr	r3, [r1, #8]
 3583              		.loc 1 1971 22 view .LVU1269
 3584 0024 43F02003 		orr	r3, r3, #32
 3585 0028 8B60     		str	r3, [r1, #8]
1972:Drivers/STM32WBxx_HAL_Driver/Src/stm32wbxx_hal_rtc_ex.c **** 
1973:Drivers/STM32WBxx_HAL_Driver/Src/stm32wbxx_hal_rtc_ex.c ****   /* Enable the write protection for RTC registers */
1974:Drivers/STM32WBxx_HAL_Driver/Src/stm32wbxx_hal_rtc_ex.c ****   __HAL_RTC_WRITEPROTECTION_ENABLE(hrtc);
 3586              		.loc 1 1974 3 is_stmt 1 view .LVU1270
 3587              		.loc 1 1974 3 view .LVU1271
 3588 002a 0368     		ldr	r3, [r0]
 3589 002c FF21     		movs	r1, #255
 3590 002e 5962     		str	r1, [r3, #36]
 3591              		.loc 1 1974 3 view .LVU1272
1975:Drivers/STM32WBxx_HAL_Driver/Src/stm32wbxx_hal_rtc_ex.c **** 
1976:Drivers/STM32WBxx_HAL_Driver/Src/stm32wbxx_hal_rtc_ex.c ****   /* Change RTC state */
1977:Drivers/STM32WBxx_HAL_Driver/Src/stm32wbxx_hal_rtc_ex.c ****   hrtc->State = HAL_RTC_STATE_READY;
 3592              		.loc 1 1977 3 view .LVU1273
 3593              		.loc 1 1977 15 is_stmt 0 view .LVU1274
 3594 0030 80F82120 		strb	r2, [r0, #33]
1978:Drivers/STM32WBxx_HAL_Driver/Src/stm32wbxx_hal_rtc_ex.c **** 
1979:Drivers/STM32WBxx_HAL_Driver/Src/stm32wbxx_hal_rtc_ex.c ****   /* Process Unlocked */
1980:Drivers/STM32WBxx_HAL_Driver/Src/stm32wbxx_hal_rtc_ex.c ****   __HAL_UNLOCK(hrtc);
 3595              		.loc 1 1980 3 is_stmt 1 view .LVU1275
 3596              		.loc 1 1980 3 view .LVU1276
 3597 0034 0023     		movs	r3, #0
 3598 0036 80F82030 		strb	r3, [r0, #32]
 3599              		.loc 1 1980 3 view .LVU1277
1981:Drivers/STM32WBxx_HAL_Driver/Src/stm32wbxx_hal_rtc_ex.c **** 
1982:Drivers/STM32WBxx_HAL_Driver/Src/stm32wbxx_hal_rtc_ex.c ****   return HAL_OK;
 3600              		.loc 1 1982 3 view .LVU1278
 3601              		.loc 1 1982 10 is_stmt 0 view .LVU1279
 3602 003a 1846     		mov	r0, r3
 3603              	.LVL238:
 3604              		.loc 1 1982 10 view .LVU1280
 3605 003c 7047     		bx	lr
 3606              	.LVL239:
 3607              	.L241:
1963:Drivers/STM32WBxx_HAL_Driver/Src/stm32wbxx_hal_rtc_ex.c **** 
 3608              		.loc 1 1963 3 discriminator 1 view .LVU1281
 3609 003e 0220     		movs	r0, #2
 3610              	.LVL240:
1983:Drivers/STM32WBxx_HAL_Driver/Src/stm32wbxx_hal_rtc_ex.c **** }
 3611              		.loc 1 1983 1 view .LVU1282
 3612 0040 7047     		bx	lr
 3613              		.cfi_endproc
 3614              	.LFE1137:
 3616              		.section	.text.HAL_RTCEx_DisableBypassShadow,"ax",%progbits
 3617              		.align	1
ARM GAS  C:\Users\Nathan\AppData\Local\Temp\ccWT97xY.s 			page 103


 3618              		.global	HAL_RTCEx_DisableBypassShadow
 3619              		.syntax unified
 3620              		.thumb
 3621              		.thumb_func
 3623              	HAL_RTCEx_DisableBypassShadow:
 3624              	.LVL241:
 3625              	.LFB1138:
1984:Drivers/STM32WBxx_HAL_Driver/Src/stm32wbxx_hal_rtc_ex.c **** 
1985:Drivers/STM32WBxx_HAL_Driver/Src/stm32wbxx_hal_rtc_ex.c **** /**
1986:Drivers/STM32WBxx_HAL_Driver/Src/stm32wbxx_hal_rtc_ex.c ****   * @brief  Disables the Bypass Shadow feature.
1987:Drivers/STM32WBxx_HAL_Driver/Src/stm32wbxx_hal_rtc_ex.c ****   * @param  hrtc pointer to a RTC_HandleTypeDef structure that contains
1988:Drivers/STM32WBxx_HAL_Driver/Src/stm32wbxx_hal_rtc_ex.c ****   *                the configuration information for RTC.
1989:Drivers/STM32WBxx_HAL_Driver/Src/stm32wbxx_hal_rtc_ex.c ****   * @note   When the Bypass Shadow is enabled the calendar value are taken
1990:Drivers/STM32WBxx_HAL_Driver/Src/stm32wbxx_hal_rtc_ex.c ****   *         directly from the Calendar counter.
1991:Drivers/STM32WBxx_HAL_Driver/Src/stm32wbxx_hal_rtc_ex.c ****   * @retval HAL status
1992:Drivers/STM32WBxx_HAL_Driver/Src/stm32wbxx_hal_rtc_ex.c ****   */
1993:Drivers/STM32WBxx_HAL_Driver/Src/stm32wbxx_hal_rtc_ex.c **** HAL_StatusTypeDef HAL_RTCEx_DisableBypassShadow(RTC_HandleTypeDef *hrtc)
1994:Drivers/STM32WBxx_HAL_Driver/Src/stm32wbxx_hal_rtc_ex.c **** {
 3626              		.loc 1 1994 1 is_stmt 1 view -0
 3627              		.cfi_startproc
 3628              		@ args = 0, pretend = 0, frame = 0
 3629              		@ frame_needed = 0, uses_anonymous_args = 0
 3630              		@ link register save eliminated.
1995:Drivers/STM32WBxx_HAL_Driver/Src/stm32wbxx_hal_rtc_ex.c ****   /* Process Locked */
1996:Drivers/STM32WBxx_HAL_Driver/Src/stm32wbxx_hal_rtc_ex.c ****   __HAL_LOCK(hrtc);
 3631              		.loc 1 1996 3 view .LVU1284
 3632              		.loc 1 1996 3 view .LVU1285
 3633 0000 90F82030 		ldrb	r3, [r0, #32]	@ zero_extendqisi2
 3634 0004 012B     		cmp	r3, #1
 3635 0006 1AD0     		beq	.L244
 3636              		.loc 1 1996 3 discriminator 2 view .LVU1286
 3637 0008 0122     		movs	r2, #1
 3638 000a 80F82020 		strb	r2, [r0, #32]
 3639              		.loc 1 1996 3 discriminator 2 view .LVU1287
1997:Drivers/STM32WBxx_HAL_Driver/Src/stm32wbxx_hal_rtc_ex.c **** 
1998:Drivers/STM32WBxx_HAL_Driver/Src/stm32wbxx_hal_rtc_ex.c ****   hrtc->State = HAL_RTC_STATE_BUSY;
 3640              		.loc 1 1998 3 view .LVU1288
 3641              		.loc 1 1998 15 is_stmt 0 view .LVU1289
 3642 000e 0223     		movs	r3, #2
 3643 0010 80F82130 		strb	r3, [r0, #33]
1999:Drivers/STM32WBxx_HAL_Driver/Src/stm32wbxx_hal_rtc_ex.c **** 
2000:Drivers/STM32WBxx_HAL_Driver/Src/stm32wbxx_hal_rtc_ex.c ****   /* Disable the write protection for RTC registers */
2001:Drivers/STM32WBxx_HAL_Driver/Src/stm32wbxx_hal_rtc_ex.c ****   __HAL_RTC_WRITEPROTECTION_DISABLE(hrtc);
 3644              		.loc 1 2001 3 is_stmt 1 view .LVU1290
 3645              		.loc 1 2001 3 view .LVU1291
 3646 0014 0368     		ldr	r3, [r0]
 3647 0016 CA21     		movs	r1, #202
 3648 0018 5962     		str	r1, [r3, #36]
 3649              		.loc 1 2001 3 view .LVU1292
 3650 001a 0368     		ldr	r3, [r0]
 3651 001c 5321     		movs	r1, #83
 3652 001e 5962     		str	r1, [r3, #36]
 3653              		.loc 1 2001 3 view .LVU1293
2002:Drivers/STM32WBxx_HAL_Driver/Src/stm32wbxx_hal_rtc_ex.c **** 
2003:Drivers/STM32WBxx_HAL_Driver/Src/stm32wbxx_hal_rtc_ex.c ****   /* Reset the BYPSHAD bit */
2004:Drivers/STM32WBxx_HAL_Driver/Src/stm32wbxx_hal_rtc_ex.c ****   hrtc->Instance->CR &= (uint32_t)~RTC_CR_BYPSHAD;
 3654              		.loc 1 2004 3 view .LVU1294
ARM GAS  C:\Users\Nathan\AppData\Local\Temp\ccWT97xY.s 			page 104


 3655              		.loc 1 2004 7 is_stmt 0 view .LVU1295
 3656 0020 0168     		ldr	r1, [r0]
 3657              		.loc 1 2004 17 view .LVU1296
 3658 0022 8B68     		ldr	r3, [r1, #8]
 3659              		.loc 1 2004 22 view .LVU1297
 3660 0024 23F02003 		bic	r3, r3, #32
 3661 0028 8B60     		str	r3, [r1, #8]
2005:Drivers/STM32WBxx_HAL_Driver/Src/stm32wbxx_hal_rtc_ex.c **** 
2006:Drivers/STM32WBxx_HAL_Driver/Src/stm32wbxx_hal_rtc_ex.c ****   /* Enable the write protection for RTC registers */
2007:Drivers/STM32WBxx_HAL_Driver/Src/stm32wbxx_hal_rtc_ex.c ****   __HAL_RTC_WRITEPROTECTION_ENABLE(hrtc);
 3662              		.loc 1 2007 3 is_stmt 1 view .LVU1298
 3663              		.loc 1 2007 3 view .LVU1299
 3664 002a 0368     		ldr	r3, [r0]
 3665 002c FF21     		movs	r1, #255
 3666 002e 5962     		str	r1, [r3, #36]
 3667              		.loc 1 2007 3 view .LVU1300
2008:Drivers/STM32WBxx_HAL_Driver/Src/stm32wbxx_hal_rtc_ex.c **** 
2009:Drivers/STM32WBxx_HAL_Driver/Src/stm32wbxx_hal_rtc_ex.c ****   /* Change RTC state */
2010:Drivers/STM32WBxx_HAL_Driver/Src/stm32wbxx_hal_rtc_ex.c ****   hrtc->State = HAL_RTC_STATE_READY;
 3668              		.loc 1 2010 3 view .LVU1301
 3669              		.loc 1 2010 15 is_stmt 0 view .LVU1302
 3670 0030 80F82120 		strb	r2, [r0, #33]
2011:Drivers/STM32WBxx_HAL_Driver/Src/stm32wbxx_hal_rtc_ex.c **** 
2012:Drivers/STM32WBxx_HAL_Driver/Src/stm32wbxx_hal_rtc_ex.c ****   /* Process Unlocked */
2013:Drivers/STM32WBxx_HAL_Driver/Src/stm32wbxx_hal_rtc_ex.c ****   __HAL_UNLOCK(hrtc);
 3671              		.loc 1 2013 3 is_stmt 1 view .LVU1303
 3672              		.loc 1 2013 3 view .LVU1304
 3673 0034 0023     		movs	r3, #0
 3674 0036 80F82030 		strb	r3, [r0, #32]
 3675              		.loc 1 2013 3 view .LVU1305
2014:Drivers/STM32WBxx_HAL_Driver/Src/stm32wbxx_hal_rtc_ex.c **** 
2015:Drivers/STM32WBxx_HAL_Driver/Src/stm32wbxx_hal_rtc_ex.c ****   return HAL_OK;
 3676              		.loc 1 2015 3 view .LVU1306
 3677              		.loc 1 2015 10 is_stmt 0 view .LVU1307
 3678 003a 1846     		mov	r0, r3
 3679              	.LVL242:
 3680              		.loc 1 2015 10 view .LVU1308
 3681 003c 7047     		bx	lr
 3682              	.LVL243:
 3683              	.L244:
1996:Drivers/STM32WBxx_HAL_Driver/Src/stm32wbxx_hal_rtc_ex.c **** 
 3684              		.loc 1 1996 3 discriminator 1 view .LVU1309
 3685 003e 0220     		movs	r0, #2
 3686              	.LVL244:
2016:Drivers/STM32WBxx_HAL_Driver/Src/stm32wbxx_hal_rtc_ex.c **** }
 3687              		.loc 1 2016 1 view .LVU1310
 3688 0040 7047     		bx	lr
 3689              		.cfi_endproc
 3690              	.LFE1138:
 3692              		.section	.text.HAL_RTCEx_AlarmBEventCallback,"ax",%progbits
 3693              		.align	1
 3694              		.weak	HAL_RTCEx_AlarmBEventCallback
 3695              		.syntax unified
 3696              		.thumb
 3697              		.thumb_func
 3699              	HAL_RTCEx_AlarmBEventCallback:
 3700              	.LVL245:
ARM GAS  C:\Users\Nathan\AppData\Local\Temp\ccWT97xY.s 			page 105


 3701              	.LFB1139:
2017:Drivers/STM32WBxx_HAL_Driver/Src/stm32wbxx_hal_rtc_ex.c **** 
2018:Drivers/STM32WBxx_HAL_Driver/Src/stm32wbxx_hal_rtc_ex.c **** /**
2019:Drivers/STM32WBxx_HAL_Driver/Src/stm32wbxx_hal_rtc_ex.c ****   * @}
2020:Drivers/STM32WBxx_HAL_Driver/Src/stm32wbxx_hal_rtc_ex.c ****   */
2021:Drivers/STM32WBxx_HAL_Driver/Src/stm32wbxx_hal_rtc_ex.c **** 
2022:Drivers/STM32WBxx_HAL_Driver/Src/stm32wbxx_hal_rtc_ex.c **** /** @defgroup RTCEx_Exported_Functions_Group4 Extended features functions
2023:Drivers/STM32WBxx_HAL_Driver/Src/stm32wbxx_hal_rtc_ex.c ****   * @brief    Extended features functions
2024:Drivers/STM32WBxx_HAL_Driver/Src/stm32wbxx_hal_rtc_ex.c ****   *
2025:Drivers/STM32WBxx_HAL_Driver/Src/stm32wbxx_hal_rtc_ex.c **** @verbatim
2026:Drivers/STM32WBxx_HAL_Driver/Src/stm32wbxx_hal_rtc_ex.c ****  ===============================================================================
2027:Drivers/STM32WBxx_HAL_Driver/Src/stm32wbxx_hal_rtc_ex.c ****                  ##### Extended features functions #####
2028:Drivers/STM32WBxx_HAL_Driver/Src/stm32wbxx_hal_rtc_ex.c ****  ===============================================================================
2029:Drivers/STM32WBxx_HAL_Driver/Src/stm32wbxx_hal_rtc_ex.c ****     [..]  This section provides functions allowing to:
2030:Drivers/STM32WBxx_HAL_Driver/Src/stm32wbxx_hal_rtc_ex.c ****       (+) RTC Alarm B callback
2031:Drivers/STM32WBxx_HAL_Driver/Src/stm32wbxx_hal_rtc_ex.c ****       (+) RTC Poll for Alarm B request
2032:Drivers/STM32WBxx_HAL_Driver/Src/stm32wbxx_hal_rtc_ex.c **** 
2033:Drivers/STM32WBxx_HAL_Driver/Src/stm32wbxx_hal_rtc_ex.c **** @endverbatim
2034:Drivers/STM32WBxx_HAL_Driver/Src/stm32wbxx_hal_rtc_ex.c ****   * @{
2035:Drivers/STM32WBxx_HAL_Driver/Src/stm32wbxx_hal_rtc_ex.c ****   */
2036:Drivers/STM32WBxx_HAL_Driver/Src/stm32wbxx_hal_rtc_ex.c **** 
2037:Drivers/STM32WBxx_HAL_Driver/Src/stm32wbxx_hal_rtc_ex.c **** /**
2038:Drivers/STM32WBxx_HAL_Driver/Src/stm32wbxx_hal_rtc_ex.c ****   * @brief  Alarm B callback.
2039:Drivers/STM32WBxx_HAL_Driver/Src/stm32wbxx_hal_rtc_ex.c ****   * @param  hrtc pointer to a RTC_HandleTypeDef structure that contains
2040:Drivers/STM32WBxx_HAL_Driver/Src/stm32wbxx_hal_rtc_ex.c ****   *                the configuration information for RTC.
2041:Drivers/STM32WBxx_HAL_Driver/Src/stm32wbxx_hal_rtc_ex.c ****   * @retval None
2042:Drivers/STM32WBxx_HAL_Driver/Src/stm32wbxx_hal_rtc_ex.c ****   */
2043:Drivers/STM32WBxx_HAL_Driver/Src/stm32wbxx_hal_rtc_ex.c **** __weak void HAL_RTCEx_AlarmBEventCallback(RTC_HandleTypeDef *hrtc)
2044:Drivers/STM32WBxx_HAL_Driver/Src/stm32wbxx_hal_rtc_ex.c **** {
 3702              		.loc 1 2044 1 is_stmt 1 view -0
 3703              		.cfi_startproc
 3704              		@ args = 0, pretend = 0, frame = 0
 3705              		@ frame_needed = 0, uses_anonymous_args = 0
 3706              		@ link register save eliminated.
2045:Drivers/STM32WBxx_HAL_Driver/Src/stm32wbxx_hal_rtc_ex.c ****   /* Prevent unused argument(s) compilation warning */
2046:Drivers/STM32WBxx_HAL_Driver/Src/stm32wbxx_hal_rtc_ex.c ****   UNUSED(hrtc);
 3707              		.loc 1 2046 3 view .LVU1312
2047:Drivers/STM32WBxx_HAL_Driver/Src/stm32wbxx_hal_rtc_ex.c **** 
2048:Drivers/STM32WBxx_HAL_Driver/Src/stm32wbxx_hal_rtc_ex.c ****   /* NOTE: This function should not be modified, when the callback is needed,
2049:Drivers/STM32WBxx_HAL_Driver/Src/stm32wbxx_hal_rtc_ex.c ****            the HAL_RTCEx_AlarmBEventCallback could be implemented in the user file
2050:Drivers/STM32WBxx_HAL_Driver/Src/stm32wbxx_hal_rtc_ex.c ****    */
2051:Drivers/STM32WBxx_HAL_Driver/Src/stm32wbxx_hal_rtc_ex.c **** }
 3708              		.loc 1 2051 1 is_stmt 0 view .LVU1313
 3709 0000 7047     		bx	lr
 3710              		.cfi_endproc
 3711              	.LFE1139:
 3713              		.section	.text.HAL_RTCEx_PollForAlarmBEvent,"ax",%progbits
 3714              		.align	1
 3715              		.global	HAL_RTCEx_PollForAlarmBEvent
 3716              		.syntax unified
 3717              		.thumb
 3718              		.thumb_func
 3720              	HAL_RTCEx_PollForAlarmBEvent:
 3721              	.LVL246:
 3722              	.LFB1140:
2052:Drivers/STM32WBxx_HAL_Driver/Src/stm32wbxx_hal_rtc_ex.c **** 
2053:Drivers/STM32WBxx_HAL_Driver/Src/stm32wbxx_hal_rtc_ex.c **** /**
ARM GAS  C:\Users\Nathan\AppData\Local\Temp\ccWT97xY.s 			page 106


2054:Drivers/STM32WBxx_HAL_Driver/Src/stm32wbxx_hal_rtc_ex.c ****   * @brief  Handles Alarm B Polling request.
2055:Drivers/STM32WBxx_HAL_Driver/Src/stm32wbxx_hal_rtc_ex.c ****   * @param  hrtc pointer to a RTC_HandleTypeDef structure that contains
2056:Drivers/STM32WBxx_HAL_Driver/Src/stm32wbxx_hal_rtc_ex.c ****   *                the configuration information for RTC.
2057:Drivers/STM32WBxx_HAL_Driver/Src/stm32wbxx_hal_rtc_ex.c ****   * @param  Timeout Timeout duration
2058:Drivers/STM32WBxx_HAL_Driver/Src/stm32wbxx_hal_rtc_ex.c ****   * @retval HAL status
2059:Drivers/STM32WBxx_HAL_Driver/Src/stm32wbxx_hal_rtc_ex.c ****   */
2060:Drivers/STM32WBxx_HAL_Driver/Src/stm32wbxx_hal_rtc_ex.c **** HAL_StatusTypeDef HAL_RTCEx_PollForAlarmBEvent(RTC_HandleTypeDef *hrtc, uint32_t Timeout)
2061:Drivers/STM32WBxx_HAL_Driver/Src/stm32wbxx_hal_rtc_ex.c **** {
 3723              		.loc 1 2061 1 is_stmt 1 view -0
 3724              		.cfi_startproc
 3725              		@ args = 0, pretend = 0, frame = 0
 3726              		@ frame_needed = 0, uses_anonymous_args = 0
 3727              		.loc 1 2061 1 is_stmt 0 view .LVU1315
 3728 0000 70B5     		push	{r4, r5, r6, lr}
 3729              		.cfi_def_cfa_offset 16
 3730              		.cfi_offset 4, -16
 3731              		.cfi_offset 5, -12
 3732              		.cfi_offset 6, -8
 3733              		.cfi_offset 14, -4
 3734 0002 0446     		mov	r4, r0
 3735 0004 0D46     		mov	r5, r1
2062:Drivers/STM32WBxx_HAL_Driver/Src/stm32wbxx_hal_rtc_ex.c ****   uint32_t tickstart = 0U;
 3736              		.loc 1 2062 3 is_stmt 1 view .LVU1316
 3737              	.LVL247:
2063:Drivers/STM32WBxx_HAL_Driver/Src/stm32wbxx_hal_rtc_ex.c **** 
2064:Drivers/STM32WBxx_HAL_Driver/Src/stm32wbxx_hal_rtc_ex.c ****   /* Get tick */
2065:Drivers/STM32WBxx_HAL_Driver/Src/stm32wbxx_hal_rtc_ex.c ****   tickstart = HAL_GetTick();
 3738              		.loc 1 2065 3 view .LVU1317
 3739              		.loc 1 2065 15 is_stmt 0 view .LVU1318
 3740 0006 FFF7FEFF 		bl	HAL_GetTick
 3741              	.LVL248:
 3742              		.loc 1 2065 15 view .LVU1319
 3743 000a 0646     		mov	r6, r0
 3744              	.LVL249:
2066:Drivers/STM32WBxx_HAL_Driver/Src/stm32wbxx_hal_rtc_ex.c **** 
2067:Drivers/STM32WBxx_HAL_Driver/Src/stm32wbxx_hal_rtc_ex.c ****   /* Wait till RTC ALRBF flag is set and if timeout is reached exit */
2068:Drivers/STM32WBxx_HAL_Driver/Src/stm32wbxx_hal_rtc_ex.c ****   while (__HAL_RTC_ALARM_GET_FLAG(hrtc, RTC_FLAG_ALRBF) == 0U)
 3745              		.loc 1 2068 3 is_stmt 1 view .LVU1320
 3746              	.L248:
 3747              		.loc 1 2068 57 view .LVU1321
 3748              		.loc 1 2068 10 is_stmt 0 view .LVU1322
 3749 000c 2368     		ldr	r3, [r4]
 3750 000e DA68     		ldr	r2, [r3, #12]
 3751              		.loc 1 2068 57 view .LVU1323
 3752 0010 12F4007F 		tst	r2, #512
 3753 0014 0CD1     		bne	.L253
2069:Drivers/STM32WBxx_HAL_Driver/Src/stm32wbxx_hal_rtc_ex.c ****   {
2070:Drivers/STM32WBxx_HAL_Driver/Src/stm32wbxx_hal_rtc_ex.c ****     if (Timeout != HAL_MAX_DELAY)
 3754              		.loc 1 2070 5 is_stmt 1 view .LVU1324
 3755              		.loc 1 2070 8 is_stmt 0 view .LVU1325
 3756 0016 B5F1FF3F 		cmp	r5, #-1
 3757 001a F7D0     		beq	.L248
2071:Drivers/STM32WBxx_HAL_Driver/Src/stm32wbxx_hal_rtc_ex.c ****     {
2072:Drivers/STM32WBxx_HAL_Driver/Src/stm32wbxx_hal_rtc_ex.c ****       if ((Timeout == 0U) || ((HAL_GetTick() - tickstart) > Timeout))
 3758              		.loc 1 2072 7 is_stmt 1 view .LVU1326
 3759              		.loc 1 2072 10 is_stmt 0 view .LVU1327
 3760 001c 25B1     		cbz	r5, .L249
ARM GAS  C:\Users\Nathan\AppData\Local\Temp\ccWT97xY.s 			page 107


 3761              		.loc 1 2072 32 discriminator 1 view .LVU1328
 3762 001e FFF7FEFF 		bl	HAL_GetTick
 3763              	.LVL250:
 3764              		.loc 1 2072 46 discriminator 1 view .LVU1329
 3765 0022 801B     		subs	r0, r0, r6
 3766              		.loc 1 2072 27 discriminator 1 view .LVU1330
 3767 0024 A842     		cmp	r0, r5
 3768 0026 F1D9     		bls	.L248
 3769              	.L249:
2073:Drivers/STM32WBxx_HAL_Driver/Src/stm32wbxx_hal_rtc_ex.c ****       {
2074:Drivers/STM32WBxx_HAL_Driver/Src/stm32wbxx_hal_rtc_ex.c ****         hrtc->State = HAL_RTC_STATE_TIMEOUT;
 3770              		.loc 1 2074 9 is_stmt 1 view .LVU1331
 3771              		.loc 1 2074 21 is_stmt 0 view .LVU1332
 3772 0028 0320     		movs	r0, #3
 3773 002a 84F82100 		strb	r0, [r4, #33]
2075:Drivers/STM32WBxx_HAL_Driver/Src/stm32wbxx_hal_rtc_ex.c ****         return HAL_TIMEOUT;
 3774              		.loc 1 2075 9 is_stmt 1 view .LVU1333
 3775              		.loc 1 2075 16 is_stmt 0 view .LVU1334
 3776 002e 08E0     		b	.L250
 3777              	.L253:
2076:Drivers/STM32WBxx_HAL_Driver/Src/stm32wbxx_hal_rtc_ex.c ****       }
2077:Drivers/STM32WBxx_HAL_Driver/Src/stm32wbxx_hal_rtc_ex.c ****     }
2078:Drivers/STM32WBxx_HAL_Driver/Src/stm32wbxx_hal_rtc_ex.c ****   }
2079:Drivers/STM32WBxx_HAL_Driver/Src/stm32wbxx_hal_rtc_ex.c **** 
2080:Drivers/STM32WBxx_HAL_Driver/Src/stm32wbxx_hal_rtc_ex.c ****   /* Clear the Alarm flag */
2081:Drivers/STM32WBxx_HAL_Driver/Src/stm32wbxx_hal_rtc_ex.c ****   __HAL_RTC_ALARM_CLEAR_FLAG(hrtc, RTC_FLAG_ALRBF);
 3778              		.loc 1 2081 3 is_stmt 1 view .LVU1335
 3779 0030 DA68     		ldr	r2, [r3, #12]
 3780 0032 D2B2     		uxtb	r2, r2
 3781 0034 62F42072 		orn	r2, r2, #640
 3782 0038 DA60     		str	r2, [r3, #12]
2082:Drivers/STM32WBxx_HAL_Driver/Src/stm32wbxx_hal_rtc_ex.c **** 
2083:Drivers/STM32WBxx_HAL_Driver/Src/stm32wbxx_hal_rtc_ex.c ****   /* Change RTC state */
2084:Drivers/STM32WBxx_HAL_Driver/Src/stm32wbxx_hal_rtc_ex.c ****   hrtc->State = HAL_RTC_STATE_READY;
 3783              		.loc 1 2084 3 view .LVU1336
 3784              		.loc 1 2084 15 is_stmt 0 view .LVU1337
 3785 003a 0123     		movs	r3, #1
 3786 003c 84F82130 		strb	r3, [r4, #33]
2085:Drivers/STM32WBxx_HAL_Driver/Src/stm32wbxx_hal_rtc_ex.c **** 
2086:Drivers/STM32WBxx_HAL_Driver/Src/stm32wbxx_hal_rtc_ex.c ****   return HAL_OK;
 3787              		.loc 1 2086 3 is_stmt 1 view .LVU1338
 3788              		.loc 1 2086 10 is_stmt 0 view .LVU1339
 3789 0040 0020     		movs	r0, #0
 3790              	.L250:
2087:Drivers/STM32WBxx_HAL_Driver/Src/stm32wbxx_hal_rtc_ex.c **** }
 3791              		.loc 1 2087 1 view .LVU1340
 3792 0042 70BD     		pop	{r4, r5, r6, pc}
 3793              		.loc 1 2087 1 view .LVU1341
 3794              		.cfi_endproc
 3795              	.LFE1140:
 3797              		.text
 3798              	.Letext0:
 3799              		.file 2 "C:/PROGRAM FILES (X86)/ARM GNU TOOLCHAIN ARM-NONE-EABI/13.3 REL1/arm-none-eabi/include/ma
 3800              		.file 3 "C:/PROGRAM FILES (X86)/ARM GNU TOOLCHAIN ARM-NONE-EABI/13.3 REL1/arm-none-eabi/include/sy
 3801              		.file 4 "Drivers/CMSIS/Device/ST/STM32WBxx/Include/stm32wb55xx.h"
 3802              		.file 5 "Drivers/STM32WBxx_HAL_Driver/Inc/stm32wbxx_hal_def.h"
 3803              		.file 6 "Drivers/STM32WBxx_HAL_Driver/Inc/stm32wbxx_hal_rtc.h"
ARM GAS  C:\Users\Nathan\AppData\Local\Temp\ccWT97xY.s 			page 108


 3804              		.file 7 "Drivers/STM32WBxx_HAL_Driver/Inc/stm32wbxx_hal_rtc_ex.h"
 3805              		.file 8 "Drivers/CMSIS/Device/ST/STM32WBxx/Include/system_stm32wbxx.h"
 3806              		.file 9 "Drivers/STM32WBxx_HAL_Driver/Inc/stm32wbxx_hal.h"
ARM GAS  C:\Users\Nathan\AppData\Local\Temp\ccWT97xY.s 			page 109


DEFINED SYMBOLS
                            *ABS*:00000000 stm32wbxx_hal_rtc_ex.c
C:\Users\Nathan\AppData\Local\Temp\ccWT97xY.s:21     .text.HAL_RTCEx_SetTimeStamp:00000000 $t
C:\Users\Nathan\AppData\Local\Temp\ccWT97xY.s:27     .text.HAL_RTCEx_SetTimeStamp:00000000 HAL_RTCEx_SetTimeStamp
C:\Users\Nathan\AppData\Local\Temp\ccWT97xY.s:140    .text.HAL_RTCEx_SetTimeStamp_IT:00000000 $t
C:\Users\Nathan\AppData\Local\Temp\ccWT97xY.s:146    .text.HAL_RTCEx_SetTimeStamp_IT:00000000 HAL_RTCEx_SetTimeStamp_IT
C:\Users\Nathan\AppData\Local\Temp\ccWT97xY.s:272    .text.HAL_RTCEx_SetTimeStamp_IT:00000090 $d
C:\Users\Nathan\AppData\Local\Temp\ccWT97xY.s:277    .text.HAL_RTCEx_DeactivateTimeStamp:00000000 $t
C:\Users\Nathan\AppData\Local\Temp\ccWT97xY.s:283    .text.HAL_RTCEx_DeactivateTimeStamp:00000000 HAL_RTCEx_DeactivateTimeStamp
C:\Users\Nathan\AppData\Local\Temp\ccWT97xY.s:369    .text.HAL_RTCEx_SetInternalTimeStamp:00000000 $t
C:\Users\Nathan\AppData\Local\Temp\ccWT97xY.s:375    .text.HAL_RTCEx_SetInternalTimeStamp:00000000 HAL_RTCEx_SetInternalTimeStamp
C:\Users\Nathan\AppData\Local\Temp\ccWT97xY.s:455    .text.HAL_RTCEx_SetInternalTimeStamp:00000054 $d
C:\Users\Nathan\AppData\Local\Temp\ccWT97xY.s:460    .text.HAL_RTCEx_DeactivateInternalTimeStamp:00000000 $t
C:\Users\Nathan\AppData\Local\Temp\ccWT97xY.s:466    .text.HAL_RTCEx_DeactivateInternalTimeStamp:00000000 HAL_RTCEx_DeactivateInternalTimeStamp
C:\Users\Nathan\AppData\Local\Temp\ccWT97xY.s:533    .text.HAL_RTCEx_GetTimeStamp:00000000 $t
C:\Users\Nathan\AppData\Local\Temp\ccWT97xY.s:539    .text.HAL_RTCEx_GetTimeStamp:00000000 HAL_RTCEx_GetTimeStamp
C:\Users\Nathan\AppData\Local\Temp\ccWT97xY.s:690    .text.HAL_RTCEx_GetTimeStamp:00000094 $d
C:\Users\Nathan\AppData\Local\Temp\ccWT97xY.s:695    .text.HAL_RTCEx_SetTamper:00000000 $t
C:\Users\Nathan\AppData\Local\Temp\ccWT97xY.s:701    .text.HAL_RTCEx_SetTamper:00000000 HAL_RTCEx_SetTamper
C:\Users\Nathan\AppData\Local\Temp\ccWT97xY.s:989    .text.HAL_RTCEx_SetTamper_IT:00000000 $t
C:\Users\Nathan\AppData\Local\Temp\ccWT97xY.s:995    .text.HAL_RTCEx_SetTamper_IT:00000000 HAL_RTCEx_SetTamper_IT
C:\Users\Nathan\AppData\Local\Temp\ccWT97xY.s:1258   .text.HAL_RTCEx_SetTamper_IT:00000104 $d
C:\Users\Nathan\AppData\Local\Temp\ccWT97xY.s:1263   .text.HAL_RTCEx_DeactivateTamper:00000000 $t
C:\Users\Nathan\AppData\Local\Temp\ccWT97xY.s:1269   .text.HAL_RTCEx_DeactivateTamper:00000000 HAL_RTCEx_DeactivateTamper
C:\Users\Nathan\AppData\Local\Temp\ccWT97xY.s:1368   .text.HAL_RTCEx_TimeStampEventCallback:00000000 $t
C:\Users\Nathan\AppData\Local\Temp\ccWT97xY.s:1374   .text.HAL_RTCEx_TimeStampEventCallback:00000000 HAL_RTCEx_TimeStampEventCallback
C:\Users\Nathan\AppData\Local\Temp\ccWT97xY.s:1389   .text.HAL_RTCEx_Tamper1EventCallback:00000000 $t
C:\Users\Nathan\AppData\Local\Temp\ccWT97xY.s:1395   .text.HAL_RTCEx_Tamper1EventCallback:00000000 HAL_RTCEx_Tamper1EventCallback
C:\Users\Nathan\AppData\Local\Temp\ccWT97xY.s:1410   .text.HAL_RTCEx_Tamper2EventCallback:00000000 $t
C:\Users\Nathan\AppData\Local\Temp\ccWT97xY.s:1416   .text.HAL_RTCEx_Tamper2EventCallback:00000000 HAL_RTCEx_Tamper2EventCallback
C:\Users\Nathan\AppData\Local\Temp\ccWT97xY.s:1431   .text.HAL_RTCEx_Tamper3EventCallback:00000000 $t
C:\Users\Nathan\AppData\Local\Temp\ccWT97xY.s:1437   .text.HAL_RTCEx_Tamper3EventCallback:00000000 HAL_RTCEx_Tamper3EventCallback
C:\Users\Nathan\AppData\Local\Temp\ccWT97xY.s:1452   .text.HAL_RTCEx_TamperTimeStampIRQHandler:00000000 $t
C:\Users\Nathan\AppData\Local\Temp\ccWT97xY.s:1458   .text.HAL_RTCEx_TamperTimeStampIRQHandler:00000000 HAL_RTCEx_TamperTimeStampIRQHandler
C:\Users\Nathan\AppData\Local\Temp\ccWT97xY.s:1592   .text.HAL_RTCEx_TamperTimeStampIRQHandler:000000b0 $d
C:\Users\Nathan\AppData\Local\Temp\ccWT97xY.s:1600   .text.HAL_RTCEx_PollForTimeStampEvent:00000000 $t
C:\Users\Nathan\AppData\Local\Temp\ccWT97xY.s:1606   .text.HAL_RTCEx_PollForTimeStampEvent:00000000 HAL_RTCEx_PollForTimeStampEvent
C:\Users\Nathan\AppData\Local\Temp\ccWT97xY.s:1703   .text.HAL_RTCEx_PollForTamper1Event:00000000 $t
C:\Users\Nathan\AppData\Local\Temp\ccWT97xY.s:1709   .text.HAL_RTCEx_PollForTamper1Event:00000000 HAL_RTCEx_PollForTamper1Event
C:\Users\Nathan\AppData\Local\Temp\ccWT97xY.s:1787   .text.HAL_RTCEx_PollForTamper2Event:00000000 $t
C:\Users\Nathan\AppData\Local\Temp\ccWT97xY.s:1793   .text.HAL_RTCEx_PollForTamper2Event:00000000 HAL_RTCEx_PollForTamper2Event
C:\Users\Nathan\AppData\Local\Temp\ccWT97xY.s:1871   .text.HAL_RTCEx_PollForTamper3Event:00000000 $t
C:\Users\Nathan\AppData\Local\Temp\ccWT97xY.s:1877   .text.HAL_RTCEx_PollForTamper3Event:00000000 HAL_RTCEx_PollForTamper3Event
C:\Users\Nathan\AppData\Local\Temp\ccWT97xY.s:1956   .text.HAL_RTCEx_SetWakeUpTimer:00000000 $t
C:\Users\Nathan\AppData\Local\Temp\ccWT97xY.s:1962   .text.HAL_RTCEx_SetWakeUpTimer:00000000 HAL_RTCEx_SetWakeUpTimer
C:\Users\Nathan\AppData\Local\Temp\ccWT97xY.s:2172   .text.HAL_RTCEx_SetWakeUpTimer_IT:00000000 $t
C:\Users\Nathan\AppData\Local\Temp\ccWT97xY.s:2178   .text.HAL_RTCEx_SetWakeUpTimer_IT:00000000 HAL_RTCEx_SetWakeUpTimer_IT
C:\Users\Nathan\AppData\Local\Temp\ccWT97xY.s:2410   .text.HAL_RTCEx_SetWakeUpTimer_IT:00000120 $d
C:\Users\Nathan\AppData\Local\Temp\ccWT97xY.s:2417   .text.HAL_RTCEx_DeactivateWakeUpTimer:00000000 $t
C:\Users\Nathan\AppData\Local\Temp\ccWT97xY.s:2423   .text.HAL_RTCEx_DeactivateWakeUpTimer:00000000 HAL_RTCEx_DeactivateWakeUpTimer
C:\Users\Nathan\AppData\Local\Temp\ccWT97xY.s:2547   .text.HAL_RTCEx_GetWakeUpTimer:00000000 $t
C:\Users\Nathan\AppData\Local\Temp\ccWT97xY.s:2553   .text.HAL_RTCEx_GetWakeUpTimer:00000000 HAL_RTCEx_GetWakeUpTimer
C:\Users\Nathan\AppData\Local\Temp\ccWT97xY.s:2574   .text.HAL_RTCEx_WakeUpTimerEventCallback:00000000 $t
C:\Users\Nathan\AppData\Local\Temp\ccWT97xY.s:2580   .text.HAL_RTCEx_WakeUpTimerEventCallback:00000000 HAL_RTCEx_WakeUpTimerEventCallback
C:\Users\Nathan\AppData\Local\Temp\ccWT97xY.s:2595   .text.HAL_RTCEx_WakeUpTimerIRQHandler:00000000 $t
C:\Users\Nathan\AppData\Local\Temp\ccWT97xY.s:2601   .text.HAL_RTCEx_WakeUpTimerIRQHandler:00000000 HAL_RTCEx_WakeUpTimerIRQHandler
C:\Users\Nathan\AppData\Local\Temp\ccWT97xY.s:2648   .text.HAL_RTCEx_WakeUpTimerIRQHandler:00000030 $d
ARM GAS  C:\Users\Nathan\AppData\Local\Temp\ccWT97xY.s 			page 110


C:\Users\Nathan\AppData\Local\Temp\ccWT97xY.s:2653   .text.HAL_RTCEx_PollForWakeUpTimerEvent:00000000 $t
C:\Users\Nathan\AppData\Local\Temp\ccWT97xY.s:2659   .text.HAL_RTCEx_PollForWakeUpTimerEvent:00000000 HAL_RTCEx_PollForWakeUpTimerEvent
C:\Users\Nathan\AppData\Local\Temp\ccWT97xY.s:2737   .text.HAL_RTCEx_BKUPWrite:00000000 $t
C:\Users\Nathan\AppData\Local\Temp\ccWT97xY.s:2743   .text.HAL_RTCEx_BKUPWrite:00000000 HAL_RTCEx_BKUPWrite
C:\Users\Nathan\AppData\Local\Temp\ccWT97xY.s:2769   .text.HAL_RTCEx_BKUPRead:00000000 $t
C:\Users\Nathan\AppData\Local\Temp\ccWT97xY.s:2775   .text.HAL_RTCEx_BKUPRead:00000000 HAL_RTCEx_BKUPRead
C:\Users\Nathan\AppData\Local\Temp\ccWT97xY.s:2802   .text.HAL_RTCEx_SetSmoothCalib:00000000 $t
C:\Users\Nathan\AppData\Local\Temp\ccWT97xY.s:2808   .text.HAL_RTCEx_SetSmoothCalib:00000000 HAL_RTCEx_SetSmoothCalib
C:\Users\Nathan\AppData\Local\Temp\ccWT97xY.s:2957   .text.HAL_RTCEx_SetSynchroShift:00000000 $t
C:\Users\Nathan\AppData\Local\Temp\ccWT97xY.s:2963   .text.HAL_RTCEx_SetSynchroShift:00000000 HAL_RTCEx_SetSynchroShift
C:\Users\Nathan\AppData\Local\Temp\ccWT97xY.s:3163   .text.HAL_RTCEx_SetCalibrationOutPut:00000000 $t
C:\Users\Nathan\AppData\Local\Temp\ccWT97xY.s:3169   .text.HAL_RTCEx_SetCalibrationOutPut:00000000 HAL_RTCEx_SetCalibrationOutPut
C:\Users\Nathan\AppData\Local\Temp\ccWT97xY.s:3262   .text.HAL_RTCEx_DeactivateCalibrationOutPut:00000000 $t
C:\Users\Nathan\AppData\Local\Temp\ccWT97xY.s:3268   .text.HAL_RTCEx_DeactivateCalibrationOutPut:00000000 HAL_RTCEx_DeactivateCalibrationOutPut
C:\Users\Nathan\AppData\Local\Temp\ccWT97xY.s:3335   .text.HAL_RTCEx_SetRefClock:00000000 $t
C:\Users\Nathan\AppData\Local\Temp\ccWT97xY.s:3341   .text.HAL_RTCEx_SetRefClock:00000000 HAL_RTCEx_SetRefClock
C:\Users\Nathan\AppData\Local\Temp\ccWT97xY.s:3438   .text.HAL_RTCEx_DeactivateRefClock:00000000 $t
C:\Users\Nathan\AppData\Local\Temp\ccWT97xY.s:3444   .text.HAL_RTCEx_DeactivateRefClock:00000000 HAL_RTCEx_DeactivateRefClock
C:\Users\Nathan\AppData\Local\Temp\ccWT97xY.s:3541   .text.HAL_RTCEx_EnableBypassShadow:00000000 $t
C:\Users\Nathan\AppData\Local\Temp\ccWT97xY.s:3547   .text.HAL_RTCEx_EnableBypassShadow:00000000 HAL_RTCEx_EnableBypassShadow
C:\Users\Nathan\AppData\Local\Temp\ccWT97xY.s:3617   .text.HAL_RTCEx_DisableBypassShadow:00000000 $t
C:\Users\Nathan\AppData\Local\Temp\ccWT97xY.s:3623   .text.HAL_RTCEx_DisableBypassShadow:00000000 HAL_RTCEx_DisableBypassShadow
C:\Users\Nathan\AppData\Local\Temp\ccWT97xY.s:3693   .text.HAL_RTCEx_AlarmBEventCallback:00000000 $t
C:\Users\Nathan\AppData\Local\Temp\ccWT97xY.s:3699   .text.HAL_RTCEx_AlarmBEventCallback:00000000 HAL_RTCEx_AlarmBEventCallback
C:\Users\Nathan\AppData\Local\Temp\ccWT97xY.s:3714   .text.HAL_RTCEx_PollForAlarmBEvent:00000000 $t
C:\Users\Nathan\AppData\Local\Temp\ccWT97xY.s:3720   .text.HAL_RTCEx_PollForAlarmBEvent:00000000 HAL_RTCEx_PollForAlarmBEvent

UNDEFINED SYMBOLS
RTC_Bcd2ToByte
HAL_GetTick
SystemCoreClock
HAL_RTC_WaitForSynchro
RTC_EnterInitMode
RTC_ExitInitMode
