ARM GAS  C:\Users\Nathan\AppData\Local\Temp\ccWT97xY.s 			page 1


   1              		.cpu cortex-m4
   2              		.arch armv7e-m
   3              		.fpu fpv4-sp-d16
   4              		.eabi_attribute 27, 1
   5              		.eabi_attribute 28, 1
   6              		.eabi_attribute 20, 1
   7              		.eabi_attribute 21, 1
   8              		.eabi_attribute 23, 3
   9              		.eabi_attribute 24, 1
  10              		.eabi_attribute 25, 1
  11              		.eabi_attribute 26, 1
  12              		.eabi_attribute 30, 1
  13              		.eabi_attribute 34, 1
  14              		.eabi_attribute 18, 4
  15              		.file	"stm32wbxx_hal_rtc_ex.c"
  16              		.text
  17              	.Ltext0:
  18              		.cfi_sections	.debug_frame
  19              		.file 1 "Drivers/STM32WBxx_HAL_Driver/Src/stm32wbxx_hal_rtc_ex.c"
  20              		.section	.text.HAL_RTCEx_SetTimeStamp,"ax",%progbits
  21              		.align	1
  22              		.global	HAL_RTCEx_SetTimeStamp
  23              		.syntax unified
  24              		.thumb
  25              		.thumb_func
  27              	HAL_RTCEx_SetTimeStamp:
  28              	.LVL0:
  29              	.LFB1104:
   1:Drivers/STM32WBxx_HAL_Driver/Src/stm32wbxx_hal_rtc_ex.c **** /**
   2:Drivers/STM32WBxx_HAL_Driver/Src/stm32wbxx_hal_rtc_ex.c ****   ******************************************************************************
   3:Drivers/STM32WBxx_HAL_Driver/Src/stm32wbxx_hal_rtc_ex.c ****   * @file    stm32wbxx_hal_rtc_ex.c
   4:Drivers/STM32WBxx_HAL_Driver/Src/stm32wbxx_hal_rtc_ex.c ****   * @author  MCD Application Team
   5:Drivers/STM32WBxx_HAL_Driver/Src/stm32wbxx_hal_rtc_ex.c ****   * @brief   Extended RTC HAL module driver.
   6:Drivers/STM32WBxx_HAL_Driver/Src/stm32wbxx_hal_rtc_ex.c ****   *          This file provides firmware functions to manage the following
   7:Drivers/STM32WBxx_HAL_Driver/Src/stm32wbxx_hal_rtc_ex.c ****   *          functionalities of the Real-Time Clock (RTC) Extended peripheral:
   8:Drivers/STM32WBxx_HAL_Driver/Src/stm32wbxx_hal_rtc_ex.c ****   *           + RTC Timestamp functions
   9:Drivers/STM32WBxx_HAL_Driver/Src/stm32wbxx_hal_rtc_ex.c ****   *           + RTC Tamper functions
  10:Drivers/STM32WBxx_HAL_Driver/Src/stm32wbxx_hal_rtc_ex.c ****   *           + RTC Wakeup functions
  11:Drivers/STM32WBxx_HAL_Driver/Src/stm32wbxx_hal_rtc_ex.c ****   *           + Extended Control functions
  12:Drivers/STM32WBxx_HAL_Driver/Src/stm32wbxx_hal_rtc_ex.c ****   *           + Extended RTC features functions
  13:Drivers/STM32WBxx_HAL_Driver/Src/stm32wbxx_hal_rtc_ex.c ****   *
  14:Drivers/STM32WBxx_HAL_Driver/Src/stm32wbxx_hal_rtc_ex.c ****   ******************************************************************************
  15:Drivers/STM32WBxx_HAL_Driver/Src/stm32wbxx_hal_rtc_ex.c ****   * @attention
  16:Drivers/STM32WBxx_HAL_Driver/Src/stm32wbxx_hal_rtc_ex.c ****   *
  17:Drivers/STM32WBxx_HAL_Driver/Src/stm32wbxx_hal_rtc_ex.c ****   * Copyright (c) 2019 STMicroelectronics.
  18:Drivers/STM32WBxx_HAL_Driver/Src/stm32wbxx_hal_rtc_ex.c ****   * All rights reserved.
  19:Drivers/STM32WBxx_HAL_Driver/Src/stm32wbxx_hal_rtc_ex.c ****   *
  20:Drivers/STM32WBxx_HAL_Driver/Src/stm32wbxx_hal_rtc_ex.c ****   * This software is licensed under terms that can be found in the LICENSE file
  21:Drivers/STM32WBxx_HAL_Driver/Src/stm32wbxx_hal_rtc_ex.c ****   * in the root directory of this software component.
  22:Drivers/STM32WBxx_HAL_Driver/Src/stm32wbxx_hal_rtc_ex.c ****   * If no LICENSE file comes with this software, it is provided AS-IS.
  23:Drivers/STM32WBxx_HAL_Driver/Src/stm32wbxx_hal_rtc_ex.c ****   *
  24:Drivers/STM32WBxx_HAL_Driver/Src/stm32wbxx_hal_rtc_ex.c ****   ******************************************************************************
  25:Drivers/STM32WBxx_HAL_Driver/Src/stm32wbxx_hal_rtc_ex.c ****   @verbatim
  26:Drivers/STM32WBxx_HAL_Driver/Src/stm32wbxx_hal_rtc_ex.c ****   ==============================================================================
  27:Drivers/STM32WBxx_HAL_Driver/Src/stm32wbxx_hal_rtc_ex.c ****                         ##### How to use this driver #####
  28:Drivers/STM32WBxx_HAL_Driver/Src/stm32wbxx_hal_rtc_ex.c ****   ==============================================================================
  29:Drivers/STM32WBxx_HAL_Driver/Src/stm32wbxx_hal_rtc_ex.c ****   [..]
ARM GAS  C:\Users\Nathan\AppData\Local\Temp\ccWT97xY.s 			page 2


  30:Drivers/STM32WBxx_HAL_Driver/Src/stm32wbxx_hal_rtc_ex.c ****     (+) Enable the RTC domain access.
  31:Drivers/STM32WBxx_HAL_Driver/Src/stm32wbxx_hal_rtc_ex.c ****     (+) Configure the RTC Prescaler (Asynchronous and Synchronous) and RTC hour
  32:Drivers/STM32WBxx_HAL_Driver/Src/stm32wbxx_hal_rtc_ex.c ****         format using the HAL_RTC_Init() function.
  33:Drivers/STM32WBxx_HAL_Driver/Src/stm32wbxx_hal_rtc_ex.c **** 
  34:Drivers/STM32WBxx_HAL_Driver/Src/stm32wbxx_hal_rtc_ex.c ****   *** RTC Wakeup configuration ***
  35:Drivers/STM32WBxx_HAL_Driver/Src/stm32wbxx_hal_rtc_ex.c ****   ================================
  36:Drivers/STM32WBxx_HAL_Driver/Src/stm32wbxx_hal_rtc_ex.c ****   [..]
  37:Drivers/STM32WBxx_HAL_Driver/Src/stm32wbxx_hal_rtc_ex.c ****     (+) To configure the RTC Wakeup Clock source and Counter use the
  38:Drivers/STM32WBxx_HAL_Driver/Src/stm32wbxx_hal_rtc_ex.c ****         HAL_RTCEx_SetWakeUpTimer() function.
  39:Drivers/STM32WBxx_HAL_Driver/Src/stm32wbxx_hal_rtc_ex.c ****         You can also configure the RTC Wakeup timer in interrupt mode using the
  40:Drivers/STM32WBxx_HAL_Driver/Src/stm32wbxx_hal_rtc_ex.c ****         HAL_RTCEx_SetWakeUpTimer_IT() function.
  41:Drivers/STM32WBxx_HAL_Driver/Src/stm32wbxx_hal_rtc_ex.c ****     (+) To read the RTC Wakeup Counter register, use the HAL_RTCEx_GetWakeUpTimer()
  42:Drivers/STM32WBxx_HAL_Driver/Src/stm32wbxx_hal_rtc_ex.c ****         function.
  43:Drivers/STM32WBxx_HAL_Driver/Src/stm32wbxx_hal_rtc_ex.c **** 
  44:Drivers/STM32WBxx_HAL_Driver/Src/stm32wbxx_hal_rtc_ex.c ****   *** Timestamp configuration ***
  45:Drivers/STM32WBxx_HAL_Driver/Src/stm32wbxx_hal_rtc_ex.c ****   ===============================
  46:Drivers/STM32WBxx_HAL_Driver/Src/stm32wbxx_hal_rtc_ex.c ****   [..]
  47:Drivers/STM32WBxx_HAL_Driver/Src/stm32wbxx_hal_rtc_ex.c ****     (+) To configure the RTC Timestamp use the HAL_RTCEx_SetTimeStamp() function.
  48:Drivers/STM32WBxx_HAL_Driver/Src/stm32wbxx_hal_rtc_ex.c ****         You can also configure the RTC Timestamp with interrupt mode using the
  49:Drivers/STM32WBxx_HAL_Driver/Src/stm32wbxx_hal_rtc_ex.c ****         HAL_RTCEx_SetTimeStamp_IT() function.
  50:Drivers/STM32WBxx_HAL_Driver/Src/stm32wbxx_hal_rtc_ex.c ****     (+) To read the RTC Timestamp Time and Date register, use the
  51:Drivers/STM32WBxx_HAL_Driver/Src/stm32wbxx_hal_rtc_ex.c ****         HAL_RTCEx_GetTimeStamp() function.
  52:Drivers/STM32WBxx_HAL_Driver/Src/stm32wbxx_hal_rtc_ex.c ****     (+) The Timestamp alternate function is mapped to RTC_AF1 (PC13).
  53:Drivers/STM32WBxx_HAL_Driver/Src/stm32wbxx_hal_rtc_ex.c **** 
  54:Drivers/STM32WBxx_HAL_Driver/Src/stm32wbxx_hal_rtc_ex.c ****   *** Internal Timestamp configuration ***
  55:Drivers/STM32WBxx_HAL_Driver/Src/stm32wbxx_hal_rtc_ex.c ****   ===============================
  56:Drivers/STM32WBxx_HAL_Driver/Src/stm32wbxx_hal_rtc_ex.c ****   [..]
  57:Drivers/STM32WBxx_HAL_Driver/Src/stm32wbxx_hal_rtc_ex.c ****     (+) To enable the RTC internal Timestamp use the HAL_RTCEx_SetInternalTimeStamp()
  58:Drivers/STM32WBxx_HAL_Driver/Src/stm32wbxx_hal_rtc_ex.c ****         function.
  59:Drivers/STM32WBxx_HAL_Driver/Src/stm32wbxx_hal_rtc_ex.c ****     (+) To read the RTC Timestamp Time and Date register, use the HAL_RTCEx_GetTimeStamp()
  60:Drivers/STM32WBxx_HAL_Driver/Src/stm32wbxx_hal_rtc_ex.c ****         function.
  61:Drivers/STM32WBxx_HAL_Driver/Src/stm32wbxx_hal_rtc_ex.c **** 
  62:Drivers/STM32WBxx_HAL_Driver/Src/stm32wbxx_hal_rtc_ex.c ****   *** Tamper configuration ***
  63:Drivers/STM32WBxx_HAL_Driver/Src/stm32wbxx_hal_rtc_ex.c ****   ============================
  64:Drivers/STM32WBxx_HAL_Driver/Src/stm32wbxx_hal_rtc_ex.c ****   [..]
  65:Drivers/STM32WBxx_HAL_Driver/Src/stm32wbxx_hal_rtc_ex.c ****     (+) To enable the RTC Tamper and configure the Tamper filter count, trigger
  66:Drivers/STM32WBxx_HAL_Driver/Src/stm32wbxx_hal_rtc_ex.c ****         Edge or Level according to the Tamper filter value (if equal to 0 Edge
  67:Drivers/STM32WBxx_HAL_Driver/Src/stm32wbxx_hal_rtc_ex.c ****         else Level), sampling frequency, NoErase, MaskFlag, precharge or
  68:Drivers/STM32WBxx_HAL_Driver/Src/stm32wbxx_hal_rtc_ex.c ****         discharge and Pull-UP use the HAL_RTCEx_SetTamper() function.
  69:Drivers/STM32WBxx_HAL_Driver/Src/stm32wbxx_hal_rtc_ex.c ****         You can configure RTC Tamper in interrupt mode using HAL_RTCEx_SetTamper_IT()
  70:Drivers/STM32WBxx_HAL_Driver/Src/stm32wbxx_hal_rtc_ex.c ****         function.
  71:Drivers/STM32WBxx_HAL_Driver/Src/stm32wbxx_hal_rtc_ex.c ****     (+) The default configuration of the Tamper erases the backup registers.
  72:Drivers/STM32WBxx_HAL_Driver/Src/stm32wbxx_hal_rtc_ex.c ****         To avoid this, enable the NoErase field on the RTC_TAMPCR register.
  73:Drivers/STM32WBxx_HAL_Driver/Src/stm32wbxx_hal_rtc_ex.c ****     (+) The TAMPER1 alternate function is mapped to RTC_AF1 (PC13).
  74:Drivers/STM32WBxx_HAL_Driver/Src/stm32wbxx_hal_rtc_ex.c ****     (+) The TAMPER2 alternate function is mapped to RTC_AF2 (PA0).
  75:Drivers/STM32WBxx_HAL_Driver/Src/stm32wbxx_hal_rtc_ex.c ****     (+) The TAMPER3 alternate function is mapped to RTC_AF3 (PC12).
  76:Drivers/STM32WBxx_HAL_Driver/Src/stm32wbxx_hal_rtc_ex.c **** 
  77:Drivers/STM32WBxx_HAL_Driver/Src/stm32wbxx_hal_rtc_ex.c ****   *** Backup Data Registers configuration ***
  78:Drivers/STM32WBxx_HAL_Driver/Src/stm32wbxx_hal_rtc_ex.c ****   ===========================================
  79:Drivers/STM32WBxx_HAL_Driver/Src/stm32wbxx_hal_rtc_ex.c ****   [..]
  80:Drivers/STM32WBxx_HAL_Driver/Src/stm32wbxx_hal_rtc_ex.c ****     (+) To write to the RTC Backup Data registers, use the HAL_RTCEx_BKUPWrite()
  81:Drivers/STM32WBxx_HAL_Driver/Src/stm32wbxx_hal_rtc_ex.c ****         function.
  82:Drivers/STM32WBxx_HAL_Driver/Src/stm32wbxx_hal_rtc_ex.c ****     (+) To read the RTC Backup Data registers, use the HAL_RTCEx_BKUPRead()
  83:Drivers/STM32WBxx_HAL_Driver/Src/stm32wbxx_hal_rtc_ex.c ****         function.
  84:Drivers/STM32WBxx_HAL_Driver/Src/stm32wbxx_hal_rtc_ex.c **** 
  85:Drivers/STM32WBxx_HAL_Driver/Src/stm32wbxx_hal_rtc_ex.c ****   *** Smooth Digital Calibration configuration ***
  86:Drivers/STM32WBxx_HAL_Driver/Src/stm32wbxx_hal_rtc_ex.c ****   ================================================
ARM GAS  C:\Users\Nathan\AppData\Local\Temp\ccWT97xY.s 			page 3


  87:Drivers/STM32WBxx_HAL_Driver/Src/stm32wbxx_hal_rtc_ex.c ****   [..]
  88:Drivers/STM32WBxx_HAL_Driver/Src/stm32wbxx_hal_rtc_ex.c ****     (+) RTC frequency can be digitally calibrated with a resolution of about
  89:Drivers/STM32WBxx_HAL_Driver/Src/stm32wbxx_hal_rtc_ex.c ****         0.954 ppm with a range from -487.1 ppm to +488.5 ppm.
  90:Drivers/STM32WBxx_HAL_Driver/Src/stm32wbxx_hal_rtc_ex.c ****         The correction of the frequency is performed using a series of small
  91:Drivers/STM32WBxx_HAL_Driver/Src/stm32wbxx_hal_rtc_ex.c ****         adjustments (adding and/or subtracting individual RTCCLK pulses).
  92:Drivers/STM32WBxx_HAL_Driver/Src/stm32wbxx_hal_rtc_ex.c ****     (+) The smooth digital calibration is performed during a cycle of about 2^20
  93:Drivers/STM32WBxx_HAL_Driver/Src/stm32wbxx_hal_rtc_ex.c ****         RTCCLK pulses (or 32 seconds) when the input frequency is 32,768 Hz.
  94:Drivers/STM32WBxx_HAL_Driver/Src/stm32wbxx_hal_rtc_ex.c ****         This cycle is maintained by a 20-bit counter clocked by RTCCLK.
  95:Drivers/STM32WBxx_HAL_Driver/Src/stm32wbxx_hal_rtc_ex.c ****     (+) The smooth calibration register (RTC_CALR) specifies the number of RTCCLK
  96:Drivers/STM32WBxx_HAL_Driver/Src/stm32wbxx_hal_rtc_ex.c ****         clock cycles to be masked during the 32-second cycle.
  97:Drivers/STM32WBxx_HAL_Driver/Src/stm32wbxx_hal_rtc_ex.c ****     (+) To configure the RTC Smooth Digital Calibration value and the corresponding
  98:Drivers/STM32WBxx_HAL_Driver/Src/stm32wbxx_hal_rtc_ex.c ****         calibration cycle period (32s,16s and 8s) use the HAL_RTCEx_SetSmoothCalib()
  99:Drivers/STM32WBxx_HAL_Driver/Src/stm32wbxx_hal_rtc_ex.c ****         function.
 100:Drivers/STM32WBxx_HAL_Driver/Src/stm32wbxx_hal_rtc_ex.c **** 
 101:Drivers/STM32WBxx_HAL_Driver/Src/stm32wbxx_hal_rtc_ex.c ****   *** Outputs configuration ***
 102:Drivers/STM32WBxx_HAL_Driver/Src/stm32wbxx_hal_rtc_ex.c ****   =============================
 103:Drivers/STM32WBxx_HAL_Driver/Src/stm32wbxx_hal_rtc_ex.c ****   [..] The RTC has 2 different outputs:
 104:Drivers/STM32WBxx_HAL_Driver/Src/stm32wbxx_hal_rtc_ex.c ****     (+) RTC_ALARM: this output is used to manage the RTC alarms (Alarm A and Alarm B)
 105:Drivers/STM32WBxx_HAL_Driver/Src/stm32wbxx_hal_rtc_ex.c ****         and WaKeUp signals.
 106:Drivers/STM32WBxx_HAL_Driver/Src/stm32wbxx_hal_rtc_ex.c ****         To output the selected RTC signal, use the HAL_RTC_Init() function.
 107:Drivers/STM32WBxx_HAL_Driver/Src/stm32wbxx_hal_rtc_ex.c ****     (+) RTC_CALIB: this output is 512Hz signal or 1Hz.
 108:Drivers/STM32WBxx_HAL_Driver/Src/stm32wbxx_hal_rtc_ex.c ****         To enable the RTC_CALIB, use the HAL_RTCEx_SetCalibrationOutPut() function.
 109:Drivers/STM32WBxx_HAL_Driver/Src/stm32wbxx_hal_rtc_ex.c ****     (+) Two pins can be used as RTC_ALARM or RTC_CALIB output, selected through
 110:Drivers/STM32WBxx_HAL_Driver/Src/stm32wbxx_hal_rtc_ex.c ****         bit OUT_RMP of the RTC_OR register:
 111:Drivers/STM32WBxx_HAL_Driver/Src/stm32wbxx_hal_rtc_ex.c ****     (+) When the RTC_CALIB or RTC_ALARM output is selected, the RTC_OUT pin is
 112:Drivers/STM32WBxx_HAL_Driver/Src/stm32wbxx_hal_rtc_ex.c ****         automatically configured in output alternate function.
 113:Drivers/STM32WBxx_HAL_Driver/Src/stm32wbxx_hal_rtc_ex.c **** 
 114:Drivers/STM32WBxx_HAL_Driver/Src/stm32wbxx_hal_rtc_ex.c ****   @endverbatim
 115:Drivers/STM32WBxx_HAL_Driver/Src/stm32wbxx_hal_rtc_ex.c ****   ******************************************************************************
 116:Drivers/STM32WBxx_HAL_Driver/Src/stm32wbxx_hal_rtc_ex.c ****   */
 117:Drivers/STM32WBxx_HAL_Driver/Src/stm32wbxx_hal_rtc_ex.c **** 
 118:Drivers/STM32WBxx_HAL_Driver/Src/stm32wbxx_hal_rtc_ex.c **** /* Includes ------------------------------------------------------------------*/
 119:Drivers/STM32WBxx_HAL_Driver/Src/stm32wbxx_hal_rtc_ex.c **** #include "stm32wbxx_hal.h"
 120:Drivers/STM32WBxx_HAL_Driver/Src/stm32wbxx_hal_rtc_ex.c **** 
 121:Drivers/STM32WBxx_HAL_Driver/Src/stm32wbxx_hal_rtc_ex.c **** /** @addtogroup STM32WBxx_HAL_Driver
 122:Drivers/STM32WBxx_HAL_Driver/Src/stm32wbxx_hal_rtc_ex.c ****   * @{
 123:Drivers/STM32WBxx_HAL_Driver/Src/stm32wbxx_hal_rtc_ex.c ****   */
 124:Drivers/STM32WBxx_HAL_Driver/Src/stm32wbxx_hal_rtc_ex.c **** 
 125:Drivers/STM32WBxx_HAL_Driver/Src/stm32wbxx_hal_rtc_ex.c **** /** @defgroup RTCEx RTCEx
 126:Drivers/STM32WBxx_HAL_Driver/Src/stm32wbxx_hal_rtc_ex.c ****   * @brief    RTC Extended HAL module driver
 127:Drivers/STM32WBxx_HAL_Driver/Src/stm32wbxx_hal_rtc_ex.c ****   * @{
 128:Drivers/STM32WBxx_HAL_Driver/Src/stm32wbxx_hal_rtc_ex.c ****   */
 129:Drivers/STM32WBxx_HAL_Driver/Src/stm32wbxx_hal_rtc_ex.c **** 
 130:Drivers/STM32WBxx_HAL_Driver/Src/stm32wbxx_hal_rtc_ex.c **** #ifdef HAL_RTC_MODULE_ENABLED
 131:Drivers/STM32WBxx_HAL_Driver/Src/stm32wbxx_hal_rtc_ex.c **** 
 132:Drivers/STM32WBxx_HAL_Driver/Src/stm32wbxx_hal_rtc_ex.c **** /* Private typedef -----------------------------------------------------------*/
 133:Drivers/STM32WBxx_HAL_Driver/Src/stm32wbxx_hal_rtc_ex.c **** /* Private define ------------------------------------------------------------*/
 134:Drivers/STM32WBxx_HAL_Driver/Src/stm32wbxx_hal_rtc_ex.c **** /* Private macro -------------------------------------------------------------*/
 135:Drivers/STM32WBxx_HAL_Driver/Src/stm32wbxx_hal_rtc_ex.c **** /* Private variables ---------------------------------------------------------*/
 136:Drivers/STM32WBxx_HAL_Driver/Src/stm32wbxx_hal_rtc_ex.c **** /* Private function prototypes -----------------------------------------------*/
 137:Drivers/STM32WBxx_HAL_Driver/Src/stm32wbxx_hal_rtc_ex.c **** /* Exported functions --------------------------------------------------------*/
 138:Drivers/STM32WBxx_HAL_Driver/Src/stm32wbxx_hal_rtc_ex.c **** 
 139:Drivers/STM32WBxx_HAL_Driver/Src/stm32wbxx_hal_rtc_ex.c **** /** @defgroup RTCEx_Exported_Functions RTCEx Exported Functions
 140:Drivers/STM32WBxx_HAL_Driver/Src/stm32wbxx_hal_rtc_ex.c ****   * @{
 141:Drivers/STM32WBxx_HAL_Driver/Src/stm32wbxx_hal_rtc_ex.c ****   */
 142:Drivers/STM32WBxx_HAL_Driver/Src/stm32wbxx_hal_rtc_ex.c **** 
 143:Drivers/STM32WBxx_HAL_Driver/Src/stm32wbxx_hal_rtc_ex.c **** /** @defgroup RTCEx_Exported_Functions_Group1 RTC Timestamp and Tamper functions
ARM GAS  C:\Users\Nathan\AppData\Local\Temp\ccWT97xY.s 			page 4


 144:Drivers/STM32WBxx_HAL_Driver/Src/stm32wbxx_hal_rtc_ex.c ****   * @brief    RTC Timestamp and Tamper functions
 145:Drivers/STM32WBxx_HAL_Driver/Src/stm32wbxx_hal_rtc_ex.c ****   *
 146:Drivers/STM32WBxx_HAL_Driver/Src/stm32wbxx_hal_rtc_ex.c **** @verbatim
 147:Drivers/STM32WBxx_HAL_Driver/Src/stm32wbxx_hal_rtc_ex.c ****  ===============================================================================
 148:Drivers/STM32WBxx_HAL_Driver/Src/stm32wbxx_hal_rtc_ex.c ****                  ##### RTC Timestamp and Tamper functions #####
 149:Drivers/STM32WBxx_HAL_Driver/Src/stm32wbxx_hal_rtc_ex.c ****  ===============================================================================
 150:Drivers/STM32WBxx_HAL_Driver/Src/stm32wbxx_hal_rtc_ex.c **** 
 151:Drivers/STM32WBxx_HAL_Driver/Src/stm32wbxx_hal_rtc_ex.c ****  [..] This section provides functions allowing to configure Timestamp feature
 152:Drivers/STM32WBxx_HAL_Driver/Src/stm32wbxx_hal_rtc_ex.c **** 
 153:Drivers/STM32WBxx_HAL_Driver/Src/stm32wbxx_hal_rtc_ex.c **** @endverbatim
 154:Drivers/STM32WBxx_HAL_Driver/Src/stm32wbxx_hal_rtc_ex.c ****   * @{
 155:Drivers/STM32WBxx_HAL_Driver/Src/stm32wbxx_hal_rtc_ex.c ****   */
 156:Drivers/STM32WBxx_HAL_Driver/Src/stm32wbxx_hal_rtc_ex.c **** 
 157:Drivers/STM32WBxx_HAL_Driver/Src/stm32wbxx_hal_rtc_ex.c **** /**
 158:Drivers/STM32WBxx_HAL_Driver/Src/stm32wbxx_hal_rtc_ex.c ****   * @brief  Sets Timestamp.
 159:Drivers/STM32WBxx_HAL_Driver/Src/stm32wbxx_hal_rtc_ex.c ****   * @note   This API must be called before enabling the Timestamp feature.
 160:Drivers/STM32WBxx_HAL_Driver/Src/stm32wbxx_hal_rtc_ex.c ****   * @param  hrtc pointer to a RTC_HandleTypeDef structure that contains
 161:Drivers/STM32WBxx_HAL_Driver/Src/stm32wbxx_hal_rtc_ex.c ****   *                the configuration information for RTC.
 162:Drivers/STM32WBxx_HAL_Driver/Src/stm32wbxx_hal_rtc_ex.c ****   * @param  RTC_TimeStampEdge Specifies the pin edge on which the Timestamp is
 163:Drivers/STM32WBxx_HAL_Driver/Src/stm32wbxx_hal_rtc_ex.c ****   *         activated.
 164:Drivers/STM32WBxx_HAL_Driver/Src/stm32wbxx_hal_rtc_ex.c ****   *          This parameter can be one of the following values:
 165:Drivers/STM32WBxx_HAL_Driver/Src/stm32wbxx_hal_rtc_ex.c ****   *             @arg RTC_TIMESTAMPEDGE_RISING: the Timestamp event occurs on
 166:Drivers/STM32WBxx_HAL_Driver/Src/stm32wbxx_hal_rtc_ex.c ****   *                                        the rising edge of the related pin.
 167:Drivers/STM32WBxx_HAL_Driver/Src/stm32wbxx_hal_rtc_ex.c ****   *             @arg RTC_TIMESTAMPEDGE_FALLING: the Timestamp event occurs on
 168:Drivers/STM32WBxx_HAL_Driver/Src/stm32wbxx_hal_rtc_ex.c ****   *                                        the falling edge of the related pin.
 169:Drivers/STM32WBxx_HAL_Driver/Src/stm32wbxx_hal_rtc_ex.c ****   * @param  RTC_TimeStampPin Specifies the RTC Timestamp Pin.
 170:Drivers/STM32WBxx_HAL_Driver/Src/stm32wbxx_hal_rtc_ex.c ****   *          This parameter can be one of the following values:
 171:Drivers/STM32WBxx_HAL_Driver/Src/stm32wbxx_hal_rtc_ex.c ****   *             @arg RTC_TIMESTAMPPIN_DEFAULT: PC13 is selected as RTC Timestamp Pin.
 172:Drivers/STM32WBxx_HAL_Driver/Src/stm32wbxx_hal_rtc_ex.c ****   * @note Although unused, parameter RTC_TimeStampPin has been kept for portability
 173:Drivers/STM32WBxx_HAL_Driver/Src/stm32wbxx_hal_rtc_ex.c ****   *       reasons.
 174:Drivers/STM32WBxx_HAL_Driver/Src/stm32wbxx_hal_rtc_ex.c ****   * @retval HAL status
 175:Drivers/STM32WBxx_HAL_Driver/Src/stm32wbxx_hal_rtc_ex.c ****   */
 176:Drivers/STM32WBxx_HAL_Driver/Src/stm32wbxx_hal_rtc_ex.c **** HAL_StatusTypeDef HAL_RTCEx_SetTimeStamp(RTC_HandleTypeDef *hrtc, uint32_t RTC_TimeStampEdge, uint3
 177:Drivers/STM32WBxx_HAL_Driver/Src/stm32wbxx_hal_rtc_ex.c **** {
  30              		.loc 1 177 1 view -0
  31              		.cfi_startproc
  32              		@ args = 0, pretend = 0, frame = 0
  33              		@ frame_needed = 0, uses_anonymous_args = 0
  34              		@ link register save eliminated.
 178:Drivers/STM32WBxx_HAL_Driver/Src/stm32wbxx_hal_rtc_ex.c ****   uint32_t tmpreg = 0U;
  35              		.loc 1 178 3 view .LVU1
 179:Drivers/STM32WBxx_HAL_Driver/Src/stm32wbxx_hal_rtc_ex.c **** 
 180:Drivers/STM32WBxx_HAL_Driver/Src/stm32wbxx_hal_rtc_ex.c ****   /* Check the parameters */
 181:Drivers/STM32WBxx_HAL_Driver/Src/stm32wbxx_hal_rtc_ex.c ****   assert_param(IS_TIMESTAMP_EDGE(RTC_TimeStampEdge));
  36              		.loc 1 181 3 view .LVU2
 182:Drivers/STM32WBxx_HAL_Driver/Src/stm32wbxx_hal_rtc_ex.c ****   assert_param(IS_RTC_TIMESTAMP_PIN(RTC_TimeStampPin));
  37              		.loc 1 182 3 view .LVU3
 183:Drivers/STM32WBxx_HAL_Driver/Src/stm32wbxx_hal_rtc_ex.c **** 
 184:Drivers/STM32WBxx_HAL_Driver/Src/stm32wbxx_hal_rtc_ex.c ****   /* Prevent compilation warning due to unused argument(s) if assert_param check
 185:Drivers/STM32WBxx_HAL_Driver/Src/stm32wbxx_hal_rtc_ex.c ****      is disabled */
 186:Drivers/STM32WBxx_HAL_Driver/Src/stm32wbxx_hal_rtc_ex.c ****   UNUSED(RTC_TimeStampPin);
  38              		.loc 1 186 3 view .LVU4
 187:Drivers/STM32WBxx_HAL_Driver/Src/stm32wbxx_hal_rtc_ex.c **** 
 188:Drivers/STM32WBxx_HAL_Driver/Src/stm32wbxx_hal_rtc_ex.c ****   /* Process Locked */
 189:Drivers/STM32WBxx_HAL_Driver/Src/stm32wbxx_hal_rtc_ex.c ****   __HAL_LOCK(hrtc);
  39              		.loc 1 189 3 view .LVU5
  40              		.loc 1 189 3 view .LVU6
ARM GAS  C:\Users\Nathan\AppData\Local\Temp\ccWT97xY.s 			page 5


  41 0000 90F82020 		ldrb	r2, [r0, #32]	@ zero_extendqisi2
  42              	.LVL1:
  43              		.loc 1 189 3 is_stmt 0 view .LVU7
  44 0004 012A     		cmp	r2, #1
  45 0006 31D0     		beq	.L3
 177:Drivers/STM32WBxx_HAL_Driver/Src/stm32wbxx_hal_rtc_ex.c ****   uint32_t tmpreg = 0U;
  46              		.loc 1 177 1 view .LVU8
  47 0008 10B4     		push	{r4}
  48              		.cfi_def_cfa_offset 4
  49              		.cfi_offset 4, -4
  50 000a 0346     		mov	r3, r0
  51              		.loc 1 189 3 is_stmt 1 discriminator 2 view .LVU9
  52 000c 0120     		movs	r0, #1
  53              	.LVL2:
  54              		.loc 1 189 3 is_stmt 0 discriminator 2 view .LVU10
  55 000e 83F82000 		strb	r0, [r3, #32]
  56              		.loc 1 189 3 is_stmt 1 discriminator 2 view .LVU11
 190:Drivers/STM32WBxx_HAL_Driver/Src/stm32wbxx_hal_rtc_ex.c **** 
 191:Drivers/STM32WBxx_HAL_Driver/Src/stm32wbxx_hal_rtc_ex.c ****   /* Change RTC state to BUSY */
 192:Drivers/STM32WBxx_HAL_Driver/Src/stm32wbxx_hal_rtc_ex.c ****   hrtc->State = HAL_RTC_STATE_BUSY;
  57              		.loc 1 192 3 view .LVU12
  58              		.loc 1 192 15 is_stmt 0 view .LVU13
  59 0012 0222     		movs	r2, #2
  60 0014 83F82120 		strb	r2, [r3, #33]
 193:Drivers/STM32WBxx_HAL_Driver/Src/stm32wbxx_hal_rtc_ex.c **** 
 194:Drivers/STM32WBxx_HAL_Driver/Src/stm32wbxx_hal_rtc_ex.c ****   /* Get the RTC_CR register and clear the bits to be configured */
 195:Drivers/STM32WBxx_HAL_Driver/Src/stm32wbxx_hal_rtc_ex.c ****   tmpreg = (uint32_t)(hrtc->Instance->CR & (uint32_t)~(RTC_CR_TSEDGE | RTC_CR_TSE));
  61              		.loc 1 195 3 is_stmt 1 view .LVU14
  62              		.loc 1 195 27 is_stmt 0 view .LVU15
  63 0018 1C68     		ldr	r4, [r3]
  64              		.loc 1 195 37 view .LVU16
  65 001a A268     		ldr	r2, [r4, #8]
  66              		.loc 1 195 10 view .LVU17
  67 001c 22F40062 		bic	r2, r2, #2048
  68 0020 22F00802 		bic	r2, r2, #8
  69              	.LVL3:
 196:Drivers/STM32WBxx_HAL_Driver/Src/stm32wbxx_hal_rtc_ex.c **** 
 197:Drivers/STM32WBxx_HAL_Driver/Src/stm32wbxx_hal_rtc_ex.c ****   /* Configure the Timestamp TSEDGE bit */
 198:Drivers/STM32WBxx_HAL_Driver/Src/stm32wbxx_hal_rtc_ex.c ****   tmpreg |= RTC_TimeStampEdge;
  70              		.loc 1 198 3 is_stmt 1 view .LVU18
  71              		.loc 1 198 10 is_stmt 0 view .LVU19
  72 0024 0A43     		orrs	r2, r2, r1
  73              	.LVL4:
 199:Drivers/STM32WBxx_HAL_Driver/Src/stm32wbxx_hal_rtc_ex.c **** 
 200:Drivers/STM32WBxx_HAL_Driver/Src/stm32wbxx_hal_rtc_ex.c ****   /* Disable the write protection for RTC registers */
 201:Drivers/STM32WBxx_HAL_Driver/Src/stm32wbxx_hal_rtc_ex.c ****   __HAL_RTC_WRITEPROTECTION_DISABLE(hrtc);
  74              		.loc 1 201 3 is_stmt 1 view .LVU20
  75              		.loc 1 201 3 view .LVU21
  76 0026 CA21     		movs	r1, #202
  77              	.LVL5:
  78              		.loc 1 201 3 is_stmt 0 view .LVU22
  79 0028 6162     		str	r1, [r4, #36]
  80              		.loc 1 201 3 is_stmt 1 view .LVU23
  81 002a 1968     		ldr	r1, [r3]
  82 002c 5324     		movs	r4, #83
  83 002e 4C62     		str	r4, [r1, #36]
  84              		.loc 1 201 3 view .LVU24
ARM GAS  C:\Users\Nathan\AppData\Local\Temp\ccWT97xY.s 			page 6


 202:Drivers/STM32WBxx_HAL_Driver/Src/stm32wbxx_hal_rtc_ex.c **** 
 203:Drivers/STM32WBxx_HAL_Driver/Src/stm32wbxx_hal_rtc_ex.c ****   /* Copy the desired configuration into the CR register */
 204:Drivers/STM32WBxx_HAL_Driver/Src/stm32wbxx_hal_rtc_ex.c ****   hrtc->Instance->CR = (uint32_t)tmpreg;
  85              		.loc 1 204 3 view .LVU25
  86              		.loc 1 204 7 is_stmt 0 view .LVU26
  87 0030 1968     		ldr	r1, [r3]
  88              		.loc 1 204 22 view .LVU27
  89 0032 8A60     		str	r2, [r1, #8]
 205:Drivers/STM32WBxx_HAL_Driver/Src/stm32wbxx_hal_rtc_ex.c **** 
 206:Drivers/STM32WBxx_HAL_Driver/Src/stm32wbxx_hal_rtc_ex.c ****   /* Clear RTC Timestamp flag */
 207:Drivers/STM32WBxx_HAL_Driver/Src/stm32wbxx_hal_rtc_ex.c ****   __HAL_RTC_TIMESTAMP_CLEAR_FLAG(hrtc, RTC_FLAG_TSF);
  90              		.loc 1 207 3 is_stmt 1 view .LVU28
  91 0034 1968     		ldr	r1, [r3]
  92 0036 CA68     		ldr	r2, [r1, #12]
  93              	.LVL6:
  94              		.loc 1 207 3 is_stmt 0 view .LVU29
  95 0038 D2B2     		uxtb	r2, r2
  96 003a 62F40862 		orn	r2, r2, #2176
  97 003e CA60     		str	r2, [r1, #12]
 208:Drivers/STM32WBxx_HAL_Driver/Src/stm32wbxx_hal_rtc_ex.c **** 
 209:Drivers/STM32WBxx_HAL_Driver/Src/stm32wbxx_hal_rtc_ex.c ****   /* Clear RTC Timestamp overrun Flag */
 210:Drivers/STM32WBxx_HAL_Driver/Src/stm32wbxx_hal_rtc_ex.c ****   __HAL_RTC_TIMESTAMP_CLEAR_FLAG(hrtc, RTC_FLAG_TSOVF);
  98              		.loc 1 210 3 is_stmt 1 view .LVU30
  99 0040 1968     		ldr	r1, [r3]
 100 0042 CA68     		ldr	r2, [r1, #12]
 101 0044 D2B2     		uxtb	r2, r2
 102 0046 62F48452 		orn	r2, r2, #4224
 103 004a CA60     		str	r2, [r1, #12]
 211:Drivers/STM32WBxx_HAL_Driver/Src/stm32wbxx_hal_rtc_ex.c **** 
 212:Drivers/STM32WBxx_HAL_Driver/Src/stm32wbxx_hal_rtc_ex.c ****   /* Enable the Timestamp saving */
 213:Drivers/STM32WBxx_HAL_Driver/Src/stm32wbxx_hal_rtc_ex.c ****   __HAL_RTC_TIMESTAMP_ENABLE(hrtc);
 104              		.loc 1 213 3 view .LVU31
 105 004c 1968     		ldr	r1, [r3]
 106 004e 8A68     		ldr	r2, [r1, #8]
 107 0050 42F40062 		orr	r2, r2, #2048
 108 0054 8A60     		str	r2, [r1, #8]
 214:Drivers/STM32WBxx_HAL_Driver/Src/stm32wbxx_hal_rtc_ex.c **** 
 215:Drivers/STM32WBxx_HAL_Driver/Src/stm32wbxx_hal_rtc_ex.c ****   /* Enable the write protection for RTC registers */
 216:Drivers/STM32WBxx_HAL_Driver/Src/stm32wbxx_hal_rtc_ex.c ****   __HAL_RTC_WRITEPROTECTION_ENABLE(hrtc);
 109              		.loc 1 216 3 view .LVU32
 110              		.loc 1 216 3 view .LVU33
 111 0056 1A68     		ldr	r2, [r3]
 112 0058 FF21     		movs	r1, #255
 113 005a 5162     		str	r1, [r2, #36]
 114              		.loc 1 216 3 view .LVU34
 217:Drivers/STM32WBxx_HAL_Driver/Src/stm32wbxx_hal_rtc_ex.c **** 
 218:Drivers/STM32WBxx_HAL_Driver/Src/stm32wbxx_hal_rtc_ex.c ****   /* Change RTC state back to READY */
 219:Drivers/STM32WBxx_HAL_Driver/Src/stm32wbxx_hal_rtc_ex.c ****   hrtc->State = HAL_RTC_STATE_READY;
 115              		.loc 1 219 3 view .LVU35
 116              		.loc 1 219 15 is_stmt 0 view .LVU36
 117 005c 83F82100 		strb	r0, [r3, #33]
 220:Drivers/STM32WBxx_HAL_Driver/Src/stm32wbxx_hal_rtc_ex.c **** 
 221:Drivers/STM32WBxx_HAL_Driver/Src/stm32wbxx_hal_rtc_ex.c ****   /* Process Unlocked */
 222:Drivers/STM32WBxx_HAL_Driver/Src/stm32wbxx_hal_rtc_ex.c ****   __HAL_UNLOCK(hrtc);
 118              		.loc 1 222 3 is_stmt 1 view .LVU37
 119              		.loc 1 222 3 view .LVU38
 120 0060 0020     		movs	r0, #0
ARM GAS  C:\Users\Nathan\AppData\Local\Temp\ccWT97xY.s 			page 7


 121 0062 83F82000 		strb	r0, [r3, #32]
 122              		.loc 1 222 3 view .LVU39
 223:Drivers/STM32WBxx_HAL_Driver/Src/stm32wbxx_hal_rtc_ex.c **** 
 224:Drivers/STM32WBxx_HAL_Driver/Src/stm32wbxx_hal_rtc_ex.c ****   return HAL_OK;
 123              		.loc 1 224 3 view .LVU40
 225:Drivers/STM32WBxx_HAL_Driver/Src/stm32wbxx_hal_rtc_ex.c **** }
 124              		.loc 1 225 1 is_stmt 0 view .LVU41
 125 0066 5DF8044B 		ldr	r4, [sp], #4
 126              		.cfi_restore 4
 127              		.cfi_def_cfa_offset 0
 128 006a 7047     		bx	lr
 129              	.LVL7:
 130              	.L3:
 189:Drivers/STM32WBxx_HAL_Driver/Src/stm32wbxx_hal_rtc_ex.c **** 
 131              		.loc 1 189 3 discriminator 1 view .LVU42
 132 006c 0220     		movs	r0, #2
 133              	.LVL8:
 134              		.loc 1 225 1 view .LVU43
 135 006e 7047     		bx	lr
 136              		.cfi_endproc
 137              	.LFE1104:
 139              		.section	.text.HAL_RTCEx_SetTimeStamp_IT,"ax",%progbits
 140              		.align	1
 141              		.global	HAL_RTCEx_SetTimeStamp_IT
 142              		.syntax unified
 143              		.thumb
 144              		.thumb_func
 146              	HAL_RTCEx_SetTimeStamp_IT:
 147              	.LVL9:
 148              	.LFB1105:
 226:Drivers/STM32WBxx_HAL_Driver/Src/stm32wbxx_hal_rtc_ex.c **** 
 227:Drivers/STM32WBxx_HAL_Driver/Src/stm32wbxx_hal_rtc_ex.c **** /**
 228:Drivers/STM32WBxx_HAL_Driver/Src/stm32wbxx_hal_rtc_ex.c ****   * @brief  Sets Timestamp with Interrupt.
 229:Drivers/STM32WBxx_HAL_Driver/Src/stm32wbxx_hal_rtc_ex.c ****   * @param  hrtc pointer to a RTC_HandleTypeDef structure that contains
 230:Drivers/STM32WBxx_HAL_Driver/Src/stm32wbxx_hal_rtc_ex.c ****   *                the configuration information for RTC.
 231:Drivers/STM32WBxx_HAL_Driver/Src/stm32wbxx_hal_rtc_ex.c ****   * @note   This API must be called before enabling the Timestamp feature.
 232:Drivers/STM32WBxx_HAL_Driver/Src/stm32wbxx_hal_rtc_ex.c ****   * @param  RTC_TimeStampEdge Specifies the pin edge on which the Timestamp is
 233:Drivers/STM32WBxx_HAL_Driver/Src/stm32wbxx_hal_rtc_ex.c ****   *         activated.
 234:Drivers/STM32WBxx_HAL_Driver/Src/stm32wbxx_hal_rtc_ex.c ****   *          This parameter can be one of the following values:
 235:Drivers/STM32WBxx_HAL_Driver/Src/stm32wbxx_hal_rtc_ex.c ****   *             @arg RTC_TIMESTAMPEDGE_RISING: the Timestamp event occurs on
 236:Drivers/STM32WBxx_HAL_Driver/Src/stm32wbxx_hal_rtc_ex.c ****   *                                        the rising edge of the related pin.
 237:Drivers/STM32WBxx_HAL_Driver/Src/stm32wbxx_hal_rtc_ex.c ****   *             @arg RTC_TIMESTAMPEDGE_FALLING: the Timestamp event occurs on
 238:Drivers/STM32WBxx_HAL_Driver/Src/stm32wbxx_hal_rtc_ex.c ****   *                                        the falling edge of the related pin.
 239:Drivers/STM32WBxx_HAL_Driver/Src/stm32wbxx_hal_rtc_ex.c ****   * @param  RTC_TimeStampPin Specifies the RTC Timestamp Pin.
 240:Drivers/STM32WBxx_HAL_Driver/Src/stm32wbxx_hal_rtc_ex.c ****   *          This parameter can be one of the following values:
 241:Drivers/STM32WBxx_HAL_Driver/Src/stm32wbxx_hal_rtc_ex.c ****   *             @arg RTC_TIMESTAMPPIN_DEFAULT: PC13 is selected as RTC Timestamp Pin.
 242:Drivers/STM32WBxx_HAL_Driver/Src/stm32wbxx_hal_rtc_ex.c ****   * @note Although unused, parameter RTC_TimeStampPin has been kept for portability
 243:Drivers/STM32WBxx_HAL_Driver/Src/stm32wbxx_hal_rtc_ex.c ****   *       reasons.
 244:Drivers/STM32WBxx_HAL_Driver/Src/stm32wbxx_hal_rtc_ex.c ****   * @retval HAL status
 245:Drivers/STM32WBxx_HAL_Driver/Src/stm32wbxx_hal_rtc_ex.c ****   */
 246:Drivers/STM32WBxx_HAL_Driver/Src/stm32wbxx_hal_rtc_ex.c **** HAL_StatusTypeDef HAL_RTCEx_SetTimeStamp_IT(RTC_HandleTypeDef *hrtc, uint32_t RTC_TimeStampEdge, ui
 247:Drivers/STM32WBxx_HAL_Driver/Src/stm32wbxx_hal_rtc_ex.c **** {
 149              		.loc 1 247 1 is_stmt 1 view -0
 150              		.cfi_startproc
 151              		@ args = 0, pretend = 0, frame = 0
 152              		@ frame_needed = 0, uses_anonymous_args = 0
 153              		@ link register save eliminated.
ARM GAS  C:\Users\Nathan\AppData\Local\Temp\ccWT97xY.s 			page 8


 248:Drivers/STM32WBxx_HAL_Driver/Src/stm32wbxx_hal_rtc_ex.c ****   uint32_t tmpreg = 0U;
 154              		.loc 1 248 3 view .LVU45
 249:Drivers/STM32WBxx_HAL_Driver/Src/stm32wbxx_hal_rtc_ex.c **** 
 250:Drivers/STM32WBxx_HAL_Driver/Src/stm32wbxx_hal_rtc_ex.c ****   /* Check the parameters */
 251:Drivers/STM32WBxx_HAL_Driver/Src/stm32wbxx_hal_rtc_ex.c ****   assert_param(IS_TIMESTAMP_EDGE(RTC_TimeStampEdge));
 155              		.loc 1 251 3 view .LVU46
 252:Drivers/STM32WBxx_HAL_Driver/Src/stm32wbxx_hal_rtc_ex.c ****   assert_param(IS_RTC_TIMESTAMP_PIN(RTC_TimeStampPin));
 156              		.loc 1 252 3 view .LVU47
 253:Drivers/STM32WBxx_HAL_Driver/Src/stm32wbxx_hal_rtc_ex.c **** 
 254:Drivers/STM32WBxx_HAL_Driver/Src/stm32wbxx_hal_rtc_ex.c ****   /* Prevent compilation warning due to unused argument(s) if assert_param check
 255:Drivers/STM32WBxx_HAL_Driver/Src/stm32wbxx_hal_rtc_ex.c ****      is disabled */
 256:Drivers/STM32WBxx_HAL_Driver/Src/stm32wbxx_hal_rtc_ex.c ****   UNUSED(RTC_TimeStampPin);
 157              		.loc 1 256 3 view .LVU48
 257:Drivers/STM32WBxx_HAL_Driver/Src/stm32wbxx_hal_rtc_ex.c **** 
 258:Drivers/STM32WBxx_HAL_Driver/Src/stm32wbxx_hal_rtc_ex.c ****   /* Process Locked */
 259:Drivers/STM32WBxx_HAL_Driver/Src/stm32wbxx_hal_rtc_ex.c ****   __HAL_LOCK(hrtc);
 158              		.loc 1 259 3 view .LVU49
 159              		.loc 1 259 3 view .LVU50
 160 0000 90F82020 		ldrb	r2, [r0, #32]	@ zero_extendqisi2
 161              	.LVL10:
 162              		.loc 1 259 3 is_stmt 0 view .LVU51
 163 0004 012A     		cmp	r2, #1
 164 0006 41D0     		beq	.L10
 247:Drivers/STM32WBxx_HAL_Driver/Src/stm32wbxx_hal_rtc_ex.c ****   uint32_t tmpreg = 0U;
 165              		.loc 1 247 1 view .LVU52
 166 0008 10B4     		push	{r4}
 167              		.cfi_def_cfa_offset 4
 168              		.cfi_offset 4, -4
 169 000a 0346     		mov	r3, r0
 170              		.loc 1 259 3 is_stmt 1 discriminator 2 view .LVU53
 171 000c 0120     		movs	r0, #1
 172              	.LVL11:
 173              		.loc 1 259 3 is_stmt 0 discriminator 2 view .LVU54
 174 000e 83F82000 		strb	r0, [r3, #32]
 175              		.loc 1 259 3 is_stmt 1 discriminator 2 view .LVU55
 260:Drivers/STM32WBxx_HAL_Driver/Src/stm32wbxx_hal_rtc_ex.c **** 
 261:Drivers/STM32WBxx_HAL_Driver/Src/stm32wbxx_hal_rtc_ex.c ****   /* Change RTC state to BUSY */
 262:Drivers/STM32WBxx_HAL_Driver/Src/stm32wbxx_hal_rtc_ex.c ****   hrtc->State = HAL_RTC_STATE_BUSY;
 176              		.loc 1 262 3 view .LVU56
 177              		.loc 1 262 15 is_stmt 0 view .LVU57
 178 0012 0222     		movs	r2, #2
 179 0014 83F82120 		strb	r2, [r3, #33]
 263:Drivers/STM32WBxx_HAL_Driver/Src/stm32wbxx_hal_rtc_ex.c **** 
 264:Drivers/STM32WBxx_HAL_Driver/Src/stm32wbxx_hal_rtc_ex.c ****   /* Get the RTC_CR register and clear the bits to be configured */
 265:Drivers/STM32WBxx_HAL_Driver/Src/stm32wbxx_hal_rtc_ex.c ****   tmpreg = (uint32_t)(hrtc->Instance->CR & (uint32_t)~(RTC_CR_TSEDGE | RTC_CR_TSE));
 180              		.loc 1 265 3 is_stmt 1 view .LVU58
 181              		.loc 1 265 27 is_stmt 0 view .LVU59
 182 0018 1C68     		ldr	r4, [r3]
 183              		.loc 1 265 37 view .LVU60
 184 001a A268     		ldr	r2, [r4, #8]
 185              		.loc 1 265 10 view .LVU61
 186 001c 22F40062 		bic	r2, r2, #2048
 187 0020 22F00802 		bic	r2, r2, #8
 188              	.LVL12:
 266:Drivers/STM32WBxx_HAL_Driver/Src/stm32wbxx_hal_rtc_ex.c **** 
 267:Drivers/STM32WBxx_HAL_Driver/Src/stm32wbxx_hal_rtc_ex.c ****   /* Configure the Timestamp TSEDGE bit */
 268:Drivers/STM32WBxx_HAL_Driver/Src/stm32wbxx_hal_rtc_ex.c ****   tmpreg |= RTC_TimeStampEdge;
ARM GAS  C:\Users\Nathan\AppData\Local\Temp\ccWT97xY.s 			page 9


 189              		.loc 1 268 3 is_stmt 1 view .LVU62
 190              		.loc 1 268 10 is_stmt 0 view .LVU63
 191 0024 0A43     		orrs	r2, r2, r1
 192              	.LVL13:
 269:Drivers/STM32WBxx_HAL_Driver/Src/stm32wbxx_hal_rtc_ex.c **** 
 270:Drivers/STM32WBxx_HAL_Driver/Src/stm32wbxx_hal_rtc_ex.c ****   /* Disable the write protection for RTC registers */
 271:Drivers/STM32WBxx_HAL_Driver/Src/stm32wbxx_hal_rtc_ex.c ****   __HAL_RTC_WRITEPROTECTION_DISABLE(hrtc);
 193              		.loc 1 271 3 is_stmt 1 view .LVU64
 194              		.loc 1 271 3 view .LVU65
 195 0026 CA21     		movs	r1, #202
 196              	.LVL14:
 197              		.loc 1 271 3 is_stmt 0 view .LVU66
 198 0028 6162     		str	r1, [r4, #36]
 199              		.loc 1 271 3 is_stmt 1 view .LVU67
 200 002a 1968     		ldr	r1, [r3]
 201 002c 5324     		movs	r4, #83
 202 002e 4C62     		str	r4, [r1, #36]
 203              		.loc 1 271 3 view .LVU68
 272:Drivers/STM32WBxx_HAL_Driver/Src/stm32wbxx_hal_rtc_ex.c **** 
 273:Drivers/STM32WBxx_HAL_Driver/Src/stm32wbxx_hal_rtc_ex.c ****   /* Copy the desired configuration into the CR register */
 274:Drivers/STM32WBxx_HAL_Driver/Src/stm32wbxx_hal_rtc_ex.c ****   hrtc->Instance->CR = (uint32_t)tmpreg;
 204              		.loc 1 274 3 view .LVU69
 205              		.loc 1 274 7 is_stmt 0 view .LVU70
 206 0030 1968     		ldr	r1, [r3]
 207              		.loc 1 274 22 view .LVU71
 208 0032 8A60     		str	r2, [r1, #8]
 275:Drivers/STM32WBxx_HAL_Driver/Src/stm32wbxx_hal_rtc_ex.c **** 
 276:Drivers/STM32WBxx_HAL_Driver/Src/stm32wbxx_hal_rtc_ex.c ****   /* Clear RTC Timestamp flag */
 277:Drivers/STM32WBxx_HAL_Driver/Src/stm32wbxx_hal_rtc_ex.c ****   __HAL_RTC_TIMESTAMP_CLEAR_FLAG(hrtc, RTC_FLAG_TSF);
 209              		.loc 1 277 3 is_stmt 1 view .LVU72
 210 0034 1968     		ldr	r1, [r3]
 211 0036 CA68     		ldr	r2, [r1, #12]
 212              	.LVL15:
 213              		.loc 1 277 3 is_stmt 0 view .LVU73
 214 0038 D2B2     		uxtb	r2, r2
 215 003a 62F40862 		orn	r2, r2, #2176
 216 003e CA60     		str	r2, [r1, #12]
 278:Drivers/STM32WBxx_HAL_Driver/Src/stm32wbxx_hal_rtc_ex.c **** 
 279:Drivers/STM32WBxx_HAL_Driver/Src/stm32wbxx_hal_rtc_ex.c ****   /* Clear RTC Timestamp overrun Flag */
 280:Drivers/STM32WBxx_HAL_Driver/Src/stm32wbxx_hal_rtc_ex.c ****   __HAL_RTC_TIMESTAMP_CLEAR_FLAG(hrtc, RTC_FLAG_TSOVF);
 217              		.loc 1 280 3 is_stmt 1 view .LVU74
 218 0040 1968     		ldr	r1, [r3]
 219 0042 CA68     		ldr	r2, [r1, #12]
 220 0044 D2B2     		uxtb	r2, r2
 221 0046 62F48452 		orn	r2, r2, #4224
 222 004a CA60     		str	r2, [r1, #12]
 281:Drivers/STM32WBxx_HAL_Driver/Src/stm32wbxx_hal_rtc_ex.c **** 
 282:Drivers/STM32WBxx_HAL_Driver/Src/stm32wbxx_hal_rtc_ex.c ****   /* Enable the Timestamp saving */
 283:Drivers/STM32WBxx_HAL_Driver/Src/stm32wbxx_hal_rtc_ex.c ****   __HAL_RTC_TIMESTAMP_ENABLE(hrtc);
 223              		.loc 1 283 3 view .LVU75
 224 004c 1968     		ldr	r1, [r3]
 225 004e 8A68     		ldr	r2, [r1, #8]
 226 0050 42F40062 		orr	r2, r2, #2048
 227 0054 8A60     		str	r2, [r1, #8]
 284:Drivers/STM32WBxx_HAL_Driver/Src/stm32wbxx_hal_rtc_ex.c **** 
 285:Drivers/STM32WBxx_HAL_Driver/Src/stm32wbxx_hal_rtc_ex.c ****   /* Enable IT Timestamp */
 286:Drivers/STM32WBxx_HAL_Driver/Src/stm32wbxx_hal_rtc_ex.c ****   __HAL_RTC_TIMESTAMP_ENABLE_IT(hrtc, RTC_IT_TS);
ARM GAS  C:\Users\Nathan\AppData\Local\Temp\ccWT97xY.s 			page 10


 228              		.loc 1 286 3 view .LVU76
 229 0056 1968     		ldr	r1, [r3]
 230 0058 8A68     		ldr	r2, [r1, #8]
 231 005a 42F40042 		orr	r2, r2, #32768
 232 005e 8A60     		str	r2, [r1, #8]
 287:Drivers/STM32WBxx_HAL_Driver/Src/stm32wbxx_hal_rtc_ex.c **** 
 288:Drivers/STM32WBxx_HAL_Driver/Src/stm32wbxx_hal_rtc_ex.c ****   /* Enable the write protection for RTC registers */
 289:Drivers/STM32WBxx_HAL_Driver/Src/stm32wbxx_hal_rtc_ex.c ****   __HAL_RTC_WRITEPROTECTION_ENABLE(hrtc);
 233              		.loc 1 289 3 view .LVU77
 234              		.loc 1 289 3 view .LVU78
 235 0060 1A68     		ldr	r2, [r3]
 236 0062 FF21     		movs	r1, #255
 237 0064 5162     		str	r1, [r2, #36]
 238              		.loc 1 289 3 view .LVU79
 290:Drivers/STM32WBxx_HAL_Driver/Src/stm32wbxx_hal_rtc_ex.c **** 
 291:Drivers/STM32WBxx_HAL_Driver/Src/stm32wbxx_hal_rtc_ex.c ****   /* Enable and configure the EXTI line associated to the RTC Timestamp and Tamper interrupts */
 292:Drivers/STM32WBxx_HAL_Driver/Src/stm32wbxx_hal_rtc_ex.c ****   __HAL_RTC_TAMPER_TIMESTAMP_EXTI_ENABLE_IT();
 239              		.loc 1 292 3 view .LVU80
 240 0066 0A4A     		ldr	r2, .L15
 241 0068 D2F88010 		ldr	r1, [r2, #128]
 242 006c 41F48021 		orr	r1, r1, #262144
 243 0070 C2F88010 		str	r1, [r2, #128]
 293:Drivers/STM32WBxx_HAL_Driver/Src/stm32wbxx_hal_rtc_ex.c ****   __HAL_RTC_TAMPER_TIMESTAMP_EXTI_ENABLE_RISING_EDGE();
 244              		.loc 1 293 3 view .LVU81
 245 0074 1168     		ldr	r1, [r2]
 246 0076 41F48021 		orr	r1, r1, #262144
 247 007a 1160     		str	r1, [r2]
 294:Drivers/STM32WBxx_HAL_Driver/Src/stm32wbxx_hal_rtc_ex.c **** 
 295:Drivers/STM32WBxx_HAL_Driver/Src/stm32wbxx_hal_rtc_ex.c ****   /* Change RTC state back to READY */
 296:Drivers/STM32WBxx_HAL_Driver/Src/stm32wbxx_hal_rtc_ex.c ****   hrtc->State = HAL_RTC_STATE_READY;
 248              		.loc 1 296 3 view .LVU82
 249              		.loc 1 296 15 is_stmt 0 view .LVU83
 250 007c 83F82100 		strb	r0, [r3, #33]
 297:Drivers/STM32WBxx_HAL_Driver/Src/stm32wbxx_hal_rtc_ex.c **** 
 298:Drivers/STM32WBxx_HAL_Driver/Src/stm32wbxx_hal_rtc_ex.c ****   /* Process Unlocked */
 299:Drivers/STM32WBxx_HAL_Driver/Src/stm32wbxx_hal_rtc_ex.c ****   __HAL_UNLOCK(hrtc);
 251              		.loc 1 299 3 is_stmt 1 view .LVU84
 252              		.loc 1 299 3 view .LVU85
 253 0080 0020     		movs	r0, #0
 254 0082 83F82000 		strb	r0, [r3, #32]
 255              		.loc 1 299 3 view .LVU86
 300:Drivers/STM32WBxx_HAL_Driver/Src/stm32wbxx_hal_rtc_ex.c **** 
 301:Drivers/STM32WBxx_HAL_Driver/Src/stm32wbxx_hal_rtc_ex.c ****   return HAL_OK;
 256              		.loc 1 301 3 view .LVU87
 302:Drivers/STM32WBxx_HAL_Driver/Src/stm32wbxx_hal_rtc_ex.c **** }
 257              		.loc 1 302 1 is_stmt 0 view .LVU88
 258 0086 5DF8044B 		ldr	r4, [sp], #4
 259              		.cfi_restore 4
 260              		.cfi_def_cfa_offset 0
 261 008a 7047     		bx	lr
 262              	.LVL16:
 263              	.L10:
 259:Drivers/STM32WBxx_HAL_Driver/Src/stm32wbxx_hal_rtc_ex.c **** 
 264              		.loc 1 259 3 discriminator 1 view .LVU89
 265 008c 0220     		movs	r0, #2
 266              	.LVL17:
 267              		.loc 1 302 1 view .LVU90
ARM GAS  C:\Users\Nathan\AppData\Local\Temp\ccWT97xY.s 			page 11


 268 008e 7047     		bx	lr
 269              	.L16:
 270              		.align	2
 271              	.L15:
 272 0090 00080058 		.word	1476397056
 273              		.cfi_endproc
 274              	.LFE1105:
 276              		.section	.text.HAL_RTCEx_DeactivateTimeStamp,"ax",%progbits
 277              		.align	1
 278              		.global	HAL_RTCEx_DeactivateTimeStamp
 279              		.syntax unified
 280              		.thumb
 281              		.thumb_func
 283              	HAL_RTCEx_DeactivateTimeStamp:
 284              	.LVL18:
 285              	.LFB1106:
 303:Drivers/STM32WBxx_HAL_Driver/Src/stm32wbxx_hal_rtc_ex.c **** 
 304:Drivers/STM32WBxx_HAL_Driver/Src/stm32wbxx_hal_rtc_ex.c **** /**
 305:Drivers/STM32WBxx_HAL_Driver/Src/stm32wbxx_hal_rtc_ex.c ****   * @brief  Deactivates Timestamp.
 306:Drivers/STM32WBxx_HAL_Driver/Src/stm32wbxx_hal_rtc_ex.c ****   * @param  hrtc pointer to a RTC_HandleTypeDef structure that contains
 307:Drivers/STM32WBxx_HAL_Driver/Src/stm32wbxx_hal_rtc_ex.c ****   *                the configuration information for RTC.
 308:Drivers/STM32WBxx_HAL_Driver/Src/stm32wbxx_hal_rtc_ex.c ****   * @retval HAL status
 309:Drivers/STM32WBxx_HAL_Driver/Src/stm32wbxx_hal_rtc_ex.c ****   */
 310:Drivers/STM32WBxx_HAL_Driver/Src/stm32wbxx_hal_rtc_ex.c **** HAL_StatusTypeDef HAL_RTCEx_DeactivateTimeStamp(RTC_HandleTypeDef *hrtc)
 311:Drivers/STM32WBxx_HAL_Driver/Src/stm32wbxx_hal_rtc_ex.c **** {
 286              		.loc 1 311 1 is_stmt 1 view -0
 287              		.cfi_startproc
 288              		@ args = 0, pretend = 0, frame = 0
 289              		@ frame_needed = 0, uses_anonymous_args = 0
 290              		@ link register save eliminated.
 291              		.loc 1 311 1 is_stmt 0 view .LVU92
 292 0000 0346     		mov	r3, r0
 312:Drivers/STM32WBxx_HAL_Driver/Src/stm32wbxx_hal_rtc_ex.c ****   uint32_t tmpreg = 0U;
 293              		.loc 1 312 3 is_stmt 1 view .LVU93
 294              	.LVL19:
 313:Drivers/STM32WBxx_HAL_Driver/Src/stm32wbxx_hal_rtc_ex.c **** 
 314:Drivers/STM32WBxx_HAL_Driver/Src/stm32wbxx_hal_rtc_ex.c ****   /* Process Locked */
 315:Drivers/STM32WBxx_HAL_Driver/Src/stm32wbxx_hal_rtc_ex.c ****   __HAL_LOCK(hrtc);
 295              		.loc 1 315 3 view .LVU94
 296              		.loc 1 315 3 view .LVU95
 297 0002 90F82020 		ldrb	r2, [r0, #32]	@ zero_extendqisi2
 298 0006 012A     		cmp	r2, #1
 299 0008 20D0     		beq	.L19
 300              		.loc 1 315 3 discriminator 2 view .LVU96
 301 000a 0121     		movs	r1, #1
 302 000c 80F82010 		strb	r1, [r0, #32]
 303              		.loc 1 315 3 discriminator 2 view .LVU97
 316:Drivers/STM32WBxx_HAL_Driver/Src/stm32wbxx_hal_rtc_ex.c **** 
 317:Drivers/STM32WBxx_HAL_Driver/Src/stm32wbxx_hal_rtc_ex.c ****   hrtc->State = HAL_RTC_STATE_BUSY;
 304              		.loc 1 317 3 view .LVU98
 305              		.loc 1 317 15 is_stmt 0 view .LVU99
 306 0010 0222     		movs	r2, #2
 307 0012 80F82120 		strb	r2, [r0, #33]
 318:Drivers/STM32WBxx_HAL_Driver/Src/stm32wbxx_hal_rtc_ex.c **** 
 319:Drivers/STM32WBxx_HAL_Driver/Src/stm32wbxx_hal_rtc_ex.c ****   /* Disable the write protection for RTC registers */
 320:Drivers/STM32WBxx_HAL_Driver/Src/stm32wbxx_hal_rtc_ex.c ****   __HAL_RTC_WRITEPROTECTION_DISABLE(hrtc);
 308              		.loc 1 320 3 is_stmt 1 view .LVU100
ARM GAS  C:\Users\Nathan\AppData\Local\Temp\ccWT97xY.s 			page 12


 309              		.loc 1 320 3 view .LVU101
 310 0016 0268     		ldr	r2, [r0]
 311 0018 CA20     		movs	r0, #202
 312              	.LVL20:
 313              		.loc 1 320 3 is_stmt 0 view .LVU102
 314 001a 5062     		str	r0, [r2, #36]
 315              		.loc 1 320 3 is_stmt 1 view .LVU103
 316 001c 1A68     		ldr	r2, [r3]
 317 001e 5320     		movs	r0, #83
 318 0020 5062     		str	r0, [r2, #36]
 319              		.loc 1 320 3 view .LVU104
 321:Drivers/STM32WBxx_HAL_Driver/Src/stm32wbxx_hal_rtc_ex.c **** 
 322:Drivers/STM32WBxx_HAL_Driver/Src/stm32wbxx_hal_rtc_ex.c ****   /* In case interrupt mode is used, the interrupt source must disabled */
 323:Drivers/STM32WBxx_HAL_Driver/Src/stm32wbxx_hal_rtc_ex.c ****   __HAL_RTC_TIMESTAMP_DISABLE_IT(hrtc, RTC_IT_TS);
 320              		.loc 1 323 3 view .LVU105
 321 0022 1868     		ldr	r0, [r3]
 322 0024 8268     		ldr	r2, [r0, #8]
 323 0026 22F40042 		bic	r2, r2, #32768
 324 002a 8260     		str	r2, [r0, #8]
 324:Drivers/STM32WBxx_HAL_Driver/Src/stm32wbxx_hal_rtc_ex.c **** 
 325:Drivers/STM32WBxx_HAL_Driver/Src/stm32wbxx_hal_rtc_ex.c ****   /* Get the RTC_CR register and clear the bits to be configured */
 326:Drivers/STM32WBxx_HAL_Driver/Src/stm32wbxx_hal_rtc_ex.c ****   tmpreg = (uint32_t)(hrtc->Instance->CR & (uint32_t)~(RTC_CR_TSEDGE | RTC_CR_TSE));
 325              		.loc 1 326 3 view .LVU106
 326              		.loc 1 326 27 is_stmt 0 view .LVU107
 327 002c 1868     		ldr	r0, [r3]
 328              		.loc 1 326 37 view .LVU108
 329 002e 8268     		ldr	r2, [r0, #8]
 330              		.loc 1 326 10 view .LVU109
 331 0030 22F40062 		bic	r2, r2, #2048
 332 0034 22F00802 		bic	r2, r2, #8
 333              	.LVL21:
 327:Drivers/STM32WBxx_HAL_Driver/Src/stm32wbxx_hal_rtc_ex.c **** 
 328:Drivers/STM32WBxx_HAL_Driver/Src/stm32wbxx_hal_rtc_ex.c ****   /* Configure the Timestamp TSEDGE and Enable bits */
 329:Drivers/STM32WBxx_HAL_Driver/Src/stm32wbxx_hal_rtc_ex.c ****   hrtc->Instance->CR = (uint32_t)tmpreg;
 334              		.loc 1 329 3 is_stmt 1 view .LVU110
 335              		.loc 1 329 22 is_stmt 0 view .LVU111
 336 0038 8260     		str	r2, [r0, #8]
 330:Drivers/STM32WBxx_HAL_Driver/Src/stm32wbxx_hal_rtc_ex.c **** 
 331:Drivers/STM32WBxx_HAL_Driver/Src/stm32wbxx_hal_rtc_ex.c ****   /* Enable the write protection for RTC registers */
 332:Drivers/STM32WBxx_HAL_Driver/Src/stm32wbxx_hal_rtc_ex.c ****   __HAL_RTC_WRITEPROTECTION_ENABLE(hrtc);
 337              		.loc 1 332 3 is_stmt 1 view .LVU112
 338              		.loc 1 332 3 view .LVU113
 339 003a 1A68     		ldr	r2, [r3]
 340              	.LVL22:
 341              		.loc 1 332 3 is_stmt 0 view .LVU114
 342 003c FF20     		movs	r0, #255
 343              	.LVL23:
 344              		.loc 1 332 3 view .LVU115
 345 003e 5062     		str	r0, [r2, #36]
 346              		.loc 1 332 3 is_stmt 1 view .LVU116
 333:Drivers/STM32WBxx_HAL_Driver/Src/stm32wbxx_hal_rtc_ex.c **** 
 334:Drivers/STM32WBxx_HAL_Driver/Src/stm32wbxx_hal_rtc_ex.c ****   hrtc->State = HAL_RTC_STATE_READY;
 347              		.loc 1 334 3 view .LVU117
 348              		.loc 1 334 15 is_stmt 0 view .LVU118
 349 0040 83F82110 		strb	r1, [r3, #33]
 335:Drivers/STM32WBxx_HAL_Driver/Src/stm32wbxx_hal_rtc_ex.c **** 
 336:Drivers/STM32WBxx_HAL_Driver/Src/stm32wbxx_hal_rtc_ex.c ****   /* Process Unlocked */
ARM GAS  C:\Users\Nathan\AppData\Local\Temp\ccWT97xY.s 			page 13


 337:Drivers/STM32WBxx_HAL_Driver/Src/stm32wbxx_hal_rtc_ex.c ****   __HAL_UNLOCK(hrtc);
 350              		.loc 1 337 3 is_stmt 1 view .LVU119
 351              		.loc 1 337 3 view .LVU120
 352 0044 0020     		movs	r0, #0
 353 0046 83F82000 		strb	r0, [r3, #32]
 354              		.loc 1 337 3 view .LVU121
 338:Drivers/STM32WBxx_HAL_Driver/Src/stm32wbxx_hal_rtc_ex.c **** 
 339:Drivers/STM32WBxx_HAL_Driver/Src/stm32wbxx_hal_rtc_ex.c ****   return HAL_OK;
 355              		.loc 1 339 3 view .LVU122
 356              		.loc 1 339 10 is_stmt 0 view .LVU123
 357 004a 7047     		bx	lr
 358              	.LVL24:
 359              	.L19:
 315:Drivers/STM32WBxx_HAL_Driver/Src/stm32wbxx_hal_rtc_ex.c **** 
 360              		.loc 1 315 3 discriminator 1 view .LVU124
 361 004c 0220     		movs	r0, #2
 362              	.LVL25:
 340:Drivers/STM32WBxx_HAL_Driver/Src/stm32wbxx_hal_rtc_ex.c **** }
 363              		.loc 1 340 1 view .LVU125
 364 004e 7047     		bx	lr
 365              		.cfi_endproc
 366              	.LFE1106:
 368              		.section	.text.HAL_RTCEx_SetInternalTimeStamp,"ax",%progbits
 369              		.align	1
 370              		.global	HAL_RTCEx_SetInternalTimeStamp
 371              		.syntax unified
 372              		.thumb
 373              		.thumb_func
 375              	HAL_RTCEx_SetInternalTimeStamp:
 376              	.LVL26:
 377              	.LFB1107:
 341:Drivers/STM32WBxx_HAL_Driver/Src/stm32wbxx_hal_rtc_ex.c **** 
 342:Drivers/STM32WBxx_HAL_Driver/Src/stm32wbxx_hal_rtc_ex.c **** /**
 343:Drivers/STM32WBxx_HAL_Driver/Src/stm32wbxx_hal_rtc_ex.c ****   * @brief  Sets Internal Timestamp.
 344:Drivers/STM32WBxx_HAL_Driver/Src/stm32wbxx_hal_rtc_ex.c ****   * @note   This API must be called before enabling the internal Timestamp feature.
 345:Drivers/STM32WBxx_HAL_Driver/Src/stm32wbxx_hal_rtc_ex.c ****   * @param  hrtc pointer to a RTC_HandleTypeDef structure that contains
 346:Drivers/STM32WBxx_HAL_Driver/Src/stm32wbxx_hal_rtc_ex.c ****   *                the configuration information for RTC.
 347:Drivers/STM32WBxx_HAL_Driver/Src/stm32wbxx_hal_rtc_ex.c ****   * @retval HAL status
 348:Drivers/STM32WBxx_HAL_Driver/Src/stm32wbxx_hal_rtc_ex.c ****   */
 349:Drivers/STM32WBxx_HAL_Driver/Src/stm32wbxx_hal_rtc_ex.c **** HAL_StatusTypeDef HAL_RTCEx_SetInternalTimeStamp(RTC_HandleTypeDef *hrtc)
 350:Drivers/STM32WBxx_HAL_Driver/Src/stm32wbxx_hal_rtc_ex.c **** {
 378              		.loc 1 350 1 is_stmt 1 view -0
 379              		.cfi_startproc
 380              		@ args = 0, pretend = 0, frame = 0
 381              		@ frame_needed = 0, uses_anonymous_args = 0
 382              		@ link register save eliminated.
 351:Drivers/STM32WBxx_HAL_Driver/Src/stm32wbxx_hal_rtc_ex.c ****   /* Process Locked */
 352:Drivers/STM32WBxx_HAL_Driver/Src/stm32wbxx_hal_rtc_ex.c ****   __HAL_LOCK(hrtc);
 383              		.loc 1 352 3 view .LVU127
 384              		.loc 1 352 3 view .LVU128
 385 0000 90F82020 		ldrb	r2, [r0, #32]	@ zero_extendqisi2
 386 0004 012A     		cmp	r2, #1
 387 0006 23D0     		beq	.L22
 350:Drivers/STM32WBxx_HAL_Driver/Src/stm32wbxx_hal_rtc_ex.c ****   /* Process Locked */
 388              		.loc 1 350 1 is_stmt 0 view .LVU129
 389 0008 10B4     		push	{r4}
 390              		.cfi_def_cfa_offset 4
ARM GAS  C:\Users\Nathan\AppData\Local\Temp\ccWT97xY.s 			page 14


 391              		.cfi_offset 4, -4
 392 000a 0346     		mov	r3, r0
 393              		.loc 1 352 3 is_stmt 1 discriminator 2 view .LVU130
 394 000c 0120     		movs	r0, #1
 395              	.LVL27:
 396              		.loc 1 352 3 is_stmt 0 discriminator 2 view .LVU131
 397 000e 83F82000 		strb	r0, [r3, #32]
 398              		.loc 1 352 3 is_stmt 1 discriminator 2 view .LVU132
 353:Drivers/STM32WBxx_HAL_Driver/Src/stm32wbxx_hal_rtc_ex.c **** 
 354:Drivers/STM32WBxx_HAL_Driver/Src/stm32wbxx_hal_rtc_ex.c ****   hrtc->State = HAL_RTC_STATE_BUSY;
 399              		.loc 1 354 3 view .LVU133
 400              		.loc 1 354 15 is_stmt 0 view .LVU134
 401 0012 0222     		movs	r2, #2
 402 0014 83F82120 		strb	r2, [r3, #33]
 355:Drivers/STM32WBxx_HAL_Driver/Src/stm32wbxx_hal_rtc_ex.c **** 
 356:Drivers/STM32WBxx_HAL_Driver/Src/stm32wbxx_hal_rtc_ex.c ****   /* Disable the write protection for RTC registers */
 357:Drivers/STM32WBxx_HAL_Driver/Src/stm32wbxx_hal_rtc_ex.c ****   __HAL_RTC_WRITEPROTECTION_DISABLE(hrtc);
 403              		.loc 1 357 3 is_stmt 1 view .LVU135
 404              		.loc 1 357 3 view .LVU136
 405 0018 1A68     		ldr	r2, [r3]
 406 001a CA21     		movs	r1, #202
 407 001c 5162     		str	r1, [r2, #36]
 408              		.loc 1 357 3 view .LVU137
 409 001e 1A68     		ldr	r2, [r3]
 410 0020 5321     		movs	r1, #83
 411 0022 5162     		str	r1, [r2, #36]
 412              		.loc 1 357 3 view .LVU138
 358:Drivers/STM32WBxx_HAL_Driver/Src/stm32wbxx_hal_rtc_ex.c **** 
 359:Drivers/STM32WBxx_HAL_Driver/Src/stm32wbxx_hal_rtc_ex.c ****   /* Clear the internal Timestamp flag */
 360:Drivers/STM32WBxx_HAL_Driver/Src/stm32wbxx_hal_rtc_ex.c ****   __HAL_RTC_INTERNAL_TIMESTAMP_CLEAR_FLAG(hrtc, RTC_FLAG_ITSF);
 413              		.loc 1 360 3 view .LVU139
 414 0024 1C68     		ldr	r4, [r3]
 415 0026 E168     		ldr	r1, [r4, #12]
 416 0028 C9B2     		uxtb	r1, r1
 417 002a 0A4A     		ldr	r2, .L27
 418 002c 0A43     		orrs	r2, r2, r1
 419 002e E260     		str	r2, [r4, #12]
 361:Drivers/STM32WBxx_HAL_Driver/Src/stm32wbxx_hal_rtc_ex.c **** 
 362:Drivers/STM32WBxx_HAL_Driver/Src/stm32wbxx_hal_rtc_ex.c ****   /* Configure the internal Timestamp Enable bits */
 363:Drivers/STM32WBxx_HAL_Driver/Src/stm32wbxx_hal_rtc_ex.c ****   __HAL_RTC_INTERNAL_TIMESTAMP_ENABLE(hrtc);
 420              		.loc 1 363 3 view .LVU140
 421 0030 1968     		ldr	r1, [r3]
 422 0032 8A68     		ldr	r2, [r1, #8]
 423 0034 42F08072 		orr	r2, r2, #16777216
 424 0038 8A60     		str	r2, [r1, #8]
 364:Drivers/STM32WBxx_HAL_Driver/Src/stm32wbxx_hal_rtc_ex.c **** 
 365:Drivers/STM32WBxx_HAL_Driver/Src/stm32wbxx_hal_rtc_ex.c ****   /* Enable the write protection for RTC registers */
 366:Drivers/STM32WBxx_HAL_Driver/Src/stm32wbxx_hal_rtc_ex.c ****   __HAL_RTC_WRITEPROTECTION_ENABLE(hrtc);
 425              		.loc 1 366 3 view .LVU141
 426              		.loc 1 366 3 view .LVU142
 427 003a 1A68     		ldr	r2, [r3]
 428 003c FF21     		movs	r1, #255
 429 003e 5162     		str	r1, [r2, #36]
 430              		.loc 1 366 3 view .LVU143
 367:Drivers/STM32WBxx_HAL_Driver/Src/stm32wbxx_hal_rtc_ex.c **** 
 368:Drivers/STM32WBxx_HAL_Driver/Src/stm32wbxx_hal_rtc_ex.c ****   /* Change RTC state */
 369:Drivers/STM32WBxx_HAL_Driver/Src/stm32wbxx_hal_rtc_ex.c ****   hrtc->State = HAL_RTC_STATE_READY;
ARM GAS  C:\Users\Nathan\AppData\Local\Temp\ccWT97xY.s 			page 15


 431              		.loc 1 369 3 view .LVU144
 432              		.loc 1 369 15 is_stmt 0 view .LVU145
 433 0040 83F82100 		strb	r0, [r3, #33]
 370:Drivers/STM32WBxx_HAL_Driver/Src/stm32wbxx_hal_rtc_ex.c **** 
 371:Drivers/STM32WBxx_HAL_Driver/Src/stm32wbxx_hal_rtc_ex.c ****   /* Process Unlocked */
 372:Drivers/STM32WBxx_HAL_Driver/Src/stm32wbxx_hal_rtc_ex.c ****   __HAL_UNLOCK(hrtc);
 434              		.loc 1 372 3 is_stmt 1 view .LVU146
 435              		.loc 1 372 3 view .LVU147
 436 0044 0020     		movs	r0, #0
 437 0046 83F82000 		strb	r0, [r3, #32]
 438              		.loc 1 372 3 view .LVU148
 373:Drivers/STM32WBxx_HAL_Driver/Src/stm32wbxx_hal_rtc_ex.c **** 
 374:Drivers/STM32WBxx_HAL_Driver/Src/stm32wbxx_hal_rtc_ex.c ****   return HAL_OK;
 439              		.loc 1 374 3 view .LVU149
 375:Drivers/STM32WBxx_HAL_Driver/Src/stm32wbxx_hal_rtc_ex.c **** }
 440              		.loc 1 375 1 is_stmt 0 view .LVU150
 441 004a 5DF8044B 		ldr	r4, [sp], #4
 442              		.cfi_restore 4
 443              		.cfi_def_cfa_offset 0
 444 004e 7047     		bx	lr
 445              	.LVL28:
 446              	.L22:
 352:Drivers/STM32WBxx_HAL_Driver/Src/stm32wbxx_hal_rtc_ex.c **** 
 447              		.loc 1 352 3 discriminator 1 view .LVU151
 448 0050 0220     		movs	r0, #2
 449              	.LVL29:
 450              		.loc 1 375 1 view .LVU152
 451 0052 7047     		bx	lr
 452              	.L28:
 453              		.align	2
 454              	.L27:
 455 0054 7FFFFDFF 		.word	-131201
 456              		.cfi_endproc
 457              	.LFE1107:
 459              		.section	.text.HAL_RTCEx_DeactivateInternalTimeStamp,"ax",%progbits
 460              		.align	1
 461              		.global	HAL_RTCEx_DeactivateInternalTimeStamp
 462              		.syntax unified
 463              		.thumb
 464              		.thumb_func
 466              	HAL_RTCEx_DeactivateInternalTimeStamp:
 467              	.LVL30:
 468              	.LFB1108:
 376:Drivers/STM32WBxx_HAL_Driver/Src/stm32wbxx_hal_rtc_ex.c **** 
 377:Drivers/STM32WBxx_HAL_Driver/Src/stm32wbxx_hal_rtc_ex.c **** /**
 378:Drivers/STM32WBxx_HAL_Driver/Src/stm32wbxx_hal_rtc_ex.c ****   * @brief  Deactivates internal Timestamp.
 379:Drivers/STM32WBxx_HAL_Driver/Src/stm32wbxx_hal_rtc_ex.c ****   * @param  hrtc pointer to a RTC_HandleTypeDef structure that contains
 380:Drivers/STM32WBxx_HAL_Driver/Src/stm32wbxx_hal_rtc_ex.c ****   *                the configuration information for RTC.
 381:Drivers/STM32WBxx_HAL_Driver/Src/stm32wbxx_hal_rtc_ex.c ****   * @retval HAL status
 382:Drivers/STM32WBxx_HAL_Driver/Src/stm32wbxx_hal_rtc_ex.c ****   */
 383:Drivers/STM32WBxx_HAL_Driver/Src/stm32wbxx_hal_rtc_ex.c **** HAL_StatusTypeDef HAL_RTCEx_DeactivateInternalTimeStamp(RTC_HandleTypeDef *hrtc)
 384:Drivers/STM32WBxx_HAL_Driver/Src/stm32wbxx_hal_rtc_ex.c **** {
 469              		.loc 1 384 1 is_stmt 1 view -0
 470              		.cfi_startproc
 471              		@ args = 0, pretend = 0, frame = 0
 472              		@ frame_needed = 0, uses_anonymous_args = 0
 473              		@ link register save eliminated.
ARM GAS  C:\Users\Nathan\AppData\Local\Temp\ccWT97xY.s 			page 16


 385:Drivers/STM32WBxx_HAL_Driver/Src/stm32wbxx_hal_rtc_ex.c ****   /* Process Locked */
 386:Drivers/STM32WBxx_HAL_Driver/Src/stm32wbxx_hal_rtc_ex.c ****   __HAL_LOCK(hrtc);
 474              		.loc 1 386 3 view .LVU154
 475              		.loc 1 386 3 view .LVU155
 476 0000 90F82030 		ldrb	r3, [r0, #32]	@ zero_extendqisi2
 477 0004 012B     		cmp	r3, #1
 478 0006 1AD0     		beq	.L31
 479              		.loc 1 386 3 discriminator 2 view .LVU156
 480 0008 0122     		movs	r2, #1
 481 000a 80F82020 		strb	r2, [r0, #32]
 482              		.loc 1 386 3 discriminator 2 view .LVU157
 387:Drivers/STM32WBxx_HAL_Driver/Src/stm32wbxx_hal_rtc_ex.c **** 
 388:Drivers/STM32WBxx_HAL_Driver/Src/stm32wbxx_hal_rtc_ex.c ****   hrtc->State = HAL_RTC_STATE_BUSY;
 483              		.loc 1 388 3 view .LVU158
 484              		.loc 1 388 15 is_stmt 0 view .LVU159
 485 000e 0223     		movs	r3, #2
 486 0010 80F82130 		strb	r3, [r0, #33]
 389:Drivers/STM32WBxx_HAL_Driver/Src/stm32wbxx_hal_rtc_ex.c **** 
 390:Drivers/STM32WBxx_HAL_Driver/Src/stm32wbxx_hal_rtc_ex.c ****   /* Disable the write protection for RTC registers */
 391:Drivers/STM32WBxx_HAL_Driver/Src/stm32wbxx_hal_rtc_ex.c ****   __HAL_RTC_WRITEPROTECTION_DISABLE(hrtc);
 487              		.loc 1 391 3 is_stmt 1 view .LVU160
 488              		.loc 1 391 3 view .LVU161
 489 0014 0368     		ldr	r3, [r0]
 490 0016 CA21     		movs	r1, #202
 491 0018 5962     		str	r1, [r3, #36]
 492              		.loc 1 391 3 view .LVU162
 493 001a 0368     		ldr	r3, [r0]
 494 001c 5321     		movs	r1, #83
 495 001e 5962     		str	r1, [r3, #36]
 496              		.loc 1 391 3 view .LVU163
 392:Drivers/STM32WBxx_HAL_Driver/Src/stm32wbxx_hal_rtc_ex.c **** 
 393:Drivers/STM32WBxx_HAL_Driver/Src/stm32wbxx_hal_rtc_ex.c ****   /* Configure the internal Timestamp Enable bits */
 394:Drivers/STM32WBxx_HAL_Driver/Src/stm32wbxx_hal_rtc_ex.c ****   __HAL_RTC_INTERNAL_TIMESTAMP_DISABLE(hrtc);
 497              		.loc 1 394 3 view .LVU164
 498 0020 0168     		ldr	r1, [r0]
 499 0022 8B68     		ldr	r3, [r1, #8]
 500 0024 23F08073 		bic	r3, r3, #16777216
 501 0028 8B60     		str	r3, [r1, #8]
 395:Drivers/STM32WBxx_HAL_Driver/Src/stm32wbxx_hal_rtc_ex.c **** 
 396:Drivers/STM32WBxx_HAL_Driver/Src/stm32wbxx_hal_rtc_ex.c ****   /* Enable the write protection for RTC registers */
 397:Drivers/STM32WBxx_HAL_Driver/Src/stm32wbxx_hal_rtc_ex.c ****   __HAL_RTC_WRITEPROTECTION_ENABLE(hrtc);
 502              		.loc 1 397 3 view .LVU165
 503              		.loc 1 397 3 view .LVU166
 504 002a 0368     		ldr	r3, [r0]
 505 002c FF21     		movs	r1, #255
 506 002e 5962     		str	r1, [r3, #36]
 507              		.loc 1 397 3 view .LVU167
 398:Drivers/STM32WBxx_HAL_Driver/Src/stm32wbxx_hal_rtc_ex.c **** 
 399:Drivers/STM32WBxx_HAL_Driver/Src/stm32wbxx_hal_rtc_ex.c ****   hrtc->State = HAL_RTC_STATE_READY;
 508              		.loc 1 399 3 view .LVU168
 509              		.loc 1 399 15 is_stmt 0 view .LVU169
 510 0030 80F82120 		strb	r2, [r0, #33]
 400:Drivers/STM32WBxx_HAL_Driver/Src/stm32wbxx_hal_rtc_ex.c **** 
 401:Drivers/STM32WBxx_HAL_Driver/Src/stm32wbxx_hal_rtc_ex.c ****   /* Process Unlocked */
 402:Drivers/STM32WBxx_HAL_Driver/Src/stm32wbxx_hal_rtc_ex.c ****   __HAL_UNLOCK(hrtc);
 511              		.loc 1 402 3 is_stmt 1 view .LVU170
 512              		.loc 1 402 3 view .LVU171
ARM GAS  C:\Users\Nathan\AppData\Local\Temp\ccWT97xY.s 			page 17


 513 0034 0023     		movs	r3, #0
 514 0036 80F82030 		strb	r3, [r0, #32]
 515              		.loc 1 402 3 view .LVU172
 403:Drivers/STM32WBxx_HAL_Driver/Src/stm32wbxx_hal_rtc_ex.c **** 
 404:Drivers/STM32WBxx_HAL_Driver/Src/stm32wbxx_hal_rtc_ex.c ****   return HAL_OK;
 516              		.loc 1 404 3 view .LVU173
 517              		.loc 1 404 10 is_stmt 0 view .LVU174
 518 003a 1846     		mov	r0, r3
 519              	.LVL31:
 520              		.loc 1 404 10 view .LVU175
 521 003c 7047     		bx	lr
 522              	.LVL32:
 523              	.L31:
 386:Drivers/STM32WBxx_HAL_Driver/Src/stm32wbxx_hal_rtc_ex.c **** 
 524              		.loc 1 386 3 discriminator 1 view .LVU176
 525 003e 0220     		movs	r0, #2
 526              	.LVL33:
 405:Drivers/STM32WBxx_HAL_Driver/Src/stm32wbxx_hal_rtc_ex.c **** }
 527              		.loc 1 405 1 view .LVU177
 528 0040 7047     		bx	lr
 529              		.cfi_endproc
 530              	.LFE1108:
 532              		.section	.text.HAL_RTCEx_GetTimeStamp,"ax",%progbits
 533              		.align	1
 534              		.global	HAL_RTCEx_GetTimeStamp
 535              		.syntax unified
 536              		.thumb
 537              		.thumb_func
 539              	HAL_RTCEx_GetTimeStamp:
 540              	.LVL34:
 541              	.LFB1109:
 406:Drivers/STM32WBxx_HAL_Driver/Src/stm32wbxx_hal_rtc_ex.c **** 
 407:Drivers/STM32WBxx_HAL_Driver/Src/stm32wbxx_hal_rtc_ex.c **** /**
 408:Drivers/STM32WBxx_HAL_Driver/Src/stm32wbxx_hal_rtc_ex.c ****   * @brief  Gets the RTC Timestamp value.
 409:Drivers/STM32WBxx_HAL_Driver/Src/stm32wbxx_hal_rtc_ex.c ****   * @param  hrtc pointer to a RTC_HandleTypeDef structure that contains
 410:Drivers/STM32WBxx_HAL_Driver/Src/stm32wbxx_hal_rtc_ex.c ****   *                the configuration information for RTC.
 411:Drivers/STM32WBxx_HAL_Driver/Src/stm32wbxx_hal_rtc_ex.c ****   * @param  sTimeStamp Pointer to Time structure
 412:Drivers/STM32WBxx_HAL_Driver/Src/stm32wbxx_hal_rtc_ex.c ****   * @param  sTimeStampDate Pointer to Date structure
 413:Drivers/STM32WBxx_HAL_Driver/Src/stm32wbxx_hal_rtc_ex.c ****   * @param  Format specifies the format of the entered parameters.
 414:Drivers/STM32WBxx_HAL_Driver/Src/stm32wbxx_hal_rtc_ex.c ****   *          This parameter can be one of the following values:
 415:Drivers/STM32WBxx_HAL_Driver/Src/stm32wbxx_hal_rtc_ex.c ****   *             @arg RTC_FORMAT_BIN: Binary data format
 416:Drivers/STM32WBxx_HAL_Driver/Src/stm32wbxx_hal_rtc_ex.c ****   *             @arg RTC_FORMAT_BCD: BCD data format
 417:Drivers/STM32WBxx_HAL_Driver/Src/stm32wbxx_hal_rtc_ex.c ****   * @retval HAL status
 418:Drivers/STM32WBxx_HAL_Driver/Src/stm32wbxx_hal_rtc_ex.c ****   */
 419:Drivers/STM32WBxx_HAL_Driver/Src/stm32wbxx_hal_rtc_ex.c **** HAL_StatusTypeDef HAL_RTCEx_GetTimeStamp(RTC_HandleTypeDef *hrtc, RTC_TimeTypeDef *sTimeStamp, RTC_
 420:Drivers/STM32WBxx_HAL_Driver/Src/stm32wbxx_hal_rtc_ex.c **** {
 542              		.loc 1 420 1 is_stmt 1 view -0
 543              		.cfi_startproc
 544              		@ args = 0, pretend = 0, frame = 0
 545              		@ frame_needed = 0, uses_anonymous_args = 0
 546              		.loc 1 420 1 is_stmt 0 view .LVU179
 547 0000 70B5     		push	{r4, r5, r6, lr}
 548              		.cfi_def_cfa_offset 16
 549              		.cfi_offset 4, -16
 550              		.cfi_offset 5, -12
 551              		.cfi_offset 6, -8
 552              		.cfi_offset 14, -4
ARM GAS  C:\Users\Nathan\AppData\Local\Temp\ccWT97xY.s 			page 18


 553 0002 0646     		mov	r6, r0
 554 0004 0C46     		mov	r4, r1
 555 0006 1546     		mov	r5, r2
 421:Drivers/STM32WBxx_HAL_Driver/Src/stm32wbxx_hal_rtc_ex.c ****   uint32_t tmptime = 0U;
 556              		.loc 1 421 3 is_stmt 1 view .LVU180
 557              	.LVL35:
 422:Drivers/STM32WBxx_HAL_Driver/Src/stm32wbxx_hal_rtc_ex.c ****   uint32_t tmpdate = 0U;
 558              		.loc 1 422 3 view .LVU181
 423:Drivers/STM32WBxx_HAL_Driver/Src/stm32wbxx_hal_rtc_ex.c **** 
 424:Drivers/STM32WBxx_HAL_Driver/Src/stm32wbxx_hal_rtc_ex.c ****   /* Check the parameters */
 425:Drivers/STM32WBxx_HAL_Driver/Src/stm32wbxx_hal_rtc_ex.c ****   assert_param(IS_RTC_FORMAT(Format));
 559              		.loc 1 425 3 view .LVU182
 426:Drivers/STM32WBxx_HAL_Driver/Src/stm32wbxx_hal_rtc_ex.c **** 
 427:Drivers/STM32WBxx_HAL_Driver/Src/stm32wbxx_hal_rtc_ex.c ****   /* Get the Timestamp time and date registers values */
 428:Drivers/STM32WBxx_HAL_Driver/Src/stm32wbxx_hal_rtc_ex.c ****   tmptime = (uint32_t)(hrtc->Instance->TSTR & RTC_TR_RESERVED_MASK);
 560              		.loc 1 428 3 view .LVU183
 561              		.loc 1 428 28 is_stmt 0 view .LVU184
 562 0008 0168     		ldr	r1, [r0]
 563              	.LVL36:
 564              		.loc 1 428 38 view .LVU185
 565 000a 0A6B     		ldr	r2, [r1, #48]
 566              	.LVL37:
 429:Drivers/STM32WBxx_HAL_Driver/Src/stm32wbxx_hal_rtc_ex.c ****   tmpdate = (uint32_t)(hrtc->Instance->TSDR & RTC_DR_RESERVED_MASK);
 567              		.loc 1 429 3 is_stmt 1 view .LVU186
 568              		.loc 1 429 38 is_stmt 0 view .LVU187
 569 000c 496B     		ldr	r1, [r1, #52]
 570              	.LVL38:
 430:Drivers/STM32WBxx_HAL_Driver/Src/stm32wbxx_hal_rtc_ex.c **** 
 431:Drivers/STM32WBxx_HAL_Driver/Src/stm32wbxx_hal_rtc_ex.c ****   /* Fill the Time structure fields with the read parameters */
 432:Drivers/STM32WBxx_HAL_Driver/Src/stm32wbxx_hal_rtc_ex.c ****   sTimeStamp->Hours      = (uint8_t)((tmptime & (RTC_TSTR_HT  | RTC_TSTR_HU))  >> RTC_TSTR_HU_Pos);
 571              		.loc 1 432 3 is_stmt 1 view .LVU188
 572              		.loc 1 432 28 is_stmt 0 view .LVU189
 573 000e C2F30540 		ubfx	r0, r2, #16, #6
 574              	.LVL39:
 575              		.loc 1 432 26 view .LVU190
 576 0012 2070     		strb	r0, [r4]
 433:Drivers/STM32WBxx_HAL_Driver/Src/stm32wbxx_hal_rtc_ex.c ****   sTimeStamp->Minutes    = (uint8_t)((tmptime & (RTC_TSTR_MNT | RTC_TSTR_MNU)) >> RTC_TSTR_MNU_Pos)
 577              		.loc 1 433 3 is_stmt 1 view .LVU191
 578              		.loc 1 433 28 is_stmt 0 view .LVU192
 579 0014 C2F30620 		ubfx	r0, r2, #8, #7
 580              		.loc 1 433 26 view .LVU193
 581 0018 6070     		strb	r0, [r4, #1]
 434:Drivers/STM32WBxx_HAL_Driver/Src/stm32wbxx_hal_rtc_ex.c ****   sTimeStamp->Seconds    = (uint8_t)((tmptime & (RTC_TSTR_ST  | RTC_TSTR_SU))  >> RTC_TSTR_SU_Pos);
 582              		.loc 1 434 3 is_stmt 1 view .LVU194
 583              		.loc 1 434 28 is_stmt 0 view .LVU195
 584 001a 02F07F00 		and	r0, r2, #127
 585              		.loc 1 434 26 view .LVU196
 586 001e A070     		strb	r0, [r4, #2]
 435:Drivers/STM32WBxx_HAL_Driver/Src/stm32wbxx_hal_rtc_ex.c ****   sTimeStamp->TimeFormat = (uint8_t)((tmptime & (RTC_TSTR_PM))                 >> RTC_TSTR_PM_Pos);
 587              		.loc 1 435 3 is_stmt 1 view .LVU197
 588              		.loc 1 435 28 is_stmt 0 view .LVU198
 589 0020 C2F38052 		ubfx	r2, r2, #22, #1
 590              	.LVL40:
 591              		.loc 1 435 26 view .LVU199
 592 0024 E270     		strb	r2, [r4, #3]
 436:Drivers/STM32WBxx_HAL_Driver/Src/stm32wbxx_hal_rtc_ex.c ****   sTimeStamp->SubSeconds = (uint32_t) hrtc->Instance->TSSSR;
 593              		.loc 1 436 3 is_stmt 1 view .LVU200
ARM GAS  C:\Users\Nathan\AppData\Local\Temp\ccWT97xY.s 			page 19


 594              		.loc 1 436 43 is_stmt 0 view .LVU201
 595 0026 3268     		ldr	r2, [r6]
 596              		.loc 1 436 53 view .LVU202
 597 0028 926B     		ldr	r2, [r2, #56]
 598              		.loc 1 436 26 view .LVU203
 599 002a 6260     		str	r2, [r4, #4]
 437:Drivers/STM32WBxx_HAL_Driver/Src/stm32wbxx_hal_rtc_ex.c **** 
 438:Drivers/STM32WBxx_HAL_Driver/Src/stm32wbxx_hal_rtc_ex.c ****   /* Fill the Date structure fields with the read parameters */
 439:Drivers/STM32WBxx_HAL_Driver/Src/stm32wbxx_hal_rtc_ex.c ****   sTimeStampDate->Year    = 0U;
 600              		.loc 1 439 3 is_stmt 1 view .LVU204
 601              		.loc 1 439 27 is_stmt 0 view .LVU205
 602 002c 0022     		movs	r2, #0
 603 002e EA70     		strb	r2, [r5, #3]
 440:Drivers/STM32WBxx_HAL_Driver/Src/stm32wbxx_hal_rtc_ex.c ****   sTimeStampDate->Month   = (uint8_t)((tmpdate & (RTC_TSDR_MT | RTC_TSDR_MU)) >> RTC_TSDR_MU_Pos);
 604              		.loc 1 440 3 is_stmt 1 view .LVU206
 605              		.loc 1 440 29 is_stmt 0 view .LVU207
 606 0030 C1F30422 		ubfx	r2, r1, #8, #5
 607              		.loc 1 440 27 view .LVU208
 608 0034 6A70     		strb	r2, [r5, #1]
 441:Drivers/STM32WBxx_HAL_Driver/Src/stm32wbxx_hal_rtc_ex.c ****   sTimeStampDate->Date    = (uint8_t)((tmpdate & (RTC_TSDR_DT | RTC_TSDR_DU)) >> RTC_TSDR_DU_Pos);
 609              		.loc 1 441 3 is_stmt 1 view .LVU209
 610              		.loc 1 441 29 is_stmt 0 view .LVU210
 611 0036 01F03F02 		and	r2, r1, #63
 612              		.loc 1 441 27 view .LVU211
 613 003a AA70     		strb	r2, [r5, #2]
 442:Drivers/STM32WBxx_HAL_Driver/Src/stm32wbxx_hal_rtc_ex.c ****   sTimeStampDate->WeekDay = (uint8_t)((tmpdate & (RTC_TSDR_WDU))              >> RTC_TSDR_WDU_Pos);
 614              		.loc 1 442 3 is_stmt 1 view .LVU212
 615              		.loc 1 442 29 is_stmt 0 view .LVU213
 616 003c C1F34231 		ubfx	r1, r1, #13, #3
 617              	.LVL41:
 618              		.loc 1 442 27 view .LVU214
 619 0040 2970     		strb	r1, [r5]
 443:Drivers/STM32WBxx_HAL_Driver/Src/stm32wbxx_hal_rtc_ex.c **** 
 444:Drivers/STM32WBxx_HAL_Driver/Src/stm32wbxx_hal_rtc_ex.c ****   /* Check the input parameters format */
 445:Drivers/STM32WBxx_HAL_Driver/Src/stm32wbxx_hal_rtc_ex.c ****   if (Format == RTC_FORMAT_BIN)
 620              		.loc 1 445 3 is_stmt 1 view .LVU215
 621              		.loc 1 445 6 is_stmt 0 view .LVU216
 622 0042 6BB1     		cbz	r3, .L35
 623              	.LVL42:
 624              	.L33:
 446:Drivers/STM32WBxx_HAL_Driver/Src/stm32wbxx_hal_rtc_ex.c ****   {
 447:Drivers/STM32WBxx_HAL_Driver/Src/stm32wbxx_hal_rtc_ex.c ****     /* Convert the Timestamp structure parameters to Binary format */
 448:Drivers/STM32WBxx_HAL_Driver/Src/stm32wbxx_hal_rtc_ex.c ****     sTimeStamp->Hours   = (uint8_t)RTC_Bcd2ToByte(sTimeStamp->Hours);
 449:Drivers/STM32WBxx_HAL_Driver/Src/stm32wbxx_hal_rtc_ex.c ****     sTimeStamp->Minutes = (uint8_t)RTC_Bcd2ToByte(sTimeStamp->Minutes);
 450:Drivers/STM32WBxx_HAL_Driver/Src/stm32wbxx_hal_rtc_ex.c ****     sTimeStamp->Seconds = (uint8_t)RTC_Bcd2ToByte(sTimeStamp->Seconds);
 451:Drivers/STM32WBxx_HAL_Driver/Src/stm32wbxx_hal_rtc_ex.c **** 
 452:Drivers/STM32WBxx_HAL_Driver/Src/stm32wbxx_hal_rtc_ex.c ****     /* Convert the DateTimeStamp structure parameters to Binary format */
 453:Drivers/STM32WBxx_HAL_Driver/Src/stm32wbxx_hal_rtc_ex.c ****     sTimeStampDate->Month   = (uint8_t)RTC_Bcd2ToByte(sTimeStampDate->Month);
 454:Drivers/STM32WBxx_HAL_Driver/Src/stm32wbxx_hal_rtc_ex.c ****     sTimeStampDate->Date    = (uint8_t)RTC_Bcd2ToByte(sTimeStampDate->Date);
 455:Drivers/STM32WBxx_HAL_Driver/Src/stm32wbxx_hal_rtc_ex.c ****     sTimeStampDate->WeekDay = (uint8_t)RTC_Bcd2ToByte(sTimeStampDate->WeekDay);
 456:Drivers/STM32WBxx_HAL_Driver/Src/stm32wbxx_hal_rtc_ex.c ****   }
 457:Drivers/STM32WBxx_HAL_Driver/Src/stm32wbxx_hal_rtc_ex.c **** 
 458:Drivers/STM32WBxx_HAL_Driver/Src/stm32wbxx_hal_rtc_ex.c ****   /* Clear the internal Timestamp Flag */
 459:Drivers/STM32WBxx_HAL_Driver/Src/stm32wbxx_hal_rtc_ex.c ****   __HAL_RTC_INTERNAL_TIMESTAMP_CLEAR_FLAG(hrtc, RTC_FLAG_ITSF);
 625              		.loc 1 459 3 is_stmt 1 view .LVU217
 626 0044 3168     		ldr	r1, [r6]
 627 0046 CA68     		ldr	r2, [r1, #12]
ARM GAS  C:\Users\Nathan\AppData\Local\Temp\ccWT97xY.s 			page 20


 628 0048 D2B2     		uxtb	r2, r2
 629 004a 124B     		ldr	r3, .L36
 630 004c 1343     		orrs	r3, r3, r2
 631 004e CB60     		str	r3, [r1, #12]
 460:Drivers/STM32WBxx_HAL_Driver/Src/stm32wbxx_hal_rtc_ex.c **** 
 461:Drivers/STM32WBxx_HAL_Driver/Src/stm32wbxx_hal_rtc_ex.c ****   /* Clear the Timestamp Flag */
 462:Drivers/STM32WBxx_HAL_Driver/Src/stm32wbxx_hal_rtc_ex.c ****   __HAL_RTC_TIMESTAMP_CLEAR_FLAG(hrtc, RTC_FLAG_TSF);
 632              		.loc 1 462 3 view .LVU218
 633 0050 3268     		ldr	r2, [r6]
 634 0052 D368     		ldr	r3, [r2, #12]
 635 0054 DBB2     		uxtb	r3, r3
 636 0056 63F40863 		orn	r3, r3, #2176
 637 005a D360     		str	r3, [r2, #12]
 463:Drivers/STM32WBxx_HAL_Driver/Src/stm32wbxx_hal_rtc_ex.c **** 
 464:Drivers/STM32WBxx_HAL_Driver/Src/stm32wbxx_hal_rtc_ex.c ****   return HAL_OK;
 638              		.loc 1 464 3 view .LVU219
 465:Drivers/STM32WBxx_HAL_Driver/Src/stm32wbxx_hal_rtc_ex.c **** }
 639              		.loc 1 465 1 is_stmt 0 view .LVU220
 640 005c 0020     		movs	r0, #0
 641 005e 70BD     		pop	{r4, r5, r6, pc}
 642              	.LVL43:
 643              	.L35:
 448:Drivers/STM32WBxx_HAL_Driver/Src/stm32wbxx_hal_rtc_ex.c ****     sTimeStamp->Minutes = (uint8_t)RTC_Bcd2ToByte(sTimeStamp->Minutes);
 644              		.loc 1 448 5 is_stmt 1 view .LVU221
 448:Drivers/STM32WBxx_HAL_Driver/Src/stm32wbxx_hal_rtc_ex.c ****     sTimeStamp->Minutes = (uint8_t)RTC_Bcd2ToByte(sTimeStamp->Minutes);
 645              		.loc 1 448 36 is_stmt 0 view .LVU222
 646 0060 2078     		ldrb	r0, [r4]	@ zero_extendqisi2
 647 0062 FFF7FEFF 		bl	RTC_Bcd2ToByte
 648              	.LVL44:
 448:Drivers/STM32WBxx_HAL_Driver/Src/stm32wbxx_hal_rtc_ex.c ****     sTimeStamp->Minutes = (uint8_t)RTC_Bcd2ToByte(sTimeStamp->Minutes);
 649              		.loc 1 448 25 discriminator 1 view .LVU223
 650 0066 2070     		strb	r0, [r4]
 449:Drivers/STM32WBxx_HAL_Driver/Src/stm32wbxx_hal_rtc_ex.c ****     sTimeStamp->Seconds = (uint8_t)RTC_Bcd2ToByte(sTimeStamp->Seconds);
 651              		.loc 1 449 5 is_stmt 1 view .LVU224
 449:Drivers/STM32WBxx_HAL_Driver/Src/stm32wbxx_hal_rtc_ex.c ****     sTimeStamp->Seconds = (uint8_t)RTC_Bcd2ToByte(sTimeStamp->Seconds);
 652              		.loc 1 449 36 is_stmt 0 view .LVU225
 653 0068 6078     		ldrb	r0, [r4, #1]	@ zero_extendqisi2
 654 006a FFF7FEFF 		bl	RTC_Bcd2ToByte
 655              	.LVL45:
 449:Drivers/STM32WBxx_HAL_Driver/Src/stm32wbxx_hal_rtc_ex.c ****     sTimeStamp->Seconds = (uint8_t)RTC_Bcd2ToByte(sTimeStamp->Seconds);
 656              		.loc 1 449 25 discriminator 1 view .LVU226
 657 006e 6070     		strb	r0, [r4, #1]
 450:Drivers/STM32WBxx_HAL_Driver/Src/stm32wbxx_hal_rtc_ex.c **** 
 658              		.loc 1 450 5 is_stmt 1 view .LVU227
 450:Drivers/STM32WBxx_HAL_Driver/Src/stm32wbxx_hal_rtc_ex.c **** 
 659              		.loc 1 450 36 is_stmt 0 view .LVU228
 660 0070 A078     		ldrb	r0, [r4, #2]	@ zero_extendqisi2
 661 0072 FFF7FEFF 		bl	RTC_Bcd2ToByte
 662              	.LVL46:
 450:Drivers/STM32WBxx_HAL_Driver/Src/stm32wbxx_hal_rtc_ex.c **** 
 663              		.loc 1 450 25 discriminator 1 view .LVU229
 664 0076 A070     		strb	r0, [r4, #2]
 453:Drivers/STM32WBxx_HAL_Driver/Src/stm32wbxx_hal_rtc_ex.c ****     sTimeStampDate->Date    = (uint8_t)RTC_Bcd2ToByte(sTimeStampDate->Date);
 665              		.loc 1 453 5 is_stmt 1 view .LVU230
 453:Drivers/STM32WBxx_HAL_Driver/Src/stm32wbxx_hal_rtc_ex.c ****     sTimeStampDate->Date    = (uint8_t)RTC_Bcd2ToByte(sTimeStampDate->Date);
 666              		.loc 1 453 40 is_stmt 0 view .LVU231
 667 0078 6878     		ldrb	r0, [r5, #1]	@ zero_extendqisi2
ARM GAS  C:\Users\Nathan\AppData\Local\Temp\ccWT97xY.s 			page 21


 668 007a FFF7FEFF 		bl	RTC_Bcd2ToByte
 669              	.LVL47:
 453:Drivers/STM32WBxx_HAL_Driver/Src/stm32wbxx_hal_rtc_ex.c ****     sTimeStampDate->Date    = (uint8_t)RTC_Bcd2ToByte(sTimeStampDate->Date);
 670              		.loc 1 453 29 discriminator 1 view .LVU232
 671 007e 6870     		strb	r0, [r5, #1]
 454:Drivers/STM32WBxx_HAL_Driver/Src/stm32wbxx_hal_rtc_ex.c ****     sTimeStampDate->WeekDay = (uint8_t)RTC_Bcd2ToByte(sTimeStampDate->WeekDay);
 672              		.loc 1 454 5 is_stmt 1 view .LVU233
 454:Drivers/STM32WBxx_HAL_Driver/Src/stm32wbxx_hal_rtc_ex.c ****     sTimeStampDate->WeekDay = (uint8_t)RTC_Bcd2ToByte(sTimeStampDate->WeekDay);
 673              		.loc 1 454 40 is_stmt 0 view .LVU234
 674 0080 A878     		ldrb	r0, [r5, #2]	@ zero_extendqisi2
 675 0082 FFF7FEFF 		bl	RTC_Bcd2ToByte
 676              	.LVL48:
 454:Drivers/STM32WBxx_HAL_Driver/Src/stm32wbxx_hal_rtc_ex.c ****     sTimeStampDate->WeekDay = (uint8_t)RTC_Bcd2ToByte(sTimeStampDate->WeekDay);
 677              		.loc 1 454 29 discriminator 1 view .LVU235
 678 0086 A870     		strb	r0, [r5, #2]
 455:Drivers/STM32WBxx_HAL_Driver/Src/stm32wbxx_hal_rtc_ex.c ****   }
 679              		.loc 1 455 5 is_stmt 1 view .LVU236
 455:Drivers/STM32WBxx_HAL_Driver/Src/stm32wbxx_hal_rtc_ex.c ****   }
 680              		.loc 1 455 40 is_stmt 0 view .LVU237
 681 0088 2878     		ldrb	r0, [r5]	@ zero_extendqisi2
 682 008a FFF7FEFF 		bl	RTC_Bcd2ToByte
 683              	.LVL49:
 455:Drivers/STM32WBxx_HAL_Driver/Src/stm32wbxx_hal_rtc_ex.c ****   }
 684              		.loc 1 455 29 discriminator 1 view .LVU238
 685 008e 2870     		strb	r0, [r5]
 686 0090 D8E7     		b	.L33
 687              	.L37:
 688 0092 00BF     		.align	2
 689              	.L36:
 690 0094 7FFFFDFF 		.word	-131201
 691              		.cfi_endproc
 692              	.LFE1109:
 694              		.section	.text.HAL_RTCEx_SetTamper,"ax",%progbits
 695              		.align	1
 696              		.global	HAL_RTCEx_SetTamper
 697              		.syntax unified
 698              		.thumb
 699              		.thumb_func
 701              	HAL_RTCEx_SetTamper:
 702              	.LVL50:
 703              	.LFB1110:
 466:Drivers/STM32WBxx_HAL_Driver/Src/stm32wbxx_hal_rtc_ex.c **** 
 467:Drivers/STM32WBxx_HAL_Driver/Src/stm32wbxx_hal_rtc_ex.c **** /**
 468:Drivers/STM32WBxx_HAL_Driver/Src/stm32wbxx_hal_rtc_ex.c ****   * @brief  Sets Tamper.
 469:Drivers/STM32WBxx_HAL_Driver/Src/stm32wbxx_hal_rtc_ex.c ****   * @note   By calling this API the tamper global interrupt will be disabled and
 470:Drivers/STM32WBxx_HAL_Driver/Src/stm32wbxx_hal_rtc_ex.c ****   *         the selected tamper's interrupt as well.
 471:Drivers/STM32WBxx_HAL_Driver/Src/stm32wbxx_hal_rtc_ex.c ****   * @param  hrtc pointer to a RTC_HandleTypeDef structure that contains
 472:Drivers/STM32WBxx_HAL_Driver/Src/stm32wbxx_hal_rtc_ex.c ****   *                the configuration information for RTC.
 473:Drivers/STM32WBxx_HAL_Driver/Src/stm32wbxx_hal_rtc_ex.c ****   * @param  sTamper Pointer to Tamper Structure.
 474:Drivers/STM32WBxx_HAL_Driver/Src/stm32wbxx_hal_rtc_ex.c ****   * @retval HAL status
 475:Drivers/STM32WBxx_HAL_Driver/Src/stm32wbxx_hal_rtc_ex.c ****   */
 476:Drivers/STM32WBxx_HAL_Driver/Src/stm32wbxx_hal_rtc_ex.c **** HAL_StatusTypeDef HAL_RTCEx_SetTamper(RTC_HandleTypeDef *hrtc, RTC_TamperTypeDef *sTamper)
 477:Drivers/STM32WBxx_HAL_Driver/Src/stm32wbxx_hal_rtc_ex.c **** {
 704              		.loc 1 477 1 is_stmt 1 view -0
 705              		.cfi_startproc
 706              		@ args = 0, pretend = 0, frame = 0
 707              		@ frame_needed = 0, uses_anonymous_args = 0
ARM GAS  C:\Users\Nathan\AppData\Local\Temp\ccWT97xY.s 			page 22


 708              		@ link register save eliminated.
 478:Drivers/STM32WBxx_HAL_Driver/Src/stm32wbxx_hal_rtc_ex.c ****   uint32_t tmpreg = 0U;
 709              		.loc 1 478 3 view .LVU240
 479:Drivers/STM32WBxx_HAL_Driver/Src/stm32wbxx_hal_rtc_ex.c **** 
 480:Drivers/STM32WBxx_HAL_Driver/Src/stm32wbxx_hal_rtc_ex.c ****   /* Check the parameters */
 481:Drivers/STM32WBxx_HAL_Driver/Src/stm32wbxx_hal_rtc_ex.c ****   assert_param(IS_RTC_TAMPER(sTamper->Tamper));
 710              		.loc 1 481 3 view .LVU241
 482:Drivers/STM32WBxx_HAL_Driver/Src/stm32wbxx_hal_rtc_ex.c ****   assert_param(IS_RTC_TAMPER_TRIGGER(sTamper->Trigger));
 711              		.loc 1 482 3 view .LVU242
 483:Drivers/STM32WBxx_HAL_Driver/Src/stm32wbxx_hal_rtc_ex.c ****   assert_param(IS_RTC_TAMPER_ERASE_MODE(sTamper->NoErase));
 712              		.loc 1 483 3 view .LVU243
 484:Drivers/STM32WBxx_HAL_Driver/Src/stm32wbxx_hal_rtc_ex.c ****   assert_param(IS_RTC_TAMPER_MASKFLAG_STATE(sTamper->MaskFlag));
 713              		.loc 1 484 3 view .LVU244
 485:Drivers/STM32WBxx_HAL_Driver/Src/stm32wbxx_hal_rtc_ex.c ****   assert_param(IS_RTC_TAMPER_FILTER(sTamper->Filter));
 714              		.loc 1 485 3 view .LVU245
 486:Drivers/STM32WBxx_HAL_Driver/Src/stm32wbxx_hal_rtc_ex.c ****   assert_param(IS_RTC_TAMPER_FILTER_CONFIG_CORRECT(sTamper->Filter, sTamper->Trigger));
 715              		.loc 1 486 3 view .LVU246
 487:Drivers/STM32WBxx_HAL_Driver/Src/stm32wbxx_hal_rtc_ex.c ****   assert_param(IS_RTC_TAMPER_SAMPLING_FREQ(sTamper->SamplingFrequency));
 716              		.loc 1 487 3 view .LVU247
 488:Drivers/STM32WBxx_HAL_Driver/Src/stm32wbxx_hal_rtc_ex.c ****   assert_param(IS_RTC_TAMPER_PRECHARGE_DURATION(sTamper->PrechargeDuration));
 717              		.loc 1 488 3 view .LVU248
 489:Drivers/STM32WBxx_HAL_Driver/Src/stm32wbxx_hal_rtc_ex.c ****   assert_param(IS_RTC_TAMPER_PULLUP_STATE(sTamper->TamperPullUp));
 718              		.loc 1 489 3 view .LVU249
 490:Drivers/STM32WBxx_HAL_Driver/Src/stm32wbxx_hal_rtc_ex.c ****   assert_param(IS_RTC_TAMPER_TIMESTAMPONTAMPER_DETECTION(sTamper->TimeStampOnTamperDetection));
 719              		.loc 1 490 3 view .LVU250
 491:Drivers/STM32WBxx_HAL_Driver/Src/stm32wbxx_hal_rtc_ex.c **** 
 492:Drivers/STM32WBxx_HAL_Driver/Src/stm32wbxx_hal_rtc_ex.c ****   /* Process Locked */
 493:Drivers/STM32WBxx_HAL_Driver/Src/stm32wbxx_hal_rtc_ex.c ****   __HAL_LOCK(hrtc);
 720              		.loc 1 493 3 view .LVU251
 721              		.loc 1 493 3 view .LVU252
 722 0000 90F82030 		ldrb	r3, [r0, #32]	@ zero_extendqisi2
 723 0004 012B     		cmp	r3, #1
 724 0006 7FD0     		beq	.L57
 477:Drivers/STM32WBxx_HAL_Driver/Src/stm32wbxx_hal_rtc_ex.c ****   uint32_t tmpreg = 0U;
 725              		.loc 1 477 1 is_stmt 0 view .LVU253
 726 0008 30B4     		push	{r4, r5}
 727              		.cfi_def_cfa_offset 8
 728              		.cfi_offset 4, -8
 729              		.cfi_offset 5, -4
 730 000a 8446     		mov	ip, r0
 731              		.loc 1 493 3 is_stmt 1 discriminator 2 view .LVU254
 732 000c 0123     		movs	r3, #1
 733 000e 80F82030 		strb	r3, [r0, #32]
 734              		.loc 1 493 3 discriminator 2 view .LVU255
 494:Drivers/STM32WBxx_HAL_Driver/Src/stm32wbxx_hal_rtc_ex.c **** 
 495:Drivers/STM32WBxx_HAL_Driver/Src/stm32wbxx_hal_rtc_ex.c ****   hrtc->State = HAL_RTC_STATE_BUSY;
 735              		.loc 1 495 3 view .LVU256
 736              		.loc 1 495 15 is_stmt 0 view .LVU257
 737 0012 0223     		movs	r3, #2
 738 0014 80F82130 		strb	r3, [r0, #33]
 496:Drivers/STM32WBxx_HAL_Driver/Src/stm32wbxx_hal_rtc_ex.c **** 
 497:Drivers/STM32WBxx_HAL_Driver/Src/stm32wbxx_hal_rtc_ex.c ****   /* Copy control register into temporary variable */
 498:Drivers/STM32WBxx_HAL_Driver/Src/stm32wbxx_hal_rtc_ex.c ****   tmpreg = hrtc->Instance->TAMPCR;
 739              		.loc 1 498 3 is_stmt 1 view .LVU258
 740              		.loc 1 498 16 is_stmt 0 view .LVU259
 741 0018 0068     		ldr	r0, [r0]
 742              	.LVL51:
ARM GAS  C:\Users\Nathan\AppData\Local\Temp\ccWT97xY.s 			page 23


 743              		.loc 1 498 10 view .LVU260
 744 001a 036C     		ldr	r3, [r0, #64]
 745              	.LVL52:
 499:Drivers/STM32WBxx_HAL_Driver/Src/stm32wbxx_hal_rtc_ex.c **** 
 500:Drivers/STM32WBxx_HAL_Driver/Src/stm32wbxx_hal_rtc_ex.c ****   /* Enable selected tamper */
 501:Drivers/STM32WBxx_HAL_Driver/Src/stm32wbxx_hal_rtc_ex.c ****   tmpreg |= (sTamper->Tamper);
 746              		.loc 1 501 3 is_stmt 1 view .LVU261
 747              		.loc 1 501 21 is_stmt 0 view .LVU262
 748 001c 0C68     		ldr	r4, [r1]
 749              		.loc 1 501 10 view .LVU263
 750 001e 2343     		orrs	r3, r3, r4
 751              	.LVL53:
 502:Drivers/STM32WBxx_HAL_Driver/Src/stm32wbxx_hal_rtc_ex.c **** 
 503:Drivers/STM32WBxx_HAL_Driver/Src/stm32wbxx_hal_rtc_ex.c ****   /* Configure the tamper trigger bit (this bit is just on the right of the
 504:Drivers/STM32WBxx_HAL_Driver/Src/stm32wbxx_hal_rtc_ex.c ****        tamper enable bit, hence the one-time right shift before updating it) */
 505:Drivers/STM32WBxx_HAL_Driver/Src/stm32wbxx_hal_rtc_ex.c ****   if (sTamper->Trigger == RTC_TAMPERTRIGGER_FALLINGEDGE)
 752              		.loc 1 505 3 is_stmt 1 view .LVU264
 753              		.loc 1 505 14 is_stmt 0 view .LVU265
 754 0020 8A68     		ldr	r2, [r1, #8]
 755              		.loc 1 505 6 view .LVU266
 756 0022 022A     		cmp	r2, #2
 757 0024 4DD0     		beq	.L62
 506:Drivers/STM32WBxx_HAL_Driver/Src/stm32wbxx_hal_rtc_ex.c ****   {
 507:Drivers/STM32WBxx_HAL_Driver/Src/stm32wbxx_hal_rtc_ex.c ****     /* Set the tamper trigger bit (case of falling edge or high level) */
 508:Drivers/STM32WBxx_HAL_Driver/Src/stm32wbxx_hal_rtc_ex.c ****     tmpreg |= (uint32_t)(sTamper->Tamper << 1U);
 509:Drivers/STM32WBxx_HAL_Driver/Src/stm32wbxx_hal_rtc_ex.c ****   }
 510:Drivers/STM32WBxx_HAL_Driver/Src/stm32wbxx_hal_rtc_ex.c ****   else
 511:Drivers/STM32WBxx_HAL_Driver/Src/stm32wbxx_hal_rtc_ex.c ****   {
 512:Drivers/STM32WBxx_HAL_Driver/Src/stm32wbxx_hal_rtc_ex.c ****     /* Clear the tamper trigger bit (case of rising edge or low level) */
 513:Drivers/STM32WBxx_HAL_Driver/Src/stm32wbxx_hal_rtc_ex.c ****     tmpreg &= (uint32_t)~(sTamper->Tamper << 1U);
 758              		.loc 1 513 5 is_stmt 1 view .LVU267
 759              		.loc 1 513 12 is_stmt 0 view .LVU268
 760 0026 23EA4403 		bic	r3, r3, r4, lsl #1
 761              	.LVL54:
 762              	.L41:
 514:Drivers/STM32WBxx_HAL_Driver/Src/stm32wbxx_hal_rtc_ex.c ****   }
 515:Drivers/STM32WBxx_HAL_Driver/Src/stm32wbxx_hal_rtc_ex.c **** 
 516:Drivers/STM32WBxx_HAL_Driver/Src/stm32wbxx_hal_rtc_ex.c ****   /* Configure the backup registers erasure enabling bits */
 517:Drivers/STM32WBxx_HAL_Driver/Src/stm32wbxx_hal_rtc_ex.c ****   if (sTamper->NoErase != RTC_TAMPER_ERASE_BACKUP_ENABLE)
 763              		.loc 1 517 3 is_stmt 1 view .LVU269
 764              		.loc 1 517 14 is_stmt 0 view .LVU270
 765 002a CA68     		ldr	r2, [r1, #12]
 766              		.loc 1 517 6 view .LVU271
 767 002c 002A     		cmp	r2, #0
 768 002e 4BD0     		beq	.L42
 518:Drivers/STM32WBxx_HAL_Driver/Src/stm32wbxx_hal_rtc_ex.c ****   {
 519:Drivers/STM32WBxx_HAL_Driver/Src/stm32wbxx_hal_rtc_ex.c **** #if defined(RTC_TAMPER1_SUPPORT)
 520:Drivers/STM32WBxx_HAL_Driver/Src/stm32wbxx_hal_rtc_ex.c ****     if ((sTamper->Tamper & RTC_TAMPER_1) != 0U)
 769              		.loc 1 520 5 is_stmt 1 view .LVU272
 770              		.loc 1 520 8 is_stmt 0 view .LVU273
 771 0030 14F0010F 		tst	r4, #1
 772 0034 01D0     		beq	.L43
 521:Drivers/STM32WBxx_HAL_Driver/Src/stm32wbxx_hal_rtc_ex.c ****     {
 522:Drivers/STM32WBxx_HAL_Driver/Src/stm32wbxx_hal_rtc_ex.c ****       tmpreg |= (uint32_t)(RTC_TAMPCR_TAMP1NOERASE);
 773              		.loc 1 522 7 is_stmt 1 view .LVU274
 774              		.loc 1 522 14 is_stmt 0 view .LVU275
 775 0036 43F40033 		orr	r3, r3, #131072
ARM GAS  C:\Users\Nathan\AppData\Local\Temp\ccWT97xY.s 			page 24


 776              	.LVL55:
 777              	.L43:
 523:Drivers/STM32WBxx_HAL_Driver/Src/stm32wbxx_hal_rtc_ex.c ****     }
 524:Drivers/STM32WBxx_HAL_Driver/Src/stm32wbxx_hal_rtc_ex.c **** #endif /* RTC_TAMPER1_SUPPORT */
 525:Drivers/STM32WBxx_HAL_Driver/Src/stm32wbxx_hal_rtc_ex.c ****     if ((sTamper->Tamper & RTC_TAMPER_2) != 0U)
 778              		.loc 1 525 5 is_stmt 1 view .LVU276
 779              		.loc 1 525 8 is_stmt 0 view .LVU277
 780 003a 14F0080F 		tst	r4, #8
 781 003e 01D0     		beq	.L44
 526:Drivers/STM32WBxx_HAL_Driver/Src/stm32wbxx_hal_rtc_ex.c ****     {
 527:Drivers/STM32WBxx_HAL_Driver/Src/stm32wbxx_hal_rtc_ex.c ****       tmpreg |= (uint32_t)(RTC_TAMPCR_TAMP2NOERASE);
 782              		.loc 1 527 7 is_stmt 1 view .LVU278
 783              		.loc 1 527 14 is_stmt 0 view .LVU279
 784 0040 43F48013 		orr	r3, r3, #1048576
 785              	.LVL56:
 786              	.L44:
 528:Drivers/STM32WBxx_HAL_Driver/Src/stm32wbxx_hal_rtc_ex.c ****     }
 529:Drivers/STM32WBxx_HAL_Driver/Src/stm32wbxx_hal_rtc_ex.c **** #if defined(RTC_TAMPER3_SUPPORT)
 530:Drivers/STM32WBxx_HAL_Driver/Src/stm32wbxx_hal_rtc_ex.c ****     if ((sTamper->Tamper & RTC_TAMPER_3) != 0U)
 787              		.loc 1 530 5 is_stmt 1 view .LVU280
 788              		.loc 1 530 8 is_stmt 0 view .LVU281
 789 0044 14F0200F 		tst	r4, #32
 790 0048 01D0     		beq	.L45
 531:Drivers/STM32WBxx_HAL_Driver/Src/stm32wbxx_hal_rtc_ex.c ****     {
 532:Drivers/STM32WBxx_HAL_Driver/Src/stm32wbxx_hal_rtc_ex.c ****       tmpreg |= (uint32_t)(RTC_TAMPCR_TAMP3NOERASE);
 791              		.loc 1 532 7 is_stmt 1 view .LVU282
 792              		.loc 1 532 14 is_stmt 0 view .LVU283
 793 004a 43F40003 		orr	r3, r3, #8388608
 794              	.LVL57:
 795              	.L45:
 533:Drivers/STM32WBxx_HAL_Driver/Src/stm32wbxx_hal_rtc_ex.c ****     }
 534:Drivers/STM32WBxx_HAL_Driver/Src/stm32wbxx_hal_rtc_ex.c **** #endif /* RTC_TAMPER3_SUPPORT */
 535:Drivers/STM32WBxx_HAL_Driver/Src/stm32wbxx_hal_rtc_ex.c ****   }
 536:Drivers/STM32WBxx_HAL_Driver/Src/stm32wbxx_hal_rtc_ex.c ****   else
 537:Drivers/STM32WBxx_HAL_Driver/Src/stm32wbxx_hal_rtc_ex.c ****   {
 538:Drivers/STM32WBxx_HAL_Driver/Src/stm32wbxx_hal_rtc_ex.c **** #if defined(RTC_TAMPER1_SUPPORT)
 539:Drivers/STM32WBxx_HAL_Driver/Src/stm32wbxx_hal_rtc_ex.c ****     if ((sTamper->Tamper & RTC_TAMPER_1) != 0U)
 540:Drivers/STM32WBxx_HAL_Driver/Src/stm32wbxx_hal_rtc_ex.c ****     {
 541:Drivers/STM32WBxx_HAL_Driver/Src/stm32wbxx_hal_rtc_ex.c ****       tmpreg &= (uint32_t)~(RTC_TAMPCR_TAMP1NOERASE);
 542:Drivers/STM32WBxx_HAL_Driver/Src/stm32wbxx_hal_rtc_ex.c ****     }
 543:Drivers/STM32WBxx_HAL_Driver/Src/stm32wbxx_hal_rtc_ex.c **** #endif /* RTC_TAMPER1_SUPPORT */
 544:Drivers/STM32WBxx_HAL_Driver/Src/stm32wbxx_hal_rtc_ex.c ****     if ((sTamper->Tamper & RTC_TAMPER_2) != 0U)
 545:Drivers/STM32WBxx_HAL_Driver/Src/stm32wbxx_hal_rtc_ex.c ****     {
 546:Drivers/STM32WBxx_HAL_Driver/Src/stm32wbxx_hal_rtc_ex.c ****       tmpreg &= (uint32_t)~(RTC_TAMPCR_TAMP2NOERASE);
 547:Drivers/STM32WBxx_HAL_Driver/Src/stm32wbxx_hal_rtc_ex.c ****     }
 548:Drivers/STM32WBxx_HAL_Driver/Src/stm32wbxx_hal_rtc_ex.c **** #if defined(RTC_TAMPER3_SUPPORT)
 549:Drivers/STM32WBxx_HAL_Driver/Src/stm32wbxx_hal_rtc_ex.c ****     if ((sTamper->Tamper & RTC_TAMPER_3) != 0U)
 550:Drivers/STM32WBxx_HAL_Driver/Src/stm32wbxx_hal_rtc_ex.c ****     {
 551:Drivers/STM32WBxx_HAL_Driver/Src/stm32wbxx_hal_rtc_ex.c ****       tmpreg &= (uint32_t)~(RTC_TAMPCR_TAMP3NOERASE);
 552:Drivers/STM32WBxx_HAL_Driver/Src/stm32wbxx_hal_rtc_ex.c ****     }
 553:Drivers/STM32WBxx_HAL_Driver/Src/stm32wbxx_hal_rtc_ex.c **** #endif /* RTC_TAMPER3_SUPPORT */
 554:Drivers/STM32WBxx_HAL_Driver/Src/stm32wbxx_hal_rtc_ex.c ****   }
 555:Drivers/STM32WBxx_HAL_Driver/Src/stm32wbxx_hal_rtc_ex.c **** 
 556:Drivers/STM32WBxx_HAL_Driver/Src/stm32wbxx_hal_rtc_ex.c ****   /* Configure the tamper flags masking bits */
 557:Drivers/STM32WBxx_HAL_Driver/Src/stm32wbxx_hal_rtc_ex.c ****   if (sTamper->MaskFlag != RTC_TAMPERMASK_FLAG_DISABLE)
 796              		.loc 1 557 3 is_stmt 1 view .LVU284
 797              		.loc 1 557 14 is_stmt 0 view .LVU285
ARM GAS  C:\Users\Nathan\AppData\Local\Temp\ccWT97xY.s 			page 25


 798 004e 0A69     		ldr	r2, [r1, #16]
 799              		.loc 1 557 6 view .LVU286
 800 0050 002A     		cmp	r2, #0
 801 0052 49D0     		beq	.L48
 558:Drivers/STM32WBxx_HAL_Driver/Src/stm32wbxx_hal_rtc_ex.c ****   {
 559:Drivers/STM32WBxx_HAL_Driver/Src/stm32wbxx_hal_rtc_ex.c **** #if defined(RTC_TAMPER1_SUPPORT)
 560:Drivers/STM32WBxx_HAL_Driver/Src/stm32wbxx_hal_rtc_ex.c ****     if ((sTamper->Tamper & RTC_TAMPER_1) != 0U)
 802              		.loc 1 560 5 is_stmt 1 view .LVU287
 803              		.loc 1 560 8 is_stmt 0 view .LVU288
 804 0054 14F0010F 		tst	r4, #1
 805 0058 01D0     		beq	.L49
 561:Drivers/STM32WBxx_HAL_Driver/Src/stm32wbxx_hal_rtc_ex.c ****     {
 562:Drivers/STM32WBxx_HAL_Driver/Src/stm32wbxx_hal_rtc_ex.c ****       tmpreg |= (uint32_t)(RTC_TAMPCR_TAMP1MF);
 806              		.loc 1 562 7 is_stmt 1 view .LVU289
 807              		.loc 1 562 14 is_stmt 0 view .LVU290
 808 005a 43F48023 		orr	r3, r3, #262144
 809              	.LVL58:
 810              	.L49:
 563:Drivers/STM32WBxx_HAL_Driver/Src/stm32wbxx_hal_rtc_ex.c ****     }
 564:Drivers/STM32WBxx_HAL_Driver/Src/stm32wbxx_hal_rtc_ex.c **** #endif /* RTC_TAMPER1_SUPPORT */
 565:Drivers/STM32WBxx_HAL_Driver/Src/stm32wbxx_hal_rtc_ex.c ****     if ((sTamper->Tamper & RTC_TAMPER_2) != 0U)
 811              		.loc 1 565 5 is_stmt 1 view .LVU291
 812              		.loc 1 565 8 is_stmt 0 view .LVU292
 813 005e 14F0080F 		tst	r4, #8
 814 0062 01D0     		beq	.L50
 566:Drivers/STM32WBxx_HAL_Driver/Src/stm32wbxx_hal_rtc_ex.c ****     {
 567:Drivers/STM32WBxx_HAL_Driver/Src/stm32wbxx_hal_rtc_ex.c ****       tmpreg |= (uint32_t)(RTC_TAMPCR_TAMP2MF);
 815              		.loc 1 567 7 is_stmt 1 view .LVU293
 816              		.loc 1 567 14 is_stmt 0 view .LVU294
 817 0064 43F40013 		orr	r3, r3, #2097152
 818              	.LVL59:
 819              	.L50:
 568:Drivers/STM32WBxx_HAL_Driver/Src/stm32wbxx_hal_rtc_ex.c ****     }
 569:Drivers/STM32WBxx_HAL_Driver/Src/stm32wbxx_hal_rtc_ex.c **** #if defined(RTC_TAMPER3_SUPPORT)
 570:Drivers/STM32WBxx_HAL_Driver/Src/stm32wbxx_hal_rtc_ex.c ****     if ((sTamper->Tamper & RTC_TAMPER_3) != 0U)
 820              		.loc 1 570 5 is_stmt 1 view .LVU295
 821              		.loc 1 570 8 is_stmt 0 view .LVU296
 822 0068 14F0200F 		tst	r4, #32
 823 006c 01D0     		beq	.L51
 571:Drivers/STM32WBxx_HAL_Driver/Src/stm32wbxx_hal_rtc_ex.c ****     {
 572:Drivers/STM32WBxx_HAL_Driver/Src/stm32wbxx_hal_rtc_ex.c ****       tmpreg |= (uint32_t)(RTC_TAMPCR_TAMP3MF);
 824              		.loc 1 572 7 is_stmt 1 view .LVU297
 825              		.loc 1 572 14 is_stmt 0 view .LVU298
 826 006e 43F08073 		orr	r3, r3, #16777216
 827              	.LVL60:
 828              	.L51:
 573:Drivers/STM32WBxx_HAL_Driver/Src/stm32wbxx_hal_rtc_ex.c ****     }
 574:Drivers/STM32WBxx_HAL_Driver/Src/stm32wbxx_hal_rtc_ex.c **** #endif /* RTC_TAMPER3_SUPPORT */
 575:Drivers/STM32WBxx_HAL_Driver/Src/stm32wbxx_hal_rtc_ex.c ****   }
 576:Drivers/STM32WBxx_HAL_Driver/Src/stm32wbxx_hal_rtc_ex.c ****   else
 577:Drivers/STM32WBxx_HAL_Driver/Src/stm32wbxx_hal_rtc_ex.c ****   {
 578:Drivers/STM32WBxx_HAL_Driver/Src/stm32wbxx_hal_rtc_ex.c **** #if defined(RTC_TAMPER1_SUPPORT)
 579:Drivers/STM32WBxx_HAL_Driver/Src/stm32wbxx_hal_rtc_ex.c ****     if ((sTamper->Tamper & RTC_TAMPER_1) != 0U)
 580:Drivers/STM32WBxx_HAL_Driver/Src/stm32wbxx_hal_rtc_ex.c ****     {
 581:Drivers/STM32WBxx_HAL_Driver/Src/stm32wbxx_hal_rtc_ex.c ****       tmpreg &= (uint32_t)~(RTC_TAMPCR_TAMP1MF);
 582:Drivers/STM32WBxx_HAL_Driver/Src/stm32wbxx_hal_rtc_ex.c ****     }
 583:Drivers/STM32WBxx_HAL_Driver/Src/stm32wbxx_hal_rtc_ex.c **** #endif /* RTC_TAMPER1_SUPPORT */
ARM GAS  C:\Users\Nathan\AppData\Local\Temp\ccWT97xY.s 			page 26


 584:Drivers/STM32WBxx_HAL_Driver/Src/stm32wbxx_hal_rtc_ex.c ****     if ((sTamper->Tamper & RTC_TAMPER_2) != 0U)
 585:Drivers/STM32WBxx_HAL_Driver/Src/stm32wbxx_hal_rtc_ex.c ****     {
 586:Drivers/STM32WBxx_HAL_Driver/Src/stm32wbxx_hal_rtc_ex.c ****       tmpreg &= (uint32_t)~(RTC_TAMPCR_TAMP2MF);
 587:Drivers/STM32WBxx_HAL_Driver/Src/stm32wbxx_hal_rtc_ex.c ****     }
 588:Drivers/STM32WBxx_HAL_Driver/Src/stm32wbxx_hal_rtc_ex.c **** #if defined(RTC_TAMPER3_SUPPORT)
 589:Drivers/STM32WBxx_HAL_Driver/Src/stm32wbxx_hal_rtc_ex.c ****     if ((sTamper->Tamper & RTC_TAMPER_3) != 0U)
 590:Drivers/STM32WBxx_HAL_Driver/Src/stm32wbxx_hal_rtc_ex.c ****     {
 591:Drivers/STM32WBxx_HAL_Driver/Src/stm32wbxx_hal_rtc_ex.c ****       tmpreg &= (uint32_t)~(RTC_TAMPCR_TAMP3MF);
 592:Drivers/STM32WBxx_HAL_Driver/Src/stm32wbxx_hal_rtc_ex.c ****     }
 593:Drivers/STM32WBxx_HAL_Driver/Src/stm32wbxx_hal_rtc_ex.c **** #endif /* RTC_TAMPER3_SUPPORT */
 594:Drivers/STM32WBxx_HAL_Driver/Src/stm32wbxx_hal_rtc_ex.c ****   }
 595:Drivers/STM32WBxx_HAL_Driver/Src/stm32wbxx_hal_rtc_ex.c **** 
 596:Drivers/STM32WBxx_HAL_Driver/Src/stm32wbxx_hal_rtc_ex.c ****   /* Clear remaining fields before setting them */
 597:Drivers/STM32WBxx_HAL_Driver/Src/stm32wbxx_hal_rtc_ex.c ****   tmpreg &= ~(RTC_TAMPERFILTER_MASK              | \
 829              		.loc 1 597 3 is_stmt 1 view .LVU299
 830              		.loc 1 597 10 is_stmt 0 view .LVU300
 831 0072 23F47F42 		bic	r2, r3, #65280
 832 0076 22F08002 		bic	r2, r2, #128
 833              	.LVL61:
 598:Drivers/STM32WBxx_HAL_Driver/Src/stm32wbxx_hal_rtc_ex.c ****               RTC_TAMPERSAMPLINGFREQ_RTCCLK_MASK | \
 599:Drivers/STM32WBxx_HAL_Driver/Src/stm32wbxx_hal_rtc_ex.c ****               RTC_TAMPERPRECHARGEDURATION_MASK   | \
 600:Drivers/STM32WBxx_HAL_Driver/Src/stm32wbxx_hal_rtc_ex.c ****               RTC_TAMPER_PULLUP_MASK             | \
 601:Drivers/STM32WBxx_HAL_Driver/Src/stm32wbxx_hal_rtc_ex.c ****               RTC_TIMESTAMPONTAMPERDETECTION_MASK);
 602:Drivers/STM32WBxx_HAL_Driver/Src/stm32wbxx_hal_rtc_ex.c **** 
 603:Drivers/STM32WBxx_HAL_Driver/Src/stm32wbxx_hal_rtc_ex.c ****   /* Set remaining parameters of desired configuration into temporary variable */
 604:Drivers/STM32WBxx_HAL_Driver/Src/stm32wbxx_hal_rtc_ex.c ****   tmpreg |= ((uint32_t)sTamper->Filter            | \
 834              		.loc 1 604 3 is_stmt 1 view .LVU301
 835              		.loc 1 604 31 is_stmt 0 view .LVU302
 836 007a 4B69     		ldr	r3, [r1, #20]
 837              		.loc 1 604 51 view .LVU303
 838 007c 8D69     		ldr	r5, [r1, #24]
 839 007e 2B43     		orrs	r3, r3, r5
 605:Drivers/STM32WBxx_HAL_Driver/Src/stm32wbxx_hal_rtc_ex.c ****              (uint32_t)sTamper->SamplingFrequency | \
 840              		.loc 1 605 51 view .LVU304
 841 0080 CD69     		ldr	r5, [r1, #28]
 842 0082 2B43     		orrs	r3, r3, r5
 606:Drivers/STM32WBxx_HAL_Driver/Src/stm32wbxx_hal_rtc_ex.c ****              (uint32_t)sTamper->PrechargeDuration | \
 843              		.loc 1 606 51 view .LVU305
 844 0084 0D6A     		ldr	r5, [r1, #32]
 845 0086 2B43     		orrs	r3, r3, r5
 607:Drivers/STM32WBxx_HAL_Driver/Src/stm32wbxx_hal_rtc_ex.c ****              (uint32_t)sTamper->TamperPullUp      | \
 608:Drivers/STM32WBxx_HAL_Driver/Src/stm32wbxx_hal_rtc_ex.c ****              (uint32_t)sTamper->TimeStampOnTamperDetection);
 846              		.loc 1 608 31 view .LVU306
 847 0088 496A     		ldr	r1, [r1, #36]
 848              	.LVL62:
 607:Drivers/STM32WBxx_HAL_Driver/Src/stm32wbxx_hal_rtc_ex.c ****              (uint32_t)sTamper->TamperPullUp      | \
 849              		.loc 1 607 51 view .LVU307
 850 008a 0B43     		orrs	r3, r3, r1
 604:Drivers/STM32WBxx_HAL_Driver/Src/stm32wbxx_hal_rtc_ex.c ****              (uint32_t)sTamper->SamplingFrequency | \
 851              		.loc 1 604 10 view .LVU308
 852 008c 1343     		orrs	r3, r3, r2
 853              	.LVL63:
 609:Drivers/STM32WBxx_HAL_Driver/Src/stm32wbxx_hal_rtc_ex.c **** 
 610:Drivers/STM32WBxx_HAL_Driver/Src/stm32wbxx_hal_rtc_ex.c ****   /* Disable interrupt on selected tamper in case it is enabled */
 611:Drivers/STM32WBxx_HAL_Driver/Src/stm32wbxx_hal_rtc_ex.c **** #if defined(RTC_TAMPER1_SUPPORT)
 612:Drivers/STM32WBxx_HAL_Driver/Src/stm32wbxx_hal_rtc_ex.c ****   if ((sTamper->Tamper & RTC_TAMPER_1) != 0U)
 854              		.loc 1 612 3 is_stmt 1 view .LVU309
ARM GAS  C:\Users\Nathan\AppData\Local\Temp\ccWT97xY.s 			page 27


 855              		.loc 1 612 6 is_stmt 0 view .LVU310
 856 008e 14F0010F 		tst	r4, #1
 857 0092 01D0     		beq	.L54
 613:Drivers/STM32WBxx_HAL_Driver/Src/stm32wbxx_hal_rtc_ex.c ****   {
 614:Drivers/STM32WBxx_HAL_Driver/Src/stm32wbxx_hal_rtc_ex.c ****     tmpreg &= (uint32_t)~RTC_IT_TAMP1;
 858              		.loc 1 614 5 is_stmt 1 view .LVU311
 859              		.loc 1 614 12 is_stmt 0 view .LVU312
 860 0094 23F48033 		bic	r3, r3, #65536
 861              	.LVL64:
 862              	.L54:
 615:Drivers/STM32WBxx_HAL_Driver/Src/stm32wbxx_hal_rtc_ex.c ****   }
 616:Drivers/STM32WBxx_HAL_Driver/Src/stm32wbxx_hal_rtc_ex.c **** #endif /* RTC_TAMPER1_SUPPORT */
 617:Drivers/STM32WBxx_HAL_Driver/Src/stm32wbxx_hal_rtc_ex.c ****   if ((sTamper->Tamper & RTC_TAMPER_2) != 0U)
 863              		.loc 1 617 3 is_stmt 1 view .LVU313
 864              		.loc 1 617 6 is_stmt 0 view .LVU314
 865 0098 14F0080F 		tst	r4, #8
 866 009c 01D0     		beq	.L55
 618:Drivers/STM32WBxx_HAL_Driver/Src/stm32wbxx_hal_rtc_ex.c ****   {
 619:Drivers/STM32WBxx_HAL_Driver/Src/stm32wbxx_hal_rtc_ex.c ****     tmpreg &= (uint32_t)~RTC_IT_TAMP2;
 867              		.loc 1 619 5 is_stmt 1 view .LVU315
 868              		.loc 1 619 12 is_stmt 0 view .LVU316
 869 009e 23F40023 		bic	r3, r3, #524288
 870              	.LVL65:
 871              	.L55:
 620:Drivers/STM32WBxx_HAL_Driver/Src/stm32wbxx_hal_rtc_ex.c ****   }
 621:Drivers/STM32WBxx_HAL_Driver/Src/stm32wbxx_hal_rtc_ex.c **** #if defined(RTC_TAMPER3_SUPPORT)
 622:Drivers/STM32WBxx_HAL_Driver/Src/stm32wbxx_hal_rtc_ex.c ****   if ((sTamper->Tamper & RTC_TAMPER_3) != 0U)
 872              		.loc 1 622 3 is_stmt 1 view .LVU317
 873              		.loc 1 622 6 is_stmt 0 view .LVU318
 874 00a2 14F0200F 		tst	r4, #32
 875 00a6 01D0     		beq	.L56
 623:Drivers/STM32WBxx_HAL_Driver/Src/stm32wbxx_hal_rtc_ex.c ****   {
 624:Drivers/STM32WBxx_HAL_Driver/Src/stm32wbxx_hal_rtc_ex.c ****     tmpreg &= (uint32_t)~RTC_IT_TAMP3;
 876              		.loc 1 624 5 is_stmt 1 view .LVU319
 877              		.loc 1 624 12 is_stmt 0 view .LVU320
 878 00a8 23F48003 		bic	r3, r3, #4194304
 879              	.LVL66:
 880              	.L56:
 625:Drivers/STM32WBxx_HAL_Driver/Src/stm32wbxx_hal_rtc_ex.c ****   }
 626:Drivers/STM32WBxx_HAL_Driver/Src/stm32wbxx_hal_rtc_ex.c **** #endif /* RTC_TAMPER3_SUPPORT */
 627:Drivers/STM32WBxx_HAL_Driver/Src/stm32wbxx_hal_rtc_ex.c **** 
 628:Drivers/STM32WBxx_HAL_Driver/Src/stm32wbxx_hal_rtc_ex.c ****   /* Disable tamper global interrupt in case it is enabled */
 629:Drivers/STM32WBxx_HAL_Driver/Src/stm32wbxx_hal_rtc_ex.c ****   tmpreg &= (uint32_t)~RTC_TAMPCR_TAMPIE;
 881              		.loc 1 629 3 is_stmt 1 view .LVU321
 882              		.loc 1 629 10 is_stmt 0 view .LVU322
 883 00ac 23F00403 		bic	r3, r3, #4
 884              	.LVL67:
 630:Drivers/STM32WBxx_HAL_Driver/Src/stm32wbxx_hal_rtc_ex.c **** 
 631:Drivers/STM32WBxx_HAL_Driver/Src/stm32wbxx_hal_rtc_ex.c ****   /* Copy desired configuration into configuration register */
 632:Drivers/STM32WBxx_HAL_Driver/Src/stm32wbxx_hal_rtc_ex.c ****   hrtc->Instance->TAMPCR = tmpreg;
 885              		.loc 1 632 3 is_stmt 1 view .LVU323
 886              		.loc 1 632 26 is_stmt 0 view .LVU324
 887 00b0 0364     		str	r3, [r0, #64]
 633:Drivers/STM32WBxx_HAL_Driver/Src/stm32wbxx_hal_rtc_ex.c **** 
 634:Drivers/STM32WBxx_HAL_Driver/Src/stm32wbxx_hal_rtc_ex.c ****   hrtc->State = HAL_RTC_STATE_READY;
 888              		.loc 1 634 3 is_stmt 1 view .LVU325
 889              		.loc 1 634 15 is_stmt 0 view .LVU326
ARM GAS  C:\Users\Nathan\AppData\Local\Temp\ccWT97xY.s 			page 28


 890 00b2 0123     		movs	r3, #1
 891              	.LVL68:
 892              		.loc 1 634 15 view .LVU327
 893 00b4 8CF82130 		strb	r3, [ip, #33]
 894              	.LVL69:
 635:Drivers/STM32WBxx_HAL_Driver/Src/stm32wbxx_hal_rtc_ex.c **** 
 636:Drivers/STM32WBxx_HAL_Driver/Src/stm32wbxx_hal_rtc_ex.c ****   /* Process Unlocked */
 637:Drivers/STM32WBxx_HAL_Driver/Src/stm32wbxx_hal_rtc_ex.c ****   __HAL_UNLOCK(hrtc);
 895              		.loc 1 637 3 is_stmt 1 view .LVU328
 896              		.loc 1 637 3 view .LVU329
 897 00b8 0020     		movs	r0, #0
 898 00ba 8CF82000 		strb	r0, [ip, #32]
 899              		.loc 1 637 3 view .LVU330
 638:Drivers/STM32WBxx_HAL_Driver/Src/stm32wbxx_hal_rtc_ex.c **** 
 639:Drivers/STM32WBxx_HAL_Driver/Src/stm32wbxx_hal_rtc_ex.c ****   return HAL_OK;
 900              		.loc 1 639 3 view .LVU331
 640:Drivers/STM32WBxx_HAL_Driver/Src/stm32wbxx_hal_rtc_ex.c **** }
 901              		.loc 1 640 1 is_stmt 0 view .LVU332
 902 00be 30BC     		pop	{r4, r5}
 903              		.cfi_remember_state
 904              		.cfi_restore 5
 905              		.cfi_restore 4
 906              		.cfi_def_cfa_offset 0
 907 00c0 7047     		bx	lr
 908              	.LVL70:
 909              	.L62:
 910              		.cfi_restore_state
 508:Drivers/STM32WBxx_HAL_Driver/Src/stm32wbxx_hal_rtc_ex.c ****   }
 911              		.loc 1 508 5 is_stmt 1 view .LVU333
 508:Drivers/STM32WBxx_HAL_Driver/Src/stm32wbxx_hal_rtc_ex.c ****   }
 912              		.loc 1 508 12 is_stmt 0 view .LVU334
 913 00c2 43EA4403 		orr	r3, r3, r4, lsl #1
 914              	.LVL71:
 508:Drivers/STM32WBxx_HAL_Driver/Src/stm32wbxx_hal_rtc_ex.c ****   }
 915              		.loc 1 508 12 view .LVU335
 916 00c6 B0E7     		b	.L41
 917              	.L42:
 539:Drivers/STM32WBxx_HAL_Driver/Src/stm32wbxx_hal_rtc_ex.c ****     {
 918              		.loc 1 539 5 is_stmt 1 view .LVU336
 539:Drivers/STM32WBxx_HAL_Driver/Src/stm32wbxx_hal_rtc_ex.c ****     {
 919              		.loc 1 539 8 is_stmt 0 view .LVU337
 920 00c8 14F0010F 		tst	r4, #1
 921 00cc 01D0     		beq	.L46
 541:Drivers/STM32WBxx_HAL_Driver/Src/stm32wbxx_hal_rtc_ex.c ****     }
 922              		.loc 1 541 7 is_stmt 1 view .LVU338
 541:Drivers/STM32WBxx_HAL_Driver/Src/stm32wbxx_hal_rtc_ex.c ****     }
 923              		.loc 1 541 14 is_stmt 0 view .LVU339
 924 00ce 23F40033 		bic	r3, r3, #131072
 925              	.LVL72:
 926              	.L46:
 544:Drivers/STM32WBxx_HAL_Driver/Src/stm32wbxx_hal_rtc_ex.c ****     {
 927              		.loc 1 544 5 is_stmt 1 view .LVU340
 544:Drivers/STM32WBxx_HAL_Driver/Src/stm32wbxx_hal_rtc_ex.c ****     {
 928              		.loc 1 544 8 is_stmt 0 view .LVU341
 929 00d2 14F0080F 		tst	r4, #8
 930 00d6 01D0     		beq	.L47
 546:Drivers/STM32WBxx_HAL_Driver/Src/stm32wbxx_hal_rtc_ex.c ****     }
ARM GAS  C:\Users\Nathan\AppData\Local\Temp\ccWT97xY.s 			page 29


 931              		.loc 1 546 7 is_stmt 1 view .LVU342
 546:Drivers/STM32WBxx_HAL_Driver/Src/stm32wbxx_hal_rtc_ex.c ****     }
 932              		.loc 1 546 14 is_stmt 0 view .LVU343
 933 00d8 23F48013 		bic	r3, r3, #1048576
 934              	.LVL73:
 935              	.L47:
 549:Drivers/STM32WBxx_HAL_Driver/Src/stm32wbxx_hal_rtc_ex.c ****     {
 936              		.loc 1 549 5 is_stmt 1 view .LVU344
 549:Drivers/STM32WBxx_HAL_Driver/Src/stm32wbxx_hal_rtc_ex.c ****     {
 937              		.loc 1 549 8 is_stmt 0 view .LVU345
 938 00dc 14F0200F 		tst	r4, #32
 939 00e0 B5D0     		beq	.L45
 551:Drivers/STM32WBxx_HAL_Driver/Src/stm32wbxx_hal_rtc_ex.c ****     }
 940              		.loc 1 551 7 is_stmt 1 view .LVU346
 551:Drivers/STM32WBxx_HAL_Driver/Src/stm32wbxx_hal_rtc_ex.c ****     }
 941              		.loc 1 551 14 is_stmt 0 view .LVU347
 942 00e2 23F40003 		bic	r3, r3, #8388608
 943              	.LVL74:
 551:Drivers/STM32WBxx_HAL_Driver/Src/stm32wbxx_hal_rtc_ex.c ****     }
 944              		.loc 1 551 14 view .LVU348
 945 00e6 B2E7     		b	.L45
 946              	.L48:
 579:Drivers/STM32WBxx_HAL_Driver/Src/stm32wbxx_hal_rtc_ex.c ****     {
 947              		.loc 1 579 5 is_stmt 1 view .LVU349
 579:Drivers/STM32WBxx_HAL_Driver/Src/stm32wbxx_hal_rtc_ex.c ****     {
 948              		.loc 1 579 8 is_stmt 0 view .LVU350
 949 00e8 14F0010F 		tst	r4, #1
 950 00ec 01D0     		beq	.L52
 581:Drivers/STM32WBxx_HAL_Driver/Src/stm32wbxx_hal_rtc_ex.c ****     }
 951              		.loc 1 581 7 is_stmt 1 view .LVU351
 581:Drivers/STM32WBxx_HAL_Driver/Src/stm32wbxx_hal_rtc_ex.c ****     }
 952              		.loc 1 581 14 is_stmt 0 view .LVU352
 953 00ee 23F48023 		bic	r3, r3, #262144
 954              	.LVL75:
 955              	.L52:
 584:Drivers/STM32WBxx_HAL_Driver/Src/stm32wbxx_hal_rtc_ex.c ****     {
 956              		.loc 1 584 5 is_stmt 1 view .LVU353
 584:Drivers/STM32WBxx_HAL_Driver/Src/stm32wbxx_hal_rtc_ex.c ****     {
 957              		.loc 1 584 8 is_stmt 0 view .LVU354
 958 00f2 14F0080F 		tst	r4, #8
 959 00f6 01D0     		beq	.L53
 586:Drivers/STM32WBxx_HAL_Driver/Src/stm32wbxx_hal_rtc_ex.c ****     }
 960              		.loc 1 586 7 is_stmt 1 view .LVU355
 586:Drivers/STM32WBxx_HAL_Driver/Src/stm32wbxx_hal_rtc_ex.c ****     }
 961              		.loc 1 586 14 is_stmt 0 view .LVU356
 962 00f8 23F40013 		bic	r3, r3, #2097152
 963              	.LVL76:
 964              	.L53:
 589:Drivers/STM32WBxx_HAL_Driver/Src/stm32wbxx_hal_rtc_ex.c ****     {
 965              		.loc 1 589 5 is_stmt 1 view .LVU357
 589:Drivers/STM32WBxx_HAL_Driver/Src/stm32wbxx_hal_rtc_ex.c ****     {
 966              		.loc 1 589 8 is_stmt 0 view .LVU358
 967 00fc 14F0200F 		tst	r4, #32
 968 0100 B7D0     		beq	.L51
 591:Drivers/STM32WBxx_HAL_Driver/Src/stm32wbxx_hal_rtc_ex.c ****     }
 969              		.loc 1 591 7 is_stmt 1 view .LVU359
 591:Drivers/STM32WBxx_HAL_Driver/Src/stm32wbxx_hal_rtc_ex.c ****     }
ARM GAS  C:\Users\Nathan\AppData\Local\Temp\ccWT97xY.s 			page 30


 970              		.loc 1 591 14 is_stmt 0 view .LVU360
 971 0102 23F08073 		bic	r3, r3, #16777216
 972              	.LVL77:
 591:Drivers/STM32WBxx_HAL_Driver/Src/stm32wbxx_hal_rtc_ex.c ****     }
 973              		.loc 1 591 14 view .LVU361
 974 0106 B4E7     		b	.L51
 975              	.LVL78:
 976              	.L57:
 977              		.cfi_def_cfa_offset 0
 978              		.cfi_restore 4
 979              		.cfi_restore 5
 493:Drivers/STM32WBxx_HAL_Driver/Src/stm32wbxx_hal_rtc_ex.c **** 
 980              		.loc 1 493 3 discriminator 1 view .LVU362
 981 0108 0220     		movs	r0, #2
 982              	.LVL79:
 983              		.loc 1 640 1 view .LVU363
 984 010a 7047     		bx	lr
 985              		.cfi_endproc
 986              	.LFE1110:
 988              		.section	.text.HAL_RTCEx_SetTamper_IT,"ax",%progbits
 989              		.align	1
 990              		.global	HAL_RTCEx_SetTamper_IT
 991              		.syntax unified
 992              		.thumb
 993              		.thumb_func
 995              	HAL_RTCEx_SetTamper_IT:
 996              	.LVL80:
 997              	.LFB1111:
 641:Drivers/STM32WBxx_HAL_Driver/Src/stm32wbxx_hal_rtc_ex.c **** 
 642:Drivers/STM32WBxx_HAL_Driver/Src/stm32wbxx_hal_rtc_ex.c **** /**
 643:Drivers/STM32WBxx_HAL_Driver/Src/stm32wbxx_hal_rtc_ex.c ****   * @brief  Sets Tamper with interrupt.
 644:Drivers/STM32WBxx_HAL_Driver/Src/stm32wbxx_hal_rtc_ex.c ****   * @note   By setting the tamper global interrupt bit, interrupts will be
 645:Drivers/STM32WBxx_HAL_Driver/Src/stm32wbxx_hal_rtc_ex.c ****   *         enabled for all tampers.
 646:Drivers/STM32WBxx_HAL_Driver/Src/stm32wbxx_hal_rtc_ex.c ****   * @param  hrtc pointer to a RTC_HandleTypeDef structure that contains
 647:Drivers/STM32WBxx_HAL_Driver/Src/stm32wbxx_hal_rtc_ex.c ****   *                the configuration information for RTC.
 648:Drivers/STM32WBxx_HAL_Driver/Src/stm32wbxx_hal_rtc_ex.c ****   * @param  sTamper Pointer to RTC Tamper.
 649:Drivers/STM32WBxx_HAL_Driver/Src/stm32wbxx_hal_rtc_ex.c ****   * @retval HAL status
 650:Drivers/STM32WBxx_HAL_Driver/Src/stm32wbxx_hal_rtc_ex.c ****   */
 651:Drivers/STM32WBxx_HAL_Driver/Src/stm32wbxx_hal_rtc_ex.c **** HAL_StatusTypeDef HAL_RTCEx_SetTamper_IT(RTC_HandleTypeDef *hrtc, RTC_TamperTypeDef *sTamper)
 652:Drivers/STM32WBxx_HAL_Driver/Src/stm32wbxx_hal_rtc_ex.c **** {
 998              		.loc 1 652 1 is_stmt 1 view -0
 999              		.cfi_startproc
 1000              		@ args = 0, pretend = 0, frame = 0
 1001              		@ frame_needed = 0, uses_anonymous_args = 0
 1002              		@ link register save eliminated.
 653:Drivers/STM32WBxx_HAL_Driver/Src/stm32wbxx_hal_rtc_ex.c ****   uint32_t tmpreg = 0U;
 1003              		.loc 1 653 3 view .LVU365
 654:Drivers/STM32WBxx_HAL_Driver/Src/stm32wbxx_hal_rtc_ex.c **** 
 655:Drivers/STM32WBxx_HAL_Driver/Src/stm32wbxx_hal_rtc_ex.c ****   /* Check the parameters */
 656:Drivers/STM32WBxx_HAL_Driver/Src/stm32wbxx_hal_rtc_ex.c ****   assert_param(IS_RTC_TAMPER(sTamper->Tamper));
 1004              		.loc 1 656 3 view .LVU366
 657:Drivers/STM32WBxx_HAL_Driver/Src/stm32wbxx_hal_rtc_ex.c ****   assert_param(IS_RTC_TAMPER_INTERRUPT(sTamper->Interrupt));
 1005              		.loc 1 657 3 view .LVU367
 658:Drivers/STM32WBxx_HAL_Driver/Src/stm32wbxx_hal_rtc_ex.c ****   assert_param(IS_RTC_TAMPER_TRIGGER(sTamper->Trigger));
 1006              		.loc 1 658 3 view .LVU368
 659:Drivers/STM32WBxx_HAL_Driver/Src/stm32wbxx_hal_rtc_ex.c ****   assert_param(IS_RTC_TAMPER_ERASE_MODE(sTamper->NoErase));
 1007              		.loc 1 659 3 view .LVU369
ARM GAS  C:\Users\Nathan\AppData\Local\Temp\ccWT97xY.s 			page 31


 660:Drivers/STM32WBxx_HAL_Driver/Src/stm32wbxx_hal_rtc_ex.c ****   assert_param(IS_RTC_TAMPER_MASKFLAG_STATE(sTamper->MaskFlag));
 1008              		.loc 1 660 3 view .LVU370
 661:Drivers/STM32WBxx_HAL_Driver/Src/stm32wbxx_hal_rtc_ex.c ****   assert_param(IS_RTC_TAMPER_FILTER(sTamper->Filter));
 1009              		.loc 1 661 3 view .LVU371
 662:Drivers/STM32WBxx_HAL_Driver/Src/stm32wbxx_hal_rtc_ex.c ****   assert_param(IS_RTC_TAMPER_FILTER_CONFIG_CORRECT(sTamper->Filter, sTamper->Trigger));
 1010              		.loc 1 662 3 view .LVU372
 663:Drivers/STM32WBxx_HAL_Driver/Src/stm32wbxx_hal_rtc_ex.c ****   assert_param(IS_RTC_TAMPER_SAMPLING_FREQ(sTamper->SamplingFrequency));
 1011              		.loc 1 663 3 view .LVU373
 664:Drivers/STM32WBxx_HAL_Driver/Src/stm32wbxx_hal_rtc_ex.c ****   assert_param(IS_RTC_TAMPER_PRECHARGE_DURATION(sTamper->PrechargeDuration));
 1012              		.loc 1 664 3 view .LVU374
 665:Drivers/STM32WBxx_HAL_Driver/Src/stm32wbxx_hal_rtc_ex.c ****   assert_param(IS_RTC_TAMPER_PULLUP_STATE(sTamper->TamperPullUp));
 1013              		.loc 1 665 3 view .LVU375
 666:Drivers/STM32WBxx_HAL_Driver/Src/stm32wbxx_hal_rtc_ex.c ****   assert_param(IS_RTC_TAMPER_TIMESTAMPONTAMPER_DETECTION(sTamper->TimeStampOnTamperDetection));
 1014              		.loc 1 666 3 view .LVU376
 667:Drivers/STM32WBxx_HAL_Driver/Src/stm32wbxx_hal_rtc_ex.c **** 
 668:Drivers/STM32WBxx_HAL_Driver/Src/stm32wbxx_hal_rtc_ex.c ****   /* Process Locked */
 669:Drivers/STM32WBxx_HAL_Driver/Src/stm32wbxx_hal_rtc_ex.c ****   __HAL_LOCK(hrtc);
 1015              		.loc 1 669 3 view .LVU377
 1016              		.loc 1 669 3 view .LVU378
 1017 0000 90F82030 		ldrb	r3, [r0, #32]	@ zero_extendqisi2
 1018 0004 012B     		cmp	r3, #1
 1019 0006 7AD0     		beq	.L79
 652:Drivers/STM32WBxx_HAL_Driver/Src/stm32wbxx_hal_rtc_ex.c ****   uint32_t tmpreg = 0U;
 1020              		.loc 1 652 1 is_stmt 0 view .LVU379
 1021 0008 10B4     		push	{r4}
 1022              		.cfi_def_cfa_offset 4
 1023              		.cfi_offset 4, -4
 1024 000a 8446     		mov	ip, r0
 1025              		.loc 1 669 3 is_stmt 1 discriminator 2 view .LVU380
 1026 000c 0123     		movs	r3, #1
 1027 000e 80F82030 		strb	r3, [r0, #32]
 1028              		.loc 1 669 3 discriminator 2 view .LVU381
 670:Drivers/STM32WBxx_HAL_Driver/Src/stm32wbxx_hal_rtc_ex.c **** 
 671:Drivers/STM32WBxx_HAL_Driver/Src/stm32wbxx_hal_rtc_ex.c ****   hrtc->State = HAL_RTC_STATE_BUSY;
 1029              		.loc 1 671 3 view .LVU382
 1030              		.loc 1 671 15 is_stmt 0 view .LVU383
 1031 0012 0223     		movs	r3, #2
 1032 0014 80F82130 		strb	r3, [r0, #33]
 672:Drivers/STM32WBxx_HAL_Driver/Src/stm32wbxx_hal_rtc_ex.c **** 
 673:Drivers/STM32WBxx_HAL_Driver/Src/stm32wbxx_hal_rtc_ex.c ****   /* Copy control register into temporary variable */
 674:Drivers/STM32WBxx_HAL_Driver/Src/stm32wbxx_hal_rtc_ex.c ****   tmpreg = hrtc->Instance->TAMPCR;
 1033              		.loc 1 674 3 is_stmt 1 view .LVU384
 1034              		.loc 1 674 16 is_stmt 0 view .LVU385
 1035 0018 0068     		ldr	r0, [r0]
 1036              	.LVL81:
 1037              		.loc 1 674 10 view .LVU386
 1038 001a 036C     		ldr	r3, [r0, #64]
 1039              	.LVL82:
 675:Drivers/STM32WBxx_HAL_Driver/Src/stm32wbxx_hal_rtc_ex.c **** 
 676:Drivers/STM32WBxx_HAL_Driver/Src/stm32wbxx_hal_rtc_ex.c ****   /* Enable selected tamper */
 677:Drivers/STM32WBxx_HAL_Driver/Src/stm32wbxx_hal_rtc_ex.c ****   tmpreg |= (sTamper->Tamper);
 1040              		.loc 1 677 3 is_stmt 1 view .LVU387
 1041              		.loc 1 677 21 is_stmt 0 view .LVU388
 1042 001c 0A68     		ldr	r2, [r1]
 1043              		.loc 1 677 10 view .LVU389
 1044 001e 1343     		orrs	r3, r3, r2
 1045              	.LVL83:
ARM GAS  C:\Users\Nathan\AppData\Local\Temp\ccWT97xY.s 			page 32


 678:Drivers/STM32WBxx_HAL_Driver/Src/stm32wbxx_hal_rtc_ex.c **** 
 679:Drivers/STM32WBxx_HAL_Driver/Src/stm32wbxx_hal_rtc_ex.c ****   /* Configure the tamper trigger bit (this bit is just on the right of the
 680:Drivers/STM32WBxx_HAL_Driver/Src/stm32wbxx_hal_rtc_ex.c ****        tamper enable bit, hence the one-time right shift before updating it) */
 681:Drivers/STM32WBxx_HAL_Driver/Src/stm32wbxx_hal_rtc_ex.c ****   if (sTamper->Trigger == RTC_TAMPERTRIGGER_FALLINGEDGE)
 1046              		.loc 1 681 3 is_stmt 1 view .LVU390
 1047              		.loc 1 681 6 is_stmt 0 view .LVU391
 1048 0020 8C68     		ldr	r4, [r1, #8]
 1049 0022 022C     		cmp	r4, #2
 1050 0024 48D0     		beq	.L84
 682:Drivers/STM32WBxx_HAL_Driver/Src/stm32wbxx_hal_rtc_ex.c ****   {
 683:Drivers/STM32WBxx_HAL_Driver/Src/stm32wbxx_hal_rtc_ex.c ****     /* Set the tamper trigger bit (case of falling edge or high level) */
 684:Drivers/STM32WBxx_HAL_Driver/Src/stm32wbxx_hal_rtc_ex.c ****     tmpreg |= (uint32_t)(sTamper->Tamper << 1U);
 685:Drivers/STM32WBxx_HAL_Driver/Src/stm32wbxx_hal_rtc_ex.c ****   }
 686:Drivers/STM32WBxx_HAL_Driver/Src/stm32wbxx_hal_rtc_ex.c ****   else
 687:Drivers/STM32WBxx_HAL_Driver/Src/stm32wbxx_hal_rtc_ex.c ****   {
 688:Drivers/STM32WBxx_HAL_Driver/Src/stm32wbxx_hal_rtc_ex.c ****     /* Clear the tamper trigger bit (case of rising edge or low level) */
 689:Drivers/STM32WBxx_HAL_Driver/Src/stm32wbxx_hal_rtc_ex.c ****     tmpreg &= (uint32_t)~(sTamper->Tamper << 1U);
 1051              		.loc 1 689 5 is_stmt 1 view .LVU392
 1052              		.loc 1 689 12 is_stmt 0 view .LVU393
 1053 0026 23EA4203 		bic	r3, r3, r2, lsl #1
 1054              	.LVL84:
 1055              	.L66:
 690:Drivers/STM32WBxx_HAL_Driver/Src/stm32wbxx_hal_rtc_ex.c ****   }
 691:Drivers/STM32WBxx_HAL_Driver/Src/stm32wbxx_hal_rtc_ex.c **** 
 692:Drivers/STM32WBxx_HAL_Driver/Src/stm32wbxx_hal_rtc_ex.c ****   /* Configure the backup registers erasure enabling bits */
 693:Drivers/STM32WBxx_HAL_Driver/Src/stm32wbxx_hal_rtc_ex.c ****   if (sTamper->NoErase != RTC_TAMPER_ERASE_BACKUP_ENABLE)
 1056              		.loc 1 693 3 is_stmt 1 view .LVU394
 1057              		.loc 1 693 6 is_stmt 0 view .LVU395
 1058 002a CC68     		ldr	r4, [r1, #12]
 1059 002c 002C     		cmp	r4, #0
 1060 002e 46D0     		beq	.L67
 694:Drivers/STM32WBxx_HAL_Driver/Src/stm32wbxx_hal_rtc_ex.c ****   {
 695:Drivers/STM32WBxx_HAL_Driver/Src/stm32wbxx_hal_rtc_ex.c **** #if defined(RTC_TAMPER1_SUPPORT)
 696:Drivers/STM32WBxx_HAL_Driver/Src/stm32wbxx_hal_rtc_ex.c ****     if ((sTamper->Tamper & RTC_TAMPER_1) != 0U)
 1061              		.loc 1 696 5 is_stmt 1 view .LVU396
 1062              		.loc 1 696 8 is_stmt 0 view .LVU397
 1063 0030 12F0010F 		tst	r2, #1
 1064 0034 01D0     		beq	.L68
 697:Drivers/STM32WBxx_HAL_Driver/Src/stm32wbxx_hal_rtc_ex.c ****     {
 698:Drivers/STM32WBxx_HAL_Driver/Src/stm32wbxx_hal_rtc_ex.c ****       tmpreg |= (uint32_t)(RTC_TAMPCR_TAMP1NOERASE);
 1065              		.loc 1 698 7 is_stmt 1 view .LVU398
 1066              		.loc 1 698 14 is_stmt 0 view .LVU399
 1067 0036 43F40033 		orr	r3, r3, #131072
 1068              	.LVL85:
 1069              	.L68:
 699:Drivers/STM32WBxx_HAL_Driver/Src/stm32wbxx_hal_rtc_ex.c ****     }
 700:Drivers/STM32WBxx_HAL_Driver/Src/stm32wbxx_hal_rtc_ex.c **** #endif /* RTC_TAMPER1_SUPPORT */
 701:Drivers/STM32WBxx_HAL_Driver/Src/stm32wbxx_hal_rtc_ex.c ****     if ((sTamper->Tamper & RTC_TAMPER_2) != 0U)
 1070              		.loc 1 701 5 is_stmt 1 view .LVU400
 1071              		.loc 1 701 8 is_stmt 0 view .LVU401
 1072 003a 12F0080F 		tst	r2, #8
 1073 003e 01D0     		beq	.L69
 702:Drivers/STM32WBxx_HAL_Driver/Src/stm32wbxx_hal_rtc_ex.c ****     {
 703:Drivers/STM32WBxx_HAL_Driver/Src/stm32wbxx_hal_rtc_ex.c ****       tmpreg |= (uint32_t)(RTC_TAMPCR_TAMP2NOERASE);
 1074              		.loc 1 703 7 is_stmt 1 view .LVU402
 1075              		.loc 1 703 14 is_stmt 0 view .LVU403
 1076 0040 43F48013 		orr	r3, r3, #1048576
ARM GAS  C:\Users\Nathan\AppData\Local\Temp\ccWT97xY.s 			page 33


 1077              	.LVL86:
 1078              	.L69:
 704:Drivers/STM32WBxx_HAL_Driver/Src/stm32wbxx_hal_rtc_ex.c ****     }
 705:Drivers/STM32WBxx_HAL_Driver/Src/stm32wbxx_hal_rtc_ex.c **** #if defined(RTC_TAMPER3_SUPPORT)
 706:Drivers/STM32WBxx_HAL_Driver/Src/stm32wbxx_hal_rtc_ex.c ****     if ((sTamper->Tamper & RTC_TAMPER_3) != 0U)
 1079              		.loc 1 706 5 is_stmt 1 view .LVU404
 1080              		.loc 1 706 8 is_stmt 0 view .LVU405
 1081 0044 12F0200F 		tst	r2, #32
 1082 0048 01D0     		beq	.L70
 707:Drivers/STM32WBxx_HAL_Driver/Src/stm32wbxx_hal_rtc_ex.c ****     {
 708:Drivers/STM32WBxx_HAL_Driver/Src/stm32wbxx_hal_rtc_ex.c ****       tmpreg |= (uint32_t)(RTC_TAMPCR_TAMP3NOERASE);
 1083              		.loc 1 708 7 is_stmt 1 view .LVU406
 1084              		.loc 1 708 14 is_stmt 0 view .LVU407
 1085 004a 43F40003 		orr	r3, r3, #8388608
 1086              	.LVL87:
 1087              	.L70:
 709:Drivers/STM32WBxx_HAL_Driver/Src/stm32wbxx_hal_rtc_ex.c ****     }
 710:Drivers/STM32WBxx_HAL_Driver/Src/stm32wbxx_hal_rtc_ex.c **** #endif /* RTC_TAMPER3_SUPPORT */
 711:Drivers/STM32WBxx_HAL_Driver/Src/stm32wbxx_hal_rtc_ex.c ****   }
 712:Drivers/STM32WBxx_HAL_Driver/Src/stm32wbxx_hal_rtc_ex.c ****   else
 713:Drivers/STM32WBxx_HAL_Driver/Src/stm32wbxx_hal_rtc_ex.c ****   {
 714:Drivers/STM32WBxx_HAL_Driver/Src/stm32wbxx_hal_rtc_ex.c **** #if defined(RTC_TAMPER1_SUPPORT)
 715:Drivers/STM32WBxx_HAL_Driver/Src/stm32wbxx_hal_rtc_ex.c ****     if ((sTamper->Tamper & RTC_TAMPER_1) != 0U)
 716:Drivers/STM32WBxx_HAL_Driver/Src/stm32wbxx_hal_rtc_ex.c ****     {
 717:Drivers/STM32WBxx_HAL_Driver/Src/stm32wbxx_hal_rtc_ex.c ****       tmpreg &= (uint32_t)~(RTC_TAMPCR_TAMP1NOERASE);
 718:Drivers/STM32WBxx_HAL_Driver/Src/stm32wbxx_hal_rtc_ex.c ****     }
 719:Drivers/STM32WBxx_HAL_Driver/Src/stm32wbxx_hal_rtc_ex.c **** #endif /* RTC_TAMPER1_SUPPORT */
 720:Drivers/STM32WBxx_HAL_Driver/Src/stm32wbxx_hal_rtc_ex.c ****     if ((sTamper->Tamper & RTC_TAMPER_2) != 0U)
 721:Drivers/STM32WBxx_HAL_Driver/Src/stm32wbxx_hal_rtc_ex.c ****     {
 722:Drivers/STM32WBxx_HAL_Driver/Src/stm32wbxx_hal_rtc_ex.c ****       tmpreg &= (uint32_t)~(RTC_TAMPCR_TAMP2NOERASE);
 723:Drivers/STM32WBxx_HAL_Driver/Src/stm32wbxx_hal_rtc_ex.c ****     }
 724:Drivers/STM32WBxx_HAL_Driver/Src/stm32wbxx_hal_rtc_ex.c **** #if defined(RTC_TAMPER3_SUPPORT)
 725:Drivers/STM32WBxx_HAL_Driver/Src/stm32wbxx_hal_rtc_ex.c ****     if ((sTamper->Tamper & RTC_TAMPER_3) != 0U)
 726:Drivers/STM32WBxx_HAL_Driver/Src/stm32wbxx_hal_rtc_ex.c ****     {
 727:Drivers/STM32WBxx_HAL_Driver/Src/stm32wbxx_hal_rtc_ex.c ****       tmpreg &= (uint32_t)~(RTC_TAMPCR_TAMP3NOERASE);
 728:Drivers/STM32WBxx_HAL_Driver/Src/stm32wbxx_hal_rtc_ex.c ****     }
 729:Drivers/STM32WBxx_HAL_Driver/Src/stm32wbxx_hal_rtc_ex.c **** #endif /* RTC_TAMPER3_SUPPORT */
 730:Drivers/STM32WBxx_HAL_Driver/Src/stm32wbxx_hal_rtc_ex.c ****   }
 731:Drivers/STM32WBxx_HAL_Driver/Src/stm32wbxx_hal_rtc_ex.c **** 
 732:Drivers/STM32WBxx_HAL_Driver/Src/stm32wbxx_hal_rtc_ex.c ****   /* Configure the tamper flags masking bits */
 733:Drivers/STM32WBxx_HAL_Driver/Src/stm32wbxx_hal_rtc_ex.c ****   if (sTamper->MaskFlag != RTC_TAMPERMASK_FLAG_DISABLE)
 1088              		.loc 1 733 3 is_stmt 1 view .LVU408
 1089              		.loc 1 733 6 is_stmt 0 view .LVU409
 1090 004e 0C69     		ldr	r4, [r1, #16]
 1091 0050 002C     		cmp	r4, #0
 1092 0052 44D0     		beq	.L73
 734:Drivers/STM32WBxx_HAL_Driver/Src/stm32wbxx_hal_rtc_ex.c ****   {
 735:Drivers/STM32WBxx_HAL_Driver/Src/stm32wbxx_hal_rtc_ex.c **** #if defined(RTC_TAMPER1_SUPPORT)
 736:Drivers/STM32WBxx_HAL_Driver/Src/stm32wbxx_hal_rtc_ex.c ****     if ((sTamper->Tamper & RTC_TAMPER_1) != 0U)
 1093              		.loc 1 736 5 is_stmt 1 view .LVU410
 1094              		.loc 1 736 8 is_stmt 0 view .LVU411
 1095 0054 12F0010F 		tst	r2, #1
 1096 0058 01D0     		beq	.L74
 737:Drivers/STM32WBxx_HAL_Driver/Src/stm32wbxx_hal_rtc_ex.c ****     {
 738:Drivers/STM32WBxx_HAL_Driver/Src/stm32wbxx_hal_rtc_ex.c ****       tmpreg |= (uint32_t)(RTC_TAMPCR_TAMP1MF);
 1097              		.loc 1 738 7 is_stmt 1 view .LVU412
 1098              		.loc 1 738 14 is_stmt 0 view .LVU413
ARM GAS  C:\Users\Nathan\AppData\Local\Temp\ccWT97xY.s 			page 34


 1099 005a 43F48023 		orr	r3, r3, #262144
 1100              	.LVL88:
 1101              	.L74:
 739:Drivers/STM32WBxx_HAL_Driver/Src/stm32wbxx_hal_rtc_ex.c ****     }
 740:Drivers/STM32WBxx_HAL_Driver/Src/stm32wbxx_hal_rtc_ex.c **** #endif /* RTC_TAMPER1_SUPPORT */
 741:Drivers/STM32WBxx_HAL_Driver/Src/stm32wbxx_hal_rtc_ex.c ****     if ((sTamper->Tamper & RTC_TAMPER_2) != 0U)
 1102              		.loc 1 741 5 is_stmt 1 view .LVU414
 1103              		.loc 1 741 8 is_stmt 0 view .LVU415
 1104 005e 12F0080F 		tst	r2, #8
 1105 0062 01D0     		beq	.L75
 742:Drivers/STM32WBxx_HAL_Driver/Src/stm32wbxx_hal_rtc_ex.c ****     {
 743:Drivers/STM32WBxx_HAL_Driver/Src/stm32wbxx_hal_rtc_ex.c ****       tmpreg |= (uint32_t)(RTC_TAMPCR_TAMP2MF);
 1106              		.loc 1 743 7 is_stmt 1 view .LVU416
 1107              		.loc 1 743 14 is_stmt 0 view .LVU417
 1108 0064 43F40013 		orr	r3, r3, #2097152
 1109              	.LVL89:
 1110              	.L75:
 744:Drivers/STM32WBxx_HAL_Driver/Src/stm32wbxx_hal_rtc_ex.c ****     }
 745:Drivers/STM32WBxx_HAL_Driver/Src/stm32wbxx_hal_rtc_ex.c **** #if defined(RTC_TAMPER3_SUPPORT)
 746:Drivers/STM32WBxx_HAL_Driver/Src/stm32wbxx_hal_rtc_ex.c ****     if ((sTamper->Tamper & RTC_TAMPER_3) != 0U)
 1111              		.loc 1 746 5 is_stmt 1 view .LVU418
 1112              		.loc 1 746 8 is_stmt 0 view .LVU419
 1113 0068 12F0200F 		tst	r2, #32
 1114 006c 01D0     		beq	.L76
 747:Drivers/STM32WBxx_HAL_Driver/Src/stm32wbxx_hal_rtc_ex.c ****     {
 748:Drivers/STM32WBxx_HAL_Driver/Src/stm32wbxx_hal_rtc_ex.c ****       tmpreg |= (uint32_t)(RTC_TAMPCR_TAMP3MF);
 1115              		.loc 1 748 7 is_stmt 1 view .LVU420
 1116              		.loc 1 748 14 is_stmt 0 view .LVU421
 1117 006e 43F08073 		orr	r3, r3, #16777216
 1118              	.LVL90:
 1119              	.L76:
 749:Drivers/STM32WBxx_HAL_Driver/Src/stm32wbxx_hal_rtc_ex.c ****     }
 750:Drivers/STM32WBxx_HAL_Driver/Src/stm32wbxx_hal_rtc_ex.c **** #endif /* RTC_TAMPER3_SUPPORT */
 751:Drivers/STM32WBxx_HAL_Driver/Src/stm32wbxx_hal_rtc_ex.c ****   }
 752:Drivers/STM32WBxx_HAL_Driver/Src/stm32wbxx_hal_rtc_ex.c ****   else
 753:Drivers/STM32WBxx_HAL_Driver/Src/stm32wbxx_hal_rtc_ex.c ****   {
 754:Drivers/STM32WBxx_HAL_Driver/Src/stm32wbxx_hal_rtc_ex.c **** #if defined(RTC_TAMPER1_SUPPORT)
 755:Drivers/STM32WBxx_HAL_Driver/Src/stm32wbxx_hal_rtc_ex.c ****     if ((sTamper->Tamper & RTC_TAMPER_1) != 0U)
 756:Drivers/STM32WBxx_HAL_Driver/Src/stm32wbxx_hal_rtc_ex.c ****     {
 757:Drivers/STM32WBxx_HAL_Driver/Src/stm32wbxx_hal_rtc_ex.c ****       tmpreg &= (uint32_t)~(RTC_TAMPCR_TAMP1MF);
 758:Drivers/STM32WBxx_HAL_Driver/Src/stm32wbxx_hal_rtc_ex.c ****     }
 759:Drivers/STM32WBxx_HAL_Driver/Src/stm32wbxx_hal_rtc_ex.c **** #endif /* RTC_TAMPER1_SUPPORT */
 760:Drivers/STM32WBxx_HAL_Driver/Src/stm32wbxx_hal_rtc_ex.c ****     if ((sTamper->Tamper & RTC_TAMPER_2) != 0U)
 761:Drivers/STM32WBxx_HAL_Driver/Src/stm32wbxx_hal_rtc_ex.c ****     {
 762:Drivers/STM32WBxx_HAL_Driver/Src/stm32wbxx_hal_rtc_ex.c ****       tmpreg &= (uint32_t)~(RTC_TAMPCR_TAMP2MF);
 763:Drivers/STM32WBxx_HAL_Driver/Src/stm32wbxx_hal_rtc_ex.c ****     }
 764:Drivers/STM32WBxx_HAL_Driver/Src/stm32wbxx_hal_rtc_ex.c **** #if defined(RTC_TAMPER3_SUPPORT)
 765:Drivers/STM32WBxx_HAL_Driver/Src/stm32wbxx_hal_rtc_ex.c ****     if ((sTamper->Tamper & RTC_TAMPER_3) != 0U)
 766:Drivers/STM32WBxx_HAL_Driver/Src/stm32wbxx_hal_rtc_ex.c ****     {
 767:Drivers/STM32WBxx_HAL_Driver/Src/stm32wbxx_hal_rtc_ex.c ****       tmpreg &= (uint32_t)~(RTC_TAMPCR_TAMP3MF);
 768:Drivers/STM32WBxx_HAL_Driver/Src/stm32wbxx_hal_rtc_ex.c ****     }
 769:Drivers/STM32WBxx_HAL_Driver/Src/stm32wbxx_hal_rtc_ex.c **** #endif /* RTC_TAMPER3_SUPPORT */
 770:Drivers/STM32WBxx_HAL_Driver/Src/stm32wbxx_hal_rtc_ex.c ****   }
 771:Drivers/STM32WBxx_HAL_Driver/Src/stm32wbxx_hal_rtc_ex.c **** 
 772:Drivers/STM32WBxx_HAL_Driver/Src/stm32wbxx_hal_rtc_ex.c ****   /* Clear remaining fields before setting them */
 773:Drivers/STM32WBxx_HAL_Driver/Src/stm32wbxx_hal_rtc_ex.c ****   tmpreg &= ~(RTC_TAMPERFILTER_MASK              | \
 1120              		.loc 1 773 3 is_stmt 1 view .LVU422
ARM GAS  C:\Users\Nathan\AppData\Local\Temp\ccWT97xY.s 			page 35


 1121              		.loc 1 773 10 is_stmt 0 view .LVU423
 1122 0072 6FF3CF13 		bfc	r3, #7, #9
 1123              	.LVL91:
 774:Drivers/STM32WBxx_HAL_Driver/Src/stm32wbxx_hal_rtc_ex.c ****               RTC_TAMPERSAMPLINGFREQ_RTCCLK_MASK | \
 775:Drivers/STM32WBxx_HAL_Driver/Src/stm32wbxx_hal_rtc_ex.c ****               RTC_TAMPERPRECHARGEDURATION_MASK   | \
 776:Drivers/STM32WBxx_HAL_Driver/Src/stm32wbxx_hal_rtc_ex.c ****               RTC_TAMPER_PULLUP_MASK             | \
 777:Drivers/STM32WBxx_HAL_Driver/Src/stm32wbxx_hal_rtc_ex.c ****               RTC_TIMESTAMPONTAMPERDETECTION_MASK);
 778:Drivers/STM32WBxx_HAL_Driver/Src/stm32wbxx_hal_rtc_ex.c **** 
 779:Drivers/STM32WBxx_HAL_Driver/Src/stm32wbxx_hal_rtc_ex.c ****   /* Set remaining parameters of desired configuration into temporary variable */
 780:Drivers/STM32WBxx_HAL_Driver/Src/stm32wbxx_hal_rtc_ex.c ****   tmpreg |= ((uint32_t)sTamper->Filter            | \
 1124              		.loc 1 780 3 is_stmt 1 view .LVU424
 1125              		.loc 1 780 31 is_stmt 0 view .LVU425
 1126 0076 4A69     		ldr	r2, [r1, #20]
 1127              		.loc 1 780 51 view .LVU426
 1128 0078 8C69     		ldr	r4, [r1, #24]
 1129 007a 2243     		orrs	r2, r2, r4
 781:Drivers/STM32WBxx_HAL_Driver/Src/stm32wbxx_hal_rtc_ex.c ****              (uint32_t)sTamper->SamplingFrequency | \
 1130              		.loc 1 781 51 view .LVU427
 1131 007c CC69     		ldr	r4, [r1, #28]
 1132 007e 2243     		orrs	r2, r2, r4
 782:Drivers/STM32WBxx_HAL_Driver/Src/stm32wbxx_hal_rtc_ex.c ****              (uint32_t)sTamper->PrechargeDuration | \
 1133              		.loc 1 782 51 view .LVU428
 1134 0080 0C6A     		ldr	r4, [r1, #32]
 1135 0082 2243     		orrs	r2, r2, r4
 783:Drivers/STM32WBxx_HAL_Driver/Src/stm32wbxx_hal_rtc_ex.c ****              (uint32_t)sTamper->TamperPullUp      | \
 1136              		.loc 1 783 51 view .LVU429
 1137 0084 4C6A     		ldr	r4, [r1, #36]
 1138 0086 2243     		orrs	r2, r2, r4
 780:Drivers/STM32WBxx_HAL_Driver/Src/stm32wbxx_hal_rtc_ex.c ****              (uint32_t)sTamper->SamplingFrequency | \
 1139              		.loc 1 780 10 view .LVU430
 1140 0088 1343     		orrs	r3, r3, r2
 1141              	.LVL92:
 784:Drivers/STM32WBxx_HAL_Driver/Src/stm32wbxx_hal_rtc_ex.c ****              (uint32_t)sTamper->TimeStampOnTamperDetection);
 785:Drivers/STM32WBxx_HAL_Driver/Src/stm32wbxx_hal_rtc_ex.c **** 
 786:Drivers/STM32WBxx_HAL_Driver/Src/stm32wbxx_hal_rtc_ex.c ****   /* Enable interrupt on selected tamper */
 787:Drivers/STM32WBxx_HAL_Driver/Src/stm32wbxx_hal_rtc_ex.c ****   tmpreg |= (uint32_t)sTamper->Interrupt;
 1142              		.loc 1 787 3 is_stmt 1 view .LVU431
 1143              		.loc 1 787 30 is_stmt 0 view .LVU432
 1144 008a 4A68     		ldr	r2, [r1, #4]
 1145              		.loc 1 787 10 view .LVU433
 1146 008c 1343     		orrs	r3, r3, r2
 1147              	.LVL93:
 788:Drivers/STM32WBxx_HAL_Driver/Src/stm32wbxx_hal_rtc_ex.c **** 
 789:Drivers/STM32WBxx_HAL_Driver/Src/stm32wbxx_hal_rtc_ex.c ****   /* Copy desired configuration into configuration register */
 790:Drivers/STM32WBxx_HAL_Driver/Src/stm32wbxx_hal_rtc_ex.c ****   hrtc->Instance->TAMPCR = tmpreg;
 1148              		.loc 1 790 3 is_stmt 1 view .LVU434
 1149              		.loc 1 790 26 is_stmt 0 view .LVU435
 1150 008e 0364     		str	r3, [r0, #64]
 791:Drivers/STM32WBxx_HAL_Driver/Src/stm32wbxx_hal_rtc_ex.c **** 
 792:Drivers/STM32WBxx_HAL_Driver/Src/stm32wbxx_hal_rtc_ex.c ****   /* Enable and configure the EXTI line associated to the RTC Timestamp and Tamper interrupts */
 793:Drivers/STM32WBxx_HAL_Driver/Src/stm32wbxx_hal_rtc_ex.c ****   __HAL_RTC_TAMPER_TIMESTAMP_EXTI_ENABLE_IT();
 1151              		.loc 1 793 3 is_stmt 1 view .LVU436
 1152 0090 1C4B     		ldr	r3, .L85
 1153              	.LVL94:
 1154              		.loc 1 793 3 is_stmt 0 view .LVU437
 1155 0092 D3F88020 		ldr	r2, [r3, #128]
 1156 0096 42F48022 		orr	r2, r2, #262144
ARM GAS  C:\Users\Nathan\AppData\Local\Temp\ccWT97xY.s 			page 36


 1157 009a C3F88020 		str	r2, [r3, #128]
 1158              	.LVL95:
 794:Drivers/STM32WBxx_HAL_Driver/Src/stm32wbxx_hal_rtc_ex.c ****   __HAL_RTC_TAMPER_TIMESTAMP_EXTI_ENABLE_RISING_EDGE();
 1159              		.loc 1 794 3 is_stmt 1 view .LVU438
 1160 009e 1A68     		ldr	r2, [r3]
 1161 00a0 42F48022 		orr	r2, r2, #262144
 1162 00a4 1A60     		str	r2, [r3]
 795:Drivers/STM32WBxx_HAL_Driver/Src/stm32wbxx_hal_rtc_ex.c **** 
 796:Drivers/STM32WBxx_HAL_Driver/Src/stm32wbxx_hal_rtc_ex.c ****   hrtc->State = HAL_RTC_STATE_READY;
 1163              		.loc 1 796 3 view .LVU439
 1164              		.loc 1 796 15 is_stmt 0 view .LVU440
 1165 00a6 0123     		movs	r3, #1
 1166 00a8 8CF82130 		strb	r3, [ip, #33]
 797:Drivers/STM32WBxx_HAL_Driver/Src/stm32wbxx_hal_rtc_ex.c **** 
 798:Drivers/STM32WBxx_HAL_Driver/Src/stm32wbxx_hal_rtc_ex.c ****   /* Process Unlocked */
 799:Drivers/STM32WBxx_HAL_Driver/Src/stm32wbxx_hal_rtc_ex.c ****   __HAL_UNLOCK(hrtc);
 1167              		.loc 1 799 3 is_stmt 1 view .LVU441
 1168              		.loc 1 799 3 view .LVU442
 1169 00ac 0020     		movs	r0, #0
 1170 00ae 8CF82000 		strb	r0, [ip, #32]
 1171              		.loc 1 799 3 view .LVU443
 800:Drivers/STM32WBxx_HAL_Driver/Src/stm32wbxx_hal_rtc_ex.c **** 
 801:Drivers/STM32WBxx_HAL_Driver/Src/stm32wbxx_hal_rtc_ex.c ****   return HAL_OK;
 1172              		.loc 1 801 3 view .LVU444
 802:Drivers/STM32WBxx_HAL_Driver/Src/stm32wbxx_hal_rtc_ex.c **** }
 1173              		.loc 1 802 1 is_stmt 0 view .LVU445
 1174 00b2 5DF8044B 		ldr	r4, [sp], #4
 1175              		.cfi_remember_state
 1176              		.cfi_restore 4
 1177              		.cfi_def_cfa_offset 0
 1178 00b6 7047     		bx	lr
 1179              	.LVL96:
 1180              	.L84:
 1181              		.cfi_restore_state
 684:Drivers/STM32WBxx_HAL_Driver/Src/stm32wbxx_hal_rtc_ex.c ****   }
 1182              		.loc 1 684 5 is_stmt 1 view .LVU446
 684:Drivers/STM32WBxx_HAL_Driver/Src/stm32wbxx_hal_rtc_ex.c ****   }
 1183              		.loc 1 684 12 is_stmt 0 view .LVU447
 1184 00b8 43EA4203 		orr	r3, r3, r2, lsl #1
 1185              	.LVL97:
 684:Drivers/STM32WBxx_HAL_Driver/Src/stm32wbxx_hal_rtc_ex.c ****   }
 1186              		.loc 1 684 12 view .LVU448
 1187 00bc B5E7     		b	.L66
 1188              	.L67:
 715:Drivers/STM32WBxx_HAL_Driver/Src/stm32wbxx_hal_rtc_ex.c ****     {
 1189              		.loc 1 715 5 is_stmt 1 view .LVU449
 715:Drivers/STM32WBxx_HAL_Driver/Src/stm32wbxx_hal_rtc_ex.c ****     {
 1190              		.loc 1 715 8 is_stmt 0 view .LVU450
 1191 00be 12F0010F 		tst	r2, #1
 1192 00c2 01D0     		beq	.L71
 717:Drivers/STM32WBxx_HAL_Driver/Src/stm32wbxx_hal_rtc_ex.c ****     }
 1193              		.loc 1 717 7 is_stmt 1 view .LVU451
 717:Drivers/STM32WBxx_HAL_Driver/Src/stm32wbxx_hal_rtc_ex.c ****     }
 1194              		.loc 1 717 14 is_stmt 0 view .LVU452
 1195 00c4 23F40033 		bic	r3, r3, #131072
 1196              	.LVL98:
 1197              	.L71:
ARM GAS  C:\Users\Nathan\AppData\Local\Temp\ccWT97xY.s 			page 37


 720:Drivers/STM32WBxx_HAL_Driver/Src/stm32wbxx_hal_rtc_ex.c ****     {
 1198              		.loc 1 720 5 is_stmt 1 view .LVU453
 720:Drivers/STM32WBxx_HAL_Driver/Src/stm32wbxx_hal_rtc_ex.c ****     {
 1199              		.loc 1 720 8 is_stmt 0 view .LVU454
 1200 00c8 12F0080F 		tst	r2, #8
 1201 00cc 01D0     		beq	.L72
 722:Drivers/STM32WBxx_HAL_Driver/Src/stm32wbxx_hal_rtc_ex.c ****     }
 1202              		.loc 1 722 7 is_stmt 1 view .LVU455
 722:Drivers/STM32WBxx_HAL_Driver/Src/stm32wbxx_hal_rtc_ex.c ****     }
 1203              		.loc 1 722 14 is_stmt 0 view .LVU456
 1204 00ce 23F48013 		bic	r3, r3, #1048576
 1205              	.LVL99:
 1206              	.L72:
 725:Drivers/STM32WBxx_HAL_Driver/Src/stm32wbxx_hal_rtc_ex.c ****     {
 1207              		.loc 1 725 5 is_stmt 1 view .LVU457
 725:Drivers/STM32WBxx_HAL_Driver/Src/stm32wbxx_hal_rtc_ex.c ****     {
 1208              		.loc 1 725 8 is_stmt 0 view .LVU458
 1209 00d2 12F0200F 		tst	r2, #32
 1210 00d6 BAD0     		beq	.L70
 727:Drivers/STM32WBxx_HAL_Driver/Src/stm32wbxx_hal_rtc_ex.c ****     }
 1211              		.loc 1 727 7 is_stmt 1 view .LVU459
 727:Drivers/STM32WBxx_HAL_Driver/Src/stm32wbxx_hal_rtc_ex.c ****     }
 1212              		.loc 1 727 14 is_stmt 0 view .LVU460
 1213 00d8 23F40003 		bic	r3, r3, #8388608
 1214              	.LVL100:
 727:Drivers/STM32WBxx_HAL_Driver/Src/stm32wbxx_hal_rtc_ex.c ****     }
 1215              		.loc 1 727 14 view .LVU461
 1216 00dc B7E7     		b	.L70
 1217              	.L73:
 755:Drivers/STM32WBxx_HAL_Driver/Src/stm32wbxx_hal_rtc_ex.c ****     {
 1218              		.loc 1 755 5 is_stmt 1 view .LVU462
 755:Drivers/STM32WBxx_HAL_Driver/Src/stm32wbxx_hal_rtc_ex.c ****     {
 1219              		.loc 1 755 8 is_stmt 0 view .LVU463
 1220 00de 12F0010F 		tst	r2, #1
 1221 00e2 01D0     		beq	.L77
 757:Drivers/STM32WBxx_HAL_Driver/Src/stm32wbxx_hal_rtc_ex.c ****     }
 1222              		.loc 1 757 7 is_stmt 1 view .LVU464
 757:Drivers/STM32WBxx_HAL_Driver/Src/stm32wbxx_hal_rtc_ex.c ****     }
 1223              		.loc 1 757 14 is_stmt 0 view .LVU465
 1224 00e4 23F48023 		bic	r3, r3, #262144
 1225              	.LVL101:
 1226              	.L77:
 760:Drivers/STM32WBxx_HAL_Driver/Src/stm32wbxx_hal_rtc_ex.c ****     {
 1227              		.loc 1 760 5 is_stmt 1 view .LVU466
 760:Drivers/STM32WBxx_HAL_Driver/Src/stm32wbxx_hal_rtc_ex.c ****     {
 1228              		.loc 1 760 8 is_stmt 0 view .LVU467
 1229 00e8 12F0080F 		tst	r2, #8
 1230 00ec 01D0     		beq	.L78
 762:Drivers/STM32WBxx_HAL_Driver/Src/stm32wbxx_hal_rtc_ex.c ****     }
 1231              		.loc 1 762 7 is_stmt 1 view .LVU468
 762:Drivers/STM32WBxx_HAL_Driver/Src/stm32wbxx_hal_rtc_ex.c ****     }
 1232              		.loc 1 762 14 is_stmt 0 view .LVU469
 1233 00ee 23F40013 		bic	r3, r3, #2097152
 1234              	.LVL102:
 1235              	.L78:
 765:Drivers/STM32WBxx_HAL_Driver/Src/stm32wbxx_hal_rtc_ex.c ****     {
 1236              		.loc 1 765 5 is_stmt 1 view .LVU470
ARM GAS  C:\Users\Nathan\AppData\Local\Temp\ccWT97xY.s 			page 38


 765:Drivers/STM32WBxx_HAL_Driver/Src/stm32wbxx_hal_rtc_ex.c ****     {
 1237              		.loc 1 765 8 is_stmt 0 view .LVU471
 1238 00f2 12F0200F 		tst	r2, #32
 1239 00f6 BCD0     		beq	.L76
 767:Drivers/STM32WBxx_HAL_Driver/Src/stm32wbxx_hal_rtc_ex.c ****     }
 1240              		.loc 1 767 7 is_stmt 1 view .LVU472
 767:Drivers/STM32WBxx_HAL_Driver/Src/stm32wbxx_hal_rtc_ex.c ****     }
 1241              		.loc 1 767 14 is_stmt 0 view .LVU473
 1242 00f8 23F08073 		bic	r3, r3, #16777216
 1243              	.LVL103:
 767:Drivers/STM32WBxx_HAL_Driver/Src/stm32wbxx_hal_rtc_ex.c ****     }
 1244              		.loc 1 767 14 view .LVU474
 1245 00fc B9E7     		b	.L76
 1246              	.LVL104:
 1247              	.L79:
 1248              		.cfi_def_cfa_offset 0
 1249              		.cfi_restore 4
 669:Drivers/STM32WBxx_HAL_Driver/Src/stm32wbxx_hal_rtc_ex.c **** 
 1250              		.loc 1 669 3 discriminator 1 view .LVU475
 1251 00fe 0220     		movs	r0, #2
 1252              	.LVL105:
 1253              		.loc 1 802 1 view .LVU476
 1254 0100 7047     		bx	lr
 1255              	.L86:
 1256 0102 00BF     		.align	2
 1257              	.L85:
 1258 0104 00080058 		.word	1476397056
 1259              		.cfi_endproc
 1260              	.LFE1111:
 1262              		.section	.text.HAL_RTCEx_DeactivateTamper,"ax",%progbits
 1263              		.align	1
 1264              		.global	HAL_RTCEx_DeactivateTamper
 1265              		.syntax unified
 1266              		.thumb
 1267              		.thumb_func
 1269              	HAL_RTCEx_DeactivateTamper:
 1270              	.LVL106:
 1271              	.LFB1112:
 803:Drivers/STM32WBxx_HAL_Driver/Src/stm32wbxx_hal_rtc_ex.c **** 
 804:Drivers/STM32WBxx_HAL_Driver/Src/stm32wbxx_hal_rtc_ex.c **** /**
 805:Drivers/STM32WBxx_HAL_Driver/Src/stm32wbxx_hal_rtc_ex.c ****   * @brief  Deactivates Tamper.
 806:Drivers/STM32WBxx_HAL_Driver/Src/stm32wbxx_hal_rtc_ex.c ****   * @note   By calling this API the tamper global interrupt will be disabled.
 807:Drivers/STM32WBxx_HAL_Driver/Src/stm32wbxx_hal_rtc_ex.c ****   * @param  hrtc pointer to a RTC_HandleTypeDef structure that contains
 808:Drivers/STM32WBxx_HAL_Driver/Src/stm32wbxx_hal_rtc_ex.c ****   *                the configuration information for RTC.
 809:Drivers/STM32WBxx_HAL_Driver/Src/stm32wbxx_hal_rtc_ex.c ****   * @param  Tamper Selected tamper pin.
 810:Drivers/STM32WBxx_HAL_Driver/Src/stm32wbxx_hal_rtc_ex.c ****   *          This parameter can be any combination of the following values:
 811:Drivers/STM32WBxx_HAL_Driver/Src/stm32wbxx_hal_rtc_ex.c ****   *            @arg RTC_TAMPER_1:  Tamper 1 (*)
 812:Drivers/STM32WBxx_HAL_Driver/Src/stm32wbxx_hal_rtc_ex.c ****   *            @arg RTC_TAMPER_2:  Tamper 2
 813:Drivers/STM32WBxx_HAL_Driver/Src/stm32wbxx_hal_rtc_ex.c ****   *            @arg RTC_TAMPER_3:  Tamper 3 (*)
 814:Drivers/STM32WBxx_HAL_Driver/Src/stm32wbxx_hal_rtc_ex.c ****   *
 815:Drivers/STM32WBxx_HAL_Driver/Src/stm32wbxx_hal_rtc_ex.c ****   *         (*) value not applicable to all devices.
 816:Drivers/STM32WBxx_HAL_Driver/Src/stm32wbxx_hal_rtc_ex.c ****   * @retval HAL status
 817:Drivers/STM32WBxx_HAL_Driver/Src/stm32wbxx_hal_rtc_ex.c ****   */
 818:Drivers/STM32WBxx_HAL_Driver/Src/stm32wbxx_hal_rtc_ex.c **** HAL_StatusTypeDef HAL_RTCEx_DeactivateTamper(RTC_HandleTypeDef *hrtc, uint32_t Tamper)
 819:Drivers/STM32WBxx_HAL_Driver/Src/stm32wbxx_hal_rtc_ex.c **** {
 1272              		.loc 1 819 1 is_stmt 1 view -0
 1273              		.cfi_startproc
ARM GAS  C:\Users\Nathan\AppData\Local\Temp\ccWT97xY.s 			page 39


 1274              		@ args = 0, pretend = 0, frame = 0
 1275              		@ frame_needed = 0, uses_anonymous_args = 0
 1276              		@ link register save eliminated.
 1277              		.loc 1 819 1 is_stmt 0 view .LVU478
 1278 0000 0346     		mov	r3, r0
 820:Drivers/STM32WBxx_HAL_Driver/Src/stm32wbxx_hal_rtc_ex.c ****   assert_param(IS_RTC_TAMPER(Tamper));
 1279              		.loc 1 820 3 is_stmt 1 view .LVU479
 821:Drivers/STM32WBxx_HAL_Driver/Src/stm32wbxx_hal_rtc_ex.c **** 
 822:Drivers/STM32WBxx_HAL_Driver/Src/stm32wbxx_hal_rtc_ex.c ****   /* Process Locked */
 823:Drivers/STM32WBxx_HAL_Driver/Src/stm32wbxx_hal_rtc_ex.c ****   __HAL_LOCK(hrtc);
 1280              		.loc 1 823 3 view .LVU480
 1281              		.loc 1 823 3 view .LVU481
 1282 0002 90F82020 		ldrb	r2, [r0, #32]	@ zero_extendqisi2
 1283 0006 012A     		cmp	r2, #1
 1284 0008 2FD0     		beq	.L92
 1285              		.loc 1 823 3 discriminator 2 view .LVU482
 1286 000a 0122     		movs	r2, #1
 1287 000c 80F82020 		strb	r2, [r0, #32]
 1288              		.loc 1 823 3 discriminator 2 view .LVU483
 824:Drivers/STM32WBxx_HAL_Driver/Src/stm32wbxx_hal_rtc_ex.c **** 
 825:Drivers/STM32WBxx_HAL_Driver/Src/stm32wbxx_hal_rtc_ex.c ****   hrtc->State = HAL_RTC_STATE_BUSY;
 1289              		.loc 1 825 3 view .LVU484
 1290              		.loc 1 825 15 is_stmt 0 view .LVU485
 1291 0010 0222     		movs	r2, #2
 1292 0012 80F82120 		strb	r2, [r0, #33]
 826:Drivers/STM32WBxx_HAL_Driver/Src/stm32wbxx_hal_rtc_ex.c **** 
 827:Drivers/STM32WBxx_HAL_Driver/Src/stm32wbxx_hal_rtc_ex.c ****   /* Disable the selected Tamper pin */
 828:Drivers/STM32WBxx_HAL_Driver/Src/stm32wbxx_hal_rtc_ex.c ****   hrtc->Instance->TAMPCR &= (uint32_t)~Tamper;
 1293              		.loc 1 828 3 is_stmt 1 view .LVU486
 1294              		.loc 1 828 7 is_stmt 0 view .LVU487
 1295 0016 0068     		ldr	r0, [r0]
 1296              	.LVL107:
 1297              		.loc 1 828 17 view .LVU488
 1298 0018 026C     		ldr	r2, [r0, #64]
 1299              		.loc 1 828 26 view .LVU489
 1300 001a 22EA0102 		bic	r2, r2, r1
 1301 001e 0264     		str	r2, [r0, #64]
 829:Drivers/STM32WBxx_HAL_Driver/Src/stm32wbxx_hal_rtc_ex.c **** 
 830:Drivers/STM32WBxx_HAL_Driver/Src/stm32wbxx_hal_rtc_ex.c **** #if defined(RTC_TAMPER1_SUPPORT)
 831:Drivers/STM32WBxx_HAL_Driver/Src/stm32wbxx_hal_rtc_ex.c ****   if ((Tamper & RTC_TAMPER_1) != 0U)
 1302              		.loc 1 831 3 is_stmt 1 view .LVU490
 1303              		.loc 1 831 6 is_stmt 0 view .LVU491
 1304 0020 11F0010F 		tst	r1, #1
 1305 0024 06D0     		beq	.L89
 832:Drivers/STM32WBxx_HAL_Driver/Src/stm32wbxx_hal_rtc_ex.c ****   {
 833:Drivers/STM32WBxx_HAL_Driver/Src/stm32wbxx_hal_rtc_ex.c ****     /* Disable the Tamper 1 interrupt */
 834:Drivers/STM32WBxx_HAL_Driver/Src/stm32wbxx_hal_rtc_ex.c ****     hrtc->Instance->TAMPCR &= (uint32_t)~(RTC_IT_TAMP | RTC_IT_TAMP1);
 1306              		.loc 1 834 5 is_stmt 1 view .LVU492
 1307              		.loc 1 834 9 is_stmt 0 view .LVU493
 1308 0026 1868     		ldr	r0, [r3]
 1309              		.loc 1 834 19 view .LVU494
 1310 0028 026C     		ldr	r2, [r0, #64]
 1311              		.loc 1 834 28 view .LVU495
 1312 002a 22F48032 		bic	r2, r2, #65536
 1313 002e 22F00402 		bic	r2, r2, #4
 1314 0032 0264     		str	r2, [r0, #64]
 1315              	.L89:
ARM GAS  C:\Users\Nathan\AppData\Local\Temp\ccWT97xY.s 			page 40


 835:Drivers/STM32WBxx_HAL_Driver/Src/stm32wbxx_hal_rtc_ex.c ****   }
 836:Drivers/STM32WBxx_HAL_Driver/Src/stm32wbxx_hal_rtc_ex.c **** #endif /* RTC_TAMPER1_SUPPORT */
 837:Drivers/STM32WBxx_HAL_Driver/Src/stm32wbxx_hal_rtc_ex.c ****   if ((Tamper & RTC_TAMPER_2) != 0U)
 1316              		.loc 1 837 3 is_stmt 1 view .LVU496
 1317              		.loc 1 837 6 is_stmt 0 view .LVU497
 1318 0034 11F0080F 		tst	r1, #8
 1319 0038 06D0     		beq	.L90
 838:Drivers/STM32WBxx_HAL_Driver/Src/stm32wbxx_hal_rtc_ex.c ****   {
 839:Drivers/STM32WBxx_HAL_Driver/Src/stm32wbxx_hal_rtc_ex.c ****     /* Disable the Tamper 2 interrupt */
 840:Drivers/STM32WBxx_HAL_Driver/Src/stm32wbxx_hal_rtc_ex.c ****     hrtc->Instance->TAMPCR &= (uint32_t)~(RTC_IT_TAMP | RTC_IT_TAMP2);
 1320              		.loc 1 840 5 is_stmt 1 view .LVU498
 1321              		.loc 1 840 9 is_stmt 0 view .LVU499
 1322 003a 1868     		ldr	r0, [r3]
 1323              		.loc 1 840 19 view .LVU500
 1324 003c 026C     		ldr	r2, [r0, #64]
 1325              		.loc 1 840 28 view .LVU501
 1326 003e 22F40022 		bic	r2, r2, #524288
 1327 0042 22F00402 		bic	r2, r2, #4
 1328 0046 0264     		str	r2, [r0, #64]
 1329              	.L90:
 841:Drivers/STM32WBxx_HAL_Driver/Src/stm32wbxx_hal_rtc_ex.c ****   }
 842:Drivers/STM32WBxx_HAL_Driver/Src/stm32wbxx_hal_rtc_ex.c **** #if defined(RTC_TAMPER3_SUPPORT)
 843:Drivers/STM32WBxx_HAL_Driver/Src/stm32wbxx_hal_rtc_ex.c ****   if ((Tamper & RTC_TAMPER_3) != 0U)
 1330              		.loc 1 843 3 is_stmt 1 view .LVU502
 1331              		.loc 1 843 6 is_stmt 0 view .LVU503
 1332 0048 11F0200F 		tst	r1, #32
 1333 004c 06D0     		beq	.L91
 844:Drivers/STM32WBxx_HAL_Driver/Src/stm32wbxx_hal_rtc_ex.c ****   {
 845:Drivers/STM32WBxx_HAL_Driver/Src/stm32wbxx_hal_rtc_ex.c ****     /* Disable the Tamper 3 interrupt */
 846:Drivers/STM32WBxx_HAL_Driver/Src/stm32wbxx_hal_rtc_ex.c ****     hrtc->Instance->TAMPCR &= (uint32_t)~(RTC_IT_TAMP | RTC_IT_TAMP3);
 1334              		.loc 1 846 5 is_stmt 1 view .LVU504
 1335              		.loc 1 846 9 is_stmt 0 view .LVU505
 1336 004e 1968     		ldr	r1, [r3]
 1337              	.LVL108:
 1338              		.loc 1 846 19 view .LVU506
 1339 0050 0A6C     		ldr	r2, [r1, #64]
 1340              		.loc 1 846 28 view .LVU507
 1341 0052 22F48002 		bic	r2, r2, #4194304
 1342 0056 22F00402 		bic	r2, r2, #4
 1343 005a 0A64     		str	r2, [r1, #64]
 1344              	.L91:
 847:Drivers/STM32WBxx_HAL_Driver/Src/stm32wbxx_hal_rtc_ex.c ****   }
 848:Drivers/STM32WBxx_HAL_Driver/Src/stm32wbxx_hal_rtc_ex.c **** #endif /* RTC_TAMPER3_SUPPORT */
 849:Drivers/STM32WBxx_HAL_Driver/Src/stm32wbxx_hal_rtc_ex.c **** 
 850:Drivers/STM32WBxx_HAL_Driver/Src/stm32wbxx_hal_rtc_ex.c ****   hrtc->State = HAL_RTC_STATE_READY;
 1345              		.loc 1 850 3 is_stmt 1 view .LVU508
 1346              		.loc 1 850 15 is_stmt 0 view .LVU509
 1347 005c 0122     		movs	r2, #1
 1348 005e 83F82120 		strb	r2, [r3, #33]
 851:Drivers/STM32WBxx_HAL_Driver/Src/stm32wbxx_hal_rtc_ex.c **** 
 852:Drivers/STM32WBxx_HAL_Driver/Src/stm32wbxx_hal_rtc_ex.c ****   /* Process Unlocked */
 853:Drivers/STM32WBxx_HAL_Driver/Src/stm32wbxx_hal_rtc_ex.c ****   __HAL_UNLOCK(hrtc);
 1349              		.loc 1 853 3 is_stmt 1 view .LVU510
 1350              		.loc 1 853 3 view .LVU511
 1351 0062 0020     		movs	r0, #0
 1352 0064 83F82000 		strb	r0, [r3, #32]
 1353              		.loc 1 853 3 view .LVU512
ARM GAS  C:\Users\Nathan\AppData\Local\Temp\ccWT97xY.s 			page 41


 854:Drivers/STM32WBxx_HAL_Driver/Src/stm32wbxx_hal_rtc_ex.c **** 
 855:Drivers/STM32WBxx_HAL_Driver/Src/stm32wbxx_hal_rtc_ex.c ****   return HAL_OK;
 1354              		.loc 1 855 3 view .LVU513
 1355              		.loc 1 855 10 is_stmt 0 view .LVU514
 1356 0068 7047     		bx	lr
 1357              	.LVL109:
 1358              	.L92:
 823:Drivers/STM32WBxx_HAL_Driver/Src/stm32wbxx_hal_rtc_ex.c **** 
 1359              		.loc 1 823 3 discriminator 1 view .LVU515
 1360 006a 0220     		movs	r0, #2
 1361              	.LVL110:
 856:Drivers/STM32WBxx_HAL_Driver/Src/stm32wbxx_hal_rtc_ex.c **** }
 1362              		.loc 1 856 1 view .LVU516
 1363 006c 7047     		bx	lr
 1364              		.cfi_endproc
 1365              	.LFE1112:
 1367              		.section	.text.HAL_RTCEx_TimeStampEventCallback,"ax",%progbits
 1368              		.align	1
 1369              		.weak	HAL_RTCEx_TimeStampEventCallback
 1370              		.syntax unified
 1371              		.thumb
 1372              		.thumb_func
 1374              	HAL_RTCEx_TimeStampEventCallback:
 1375              	.LVL111:
 1376              	.LFB1114:
 857:Drivers/STM32WBxx_HAL_Driver/Src/stm32wbxx_hal_rtc_ex.c **** 
 858:Drivers/STM32WBxx_HAL_Driver/Src/stm32wbxx_hal_rtc_ex.c **** /**
 859:Drivers/STM32WBxx_HAL_Driver/Src/stm32wbxx_hal_rtc_ex.c ****   * @brief  Handles Timestamp and Tamper interrupt request.
 860:Drivers/STM32WBxx_HAL_Driver/Src/stm32wbxx_hal_rtc_ex.c ****   * @param  hrtc pointer to a RTC_HandleTypeDef structure that contains
 861:Drivers/STM32WBxx_HAL_Driver/Src/stm32wbxx_hal_rtc_ex.c ****   *                the configuration information for RTC.
 862:Drivers/STM32WBxx_HAL_Driver/Src/stm32wbxx_hal_rtc_ex.c ****   * @retval None
 863:Drivers/STM32WBxx_HAL_Driver/Src/stm32wbxx_hal_rtc_ex.c ****   */
 864:Drivers/STM32WBxx_HAL_Driver/Src/stm32wbxx_hal_rtc_ex.c **** void HAL_RTCEx_TamperTimeStampIRQHandler(RTC_HandleTypeDef *hrtc)
 865:Drivers/STM32WBxx_HAL_Driver/Src/stm32wbxx_hal_rtc_ex.c **** {
 866:Drivers/STM32WBxx_HAL_Driver/Src/stm32wbxx_hal_rtc_ex.c ****   /* Clear the EXTI flag associated to the RTC Timestamp and Tamper interrupts */
 867:Drivers/STM32WBxx_HAL_Driver/Src/stm32wbxx_hal_rtc_ex.c ****   __HAL_RTC_TAMPER_TIMESTAMP_EXTI_CLEAR_FLAG();
 868:Drivers/STM32WBxx_HAL_Driver/Src/stm32wbxx_hal_rtc_ex.c **** 
 869:Drivers/STM32WBxx_HAL_Driver/Src/stm32wbxx_hal_rtc_ex.c ****   /* Get the Timestamp interrupt source enable status */
 870:Drivers/STM32WBxx_HAL_Driver/Src/stm32wbxx_hal_rtc_ex.c ****   if (__HAL_RTC_TIMESTAMP_GET_IT_SOURCE(hrtc, RTC_IT_TS) != 0U)
 871:Drivers/STM32WBxx_HAL_Driver/Src/stm32wbxx_hal_rtc_ex.c ****   {
 872:Drivers/STM32WBxx_HAL_Driver/Src/stm32wbxx_hal_rtc_ex.c ****     /* Get the pending status of the Timestamp Interrupt */
 873:Drivers/STM32WBxx_HAL_Driver/Src/stm32wbxx_hal_rtc_ex.c ****     if (__HAL_RTC_TIMESTAMP_GET_FLAG(hrtc, RTC_FLAG_TSF) != 0U)
 874:Drivers/STM32WBxx_HAL_Driver/Src/stm32wbxx_hal_rtc_ex.c ****     {
 875:Drivers/STM32WBxx_HAL_Driver/Src/stm32wbxx_hal_rtc_ex.c ****       /* Timestamp callback */
 876:Drivers/STM32WBxx_HAL_Driver/Src/stm32wbxx_hal_rtc_ex.c **** #if (USE_HAL_RTC_REGISTER_CALLBACKS == 1)
 877:Drivers/STM32WBxx_HAL_Driver/Src/stm32wbxx_hal_rtc_ex.c ****       hrtc->TimeStampEventCallback(hrtc);
 878:Drivers/STM32WBxx_HAL_Driver/Src/stm32wbxx_hal_rtc_ex.c **** #else
 879:Drivers/STM32WBxx_HAL_Driver/Src/stm32wbxx_hal_rtc_ex.c ****       HAL_RTCEx_TimeStampEventCallback(hrtc);
 880:Drivers/STM32WBxx_HAL_Driver/Src/stm32wbxx_hal_rtc_ex.c **** #endif /* USE_HAL_RTC_REGISTER_CALLBACKS */
 881:Drivers/STM32WBxx_HAL_Driver/Src/stm32wbxx_hal_rtc_ex.c **** 
 882:Drivers/STM32WBxx_HAL_Driver/Src/stm32wbxx_hal_rtc_ex.c ****       /* Clear the Timestamp interrupt pending bit after returning from callback
 883:Drivers/STM32WBxx_HAL_Driver/Src/stm32wbxx_hal_rtc_ex.c ****          as RTC_TSTR and RTC_TSDR registers are cleared when TSF bit is reset */
 884:Drivers/STM32WBxx_HAL_Driver/Src/stm32wbxx_hal_rtc_ex.c ****       __HAL_RTC_TIMESTAMP_CLEAR_FLAG(hrtc, RTC_FLAG_TSF);
 885:Drivers/STM32WBxx_HAL_Driver/Src/stm32wbxx_hal_rtc_ex.c ****     }
 886:Drivers/STM32WBxx_HAL_Driver/Src/stm32wbxx_hal_rtc_ex.c ****   }
 887:Drivers/STM32WBxx_HAL_Driver/Src/stm32wbxx_hal_rtc_ex.c **** 
 888:Drivers/STM32WBxx_HAL_Driver/Src/stm32wbxx_hal_rtc_ex.c **** #if defined(RTC_TAMPER1_SUPPORT)
ARM GAS  C:\Users\Nathan\AppData\Local\Temp\ccWT97xY.s 			page 42


 889:Drivers/STM32WBxx_HAL_Driver/Src/stm32wbxx_hal_rtc_ex.c ****   /* Get the Tamper 1 interrupt source enable status */
 890:Drivers/STM32WBxx_HAL_Driver/Src/stm32wbxx_hal_rtc_ex.c ****   if (__HAL_RTC_TAMPER_GET_IT_SOURCE(hrtc, RTC_IT_TAMP | RTC_IT_TAMP1) != 0U)
 891:Drivers/STM32WBxx_HAL_Driver/Src/stm32wbxx_hal_rtc_ex.c ****   {
 892:Drivers/STM32WBxx_HAL_Driver/Src/stm32wbxx_hal_rtc_ex.c ****     /* Get the pending status of the Tamper 1 Interrupt */
 893:Drivers/STM32WBxx_HAL_Driver/Src/stm32wbxx_hal_rtc_ex.c ****     if (__HAL_RTC_TAMPER_GET_FLAG(hrtc, RTC_FLAG_TAMP1F) != 0U)
 894:Drivers/STM32WBxx_HAL_Driver/Src/stm32wbxx_hal_rtc_ex.c ****     {
 895:Drivers/STM32WBxx_HAL_Driver/Src/stm32wbxx_hal_rtc_ex.c ****       /* Clear the Tamper interrupt pending bit */
 896:Drivers/STM32WBxx_HAL_Driver/Src/stm32wbxx_hal_rtc_ex.c ****       __HAL_RTC_TAMPER_CLEAR_FLAG(hrtc, RTC_FLAG_TAMP1F);
 897:Drivers/STM32WBxx_HAL_Driver/Src/stm32wbxx_hal_rtc_ex.c **** 
 898:Drivers/STM32WBxx_HAL_Driver/Src/stm32wbxx_hal_rtc_ex.c ****       /* Tamper callback */
 899:Drivers/STM32WBxx_HAL_Driver/Src/stm32wbxx_hal_rtc_ex.c **** #if (USE_HAL_RTC_REGISTER_CALLBACKS == 1)
 900:Drivers/STM32WBxx_HAL_Driver/Src/stm32wbxx_hal_rtc_ex.c ****       hrtc->Tamper1EventCallback(hrtc);
 901:Drivers/STM32WBxx_HAL_Driver/Src/stm32wbxx_hal_rtc_ex.c **** #else
 902:Drivers/STM32WBxx_HAL_Driver/Src/stm32wbxx_hal_rtc_ex.c ****       HAL_RTCEx_Tamper1EventCallback(hrtc);
 903:Drivers/STM32WBxx_HAL_Driver/Src/stm32wbxx_hal_rtc_ex.c **** #endif /* USE_HAL_RTC_REGISTER_CALLBACKS */
 904:Drivers/STM32WBxx_HAL_Driver/Src/stm32wbxx_hal_rtc_ex.c ****     }
 905:Drivers/STM32WBxx_HAL_Driver/Src/stm32wbxx_hal_rtc_ex.c ****   }
 906:Drivers/STM32WBxx_HAL_Driver/Src/stm32wbxx_hal_rtc_ex.c **** #endif /* RTC_TAMPER1_SUPPORT */
 907:Drivers/STM32WBxx_HAL_Driver/Src/stm32wbxx_hal_rtc_ex.c **** 
 908:Drivers/STM32WBxx_HAL_Driver/Src/stm32wbxx_hal_rtc_ex.c ****   /* Get the Tamper 2 interrupt source enable status */
 909:Drivers/STM32WBxx_HAL_Driver/Src/stm32wbxx_hal_rtc_ex.c ****   if (__HAL_RTC_TAMPER_GET_IT_SOURCE(hrtc, RTC_IT_TAMP | RTC_IT_TAMP2) != 0U)
 910:Drivers/STM32WBxx_HAL_Driver/Src/stm32wbxx_hal_rtc_ex.c ****   {
 911:Drivers/STM32WBxx_HAL_Driver/Src/stm32wbxx_hal_rtc_ex.c ****     /* Get the pending status of the Tamper 2 Interrupt */
 912:Drivers/STM32WBxx_HAL_Driver/Src/stm32wbxx_hal_rtc_ex.c ****     if (__HAL_RTC_TAMPER_GET_FLAG(hrtc, RTC_FLAG_TAMP2F) != 0U)
 913:Drivers/STM32WBxx_HAL_Driver/Src/stm32wbxx_hal_rtc_ex.c ****     {
 914:Drivers/STM32WBxx_HAL_Driver/Src/stm32wbxx_hal_rtc_ex.c ****       /* Clear the Tamper interrupt pending bit */
 915:Drivers/STM32WBxx_HAL_Driver/Src/stm32wbxx_hal_rtc_ex.c ****       __HAL_RTC_TAMPER_CLEAR_FLAG(hrtc, RTC_FLAG_TAMP2F);
 916:Drivers/STM32WBxx_HAL_Driver/Src/stm32wbxx_hal_rtc_ex.c **** 
 917:Drivers/STM32WBxx_HAL_Driver/Src/stm32wbxx_hal_rtc_ex.c ****       /* Tamper callback */
 918:Drivers/STM32WBxx_HAL_Driver/Src/stm32wbxx_hal_rtc_ex.c **** #if (USE_HAL_RTC_REGISTER_CALLBACKS == 1)
 919:Drivers/STM32WBxx_HAL_Driver/Src/stm32wbxx_hal_rtc_ex.c ****       hrtc->Tamper2EventCallback(hrtc);
 920:Drivers/STM32WBxx_HAL_Driver/Src/stm32wbxx_hal_rtc_ex.c **** #else
 921:Drivers/STM32WBxx_HAL_Driver/Src/stm32wbxx_hal_rtc_ex.c ****       HAL_RTCEx_Tamper2EventCallback(hrtc);
 922:Drivers/STM32WBxx_HAL_Driver/Src/stm32wbxx_hal_rtc_ex.c **** #endif /* USE_HAL_RTC_REGISTER_CALLBACKS */
 923:Drivers/STM32WBxx_HAL_Driver/Src/stm32wbxx_hal_rtc_ex.c ****     }
 924:Drivers/STM32WBxx_HAL_Driver/Src/stm32wbxx_hal_rtc_ex.c ****   }
 925:Drivers/STM32WBxx_HAL_Driver/Src/stm32wbxx_hal_rtc_ex.c **** 
 926:Drivers/STM32WBxx_HAL_Driver/Src/stm32wbxx_hal_rtc_ex.c **** #if defined(RTC_TAMPER3_SUPPORT)
 927:Drivers/STM32WBxx_HAL_Driver/Src/stm32wbxx_hal_rtc_ex.c ****   /* Get the Tamper 3 interrupt source enable status */
 928:Drivers/STM32WBxx_HAL_Driver/Src/stm32wbxx_hal_rtc_ex.c ****   if (__HAL_RTC_TAMPER_GET_IT_SOURCE(hrtc, RTC_IT_TAMP | RTC_IT_TAMP3) != 0U)
 929:Drivers/STM32WBxx_HAL_Driver/Src/stm32wbxx_hal_rtc_ex.c ****   {
 930:Drivers/STM32WBxx_HAL_Driver/Src/stm32wbxx_hal_rtc_ex.c ****     /* Get the pending status of the Tamper 3 Interrupt */
 931:Drivers/STM32WBxx_HAL_Driver/Src/stm32wbxx_hal_rtc_ex.c ****     if (__HAL_RTC_TAMPER_GET_FLAG(hrtc, RTC_FLAG_TAMP3F) != 0U)
 932:Drivers/STM32WBxx_HAL_Driver/Src/stm32wbxx_hal_rtc_ex.c ****     {
 933:Drivers/STM32WBxx_HAL_Driver/Src/stm32wbxx_hal_rtc_ex.c ****       /* Clear the Tamper interrupt pending bit */
 934:Drivers/STM32WBxx_HAL_Driver/Src/stm32wbxx_hal_rtc_ex.c ****       __HAL_RTC_TAMPER_CLEAR_FLAG(hrtc, RTC_FLAG_TAMP3F);
 935:Drivers/STM32WBxx_HAL_Driver/Src/stm32wbxx_hal_rtc_ex.c **** 
 936:Drivers/STM32WBxx_HAL_Driver/Src/stm32wbxx_hal_rtc_ex.c ****       /* Tamper callback */
 937:Drivers/STM32WBxx_HAL_Driver/Src/stm32wbxx_hal_rtc_ex.c **** #if (USE_HAL_RTC_REGISTER_CALLBACKS == 1)
 938:Drivers/STM32WBxx_HAL_Driver/Src/stm32wbxx_hal_rtc_ex.c ****       hrtc->Tamper3EventCallback(hrtc);
 939:Drivers/STM32WBxx_HAL_Driver/Src/stm32wbxx_hal_rtc_ex.c **** #else
 940:Drivers/STM32WBxx_HAL_Driver/Src/stm32wbxx_hal_rtc_ex.c ****       HAL_RTCEx_Tamper3EventCallback(hrtc);
 941:Drivers/STM32WBxx_HAL_Driver/Src/stm32wbxx_hal_rtc_ex.c **** #endif /* USE_HAL_RTC_REGISTER_CALLBACKS */
 942:Drivers/STM32WBxx_HAL_Driver/Src/stm32wbxx_hal_rtc_ex.c ****     }
 943:Drivers/STM32WBxx_HAL_Driver/Src/stm32wbxx_hal_rtc_ex.c ****   }
 944:Drivers/STM32WBxx_HAL_Driver/Src/stm32wbxx_hal_rtc_ex.c **** #endif /* RTC_TAMPER3_SUPPORT */
 945:Drivers/STM32WBxx_HAL_Driver/Src/stm32wbxx_hal_rtc_ex.c **** 
ARM GAS  C:\Users\Nathan\AppData\Local\Temp\ccWT97xY.s 			page 43


 946:Drivers/STM32WBxx_HAL_Driver/Src/stm32wbxx_hal_rtc_ex.c ****   /* Change RTC state */
 947:Drivers/STM32WBxx_HAL_Driver/Src/stm32wbxx_hal_rtc_ex.c ****   hrtc->State = HAL_RTC_STATE_READY;
 948:Drivers/STM32WBxx_HAL_Driver/Src/stm32wbxx_hal_rtc_ex.c **** }
 949:Drivers/STM32WBxx_HAL_Driver/Src/stm32wbxx_hal_rtc_ex.c **** 
 950:Drivers/STM32WBxx_HAL_Driver/Src/stm32wbxx_hal_rtc_ex.c **** /**
 951:Drivers/STM32WBxx_HAL_Driver/Src/stm32wbxx_hal_rtc_ex.c ****   * @brief  Timestamp callback.
 952:Drivers/STM32WBxx_HAL_Driver/Src/stm32wbxx_hal_rtc_ex.c ****   * @param  hrtc pointer to a RTC_HandleTypeDef structure that contains
 953:Drivers/STM32WBxx_HAL_Driver/Src/stm32wbxx_hal_rtc_ex.c ****   *                the configuration information for RTC.
 954:Drivers/STM32WBxx_HAL_Driver/Src/stm32wbxx_hal_rtc_ex.c ****   * @retval None
 955:Drivers/STM32WBxx_HAL_Driver/Src/stm32wbxx_hal_rtc_ex.c ****   */
 956:Drivers/STM32WBxx_HAL_Driver/Src/stm32wbxx_hal_rtc_ex.c **** __weak void HAL_RTCEx_TimeStampEventCallback(RTC_HandleTypeDef *hrtc)
 957:Drivers/STM32WBxx_HAL_Driver/Src/stm32wbxx_hal_rtc_ex.c **** {
 1377              		.loc 1 957 1 is_stmt 1 view -0
 1378              		.cfi_startproc
 1379              		@ args = 0, pretend = 0, frame = 0
 1380              		@ frame_needed = 0, uses_anonymous_args = 0
 1381              		@ link register save eliminated.
 958:Drivers/STM32WBxx_HAL_Driver/Src/stm32wbxx_hal_rtc_ex.c ****   /* Prevent unused argument(s) compilation warning */
 959:Drivers/STM32WBxx_HAL_Driver/Src/stm32wbxx_hal_rtc_ex.c ****   UNUSED(hrtc);
 1382              		.loc 1 959 3 view .LVU518
 960:Drivers/STM32WBxx_HAL_Driver/Src/stm32wbxx_hal_rtc_ex.c **** 
 961:Drivers/STM32WBxx_HAL_Driver/Src/stm32wbxx_hal_rtc_ex.c ****   /* NOTE: This function should not be modified, when the callback is needed,
 962:Drivers/STM32WBxx_HAL_Driver/Src/stm32wbxx_hal_rtc_ex.c ****            the HAL_RTCEx_TimeStampEventCallback could be implemented in the user file
 963:Drivers/STM32WBxx_HAL_Driver/Src/stm32wbxx_hal_rtc_ex.c ****   */
 964:Drivers/STM32WBxx_HAL_Driver/Src/stm32wbxx_hal_rtc_ex.c **** }
 1383              		.loc 1 964 1 is_stmt 0 view .LVU519
 1384 0000 7047     		bx	lr
 1385              		.cfi_endproc
 1386              	.LFE1114:
 1388              		.section	.text.HAL_RTCEx_Tamper1EventCallback,"ax",%progbits
 1389              		.align	1
 1390              		.weak	HAL_RTCEx_Tamper1EventCallback
 1391              		.syntax unified
 1392              		.thumb
 1393              		.thumb_func
 1395              	HAL_RTCEx_Tamper1EventCallback:
 1396              	.LVL112:
 1397              	.LFB1115:
 965:Drivers/STM32WBxx_HAL_Driver/Src/stm32wbxx_hal_rtc_ex.c **** 
 966:Drivers/STM32WBxx_HAL_Driver/Src/stm32wbxx_hal_rtc_ex.c **** #if defined(RTC_TAMPER1_SUPPORT)
 967:Drivers/STM32WBxx_HAL_Driver/Src/stm32wbxx_hal_rtc_ex.c **** /**
 968:Drivers/STM32WBxx_HAL_Driver/Src/stm32wbxx_hal_rtc_ex.c ****   * @brief  Tamper 1 callback.
 969:Drivers/STM32WBxx_HAL_Driver/Src/stm32wbxx_hal_rtc_ex.c ****   * @param  hrtc pointer to a RTC_HandleTypeDef structure that contains
 970:Drivers/STM32WBxx_HAL_Driver/Src/stm32wbxx_hal_rtc_ex.c ****   *                the configuration information for RTC.
 971:Drivers/STM32WBxx_HAL_Driver/Src/stm32wbxx_hal_rtc_ex.c ****   * @retval None
 972:Drivers/STM32WBxx_HAL_Driver/Src/stm32wbxx_hal_rtc_ex.c ****   */
 973:Drivers/STM32WBxx_HAL_Driver/Src/stm32wbxx_hal_rtc_ex.c **** __weak void HAL_RTCEx_Tamper1EventCallback(RTC_HandleTypeDef *hrtc)
 974:Drivers/STM32WBxx_HAL_Driver/Src/stm32wbxx_hal_rtc_ex.c **** {
 1398              		.loc 1 974 1 is_stmt 1 view -0
 1399              		.cfi_startproc
 1400              		@ args = 0, pretend = 0, frame = 0
 1401              		@ frame_needed = 0, uses_anonymous_args = 0
 1402              		@ link register save eliminated.
 975:Drivers/STM32WBxx_HAL_Driver/Src/stm32wbxx_hal_rtc_ex.c ****   /* Prevent unused argument(s) compilation warning */
 976:Drivers/STM32WBxx_HAL_Driver/Src/stm32wbxx_hal_rtc_ex.c ****   UNUSED(hrtc);
 1403              		.loc 1 976 3 view .LVU521
 977:Drivers/STM32WBxx_HAL_Driver/Src/stm32wbxx_hal_rtc_ex.c **** 
ARM GAS  C:\Users\Nathan\AppData\Local\Temp\ccWT97xY.s 			page 44


 978:Drivers/STM32WBxx_HAL_Driver/Src/stm32wbxx_hal_rtc_ex.c ****   /* NOTE: This function should not be modified, when the callback is needed,
 979:Drivers/STM32WBxx_HAL_Driver/Src/stm32wbxx_hal_rtc_ex.c ****            the HAL_RTCEx_Tamper1EventCallback could be implemented in the user file
 980:Drivers/STM32WBxx_HAL_Driver/Src/stm32wbxx_hal_rtc_ex.c ****    */
 981:Drivers/STM32WBxx_HAL_Driver/Src/stm32wbxx_hal_rtc_ex.c **** }
 1404              		.loc 1 981 1 is_stmt 0 view .LVU522
 1405 0000 7047     		bx	lr
 1406              		.cfi_endproc
 1407              	.LFE1115:
 1409              		.section	.text.HAL_RTCEx_Tamper2EventCallback,"ax",%progbits
 1410              		.align	1
 1411              		.weak	HAL_RTCEx_Tamper2EventCallback
 1412              		.syntax unified
 1413              		.thumb
 1414              		.thumb_func
 1416              	HAL_RTCEx_Tamper2EventCallback:
 1417              	.LVL113:
 1418              	.LFB1116:
 982:Drivers/STM32WBxx_HAL_Driver/Src/stm32wbxx_hal_rtc_ex.c **** #endif /* RTC_TAMPER1_SUPPORT */
 983:Drivers/STM32WBxx_HAL_Driver/Src/stm32wbxx_hal_rtc_ex.c **** 
 984:Drivers/STM32WBxx_HAL_Driver/Src/stm32wbxx_hal_rtc_ex.c **** /**
 985:Drivers/STM32WBxx_HAL_Driver/Src/stm32wbxx_hal_rtc_ex.c ****   * @brief  Tamper 2 callback.
 986:Drivers/STM32WBxx_HAL_Driver/Src/stm32wbxx_hal_rtc_ex.c ****   * @param  hrtc pointer to a RTC_HandleTypeDef structure that contains
 987:Drivers/STM32WBxx_HAL_Driver/Src/stm32wbxx_hal_rtc_ex.c ****   *                the configuration information for RTC.
 988:Drivers/STM32WBxx_HAL_Driver/Src/stm32wbxx_hal_rtc_ex.c ****   * @retval None
 989:Drivers/STM32WBxx_HAL_Driver/Src/stm32wbxx_hal_rtc_ex.c ****   */
 990:Drivers/STM32WBxx_HAL_Driver/Src/stm32wbxx_hal_rtc_ex.c **** __weak void HAL_RTCEx_Tamper2EventCallback(RTC_HandleTypeDef *hrtc)
 991:Drivers/STM32WBxx_HAL_Driver/Src/stm32wbxx_hal_rtc_ex.c **** {
 1419              		.loc 1 991 1 is_stmt 1 view -0
 1420              		.cfi_startproc
 1421              		@ args = 0, pretend = 0, frame = 0
 1422              		@ frame_needed = 0, uses_anonymous_args = 0
 1423              		@ link register save eliminated.
 992:Drivers/STM32WBxx_HAL_Driver/Src/stm32wbxx_hal_rtc_ex.c ****   /* Prevent unused argument(s) compilation warning */
 993:Drivers/STM32WBxx_HAL_Driver/Src/stm32wbxx_hal_rtc_ex.c ****   UNUSED(hrtc);
 1424              		.loc 1 993 3 view .LVU524
 994:Drivers/STM32WBxx_HAL_Driver/Src/stm32wbxx_hal_rtc_ex.c **** 
 995:Drivers/STM32WBxx_HAL_Driver/Src/stm32wbxx_hal_rtc_ex.c ****   /* NOTE: This function should not be modified, when the callback is needed,
 996:Drivers/STM32WBxx_HAL_Driver/Src/stm32wbxx_hal_rtc_ex.c ****            the HAL_RTCEx_Tamper2EventCallback could be implemented in the user file
 997:Drivers/STM32WBxx_HAL_Driver/Src/stm32wbxx_hal_rtc_ex.c ****    */
 998:Drivers/STM32WBxx_HAL_Driver/Src/stm32wbxx_hal_rtc_ex.c **** }
 1425              		.loc 1 998 1 is_stmt 0 view .LVU525
 1426 0000 7047     		bx	lr
 1427              		.cfi_endproc
 1428              	.LFE1116:
 1430              		.section	.text.HAL_RTCEx_Tamper3EventCallback,"ax",%progbits
 1431              		.align	1
 1432              		.weak	HAL_RTCEx_Tamper3EventCallback
 1433              		.syntax unified
 1434              		.thumb
 1435              		.thumb_func
 1437              	HAL_RTCEx_Tamper3EventCallback:
 1438              	.LVL114:
 1439              	.LFB1117:
 999:Drivers/STM32WBxx_HAL_Driver/Src/stm32wbxx_hal_rtc_ex.c **** 
1000:Drivers/STM32WBxx_HAL_Driver/Src/stm32wbxx_hal_rtc_ex.c **** #if defined(RTC_TAMPER3_SUPPORT)
1001:Drivers/STM32WBxx_HAL_Driver/Src/stm32wbxx_hal_rtc_ex.c **** /**
1002:Drivers/STM32WBxx_HAL_Driver/Src/stm32wbxx_hal_rtc_ex.c ****   * @brief  Tamper 3 callback.
ARM GAS  C:\Users\Nathan\AppData\Local\Temp\ccWT97xY.s 			page 45


1003:Drivers/STM32WBxx_HAL_Driver/Src/stm32wbxx_hal_rtc_ex.c ****   * @param  hrtc pointer to a RTC_HandleTypeDef structure that contains
1004:Drivers/STM32WBxx_HAL_Driver/Src/stm32wbxx_hal_rtc_ex.c ****   *                the configuration information for RTC.
1005:Drivers/STM32WBxx_HAL_Driver/Src/stm32wbxx_hal_rtc_ex.c ****   * @retval None
1006:Drivers/STM32WBxx_HAL_Driver/Src/stm32wbxx_hal_rtc_ex.c ****   */
1007:Drivers/STM32WBxx_HAL_Driver/Src/stm32wbxx_hal_rtc_ex.c **** __weak void HAL_RTCEx_Tamper3EventCallback(RTC_HandleTypeDef *hrtc)
1008:Drivers/STM32WBxx_HAL_Driver/Src/stm32wbxx_hal_rtc_ex.c **** {
 1440              		.loc 1 1008 1 is_stmt 1 view -0
 1441              		.cfi_startproc
 1442              		@ args = 0, pretend = 0, frame = 0
 1443              		@ frame_needed = 0, uses_anonymous_args = 0
 1444              		@ link register save eliminated.
1009:Drivers/STM32WBxx_HAL_Driver/Src/stm32wbxx_hal_rtc_ex.c ****   /* Prevent unused argument(s) compilation warning */
1010:Drivers/STM32WBxx_HAL_Driver/Src/stm32wbxx_hal_rtc_ex.c ****   UNUSED(hrtc);
 1445              		.loc 1 1010 3 view .LVU527
1011:Drivers/STM32WBxx_HAL_Driver/Src/stm32wbxx_hal_rtc_ex.c **** 
1012:Drivers/STM32WBxx_HAL_Driver/Src/stm32wbxx_hal_rtc_ex.c ****   /* NOTE: This function should not be modified, when the callback is needed,
1013:Drivers/STM32WBxx_HAL_Driver/Src/stm32wbxx_hal_rtc_ex.c ****            the HAL_RTCEx_Tamper3EventCallback could be implemented in the user file
1014:Drivers/STM32WBxx_HAL_Driver/Src/stm32wbxx_hal_rtc_ex.c ****    */
1015:Drivers/STM32WBxx_HAL_Driver/Src/stm32wbxx_hal_rtc_ex.c **** }
 1446              		.loc 1 1015 1 is_stmt 0 view .LVU528
 1447 0000 7047     		bx	lr
 1448              		.cfi_endproc
 1449              	.LFE1117:
 1451              		.section	.text.HAL_RTCEx_TamperTimeStampIRQHandler,"ax",%progbits
 1452              		.align	1
 1453              		.global	HAL_RTCEx_TamperTimeStampIRQHandler
 1454              		.syntax unified
 1455              		.thumb
 1456              		.thumb_func
 1458              	HAL_RTCEx_TamperTimeStampIRQHandler:
 1459              	.LVL115:
 1460              	.LFB1113:
 865:Drivers/STM32WBxx_HAL_Driver/Src/stm32wbxx_hal_rtc_ex.c ****   /* Clear the EXTI flag associated to the RTC Timestamp and Tamper interrupts */
 1461              		.loc 1 865 1 is_stmt 1 view -0
 1462              		.cfi_startproc
 1463              		@ args = 0, pretend = 0, frame = 0
 1464              		@ frame_needed = 0, uses_anonymous_args = 0
 865:Drivers/STM32WBxx_HAL_Driver/Src/stm32wbxx_hal_rtc_ex.c ****   /* Clear the EXTI flag associated to the RTC Timestamp and Tamper interrupts */
 1465              		.loc 1 865 1 is_stmt 0 view .LVU530
 1466 0000 10B5     		push	{r4, lr}
 1467              		.cfi_def_cfa_offset 8
 1468              		.cfi_offset 4, -8
 1469              		.cfi_offset 14, -4
 1470 0002 0446     		mov	r4, r0
 867:Drivers/STM32WBxx_HAL_Driver/Src/stm32wbxx_hal_rtc_ex.c **** 
 1471              		.loc 1 867 3 is_stmt 1 view .LVU531
 1472 0004 2A4B     		ldr	r3, .L107
 1473 0006 4FF48022 		mov	r2, #262144
 1474 000a DA60     		str	r2, [r3, #12]
 870:Drivers/STM32WBxx_HAL_Driver/Src/stm32wbxx_hal_rtc_ex.c ****   {
 1475              		.loc 1 870 3 view .LVU532
 870:Drivers/STM32WBxx_HAL_Driver/Src/stm32wbxx_hal_rtc_ex.c ****   {
 1476              		.loc 1 870 7 is_stmt 0 view .LVU533
 1477 000c 0368     		ldr	r3, [r0]
 1478 000e 9A68     		ldr	r2, [r3, #8]
 870:Drivers/STM32WBxx_HAL_Driver/Src/stm32wbxx_hal_rtc_ex.c ****   {
 1479              		.loc 1 870 6 view .LVU534
ARM GAS  C:\Users\Nathan\AppData\Local\Temp\ccWT97xY.s 			page 46


 1480 0010 12F4004F 		tst	r2, #32768
 1481 0014 03D0     		beq	.L98
 873:Drivers/STM32WBxx_HAL_Driver/Src/stm32wbxx_hal_rtc_ex.c ****     {
 1482              		.loc 1 873 5 is_stmt 1 view .LVU535
 873:Drivers/STM32WBxx_HAL_Driver/Src/stm32wbxx_hal_rtc_ex.c ****     {
 1483              		.loc 1 873 9 is_stmt 0 view .LVU536
 1484 0016 DB68     		ldr	r3, [r3, #12]
 873:Drivers/STM32WBxx_HAL_Driver/Src/stm32wbxx_hal_rtc_ex.c ****     {
 1485              		.loc 1 873 8 view .LVU537
 1486 0018 13F4006F 		tst	r3, #2048
 1487 001c 1ED1     		bne	.L103
 1488              	.LVL116:
 1489              	.L98:
 890:Drivers/STM32WBxx_HAL_Driver/Src/stm32wbxx_hal_rtc_ex.c ****   {
 1490              		.loc 1 890 3 is_stmt 1 view .LVU538
 890:Drivers/STM32WBxx_HAL_Driver/Src/stm32wbxx_hal_rtc_ex.c ****   {
 1491              		.loc 1 890 7 is_stmt 0 view .LVU539
 1492 001e 2268     		ldr	r2, [r4]
 1493 0020 116C     		ldr	r1, [r2, #64]
 1494 0022 244B     		ldr	r3, .L107+4
 1495 0024 0B40     		ands	r3, r3, r1
 890:Drivers/STM32WBxx_HAL_Driver/Src/stm32wbxx_hal_rtc_ex.c ****   {
 1496              		.loc 1 890 6 view .LVU540
 1497 0026 1BB1     		cbz	r3, .L99
 893:Drivers/STM32WBxx_HAL_Driver/Src/stm32wbxx_hal_rtc_ex.c ****     {
 1498              		.loc 1 893 5 is_stmt 1 view .LVU541
 893:Drivers/STM32WBxx_HAL_Driver/Src/stm32wbxx_hal_rtc_ex.c ****     {
 1499              		.loc 1 893 9 is_stmt 0 view .LVU542
 1500 0028 D368     		ldr	r3, [r2, #12]
 893:Drivers/STM32WBxx_HAL_Driver/Src/stm32wbxx_hal_rtc_ex.c ****     {
 1501              		.loc 1 893 8 view .LVU543
 1502 002a 13F4005F 		tst	r3, #8192
 1503 002e 1ED1     		bne	.L104
 1504              	.L99:
 909:Drivers/STM32WBxx_HAL_Driver/Src/stm32wbxx_hal_rtc_ex.c ****   {
 1505              		.loc 1 909 3 is_stmt 1 view .LVU544
 909:Drivers/STM32WBxx_HAL_Driver/Src/stm32wbxx_hal_rtc_ex.c ****   {
 1506              		.loc 1 909 7 is_stmt 0 view .LVU545
 1507 0030 2268     		ldr	r2, [r4]
 1508 0032 116C     		ldr	r1, [r2, #64]
 1509 0034 204B     		ldr	r3, .L107+8
 1510 0036 0B40     		ands	r3, r3, r1
 909:Drivers/STM32WBxx_HAL_Driver/Src/stm32wbxx_hal_rtc_ex.c ****   {
 1511              		.loc 1 909 6 view .LVU546
 1512 0038 1BB1     		cbz	r3, .L100
 912:Drivers/STM32WBxx_HAL_Driver/Src/stm32wbxx_hal_rtc_ex.c ****     {
 1513              		.loc 1 912 5 is_stmt 1 view .LVU547
 912:Drivers/STM32WBxx_HAL_Driver/Src/stm32wbxx_hal_rtc_ex.c ****     {
 1514              		.loc 1 912 9 is_stmt 0 view .LVU548
 1515 003a D368     		ldr	r3, [r2, #12]
 912:Drivers/STM32WBxx_HAL_Driver/Src/stm32wbxx_hal_rtc_ex.c ****     {
 1516              		.loc 1 912 8 view .LVU549
 1517 003c 13F4804F 		tst	r3, #16384
 1518 0040 1ED1     		bne	.L105
 1519              	.L100:
 928:Drivers/STM32WBxx_HAL_Driver/Src/stm32wbxx_hal_rtc_ex.c ****   {
 1520              		.loc 1 928 3 is_stmt 1 view .LVU550
ARM GAS  C:\Users\Nathan\AppData\Local\Temp\ccWT97xY.s 			page 47


 928:Drivers/STM32WBxx_HAL_Driver/Src/stm32wbxx_hal_rtc_ex.c ****   {
 1521              		.loc 1 928 7 is_stmt 0 view .LVU551
 1522 0042 2268     		ldr	r2, [r4]
 1523 0044 116C     		ldr	r1, [r2, #64]
 1524 0046 1D4B     		ldr	r3, .L107+12
 1525 0048 0B40     		ands	r3, r3, r1
 928:Drivers/STM32WBxx_HAL_Driver/Src/stm32wbxx_hal_rtc_ex.c ****   {
 1526              		.loc 1 928 6 view .LVU552
 1527 004a 1BB1     		cbz	r3, .L101
 931:Drivers/STM32WBxx_HAL_Driver/Src/stm32wbxx_hal_rtc_ex.c ****     {
 1528              		.loc 1 931 5 is_stmt 1 view .LVU553
 931:Drivers/STM32WBxx_HAL_Driver/Src/stm32wbxx_hal_rtc_ex.c ****     {
 1529              		.loc 1 931 9 is_stmt 0 view .LVU554
 1530 004c D368     		ldr	r3, [r2, #12]
 931:Drivers/STM32WBxx_HAL_Driver/Src/stm32wbxx_hal_rtc_ex.c ****     {
 1531              		.loc 1 931 8 view .LVU555
 1532 004e 13F4004F 		tst	r3, #32768
 1533 0052 1ED1     		bne	.L106
 1534              	.L101:
 947:Drivers/STM32WBxx_HAL_Driver/Src/stm32wbxx_hal_rtc_ex.c **** }
 1535              		.loc 1 947 3 is_stmt 1 view .LVU556
 947:Drivers/STM32WBxx_HAL_Driver/Src/stm32wbxx_hal_rtc_ex.c **** }
 1536              		.loc 1 947 15 is_stmt 0 view .LVU557
 1537 0054 0123     		movs	r3, #1
 1538 0056 84F82130 		strb	r3, [r4, #33]
 948:Drivers/STM32WBxx_HAL_Driver/Src/stm32wbxx_hal_rtc_ex.c **** 
 1539              		.loc 1 948 1 view .LVU558
 1540 005a 10BD     		pop	{r4, pc}
 1541              	.LVL117:
 1542              	.L103:
 879:Drivers/STM32WBxx_HAL_Driver/Src/stm32wbxx_hal_rtc_ex.c **** #endif /* USE_HAL_RTC_REGISTER_CALLBACKS */
 1543              		.loc 1 879 7 is_stmt 1 view .LVU559
 1544 005c FFF7FEFF 		bl	HAL_RTCEx_TimeStampEventCallback
 1545              	.LVL118:
 884:Drivers/STM32WBxx_HAL_Driver/Src/stm32wbxx_hal_rtc_ex.c ****     }
 1546              		.loc 1 884 7 view .LVU560
 1547 0060 2268     		ldr	r2, [r4]
 1548 0062 D368     		ldr	r3, [r2, #12]
 1549 0064 DBB2     		uxtb	r3, r3
 1550 0066 63F40863 		orn	r3, r3, #2176
 1551 006a D360     		str	r3, [r2, #12]
 1552 006c D7E7     		b	.L98
 1553              	.L104:
 896:Drivers/STM32WBxx_HAL_Driver/Src/stm32wbxx_hal_rtc_ex.c **** 
 1554              		.loc 1 896 7 view .LVU561
 1555 006e D368     		ldr	r3, [r2, #12]
 1556 0070 DBB2     		uxtb	r3, r3
 1557 0072 63F40253 		orn	r3, r3, #8320
 1558 0076 D360     		str	r3, [r2, #12]
 902:Drivers/STM32WBxx_HAL_Driver/Src/stm32wbxx_hal_rtc_ex.c **** #endif /* USE_HAL_RTC_REGISTER_CALLBACKS */
 1559              		.loc 1 902 7 view .LVU562
 1560 0078 2046     		mov	r0, r4
 1561 007a FFF7FEFF 		bl	HAL_RTCEx_Tamper1EventCallback
 1562              	.LVL119:
 1563 007e D7E7     		b	.L99
 1564              	.L105:
 915:Drivers/STM32WBxx_HAL_Driver/Src/stm32wbxx_hal_rtc_ex.c **** 
ARM GAS  C:\Users\Nathan\AppData\Local\Temp\ccWT97xY.s 			page 48


 1565              		.loc 1 915 7 view .LVU563
 1566 0080 D368     		ldr	r3, [r2, #12]
 1567 0082 DBB2     		uxtb	r3, r3
 1568 0084 63F48143 		orn	r3, r3, #16512
 1569 0088 D360     		str	r3, [r2, #12]
 921:Drivers/STM32WBxx_HAL_Driver/Src/stm32wbxx_hal_rtc_ex.c **** #endif /* USE_HAL_RTC_REGISTER_CALLBACKS */
 1570              		.loc 1 921 7 view .LVU564
 1571 008a 2046     		mov	r0, r4
 1572 008c FFF7FEFF 		bl	HAL_RTCEx_Tamper2EventCallback
 1573              	.LVL120:
 1574 0090 D7E7     		b	.L100
 1575              	.L106:
 934:Drivers/STM32WBxx_HAL_Driver/Src/stm32wbxx_hal_rtc_ex.c **** 
 1576              		.loc 1 934 7 view .LVU565
 1577 0092 D368     		ldr	r3, [r2, #12]
 1578 0094 DBB2     		uxtb	r3, r3
 1579 0096 43F07F43 		orr	r3, r3, #-16777216
 1580 009a 43F47F03 		orr	r3, r3, #16711680
 1581 009e 43F4FE43 		orr	r3, r3, #32512
 1582 00a2 43F07F03 		orr	r3, r3, #127
 1583 00a6 D360     		str	r3, [r2, #12]
 940:Drivers/STM32WBxx_HAL_Driver/Src/stm32wbxx_hal_rtc_ex.c **** #endif /* USE_HAL_RTC_REGISTER_CALLBACKS */
 1584              		.loc 1 940 7 view .LVU566
 1585 00a8 2046     		mov	r0, r4
 1586 00aa FFF7FEFF 		bl	HAL_RTCEx_Tamper3EventCallback
 1587              	.LVL121:
 1588 00ae D1E7     		b	.L101
 1589              	.L108:
 1590              		.align	2
 1591              	.L107:
 1592 00b0 00080058 		.word	1476397056
 1593 00b4 04000100 		.word	65540
 1594 00b8 04000800 		.word	524292
 1595 00bc 04004000 		.word	4194308
 1596              		.cfi_endproc
 1597              	.LFE1113:
 1599              		.section	.text.HAL_RTCEx_PollForTimeStampEvent,"ax",%progbits
 1600              		.align	1
 1601              		.global	HAL_RTCEx_PollForTimeStampEvent
 1602              		.syntax unified
 1603              		.thumb
 1604              		.thumb_func
 1606              	HAL_RTCEx_PollForTimeStampEvent:
 1607              	.LVL122:
 1608              	.LFB1118:
1016:Drivers/STM32WBxx_HAL_Driver/Src/stm32wbxx_hal_rtc_ex.c **** #endif /* RTC_TAMPER3_SUPPORT */
1017:Drivers/STM32WBxx_HAL_Driver/Src/stm32wbxx_hal_rtc_ex.c **** 
1018:Drivers/STM32WBxx_HAL_Driver/Src/stm32wbxx_hal_rtc_ex.c **** /**
1019:Drivers/STM32WBxx_HAL_Driver/Src/stm32wbxx_hal_rtc_ex.c ****   * @brief  Handles Timestamp polling request.
1020:Drivers/STM32WBxx_HAL_Driver/Src/stm32wbxx_hal_rtc_ex.c ****   * @param  hrtc pointer to a RTC_HandleTypeDef structure that contains
1021:Drivers/STM32WBxx_HAL_Driver/Src/stm32wbxx_hal_rtc_ex.c ****   *                the configuration information for RTC.
1022:Drivers/STM32WBxx_HAL_Driver/Src/stm32wbxx_hal_rtc_ex.c ****   * @param  Timeout Timeout duration
1023:Drivers/STM32WBxx_HAL_Driver/Src/stm32wbxx_hal_rtc_ex.c ****   * @retval HAL status
1024:Drivers/STM32WBxx_HAL_Driver/Src/stm32wbxx_hal_rtc_ex.c ****   */
1025:Drivers/STM32WBxx_HAL_Driver/Src/stm32wbxx_hal_rtc_ex.c **** HAL_StatusTypeDef HAL_RTCEx_PollForTimeStampEvent(RTC_HandleTypeDef *hrtc, uint32_t Timeout)
1026:Drivers/STM32WBxx_HAL_Driver/Src/stm32wbxx_hal_rtc_ex.c **** {
 1609              		.loc 1 1026 1 view -0
ARM GAS  C:\Users\Nathan\AppData\Local\Temp\ccWT97xY.s 			page 49


 1610              		.cfi_startproc
 1611              		@ args = 0, pretend = 0, frame = 0
 1612              		@ frame_needed = 0, uses_anonymous_args = 0
 1613              		.loc 1 1026 1 is_stmt 0 view .LVU568
 1614 0000 70B5     		push	{r4, r5, r6, lr}
 1615              		.cfi_def_cfa_offset 16
 1616              		.cfi_offset 4, -16
 1617              		.cfi_offset 5, -12
 1618              		.cfi_offset 6, -8
 1619              		.cfi_offset 14, -4
 1620 0002 0546     		mov	r5, r0
 1621 0004 0C46     		mov	r4, r1
1027:Drivers/STM32WBxx_HAL_Driver/Src/stm32wbxx_hal_rtc_ex.c ****   uint32_t tickstart = 0U;
 1622              		.loc 1 1027 3 is_stmt 1 view .LVU569
 1623              	.LVL123:
1028:Drivers/STM32WBxx_HAL_Driver/Src/stm32wbxx_hal_rtc_ex.c **** 
1029:Drivers/STM32WBxx_HAL_Driver/Src/stm32wbxx_hal_rtc_ex.c ****   /* Get tick */
1030:Drivers/STM32WBxx_HAL_Driver/Src/stm32wbxx_hal_rtc_ex.c ****   tickstart = HAL_GetTick();
 1624              		.loc 1 1030 3 view .LVU570
 1625              		.loc 1 1030 15 is_stmt 0 view .LVU571
 1626 0006 FFF7FEFF 		bl	HAL_GetTick
 1627              	.LVL124:
 1628              		.loc 1 1030 15 view .LVU572
 1629 000a 0646     		mov	r6, r0
 1630              	.LVL125:
1031:Drivers/STM32WBxx_HAL_Driver/Src/stm32wbxx_hal_rtc_ex.c **** 
1032:Drivers/STM32WBxx_HAL_Driver/Src/stm32wbxx_hal_rtc_ex.c ****   while (__HAL_RTC_TIMESTAMP_GET_FLAG(hrtc, RTC_FLAG_TSF) == 0U)
 1631              		.loc 1 1032 3 is_stmt 1 view .LVU573
 1632              		.loc 1 1032 9 is_stmt 0 view .LVU574
 1633 000c 04E0     		b	.L110
 1634              	.LVL126:
 1635              	.L111:
1033:Drivers/STM32WBxx_HAL_Driver/Src/stm32wbxx_hal_rtc_ex.c ****   {
1034:Drivers/STM32WBxx_HAL_Driver/Src/stm32wbxx_hal_rtc_ex.c ****     if (Timeout != HAL_MAX_DELAY)
1035:Drivers/STM32WBxx_HAL_Driver/Src/stm32wbxx_hal_rtc_ex.c ****     {
1036:Drivers/STM32WBxx_HAL_Driver/Src/stm32wbxx_hal_rtc_ex.c ****       if ((Timeout == 0U) || ((HAL_GetTick() - tickstart) > Timeout))
1037:Drivers/STM32WBxx_HAL_Driver/Src/stm32wbxx_hal_rtc_ex.c ****       {
1038:Drivers/STM32WBxx_HAL_Driver/Src/stm32wbxx_hal_rtc_ex.c ****         hrtc->State = HAL_RTC_STATE_TIMEOUT;
1039:Drivers/STM32WBxx_HAL_Driver/Src/stm32wbxx_hal_rtc_ex.c ****         return HAL_TIMEOUT;
1040:Drivers/STM32WBxx_HAL_Driver/Src/stm32wbxx_hal_rtc_ex.c ****       }
1041:Drivers/STM32WBxx_HAL_Driver/Src/stm32wbxx_hal_rtc_ex.c ****     }
1042:Drivers/STM32WBxx_HAL_Driver/Src/stm32wbxx_hal_rtc_ex.c **** 
1043:Drivers/STM32WBxx_HAL_Driver/Src/stm32wbxx_hal_rtc_ex.c ****     if (__HAL_RTC_TIMESTAMP_GET_FLAG(hrtc, RTC_FLAG_TSOVF) != 0U)
 1636              		.loc 1 1043 5 is_stmt 1 view .LVU575
 1637              		.loc 1 1043 9 is_stmt 0 view .LVU576
 1638 000e 2B68     		ldr	r3, [r5]
 1639 0010 DA68     		ldr	r2, [r3, #12]
 1640              		.loc 1 1043 8 view .LVU577
 1641 0012 12F4805F 		tst	r2, #4096
 1642 0016 11D1     		bne	.L116
 1643              	.L110:
1032:Drivers/STM32WBxx_HAL_Driver/Src/stm32wbxx_hal_rtc_ex.c ****   {
 1644              		.loc 1 1032 59 is_stmt 1 view .LVU578
1032:Drivers/STM32WBxx_HAL_Driver/Src/stm32wbxx_hal_rtc_ex.c ****   {
 1645              		.loc 1 1032 10 is_stmt 0 view .LVU579
 1646 0018 2B68     		ldr	r3, [r5]
 1647 001a DB68     		ldr	r3, [r3, #12]
ARM GAS  C:\Users\Nathan\AppData\Local\Temp\ccWT97xY.s 			page 50


1032:Drivers/STM32WBxx_HAL_Driver/Src/stm32wbxx_hal_rtc_ex.c ****   {
 1648              		.loc 1 1032 59 view .LVU580
 1649 001c 13F4006F 		tst	r3, #2048
 1650 0020 16D1     		bne	.L117
1034:Drivers/STM32WBxx_HAL_Driver/Src/stm32wbxx_hal_rtc_ex.c ****     {
 1651              		.loc 1 1034 5 is_stmt 1 view .LVU581
1034:Drivers/STM32WBxx_HAL_Driver/Src/stm32wbxx_hal_rtc_ex.c ****     {
 1652              		.loc 1 1034 8 is_stmt 0 view .LVU582
 1653 0022 B4F1FF3F 		cmp	r4, #-1
 1654 0026 F2D0     		beq	.L111
1036:Drivers/STM32WBxx_HAL_Driver/Src/stm32wbxx_hal_rtc_ex.c ****       {
 1655              		.loc 1 1036 7 is_stmt 1 view .LVU583
1036:Drivers/STM32WBxx_HAL_Driver/Src/stm32wbxx_hal_rtc_ex.c ****       {
 1656              		.loc 1 1036 10 is_stmt 0 view .LVU584
 1657 0028 24B1     		cbz	r4, .L112
1036:Drivers/STM32WBxx_HAL_Driver/Src/stm32wbxx_hal_rtc_ex.c ****       {
 1658              		.loc 1 1036 32 discriminator 1 view .LVU585
 1659 002a FFF7FEFF 		bl	HAL_GetTick
 1660              	.LVL127:
1036:Drivers/STM32WBxx_HAL_Driver/Src/stm32wbxx_hal_rtc_ex.c ****       {
 1661              		.loc 1 1036 46 discriminator 1 view .LVU586
 1662 002e 831B     		subs	r3, r0, r6
1036:Drivers/STM32WBxx_HAL_Driver/Src/stm32wbxx_hal_rtc_ex.c ****       {
 1663              		.loc 1 1036 27 discriminator 1 view .LVU587
 1664 0030 A342     		cmp	r3, r4
 1665 0032 ECD9     		bls	.L111
 1666              	.L112:
1038:Drivers/STM32WBxx_HAL_Driver/Src/stm32wbxx_hal_rtc_ex.c ****         return HAL_TIMEOUT;
 1667              		.loc 1 1038 9 is_stmt 1 view .LVU588
1038:Drivers/STM32WBxx_HAL_Driver/Src/stm32wbxx_hal_rtc_ex.c ****         return HAL_TIMEOUT;
 1668              		.loc 1 1038 21 is_stmt 0 view .LVU589
 1669 0034 0320     		movs	r0, #3
 1670 0036 85F82100 		strb	r0, [r5, #33]
1039:Drivers/STM32WBxx_HAL_Driver/Src/stm32wbxx_hal_rtc_ex.c ****       }
 1671              		.loc 1 1039 9 is_stmt 1 view .LVU590
 1672              	.L113:
1044:Drivers/STM32WBxx_HAL_Driver/Src/stm32wbxx_hal_rtc_ex.c ****     {
1045:Drivers/STM32WBxx_HAL_Driver/Src/stm32wbxx_hal_rtc_ex.c ****       /* Clear the Timestamp Overrun Flag */
1046:Drivers/STM32WBxx_HAL_Driver/Src/stm32wbxx_hal_rtc_ex.c ****       __HAL_RTC_TIMESTAMP_CLEAR_FLAG(hrtc, RTC_FLAG_TSOVF);
1047:Drivers/STM32WBxx_HAL_Driver/Src/stm32wbxx_hal_rtc_ex.c **** 
1048:Drivers/STM32WBxx_HAL_Driver/Src/stm32wbxx_hal_rtc_ex.c ****       /* Change Timestamp state */
1049:Drivers/STM32WBxx_HAL_Driver/Src/stm32wbxx_hal_rtc_ex.c ****       hrtc->State = HAL_RTC_STATE_ERROR;
1050:Drivers/STM32WBxx_HAL_Driver/Src/stm32wbxx_hal_rtc_ex.c **** 
1051:Drivers/STM32WBxx_HAL_Driver/Src/stm32wbxx_hal_rtc_ex.c ****       return HAL_ERROR;
1052:Drivers/STM32WBxx_HAL_Driver/Src/stm32wbxx_hal_rtc_ex.c ****     }
1053:Drivers/STM32WBxx_HAL_Driver/Src/stm32wbxx_hal_rtc_ex.c ****   }
1054:Drivers/STM32WBxx_HAL_Driver/Src/stm32wbxx_hal_rtc_ex.c **** 
1055:Drivers/STM32WBxx_HAL_Driver/Src/stm32wbxx_hal_rtc_ex.c ****   /* Change RTC state */
1056:Drivers/STM32WBxx_HAL_Driver/Src/stm32wbxx_hal_rtc_ex.c ****   hrtc->State = HAL_RTC_STATE_READY;
1057:Drivers/STM32WBxx_HAL_Driver/Src/stm32wbxx_hal_rtc_ex.c **** 
1058:Drivers/STM32WBxx_HAL_Driver/Src/stm32wbxx_hal_rtc_ex.c ****   return HAL_OK;
1059:Drivers/STM32WBxx_HAL_Driver/Src/stm32wbxx_hal_rtc_ex.c **** }
 1673              		.loc 1 1059 1 is_stmt 0 view .LVU591
 1674 003a 70BD     		pop	{r4, r5, r6, pc}
 1675              	.LVL128:
 1676              	.L116:
1046:Drivers/STM32WBxx_HAL_Driver/Src/stm32wbxx_hal_rtc_ex.c **** 
ARM GAS  C:\Users\Nathan\AppData\Local\Temp\ccWT97xY.s 			page 51


 1677              		.loc 1 1046 7 is_stmt 1 view .LVU592
 1678 003c DA68     		ldr	r2, [r3, #12]
 1679 003e D2B2     		uxtb	r2, r2
 1680 0040 62F48452 		orn	r2, r2, #4224
 1681 0044 DA60     		str	r2, [r3, #12]
1049:Drivers/STM32WBxx_HAL_Driver/Src/stm32wbxx_hal_rtc_ex.c **** 
 1682              		.loc 1 1049 7 view .LVU593
1049:Drivers/STM32WBxx_HAL_Driver/Src/stm32wbxx_hal_rtc_ex.c **** 
 1683              		.loc 1 1049 19 is_stmt 0 view .LVU594
 1684 0046 0423     		movs	r3, #4
 1685 0048 85F82130 		strb	r3, [r5, #33]
1051:Drivers/STM32WBxx_HAL_Driver/Src/stm32wbxx_hal_rtc_ex.c ****     }
 1686              		.loc 1 1051 7 is_stmt 1 view .LVU595
1051:Drivers/STM32WBxx_HAL_Driver/Src/stm32wbxx_hal_rtc_ex.c ****     }
 1687              		.loc 1 1051 14 is_stmt 0 view .LVU596
 1688 004c 0120     		movs	r0, #1
 1689 004e F4E7     		b	.L113
 1690              	.L117:
1056:Drivers/STM32WBxx_HAL_Driver/Src/stm32wbxx_hal_rtc_ex.c **** 
 1691              		.loc 1 1056 3 is_stmt 1 view .LVU597
1056:Drivers/STM32WBxx_HAL_Driver/Src/stm32wbxx_hal_rtc_ex.c **** 
 1692              		.loc 1 1056 15 is_stmt 0 view .LVU598
 1693 0050 0123     		movs	r3, #1
 1694 0052 85F82130 		strb	r3, [r5, #33]
1058:Drivers/STM32WBxx_HAL_Driver/Src/stm32wbxx_hal_rtc_ex.c **** }
 1695              		.loc 1 1058 3 is_stmt 1 view .LVU599
1058:Drivers/STM32WBxx_HAL_Driver/Src/stm32wbxx_hal_rtc_ex.c **** }
 1696              		.loc 1 1058 10 is_stmt 0 view .LVU600
 1697 0056 0020     		movs	r0, #0
 1698 0058 EFE7     		b	.L113
 1699              		.cfi_endproc
 1700              	.LFE1118:
 1702              		.section	.text.HAL_RTCEx_PollForTamper1Event,"ax",%progbits
 1703              		.align	1
 1704              		.global	HAL_RTCEx_PollForTamper1Event
 1705              		.syntax unified
 1706              		.thumb
 1707              		.thumb_func
 1709              	HAL_RTCEx_PollForTamper1Event:
 1710              	.LVL129:
 1711              	.LFB1119:
1060:Drivers/STM32WBxx_HAL_Driver/Src/stm32wbxx_hal_rtc_ex.c **** 
1061:Drivers/STM32WBxx_HAL_Driver/Src/stm32wbxx_hal_rtc_ex.c **** #if defined(RTC_TAMPER1_SUPPORT)
1062:Drivers/STM32WBxx_HAL_Driver/Src/stm32wbxx_hal_rtc_ex.c **** /**
1063:Drivers/STM32WBxx_HAL_Driver/Src/stm32wbxx_hal_rtc_ex.c ****   * @brief  Handles Tamper 1 Polling.
1064:Drivers/STM32WBxx_HAL_Driver/Src/stm32wbxx_hal_rtc_ex.c ****   * @param  hrtc pointer to a RTC_HandleTypeDef structure that contains
1065:Drivers/STM32WBxx_HAL_Driver/Src/stm32wbxx_hal_rtc_ex.c ****   *                the configuration information for RTC.
1066:Drivers/STM32WBxx_HAL_Driver/Src/stm32wbxx_hal_rtc_ex.c ****   * @param  Timeout Timeout duration
1067:Drivers/STM32WBxx_HAL_Driver/Src/stm32wbxx_hal_rtc_ex.c ****   * @retval HAL status
1068:Drivers/STM32WBxx_HAL_Driver/Src/stm32wbxx_hal_rtc_ex.c ****   */
1069:Drivers/STM32WBxx_HAL_Driver/Src/stm32wbxx_hal_rtc_ex.c **** HAL_StatusTypeDef HAL_RTCEx_PollForTamper1Event(RTC_HandleTypeDef *hrtc, uint32_t Timeout)
1070:Drivers/STM32WBxx_HAL_Driver/Src/stm32wbxx_hal_rtc_ex.c **** {
 1712              		.loc 1 1070 1 is_stmt 1 view -0
 1713              		.cfi_startproc
 1714              		@ args = 0, pretend = 0, frame = 0
 1715              		@ frame_needed = 0, uses_anonymous_args = 0
 1716              		.loc 1 1070 1 is_stmt 0 view .LVU602
ARM GAS  C:\Users\Nathan\AppData\Local\Temp\ccWT97xY.s 			page 52


 1717 0000 70B5     		push	{r4, r5, r6, lr}
 1718              		.cfi_def_cfa_offset 16
 1719              		.cfi_offset 4, -16
 1720              		.cfi_offset 5, -12
 1721              		.cfi_offset 6, -8
 1722              		.cfi_offset 14, -4
 1723 0002 0446     		mov	r4, r0
 1724 0004 0D46     		mov	r5, r1
1071:Drivers/STM32WBxx_HAL_Driver/Src/stm32wbxx_hal_rtc_ex.c ****   uint32_t tickstart = 0U;
 1725              		.loc 1 1071 3 is_stmt 1 view .LVU603
 1726              	.LVL130:
1072:Drivers/STM32WBxx_HAL_Driver/Src/stm32wbxx_hal_rtc_ex.c **** 
1073:Drivers/STM32WBxx_HAL_Driver/Src/stm32wbxx_hal_rtc_ex.c ****   /* Get tick */
1074:Drivers/STM32WBxx_HAL_Driver/Src/stm32wbxx_hal_rtc_ex.c ****   tickstart = HAL_GetTick();
 1727              		.loc 1 1074 3 view .LVU604
 1728              		.loc 1 1074 15 is_stmt 0 view .LVU605
 1729 0006 FFF7FEFF 		bl	HAL_GetTick
 1730              	.LVL131:
 1731              		.loc 1 1074 15 view .LVU606
 1732 000a 0646     		mov	r6, r0
 1733              	.LVL132:
1075:Drivers/STM32WBxx_HAL_Driver/Src/stm32wbxx_hal_rtc_ex.c **** 
1076:Drivers/STM32WBxx_HAL_Driver/Src/stm32wbxx_hal_rtc_ex.c ****   /* Get the status of the Interrupt */
1077:Drivers/STM32WBxx_HAL_Driver/Src/stm32wbxx_hal_rtc_ex.c ****   while (__HAL_RTC_TAMPER_GET_FLAG(hrtc, RTC_FLAG_TAMP1F) == 0U)
 1734              		.loc 1 1077 3 is_stmt 1 view .LVU607
 1735              	.L120:
 1736              		.loc 1 1077 59 view .LVU608
 1737              		.loc 1 1077 10 is_stmt 0 view .LVU609
 1738 000c 2368     		ldr	r3, [r4]
 1739 000e DA68     		ldr	r2, [r3, #12]
 1740              		.loc 1 1077 59 view .LVU610
 1741 0010 12F4005F 		tst	r2, #8192
 1742 0014 0CD1     		bne	.L125
1078:Drivers/STM32WBxx_HAL_Driver/Src/stm32wbxx_hal_rtc_ex.c ****   {
1079:Drivers/STM32WBxx_HAL_Driver/Src/stm32wbxx_hal_rtc_ex.c ****     if (Timeout != HAL_MAX_DELAY)
 1743              		.loc 1 1079 5 is_stmt 1 view .LVU611
 1744              		.loc 1 1079 8 is_stmt 0 view .LVU612
 1745 0016 B5F1FF3F 		cmp	r5, #-1
 1746 001a F7D0     		beq	.L120
1080:Drivers/STM32WBxx_HAL_Driver/Src/stm32wbxx_hal_rtc_ex.c ****     {
1081:Drivers/STM32WBxx_HAL_Driver/Src/stm32wbxx_hal_rtc_ex.c ****       if ((Timeout == 0U) || ((HAL_GetTick() - tickstart) > Timeout))
 1747              		.loc 1 1081 7 is_stmt 1 view .LVU613
 1748              		.loc 1 1081 10 is_stmt 0 view .LVU614
 1749 001c 25B1     		cbz	r5, .L121
 1750              		.loc 1 1081 32 discriminator 1 view .LVU615
 1751 001e FFF7FEFF 		bl	HAL_GetTick
 1752              	.LVL133:
 1753              		.loc 1 1081 46 discriminator 1 view .LVU616
 1754 0022 801B     		subs	r0, r0, r6
 1755              		.loc 1 1081 27 discriminator 1 view .LVU617
 1756 0024 A842     		cmp	r0, r5
 1757 0026 F1D9     		bls	.L120
 1758              	.L121:
1082:Drivers/STM32WBxx_HAL_Driver/Src/stm32wbxx_hal_rtc_ex.c ****       {
1083:Drivers/STM32WBxx_HAL_Driver/Src/stm32wbxx_hal_rtc_ex.c ****         hrtc->State = HAL_RTC_STATE_TIMEOUT;
 1759              		.loc 1 1083 9 is_stmt 1 view .LVU618
 1760              		.loc 1 1083 21 is_stmt 0 view .LVU619
ARM GAS  C:\Users\Nathan\AppData\Local\Temp\ccWT97xY.s 			page 53


 1761 0028 0320     		movs	r0, #3
 1762 002a 84F82100 		strb	r0, [r4, #33]
1084:Drivers/STM32WBxx_HAL_Driver/Src/stm32wbxx_hal_rtc_ex.c ****         return HAL_TIMEOUT;
 1763              		.loc 1 1084 9 is_stmt 1 view .LVU620
 1764              		.loc 1 1084 16 is_stmt 0 view .LVU621
 1765 002e 08E0     		b	.L122
 1766              	.L125:
1085:Drivers/STM32WBxx_HAL_Driver/Src/stm32wbxx_hal_rtc_ex.c ****       }
1086:Drivers/STM32WBxx_HAL_Driver/Src/stm32wbxx_hal_rtc_ex.c ****     }
1087:Drivers/STM32WBxx_HAL_Driver/Src/stm32wbxx_hal_rtc_ex.c ****   }
1088:Drivers/STM32WBxx_HAL_Driver/Src/stm32wbxx_hal_rtc_ex.c **** 
1089:Drivers/STM32WBxx_HAL_Driver/Src/stm32wbxx_hal_rtc_ex.c ****   /* Clear the Tamper Flag */
1090:Drivers/STM32WBxx_HAL_Driver/Src/stm32wbxx_hal_rtc_ex.c ****   __HAL_RTC_TAMPER_CLEAR_FLAG(hrtc, RTC_FLAG_TAMP1F);
 1767              		.loc 1 1090 3 is_stmt 1 view .LVU622
 1768 0030 DA68     		ldr	r2, [r3, #12]
 1769 0032 D2B2     		uxtb	r2, r2
 1770 0034 62F40252 		orn	r2, r2, #8320
 1771 0038 DA60     		str	r2, [r3, #12]
1091:Drivers/STM32WBxx_HAL_Driver/Src/stm32wbxx_hal_rtc_ex.c **** 
1092:Drivers/STM32WBxx_HAL_Driver/Src/stm32wbxx_hal_rtc_ex.c ****   /* Change RTC state */
1093:Drivers/STM32WBxx_HAL_Driver/Src/stm32wbxx_hal_rtc_ex.c ****   hrtc->State = HAL_RTC_STATE_READY;
 1772              		.loc 1 1093 3 view .LVU623
 1773              		.loc 1 1093 15 is_stmt 0 view .LVU624
 1774 003a 0123     		movs	r3, #1
 1775 003c 84F82130 		strb	r3, [r4, #33]
1094:Drivers/STM32WBxx_HAL_Driver/Src/stm32wbxx_hal_rtc_ex.c **** 
1095:Drivers/STM32WBxx_HAL_Driver/Src/stm32wbxx_hal_rtc_ex.c ****   return HAL_OK;
 1776              		.loc 1 1095 3 is_stmt 1 view .LVU625
 1777              		.loc 1 1095 10 is_stmt 0 view .LVU626
 1778 0040 0020     		movs	r0, #0
 1779              	.L122:
1096:Drivers/STM32WBxx_HAL_Driver/Src/stm32wbxx_hal_rtc_ex.c **** }
 1780              		.loc 1 1096 1 view .LVU627
 1781 0042 70BD     		pop	{r4, r5, r6, pc}
 1782              		.loc 1 1096 1 view .LVU628
 1783              		.cfi_endproc
 1784              	.LFE1119:
 1786              		.section	.text.HAL_RTCEx_PollForTamper2Event,"ax",%progbits
 1787              		.align	1
 1788              		.global	HAL_RTCEx_PollForTamper2Event
 1789              		.syntax unified
 1790              		.thumb
 1791              		.thumb_func
 1793              	HAL_RTCEx_PollForTamper2Event:
 1794              	.LVL134:
 1795              	.LFB1120:
1097:Drivers/STM32WBxx_HAL_Driver/Src/stm32wbxx_hal_rtc_ex.c **** #endif /* RTC_TAMPER1_SUPPORT */
1098:Drivers/STM32WBxx_HAL_Driver/Src/stm32wbxx_hal_rtc_ex.c **** 
1099:Drivers/STM32WBxx_HAL_Driver/Src/stm32wbxx_hal_rtc_ex.c **** /**
1100:Drivers/STM32WBxx_HAL_Driver/Src/stm32wbxx_hal_rtc_ex.c ****   * @brief  Handles Tamper 2 Polling.
1101:Drivers/STM32WBxx_HAL_Driver/Src/stm32wbxx_hal_rtc_ex.c ****   * @param  hrtc pointer to a RTC_HandleTypeDef structure that contains
1102:Drivers/STM32WBxx_HAL_Driver/Src/stm32wbxx_hal_rtc_ex.c ****   *                the configuration information for RTC.
1103:Drivers/STM32WBxx_HAL_Driver/Src/stm32wbxx_hal_rtc_ex.c ****   * @param  Timeout Timeout duration
1104:Drivers/STM32WBxx_HAL_Driver/Src/stm32wbxx_hal_rtc_ex.c ****   * @retval HAL status
1105:Drivers/STM32WBxx_HAL_Driver/Src/stm32wbxx_hal_rtc_ex.c ****   */
1106:Drivers/STM32WBxx_HAL_Driver/Src/stm32wbxx_hal_rtc_ex.c **** HAL_StatusTypeDef HAL_RTCEx_PollForTamper2Event(RTC_HandleTypeDef *hrtc, uint32_t Timeout)
1107:Drivers/STM32WBxx_HAL_Driver/Src/stm32wbxx_hal_rtc_ex.c **** {
ARM GAS  C:\Users\Nathan\AppData\Local\Temp\ccWT97xY.s 			page 54


 1796              		.loc 1 1107 1 is_stmt 1 view -0
 1797              		.cfi_startproc
 1798              		@ args = 0, pretend = 0, frame = 0
 1799              		@ frame_needed = 0, uses_anonymous_args = 0
 1800              		.loc 1 1107 1 is_stmt 0 view .LVU630
 1801 0000 70B5     		push	{r4, r5, r6, lr}
 1802              		.cfi_def_cfa_offset 16
 1803              		.cfi_offset 4, -16
 1804              		.cfi_offset 5, -12
 1805              		.cfi_offset 6, -8
 1806              		.cfi_offset 14, -4
 1807 0002 0446     		mov	r4, r0
 1808 0004 0D46     		mov	r5, r1
1108:Drivers/STM32WBxx_HAL_Driver/Src/stm32wbxx_hal_rtc_ex.c ****   uint32_t tickstart = 0U;
 1809              		.loc 1 1108 3 is_stmt 1 view .LVU631
 1810              	.LVL135:
1109:Drivers/STM32WBxx_HAL_Driver/Src/stm32wbxx_hal_rtc_ex.c **** 
1110:Drivers/STM32WBxx_HAL_Driver/Src/stm32wbxx_hal_rtc_ex.c ****   /* Get tick */
1111:Drivers/STM32WBxx_HAL_Driver/Src/stm32wbxx_hal_rtc_ex.c ****   tickstart = HAL_GetTick();
 1811              		.loc 1 1111 3 view .LVU632
 1812              		.loc 1 1111 15 is_stmt 0 view .LVU633
 1813 0006 FFF7FEFF 		bl	HAL_GetTick
 1814              	.LVL136:
 1815              		.loc 1 1111 15 view .LVU634
 1816 000a 0646     		mov	r6, r0
 1817              	.LVL137:
1112:Drivers/STM32WBxx_HAL_Driver/Src/stm32wbxx_hal_rtc_ex.c **** 
1113:Drivers/STM32WBxx_HAL_Driver/Src/stm32wbxx_hal_rtc_ex.c ****   /* Get the status of the Interrupt */
1114:Drivers/STM32WBxx_HAL_Driver/Src/stm32wbxx_hal_rtc_ex.c ****   while (__HAL_RTC_TAMPER_GET_FLAG(hrtc, RTC_FLAG_TAMP2F) == 0U)
 1818              		.loc 1 1114 3 is_stmt 1 view .LVU635
 1819              	.L128:
 1820              		.loc 1 1114 59 view .LVU636
 1821              		.loc 1 1114 10 is_stmt 0 view .LVU637
 1822 000c 2368     		ldr	r3, [r4]
 1823 000e DA68     		ldr	r2, [r3, #12]
 1824              		.loc 1 1114 59 view .LVU638
 1825 0010 12F4804F 		tst	r2, #16384
 1826 0014 0CD1     		bne	.L133
1115:Drivers/STM32WBxx_HAL_Driver/Src/stm32wbxx_hal_rtc_ex.c ****   {
1116:Drivers/STM32WBxx_HAL_Driver/Src/stm32wbxx_hal_rtc_ex.c ****     if (Timeout != HAL_MAX_DELAY)
 1827              		.loc 1 1116 5 is_stmt 1 view .LVU639
 1828              		.loc 1 1116 8 is_stmt 0 view .LVU640
 1829 0016 B5F1FF3F 		cmp	r5, #-1
 1830 001a F7D0     		beq	.L128
1117:Drivers/STM32WBxx_HAL_Driver/Src/stm32wbxx_hal_rtc_ex.c ****     {
1118:Drivers/STM32WBxx_HAL_Driver/Src/stm32wbxx_hal_rtc_ex.c ****       if ((Timeout == 0U) || ((HAL_GetTick() - tickstart) > Timeout))
 1831              		.loc 1 1118 7 is_stmt 1 view .LVU641
 1832              		.loc 1 1118 10 is_stmt 0 view .LVU642
 1833 001c 25B1     		cbz	r5, .L129
 1834              		.loc 1 1118 32 discriminator 1 view .LVU643
 1835 001e FFF7FEFF 		bl	HAL_GetTick
 1836              	.LVL138:
 1837              		.loc 1 1118 46 discriminator 1 view .LVU644
 1838 0022 801B     		subs	r0, r0, r6
 1839              		.loc 1 1118 27 discriminator 1 view .LVU645
 1840 0024 A842     		cmp	r0, r5
 1841 0026 F1D9     		bls	.L128
ARM GAS  C:\Users\Nathan\AppData\Local\Temp\ccWT97xY.s 			page 55


 1842              	.L129:
1119:Drivers/STM32WBxx_HAL_Driver/Src/stm32wbxx_hal_rtc_ex.c ****       {
1120:Drivers/STM32WBxx_HAL_Driver/Src/stm32wbxx_hal_rtc_ex.c ****         hrtc->State = HAL_RTC_STATE_TIMEOUT;
 1843              		.loc 1 1120 9 is_stmt 1 view .LVU646
 1844              		.loc 1 1120 21 is_stmt 0 view .LVU647
 1845 0028 0320     		movs	r0, #3
 1846 002a 84F82100 		strb	r0, [r4, #33]
1121:Drivers/STM32WBxx_HAL_Driver/Src/stm32wbxx_hal_rtc_ex.c ****         return HAL_TIMEOUT;
 1847              		.loc 1 1121 9 is_stmt 1 view .LVU648
 1848              		.loc 1 1121 16 is_stmt 0 view .LVU649
 1849 002e 08E0     		b	.L130
 1850              	.L133:
1122:Drivers/STM32WBxx_HAL_Driver/Src/stm32wbxx_hal_rtc_ex.c ****       }
1123:Drivers/STM32WBxx_HAL_Driver/Src/stm32wbxx_hal_rtc_ex.c ****     }
1124:Drivers/STM32WBxx_HAL_Driver/Src/stm32wbxx_hal_rtc_ex.c ****   }
1125:Drivers/STM32WBxx_HAL_Driver/Src/stm32wbxx_hal_rtc_ex.c **** 
1126:Drivers/STM32WBxx_HAL_Driver/Src/stm32wbxx_hal_rtc_ex.c ****   /* Clear the Tamper Flag */
1127:Drivers/STM32WBxx_HAL_Driver/Src/stm32wbxx_hal_rtc_ex.c ****   __HAL_RTC_TAMPER_CLEAR_FLAG(hrtc, RTC_FLAG_TAMP2F);
 1851              		.loc 1 1127 3 is_stmt 1 view .LVU650
 1852 0030 DA68     		ldr	r2, [r3, #12]
 1853 0032 D2B2     		uxtb	r2, r2
 1854 0034 62F48142 		orn	r2, r2, #16512
 1855 0038 DA60     		str	r2, [r3, #12]
1128:Drivers/STM32WBxx_HAL_Driver/Src/stm32wbxx_hal_rtc_ex.c **** 
1129:Drivers/STM32WBxx_HAL_Driver/Src/stm32wbxx_hal_rtc_ex.c ****   /* Change RTC state */
1130:Drivers/STM32WBxx_HAL_Driver/Src/stm32wbxx_hal_rtc_ex.c ****   hrtc->State = HAL_RTC_STATE_READY;
 1856              		.loc 1 1130 3 view .LVU651
 1857              		.loc 1 1130 15 is_stmt 0 view .LVU652
 1858 003a 0123     		movs	r3, #1
 1859 003c 84F82130 		strb	r3, [r4, #33]
1131:Drivers/STM32WBxx_HAL_Driver/Src/stm32wbxx_hal_rtc_ex.c **** 
1132:Drivers/STM32WBxx_HAL_Driver/Src/stm32wbxx_hal_rtc_ex.c ****   return HAL_OK;
 1860              		.loc 1 1132 3 is_stmt 1 view .LVU653
 1861              		.loc 1 1132 10 is_stmt 0 view .LVU654
 1862 0040 0020     		movs	r0, #0
 1863              	.L130:
1133:Drivers/STM32WBxx_HAL_Driver/Src/stm32wbxx_hal_rtc_ex.c **** }
 1864              		.loc 1 1133 1 view .LVU655
 1865 0042 70BD     		pop	{r4, r5, r6, pc}
 1866              		.loc 1 1133 1 view .LVU656
 1867              		.cfi_endproc
 1868              	.LFE1120:
 1870              		.section	.text.HAL_RTCEx_PollForTamper3Event,"ax",%progbits
 1871              		.align	1
 1872              		.global	HAL_RTCEx_PollForTamper3Event
 1873              		.syntax unified
 1874              		.thumb
 1875              		.thumb_func
 1877              	HAL_RTCEx_PollForTamper3Event:
 1878              	.LVL139:
 1879              	.LFB1121:
1134:Drivers/STM32WBxx_HAL_Driver/Src/stm32wbxx_hal_rtc_ex.c **** 
1135:Drivers/STM32WBxx_HAL_Driver/Src/stm32wbxx_hal_rtc_ex.c **** #if defined(RTC_TAMPER3_SUPPORT)
1136:Drivers/STM32WBxx_HAL_Driver/Src/stm32wbxx_hal_rtc_ex.c **** /**
1137:Drivers/STM32WBxx_HAL_Driver/Src/stm32wbxx_hal_rtc_ex.c ****   * @brief  Handles Tamper 3 Polling.
1138:Drivers/STM32WBxx_HAL_Driver/Src/stm32wbxx_hal_rtc_ex.c ****   * @param  hrtc pointer to a RTC_HandleTypeDef structure that contains
1139:Drivers/STM32WBxx_HAL_Driver/Src/stm32wbxx_hal_rtc_ex.c ****   *                the configuration information for RTC.
ARM GAS  C:\Users\Nathan\AppData\Local\Temp\ccWT97xY.s 			page 56


1140:Drivers/STM32WBxx_HAL_Driver/Src/stm32wbxx_hal_rtc_ex.c ****   * @param  Timeout Timeout duration
1141:Drivers/STM32WBxx_HAL_Driver/Src/stm32wbxx_hal_rtc_ex.c ****   * @retval HAL status
1142:Drivers/STM32WBxx_HAL_Driver/Src/stm32wbxx_hal_rtc_ex.c ****   */
1143:Drivers/STM32WBxx_HAL_Driver/Src/stm32wbxx_hal_rtc_ex.c **** HAL_StatusTypeDef HAL_RTCEx_PollForTamper3Event(RTC_HandleTypeDef *hrtc, uint32_t Timeout)
1144:Drivers/STM32WBxx_HAL_Driver/Src/stm32wbxx_hal_rtc_ex.c **** {
 1880              		.loc 1 1144 1 is_stmt 1 view -0
 1881              		.cfi_startproc
 1882              		@ args = 0, pretend = 0, frame = 0
 1883              		@ frame_needed = 0, uses_anonymous_args = 0
 1884              		.loc 1 1144 1 is_stmt 0 view .LVU658
 1885 0000 70B5     		push	{r4, r5, r6, lr}
 1886              		.cfi_def_cfa_offset 16
 1887              		.cfi_offset 4, -16
 1888              		.cfi_offset 5, -12
 1889              		.cfi_offset 6, -8
 1890              		.cfi_offset 14, -4
 1891 0002 0446     		mov	r4, r0
 1892 0004 0D46     		mov	r5, r1
1145:Drivers/STM32WBxx_HAL_Driver/Src/stm32wbxx_hal_rtc_ex.c ****   uint32_t tickstart = HAL_GetTick();
 1893              		.loc 1 1145 3 is_stmt 1 view .LVU659
 1894              		.loc 1 1145 24 is_stmt 0 view .LVU660
 1895 0006 FFF7FEFF 		bl	HAL_GetTick
 1896              	.LVL140:
 1897              		.loc 1 1145 24 view .LVU661
 1898 000a 0646     		mov	r6, r0
 1899              	.LVL141:
1146:Drivers/STM32WBxx_HAL_Driver/Src/stm32wbxx_hal_rtc_ex.c **** 
1147:Drivers/STM32WBxx_HAL_Driver/Src/stm32wbxx_hal_rtc_ex.c ****   /* Get the status of the Interrupt */
1148:Drivers/STM32WBxx_HAL_Driver/Src/stm32wbxx_hal_rtc_ex.c ****   while (__HAL_RTC_TAMPER_GET_FLAG(hrtc, RTC_FLAG_TAMP3F) == 0U)
 1900              		.loc 1 1148 3 is_stmt 1 view .LVU662
 1901              	.L136:
 1902              		.loc 1 1148 59 view .LVU663
 1903              		.loc 1 1148 10 is_stmt 0 view .LVU664
 1904 000c 2368     		ldr	r3, [r4]
 1905 000e DA68     		ldr	r2, [r3, #12]
 1906              		.loc 1 1148 59 view .LVU665
 1907 0010 12F4004F 		tst	r2, #32768
 1908 0014 0CD1     		bne	.L141
1149:Drivers/STM32WBxx_HAL_Driver/Src/stm32wbxx_hal_rtc_ex.c ****   {
1150:Drivers/STM32WBxx_HAL_Driver/Src/stm32wbxx_hal_rtc_ex.c ****     if (Timeout != HAL_MAX_DELAY)
 1909              		.loc 1 1150 5 is_stmt 1 view .LVU666
 1910              		.loc 1 1150 8 is_stmt 0 view .LVU667
 1911 0016 B5F1FF3F 		cmp	r5, #-1
 1912 001a F7D0     		beq	.L136
1151:Drivers/STM32WBxx_HAL_Driver/Src/stm32wbxx_hal_rtc_ex.c ****     {
1152:Drivers/STM32WBxx_HAL_Driver/Src/stm32wbxx_hal_rtc_ex.c ****       if ((Timeout == 0U) || ((HAL_GetTick() - tickstart) > Timeout))
 1913              		.loc 1 1152 7 is_stmt 1 view .LVU668
 1914              		.loc 1 1152 10 is_stmt 0 view .LVU669
 1915 001c 25B1     		cbz	r5, .L137
 1916              		.loc 1 1152 32 discriminator 1 view .LVU670
 1917 001e FFF7FEFF 		bl	HAL_GetTick
 1918              	.LVL142:
 1919              		.loc 1 1152 46 discriminator 1 view .LVU671
 1920 0022 801B     		subs	r0, r0, r6
 1921              		.loc 1 1152 27 discriminator 1 view .LVU672
 1922 0024 A842     		cmp	r0, r5
 1923 0026 F1D9     		bls	.L136
ARM GAS  C:\Users\Nathan\AppData\Local\Temp\ccWT97xY.s 			page 57


 1924              	.L137:
1153:Drivers/STM32WBxx_HAL_Driver/Src/stm32wbxx_hal_rtc_ex.c ****       {
1154:Drivers/STM32WBxx_HAL_Driver/Src/stm32wbxx_hal_rtc_ex.c ****         hrtc->State = HAL_RTC_STATE_TIMEOUT;
 1925              		.loc 1 1154 9 is_stmt 1 view .LVU673
 1926              		.loc 1 1154 21 is_stmt 0 view .LVU674
 1927 0028 0320     		movs	r0, #3
 1928 002a 84F82100 		strb	r0, [r4, #33]
1155:Drivers/STM32WBxx_HAL_Driver/Src/stm32wbxx_hal_rtc_ex.c ****         return HAL_TIMEOUT;
 1929              		.loc 1 1155 9 is_stmt 1 view .LVU675
 1930              		.loc 1 1155 16 is_stmt 0 view .LVU676
 1931 002e 0EE0     		b	.L138
 1932              	.L141:
1156:Drivers/STM32WBxx_HAL_Driver/Src/stm32wbxx_hal_rtc_ex.c ****       }
1157:Drivers/STM32WBxx_HAL_Driver/Src/stm32wbxx_hal_rtc_ex.c ****     }
1158:Drivers/STM32WBxx_HAL_Driver/Src/stm32wbxx_hal_rtc_ex.c ****   }
1159:Drivers/STM32WBxx_HAL_Driver/Src/stm32wbxx_hal_rtc_ex.c **** 
1160:Drivers/STM32WBxx_HAL_Driver/Src/stm32wbxx_hal_rtc_ex.c ****   /* Clear the Tamper Flag */
1161:Drivers/STM32WBxx_HAL_Driver/Src/stm32wbxx_hal_rtc_ex.c ****   __HAL_RTC_TAMPER_CLEAR_FLAG(hrtc, RTC_FLAG_TAMP3F);
 1933              		.loc 1 1161 3 is_stmt 1 view .LVU677
 1934 0030 DA68     		ldr	r2, [r3, #12]
 1935 0032 D2B2     		uxtb	r2, r2
 1936 0034 42F07F42 		orr	r2, r2, #-16777216
 1937 0038 42F47F02 		orr	r2, r2, #16711680
 1938 003c 42F4FE42 		orr	r2, r2, #32512
 1939 0040 42F07F02 		orr	r2, r2, #127
 1940 0044 DA60     		str	r2, [r3, #12]
1162:Drivers/STM32WBxx_HAL_Driver/Src/stm32wbxx_hal_rtc_ex.c **** 
1163:Drivers/STM32WBxx_HAL_Driver/Src/stm32wbxx_hal_rtc_ex.c ****   /* Change RTC state */
1164:Drivers/STM32WBxx_HAL_Driver/Src/stm32wbxx_hal_rtc_ex.c ****   hrtc->State = HAL_RTC_STATE_READY;
 1941              		.loc 1 1164 3 view .LVU678
 1942              		.loc 1 1164 15 is_stmt 0 view .LVU679
 1943 0046 0123     		movs	r3, #1
 1944 0048 84F82130 		strb	r3, [r4, #33]
1165:Drivers/STM32WBxx_HAL_Driver/Src/stm32wbxx_hal_rtc_ex.c **** 
1166:Drivers/STM32WBxx_HAL_Driver/Src/stm32wbxx_hal_rtc_ex.c ****   return HAL_OK;
 1945              		.loc 1 1166 3 is_stmt 1 view .LVU680
 1946              		.loc 1 1166 10 is_stmt 0 view .LVU681
 1947 004c 0020     		movs	r0, #0
 1948              	.L138:
1167:Drivers/STM32WBxx_HAL_Driver/Src/stm32wbxx_hal_rtc_ex.c **** }
 1949              		.loc 1 1167 1 view .LVU682
 1950 004e 70BD     		pop	{r4, r5, r6, pc}
 1951              		.loc 1 1167 1 view .LVU683
 1952              		.cfi_endproc
 1953              	.LFE1121:
 1955              		.section	.text.HAL_RTCEx_SetWakeUpTimer,"ax",%progbits
 1956              		.align	1
 1957              		.global	HAL_RTCEx_SetWakeUpTimer
 1958              		.syntax unified
 1959              		.thumb
 1960              		.thumb_func
 1962              	HAL_RTCEx_SetWakeUpTimer:
 1963              	.LVL143:
 1964              	.LFB1122:
1168:Drivers/STM32WBxx_HAL_Driver/Src/stm32wbxx_hal_rtc_ex.c **** #endif /* RTC_TAMPER3_SUPPORT */
1169:Drivers/STM32WBxx_HAL_Driver/Src/stm32wbxx_hal_rtc_ex.c **** 
1170:Drivers/STM32WBxx_HAL_Driver/Src/stm32wbxx_hal_rtc_ex.c **** /**
ARM GAS  C:\Users\Nathan\AppData\Local\Temp\ccWT97xY.s 			page 58


1171:Drivers/STM32WBxx_HAL_Driver/Src/stm32wbxx_hal_rtc_ex.c ****   * @}
1172:Drivers/STM32WBxx_HAL_Driver/Src/stm32wbxx_hal_rtc_ex.c ****   */
1173:Drivers/STM32WBxx_HAL_Driver/Src/stm32wbxx_hal_rtc_ex.c **** 
1174:Drivers/STM32WBxx_HAL_Driver/Src/stm32wbxx_hal_rtc_ex.c **** /** @defgroup RTCEx_Exported_Functions_Group2 RTC Wakeup functions
1175:Drivers/STM32WBxx_HAL_Driver/Src/stm32wbxx_hal_rtc_ex.c ****   * @brief    RTC Wakeup functions
1176:Drivers/STM32WBxx_HAL_Driver/Src/stm32wbxx_hal_rtc_ex.c ****   *
1177:Drivers/STM32WBxx_HAL_Driver/Src/stm32wbxx_hal_rtc_ex.c **** @verbatim
1178:Drivers/STM32WBxx_HAL_Driver/Src/stm32wbxx_hal_rtc_ex.c ****  ===============================================================================
1179:Drivers/STM32WBxx_HAL_Driver/Src/stm32wbxx_hal_rtc_ex.c ****                         ##### RTC Wakeup functions #####
1180:Drivers/STM32WBxx_HAL_Driver/Src/stm32wbxx_hal_rtc_ex.c ****  ===============================================================================
1181:Drivers/STM32WBxx_HAL_Driver/Src/stm32wbxx_hal_rtc_ex.c **** 
1182:Drivers/STM32WBxx_HAL_Driver/Src/stm32wbxx_hal_rtc_ex.c ****  [..] This section provides functions allowing to configure Wakeup feature
1183:Drivers/STM32WBxx_HAL_Driver/Src/stm32wbxx_hal_rtc_ex.c **** 
1184:Drivers/STM32WBxx_HAL_Driver/Src/stm32wbxx_hal_rtc_ex.c **** @endverbatim
1185:Drivers/STM32WBxx_HAL_Driver/Src/stm32wbxx_hal_rtc_ex.c ****   * @{
1186:Drivers/STM32WBxx_HAL_Driver/Src/stm32wbxx_hal_rtc_ex.c ****   */
1187:Drivers/STM32WBxx_HAL_Driver/Src/stm32wbxx_hal_rtc_ex.c **** 
1188:Drivers/STM32WBxx_HAL_Driver/Src/stm32wbxx_hal_rtc_ex.c **** /**
1189:Drivers/STM32WBxx_HAL_Driver/Src/stm32wbxx_hal_rtc_ex.c ****   * @brief  Sets wakeup timer.
1190:Drivers/STM32WBxx_HAL_Driver/Src/stm32wbxx_hal_rtc_ex.c ****   * @param  hrtc pointer to a RTC_HandleTypeDef structure that contains
1191:Drivers/STM32WBxx_HAL_Driver/Src/stm32wbxx_hal_rtc_ex.c ****   *                the configuration information for RTC.
1192:Drivers/STM32WBxx_HAL_Driver/Src/stm32wbxx_hal_rtc_ex.c ****   * @param  WakeUpCounter Wakeup counter
1193:Drivers/STM32WBxx_HAL_Driver/Src/stm32wbxx_hal_rtc_ex.c ****   * @param  WakeUpClock Wakeup clock
1194:Drivers/STM32WBxx_HAL_Driver/Src/stm32wbxx_hal_rtc_ex.c ****   * @retval HAL status
1195:Drivers/STM32WBxx_HAL_Driver/Src/stm32wbxx_hal_rtc_ex.c ****   */
1196:Drivers/STM32WBxx_HAL_Driver/Src/stm32wbxx_hal_rtc_ex.c **** HAL_StatusTypeDef HAL_RTCEx_SetWakeUpTimer(RTC_HandleTypeDef *hrtc, uint32_t WakeUpCounter, uint32_
1197:Drivers/STM32WBxx_HAL_Driver/Src/stm32wbxx_hal_rtc_ex.c **** {
 1965              		.loc 1 1197 1 is_stmt 1 view -0
 1966              		.cfi_startproc
 1967              		@ args = 0, pretend = 0, frame = 0
 1968              		@ frame_needed = 0, uses_anonymous_args = 0
 1969              		.loc 1 1197 1 is_stmt 0 view .LVU685
 1970 0000 F8B5     		push	{r3, r4, r5, r6, r7, lr}
 1971              		.cfi_def_cfa_offset 24
 1972              		.cfi_offset 3, -24
 1973              		.cfi_offset 4, -20
 1974              		.cfi_offset 5, -16
 1975              		.cfi_offset 6, -12
 1976              		.cfi_offset 7, -8
 1977              		.cfi_offset 14, -4
1198:Drivers/STM32WBxx_HAL_Driver/Src/stm32wbxx_hal_rtc_ex.c ****   uint32_t tickstart = 0U;
 1978              		.loc 1 1198 3 is_stmt 1 view .LVU686
 1979              	.LVL144:
1199:Drivers/STM32WBxx_HAL_Driver/Src/stm32wbxx_hal_rtc_ex.c **** 
1200:Drivers/STM32WBxx_HAL_Driver/Src/stm32wbxx_hal_rtc_ex.c ****   /* Check the parameters */
1201:Drivers/STM32WBxx_HAL_Driver/Src/stm32wbxx_hal_rtc_ex.c ****   assert_param(IS_RTC_WAKEUP_CLOCK(WakeUpClock));
 1980              		.loc 1 1201 3 view .LVU687
1202:Drivers/STM32WBxx_HAL_Driver/Src/stm32wbxx_hal_rtc_ex.c ****   assert_param(IS_RTC_WAKEUP_COUNTER(WakeUpCounter));
 1981              		.loc 1 1202 3 view .LVU688
1203:Drivers/STM32WBxx_HAL_Driver/Src/stm32wbxx_hal_rtc_ex.c **** 
1204:Drivers/STM32WBxx_HAL_Driver/Src/stm32wbxx_hal_rtc_ex.c ****   /* Process Locked */
1205:Drivers/STM32WBxx_HAL_Driver/Src/stm32wbxx_hal_rtc_ex.c ****   __HAL_LOCK(hrtc);
 1982              		.loc 1 1205 3 view .LVU689
 1983              		.loc 1 1205 3 view .LVU690
 1984 0002 90F82030 		ldrb	r3, [r0, #32]	@ zero_extendqisi2
 1985 0006 012B     		cmp	r3, #1
 1986 0008 67D0     		beq	.L149
ARM GAS  C:\Users\Nathan\AppData\Local\Temp\ccWT97xY.s 			page 59


 1987 000a 0446     		mov	r4, r0
 1988 000c 0D46     		mov	r5, r1
 1989 000e 1646     		mov	r6, r2
 1990              		.loc 1 1205 3 discriminator 2 view .LVU691
 1991 0010 0123     		movs	r3, #1
 1992 0012 80F82030 		strb	r3, [r0, #32]
 1993              		.loc 1 1205 3 discriminator 2 view .LVU692
1206:Drivers/STM32WBxx_HAL_Driver/Src/stm32wbxx_hal_rtc_ex.c **** 
1207:Drivers/STM32WBxx_HAL_Driver/Src/stm32wbxx_hal_rtc_ex.c ****   hrtc->State = HAL_RTC_STATE_BUSY;
 1994              		.loc 1 1207 3 view .LVU693
 1995              		.loc 1 1207 15 is_stmt 0 view .LVU694
 1996 0016 0223     		movs	r3, #2
 1997 0018 80F82130 		strb	r3, [r0, #33]
1208:Drivers/STM32WBxx_HAL_Driver/Src/stm32wbxx_hal_rtc_ex.c **** 
1209:Drivers/STM32WBxx_HAL_Driver/Src/stm32wbxx_hal_rtc_ex.c ****   /* Disable the write protection for RTC registers */
1210:Drivers/STM32WBxx_HAL_Driver/Src/stm32wbxx_hal_rtc_ex.c ****   __HAL_RTC_WRITEPROTECTION_DISABLE(hrtc);
 1998              		.loc 1 1210 3 is_stmt 1 view .LVU695
 1999              		.loc 1 1210 3 view .LVU696
 2000 001c 0368     		ldr	r3, [r0]
 2001 001e CA22     		movs	r2, #202
 2002              	.LVL145:
 2003              		.loc 1 1210 3 is_stmt 0 view .LVU697
 2004 0020 5A62     		str	r2, [r3, #36]
 2005              		.loc 1 1210 3 is_stmt 1 view .LVU698
 2006 0022 0368     		ldr	r3, [r0]
 2007 0024 5322     		movs	r2, #83
 2008 0026 5A62     		str	r2, [r3, #36]
 2009              		.loc 1 1210 3 view .LVU699
1211:Drivers/STM32WBxx_HAL_Driver/Src/stm32wbxx_hal_rtc_ex.c **** 
1212:Drivers/STM32WBxx_HAL_Driver/Src/stm32wbxx_hal_rtc_ex.c ****   /* Check RTC WUTWF flag is reset only when wakeup timer enabled*/
1213:Drivers/STM32WBxx_HAL_Driver/Src/stm32wbxx_hal_rtc_ex.c ****   if ((hrtc->Instance->CR & RTC_CR_WUTE) != 0U)
 2010              		.loc 1 1213 3 view .LVU700
 2011              		.loc 1 1213 12 is_stmt 0 view .LVU701
 2012 0028 0368     		ldr	r3, [r0]
 2013              		.loc 1 1213 22 view .LVU702
 2014 002a 9B68     		ldr	r3, [r3, #8]
 2015              		.loc 1 1213 6 view .LVU703
 2016 002c 13F4806F 		tst	r3, #1024
 2017 0030 17D0     		beq	.L144
1214:Drivers/STM32WBxx_HAL_Driver/Src/stm32wbxx_hal_rtc_ex.c ****   {
1215:Drivers/STM32WBxx_HAL_Driver/Src/stm32wbxx_hal_rtc_ex.c ****     tickstart = HAL_GetTick();
 2018              		.loc 1 1215 5 is_stmt 1 view .LVU704
 2019              		.loc 1 1215 17 is_stmt 0 view .LVU705
 2020 0032 FFF7FEFF 		bl	HAL_GetTick
 2021              	.LVL146:
 2022              		.loc 1 1215 17 view .LVU706
 2023 0036 0746     		mov	r7, r0
 2024              	.LVL147:
1216:Drivers/STM32WBxx_HAL_Driver/Src/stm32wbxx_hal_rtc_ex.c **** 
1217:Drivers/STM32WBxx_HAL_Driver/Src/stm32wbxx_hal_rtc_ex.c ****     /* Wait till RTC WUTWF flag is reset and if timeout is reached exit */
1218:Drivers/STM32WBxx_HAL_Driver/Src/stm32wbxx_hal_rtc_ex.c ****     while (__HAL_RTC_WAKEUPTIMER_GET_FLAG(hrtc, RTC_FLAG_WUTWF) != 0U)
 2025              		.loc 1 1218 5 is_stmt 1 view .LVU707
 2026              	.L145:
 2027              		.loc 1 1218 65 view .LVU708
 2028              		.loc 1 1218 12 is_stmt 0 view .LVU709
 2029 0038 2368     		ldr	r3, [r4]
 2030 003a DB68     		ldr	r3, [r3, #12]
ARM GAS  C:\Users\Nathan\AppData\Local\Temp\ccWT97xY.s 			page 60


 2031              		.loc 1 1218 65 view .LVU710
 2032 003c 13F0040F 		tst	r3, #4
 2033 0040 0FD0     		beq	.L144
1219:Drivers/STM32WBxx_HAL_Driver/Src/stm32wbxx_hal_rtc_ex.c ****     {
1220:Drivers/STM32WBxx_HAL_Driver/Src/stm32wbxx_hal_rtc_ex.c ****       if ((HAL_GetTick() - tickstart) > RTC_TIMEOUT_VALUE)
 2034              		.loc 1 1220 7 is_stmt 1 view .LVU711
 2035              		.loc 1 1220 12 is_stmt 0 view .LVU712
 2036 0042 FFF7FEFF 		bl	HAL_GetTick
 2037              	.LVL148:
 2038              		.loc 1 1220 26 discriminator 1 view .LVU713
 2039 0046 C01B     		subs	r0, r0, r7
 2040              		.loc 1 1220 10 discriminator 1 view .LVU714
 2041 0048 B0F57A7F 		cmp	r0, #1000
 2042 004c F4D9     		bls	.L145
1221:Drivers/STM32WBxx_HAL_Driver/Src/stm32wbxx_hal_rtc_ex.c ****       {
1222:Drivers/STM32WBxx_HAL_Driver/Src/stm32wbxx_hal_rtc_ex.c ****         /* Enable the write protection for RTC registers */
1223:Drivers/STM32WBxx_HAL_Driver/Src/stm32wbxx_hal_rtc_ex.c ****         __HAL_RTC_WRITEPROTECTION_ENABLE(hrtc);
 2043              		.loc 1 1223 9 is_stmt 1 view .LVU715
 2044              		.loc 1 1223 9 view .LVU716
 2045 004e 2368     		ldr	r3, [r4]
 2046 0050 FF22     		movs	r2, #255
 2047 0052 5A62     		str	r2, [r3, #36]
 2048              		.loc 1 1223 9 view .LVU717
1224:Drivers/STM32WBxx_HAL_Driver/Src/stm32wbxx_hal_rtc_ex.c **** 
1225:Drivers/STM32WBxx_HAL_Driver/Src/stm32wbxx_hal_rtc_ex.c ****         hrtc->State = HAL_RTC_STATE_TIMEOUT;
 2049              		.loc 1 1225 9 view .LVU718
 2050              		.loc 1 1225 21 is_stmt 0 view .LVU719
 2051 0054 0320     		movs	r0, #3
 2052 0056 84F82100 		strb	r0, [r4, #33]
1226:Drivers/STM32WBxx_HAL_Driver/Src/stm32wbxx_hal_rtc_ex.c **** 
1227:Drivers/STM32WBxx_HAL_Driver/Src/stm32wbxx_hal_rtc_ex.c ****         /* Process Unlocked */
1228:Drivers/STM32WBxx_HAL_Driver/Src/stm32wbxx_hal_rtc_ex.c ****         __HAL_UNLOCK(hrtc);
 2053              		.loc 1 1228 9 is_stmt 1 view .LVU720
 2054              		.loc 1 1228 9 view .LVU721
 2055 005a 0023     		movs	r3, #0
 2056 005c 84F82030 		strb	r3, [r4, #32]
 2057              		.loc 1 1228 9 view .LVU722
1229:Drivers/STM32WBxx_HAL_Driver/Src/stm32wbxx_hal_rtc_ex.c **** 
1230:Drivers/STM32WBxx_HAL_Driver/Src/stm32wbxx_hal_rtc_ex.c ****         return HAL_TIMEOUT;
 2058              		.loc 1 1230 9 view .LVU723
 2059              		.loc 1 1230 16 is_stmt 0 view .LVU724
 2060 0060 3AE0     		b	.L143
 2061              	.LVL149:
 2062              	.L144:
1231:Drivers/STM32WBxx_HAL_Driver/Src/stm32wbxx_hal_rtc_ex.c ****       }
1232:Drivers/STM32WBxx_HAL_Driver/Src/stm32wbxx_hal_rtc_ex.c ****     }
1233:Drivers/STM32WBxx_HAL_Driver/Src/stm32wbxx_hal_rtc_ex.c ****   }
1234:Drivers/STM32WBxx_HAL_Driver/Src/stm32wbxx_hal_rtc_ex.c **** 
1235:Drivers/STM32WBxx_HAL_Driver/Src/stm32wbxx_hal_rtc_ex.c ****   /* Disable the Wakeup timer */
1236:Drivers/STM32WBxx_HAL_Driver/Src/stm32wbxx_hal_rtc_ex.c ****   __HAL_RTC_WAKEUPTIMER_DISABLE(hrtc);
 2063              		.loc 1 1236 3 is_stmt 1 view .LVU725
 2064 0062 2268     		ldr	r2, [r4]
 2065 0064 9368     		ldr	r3, [r2, #8]
 2066 0066 23F48063 		bic	r3, r3, #1024
 2067 006a 9360     		str	r3, [r2, #8]
1237:Drivers/STM32WBxx_HAL_Driver/Src/stm32wbxx_hal_rtc_ex.c **** 
1238:Drivers/STM32WBxx_HAL_Driver/Src/stm32wbxx_hal_rtc_ex.c ****   /* Clear the Wakeup flag */
ARM GAS  C:\Users\Nathan\AppData\Local\Temp\ccWT97xY.s 			page 61


1239:Drivers/STM32WBxx_HAL_Driver/Src/stm32wbxx_hal_rtc_ex.c ****   __HAL_RTC_WAKEUPTIMER_CLEAR_FLAG(hrtc, RTC_FLAG_WUTF);
 2068              		.loc 1 1239 3 view .LVU726
 2069 006c 2268     		ldr	r2, [r4]
 2070 006e D368     		ldr	r3, [r2, #12]
 2071 0070 DBB2     		uxtb	r3, r3
 2072 0072 63F49063 		orn	r3, r3, #1152
 2073 0076 D360     		str	r3, [r2, #12]
1240:Drivers/STM32WBxx_HAL_Driver/Src/stm32wbxx_hal_rtc_ex.c **** 
1241:Drivers/STM32WBxx_HAL_Driver/Src/stm32wbxx_hal_rtc_ex.c ****   /* Get tick */
1242:Drivers/STM32WBxx_HAL_Driver/Src/stm32wbxx_hal_rtc_ex.c ****   tickstart = HAL_GetTick();
 2074              		.loc 1 1242 3 view .LVU727
 2075              		.loc 1 1242 15 is_stmt 0 view .LVU728
 2076 0078 FFF7FEFF 		bl	HAL_GetTick
 2077              	.LVL150:
 2078 007c 0746     		mov	r7, r0
 2079              	.LVL151:
1243:Drivers/STM32WBxx_HAL_Driver/Src/stm32wbxx_hal_rtc_ex.c **** 
1244:Drivers/STM32WBxx_HAL_Driver/Src/stm32wbxx_hal_rtc_ex.c ****   /* Wait till RTC WUTWF flag is set and if timeout is reached exit */
1245:Drivers/STM32WBxx_HAL_Driver/Src/stm32wbxx_hal_rtc_ex.c ****   while (__HAL_RTC_WAKEUPTIMER_GET_FLAG(hrtc, RTC_FLAG_WUTWF) == 0U)
 2080              		.loc 1 1245 3 is_stmt 1 view .LVU729
 2081              	.L147:
 2082              		.loc 1 1245 63 view .LVU730
 2083              		.loc 1 1245 10 is_stmt 0 view .LVU731
 2084 007e 2368     		ldr	r3, [r4]
 2085 0080 DA68     		ldr	r2, [r3, #12]
 2086              		.loc 1 1245 63 view .LVU732
 2087 0082 12F0040F 		tst	r2, #4
 2088 0086 0FD1     		bne	.L151
1246:Drivers/STM32WBxx_HAL_Driver/Src/stm32wbxx_hal_rtc_ex.c ****   {
1247:Drivers/STM32WBxx_HAL_Driver/Src/stm32wbxx_hal_rtc_ex.c ****     if ((HAL_GetTick() - tickstart) > RTC_TIMEOUT_VALUE)
 2089              		.loc 1 1247 5 is_stmt 1 view .LVU733
 2090              		.loc 1 1247 10 is_stmt 0 view .LVU734
 2091 0088 FFF7FEFF 		bl	HAL_GetTick
 2092              	.LVL152:
 2093              		.loc 1 1247 24 discriminator 1 view .LVU735
 2094 008c C01B     		subs	r0, r0, r7
 2095              		.loc 1 1247 8 discriminator 1 view .LVU736
 2096 008e B0F57A7F 		cmp	r0, #1000
 2097 0092 F4D9     		bls	.L147
1248:Drivers/STM32WBxx_HAL_Driver/Src/stm32wbxx_hal_rtc_ex.c ****     {
1249:Drivers/STM32WBxx_HAL_Driver/Src/stm32wbxx_hal_rtc_ex.c ****       /* Enable the write protection for RTC registers */
1250:Drivers/STM32WBxx_HAL_Driver/Src/stm32wbxx_hal_rtc_ex.c ****       __HAL_RTC_WRITEPROTECTION_ENABLE(hrtc);
 2098              		.loc 1 1250 7 is_stmt 1 view .LVU737
 2099              		.loc 1 1250 7 view .LVU738
 2100 0094 2368     		ldr	r3, [r4]
 2101 0096 FF22     		movs	r2, #255
 2102 0098 5A62     		str	r2, [r3, #36]
 2103              		.loc 1 1250 7 view .LVU739
1251:Drivers/STM32WBxx_HAL_Driver/Src/stm32wbxx_hal_rtc_ex.c **** 
1252:Drivers/STM32WBxx_HAL_Driver/Src/stm32wbxx_hal_rtc_ex.c ****       hrtc->State = HAL_RTC_STATE_TIMEOUT;
 2104              		.loc 1 1252 7 view .LVU740
 2105              		.loc 1 1252 19 is_stmt 0 view .LVU741
 2106 009a 0320     		movs	r0, #3
 2107 009c 84F82100 		strb	r0, [r4, #33]
1253:Drivers/STM32WBxx_HAL_Driver/Src/stm32wbxx_hal_rtc_ex.c **** 
1254:Drivers/STM32WBxx_HAL_Driver/Src/stm32wbxx_hal_rtc_ex.c ****       /* Process Unlocked */
1255:Drivers/STM32WBxx_HAL_Driver/Src/stm32wbxx_hal_rtc_ex.c ****       __HAL_UNLOCK(hrtc);
ARM GAS  C:\Users\Nathan\AppData\Local\Temp\ccWT97xY.s 			page 62


 2108              		.loc 1 1255 7 is_stmt 1 view .LVU742
 2109              		.loc 1 1255 7 view .LVU743
 2110 00a0 0023     		movs	r3, #0
 2111 00a2 84F82030 		strb	r3, [r4, #32]
 2112              		.loc 1 1255 7 view .LVU744
1256:Drivers/STM32WBxx_HAL_Driver/Src/stm32wbxx_hal_rtc_ex.c **** 
1257:Drivers/STM32WBxx_HAL_Driver/Src/stm32wbxx_hal_rtc_ex.c ****       return HAL_TIMEOUT;
 2113              		.loc 1 1257 7 view .LVU745
 2114              		.loc 1 1257 14 is_stmt 0 view .LVU746
 2115 00a6 17E0     		b	.L143
 2116              	.L151:
1258:Drivers/STM32WBxx_HAL_Driver/Src/stm32wbxx_hal_rtc_ex.c ****     }
1259:Drivers/STM32WBxx_HAL_Driver/Src/stm32wbxx_hal_rtc_ex.c ****   }
1260:Drivers/STM32WBxx_HAL_Driver/Src/stm32wbxx_hal_rtc_ex.c **** 
1261:Drivers/STM32WBxx_HAL_Driver/Src/stm32wbxx_hal_rtc_ex.c ****   /* Clear the Wakeup Timer clock source bits in CR register */
1262:Drivers/STM32WBxx_HAL_Driver/Src/stm32wbxx_hal_rtc_ex.c ****   hrtc->Instance->CR &= (uint32_t)~RTC_CR_WUCKSEL;
 2117              		.loc 1 1262 3 is_stmt 1 view .LVU747
 2118              		.loc 1 1262 17 is_stmt 0 view .LVU748
 2119 00a8 9A68     		ldr	r2, [r3, #8]
 2120              		.loc 1 1262 22 view .LVU749
 2121 00aa 22F00702 		bic	r2, r2, #7
 2122 00ae 9A60     		str	r2, [r3, #8]
1263:Drivers/STM32WBxx_HAL_Driver/Src/stm32wbxx_hal_rtc_ex.c **** 
1264:Drivers/STM32WBxx_HAL_Driver/Src/stm32wbxx_hal_rtc_ex.c ****   /* Configure the clock source */
1265:Drivers/STM32WBxx_HAL_Driver/Src/stm32wbxx_hal_rtc_ex.c ****   hrtc->Instance->CR |= (uint32_t)WakeUpClock;
 2123              		.loc 1 1265 3 is_stmt 1 view .LVU750
 2124              		.loc 1 1265 7 is_stmt 0 view .LVU751
 2125 00b0 2268     		ldr	r2, [r4]
 2126              		.loc 1 1265 17 view .LVU752
 2127 00b2 9368     		ldr	r3, [r2, #8]
 2128              		.loc 1 1265 22 view .LVU753
 2129 00b4 3343     		orrs	r3, r3, r6
 2130 00b6 9360     		str	r3, [r2, #8]
1266:Drivers/STM32WBxx_HAL_Driver/Src/stm32wbxx_hal_rtc_ex.c **** 
1267:Drivers/STM32WBxx_HAL_Driver/Src/stm32wbxx_hal_rtc_ex.c ****   /* Configure the Wakeup Timer counter */
1268:Drivers/STM32WBxx_HAL_Driver/Src/stm32wbxx_hal_rtc_ex.c ****   hrtc->Instance->WUTR = (uint32_t)WakeUpCounter;
 2131              		.loc 1 1268 3 is_stmt 1 view .LVU754
 2132              		.loc 1 1268 7 is_stmt 0 view .LVU755
 2133 00b8 2368     		ldr	r3, [r4]
 2134              		.loc 1 1268 24 view .LVU756
 2135 00ba 5D61     		str	r5, [r3, #20]
1269:Drivers/STM32WBxx_HAL_Driver/Src/stm32wbxx_hal_rtc_ex.c **** 
1270:Drivers/STM32WBxx_HAL_Driver/Src/stm32wbxx_hal_rtc_ex.c ****   /* Enable the Wakeup Timer */
1271:Drivers/STM32WBxx_HAL_Driver/Src/stm32wbxx_hal_rtc_ex.c ****   __HAL_RTC_WAKEUPTIMER_ENABLE(hrtc);
 2136              		.loc 1 1271 3 is_stmt 1 view .LVU757
 2137 00bc 2268     		ldr	r2, [r4]
 2138 00be 9368     		ldr	r3, [r2, #8]
 2139 00c0 43F48063 		orr	r3, r3, #1024
 2140 00c4 9360     		str	r3, [r2, #8]
1272:Drivers/STM32WBxx_HAL_Driver/Src/stm32wbxx_hal_rtc_ex.c **** 
1273:Drivers/STM32WBxx_HAL_Driver/Src/stm32wbxx_hal_rtc_ex.c ****   /* Enable the write protection for RTC registers */
1274:Drivers/STM32WBxx_HAL_Driver/Src/stm32wbxx_hal_rtc_ex.c ****   __HAL_RTC_WRITEPROTECTION_ENABLE(hrtc);
 2141              		.loc 1 1274 3 view .LVU758
 2142              		.loc 1 1274 3 view .LVU759
 2143 00c6 2368     		ldr	r3, [r4]
 2144 00c8 FF22     		movs	r2, #255
 2145 00ca 5A62     		str	r2, [r3, #36]
ARM GAS  C:\Users\Nathan\AppData\Local\Temp\ccWT97xY.s 			page 63


 2146              		.loc 1 1274 3 view .LVU760
1275:Drivers/STM32WBxx_HAL_Driver/Src/stm32wbxx_hal_rtc_ex.c **** 
1276:Drivers/STM32WBxx_HAL_Driver/Src/stm32wbxx_hal_rtc_ex.c ****   hrtc->State = HAL_RTC_STATE_READY;
 2147              		.loc 1 1276 3 view .LVU761
 2148              		.loc 1 1276 15 is_stmt 0 view .LVU762
 2149 00cc 0123     		movs	r3, #1
 2150 00ce 84F82130 		strb	r3, [r4, #33]
1277:Drivers/STM32WBxx_HAL_Driver/Src/stm32wbxx_hal_rtc_ex.c **** 
1278:Drivers/STM32WBxx_HAL_Driver/Src/stm32wbxx_hal_rtc_ex.c ****   /* Process Unlocked */
1279:Drivers/STM32WBxx_HAL_Driver/Src/stm32wbxx_hal_rtc_ex.c ****   __HAL_UNLOCK(hrtc);
 2151              		.loc 1 1279 3 is_stmt 1 view .LVU763
 2152              		.loc 1 1279 3 view .LVU764
 2153 00d2 0020     		movs	r0, #0
 2154 00d4 84F82000 		strb	r0, [r4, #32]
 2155              		.loc 1 1279 3 view .LVU765
1280:Drivers/STM32WBxx_HAL_Driver/Src/stm32wbxx_hal_rtc_ex.c **** 
1281:Drivers/STM32WBxx_HAL_Driver/Src/stm32wbxx_hal_rtc_ex.c ****   return HAL_OK;
 2156              		.loc 1 1281 3 view .LVU766
 2157              	.LVL153:
 2158              	.L143:
1282:Drivers/STM32WBxx_HAL_Driver/Src/stm32wbxx_hal_rtc_ex.c **** }
 2159              		.loc 1 1282 1 is_stmt 0 view .LVU767
 2160 00d8 F8BD     		pop	{r3, r4, r5, r6, r7, pc}
 2161              	.LVL154:
 2162              	.L149:
1205:Drivers/STM32WBxx_HAL_Driver/Src/stm32wbxx_hal_rtc_ex.c **** 
 2163              		.loc 1 1205 3 discriminator 1 view .LVU768
 2164 00da 0220     		movs	r0, #2
 2165              	.LVL155:
1205:Drivers/STM32WBxx_HAL_Driver/Src/stm32wbxx_hal_rtc_ex.c **** 
 2166              		.loc 1 1205 3 discriminator 1 view .LVU769
 2167 00dc FCE7     		b	.L143
 2168              		.cfi_endproc
 2169              	.LFE1122:
 2171              		.section	.text.HAL_RTCEx_SetWakeUpTimer_IT,"ax",%progbits
 2172              		.align	1
 2173              		.global	HAL_RTCEx_SetWakeUpTimer_IT
 2174              		.syntax unified
 2175              		.thumb
 2176              		.thumb_func
 2178              	HAL_RTCEx_SetWakeUpTimer_IT:
 2179              	.LVL156:
 2180              	.LFB1123:
1283:Drivers/STM32WBxx_HAL_Driver/Src/stm32wbxx_hal_rtc_ex.c **** 
1284:Drivers/STM32WBxx_HAL_Driver/Src/stm32wbxx_hal_rtc_ex.c **** /**
1285:Drivers/STM32WBxx_HAL_Driver/Src/stm32wbxx_hal_rtc_ex.c ****   * @brief  Sets wakeup timer with interrupt.
1286:Drivers/STM32WBxx_HAL_Driver/Src/stm32wbxx_hal_rtc_ex.c ****   * @param  hrtc pointer to a RTC_HandleTypeDef structure that contains
1287:Drivers/STM32WBxx_HAL_Driver/Src/stm32wbxx_hal_rtc_ex.c ****   *                the configuration information for RTC.
1288:Drivers/STM32WBxx_HAL_Driver/Src/stm32wbxx_hal_rtc_ex.c ****   * @param  WakeUpCounter Wakeup counter
1289:Drivers/STM32WBxx_HAL_Driver/Src/stm32wbxx_hal_rtc_ex.c ****   * @param  WakeUpClock Wakeup clock
1290:Drivers/STM32WBxx_HAL_Driver/Src/stm32wbxx_hal_rtc_ex.c ****   * @retval HAL status
1291:Drivers/STM32WBxx_HAL_Driver/Src/stm32wbxx_hal_rtc_ex.c ****   */
1292:Drivers/STM32WBxx_HAL_Driver/Src/stm32wbxx_hal_rtc_ex.c **** HAL_StatusTypeDef HAL_RTCEx_SetWakeUpTimer_IT(RTC_HandleTypeDef *hrtc, uint32_t WakeUpCounter, uint
1293:Drivers/STM32WBxx_HAL_Driver/Src/stm32wbxx_hal_rtc_ex.c **** {
 2181              		.loc 1 1293 1 is_stmt 1 view -0
 2182              		.cfi_startproc
 2183              		@ args = 0, pretend = 0, frame = 8
ARM GAS  C:\Users\Nathan\AppData\Local\Temp\ccWT97xY.s 			page 64


 2184              		@ frame_needed = 0, uses_anonymous_args = 0
 2185              		@ link register save eliminated.
 2186              		.loc 1 1293 1 is_stmt 0 view .LVU771
 2187 0000 10B4     		push	{r4}
 2188              		.cfi_def_cfa_offset 4
 2189              		.cfi_offset 4, -4
 2190 0002 83B0     		sub	sp, sp, #12
 2191              		.cfi_def_cfa_offset 16
 2192 0004 8446     		mov	ip, r0
1294:Drivers/STM32WBxx_HAL_Driver/Src/stm32wbxx_hal_rtc_ex.c ****   __IO uint32_t count  = RTC_TIMEOUT_VALUE * (SystemCoreClock / 32U / 1000U);
 2193              		.loc 1 1294 3 is_stmt 1 view .LVU772
 2194              		.loc 1 1294 69 is_stmt 0 view .LVU773
 2195 0006 464B     		ldr	r3, .L163
 2196 0008 1868     		ldr	r0, [r3]
 2197              	.LVL157:
 2198              		.loc 1 1294 69 view .LVU774
 2199 000a 464B     		ldr	r3, .L163+4
 2200 000c A3FB0030 		umull	r3, r0, r3, r0
 2201 0010 C00A     		lsrs	r0, r0, #11
 2202              		.loc 1 1294 44 view .LVU775
 2203 0012 4FF47A73 		mov	r3, #1000
 2204 0016 03FB00F0 		mul	r0, r3, r0
 2205              		.loc 1 1294 17 view .LVU776
 2206 001a 0190     		str	r0, [sp, #4]
1295:Drivers/STM32WBxx_HAL_Driver/Src/stm32wbxx_hal_rtc_ex.c **** 
1296:Drivers/STM32WBxx_HAL_Driver/Src/stm32wbxx_hal_rtc_ex.c ****   /* Check the parameters */
1297:Drivers/STM32WBxx_HAL_Driver/Src/stm32wbxx_hal_rtc_ex.c ****   assert_param(IS_RTC_WAKEUP_CLOCK(WakeUpClock));
 2207              		.loc 1 1297 3 is_stmt 1 view .LVU777
1298:Drivers/STM32WBxx_HAL_Driver/Src/stm32wbxx_hal_rtc_ex.c ****   assert_param(IS_RTC_WAKEUP_COUNTER(WakeUpCounter));
 2208              		.loc 1 1298 3 view .LVU778
1299:Drivers/STM32WBxx_HAL_Driver/Src/stm32wbxx_hal_rtc_ex.c **** 
1300:Drivers/STM32WBxx_HAL_Driver/Src/stm32wbxx_hal_rtc_ex.c ****   /* Process Locked */
1301:Drivers/STM32WBxx_HAL_Driver/Src/stm32wbxx_hal_rtc_ex.c ****   __HAL_LOCK(hrtc);
 2209              		.loc 1 1301 3 view .LVU779
 2210              		.loc 1 1301 3 view .LVU780
 2211 001c 9CF82030 		ldrb	r3, [ip, #32]	@ zero_extendqisi2
 2212 0020 012B     		cmp	r3, #1
 2213 0022 7AD0     		beq	.L159
 2214              		.loc 1 1301 3 discriminator 2 view .LVU781
 2215 0024 0123     		movs	r3, #1
 2216 0026 8CF82030 		strb	r3, [ip, #32]
 2217              		.loc 1 1301 3 discriminator 2 view .LVU782
1302:Drivers/STM32WBxx_HAL_Driver/Src/stm32wbxx_hal_rtc_ex.c **** 
1303:Drivers/STM32WBxx_HAL_Driver/Src/stm32wbxx_hal_rtc_ex.c ****   hrtc->State = HAL_RTC_STATE_BUSY;
 2218              		.loc 1 1303 3 view .LVU783
 2219              		.loc 1 1303 15 is_stmt 0 view .LVU784
 2220 002a 0223     		movs	r3, #2
 2221 002c 8CF82130 		strb	r3, [ip, #33]
1304:Drivers/STM32WBxx_HAL_Driver/Src/stm32wbxx_hal_rtc_ex.c **** 
1305:Drivers/STM32WBxx_HAL_Driver/Src/stm32wbxx_hal_rtc_ex.c ****   /* Disable the write protection for RTC registers */
1306:Drivers/STM32WBxx_HAL_Driver/Src/stm32wbxx_hal_rtc_ex.c ****   __HAL_RTC_WRITEPROTECTION_DISABLE(hrtc);
 2222              		.loc 1 1306 3 is_stmt 1 view .LVU785
 2223              		.loc 1 1306 3 view .LVU786
 2224 0030 DCF80030 		ldr	r3, [ip]
 2225 0034 CA24     		movs	r4, #202
 2226 0036 5C62     		str	r4, [r3, #36]
 2227              		.loc 1 1306 3 view .LVU787
ARM GAS  C:\Users\Nathan\AppData\Local\Temp\ccWT97xY.s 			page 65


 2228 0038 DCF80030 		ldr	r3, [ip]
 2229 003c 5324     		movs	r4, #83
 2230 003e 5C62     		str	r4, [r3, #36]
 2231              		.loc 1 1306 3 view .LVU788
1307:Drivers/STM32WBxx_HAL_Driver/Src/stm32wbxx_hal_rtc_ex.c **** 
1308:Drivers/STM32WBxx_HAL_Driver/Src/stm32wbxx_hal_rtc_ex.c ****   /* Check RTC WUTWF flag is reset only when wakeup timer enabled */
1309:Drivers/STM32WBxx_HAL_Driver/Src/stm32wbxx_hal_rtc_ex.c ****   if ((hrtc->Instance->CR & RTC_CR_WUTE) != 0U)
 2232              		.loc 1 1309 3 view .LVU789
 2233              		.loc 1 1309 12 is_stmt 0 view .LVU790
 2234 0040 DCF80040 		ldr	r4, [ip]
 2235              		.loc 1 1309 22 view .LVU791
 2236 0044 A368     		ldr	r3, [r4, #8]
 2237              		.loc 1 1309 6 view .LVU792
 2238 0046 13F4806F 		tst	r3, #1024
 2239 004a 09D0     		beq	.L154
 2240              	.L156:
1310:Drivers/STM32WBxx_HAL_Driver/Src/stm32wbxx_hal_rtc_ex.c ****   {
1311:Drivers/STM32WBxx_HAL_Driver/Src/stm32wbxx_hal_rtc_ex.c ****     /* Wait till RTC WUTWF flag is reset and if timeout is reached exit */
1312:Drivers/STM32WBxx_HAL_Driver/Src/stm32wbxx_hal_rtc_ex.c ****     do
 2241              		.loc 1 1312 5 is_stmt 1 view .LVU793
1313:Drivers/STM32WBxx_HAL_Driver/Src/stm32wbxx_hal_rtc_ex.c ****     {
1314:Drivers/STM32WBxx_HAL_Driver/Src/stm32wbxx_hal_rtc_ex.c ****       count = count - 1U;
 2242              		.loc 1 1314 7 view .LVU794
 2243              		.loc 1 1314 21 is_stmt 0 view .LVU795
 2244 004c 019B     		ldr	r3, [sp, #4]
 2245 004e 013B     		subs	r3, r3, #1
 2246              		.loc 1 1314 13 view .LVU796
 2247 0050 0193     		str	r3, [sp, #4]
1315:Drivers/STM32WBxx_HAL_Driver/Src/stm32wbxx_hal_rtc_ex.c ****       if (count == 0U)
 2248              		.loc 1 1315 7 is_stmt 1 view .LVU797
 2249              		.loc 1 1315 17 is_stmt 0 view .LVU798
 2250 0052 019B     		ldr	r3, [sp, #4]
 2251              		.loc 1 1315 10 view .LVU799
 2252 0054 002B     		cmp	r3, #0
 2253 0056 49D0     		beq	.L161
1316:Drivers/STM32WBxx_HAL_Driver/Src/stm32wbxx_hal_rtc_ex.c ****       {
1317:Drivers/STM32WBxx_HAL_Driver/Src/stm32wbxx_hal_rtc_ex.c ****         /* Enable the write protection for RTC registers */
1318:Drivers/STM32WBxx_HAL_Driver/Src/stm32wbxx_hal_rtc_ex.c ****         __HAL_RTC_WRITEPROTECTION_ENABLE(hrtc);
1319:Drivers/STM32WBxx_HAL_Driver/Src/stm32wbxx_hal_rtc_ex.c **** 
1320:Drivers/STM32WBxx_HAL_Driver/Src/stm32wbxx_hal_rtc_ex.c ****         hrtc->State = HAL_RTC_STATE_TIMEOUT;
1321:Drivers/STM32WBxx_HAL_Driver/Src/stm32wbxx_hal_rtc_ex.c **** 
1322:Drivers/STM32WBxx_HAL_Driver/Src/stm32wbxx_hal_rtc_ex.c ****         /* Process Unlocked */
1323:Drivers/STM32WBxx_HAL_Driver/Src/stm32wbxx_hal_rtc_ex.c ****         __HAL_UNLOCK(hrtc);
1324:Drivers/STM32WBxx_HAL_Driver/Src/stm32wbxx_hal_rtc_ex.c **** 
1325:Drivers/STM32WBxx_HAL_Driver/Src/stm32wbxx_hal_rtc_ex.c ****         return HAL_TIMEOUT;
1326:Drivers/STM32WBxx_HAL_Driver/Src/stm32wbxx_hal_rtc_ex.c ****       }
1327:Drivers/STM32WBxx_HAL_Driver/Src/stm32wbxx_hal_rtc_ex.c ****     } while (__HAL_RTC_WAKEUPTIMER_GET_FLAG(hrtc, RTC_FLAG_WUTWF) != 0U);
 2254              		.loc 1 1327 67 is_stmt 1 view .LVU800
 2255              		.loc 1 1327 14 is_stmt 0 view .LVU801
 2256 0058 E368     		ldr	r3, [r4, #12]
 2257              		.loc 1 1327 67 view .LVU802
 2258 005a 13F0040F 		tst	r3, #4
 2259 005e F5D1     		bne	.L156
 2260              	.L154:
1328:Drivers/STM32WBxx_HAL_Driver/Src/stm32wbxx_hal_rtc_ex.c ****   }
1329:Drivers/STM32WBxx_HAL_Driver/Src/stm32wbxx_hal_rtc_ex.c **** 
1330:Drivers/STM32WBxx_HAL_Driver/Src/stm32wbxx_hal_rtc_ex.c ****   /* Disable the Wakeup timer */
ARM GAS  C:\Users\Nathan\AppData\Local\Temp\ccWT97xY.s 			page 66


1331:Drivers/STM32WBxx_HAL_Driver/Src/stm32wbxx_hal_rtc_ex.c ****   __HAL_RTC_WAKEUPTIMER_DISABLE(hrtc);
 2261              		.loc 1 1331 3 is_stmt 1 view .LVU803
 2262 0060 A368     		ldr	r3, [r4, #8]
 2263 0062 23F48063 		bic	r3, r3, #1024
 2264 0066 A360     		str	r3, [r4, #8]
1332:Drivers/STM32WBxx_HAL_Driver/Src/stm32wbxx_hal_rtc_ex.c **** 
1333:Drivers/STM32WBxx_HAL_Driver/Src/stm32wbxx_hal_rtc_ex.c ****   /* Clear the Wakeup flag */
1334:Drivers/STM32WBxx_HAL_Driver/Src/stm32wbxx_hal_rtc_ex.c ****   __HAL_RTC_WAKEUPTIMER_CLEAR_FLAG(hrtc, RTC_FLAG_WUTF);
 2265              		.loc 1 1334 3 view .LVU804
 2266 0068 DCF80040 		ldr	r4, [ip]
 2267 006c E368     		ldr	r3, [r4, #12]
 2268 006e DBB2     		uxtb	r3, r3
 2269 0070 63F49063 		orn	r3, r3, #1152
 2270 0074 E360     		str	r3, [r4, #12]
1335:Drivers/STM32WBxx_HAL_Driver/Src/stm32wbxx_hal_rtc_ex.c **** 
1336:Drivers/STM32WBxx_HAL_Driver/Src/stm32wbxx_hal_rtc_ex.c ****   /* Reload the counter */
1337:Drivers/STM32WBxx_HAL_Driver/Src/stm32wbxx_hal_rtc_ex.c ****   count = RTC_TIMEOUT_VALUE * (SystemCoreClock / 32U / 1000U);
 2271              		.loc 1 1337 3 view .LVU805
 2272              		.loc 1 1337 9 is_stmt 0 view .LVU806
 2273 0076 0190     		str	r0, [sp, #4]
 2274              	.L158:
1338:Drivers/STM32WBxx_HAL_Driver/Src/stm32wbxx_hal_rtc_ex.c **** 
1339:Drivers/STM32WBxx_HAL_Driver/Src/stm32wbxx_hal_rtc_ex.c ****   /* Wait till RTC WUTWF flag is set and if timeout is reached exit */
1340:Drivers/STM32WBxx_HAL_Driver/Src/stm32wbxx_hal_rtc_ex.c ****   do
 2275              		.loc 1 1340 3 is_stmt 1 view .LVU807
1341:Drivers/STM32WBxx_HAL_Driver/Src/stm32wbxx_hal_rtc_ex.c ****   {
1342:Drivers/STM32WBxx_HAL_Driver/Src/stm32wbxx_hal_rtc_ex.c ****     count = count - 1U;
 2276              		.loc 1 1342 5 view .LVU808
 2277              		.loc 1 1342 19 is_stmt 0 view .LVU809
 2278 0078 019B     		ldr	r3, [sp, #4]
 2279 007a 013B     		subs	r3, r3, #1
 2280              		.loc 1 1342 11 view .LVU810
 2281 007c 0193     		str	r3, [sp, #4]
1343:Drivers/STM32WBxx_HAL_Driver/Src/stm32wbxx_hal_rtc_ex.c ****     if (count == 0U)
 2282              		.loc 1 1343 5 is_stmt 1 view .LVU811
 2283              		.loc 1 1343 15 is_stmt 0 view .LVU812
 2284 007e 019B     		ldr	r3, [sp, #4]
 2285              		.loc 1 1343 8 view .LVU813
 2286 0080 002B     		cmp	r3, #0
 2287 0082 3CD0     		beq	.L162
1344:Drivers/STM32WBxx_HAL_Driver/Src/stm32wbxx_hal_rtc_ex.c ****     {
1345:Drivers/STM32WBxx_HAL_Driver/Src/stm32wbxx_hal_rtc_ex.c ****       /* Enable the write protection for RTC registers */
1346:Drivers/STM32WBxx_HAL_Driver/Src/stm32wbxx_hal_rtc_ex.c ****       __HAL_RTC_WRITEPROTECTION_ENABLE(hrtc);
1347:Drivers/STM32WBxx_HAL_Driver/Src/stm32wbxx_hal_rtc_ex.c **** 
1348:Drivers/STM32WBxx_HAL_Driver/Src/stm32wbxx_hal_rtc_ex.c ****       hrtc->State = HAL_RTC_STATE_TIMEOUT;
1349:Drivers/STM32WBxx_HAL_Driver/Src/stm32wbxx_hal_rtc_ex.c **** 
1350:Drivers/STM32WBxx_HAL_Driver/Src/stm32wbxx_hal_rtc_ex.c ****       /* Process Unlocked */
1351:Drivers/STM32WBxx_HAL_Driver/Src/stm32wbxx_hal_rtc_ex.c ****       __HAL_UNLOCK(hrtc);
1352:Drivers/STM32WBxx_HAL_Driver/Src/stm32wbxx_hal_rtc_ex.c **** 
1353:Drivers/STM32WBxx_HAL_Driver/Src/stm32wbxx_hal_rtc_ex.c ****       return HAL_TIMEOUT;
1354:Drivers/STM32WBxx_HAL_Driver/Src/stm32wbxx_hal_rtc_ex.c ****     }
1355:Drivers/STM32WBxx_HAL_Driver/Src/stm32wbxx_hal_rtc_ex.c ****   } while (__HAL_RTC_WAKEUPTIMER_GET_FLAG(hrtc, RTC_FLAG_WUTWF) == 0U);
 2288              		.loc 1 1355 65 is_stmt 1 view .LVU814
 2289              		.loc 1 1355 12 is_stmt 0 view .LVU815
 2290 0084 DCF80030 		ldr	r3, [ip]
 2291 0088 D868     		ldr	r0, [r3, #12]
 2292              		.loc 1 1355 65 view .LVU816
ARM GAS  C:\Users\Nathan\AppData\Local\Temp\ccWT97xY.s 			page 67


 2293 008a 10F0040F 		tst	r0, #4
 2294 008e F3D0     		beq	.L158
1356:Drivers/STM32WBxx_HAL_Driver/Src/stm32wbxx_hal_rtc_ex.c **** 
1357:Drivers/STM32WBxx_HAL_Driver/Src/stm32wbxx_hal_rtc_ex.c ****   /* Clear the Wakeup Timer clock source bits in CR register */
1358:Drivers/STM32WBxx_HAL_Driver/Src/stm32wbxx_hal_rtc_ex.c ****   hrtc->Instance->CR &= (uint32_t)~RTC_CR_WUCKSEL;
 2295              		.loc 1 1358 3 is_stmt 1 view .LVU817
 2296              		.loc 1 1358 17 is_stmt 0 view .LVU818
 2297 0090 9868     		ldr	r0, [r3, #8]
 2298              		.loc 1 1358 22 view .LVU819
 2299 0092 20F00700 		bic	r0, r0, #7
 2300 0096 9860     		str	r0, [r3, #8]
1359:Drivers/STM32WBxx_HAL_Driver/Src/stm32wbxx_hal_rtc_ex.c **** 
1360:Drivers/STM32WBxx_HAL_Driver/Src/stm32wbxx_hal_rtc_ex.c ****   /* Configure the clock source */
1361:Drivers/STM32WBxx_HAL_Driver/Src/stm32wbxx_hal_rtc_ex.c ****   hrtc->Instance->CR |= (uint32_t)WakeUpClock;
 2301              		.loc 1 1361 3 is_stmt 1 view .LVU820
 2302              		.loc 1 1361 7 is_stmt 0 view .LVU821
 2303 0098 DCF80000 		ldr	r0, [ip]
 2304              		.loc 1 1361 17 view .LVU822
 2305 009c 8368     		ldr	r3, [r0, #8]
 2306              		.loc 1 1361 22 view .LVU823
 2307 009e 1343     		orrs	r3, r3, r2
 2308 00a0 8360     		str	r3, [r0, #8]
1362:Drivers/STM32WBxx_HAL_Driver/Src/stm32wbxx_hal_rtc_ex.c **** 
1363:Drivers/STM32WBxx_HAL_Driver/Src/stm32wbxx_hal_rtc_ex.c ****   /* Configure the Wakeup Timer counter */
1364:Drivers/STM32WBxx_HAL_Driver/Src/stm32wbxx_hal_rtc_ex.c ****   hrtc->Instance->WUTR = (uint32_t)WakeUpCounter;
 2309              		.loc 1 1364 3 is_stmt 1 view .LVU824
 2310              		.loc 1 1364 7 is_stmt 0 view .LVU825
 2311 00a2 DCF80030 		ldr	r3, [ip]
 2312              		.loc 1 1364 24 view .LVU826
 2313 00a6 5961     		str	r1, [r3, #20]
1365:Drivers/STM32WBxx_HAL_Driver/Src/stm32wbxx_hal_rtc_ex.c **** 
1366:Drivers/STM32WBxx_HAL_Driver/Src/stm32wbxx_hal_rtc_ex.c ****   /* Enable and configure the EXTI line associated to the RTC Wakeup Timer interrupt */
1367:Drivers/STM32WBxx_HAL_Driver/Src/stm32wbxx_hal_rtc_ex.c ****   __HAL_RTC_WAKEUPTIMER_EXTI_ENABLE_IT();
 2314              		.loc 1 1367 3 is_stmt 1 view .LVU827
 2315 00a8 1F4B     		ldr	r3, .L163+8
 2316 00aa D3F88020 		ldr	r2, [r3, #128]
 2317              	.LVL158:
 2318              		.loc 1 1367 3 is_stmt 0 view .LVU828
 2319 00ae 42F40022 		orr	r2, r2, #524288
 2320 00b2 C3F88020 		str	r2, [r3, #128]
1368:Drivers/STM32WBxx_HAL_Driver/Src/stm32wbxx_hal_rtc_ex.c ****   __HAL_RTC_WAKEUPTIMER_EXTI_ENABLE_RISING_EDGE();
 2321              		.loc 1 1368 3 is_stmt 1 view .LVU829
 2322 00b6 1A68     		ldr	r2, [r3]
 2323 00b8 42F40022 		orr	r2, r2, #524288
 2324 00bc 1A60     		str	r2, [r3]
1369:Drivers/STM32WBxx_HAL_Driver/Src/stm32wbxx_hal_rtc_ex.c **** 
1370:Drivers/STM32WBxx_HAL_Driver/Src/stm32wbxx_hal_rtc_ex.c ****   /* Configure the interrupt in the RTC_CR register */
