ARM GAS  C:\Users\Nathan\AppData\Local\Temp\cclrXYzQ.s 			page 1


   1              		.cpu cortex-m4
   2              		.arch armv7e-m
   3              		.fpu fpv4-sp-d16
   4              		.eabi_attribute 27, 1
   5              		.eabi_attribute 28, 1
   6              		.eabi_attribute 20, 1
   7              		.eabi_attribute 21, 1
   8              		.eabi_attribute 23, 3
   9              		.eabi_attribute 24, 1
  10              		.eabi_attribute 25, 1
  11              		.eabi_attribute 26, 1
  12              		.eabi_attribute 30, 1
  13              		.eabi_attribute 34, 1
  14              		.eabi_attribute 18, 4
  15              		.file	"stm32wbxx_hal_flash_ex.c"
  16              		.text
  17              	.Ltext0:
  18              		.cfi_sections	.debug_frame
  19              		.file 1 "Drivers/STM32WBxx_HAL_Driver/Src/stm32wbxx_hal_flash_ex.c"
  20              		.section	.text.FLASH_FlushCaches,"ax",%progbits
  21              		.align	1
  22              		.syntax unified
  23              		.thumb
  24              		.thumb_func
  26              	FLASH_FlushCaches:
  27              	.LFB1114:
   1:Drivers/STM32WBxx_HAL_Driver/Src/stm32wbxx_hal_flash_ex.c **** /**
   2:Drivers/STM32WBxx_HAL_Driver/Src/stm32wbxx_hal_flash_ex.c ****   ******************************************************************************
   3:Drivers/STM32WBxx_HAL_Driver/Src/stm32wbxx_hal_flash_ex.c ****   * @file    stm32wbxx_hal_flash_ex.c
   4:Drivers/STM32WBxx_HAL_Driver/Src/stm32wbxx_hal_flash_ex.c ****   * @author  MCD Application Team
   5:Drivers/STM32WBxx_HAL_Driver/Src/stm32wbxx_hal_flash_ex.c ****   * @brief   Extended FLASH HAL module driver.
   6:Drivers/STM32WBxx_HAL_Driver/Src/stm32wbxx_hal_flash_ex.c ****   *          This file provides firmware functions to manage the following
   7:Drivers/STM32WBxx_HAL_Driver/Src/stm32wbxx_hal_flash_ex.c ****   *          functionalities of the FLASH extended peripheral:
   8:Drivers/STM32WBxx_HAL_Driver/Src/stm32wbxx_hal_flash_ex.c ****   *           + Extended programming operations functions
   9:Drivers/STM32WBxx_HAL_Driver/Src/stm32wbxx_hal_flash_ex.c ****   ******************************************************************************
  10:Drivers/STM32WBxx_HAL_Driver/Src/stm32wbxx_hal_flash_ex.c ****   * @attention
  11:Drivers/STM32WBxx_HAL_Driver/Src/stm32wbxx_hal_flash_ex.c ****   *
  12:Drivers/STM32WBxx_HAL_Driver/Src/stm32wbxx_hal_flash_ex.c ****   * Copyright (c) 2019 STMicroelectronics.
  13:Drivers/STM32WBxx_HAL_Driver/Src/stm32wbxx_hal_flash_ex.c ****   * All rights reserved.
  14:Drivers/STM32WBxx_HAL_Driver/Src/stm32wbxx_hal_flash_ex.c ****   *
  15:Drivers/STM32WBxx_HAL_Driver/Src/stm32wbxx_hal_flash_ex.c ****   * This software is licensed under terms that can be found in the LICENSE file
  16:Drivers/STM32WBxx_HAL_Driver/Src/stm32wbxx_hal_flash_ex.c ****   * in the root directory of this software component.
  17:Drivers/STM32WBxx_HAL_Driver/Src/stm32wbxx_hal_flash_ex.c ****   * If no LICENSE file comes with this software, it is provided AS-IS.
  18:Drivers/STM32WBxx_HAL_Driver/Src/stm32wbxx_hal_flash_ex.c ****   *
  19:Drivers/STM32WBxx_HAL_Driver/Src/stm32wbxx_hal_flash_ex.c ****   ******************************************************************************
  20:Drivers/STM32WBxx_HAL_Driver/Src/stm32wbxx_hal_flash_ex.c ****  @verbatim
  21:Drivers/STM32WBxx_HAL_Driver/Src/stm32wbxx_hal_flash_ex.c ****  ==============================================================================
  22:Drivers/STM32WBxx_HAL_Driver/Src/stm32wbxx_hal_flash_ex.c ****                    ##### Flash Extended features #####
  23:Drivers/STM32WBxx_HAL_Driver/Src/stm32wbxx_hal_flash_ex.c ****   ==============================================================================
  24:Drivers/STM32WBxx_HAL_Driver/Src/stm32wbxx_hal_flash_ex.c **** 
  25:Drivers/STM32WBxx_HAL_Driver/Src/stm32wbxx_hal_flash_ex.c ****   [..] Comparing to other previous devices, the FLASH interface for STM32WBxx
  26:Drivers/STM32WBxx_HAL_Driver/Src/stm32wbxx_hal_flash_ex.c ****        devices contains the following additional features
  27:Drivers/STM32WBxx_HAL_Driver/Src/stm32wbxx_hal_flash_ex.c **** 
  28:Drivers/STM32WBxx_HAL_Driver/Src/stm32wbxx_hal_flash_ex.c ****        (+) Capacity up to 1 Mbyte with single bank architecture supporting read-while-write
  29:Drivers/STM32WBxx_HAL_Driver/Src/stm32wbxx_hal_flash_ex.c ****            capability (RWW)
  30:Drivers/STM32WBxx_HAL_Driver/Src/stm32wbxx_hal_flash_ex.c ****        (+) Single bank memory organization
  31:Drivers/STM32WBxx_HAL_Driver/Src/stm32wbxx_hal_flash_ex.c ****        (+) PCROP protection
ARM GAS  C:\Users\Nathan\AppData\Local\Temp\cclrXYzQ.s 			page 2


  32:Drivers/STM32WBxx_HAL_Driver/Src/stm32wbxx_hal_flash_ex.c ****        (+) WRP protection
  33:Drivers/STM32WBxx_HAL_Driver/Src/stm32wbxx_hal_flash_ex.c ****        (+) CPU2 Security area
  34:Drivers/STM32WBxx_HAL_Driver/Src/stm32wbxx_hal_flash_ex.c ****        (+) Program Erase Suspend feature
  35:Drivers/STM32WBxx_HAL_Driver/Src/stm32wbxx_hal_flash_ex.c **** 
  36:Drivers/STM32WBxx_HAL_Driver/Src/stm32wbxx_hal_flash_ex.c ****                         ##### How to use this driver #####
  37:Drivers/STM32WBxx_HAL_Driver/Src/stm32wbxx_hal_flash_ex.c ****  ==============================================================================
  38:Drivers/STM32WBxx_HAL_Driver/Src/stm32wbxx_hal_flash_ex.c ****   [..] This driver provides functions to configure and program the FLASH memory
  39:Drivers/STM32WBxx_HAL_Driver/Src/stm32wbxx_hal_flash_ex.c ****        of all STM32WBxx devices. It includes
  40:Drivers/STM32WBxx_HAL_Driver/Src/stm32wbxx_hal_flash_ex.c ****       (#) Flash Memory Erase functions:
  41:Drivers/STM32WBxx_HAL_Driver/Src/stm32wbxx_hal_flash_ex.c ****            (++) Lock and Unlock the FLASH interface using HAL_FLASH_Unlock() and
  42:Drivers/STM32WBxx_HAL_Driver/Src/stm32wbxx_hal_flash_ex.c ****                 HAL_FLASH_Lock() functions
  43:Drivers/STM32WBxx_HAL_Driver/Src/stm32wbxx_hal_flash_ex.c ****            (++) Erase function: Erase page, erase all sectors
  44:Drivers/STM32WBxx_HAL_Driver/Src/stm32wbxx_hal_flash_ex.c ****            (++) There are two modes of erase :
  45:Drivers/STM32WBxx_HAL_Driver/Src/stm32wbxx_hal_flash_ex.c ****              (+++) Polling Mode using HAL_FLASHEx_Erase()
  46:Drivers/STM32WBxx_HAL_Driver/Src/stm32wbxx_hal_flash_ex.c ****              (+++) Interrupt Mode using HAL_FLASHEx_Erase_IT()
  47:Drivers/STM32WBxx_HAL_Driver/Src/stm32wbxx_hal_flash_ex.c **** 
  48:Drivers/STM32WBxx_HAL_Driver/Src/stm32wbxx_hal_flash_ex.c ****       (#) Option Bytes Programming function: Use HAL_FLASHEx_OBProgram() to :
  49:Drivers/STM32WBxx_HAL_Driver/Src/stm32wbxx_hal_flash_ex.c ****         (++) Set/Reset the write protection (per 4 KByte)
  50:Drivers/STM32WBxx_HAL_Driver/Src/stm32wbxx_hal_flash_ex.c ****         (++) Set the Read protection Level
  51:Drivers/STM32WBxx_HAL_Driver/Src/stm32wbxx_hal_flash_ex.c ****         (++) Program the user Option Bytes
  52:Drivers/STM32WBxx_HAL_Driver/Src/stm32wbxx_hal_flash_ex.c ****         (++) Configure the PCROP protection (per 2 KByte)
  53:Drivers/STM32WBxx_HAL_Driver/Src/stm32wbxx_hal_flash_ex.c ****         (++) Configure the IPCC Buffer start Address
  54:Drivers/STM32WBxx_HAL_Driver/Src/stm32wbxx_hal_flash_ex.c ****         (++) Configure the CPU2 boot region and reset vector start Address
  55:Drivers/STM32WBxx_HAL_Driver/Src/stm32wbxx_hal_flash_ex.c ****         (++) Configure the Flash and SRAM2 secure area
  56:Drivers/STM32WBxx_HAL_Driver/Src/stm32wbxx_hal_flash_ex.c **** 
  57:Drivers/STM32WBxx_HAL_Driver/Src/stm32wbxx_hal_flash_ex.c ****       (#) Get Option Bytes Configuration function: Use HAL_FLASHEx_OBGetConfig() to :
  58:Drivers/STM32WBxx_HAL_Driver/Src/stm32wbxx_hal_flash_ex.c ****         (++) Get the value of a write protection area
  59:Drivers/STM32WBxx_HAL_Driver/Src/stm32wbxx_hal_flash_ex.c ****         (++) Know if the read protection is activated
  60:Drivers/STM32WBxx_HAL_Driver/Src/stm32wbxx_hal_flash_ex.c ****         (++) Get the value of the user Option Bytes
  61:Drivers/STM32WBxx_HAL_Driver/Src/stm32wbxx_hal_flash_ex.c ****         (++) Get the value of a PCROP area
  62:Drivers/STM32WBxx_HAL_Driver/Src/stm32wbxx_hal_flash_ex.c ****         (++) Get the IPCC Buffer start Address
  63:Drivers/STM32WBxx_HAL_Driver/Src/stm32wbxx_hal_flash_ex.c ****         (++) Get the CPU2 boot region and reset vector start Address
  64:Drivers/STM32WBxx_HAL_Driver/Src/stm32wbxx_hal_flash_ex.c ****         (++) Get the Flash and SRAM2 secure area
  65:Drivers/STM32WBxx_HAL_Driver/Src/stm32wbxx_hal_flash_ex.c **** 
  66:Drivers/STM32WBxx_HAL_Driver/Src/stm32wbxx_hal_flash_ex.c ****       (#) Flash Suspend, Allow functions:
  67:Drivers/STM32WBxx_HAL_Driver/Src/stm32wbxx_hal_flash_ex.c ****            (++) Suspend or Allow new program or erase operation request using HAL_FLASHEx_SuspendOp
  68:Drivers/STM32WBxx_HAL_Driver/Src/stm32wbxx_hal_flash_ex.c ****                 HAL_FLASHEx_AllowOperation() functions
  69:Drivers/STM32WBxx_HAL_Driver/Src/stm32wbxx_hal_flash_ex.c **** 
  70:Drivers/STM32WBxx_HAL_Driver/Src/stm32wbxx_hal_flash_ex.c ****       (#) Check is flash content is empty or not using HAL_FLASHEx_FlashEmptyCheck().
  71:Drivers/STM32WBxx_HAL_Driver/Src/stm32wbxx_hal_flash_ex.c ****           and modify this setting (for flash loader purpose e.g.) using
  72:Drivers/STM32WBxx_HAL_Driver/Src/stm32wbxx_hal_flash_ex.c ****           HAL_FLASHEx_ForceFlashEmpty().
  73:Drivers/STM32WBxx_HAL_Driver/Src/stm32wbxx_hal_flash_ex.c **** 
  74:Drivers/STM32WBxx_HAL_Driver/Src/stm32wbxx_hal_flash_ex.c ****  @endverbatim
  75:Drivers/STM32WBxx_HAL_Driver/Src/stm32wbxx_hal_flash_ex.c ****   ******************************************************************************
  76:Drivers/STM32WBxx_HAL_Driver/Src/stm32wbxx_hal_flash_ex.c ****   */
  77:Drivers/STM32WBxx_HAL_Driver/Src/stm32wbxx_hal_flash_ex.c **** 
  78:Drivers/STM32WBxx_HAL_Driver/Src/stm32wbxx_hal_flash_ex.c **** /* Includes ------------------------------------------------------------------*/
  79:Drivers/STM32WBxx_HAL_Driver/Src/stm32wbxx_hal_flash_ex.c **** #include "stm32wbxx_hal.h"
  80:Drivers/STM32WBxx_HAL_Driver/Src/stm32wbxx_hal_flash_ex.c **** 
  81:Drivers/STM32WBxx_HAL_Driver/Src/stm32wbxx_hal_flash_ex.c **** /** @addtogroup STM32WBxx_HAL_Driver
  82:Drivers/STM32WBxx_HAL_Driver/Src/stm32wbxx_hal_flash_ex.c ****   * @{
  83:Drivers/STM32WBxx_HAL_Driver/Src/stm32wbxx_hal_flash_ex.c ****   */
  84:Drivers/STM32WBxx_HAL_Driver/Src/stm32wbxx_hal_flash_ex.c **** 
  85:Drivers/STM32WBxx_HAL_Driver/Src/stm32wbxx_hal_flash_ex.c **** /** @defgroup FLASHEx FLASHEx
  86:Drivers/STM32WBxx_HAL_Driver/Src/stm32wbxx_hal_flash_ex.c ****   * @brief FLASH Extended HAL module driver
  87:Drivers/STM32WBxx_HAL_Driver/Src/stm32wbxx_hal_flash_ex.c ****   * @{
  88:Drivers/STM32WBxx_HAL_Driver/Src/stm32wbxx_hal_flash_ex.c ****   */
ARM GAS  C:\Users\Nathan\AppData\Local\Temp\cclrXYzQ.s 			page 3


  89:Drivers/STM32WBxx_HAL_Driver/Src/stm32wbxx_hal_flash_ex.c **** 
  90:Drivers/STM32WBxx_HAL_Driver/Src/stm32wbxx_hal_flash_ex.c **** #ifdef HAL_FLASH_MODULE_ENABLED
  91:Drivers/STM32WBxx_HAL_Driver/Src/stm32wbxx_hal_flash_ex.c **** 
  92:Drivers/STM32WBxx_HAL_Driver/Src/stm32wbxx_hal_flash_ex.c **** /* Private typedef -----------------------------------------------------------*/
  93:Drivers/STM32WBxx_HAL_Driver/Src/stm32wbxx_hal_flash_ex.c **** /* Private define ------------------------------------------------------------*/
  94:Drivers/STM32WBxx_HAL_Driver/Src/stm32wbxx_hal_flash_ex.c **** /* Private macro -------------------------------------------------------------*/
  95:Drivers/STM32WBxx_HAL_Driver/Src/stm32wbxx_hal_flash_ex.c **** /* Private variables ---------------------------------------------------------*/
  96:Drivers/STM32WBxx_HAL_Driver/Src/stm32wbxx_hal_flash_ex.c **** /* Private function prototypes -----------------------------------------------*/
  97:Drivers/STM32WBxx_HAL_Driver/Src/stm32wbxx_hal_flash_ex.c **** /** @defgroup FLASHEx_Private_Functions FLASHEx Private Functions
  98:Drivers/STM32WBxx_HAL_Driver/Src/stm32wbxx_hal_flash_ex.c ****   * @{
  99:Drivers/STM32WBxx_HAL_Driver/Src/stm32wbxx_hal_flash_ex.c ****   */
 100:Drivers/STM32WBxx_HAL_Driver/Src/stm32wbxx_hal_flash_ex.c **** static void              FLASH_AcknowledgePageErase(void);
 101:Drivers/STM32WBxx_HAL_Driver/Src/stm32wbxx_hal_flash_ex.c **** static void              FLASH_FlushCaches(void);
 102:Drivers/STM32WBxx_HAL_Driver/Src/stm32wbxx_hal_flash_ex.c **** static void              FLASH_OB_WRPConfig(uint32_t WRPArea, uint32_t WRPStartOffset, uint32_t WRD
 103:Drivers/STM32WBxx_HAL_Driver/Src/stm32wbxx_hal_flash_ex.c **** static void              FLASH_OB_OptrConfig(uint32_t UserType, uint32_t UserConfig, uint32_t RDPLe
 104:Drivers/STM32WBxx_HAL_Driver/Src/stm32wbxx_hal_flash_ex.c **** static void              FLASH_OB_PCROP1AConfig(uint32_t PCROPConfig, uint32_t PCROP1AStartAddr,
 105:Drivers/STM32WBxx_HAL_Driver/Src/stm32wbxx_hal_flash_ex.c ****                                                 uint32_t PCROP1AEndAddr);
 106:Drivers/STM32WBxx_HAL_Driver/Src/stm32wbxx_hal_flash_ex.c **** static void              FLASH_OB_PCROP1BConfig(uint32_t PCROP1BStartAddr, uint32_t PCROP1BEndAddr)
 107:Drivers/STM32WBxx_HAL_Driver/Src/stm32wbxx_hal_flash_ex.c **** static void              FLASH_OB_IPCCBufferAddrConfig(uint32_t IPCCDataBufAddr);
 108:Drivers/STM32WBxx_HAL_Driver/Src/stm32wbxx_hal_flash_ex.c **** static void              FLASH_OB_SecureConfig(FLASH_OBProgramInitTypeDef *pOBParam);
 109:Drivers/STM32WBxx_HAL_Driver/Src/stm32wbxx_hal_flash_ex.c **** static void              FLASH_OB_GetWRP(uint32_t WRPArea, uint32_t *WRPStartOffset, uint32_t *WRDP
 110:Drivers/STM32WBxx_HAL_Driver/Src/stm32wbxx_hal_flash_ex.c **** static uint32_t          FLASH_OB_GetRDP(void);
 111:Drivers/STM32WBxx_HAL_Driver/Src/stm32wbxx_hal_flash_ex.c **** static uint32_t          FLASH_OB_GetUser(void);
 112:Drivers/STM32WBxx_HAL_Driver/Src/stm32wbxx_hal_flash_ex.c **** static void              FLASH_OB_GetPCROP(uint32_t *PCROPConfig, uint32_t *PCROP1AStartAddr, uint3
 113:Drivers/STM32WBxx_HAL_Driver/Src/stm32wbxx_hal_flash_ex.c ****                                            uint32_t *PCROP1BStartAddr, uint32_t *PCROP1BEndAddr);
 114:Drivers/STM32WBxx_HAL_Driver/Src/stm32wbxx_hal_flash_ex.c **** static uint32_t          FLASH_OB_GetIPCCBufferAddr(void);
 115:Drivers/STM32WBxx_HAL_Driver/Src/stm32wbxx_hal_flash_ex.c **** static void              FLASH_OB_GetSecureMemoryConfig(uint32_t *SecureFlashStartAddr, uint32_t *S
 116:Drivers/STM32WBxx_HAL_Driver/Src/stm32wbxx_hal_flash_ex.c ****                                                         uint32_t *SecureRAM2bStartAddr, uint32_t *S
 117:Drivers/STM32WBxx_HAL_Driver/Src/stm32wbxx_hal_flash_ex.c **** static void              FLASH_OB_GetC2BootResetConfig(uint32_t *C2BootResetVectAddr, uint32_t *C2B
 118:Drivers/STM32WBxx_HAL_Driver/Src/stm32wbxx_hal_flash_ex.c **** static HAL_StatusTypeDef FLASH_OB_ProceedWriteOperation(void);
 119:Drivers/STM32WBxx_HAL_Driver/Src/stm32wbxx_hal_flash_ex.c **** /**
 120:Drivers/STM32WBxx_HAL_Driver/Src/stm32wbxx_hal_flash_ex.c ****   * @}
 121:Drivers/STM32WBxx_HAL_Driver/Src/stm32wbxx_hal_flash_ex.c ****   */
 122:Drivers/STM32WBxx_HAL_Driver/Src/stm32wbxx_hal_flash_ex.c **** 
 123:Drivers/STM32WBxx_HAL_Driver/Src/stm32wbxx_hal_flash_ex.c **** /* Exported functions -------------------------------------------------------*/
 124:Drivers/STM32WBxx_HAL_Driver/Src/stm32wbxx_hal_flash_ex.c **** /** @defgroup FLASHEx_Exported_Functions FLASH Extended Exported Functions
 125:Drivers/STM32WBxx_HAL_Driver/Src/stm32wbxx_hal_flash_ex.c ****   * @{
 126:Drivers/STM32WBxx_HAL_Driver/Src/stm32wbxx_hal_flash_ex.c ****   */
 127:Drivers/STM32WBxx_HAL_Driver/Src/stm32wbxx_hal_flash_ex.c **** 
 128:Drivers/STM32WBxx_HAL_Driver/Src/stm32wbxx_hal_flash_ex.c **** /** @defgroup FLASHEx_Exported_Functions_Group1 Extended IO operation functions
 129:Drivers/STM32WBxx_HAL_Driver/Src/stm32wbxx_hal_flash_ex.c ****   *  @brief   Extended IO operation functions
 130:Drivers/STM32WBxx_HAL_Driver/Src/stm32wbxx_hal_flash_ex.c ****   *
 131:Drivers/STM32WBxx_HAL_Driver/Src/stm32wbxx_hal_flash_ex.c **** @verbatim
 132:Drivers/STM32WBxx_HAL_Driver/Src/stm32wbxx_hal_flash_ex.c ****  ===============================================================================
 133:Drivers/STM32WBxx_HAL_Driver/Src/stm32wbxx_hal_flash_ex.c ****                 ##### Extended programming operation functions #####
 134:Drivers/STM32WBxx_HAL_Driver/Src/stm32wbxx_hal_flash_ex.c ****  ===============================================================================
 135:Drivers/STM32WBxx_HAL_Driver/Src/stm32wbxx_hal_flash_ex.c ****     [..]
 136:Drivers/STM32WBxx_HAL_Driver/Src/stm32wbxx_hal_flash_ex.c ****     This subsection provides a set of functions allowing to manage the Extended FLASH
 137:Drivers/STM32WBxx_HAL_Driver/Src/stm32wbxx_hal_flash_ex.c ****     programming operations Operations.
 138:Drivers/STM32WBxx_HAL_Driver/Src/stm32wbxx_hal_flash_ex.c **** 
 139:Drivers/STM32WBxx_HAL_Driver/Src/stm32wbxx_hal_flash_ex.c **** @endverbatim
 140:Drivers/STM32WBxx_HAL_Driver/Src/stm32wbxx_hal_flash_ex.c ****   * @{
 141:Drivers/STM32WBxx_HAL_Driver/Src/stm32wbxx_hal_flash_ex.c ****   */
 142:Drivers/STM32WBxx_HAL_Driver/Src/stm32wbxx_hal_flash_ex.c **** /**
 143:Drivers/STM32WBxx_HAL_Driver/Src/stm32wbxx_hal_flash_ex.c ****   * @brief  Perform an erase of the specified FLASH memory pages.
 144:Drivers/STM32WBxx_HAL_Driver/Src/stm32wbxx_hal_flash_ex.c ****   * @note   Before any operation, it is possible to check there is no operation suspended
 145:Drivers/STM32WBxx_HAL_Driver/Src/stm32wbxx_hal_flash_ex.c ****   *         by call HAL_FLASHEx_IsOperationSuspended()
ARM GAS  C:\Users\Nathan\AppData\Local\Temp\cclrXYzQ.s 			page 4


 146:Drivers/STM32WBxx_HAL_Driver/Src/stm32wbxx_hal_flash_ex.c ****   * @param[in]  pEraseInit Pointer to an @ref FLASH_EraseInitTypeDef structure that
 147:Drivers/STM32WBxx_HAL_Driver/Src/stm32wbxx_hal_flash_ex.c ****   *         contains the configuration information for the erasing.
 148:Drivers/STM32WBxx_HAL_Driver/Src/stm32wbxx_hal_flash_ex.c ****   * @param[out]  PageError Pointer to variable that contains the configuration
 149:Drivers/STM32WBxx_HAL_Driver/Src/stm32wbxx_hal_flash_ex.c ****   *         information on faulty page in case of error (0xFFFFFFFF means that all
 150:Drivers/STM32WBxx_HAL_Driver/Src/stm32wbxx_hal_flash_ex.c ****   *         the pages have been correctly erased)
 151:Drivers/STM32WBxx_HAL_Driver/Src/stm32wbxx_hal_flash_ex.c ****   * @retval HAL Status
 152:Drivers/STM32WBxx_HAL_Driver/Src/stm32wbxx_hal_flash_ex.c ****   */
 153:Drivers/STM32WBxx_HAL_Driver/Src/stm32wbxx_hal_flash_ex.c **** HAL_StatusTypeDef HAL_FLASHEx_Erase(FLASH_EraseInitTypeDef *pEraseInit, uint32_t *PageError)
 154:Drivers/STM32WBxx_HAL_Driver/Src/stm32wbxx_hal_flash_ex.c **** {
 155:Drivers/STM32WBxx_HAL_Driver/Src/stm32wbxx_hal_flash_ex.c ****   HAL_StatusTypeDef status;
 156:Drivers/STM32WBxx_HAL_Driver/Src/stm32wbxx_hal_flash_ex.c ****   uint32_t index;
 157:Drivers/STM32WBxx_HAL_Driver/Src/stm32wbxx_hal_flash_ex.c **** 
 158:Drivers/STM32WBxx_HAL_Driver/Src/stm32wbxx_hal_flash_ex.c ****   /* Check the parameters */
 159:Drivers/STM32WBxx_HAL_Driver/Src/stm32wbxx_hal_flash_ex.c ****   assert_param(IS_FLASH_TYPEERASE(pEraseInit->TypeErase));
 160:Drivers/STM32WBxx_HAL_Driver/Src/stm32wbxx_hal_flash_ex.c **** 
 161:Drivers/STM32WBxx_HAL_Driver/Src/stm32wbxx_hal_flash_ex.c ****   /* Process Locked */
 162:Drivers/STM32WBxx_HAL_Driver/Src/stm32wbxx_hal_flash_ex.c ****   __HAL_LOCK(&pFlash);
 163:Drivers/STM32WBxx_HAL_Driver/Src/stm32wbxx_hal_flash_ex.c **** 
 164:Drivers/STM32WBxx_HAL_Driver/Src/stm32wbxx_hal_flash_ex.c ****   /* Reset error code */
 165:Drivers/STM32WBxx_HAL_Driver/Src/stm32wbxx_hal_flash_ex.c ****   pFlash.ErrorCode = HAL_FLASH_ERROR_NONE;
 166:Drivers/STM32WBxx_HAL_Driver/Src/stm32wbxx_hal_flash_ex.c **** 
 167:Drivers/STM32WBxx_HAL_Driver/Src/stm32wbxx_hal_flash_ex.c ****   /* Verify that next operation can be proceed */
 168:Drivers/STM32WBxx_HAL_Driver/Src/stm32wbxx_hal_flash_ex.c ****   status = FLASH_WaitForLastOperation(FLASH_TIMEOUT_VALUE);
 169:Drivers/STM32WBxx_HAL_Driver/Src/stm32wbxx_hal_flash_ex.c **** 
 170:Drivers/STM32WBxx_HAL_Driver/Src/stm32wbxx_hal_flash_ex.c ****   if (status == HAL_OK)
 171:Drivers/STM32WBxx_HAL_Driver/Src/stm32wbxx_hal_flash_ex.c ****   {
 172:Drivers/STM32WBxx_HAL_Driver/Src/stm32wbxx_hal_flash_ex.c ****     if (pEraseInit->TypeErase == FLASH_TYPEERASE_PAGES)
 173:Drivers/STM32WBxx_HAL_Driver/Src/stm32wbxx_hal_flash_ex.c ****     {
 174:Drivers/STM32WBxx_HAL_Driver/Src/stm32wbxx_hal_flash_ex.c ****       /*Initialization of PageError variable*/
 175:Drivers/STM32WBxx_HAL_Driver/Src/stm32wbxx_hal_flash_ex.c ****       *PageError = 0xFFFFFFFFU;
 176:Drivers/STM32WBxx_HAL_Driver/Src/stm32wbxx_hal_flash_ex.c **** 
 177:Drivers/STM32WBxx_HAL_Driver/Src/stm32wbxx_hal_flash_ex.c ****       for (index = pEraseInit->Page; index < (pEraseInit->Page + pEraseInit->NbPages); index++)
 178:Drivers/STM32WBxx_HAL_Driver/Src/stm32wbxx_hal_flash_ex.c ****       {
 179:Drivers/STM32WBxx_HAL_Driver/Src/stm32wbxx_hal_flash_ex.c ****         /* Start erase page */
 180:Drivers/STM32WBxx_HAL_Driver/Src/stm32wbxx_hal_flash_ex.c ****         FLASH_PageErase(index);
 181:Drivers/STM32WBxx_HAL_Driver/Src/stm32wbxx_hal_flash_ex.c **** 
 182:Drivers/STM32WBxx_HAL_Driver/Src/stm32wbxx_hal_flash_ex.c ****         /* Wait for last operation to be completed */
 183:Drivers/STM32WBxx_HAL_Driver/Src/stm32wbxx_hal_flash_ex.c ****         status = FLASH_WaitForLastOperation(FLASH_TIMEOUT_VALUE);
 184:Drivers/STM32WBxx_HAL_Driver/Src/stm32wbxx_hal_flash_ex.c **** 
 185:Drivers/STM32WBxx_HAL_Driver/Src/stm32wbxx_hal_flash_ex.c ****         if (status != HAL_OK)
 186:Drivers/STM32WBxx_HAL_Driver/Src/stm32wbxx_hal_flash_ex.c ****         {
 187:Drivers/STM32WBxx_HAL_Driver/Src/stm32wbxx_hal_flash_ex.c ****           /* In case of error, stop erase procedure and return the faulty address */
 188:Drivers/STM32WBxx_HAL_Driver/Src/stm32wbxx_hal_flash_ex.c ****           *PageError = index;
 189:Drivers/STM32WBxx_HAL_Driver/Src/stm32wbxx_hal_flash_ex.c ****           break;
 190:Drivers/STM32WBxx_HAL_Driver/Src/stm32wbxx_hal_flash_ex.c ****         }
 191:Drivers/STM32WBxx_HAL_Driver/Src/stm32wbxx_hal_flash_ex.c ****       }
 192:Drivers/STM32WBxx_HAL_Driver/Src/stm32wbxx_hal_flash_ex.c **** 
 193:Drivers/STM32WBxx_HAL_Driver/Src/stm32wbxx_hal_flash_ex.c ****       /* If operation is completed or interrupted, disable the Page Erase Bit */
 194:Drivers/STM32WBxx_HAL_Driver/Src/stm32wbxx_hal_flash_ex.c ****       FLASH_AcknowledgePageErase();
 195:Drivers/STM32WBxx_HAL_Driver/Src/stm32wbxx_hal_flash_ex.c ****     }
 196:Drivers/STM32WBxx_HAL_Driver/Src/stm32wbxx_hal_flash_ex.c **** 
 197:Drivers/STM32WBxx_HAL_Driver/Src/stm32wbxx_hal_flash_ex.c ****     /* Flush the caches to be sure of the data consistency */
 198:Drivers/STM32WBxx_HAL_Driver/Src/stm32wbxx_hal_flash_ex.c ****     FLASH_FlushCaches();
 199:Drivers/STM32WBxx_HAL_Driver/Src/stm32wbxx_hal_flash_ex.c ****   }
 200:Drivers/STM32WBxx_HAL_Driver/Src/stm32wbxx_hal_flash_ex.c **** 
 201:Drivers/STM32WBxx_HAL_Driver/Src/stm32wbxx_hal_flash_ex.c ****   /* Process Unlocked */
 202:Drivers/STM32WBxx_HAL_Driver/Src/stm32wbxx_hal_flash_ex.c ****   __HAL_UNLOCK(&pFlash);
ARM GAS  C:\Users\Nathan\AppData\Local\Temp\cclrXYzQ.s 			page 5


 203:Drivers/STM32WBxx_HAL_Driver/Src/stm32wbxx_hal_flash_ex.c **** 
 204:Drivers/STM32WBxx_HAL_Driver/Src/stm32wbxx_hal_flash_ex.c ****   return status;
 205:Drivers/STM32WBxx_HAL_Driver/Src/stm32wbxx_hal_flash_ex.c **** }
 206:Drivers/STM32WBxx_HAL_Driver/Src/stm32wbxx_hal_flash_ex.c **** 
 207:Drivers/STM32WBxx_HAL_Driver/Src/stm32wbxx_hal_flash_ex.c **** /**
 208:Drivers/STM32WBxx_HAL_Driver/Src/stm32wbxx_hal_flash_ex.c ****   * @brief  Perform an erase of the specified FLASH memory pages with interrupt enabled.
 209:Drivers/STM32WBxx_HAL_Driver/Src/stm32wbxx_hal_flash_ex.c ****   * @note   Before any operation, it is possible to check there is no operation suspended
 210:Drivers/STM32WBxx_HAL_Driver/Src/stm32wbxx_hal_flash_ex.c ****   *         by call HAL_FLASHEx_IsOperationSuspended()
 211:Drivers/STM32WBxx_HAL_Driver/Src/stm32wbxx_hal_flash_ex.c ****   * @param  pEraseInit Pointer to an @ref FLASH_EraseInitTypeDef structure that
 212:Drivers/STM32WBxx_HAL_Driver/Src/stm32wbxx_hal_flash_ex.c ****   *         contains the configuration information for the erasing.
 213:Drivers/STM32WBxx_HAL_Driver/Src/stm32wbxx_hal_flash_ex.c ****   * @retval HAL Status
 214:Drivers/STM32WBxx_HAL_Driver/Src/stm32wbxx_hal_flash_ex.c ****   */
 215:Drivers/STM32WBxx_HAL_Driver/Src/stm32wbxx_hal_flash_ex.c **** HAL_StatusTypeDef HAL_FLASHEx_Erase_IT(FLASH_EraseInitTypeDef *pEraseInit)
 216:Drivers/STM32WBxx_HAL_Driver/Src/stm32wbxx_hal_flash_ex.c **** {
 217:Drivers/STM32WBxx_HAL_Driver/Src/stm32wbxx_hal_flash_ex.c ****   HAL_StatusTypeDef status;
 218:Drivers/STM32WBxx_HAL_Driver/Src/stm32wbxx_hal_flash_ex.c **** 
 219:Drivers/STM32WBxx_HAL_Driver/Src/stm32wbxx_hal_flash_ex.c ****   /* Check the parameters */
 220:Drivers/STM32WBxx_HAL_Driver/Src/stm32wbxx_hal_flash_ex.c ****   assert_param(IS_FLASH_TYPEERASE(pEraseInit->TypeErase));
 221:Drivers/STM32WBxx_HAL_Driver/Src/stm32wbxx_hal_flash_ex.c **** 
 222:Drivers/STM32WBxx_HAL_Driver/Src/stm32wbxx_hal_flash_ex.c ****   /* Process Locked */
 223:Drivers/STM32WBxx_HAL_Driver/Src/stm32wbxx_hal_flash_ex.c ****   __HAL_LOCK(&pFlash);
 224:Drivers/STM32WBxx_HAL_Driver/Src/stm32wbxx_hal_flash_ex.c **** 
 225:Drivers/STM32WBxx_HAL_Driver/Src/stm32wbxx_hal_flash_ex.c ****   /* Reset error code */
 226:Drivers/STM32WBxx_HAL_Driver/Src/stm32wbxx_hal_flash_ex.c ****   pFlash.ErrorCode = HAL_FLASH_ERROR_NONE;
 227:Drivers/STM32WBxx_HAL_Driver/Src/stm32wbxx_hal_flash_ex.c **** 
 228:Drivers/STM32WBxx_HAL_Driver/Src/stm32wbxx_hal_flash_ex.c ****   /* save procedure for interrupt treatment */
 229:Drivers/STM32WBxx_HAL_Driver/Src/stm32wbxx_hal_flash_ex.c ****   pFlash.ProcedureOnGoing = pEraseInit->TypeErase;
 230:Drivers/STM32WBxx_HAL_Driver/Src/stm32wbxx_hal_flash_ex.c **** 
 231:Drivers/STM32WBxx_HAL_Driver/Src/stm32wbxx_hal_flash_ex.c ****   /* Verify that next operation can be proceed */
 232:Drivers/STM32WBxx_HAL_Driver/Src/stm32wbxx_hal_flash_ex.c ****   status = FLASH_WaitForLastOperation(FLASH_TIMEOUT_VALUE);
 233:Drivers/STM32WBxx_HAL_Driver/Src/stm32wbxx_hal_flash_ex.c **** 
 234:Drivers/STM32WBxx_HAL_Driver/Src/stm32wbxx_hal_flash_ex.c ****   if (status != HAL_OK)
 235:Drivers/STM32WBxx_HAL_Driver/Src/stm32wbxx_hal_flash_ex.c ****   {
 236:Drivers/STM32WBxx_HAL_Driver/Src/stm32wbxx_hal_flash_ex.c ****     /* Process Unlocked */
 237:Drivers/STM32WBxx_HAL_Driver/Src/stm32wbxx_hal_flash_ex.c ****     __HAL_UNLOCK(&pFlash);
 238:Drivers/STM32WBxx_HAL_Driver/Src/stm32wbxx_hal_flash_ex.c ****   }
 239:Drivers/STM32WBxx_HAL_Driver/Src/stm32wbxx_hal_flash_ex.c ****   else
 240:Drivers/STM32WBxx_HAL_Driver/Src/stm32wbxx_hal_flash_ex.c ****   {
 241:Drivers/STM32WBxx_HAL_Driver/Src/stm32wbxx_hal_flash_ex.c ****     /* Enable End of Operation and Error interrupts */
 242:Drivers/STM32WBxx_HAL_Driver/Src/stm32wbxx_hal_flash_ex.c ****     __HAL_FLASH_ENABLE_IT(FLASH_IT_EOP | FLASH_IT_OPERR);
 243:Drivers/STM32WBxx_HAL_Driver/Src/stm32wbxx_hal_flash_ex.c **** 
 244:Drivers/STM32WBxx_HAL_Driver/Src/stm32wbxx_hal_flash_ex.c ****     if (pEraseInit->TypeErase == FLASH_TYPEERASE_PAGES)
 245:Drivers/STM32WBxx_HAL_Driver/Src/stm32wbxx_hal_flash_ex.c ****     {
 246:Drivers/STM32WBxx_HAL_Driver/Src/stm32wbxx_hal_flash_ex.c ****       /* Erase by page to be done */
 247:Drivers/STM32WBxx_HAL_Driver/Src/stm32wbxx_hal_flash_ex.c ****       pFlash.NbPagesToErase = pEraseInit->NbPages;
 248:Drivers/STM32WBxx_HAL_Driver/Src/stm32wbxx_hal_flash_ex.c ****       pFlash.Page = pEraseInit->Page;
 249:Drivers/STM32WBxx_HAL_Driver/Src/stm32wbxx_hal_flash_ex.c **** 
 250:Drivers/STM32WBxx_HAL_Driver/Src/stm32wbxx_hal_flash_ex.c ****       /*Erase 1st page and wait for IT */
 251:Drivers/STM32WBxx_HAL_Driver/Src/stm32wbxx_hal_flash_ex.c ****       FLASH_PageErase(pEraseInit->Page);
 252:Drivers/STM32WBxx_HAL_Driver/Src/stm32wbxx_hal_flash_ex.c ****     }
 253:Drivers/STM32WBxx_HAL_Driver/Src/stm32wbxx_hal_flash_ex.c ****   }
 254:Drivers/STM32WBxx_HAL_Driver/Src/stm32wbxx_hal_flash_ex.c **** 
 255:Drivers/STM32WBxx_HAL_Driver/Src/stm32wbxx_hal_flash_ex.c ****   /* return status */
 256:Drivers/STM32WBxx_HAL_Driver/Src/stm32wbxx_hal_flash_ex.c ****   return status;
 257:Drivers/STM32WBxx_HAL_Driver/Src/stm32wbxx_hal_flash_ex.c **** }
 258:Drivers/STM32WBxx_HAL_Driver/Src/stm32wbxx_hal_flash_ex.c **** 
 259:Drivers/STM32WBxx_HAL_Driver/Src/stm32wbxx_hal_flash_ex.c **** /**
ARM GAS  C:\Users\Nathan\AppData\Local\Temp\cclrXYzQ.s 			page 6


 260:Drivers/STM32WBxx_HAL_Driver/Src/stm32wbxx_hal_flash_ex.c ****   * @brief  Program Option bytes.
 261:Drivers/STM32WBxx_HAL_Driver/Src/stm32wbxx_hal_flash_ex.c ****   * @param  pOBInit Pointer to an @ref FLASH_OBProgramInitTypeDef structure that
 262:Drivers/STM32WBxx_HAL_Driver/Src/stm32wbxx_hal_flash_ex.c ****   *         contains the configuration information for the programming.
 263:Drivers/STM32WBxx_HAL_Driver/Src/stm32wbxx_hal_flash_ex.c ****   * @note   To configure any option bytes, the option lock bit OPTLOCK must be
 264:Drivers/STM32WBxx_HAL_Driver/Src/stm32wbxx_hal_flash_ex.c ****   *         cleared with the call of @ref HAL_FLASH_OB_Unlock() function.
 265:Drivers/STM32WBxx_HAL_Driver/Src/stm32wbxx_hal_flash_ex.c ****   * @note   New option bytes configuration will be taken into account only
 266:Drivers/STM32WBxx_HAL_Driver/Src/stm32wbxx_hal_flash_ex.c ****   *         - after an option bytes launch through the call of @ref HAL_FLASH_OB_Launch()
 267:Drivers/STM32WBxx_HAL_Driver/Src/stm32wbxx_hal_flash_ex.c ****   *         - a Power On Reset
 268:Drivers/STM32WBxx_HAL_Driver/Src/stm32wbxx_hal_flash_ex.c ****   *         - an exit from Standby or Shutdown mode.
 269:Drivers/STM32WBxx_HAL_Driver/Src/stm32wbxx_hal_flash_ex.c ****   * @retval HAL Status
 270:Drivers/STM32WBxx_HAL_Driver/Src/stm32wbxx_hal_flash_ex.c ****   */
 271:Drivers/STM32WBxx_HAL_Driver/Src/stm32wbxx_hal_flash_ex.c **** HAL_StatusTypeDef HAL_FLASHEx_OBProgram(FLASH_OBProgramInitTypeDef *pOBInit)
 272:Drivers/STM32WBxx_HAL_Driver/Src/stm32wbxx_hal_flash_ex.c **** {
 273:Drivers/STM32WBxx_HAL_Driver/Src/stm32wbxx_hal_flash_ex.c ****   uint32_t optr;
 274:Drivers/STM32WBxx_HAL_Driver/Src/stm32wbxx_hal_flash_ex.c ****   HAL_StatusTypeDef status;
 275:Drivers/STM32WBxx_HAL_Driver/Src/stm32wbxx_hal_flash_ex.c **** 
 276:Drivers/STM32WBxx_HAL_Driver/Src/stm32wbxx_hal_flash_ex.c ****   /* Check the parameters */
 277:Drivers/STM32WBxx_HAL_Driver/Src/stm32wbxx_hal_flash_ex.c ****   assert_param(IS_OPTIONBYTE(pOBInit->OptionType));
 278:Drivers/STM32WBxx_HAL_Driver/Src/stm32wbxx_hal_flash_ex.c **** 
 279:Drivers/STM32WBxx_HAL_Driver/Src/stm32wbxx_hal_flash_ex.c ****   /* Process Locked */
 280:Drivers/STM32WBxx_HAL_Driver/Src/stm32wbxx_hal_flash_ex.c ****   __HAL_LOCK(&pFlash);
 281:Drivers/STM32WBxx_HAL_Driver/Src/stm32wbxx_hal_flash_ex.c **** 
 282:Drivers/STM32WBxx_HAL_Driver/Src/stm32wbxx_hal_flash_ex.c ****   pFlash.ErrorCode = HAL_FLASH_ERROR_NONE;
 283:Drivers/STM32WBxx_HAL_Driver/Src/stm32wbxx_hal_flash_ex.c **** 
 284:Drivers/STM32WBxx_HAL_Driver/Src/stm32wbxx_hal_flash_ex.c ****   /* Write protection configuration */
 285:Drivers/STM32WBxx_HAL_Driver/Src/stm32wbxx_hal_flash_ex.c ****   if ((pOBInit->OptionType & OPTIONBYTE_WRP) != 0U)
 286:Drivers/STM32WBxx_HAL_Driver/Src/stm32wbxx_hal_flash_ex.c ****   {
 287:Drivers/STM32WBxx_HAL_Driver/Src/stm32wbxx_hal_flash_ex.c ****     /* Configure of Write protection on the selected area */
 288:Drivers/STM32WBxx_HAL_Driver/Src/stm32wbxx_hal_flash_ex.c ****     FLASH_OB_WRPConfig(pOBInit->WRPArea, pOBInit->WRPStartOffset, pOBInit->WRPEndOffset);
 289:Drivers/STM32WBxx_HAL_Driver/Src/stm32wbxx_hal_flash_ex.c ****   }
 290:Drivers/STM32WBxx_HAL_Driver/Src/stm32wbxx_hal_flash_ex.c **** 
 291:Drivers/STM32WBxx_HAL_Driver/Src/stm32wbxx_hal_flash_ex.c ****   /* Option register */
 292:Drivers/STM32WBxx_HAL_Driver/Src/stm32wbxx_hal_flash_ex.c ****   if ((pOBInit->OptionType & (OPTIONBYTE_RDP | OPTIONBYTE_USER)) == (OPTIONBYTE_RDP | OPTIONBYTE_US
 293:Drivers/STM32WBxx_HAL_Driver/Src/stm32wbxx_hal_flash_ex.c ****   {
 294:Drivers/STM32WBxx_HAL_Driver/Src/stm32wbxx_hal_flash_ex.c ****     /* Fully modify OPTR register with RDP & user data */
 295:Drivers/STM32WBxx_HAL_Driver/Src/stm32wbxx_hal_flash_ex.c ****     FLASH_OB_OptrConfig(pOBInit->UserType, pOBInit->UserConfig, pOBInit->RDPLevel);
 296:Drivers/STM32WBxx_HAL_Driver/Src/stm32wbxx_hal_flash_ex.c ****   }
 297:Drivers/STM32WBxx_HAL_Driver/Src/stm32wbxx_hal_flash_ex.c ****   else if ((pOBInit->OptionType & OPTIONBYTE_RDP) != 0U)
 298:Drivers/STM32WBxx_HAL_Driver/Src/stm32wbxx_hal_flash_ex.c ****   {
 299:Drivers/STM32WBxx_HAL_Driver/Src/stm32wbxx_hal_flash_ex.c ****     /* Only modify RDP so get current user data */
 300:Drivers/STM32WBxx_HAL_Driver/Src/stm32wbxx_hal_flash_ex.c ****     optr = FLASH_OB_GetUser();
 301:Drivers/STM32WBxx_HAL_Driver/Src/stm32wbxx_hal_flash_ex.c **** 
 302:Drivers/STM32WBxx_HAL_Driver/Src/stm32wbxx_hal_flash_ex.c ****     /* Remove BOR LEVEL User Type*/
 303:Drivers/STM32WBxx_HAL_Driver/Src/stm32wbxx_hal_flash_ex.c ****     optr &= ~OB_USER_BOR_LEV;
 304:Drivers/STM32WBxx_HAL_Driver/Src/stm32wbxx_hal_flash_ex.c **** 
 305:Drivers/STM32WBxx_HAL_Driver/Src/stm32wbxx_hal_flash_ex.c ****     FLASH_OB_OptrConfig(optr, optr, pOBInit->RDPLevel);
 306:Drivers/STM32WBxx_HAL_Driver/Src/stm32wbxx_hal_flash_ex.c ****   }
 307:Drivers/STM32WBxx_HAL_Driver/Src/stm32wbxx_hal_flash_ex.c ****   else if ((pOBInit->OptionType & OPTIONBYTE_USER) != 0U)
 308:Drivers/STM32WBxx_HAL_Driver/Src/stm32wbxx_hal_flash_ex.c ****   {
 309:Drivers/STM32WBxx_HAL_Driver/Src/stm32wbxx_hal_flash_ex.c ****     /* Only modify user so get current RDP level */
 310:Drivers/STM32WBxx_HAL_Driver/Src/stm32wbxx_hal_flash_ex.c ****     optr = FLASH_OB_GetRDP();
 311:Drivers/STM32WBxx_HAL_Driver/Src/stm32wbxx_hal_flash_ex.c ****     FLASH_OB_OptrConfig(pOBInit->UserType, pOBInit->UserConfig, optr);
 312:Drivers/STM32WBxx_HAL_Driver/Src/stm32wbxx_hal_flash_ex.c ****   }
 313:Drivers/STM32WBxx_HAL_Driver/Src/stm32wbxx_hal_flash_ex.c ****   else
 314:Drivers/STM32WBxx_HAL_Driver/Src/stm32wbxx_hal_flash_ex.c ****   {
 315:Drivers/STM32WBxx_HAL_Driver/Src/stm32wbxx_hal_flash_ex.c ****     /* Do Nothing */
 316:Drivers/STM32WBxx_HAL_Driver/Src/stm32wbxx_hal_flash_ex.c ****   }
ARM GAS  C:\Users\Nathan\AppData\Local\Temp\cclrXYzQ.s 			page 7


 317:Drivers/STM32WBxx_HAL_Driver/Src/stm32wbxx_hal_flash_ex.c **** 
 318:Drivers/STM32WBxx_HAL_Driver/Src/stm32wbxx_hal_flash_ex.c ****   /* PCROP Configuration */
 319:Drivers/STM32WBxx_HAL_Driver/Src/stm32wbxx_hal_flash_ex.c ****   if ((pOBInit->OptionType & OPTIONBYTE_PCROP) != 0U)
 320:Drivers/STM32WBxx_HAL_Driver/Src/stm32wbxx_hal_flash_ex.c ****   {
 321:Drivers/STM32WBxx_HAL_Driver/Src/stm32wbxx_hal_flash_ex.c ****     /* Check the parameters */
 322:Drivers/STM32WBxx_HAL_Driver/Src/stm32wbxx_hal_flash_ex.c ****     assert_param(IS_OB_PCROP_CONFIG(pOBInit->PCROPConfig));
 323:Drivers/STM32WBxx_HAL_Driver/Src/stm32wbxx_hal_flash_ex.c **** 
 324:Drivers/STM32WBxx_HAL_Driver/Src/stm32wbxx_hal_flash_ex.c ****     if ((pOBInit->PCROPConfig & (OB_PCROP_ZONE_A | OB_PCROP_RDP_ERASE)) != 0U)
 325:Drivers/STM32WBxx_HAL_Driver/Src/stm32wbxx_hal_flash_ex.c ****     {
 326:Drivers/STM32WBxx_HAL_Driver/Src/stm32wbxx_hal_flash_ex.c ****       /* Configure the Zone 1A Proprietary code readout protection */
 327:Drivers/STM32WBxx_HAL_Driver/Src/stm32wbxx_hal_flash_ex.c ****       FLASH_OB_PCROP1AConfig(pOBInit->PCROPConfig, pOBInit->PCROP1AStartAddr, pOBInit->PCROP1AEndAd
 328:Drivers/STM32WBxx_HAL_Driver/Src/stm32wbxx_hal_flash_ex.c ****     }
 329:Drivers/STM32WBxx_HAL_Driver/Src/stm32wbxx_hal_flash_ex.c **** 
 330:Drivers/STM32WBxx_HAL_Driver/Src/stm32wbxx_hal_flash_ex.c ****     if ((pOBInit->PCROPConfig & OB_PCROP_ZONE_B) != 0U)
 331:Drivers/STM32WBxx_HAL_Driver/Src/stm32wbxx_hal_flash_ex.c ****     {
 332:Drivers/STM32WBxx_HAL_Driver/Src/stm32wbxx_hal_flash_ex.c ****       /* Configure the Zone 1B Proprietary code readout protection */
 333:Drivers/STM32WBxx_HAL_Driver/Src/stm32wbxx_hal_flash_ex.c ****       FLASH_OB_PCROP1BConfig(pOBInit->PCROP1BStartAddr, pOBInit->PCROP1BEndAddr);
 334:Drivers/STM32WBxx_HAL_Driver/Src/stm32wbxx_hal_flash_ex.c ****     }
 335:Drivers/STM32WBxx_HAL_Driver/Src/stm32wbxx_hal_flash_ex.c ****   }
 336:Drivers/STM32WBxx_HAL_Driver/Src/stm32wbxx_hal_flash_ex.c **** 
 337:Drivers/STM32WBxx_HAL_Driver/Src/stm32wbxx_hal_flash_ex.c ****   /*  Secure mode and CPU2 Boot Vector */
 338:Drivers/STM32WBxx_HAL_Driver/Src/stm32wbxx_hal_flash_ex.c ****   if ((pOBInit->OptionType & (OPTIONBYTE_SECURE_MODE | OPTIONBYTE_C2_BOOT_VECT)) != 0U)
 339:Drivers/STM32WBxx_HAL_Driver/Src/stm32wbxx_hal_flash_ex.c ****   {
 340:Drivers/STM32WBxx_HAL_Driver/Src/stm32wbxx_hal_flash_ex.c ****     /* Set the secure flash and SRAM memory start address */
 341:Drivers/STM32WBxx_HAL_Driver/Src/stm32wbxx_hal_flash_ex.c ****     FLASH_OB_SecureConfig(pOBInit);
 342:Drivers/STM32WBxx_HAL_Driver/Src/stm32wbxx_hal_flash_ex.c ****   }
 343:Drivers/STM32WBxx_HAL_Driver/Src/stm32wbxx_hal_flash_ex.c **** 
 344:Drivers/STM32WBxx_HAL_Driver/Src/stm32wbxx_hal_flash_ex.c ****   /* IPCC mailbox data buffer address */
 345:Drivers/STM32WBxx_HAL_Driver/Src/stm32wbxx_hal_flash_ex.c ****   if ((pOBInit->OptionType & OPTIONBYTE_IPCC_BUF_ADDR) != 0U)
 346:Drivers/STM32WBxx_HAL_Driver/Src/stm32wbxx_hal_flash_ex.c ****   {
 347:Drivers/STM32WBxx_HAL_Driver/Src/stm32wbxx_hal_flash_ex.c ****     /* Configure the IPCC data buffer address */
 348:Drivers/STM32WBxx_HAL_Driver/Src/stm32wbxx_hal_flash_ex.c ****     FLASH_OB_IPCCBufferAddrConfig(pOBInit->IPCCdataBufAddr);
 349:Drivers/STM32WBxx_HAL_Driver/Src/stm32wbxx_hal_flash_ex.c ****   }
 350:Drivers/STM32WBxx_HAL_Driver/Src/stm32wbxx_hal_flash_ex.c **** 
 351:Drivers/STM32WBxx_HAL_Driver/Src/stm32wbxx_hal_flash_ex.c ****   /* Proceed the OB Write Operation */
 352:Drivers/STM32WBxx_HAL_Driver/Src/stm32wbxx_hal_flash_ex.c ****   status = FLASH_OB_ProceedWriteOperation();
 353:Drivers/STM32WBxx_HAL_Driver/Src/stm32wbxx_hal_flash_ex.c **** 
 354:Drivers/STM32WBxx_HAL_Driver/Src/stm32wbxx_hal_flash_ex.c ****   /* Process Unlocked */
 355:Drivers/STM32WBxx_HAL_Driver/Src/stm32wbxx_hal_flash_ex.c ****   __HAL_UNLOCK(&pFlash);
 356:Drivers/STM32WBxx_HAL_Driver/Src/stm32wbxx_hal_flash_ex.c **** 
 357:Drivers/STM32WBxx_HAL_Driver/Src/stm32wbxx_hal_flash_ex.c ****   /* return status */
 358:Drivers/STM32WBxx_HAL_Driver/Src/stm32wbxx_hal_flash_ex.c ****   return status;
 359:Drivers/STM32WBxx_HAL_Driver/Src/stm32wbxx_hal_flash_ex.c **** }
 360:Drivers/STM32WBxx_HAL_Driver/Src/stm32wbxx_hal_flash_ex.c **** 
 361:Drivers/STM32WBxx_HAL_Driver/Src/stm32wbxx_hal_flash_ex.c **** /**
 362:Drivers/STM32WBxx_HAL_Driver/Src/stm32wbxx_hal_flash_ex.c ****   * @brief  Get the Option bytes configuration.
 363:Drivers/STM32WBxx_HAL_Driver/Src/stm32wbxx_hal_flash_ex.c ****   * @note   warning: this API only read flash register, it does not reflect any
 364:Drivers/STM32WBxx_HAL_Driver/Src/stm32wbxx_hal_flash_ex.c ****   *         change that would have been programmed between previous Option byte
 365:Drivers/STM32WBxx_HAL_Driver/Src/stm32wbxx_hal_flash_ex.c ****   *         loading and current call.
 366:Drivers/STM32WBxx_HAL_Driver/Src/stm32wbxx_hal_flash_ex.c ****   * @param  pOBInit Pointer to an @ref FLASH_OBProgramInitTypeDef structure that contains the
 367:Drivers/STM32WBxx_HAL_Driver/Src/stm32wbxx_hal_flash_ex.c ****   *                  configuration information. The fields pOBInit->WRPArea and
 368:Drivers/STM32WBxx_HAL_Driver/Src/stm32wbxx_hal_flash_ex.c ****   *                  pOBInit->PCROPConfig should indicate which area is requested
 369:Drivers/STM32WBxx_HAL_Driver/Src/stm32wbxx_hal_flash_ex.c ****   *                  for the WRP and PCROP.
 370:Drivers/STM32WBxx_HAL_Driver/Src/stm32wbxx_hal_flash_ex.c ****   * @retval None
 371:Drivers/STM32WBxx_HAL_Driver/Src/stm32wbxx_hal_flash_ex.c ****   */
 372:Drivers/STM32WBxx_HAL_Driver/Src/stm32wbxx_hal_flash_ex.c **** void HAL_FLASHEx_OBGetConfig(FLASH_OBProgramInitTypeDef *pOBInit)
 373:Drivers/STM32WBxx_HAL_Driver/Src/stm32wbxx_hal_flash_ex.c **** {
ARM GAS  C:\Users\Nathan\AppData\Local\Temp\cclrXYzQ.s 			page 8


 374:Drivers/STM32WBxx_HAL_Driver/Src/stm32wbxx_hal_flash_ex.c ****   pOBInit->OptionType = OPTIONBYTE_ALL;
 375:Drivers/STM32WBxx_HAL_Driver/Src/stm32wbxx_hal_flash_ex.c **** 
 376:Drivers/STM32WBxx_HAL_Driver/Src/stm32wbxx_hal_flash_ex.c ****   if ((pOBInit->WRPArea == OB_WRPAREA_BANK1_AREAA) || (pOBInit->WRPArea == OB_WRPAREA_BANK1_AREAB))
 377:Drivers/STM32WBxx_HAL_Driver/Src/stm32wbxx_hal_flash_ex.c ****   {
 378:Drivers/STM32WBxx_HAL_Driver/Src/stm32wbxx_hal_flash_ex.c ****     /* Get write protection on the selected area */
 379:Drivers/STM32WBxx_HAL_Driver/Src/stm32wbxx_hal_flash_ex.c ****     FLASH_OB_GetWRP(pOBInit->WRPArea, &(pOBInit->WRPStartOffset), &(pOBInit->WRPEndOffset));
 380:Drivers/STM32WBxx_HAL_Driver/Src/stm32wbxx_hal_flash_ex.c ****   }
 381:Drivers/STM32WBxx_HAL_Driver/Src/stm32wbxx_hal_flash_ex.c **** 
 382:Drivers/STM32WBxx_HAL_Driver/Src/stm32wbxx_hal_flash_ex.c ****   /* Get Read protection level */
 383:Drivers/STM32WBxx_HAL_Driver/Src/stm32wbxx_hal_flash_ex.c ****   pOBInit->RDPLevel = FLASH_OB_GetRDP();
 384:Drivers/STM32WBxx_HAL_Driver/Src/stm32wbxx_hal_flash_ex.c **** 
 385:Drivers/STM32WBxx_HAL_Driver/Src/stm32wbxx_hal_flash_ex.c ****   /* Get the user option bytes */
 386:Drivers/STM32WBxx_HAL_Driver/Src/stm32wbxx_hal_flash_ex.c ****   pOBInit->UserConfig = FLASH_OB_GetUser();
 387:Drivers/STM32WBxx_HAL_Driver/Src/stm32wbxx_hal_flash_ex.c ****   pOBInit->UserType = OB_USER_ALL;
 388:Drivers/STM32WBxx_HAL_Driver/Src/stm32wbxx_hal_flash_ex.c **** 
 389:Drivers/STM32WBxx_HAL_Driver/Src/stm32wbxx_hal_flash_ex.c ****   /* Get the Zone 1A and 1B Proprietary code readout protection */
 390:Drivers/STM32WBxx_HAL_Driver/Src/stm32wbxx_hal_flash_ex.c ****   FLASH_OB_GetPCROP(&(pOBInit->PCROPConfig), &(pOBInit->PCROP1AStartAddr), &(pOBInit->PCROP1AEndAdd
 391:Drivers/STM32WBxx_HAL_Driver/Src/stm32wbxx_hal_flash_ex.c ****                     &(pOBInit->PCROP1BStartAddr), &(pOBInit->PCROP1BEndAddr));
 392:Drivers/STM32WBxx_HAL_Driver/Src/stm32wbxx_hal_flash_ex.c ****   pOBInit->PCROPConfig |= (OB_PCROP_ZONE_A | OB_PCROP_ZONE_B);
 393:Drivers/STM32WBxx_HAL_Driver/Src/stm32wbxx_hal_flash_ex.c **** 
 394:Drivers/STM32WBxx_HAL_Driver/Src/stm32wbxx_hal_flash_ex.c ****   /* Get the IPCC start Address */
 395:Drivers/STM32WBxx_HAL_Driver/Src/stm32wbxx_hal_flash_ex.c ****   pOBInit->IPCCdataBufAddr = FLASH_OB_GetIPCCBufferAddr();
 396:Drivers/STM32WBxx_HAL_Driver/Src/stm32wbxx_hal_flash_ex.c **** 
 397:Drivers/STM32WBxx_HAL_Driver/Src/stm32wbxx_hal_flash_ex.c ****   /* Get the Secure Flash start address, Secure Backup RAM2a start address, Secure non-Backup RAM2b
 398:Drivers/STM32WBxx_HAL_Driver/Src/stm32wbxx_hal_flash_ex.c ****   FLASH_OB_GetSecureMemoryConfig(&(pOBInit->SecureFlashStartAddr), &(pOBInit->SecureRAM2aStartAddr)
 399:Drivers/STM32WBxx_HAL_Driver/Src/stm32wbxx_hal_flash_ex.c ****                                  &(pOBInit->SecureRAM2bStartAddr), &(pOBInit->SecureMode));
 400:Drivers/STM32WBxx_HAL_Driver/Src/stm32wbxx_hal_flash_ex.c **** 
 401:Drivers/STM32WBxx_HAL_Driver/Src/stm32wbxx_hal_flash_ex.c ****   /* Get the M0+ Secure Boot reset vector and Secure Boot memory selection */
 402:Drivers/STM32WBxx_HAL_Driver/Src/stm32wbxx_hal_flash_ex.c ****   FLASH_OB_GetC2BootResetConfig(&(pOBInit->C2SecureBootVectAddr), &(pOBInit->C2BootRegion));
 403:Drivers/STM32WBxx_HAL_Driver/Src/stm32wbxx_hal_flash_ex.c **** }
 404:Drivers/STM32WBxx_HAL_Driver/Src/stm32wbxx_hal_flash_ex.c **** 
 405:Drivers/STM32WBxx_HAL_Driver/Src/stm32wbxx_hal_flash_ex.c **** /**
 406:Drivers/STM32WBxx_HAL_Driver/Src/stm32wbxx_hal_flash_ex.c ****   * @brief  Flash Empty check
 407:Drivers/STM32WBxx_HAL_Driver/Src/stm32wbxx_hal_flash_ex.c ****   * @note   This API checks if first location in Flash is programmed or not.
 408:Drivers/STM32WBxx_HAL_Driver/Src/stm32wbxx_hal_flash_ex.c ****   *         This check is done once by Option Byte Loader.
 409:Drivers/STM32WBxx_HAL_Driver/Src/stm32wbxx_hal_flash_ex.c ****   * @retval Returned value can be one of the following values:
 410:Drivers/STM32WBxx_HAL_Driver/Src/stm32wbxx_hal_flash_ex.c ****   *         @arg @ref FLASH_PROG_NOT_EMPTY 1st location in Flash is programmed
 411:Drivers/STM32WBxx_HAL_Driver/Src/stm32wbxx_hal_flash_ex.c ****   *         @arg @ref FLASH_PROG_EMPTY 1st location in Flash is empty
 412:Drivers/STM32WBxx_HAL_Driver/Src/stm32wbxx_hal_flash_ex.c ****   */
 413:Drivers/STM32WBxx_HAL_Driver/Src/stm32wbxx_hal_flash_ex.c **** uint32_t HAL_FLASHEx_FlashEmptyCheck(void)
 414:Drivers/STM32WBxx_HAL_Driver/Src/stm32wbxx_hal_flash_ex.c **** {
 415:Drivers/STM32WBxx_HAL_Driver/Src/stm32wbxx_hal_flash_ex.c ****   return (READ_BIT(FLASH->ACR, FLASH_ACR_EMPTY));
 416:Drivers/STM32WBxx_HAL_Driver/Src/stm32wbxx_hal_flash_ex.c **** }
 417:Drivers/STM32WBxx_HAL_Driver/Src/stm32wbxx_hal_flash_ex.c **** 
 418:Drivers/STM32WBxx_HAL_Driver/Src/stm32wbxx_hal_flash_ex.c **** 
 419:Drivers/STM32WBxx_HAL_Driver/Src/stm32wbxx_hal_flash_ex.c **** /**
 420:Drivers/STM32WBxx_HAL_Driver/Src/stm32wbxx_hal_flash_ex.c ****   * @brief  Force Empty check value.
 421:Drivers/STM32WBxx_HAL_Driver/Src/stm32wbxx_hal_flash_ex.c ****   * @note   Allows to modify program empty check value in order to force this
 422:Drivers/STM32WBxx_HAL_Driver/Src/stm32wbxx_hal_flash_ex.c ****   *         information in Flash Interface, for all next reset that do not launch
 423:Drivers/STM32WBxx_HAL_Driver/Src/stm32wbxx_hal_flash_ex.c ****   *         Option Byte Loader.
 424:Drivers/STM32WBxx_HAL_Driver/Src/stm32wbxx_hal_flash_ex.c ****   * @param  FlashEmpty Specifies the empty check value
 425:Drivers/STM32WBxx_HAL_Driver/Src/stm32wbxx_hal_flash_ex.c ****   *          This parameter can be one of the following values:
 426:Drivers/STM32WBxx_HAL_Driver/Src/stm32wbxx_hal_flash_ex.c ****   *            @arg @ref FLASH_PROG_NOT_EMPTY 1st location in Flash is programmed
 427:Drivers/STM32WBxx_HAL_Driver/Src/stm32wbxx_hal_flash_ex.c ****   *            @arg @ref FLASH_PROG_EMPTY 1st location in Flash is empty
 428:Drivers/STM32WBxx_HAL_Driver/Src/stm32wbxx_hal_flash_ex.c ****   * @retval None
 429:Drivers/STM32WBxx_HAL_Driver/Src/stm32wbxx_hal_flash_ex.c ****   */
 430:Drivers/STM32WBxx_HAL_Driver/Src/stm32wbxx_hal_flash_ex.c **** void HAL_FLASHEx_ForceFlashEmpty(uint32_t FlashEmpty)
ARM GAS  C:\Users\Nathan\AppData\Local\Temp\cclrXYzQ.s 			page 9


 431:Drivers/STM32WBxx_HAL_Driver/Src/stm32wbxx_hal_flash_ex.c **** {
 432:Drivers/STM32WBxx_HAL_Driver/Src/stm32wbxx_hal_flash_ex.c ****   assert_param(IS_FLASH_EMPTY_CHECK(FlashEmpty));
 433:Drivers/STM32WBxx_HAL_Driver/Src/stm32wbxx_hal_flash_ex.c **** 
 434:Drivers/STM32WBxx_HAL_Driver/Src/stm32wbxx_hal_flash_ex.c ****   MODIFY_REG(FLASH->ACR, FLASH_ACR_EMPTY, FlashEmpty);
 435:Drivers/STM32WBxx_HAL_Driver/Src/stm32wbxx_hal_flash_ex.c **** }
 436:Drivers/STM32WBxx_HAL_Driver/Src/stm32wbxx_hal_flash_ex.c **** 
 437:Drivers/STM32WBxx_HAL_Driver/Src/stm32wbxx_hal_flash_ex.c **** /**
 438:Drivers/STM32WBxx_HAL_Driver/Src/stm32wbxx_hal_flash_ex.c ****   * @brief  Suspend new program or erase operation request.
 439:Drivers/STM32WBxx_HAL_Driver/Src/stm32wbxx_hal_flash_ex.c ****   * @note   Any new Flash program and erase operation on both CPU side will be suspended
 440:Drivers/STM32WBxx_HAL_Driver/Src/stm32wbxx_hal_flash_ex.c ****   *         until this bit and the same bit in Flash CPU2 access control register (FLASH_C2ACR) are
 441:Drivers/STM32WBxx_HAL_Driver/Src/stm32wbxx_hal_flash_ex.c ****   *         cleared. The PESD bit in both the Flash status register (FLASH_SR) and Flash
 442:Drivers/STM32WBxx_HAL_Driver/Src/stm32wbxx_hal_flash_ex.c ****   *         CPU2 status register (FLASH_C2SR) register will be set when at least one PES
 443:Drivers/STM32WBxx_HAL_Driver/Src/stm32wbxx_hal_flash_ex.c ****   *         bit in FLASH_ACR or FLASH_C2ACR is set.
 444:Drivers/STM32WBxx_HAL_Driver/Src/stm32wbxx_hal_flash_ex.c ****   * @retval None
 445:Drivers/STM32WBxx_HAL_Driver/Src/stm32wbxx_hal_flash_ex.c ****   */
 446:Drivers/STM32WBxx_HAL_Driver/Src/stm32wbxx_hal_flash_ex.c **** void HAL_FLASHEx_SuspendOperation(void)
 447:Drivers/STM32WBxx_HAL_Driver/Src/stm32wbxx_hal_flash_ex.c **** {
 448:Drivers/STM32WBxx_HAL_Driver/Src/stm32wbxx_hal_flash_ex.c ****   SET_BIT(FLASH->ACR, FLASH_ACR_PES);
 449:Drivers/STM32WBxx_HAL_Driver/Src/stm32wbxx_hal_flash_ex.c **** }
 450:Drivers/STM32WBxx_HAL_Driver/Src/stm32wbxx_hal_flash_ex.c **** 
 451:Drivers/STM32WBxx_HAL_Driver/Src/stm32wbxx_hal_flash_ex.c **** /**
 452:Drivers/STM32WBxx_HAL_Driver/Src/stm32wbxx_hal_flash_ex.c ****   * @brief  Allow new program or erase operation request.
 453:Drivers/STM32WBxx_HAL_Driver/Src/stm32wbxx_hal_flash_ex.c ****   * @note   Any new Flash program and erase operation on both CPU side will be allowed
 454:Drivers/STM32WBxx_HAL_Driver/Src/stm32wbxx_hal_flash_ex.c ****   *         until one of this bit or the same bit in Flash CPU2 access control register (FLASH_C2AC
 455:Drivers/STM32WBxx_HAL_Driver/Src/stm32wbxx_hal_flash_ex.c ****   *         set. The PESD bit in both the Flash status register (FLASH_SR) and Flash
 456:Drivers/STM32WBxx_HAL_Driver/Src/stm32wbxx_hal_flash_ex.c ****   *         CPU2 status register (FLASH_C2SR) register will be clear when both PES
 457:Drivers/STM32WBxx_HAL_Driver/Src/stm32wbxx_hal_flash_ex.c ****   *         bit in FLASH_ACR or FLASH_C2ACR is cleared.
 458:Drivers/STM32WBxx_HAL_Driver/Src/stm32wbxx_hal_flash_ex.c ****   * @retval None
 459:Drivers/STM32WBxx_HAL_Driver/Src/stm32wbxx_hal_flash_ex.c ****   */
 460:Drivers/STM32WBxx_HAL_Driver/Src/stm32wbxx_hal_flash_ex.c **** void HAL_FLASHEx_AllowOperation(void)
 461:Drivers/STM32WBxx_HAL_Driver/Src/stm32wbxx_hal_flash_ex.c **** {
 462:Drivers/STM32WBxx_HAL_Driver/Src/stm32wbxx_hal_flash_ex.c ****   CLEAR_BIT(FLASH->ACR, FLASH_ACR_PES);
 463:Drivers/STM32WBxx_HAL_Driver/Src/stm32wbxx_hal_flash_ex.c **** }
 464:Drivers/STM32WBxx_HAL_Driver/Src/stm32wbxx_hal_flash_ex.c **** 
 465:Drivers/STM32WBxx_HAL_Driver/Src/stm32wbxx_hal_flash_ex.c **** /**
 466:Drivers/STM32WBxx_HAL_Driver/Src/stm32wbxx_hal_flash_ex.c ****   * @brief  Check if new program or erase operation request from CPU1 or CPU2 is suspended
 467:Drivers/STM32WBxx_HAL_Driver/Src/stm32wbxx_hal_flash_ex.c ****   * @note   Any new Flash program and erase operation on both CPU side will be allowed
 468:Drivers/STM32WBxx_HAL_Driver/Src/stm32wbxx_hal_flash_ex.c ****   *         until one of this bit or the same bit in Flash CPU2 access control register (FLASH_C2AC
 469:Drivers/STM32WBxx_HAL_Driver/Src/stm32wbxx_hal_flash_ex.c ****   *         set. The PESD bit in both the Flash status register (FLASH_SR) and Flash
 470:Drivers/STM32WBxx_HAL_Driver/Src/stm32wbxx_hal_flash_ex.c ****   *         CPU2 status register (FLASH_C2SR) register will be cleared when both PES
 471:Drivers/STM32WBxx_HAL_Driver/Src/stm32wbxx_hal_flash_ex.c ****   *         bit in FLASH_ACR and FLASH_C2ACR are cleared.
 472:Drivers/STM32WBxx_HAL_Driver/Src/stm32wbxx_hal_flash_ex.c ****   * @retval Status
 473:Drivers/STM32WBxx_HAL_Driver/Src/stm32wbxx_hal_flash_ex.c ****   *          - 0 : No suspended flash operation
 474:Drivers/STM32WBxx_HAL_Driver/Src/stm32wbxx_hal_flash_ex.c ****   *          - 1 : Flash operation is suspended
 475:Drivers/STM32WBxx_HAL_Driver/Src/stm32wbxx_hal_flash_ex.c ****   */
 476:Drivers/STM32WBxx_HAL_Driver/Src/stm32wbxx_hal_flash_ex.c **** uint32_t HAL_FLASHEx_IsOperationSuspended(void)
 477:Drivers/STM32WBxx_HAL_Driver/Src/stm32wbxx_hal_flash_ex.c **** {
 478:Drivers/STM32WBxx_HAL_Driver/Src/stm32wbxx_hal_flash_ex.c ****   uint32_t status = 0U;
 479:Drivers/STM32WBxx_HAL_Driver/Src/stm32wbxx_hal_flash_ex.c **** 
 480:Drivers/STM32WBxx_HAL_Driver/Src/stm32wbxx_hal_flash_ex.c ****   if (READ_BIT(FLASH->SR, FLASH_SR_PESD) == FLASH_SR_PESD)
 481:Drivers/STM32WBxx_HAL_Driver/Src/stm32wbxx_hal_flash_ex.c ****   {
 482:Drivers/STM32WBxx_HAL_Driver/Src/stm32wbxx_hal_flash_ex.c ****     status = 1U;
 483:Drivers/STM32WBxx_HAL_Driver/Src/stm32wbxx_hal_flash_ex.c ****   }
 484:Drivers/STM32WBxx_HAL_Driver/Src/stm32wbxx_hal_flash_ex.c **** 
 485:Drivers/STM32WBxx_HAL_Driver/Src/stm32wbxx_hal_flash_ex.c ****   return status;
 486:Drivers/STM32WBxx_HAL_Driver/Src/stm32wbxx_hal_flash_ex.c **** }
 487:Drivers/STM32WBxx_HAL_Driver/Src/stm32wbxx_hal_flash_ex.c **** 
ARM GAS  C:\Users\Nathan\AppData\Local\Temp\cclrXYzQ.s 			page 10


 488:Drivers/STM32WBxx_HAL_Driver/Src/stm32wbxx_hal_flash_ex.c **** /**
 489:Drivers/STM32WBxx_HAL_Driver/Src/stm32wbxx_hal_flash_ex.c ****   * @}
 490:Drivers/STM32WBxx_HAL_Driver/Src/stm32wbxx_hal_flash_ex.c ****   */
 491:Drivers/STM32WBxx_HAL_Driver/Src/stm32wbxx_hal_flash_ex.c **** 
 492:Drivers/STM32WBxx_HAL_Driver/Src/stm32wbxx_hal_flash_ex.c **** /**
 493:Drivers/STM32WBxx_HAL_Driver/Src/stm32wbxx_hal_flash_ex.c ****   * @}
 494:Drivers/STM32WBxx_HAL_Driver/Src/stm32wbxx_hal_flash_ex.c ****   */
 495:Drivers/STM32WBxx_HAL_Driver/Src/stm32wbxx_hal_flash_ex.c **** 
 496:Drivers/STM32WBxx_HAL_Driver/Src/stm32wbxx_hal_flash_ex.c **** /* Private functions ---------------------------------------------------------*/
 497:Drivers/STM32WBxx_HAL_Driver/Src/stm32wbxx_hal_flash_ex.c **** /** @addtogroup FLASHEx_Private_Functions
 498:Drivers/STM32WBxx_HAL_Driver/Src/stm32wbxx_hal_flash_ex.c ****   * @{
 499:Drivers/STM32WBxx_HAL_Driver/Src/stm32wbxx_hal_flash_ex.c ****   */
 500:Drivers/STM32WBxx_HAL_Driver/Src/stm32wbxx_hal_flash_ex.c **** 
 501:Drivers/STM32WBxx_HAL_Driver/Src/stm32wbxx_hal_flash_ex.c **** /**
 502:Drivers/STM32WBxx_HAL_Driver/Src/stm32wbxx_hal_flash_ex.c ****   * @brief  Erase the specified FLASH memory page.
 503:Drivers/STM32WBxx_HAL_Driver/Src/stm32wbxx_hal_flash_ex.c ****   * @param  Page FLASH page to erase
 504:Drivers/STM32WBxx_HAL_Driver/Src/stm32wbxx_hal_flash_ex.c ****   *         This parameter must be a value between 0 and (max number of pages in Flash - 1)
 505:Drivers/STM32WBxx_HAL_Driver/Src/stm32wbxx_hal_flash_ex.c ****   * @retval None
 506:Drivers/STM32WBxx_HAL_Driver/Src/stm32wbxx_hal_flash_ex.c ****   */
 507:Drivers/STM32WBxx_HAL_Driver/Src/stm32wbxx_hal_flash_ex.c **** void FLASH_PageErase(uint32_t Page)
 508:Drivers/STM32WBxx_HAL_Driver/Src/stm32wbxx_hal_flash_ex.c **** {
 509:Drivers/STM32WBxx_HAL_Driver/Src/stm32wbxx_hal_flash_ex.c ****   /* Check the parameters */
 510:Drivers/STM32WBxx_HAL_Driver/Src/stm32wbxx_hal_flash_ex.c ****   assert_param(IS_FLASH_PAGE(Page));
 511:Drivers/STM32WBxx_HAL_Driver/Src/stm32wbxx_hal_flash_ex.c **** 
 512:Drivers/STM32WBxx_HAL_Driver/Src/stm32wbxx_hal_flash_ex.c ****   /* Proceed to erase the page */
 513:Drivers/STM32WBxx_HAL_Driver/Src/stm32wbxx_hal_flash_ex.c ****   MODIFY_REG(FLASH->CR, FLASH_CR_PNB, ((Page << FLASH_CR_PNB_Pos) | FLASH_CR_PER | FLASH_CR_STRT));
 514:Drivers/STM32WBxx_HAL_Driver/Src/stm32wbxx_hal_flash_ex.c **** }
 515:Drivers/STM32WBxx_HAL_Driver/Src/stm32wbxx_hal_flash_ex.c **** 
 516:Drivers/STM32WBxx_HAL_Driver/Src/stm32wbxx_hal_flash_ex.c **** /**
 517:Drivers/STM32WBxx_HAL_Driver/Src/stm32wbxx_hal_flash_ex.c ****   * @brief  Flush the instruction and data caches.
 518:Drivers/STM32WBxx_HAL_Driver/Src/stm32wbxx_hal_flash_ex.c ****   * @retval None
 519:Drivers/STM32WBxx_HAL_Driver/Src/stm32wbxx_hal_flash_ex.c ****   */
 520:Drivers/STM32WBxx_HAL_Driver/Src/stm32wbxx_hal_flash_ex.c **** static void FLASH_FlushCaches(void)
 521:Drivers/STM32WBxx_HAL_Driver/Src/stm32wbxx_hal_flash_ex.c **** {
  28              		.loc 1 521 1 view -0
  29              		.cfi_startproc
  30              		@ args = 0, pretend = 0, frame = 0
  31              		@ frame_needed = 0, uses_anonymous_args = 0
  32              		@ link register save eliminated.
 522:Drivers/STM32WBxx_HAL_Driver/Src/stm32wbxx_hal_flash_ex.c ****   /* Flush instruction cache  */
 523:Drivers/STM32WBxx_HAL_Driver/Src/stm32wbxx_hal_flash_ex.c ****   if (READ_BIT(FLASH->ACR, FLASH_ACR_ICEN) == FLASH_ACR_ICEN)
  33              		.loc 1 523 3 view .LVU1
  34              		.loc 1 523 7 is_stmt 0 view .LVU2
  35 0000 164B     		ldr	r3, .L4
  36 0002 1B68     		ldr	r3, [r3]
  37              		.loc 1 523 6 view .LVU3
  38 0004 13F4007F 		tst	r3, #512
  39 0008 10D0     		beq	.L2
 524:Drivers/STM32WBxx_HAL_Driver/Src/stm32wbxx_hal_flash_ex.c ****   {
 525:Drivers/STM32WBxx_HAL_Driver/Src/stm32wbxx_hal_flash_ex.c ****     /* Disable instruction cache  */
 526:Drivers/STM32WBxx_HAL_Driver/Src/stm32wbxx_hal_flash_ex.c ****     __HAL_FLASH_INSTRUCTION_CACHE_DISABLE();
  40              		.loc 1 526 5 is_stmt 1 view .LVU4
  41 000a 144B     		ldr	r3, .L4
  42 000c 1A68     		ldr	r2, [r3]
  43 000e 22F40072 		bic	r2, r2, #512
  44 0012 1A60     		str	r2, [r3]
 527:Drivers/STM32WBxx_HAL_Driver/Src/stm32wbxx_hal_flash_ex.c ****     /* Reset instruction cache */
ARM GAS  C:\Users\Nathan\AppData\Local\Temp\cclrXYzQ.s 			page 11


 528:Drivers/STM32WBxx_HAL_Driver/Src/stm32wbxx_hal_flash_ex.c ****     __HAL_FLASH_INSTRUCTION_CACHE_RESET();
  45              		.loc 1 528 5 view .LVU5
  46              		.loc 1 528 5 view .LVU6
  47 0014 1A68     		ldr	r2, [r3]
  48 0016 42F40062 		orr	r2, r2, #2048
  49 001a 1A60     		str	r2, [r3]
  50              		.loc 1 528 5 view .LVU7
  51 001c 1A68     		ldr	r2, [r3]
  52 001e 22F40062 		bic	r2, r2, #2048
  53 0022 1A60     		str	r2, [r3]
  54              		.loc 1 528 5 view .LVU8
 529:Drivers/STM32WBxx_HAL_Driver/Src/stm32wbxx_hal_flash_ex.c ****     /* Enable instruction cache */
 530:Drivers/STM32WBxx_HAL_Driver/Src/stm32wbxx_hal_flash_ex.c ****     __HAL_FLASH_INSTRUCTION_CACHE_ENABLE();
  55              		.loc 1 530 5 view .LVU9
  56 0024 1A68     		ldr	r2, [r3]
  57 0026 42F40072 		orr	r2, r2, #512
  58 002a 1A60     		str	r2, [r3]
  59              	.L2:
 531:Drivers/STM32WBxx_HAL_Driver/Src/stm32wbxx_hal_flash_ex.c ****   }
 532:Drivers/STM32WBxx_HAL_Driver/Src/stm32wbxx_hal_flash_ex.c **** 
 533:Drivers/STM32WBxx_HAL_Driver/Src/stm32wbxx_hal_flash_ex.c ****   /* Flush data cache */
 534:Drivers/STM32WBxx_HAL_Driver/Src/stm32wbxx_hal_flash_ex.c ****   if (READ_BIT(FLASH->ACR, FLASH_ACR_DCEN) == FLASH_ACR_DCEN)
  60              		.loc 1 534 3 view .LVU10
  61              		.loc 1 534 7 is_stmt 0 view .LVU11
  62 002c 0B4B     		ldr	r3, .L4
  63 002e 1B68     		ldr	r3, [r3]
  64              		.loc 1 534 6 view .LVU12
  65 0030 13F4806F 		tst	r3, #1024
  66 0034 10D0     		beq	.L1
 535:Drivers/STM32WBxx_HAL_Driver/Src/stm32wbxx_hal_flash_ex.c ****   {
 536:Drivers/STM32WBxx_HAL_Driver/Src/stm32wbxx_hal_flash_ex.c ****     /* Disable data cache  */
 537:Drivers/STM32WBxx_HAL_Driver/Src/stm32wbxx_hal_flash_ex.c ****     __HAL_FLASH_DATA_CACHE_DISABLE();
  67              		.loc 1 537 5 is_stmt 1 view .LVU13
  68 0036 094B     		ldr	r3, .L4
  69 0038 1A68     		ldr	r2, [r3]
  70 003a 22F48062 		bic	r2, r2, #1024
  71 003e 1A60     		str	r2, [r3]
 538:Drivers/STM32WBxx_HAL_Driver/Src/stm32wbxx_hal_flash_ex.c ****     /* Reset data cache */
 539:Drivers/STM32WBxx_HAL_Driver/Src/stm32wbxx_hal_flash_ex.c ****     __HAL_FLASH_DATA_CACHE_RESET();
  72              		.loc 1 539 5 view .LVU14
  73              		.loc 1 539 5 view .LVU15
  74 0040 1A68     		ldr	r2, [r3]
  75 0042 42F48052 		orr	r2, r2, #4096
  76 0046 1A60     		str	r2, [r3]
  77              		.loc 1 539 5 view .LVU16
  78 0048 1A68     		ldr	r2, [r3]
  79 004a 22F48052 		bic	r2, r2, #4096
  80 004e 1A60     		str	r2, [r3]
  81              		.loc 1 539 5 view .LVU17
 540:Drivers/STM32WBxx_HAL_Driver/Src/stm32wbxx_hal_flash_ex.c ****     /* Enable data cache */
 541:Drivers/STM32WBxx_HAL_Driver/Src/stm32wbxx_hal_flash_ex.c ****     __HAL_FLASH_DATA_CACHE_ENABLE();
  82              		.loc 1 541 5 view .LVU18
  83 0050 1A68     		ldr	r2, [r3]
  84 0052 42F48062 		orr	r2, r2, #1024
  85 0056 1A60     		str	r2, [r3]
  86              	.L1:
 542:Drivers/STM32WBxx_HAL_Driver/Src/stm32wbxx_hal_flash_ex.c ****   }
ARM GAS  C:\Users\Nathan\AppData\Local\Temp\cclrXYzQ.s 			page 12


 543:Drivers/STM32WBxx_HAL_Driver/Src/stm32wbxx_hal_flash_ex.c **** }
  87              		.loc 1 543 1 is_stmt 0 view .LVU19
  88 0058 7047     		bx	lr
  89              	.L5:
  90 005a 00BF     		.align	2
  91              	.L4:
  92 005c 00400058 		.word	1476411392
  93              		.cfi_endproc
  94              	.LFE1114:
  96              		.section	.text.FLASH_AcknowledgePageErase,"ax",%progbits
  97              		.align	1
  98              		.syntax unified
  99              		.thumb
 100              		.thumb_func
 102              	FLASH_AcknowledgePageErase:
 103              	.LFB1115:
 544:Drivers/STM32WBxx_HAL_Driver/Src/stm32wbxx_hal_flash_ex.c **** 
 545:Drivers/STM32WBxx_HAL_Driver/Src/stm32wbxx_hal_flash_ex.c **** /**
 546:Drivers/STM32WBxx_HAL_Driver/Src/stm32wbxx_hal_flash_ex.c ****   * @brief  Acknlowldge the page erase operation.
 547:Drivers/STM32WBxx_HAL_Driver/Src/stm32wbxx_hal_flash_ex.c ****   * @retval None
 548:Drivers/STM32WBxx_HAL_Driver/Src/stm32wbxx_hal_flash_ex.c ****   */
 549:Drivers/STM32WBxx_HAL_Driver/Src/stm32wbxx_hal_flash_ex.c **** static void FLASH_AcknowledgePageErase(void)
 550:Drivers/STM32WBxx_HAL_Driver/Src/stm32wbxx_hal_flash_ex.c **** {
 104              		.loc 1 550 1 is_stmt 1 view -0
 105              		.cfi_startproc
 106              		@ args = 0, pretend = 0, frame = 0
 107              		@ frame_needed = 0, uses_anonymous_args = 0
 108              		@ link register save eliminated.
 551:Drivers/STM32WBxx_HAL_Driver/Src/stm32wbxx_hal_flash_ex.c ****   CLEAR_BIT(FLASH->CR, (FLASH_CR_PER | FLASH_CR_PNB));
 109              		.loc 1 551 3 view .LVU21
 110 0000 034A     		ldr	r2, .L7
 111 0002 5369     		ldr	r3, [r2, #20]
 112 0004 23F4FF63 		bic	r3, r3, #2040
 113 0008 23F00203 		bic	r3, r3, #2
 114 000c 5361     		str	r3, [r2, #20]
 552:Drivers/STM32WBxx_HAL_Driver/Src/stm32wbxx_hal_flash_ex.c **** }
 115              		.loc 1 552 1 is_stmt 0 view .LVU22
 116 000e 7047     		bx	lr
 117              	.L8:
 118              		.align	2
 119              	.L7:
 120 0010 00400058 		.word	1476411392
 121              		.cfi_endproc
 122              	.LFE1115:
 124              		.section	.text.FLASH_OB_WRPConfig,"ax",%progbits
 125              		.align	1
 126              		.syntax unified
 127              		.thumb
 128              		.thumb_func
 130              	FLASH_OB_WRPConfig:
 131              	.LVL0:
 132              	.LFB1116:
 553:Drivers/STM32WBxx_HAL_Driver/Src/stm32wbxx_hal_flash_ex.c **** 
 554:Drivers/STM32WBxx_HAL_Driver/Src/stm32wbxx_hal_flash_ex.c **** /**
 555:Drivers/STM32WBxx_HAL_Driver/Src/stm32wbxx_hal_flash_ex.c ****   * @brief  Configure the write protection of the desired pages.
 556:Drivers/STM32WBxx_HAL_Driver/Src/stm32wbxx_hal_flash_ex.c ****   * @note   When WRP is active in a zone, it cannot be erased or programmed.
 557:Drivers/STM32WBxx_HAL_Driver/Src/stm32wbxx_hal_flash_ex.c ****   *         Consequently, a software mass erase cannot be performed if one zone
ARM GAS  C:\Users\Nathan\AppData\Local\Temp\cclrXYzQ.s 			page 13


 558:Drivers/STM32WBxx_HAL_Driver/Src/stm32wbxx_hal_flash_ex.c ****   *         is write-protected.
 559:Drivers/STM32WBxx_HAL_Driver/Src/stm32wbxx_hal_flash_ex.c ****   * @note   When the memory read protection level is selected (RDP level = 1),
 560:Drivers/STM32WBxx_HAL_Driver/Src/stm32wbxx_hal_flash_ex.c ****   *         it is not possible to program or erase Flash memory if the CPU debug
 561:Drivers/STM32WBxx_HAL_Driver/Src/stm32wbxx_hal_flash_ex.c ****   *         features are connected (JTAG or single wire) or boot code is being
 562:Drivers/STM32WBxx_HAL_Driver/Src/stm32wbxx_hal_flash_ex.c ****   *         executed from RAM or System flash, even if WRP is not activated.
 563:Drivers/STM32WBxx_HAL_Driver/Src/stm32wbxx_hal_flash_ex.c ****   * @note   To configure the WRP options, the option lock bit OPTLOCK must be
 564:Drivers/STM32WBxx_HAL_Driver/Src/stm32wbxx_hal_flash_ex.c ****   *         cleared with the call of the @ref HAL_FLASH_OB_Unlock() function.
 565:Drivers/STM32WBxx_HAL_Driver/Src/stm32wbxx_hal_flash_ex.c ****   * @note   To validate the WRP options, the option bytes must be reloaded
 566:Drivers/STM32WBxx_HAL_Driver/Src/stm32wbxx_hal_flash_ex.c ****   *         through the call of the @ref HAL_FLASH_OB_Launch() function.
 567:Drivers/STM32WBxx_HAL_Driver/Src/stm32wbxx_hal_flash_ex.c ****   * @param  WRPArea Specifies the area to be configured.
 568:Drivers/STM32WBxx_HAL_Driver/Src/stm32wbxx_hal_flash_ex.c ****   *          This parameter can be one of the following values:
 569:Drivers/STM32WBxx_HAL_Driver/Src/stm32wbxx_hal_flash_ex.c ****   *            @arg @ref OB_WRPAREA_BANK1_AREAA Flash Bank 1 Area A
 570:Drivers/STM32WBxx_HAL_Driver/Src/stm32wbxx_hal_flash_ex.c ****   *            @arg @ref OB_WRPAREA_BANK1_AREAB Flash Bank 1 Area B
 571:Drivers/STM32WBxx_HAL_Driver/Src/stm32wbxx_hal_flash_ex.c ****   * @param  WRPStartOffset Specifies the start page of the write protected area
 572:Drivers/STM32WBxx_HAL_Driver/Src/stm32wbxx_hal_flash_ex.c ****   *          This parameter can be page number between 0 and (max number of pages in the Flash - 1)
 573:Drivers/STM32WBxx_HAL_Driver/Src/stm32wbxx_hal_flash_ex.c ****   * @param  WRDPEndOffset Specifies the end page of the write protected area
 574:Drivers/STM32WBxx_HAL_Driver/Src/stm32wbxx_hal_flash_ex.c ****   *          This parameter can be page number between WRPStartOffset and (max number of pages in t
 575:Drivers/STM32WBxx_HAL_Driver/Src/stm32wbxx_hal_flash_ex.c ****   * @retval None
 576:Drivers/STM32WBxx_HAL_Driver/Src/stm32wbxx_hal_flash_ex.c ****   */
 577:Drivers/STM32WBxx_HAL_Driver/Src/stm32wbxx_hal_flash_ex.c **** static void FLASH_OB_WRPConfig(uint32_t WRPArea, uint32_t WRPStartOffset, uint32_t WRDPEndOffset)
 578:Drivers/STM32WBxx_HAL_Driver/Src/stm32wbxx_hal_flash_ex.c **** {
 133              		.loc 1 578 1 is_stmt 1 view -0
 134              		.cfi_startproc
 135              		@ args = 0, pretend = 0, frame = 0
 136              		@ frame_needed = 0, uses_anonymous_args = 0
 137              		@ link register save eliminated.
 579:Drivers/STM32WBxx_HAL_Driver/Src/stm32wbxx_hal_flash_ex.c ****   /* Check the parameters */
 580:Drivers/STM32WBxx_HAL_Driver/Src/stm32wbxx_hal_flash_ex.c ****   assert_param(IS_OB_WRPAREA(WRPArea));
 138              		.loc 1 580 3 view .LVU24
 581:Drivers/STM32WBxx_HAL_Driver/Src/stm32wbxx_hal_flash_ex.c ****   assert_param(IS_FLASH_PAGE(WRPStartOffset));
 139              		.loc 1 581 3 view .LVU25
 582:Drivers/STM32WBxx_HAL_Driver/Src/stm32wbxx_hal_flash_ex.c ****   assert_param(IS_FLASH_PAGE(WRDPEndOffset));
 140              		.loc 1 582 3 view .LVU26
 583:Drivers/STM32WBxx_HAL_Driver/Src/stm32wbxx_hal_flash_ex.c **** 
 584:Drivers/STM32WBxx_HAL_Driver/Src/stm32wbxx_hal_flash_ex.c ****   /* Configure the write protected area */
 585:Drivers/STM32WBxx_HAL_Driver/Src/stm32wbxx_hal_flash_ex.c ****   if (WRPArea == OB_WRPAREA_BANK1_AREAA)
 141              		.loc 1 585 3 view .LVU27
 142              		.loc 1 585 6 is_stmt 0 view .LVU28
 143 0000 40B9     		cbnz	r0, .L10
 586:Drivers/STM32WBxx_HAL_Driver/Src/stm32wbxx_hal_flash_ex.c ****   {
 587:Drivers/STM32WBxx_HAL_Driver/Src/stm32wbxx_hal_flash_ex.c ****     MODIFY_REG(FLASH->WRP1AR, (FLASH_WRP1AR_WRP1A_STRT | FLASH_WRP1AR_WRP1A_END),
 144              		.loc 1 587 5 is_stmt 1 view .LVU29
 145 0002 0948     		ldr	r0, .L12
 146              	.LVL1:
 147              		.loc 1 587 5 is_stmt 0 view .LVU30
 148 0004 C36A     		ldr	r3, [r0, #44]
 149 0006 03F0FF23 		and	r3, r3, #-16711936
 150 000a 41EA0241 		orr	r1, r1, r2, lsl #16
 151              	.LVL2:
 152              		.loc 1 587 5 view .LVU31
 153 000e 0B43     		orrs	r3, r3, r1
 154 0010 C362     		str	r3, [r0, #44]
 155 0012 7047     		bx	lr
 156              	.LVL3:
 157              	.L10:
 588:Drivers/STM32WBxx_HAL_Driver/Src/stm32wbxx_hal_flash_ex.c ****                (WRPStartOffset | (WRDPEndOffset << FLASH_WRP1AR_WRP1A_END_Pos)));
 589:Drivers/STM32WBxx_HAL_Driver/Src/stm32wbxx_hal_flash_ex.c ****   }
ARM GAS  C:\Users\Nathan\AppData\Local\Temp\cclrXYzQ.s 			page 14


 590:Drivers/STM32WBxx_HAL_Driver/Src/stm32wbxx_hal_flash_ex.c ****   else /* OB_WRPAREA_BANK1_AREAB */
 591:Drivers/STM32WBxx_HAL_Driver/Src/stm32wbxx_hal_flash_ex.c ****   {
 592:Drivers/STM32WBxx_HAL_Driver/Src/stm32wbxx_hal_flash_ex.c ****     MODIFY_REG(FLASH->WRP1BR, (FLASH_WRP1BR_WRP1B_STRT | FLASH_WRP1BR_WRP1B_END),
 158              		.loc 1 592 5 is_stmt 1 view .LVU32
 159 0014 0448     		ldr	r0, .L12
 160              	.LVL4:
 161              		.loc 1 592 5 is_stmt 0 view .LVU33
 162 0016 036B     		ldr	r3, [r0, #48]
 163 0018 03F0FF23 		and	r3, r3, #-16711936
 164 001c 41EA0241 		orr	r1, r1, r2, lsl #16
 165              	.LVL5:
 166              		.loc 1 592 5 view .LVU34
 167 0020 0B43     		orrs	r3, r3, r1
 168 0022 0363     		str	r3, [r0, #48]
 593:Drivers/STM32WBxx_HAL_Driver/Src/stm32wbxx_hal_flash_ex.c ****                (WRPStartOffset | (WRDPEndOffset << FLASH_WRP1AR_WRP1A_END_Pos)));
 594:Drivers/STM32WBxx_HAL_Driver/Src/stm32wbxx_hal_flash_ex.c ****   }
 595:Drivers/STM32WBxx_HAL_Driver/Src/stm32wbxx_hal_flash_ex.c **** }
 169              		.loc 1 595 1 view .LVU35
 170 0024 7047     		bx	lr
 171              	.L13:
 172 0026 00BF     		.align	2
 173              	.L12:
 174 0028 00400058 		.word	1476411392
 175              		.cfi_endproc
 176              	.LFE1116:
 178              		.section	.text.FLASH_OB_OptrConfig,"ax",%progbits
 179              		.align	1
 180              		.syntax unified
 181              		.thumb
 182              		.thumb_func
 184              	FLASH_OB_OptrConfig:
 185              	.LVL6:
 186              	.LFB1117:
 596:Drivers/STM32WBxx_HAL_Driver/Src/stm32wbxx_hal_flash_ex.c **** 
 597:Drivers/STM32WBxx_HAL_Driver/Src/stm32wbxx_hal_flash_ex.c **** /**
 598:Drivers/STM32WBxx_HAL_Driver/Src/stm32wbxx_hal_flash_ex.c ****   * @brief  Set user & RDP configuration
 599:Drivers/STM32WBxx_HAL_Driver/Src/stm32wbxx_hal_flash_ex.c ****   * @note   !!! Warning : When enabling OB_RDP level 2 it's no more possible
 600:Drivers/STM32WBxx_HAL_Driver/Src/stm32wbxx_hal_flash_ex.c ****   *         to go back to level 1 or 0 !!!
 601:Drivers/STM32WBxx_HAL_Driver/Src/stm32wbxx_hal_flash_ex.c ****   * @param  UserType The FLASH User Option Bytes to be modified
 602:Drivers/STM32WBxx_HAL_Driver/Src/stm32wbxx_hal_flash_ex.c ****   *         This parameter can be a combination of all the following values:
 603:Drivers/STM32WBxx_HAL_Driver/Src/stm32wbxx_hal_flash_ex.c ****   *         @arg @ref OB_USER_BOR_LEV or @ref OB_USER_nRST_STOP or @ref OB_USER_nRST_STDBY or
 604:Drivers/STM32WBxx_HAL_Driver/Src/stm32wbxx_hal_flash_ex.c ****   *         @arg @ref OB_USER_nRST_SHDW or @ref OB_USER_IWDG_SW or @ref OB_USER_IWDG_STOP or
 605:Drivers/STM32WBxx_HAL_Driver/Src/stm32wbxx_hal_flash_ex.c ****   *         @arg @ref OB_USER_IWDG_STDBY or @ref OB_USER_WWDG_SW or @ref OB_USER_nBOOT1 or
 606:Drivers/STM32WBxx_HAL_Driver/Src/stm32wbxx_hal_flash_ex.c ****   *         @arg @ref OB_USER_SRAM2PE or @ref OB_USER_SRAM2RST or @ref OB_USER_nSWBOOT0 or
 607:Drivers/STM32WBxx_HAL_Driver/Src/stm32wbxx_hal_flash_ex.c ****   *         @arg @ref OB_USER_nBOOT0 or @ref OB_USER_AGC_TRIM or @ref OB_USER_ALL
 608:Drivers/STM32WBxx_HAL_Driver/Src/stm32wbxx_hal_flash_ex.c ****   * @param  UserConfig The FLASH User Option Bytes values.
 609:Drivers/STM32WBxx_HAL_Driver/Src/stm32wbxx_hal_flash_ex.c ****   *         This parameter can be a combination of all the following values:
 610:Drivers/STM32WBxx_HAL_Driver/Src/stm32wbxx_hal_flash_ex.c ****   *         @arg @ref OB_BOR_LEVEL_0 or @ref OB_BOR_LEVEL_1 or ... or @ref OB_BOR_LEVEL_4
 611:Drivers/STM32WBxx_HAL_Driver/Src/stm32wbxx_hal_flash_ex.c ****   *         @arg @ref OB_STOP_RST or @ref OB_STOP_NORST
 612:Drivers/STM32WBxx_HAL_Driver/Src/stm32wbxx_hal_flash_ex.c ****   *         @arg @ref OB_STANDBY_RST or @ref OB_STANDBY_NORST
 613:Drivers/STM32WBxx_HAL_Driver/Src/stm32wbxx_hal_flash_ex.c ****   *         @arg @ref OB_SHUTDOWN_RST or @ref OB_SHUTDOWN_NORST
 614:Drivers/STM32WBxx_HAL_Driver/Src/stm32wbxx_hal_flash_ex.c ****   *         @arg @ref OB_IRH_ENABLE or @ref OB_IRH_DISABLE (*)
 615:Drivers/STM32WBxx_HAL_Driver/Src/stm32wbxx_hal_flash_ex.c ****   *         @arg @ref OB_IWDG_SW or @ref OB_IWDG_HW
 616:Drivers/STM32WBxx_HAL_Driver/Src/stm32wbxx_hal_flash_ex.c ****   *         @arg @ref OB_IWDG_STOP_FREEZE or @ref OB_IWDG_STOP_RUN
 617:Drivers/STM32WBxx_HAL_Driver/Src/stm32wbxx_hal_flash_ex.c ****   *         @arg @ref OB_IWDG_STDBY_FREEZE or @ref OB_IWDG_STDBY_RUN
 618:Drivers/STM32WBxx_HAL_Driver/Src/stm32wbxx_hal_flash_ex.c ****   *         @arg @ref OB_WWDG_SW or @ref OB_WWDG_HW
 619:Drivers/STM32WBxx_HAL_Driver/Src/stm32wbxx_hal_flash_ex.c ****   *         @arg @ref OB_BOOT1_SRAM or @ref OB_BOOT1_SYSTEM
ARM GAS  C:\Users\Nathan\AppData\Local\Temp\cclrXYzQ.s 			page 15


 620:Drivers/STM32WBxx_HAL_Driver/Src/stm32wbxx_hal_flash_ex.c ****   *         @arg @ref OB_SRAM2_PARITY_ENABLE or @ref OB_SRAM2_PARITY_DISABLE
 621:Drivers/STM32WBxx_HAL_Driver/Src/stm32wbxx_hal_flash_ex.c ****   *         @arg @ref OB_SRAM2_RST_ERASE or @ref OB_SRAM2_RST_NOT_ERASE
 622:Drivers/STM32WBxx_HAL_Driver/Src/stm32wbxx_hal_flash_ex.c ****   *         @arg @ref OB_BOOT0_FROM_OB or @ref OB_BOOT0_FROM_PIN
 623:Drivers/STM32WBxx_HAL_Driver/Src/stm32wbxx_hal_flash_ex.c ****   *         @arg @ref OB_BOOT0_RESET or @ref OB_BOOT0_SET
 624:Drivers/STM32WBxx_HAL_Driver/Src/stm32wbxx_hal_flash_ex.c ****   *         @arg @ref OB_RESET_MODE_INPUT_ONLY or @ref OB_RESET_MODE_GPIO or @ref OB_RESET_MODE_INP
 625:Drivers/STM32WBxx_HAL_Driver/Src/stm32wbxx_hal_flash_ex.c ****   *         @arg @ref OB_AGC_TRIM_0 or @ref OB_AGC_TRIM_1 or ... or @ref OB_AGC_TRIM_7
 626:Drivers/STM32WBxx_HAL_Driver/Src/stm32wbxx_hal_flash_ex.c ****   * @param  RDPLevel: specifies the read protection level.
 627:Drivers/STM32WBxx_HAL_Driver/Src/stm32wbxx_hal_flash_ex.c ****   *         This parameter can be one of the following values:
 628:Drivers/STM32WBxx_HAL_Driver/Src/stm32wbxx_hal_flash_ex.c ****   *            @arg @ref OB_RDP_LEVEL_0 No protection
 629:Drivers/STM32WBxx_HAL_Driver/Src/stm32wbxx_hal_flash_ex.c ****   *            @arg @ref OB_RDP_LEVEL_1 Read protection of the memory
 630:Drivers/STM32WBxx_HAL_Driver/Src/stm32wbxx_hal_flash_ex.c ****   *            @arg @ref OB_RDP_LEVEL_2 Full chip protection
 631:Drivers/STM32WBxx_HAL_Driver/Src/stm32wbxx_hal_flash_ex.c ****   * @retval None
 632:Drivers/STM32WBxx_HAL_Driver/Src/stm32wbxx_hal_flash_ex.c ****   */
 633:Drivers/STM32WBxx_HAL_Driver/Src/stm32wbxx_hal_flash_ex.c **** static void FLASH_OB_OptrConfig(uint32_t UserType, uint32_t UserConfig, uint32_t RDPLevel)
 634:Drivers/STM32WBxx_HAL_Driver/Src/stm32wbxx_hal_flash_ex.c **** {
 187              		.loc 1 634 1 is_stmt 1 view -0
 188              		.cfi_startproc
 189              		@ args = 0, pretend = 0, frame = 0
 190              		@ frame_needed = 0, uses_anonymous_args = 0
 191              		@ link register save eliminated.
 192              		.loc 1 634 1 is_stmt 0 view .LVU37
 193 0000 10B4     		push	{r4}
 194              		.cfi_def_cfa_offset 4
 195              		.cfi_offset 4, -4
 635:Drivers/STM32WBxx_HAL_Driver/Src/stm32wbxx_hal_flash_ex.c ****   uint32_t optr;
 196              		.loc 1 635 3 is_stmt 1 view .LVU38
 636:Drivers/STM32WBxx_HAL_Driver/Src/stm32wbxx_hal_flash_ex.c **** 
 637:Drivers/STM32WBxx_HAL_Driver/Src/stm32wbxx_hal_flash_ex.c ****   /* Check the parameters */
 638:Drivers/STM32WBxx_HAL_Driver/Src/stm32wbxx_hal_flash_ex.c ****   assert_param(IS_OB_USER_TYPE(UserType));
 197              		.loc 1 638 3 view .LVU39
 639:Drivers/STM32WBxx_HAL_Driver/Src/stm32wbxx_hal_flash_ex.c ****   assert_param(IS_OB_USER_CONFIG(UserType, UserConfig));
 198              		.loc 1 639 3 view .LVU40
 640:Drivers/STM32WBxx_HAL_Driver/Src/stm32wbxx_hal_flash_ex.c ****   assert_param(IS_OB_RDP_LEVEL(RDPLevel));
 199              		.loc 1 640 3 view .LVU41
 641:Drivers/STM32WBxx_HAL_Driver/Src/stm32wbxx_hal_flash_ex.c **** 
 642:Drivers/STM32WBxx_HAL_Driver/Src/stm32wbxx_hal_flash_ex.c ****   /* Configure the RDP level in the option bytes register */
 643:Drivers/STM32WBxx_HAL_Driver/Src/stm32wbxx_hal_flash_ex.c ****   optr = FLASH->OPTR;
 200              		.loc 1 643 3 view .LVU42
 201              		.loc 1 643 8 is_stmt 0 view .LVU43
 202 0002 064C     		ldr	r4, .L16
 203 0004 236A     		ldr	r3, [r4, #32]
 204              	.LVL7:
 644:Drivers/STM32WBxx_HAL_Driver/Src/stm32wbxx_hal_flash_ex.c ****   optr &= ~(UserType | FLASH_OPTR_RDP);
 205              		.loc 1 644 3 is_stmt 1 view .LVU44
 206              		.loc 1 644 22 is_stmt 0 view .LVU45
 207 0006 40F0FF00 		orr	r0, r0, #255
 208              	.LVL8:
 209              		.loc 1 644 8 view .LVU46
 210 000a 23EA0003 		bic	r3, r3, r0
 211              	.LVL9:
 645:Drivers/STM32WBxx_HAL_Driver/Src/stm32wbxx_hal_flash_ex.c ****   FLASH->OPTR = (optr | UserConfig | RDPLevel);
 212              		.loc 1 645 3 is_stmt 1 view .LVU47
 213              		.loc 1 645 23 is_stmt 0 view .LVU48
 214 000e 0B43     		orrs	r3, r3, r1
 215              	.LVL10:
 216              		.loc 1 645 36 view .LVU49
 217 0010 1343     		orrs	r3, r3, r2
ARM GAS  C:\Users\Nathan\AppData\Local\Temp\cclrXYzQ.s 			page 16


 218              		.loc 1 645 15 view .LVU50
 219 0012 2362     		str	r3, [r4, #32]
 646:Drivers/STM32WBxx_HAL_Driver/Src/stm32wbxx_hal_flash_ex.c **** }
 220              		.loc 1 646 1 view .LVU51
 221 0014 5DF8044B 		ldr	r4, [sp], #4
 222              		.cfi_restore 4
 223              		.cfi_def_cfa_offset 0
 224 0018 7047     		bx	lr
 225              	.L17:
 226 001a 00BF     		.align	2
 227              	.L16:
 228 001c 00400058 		.word	1476411392
 229              		.cfi_endproc
 230              	.LFE1117:
 232              		.section	.text.FLASH_OB_PCROP1AConfig,"ax",%progbits
 233              		.align	1
 234              		.syntax unified
 235              		.thumb
 236              		.thumb_func
 238              	FLASH_OB_PCROP1AConfig:
 239              	.LVL11:
 240              	.LFB1118:
 647:Drivers/STM32WBxx_HAL_Driver/Src/stm32wbxx_hal_flash_ex.c **** 
 648:Drivers/STM32WBxx_HAL_Driver/Src/stm32wbxx_hal_flash_ex.c **** /**
 649:Drivers/STM32WBxx_HAL_Driver/Src/stm32wbxx_hal_flash_ex.c ****   * @brief  Configure the Zone 1A Proprietary code readout protection of the desired addresses,
 650:Drivers/STM32WBxx_HAL_Driver/Src/stm32wbxx_hal_flash_ex.c ****   *         and erase configuration on RDP regression.
 651:Drivers/STM32WBxx_HAL_Driver/Src/stm32wbxx_hal_flash_ex.c ****   * @note   To configure the PCROP options, the option lock bit OPTLOCK must be
 652:Drivers/STM32WBxx_HAL_Driver/Src/stm32wbxx_hal_flash_ex.c ****   *         cleared with the call of the @ref HAL_FLASH_OB_Unlock() function.
 653:Drivers/STM32WBxx_HAL_Driver/Src/stm32wbxx_hal_flash_ex.c ****   * @note   To validate the PCROP options, the option bytes must be reloaded
 654:Drivers/STM32WBxx_HAL_Driver/Src/stm32wbxx_hal_flash_ex.c ****   *         through the call of the @ref HAL_FLASH_OB_Launch() function.
 655:Drivers/STM32WBxx_HAL_Driver/Src/stm32wbxx_hal_flash_ex.c ****   * @param  PCROPConfig: specifies the erase configuration (OB_PCROP_RDP_NOT_ERASE or OB_PCROP_RDP_
 656:Drivers/STM32WBxx_HAL_Driver/Src/stm32wbxx_hal_flash_ex.c ****   *         on RDP level 1 regression.
 657:Drivers/STM32WBxx_HAL_Driver/Src/stm32wbxx_hal_flash_ex.c ****   * @param  PCROP1AStartAddr Specifies the Zone 1A Start address of the Proprietary code readout pr
 658:Drivers/STM32WBxx_HAL_Driver/Src/stm32wbxx_hal_flash_ex.c ****   *         This parameter can be an address between begin and end of the flash
 659:Drivers/STM32WBxx_HAL_Driver/Src/stm32wbxx_hal_flash_ex.c ****   * @param  PCROP1AEndAddr Specifies the Zone 1A end address of the Proprietary code readout protec
 660:Drivers/STM32WBxx_HAL_Driver/Src/stm32wbxx_hal_flash_ex.c ****   *         This parameter can be an address between PCROP1AStartAddr and end of the flash
 661:Drivers/STM32WBxx_HAL_Driver/Src/stm32wbxx_hal_flash_ex.c ****   * @retval None
 662:Drivers/STM32WBxx_HAL_Driver/Src/stm32wbxx_hal_flash_ex.c ****   */
 663:Drivers/STM32WBxx_HAL_Driver/Src/stm32wbxx_hal_flash_ex.c **** static void FLASH_OB_PCROP1AConfig(uint32_t PCROPConfig, uint32_t PCROP1AStartAddr, uint32_t PCROP1
 664:Drivers/STM32WBxx_HAL_Driver/Src/stm32wbxx_hal_flash_ex.c **** {
 241              		.loc 1 664 1 is_stmt 1 view -0
 242              		.cfi_startproc
 243              		@ args = 0, pretend = 0, frame = 0
 244              		@ frame_needed = 0, uses_anonymous_args = 0
 245              		@ link register save eliminated.
 665:Drivers/STM32WBxx_HAL_Driver/Src/stm32wbxx_hal_flash_ex.c ****   uint32_t startoffset;
 246              		.loc 1 665 3 view .LVU53
 666:Drivers/STM32WBxx_HAL_Driver/Src/stm32wbxx_hal_flash_ex.c ****   uint32_t endoffset;
 247              		.loc 1 666 3 view .LVU54
 667:Drivers/STM32WBxx_HAL_Driver/Src/stm32wbxx_hal_flash_ex.c ****   uint32_t pcrop1aend;
 248              		.loc 1 667 3 view .LVU55
 668:Drivers/STM32WBxx_HAL_Driver/Src/stm32wbxx_hal_flash_ex.c **** 
 669:Drivers/STM32WBxx_HAL_Driver/Src/stm32wbxx_hal_flash_ex.c ****   /* Check the parameters */
 670:Drivers/STM32WBxx_HAL_Driver/Src/stm32wbxx_hal_flash_ex.c ****   assert_param(IS_OB_PCROP_CONFIG(PCROPConfig));
 249              		.loc 1 670 3 view .LVU56
 671:Drivers/STM32WBxx_HAL_Driver/Src/stm32wbxx_hal_flash_ex.c ****   assert_param(IS_FLASH_MAIN_MEM_ADDRESS(PCROP1AStartAddr));
 250              		.loc 1 671 3 view .LVU57
ARM GAS  C:\Users\Nathan\AppData\Local\Temp\cclrXYzQ.s 			page 17


 672:Drivers/STM32WBxx_HAL_Driver/Src/stm32wbxx_hal_flash_ex.c ****   assert_param(IS_FLASH_MAIN_MEM_ADDRESS(PCROP1AEndAddr));
 251              		.loc 1 672 3 view .LVU58
 673:Drivers/STM32WBxx_HAL_Driver/Src/stm32wbxx_hal_flash_ex.c **** 
 674:Drivers/STM32WBxx_HAL_Driver/Src/stm32wbxx_hal_flash_ex.c ****   /* get pcrop 1A end register */
 675:Drivers/STM32WBxx_HAL_Driver/Src/stm32wbxx_hal_flash_ex.c ****   pcrop1aend = FLASH->PCROP1AER;
 252              		.loc 1 675 3 view .LVU59
 253              		.loc 1 675 14 is_stmt 0 view .LVU60
 254 0000 114B     		ldr	r3, .L29
 255 0002 9B6A     		ldr	r3, [r3, #40]
 256              	.LVL12:
 676:Drivers/STM32WBxx_HAL_Driver/Src/stm32wbxx_hal_flash_ex.c **** 
 677:Drivers/STM32WBxx_HAL_Driver/Src/stm32wbxx_hal_flash_ex.c ****   /* Configure the Proprietary code readout protection offset */
 678:Drivers/STM32WBxx_HAL_Driver/Src/stm32wbxx_hal_flash_ex.c ****   if ((PCROPConfig & OB_PCROP_ZONE_A) != 0U)
 257              		.loc 1 678 3 is_stmt 1 view .LVU61
 258              		.loc 1 678 6 is_stmt 0 view .LVU62
 259 0004 10F0010F 		tst	r0, #1
 260 0008 15D0     		beq	.L22
 664:Drivers/STM32WBxx_HAL_Driver/Src/stm32wbxx_hal_flash_ex.c ****   uint32_t startoffset;
 261              		.loc 1 664 1 view .LVU63
 262 000a 10B4     		push	{r4}
 263              		.cfi_def_cfa_offset 4
 264              		.cfi_offset 4, -4
 679:Drivers/STM32WBxx_HAL_Driver/Src/stm32wbxx_hal_flash_ex.c ****   {
 680:Drivers/STM32WBxx_HAL_Driver/Src/stm32wbxx_hal_flash_ex.c ****     /* Compute offset depending on pcrop granularity */
 681:Drivers/STM32WBxx_HAL_Driver/Src/stm32wbxx_hal_flash_ex.c ****     startoffset = ((PCROP1AStartAddr - FLASH_BASE) >> FLASH_PCROP_GRANULARITY_OFFSET); /* 2K pages 
 265              		.loc 1 681 5 is_stmt 1 view .LVU64
 266              		.loc 1 681 38 is_stmt 0 view .LVU65
 267 000c 01F17841 		add	r1, r1, #-134217728
 268              	.LVL13:
 269              		.loc 1 681 17 view .LVU66
 270 0010 C90A     		lsrs	r1, r1, #11
 271              	.LVL14:
 682:Drivers/STM32WBxx_HAL_Driver/Src/stm32wbxx_hal_flash_ex.c ****     endoffset = ((PCROP1AEndAddr - FLASH_BASE) >> FLASH_PCROP_GRANULARITY_OFFSET); /* 2K pages */
 272              		.loc 1 682 5 is_stmt 1 view .LVU67
 273              		.loc 1 682 34 is_stmt 0 view .LVU68
 274 0012 02F17842 		add	r2, r2, #-134217728
 275              	.LVL15:
 683:Drivers/STM32WBxx_HAL_Driver/Src/stm32wbxx_hal_flash_ex.c **** 
 684:Drivers/STM32WBxx_HAL_Driver/Src/stm32wbxx_hal_flash_ex.c ****     /* Set Zone A start offset */
 685:Drivers/STM32WBxx_HAL_Driver/Src/stm32wbxx_hal_flash_ex.c ****     WRITE_REG(FLASH->PCROP1ASR, startoffset);
 276              		.loc 1 685 5 is_stmt 1 view .LVU69
 277 0016 0C4C     		ldr	r4, .L29
 278 0018 6162     		str	r1, [r4, #36]
 686:Drivers/STM32WBxx_HAL_Driver/Src/stm32wbxx_hal_flash_ex.c **** 
 687:Drivers/STM32WBxx_HAL_Driver/Src/stm32wbxx_hal_flash_ex.c ****     /* Set Zone A end offset */
 688:Drivers/STM32WBxx_HAL_Driver/Src/stm32wbxx_hal_flash_ex.c ****     pcrop1aend &= ~FLASH_PCROP1AER_PCROP1A_END;
 279              		.loc 1 688 5 view .LVU70
 280              		.loc 1 688 16 is_stmt 0 view .LVU71
 281 001a 6FF30803 		bfc	r3, #0, #9
 282              	.LVL16:
 689:Drivers/STM32WBxx_HAL_Driver/Src/stm32wbxx_hal_flash_ex.c ****     pcrop1aend |= endoffset;
 283              		.loc 1 689 5 is_stmt 1 view .LVU72
 284              		.loc 1 689 16 is_stmt 0 view .LVU73
 285 001e 43EAD223 		orr	r3, r3, r2, lsr #11
 286              	.LVL17:
 690:Drivers/STM32WBxx_HAL_Driver/Src/stm32wbxx_hal_flash_ex.c ****   }
 691:Drivers/STM32WBxx_HAL_Driver/Src/stm32wbxx_hal_flash_ex.c **** 
ARM GAS  C:\Users\Nathan\AppData\Local\Temp\cclrXYzQ.s 			page 18


 692:Drivers/STM32WBxx_HAL_Driver/Src/stm32wbxx_hal_flash_ex.c ****   /* Set RDP erase protection if needed. This bit is only set & will be reset by mass erase */
 693:Drivers/STM32WBxx_HAL_Driver/Src/stm32wbxx_hal_flash_ex.c ****   if ((PCROPConfig & OB_PCROP_RDP_ERASE) != 0U)
 287              		.loc 1 693 3 is_stmt 1 view .LVU74
 288              		.loc 1 693 6 is_stmt 0 view .LVU75
 289 0022 0028     		cmp	r0, #0
 290 0024 04DB     		blt	.L27
 291              	.L20:
 694:Drivers/STM32WBxx_HAL_Driver/Src/stm32wbxx_hal_flash_ex.c ****   {
 695:Drivers/STM32WBxx_HAL_Driver/Src/stm32wbxx_hal_flash_ex.c ****     pcrop1aend |= FLASH_PCROP1AER_PCROP_RDP;
 696:Drivers/STM32WBxx_HAL_Driver/Src/stm32wbxx_hal_flash_ex.c ****   }
 697:Drivers/STM32WBxx_HAL_Driver/Src/stm32wbxx_hal_flash_ex.c **** 
 698:Drivers/STM32WBxx_HAL_Driver/Src/stm32wbxx_hal_flash_ex.c ****   /* set 1A End register */
 699:Drivers/STM32WBxx_HAL_Driver/Src/stm32wbxx_hal_flash_ex.c ****   WRITE_REG(FLASH->PCROP1AER, pcrop1aend);
 292              		.loc 1 699 3 is_stmt 1 view .LVU76
 293 0026 084A     		ldr	r2, .L29
 294              	.LVL18:
 295              		.loc 1 699 3 is_stmt 0 view .LVU77
 296 0028 9362     		str	r3, [r2, #40]
 700:Drivers/STM32WBxx_HAL_Driver/Src/stm32wbxx_hal_flash_ex.c **** }
 297              		.loc 1 700 1 view .LVU78
 298 002a 5DF8044B 		ldr	r4, [sp], #4
 299              		.cfi_remember_state
 300              		.cfi_restore 4
 301              		.cfi_def_cfa_offset 0
 302 002e 7047     		bx	lr
 303              	.LVL19:
 304              	.L27:
 305              		.cfi_restore_state
 695:Drivers/STM32WBxx_HAL_Driver/Src/stm32wbxx_hal_flash_ex.c ****   }
 306              		.loc 1 695 5 is_stmt 1 view .LVU79
 695:Drivers/STM32WBxx_HAL_Driver/Src/stm32wbxx_hal_flash_ex.c ****   }
 307              		.loc 1 695 16 is_stmt 0 view .LVU80
 308 0030 43F00043 		orr	r3, r3, #-2147483648
 309              	.LVL20:
 695:Drivers/STM32WBxx_HAL_Driver/Src/stm32wbxx_hal_flash_ex.c ****   }
 310              		.loc 1 695 16 view .LVU81
 311 0034 F7E7     		b	.L20
 312              	.LVL21:
 313              	.L22:
 314              		.cfi_def_cfa_offset 0
 315              		.cfi_restore 4
 693:Drivers/STM32WBxx_HAL_Driver/Src/stm32wbxx_hal_flash_ex.c ****   {
 316              		.loc 1 693 3 is_stmt 1 view .LVU82
 693:Drivers/STM32WBxx_HAL_Driver/Src/stm32wbxx_hal_flash_ex.c ****   {
 317              		.loc 1 693 6 is_stmt 0 view .LVU83
 318 0036 0028     		cmp	r0, #0
 319 0038 02DB     		blt	.L28
 320              	.L24:
 699:Drivers/STM32WBxx_HAL_Driver/Src/stm32wbxx_hal_flash_ex.c **** }
 321              		.loc 1 699 3 is_stmt 1 view .LVU84
 322 003a 034A     		ldr	r2, .L29
 323              	.LVL22:
 699:Drivers/STM32WBxx_HAL_Driver/Src/stm32wbxx_hal_flash_ex.c **** }
 324              		.loc 1 699 3 is_stmt 0 view .LVU85
 325 003c 9362     		str	r3, [r2, #40]
 326 003e 7047     		bx	lr
 327              	.LVL23:
ARM GAS  C:\Users\Nathan\AppData\Local\Temp\cclrXYzQ.s 			page 19


 328              	.L28:
 695:Drivers/STM32WBxx_HAL_Driver/Src/stm32wbxx_hal_flash_ex.c ****   }
 329              		.loc 1 695 5 is_stmt 1 view .LVU86
 695:Drivers/STM32WBxx_HAL_Driver/Src/stm32wbxx_hal_flash_ex.c ****   }
 330              		.loc 1 695 16 is_stmt 0 view .LVU87
 331 0040 43F00043 		orr	r3, r3, #-2147483648
 332              	.LVL24:
 695:Drivers/STM32WBxx_HAL_Driver/Src/stm32wbxx_hal_flash_ex.c ****   }
 333              		.loc 1 695 16 view .LVU88
 334 0044 F9E7     		b	.L24
 335              	.L30:
 336 0046 00BF     		.align	2
 337              	.L29:
 338 0048 00400058 		.word	1476411392
 339              		.cfi_endproc
 340              	.LFE1118:
 342              		.section	.text.FLASH_OB_PCROP1BConfig,"ax",%progbits
 343              		.align	1
 344              		.syntax unified
 345              		.thumb
 346              		.thumb_func
 348              	FLASH_OB_PCROP1BConfig:
 349              	.LVL25:
 350              	.LFB1119:
 701:Drivers/STM32WBxx_HAL_Driver/Src/stm32wbxx_hal_flash_ex.c **** 
 702:Drivers/STM32WBxx_HAL_Driver/Src/stm32wbxx_hal_flash_ex.c **** /**
 703:Drivers/STM32WBxx_HAL_Driver/Src/stm32wbxx_hal_flash_ex.c ****   * @brief  Configure the Zone 1B Proprietary code readout protection of the desired addresses.
 704:Drivers/STM32WBxx_HAL_Driver/Src/stm32wbxx_hal_flash_ex.c ****   * @note   To configure the PCROP options, the option lock bit OPTLOCK must be
 705:Drivers/STM32WBxx_HAL_Driver/Src/stm32wbxx_hal_flash_ex.c ****   *         cleared with the call of the @ref HAL_FLASH_OB_Unlock() function.
 706:Drivers/STM32WBxx_HAL_Driver/Src/stm32wbxx_hal_flash_ex.c ****   * @note   To validate the PCROP options, the option bytes must be reloaded
 707:Drivers/STM32WBxx_HAL_Driver/Src/stm32wbxx_hal_flash_ex.c ****   *         through the call of the @ref HAL_FLASH_OB_Launch() function.
 708:Drivers/STM32WBxx_HAL_Driver/Src/stm32wbxx_hal_flash_ex.c ****   * @param  PCROP1BStartAddr Specifies the Zone 1BStart address of the Proprietary code readout pro
 709:Drivers/STM32WBxx_HAL_Driver/Src/stm32wbxx_hal_flash_ex.c ****   *         This parameter can be an address between begin and end of the flash
 710:Drivers/STM32WBxx_HAL_Driver/Src/stm32wbxx_hal_flash_ex.c ****   * @param  PCROP1BEndAddr Specifies the Zone 1B end address of the Proprietary code readout protec
 711:Drivers/STM32WBxx_HAL_Driver/Src/stm32wbxx_hal_flash_ex.c ****   *         This parameter can be an address between PCROP1BStartAddr and end of the flash
 712:Drivers/STM32WBxx_HAL_Driver/Src/stm32wbxx_hal_flash_ex.c ****   * @retval None
 713:Drivers/STM32WBxx_HAL_Driver/Src/stm32wbxx_hal_flash_ex.c ****   */
 714:Drivers/STM32WBxx_HAL_Driver/Src/stm32wbxx_hal_flash_ex.c **** static void FLASH_OB_PCROP1BConfig(uint32_t PCROP1BStartAddr, uint32_t PCROP1BEndAddr)
 715:Drivers/STM32WBxx_HAL_Driver/Src/stm32wbxx_hal_flash_ex.c **** {
 351              		.loc 1 715 1 is_stmt 1 view -0
 352              		.cfi_startproc
 353              		@ args = 0, pretend = 0, frame = 0
 354              		@ frame_needed = 0, uses_anonymous_args = 0
 355              		@ link register save eliminated.
 716:Drivers/STM32WBxx_HAL_Driver/Src/stm32wbxx_hal_flash_ex.c ****   uint32_t startoffset;
 356              		.loc 1 716 3 view .LVU90
 717:Drivers/STM32WBxx_HAL_Driver/Src/stm32wbxx_hal_flash_ex.c ****   uint32_t endoffset;
 357              		.loc 1 717 3 view .LVU91
 718:Drivers/STM32WBxx_HAL_Driver/Src/stm32wbxx_hal_flash_ex.c **** 
 719:Drivers/STM32WBxx_HAL_Driver/Src/stm32wbxx_hal_flash_ex.c ****   /* Check the parameters */
 720:Drivers/STM32WBxx_HAL_Driver/Src/stm32wbxx_hal_flash_ex.c ****   assert_param(IS_FLASH_MAIN_MEM_ADDRESS(PCROP1BStartAddr));
 358              		.loc 1 720 3 view .LVU92
 721:Drivers/STM32WBxx_HAL_Driver/Src/stm32wbxx_hal_flash_ex.c ****   assert_param(IS_FLASH_MAIN_MEM_ADDRESS(PCROP1BEndAddr));
 359              		.loc 1 721 3 view .LVU93
 722:Drivers/STM32WBxx_HAL_Driver/Src/stm32wbxx_hal_flash_ex.c **** 
 723:Drivers/STM32WBxx_HAL_Driver/Src/stm32wbxx_hal_flash_ex.c ****   /* Compute offset depending on pcrop granularity */
 724:Drivers/STM32WBxx_HAL_Driver/Src/stm32wbxx_hal_flash_ex.c ****   startoffset = ((PCROP1BStartAddr - FLASH_BASE) >> FLASH_PCROP_GRANULARITY_OFFSET); /* 2K pages */
ARM GAS  C:\Users\Nathan\AppData\Local\Temp\cclrXYzQ.s 			page 20


 360              		.loc 1 724 3 view .LVU94
 361              		.loc 1 724 36 is_stmt 0 view .LVU95
 362 0000 00F17840 		add	r0, r0, #-134217728
 363              	.LVL26:
 364              		.loc 1 724 15 view .LVU96
 365 0004 C00A     		lsrs	r0, r0, #11
 366              	.LVL27:
 725:Drivers/STM32WBxx_HAL_Driver/Src/stm32wbxx_hal_flash_ex.c ****   endoffset = ((PCROP1BEndAddr - FLASH_BASE) >> FLASH_PCROP_GRANULARITY_OFFSET); /* 2K pages */
 367              		.loc 1 725 3 is_stmt 1 view .LVU97
 368              		.loc 1 725 32 is_stmt 0 view .LVU98
 369 0006 01F17841 		add	r1, r1, #-134217728
 370              	.LVL28:
 371              		.loc 1 725 13 view .LVU99
 372 000a C90A     		lsrs	r1, r1, #11
 373              	.LVL29:
 726:Drivers/STM32WBxx_HAL_Driver/Src/stm32wbxx_hal_flash_ex.c **** 
 727:Drivers/STM32WBxx_HAL_Driver/Src/stm32wbxx_hal_flash_ex.c ****   /* Configure the Proprietary code readout protection start address */
 728:Drivers/STM32WBxx_HAL_Driver/Src/stm32wbxx_hal_flash_ex.c ****   WRITE_REG(FLASH->PCROP1BSR, startoffset);
 374              		.loc 1 728 3 is_stmt 1 view .LVU100
 375 000c 014B     		ldr	r3, .L32
 376 000e 5863     		str	r0, [r3, #52]
 729:Drivers/STM32WBxx_HAL_Driver/Src/stm32wbxx_hal_flash_ex.c **** 
 730:Drivers/STM32WBxx_HAL_Driver/Src/stm32wbxx_hal_flash_ex.c ****   /* Configure the Proprietary code readout protection end address */
 731:Drivers/STM32WBxx_HAL_Driver/Src/stm32wbxx_hal_flash_ex.c ****   WRITE_REG(FLASH->PCROP1BER, endoffset);
 377              		.loc 1 731 3 view .LVU101
 378 0010 9963     		str	r1, [r3, #56]
 732:Drivers/STM32WBxx_HAL_Driver/Src/stm32wbxx_hal_flash_ex.c **** }
 379              		.loc 1 732 1 is_stmt 0 view .LVU102
 380 0012 7047     		bx	lr
 381              	.L33:
 382              		.align	2
 383              	.L32:
 384 0014 00400058 		.word	1476411392
 385              		.cfi_endproc
 386              	.LFE1119:
 388              		.section	.text.FLASH_OB_IPCCBufferAddrConfig,"ax",%progbits
 389              		.align	1
 390              		.syntax unified
 391              		.thumb
 392              		.thumb_func
 394              	FLASH_OB_IPCCBufferAddrConfig:
 395              	.LVL30:
 396              	.LFB1120:
 733:Drivers/STM32WBxx_HAL_Driver/Src/stm32wbxx_hal_flash_ex.c **** 
 734:Drivers/STM32WBxx_HAL_Driver/Src/stm32wbxx_hal_flash_ex.c **** /**
 735:Drivers/STM32WBxx_HAL_Driver/Src/stm32wbxx_hal_flash_ex.c ****   * @brief  Program the FLASH IPCC data buffer address.
 736:Drivers/STM32WBxx_HAL_Driver/Src/stm32wbxx_hal_flash_ex.c ****   * @note   To configure the extra user option bytes, the option lock bit OPTLOCK must
 737:Drivers/STM32WBxx_HAL_Driver/Src/stm32wbxx_hal_flash_ex.c ****   *         be cleared with the call of the @ref HAL_FLASH_OB_Unlock() function.
 738:Drivers/STM32WBxx_HAL_Driver/Src/stm32wbxx_hal_flash_ex.c ****   * @note   To validate the extra user option bytes, the option bytes must be reloaded
 739:Drivers/STM32WBxx_HAL_Driver/Src/stm32wbxx_hal_flash_ex.c ****   *         through the call of the @ref HAL_FLASH_OB_Launch() function.
 740:Drivers/STM32WBxx_HAL_Driver/Src/stm32wbxx_hal_flash_ex.c ****   * @param  IPCCDataBufAddr IPCC data buffer start address area in SRAM2
 741:Drivers/STM32WBxx_HAL_Driver/Src/stm32wbxx_hal_flash_ex.c ****   *         This parameter must be the double-word aligned
 742:Drivers/STM32WBxx_HAL_Driver/Src/stm32wbxx_hal_flash_ex.c ****   * @retval None
 743:Drivers/STM32WBxx_HAL_Driver/Src/stm32wbxx_hal_flash_ex.c ****   */
 744:Drivers/STM32WBxx_HAL_Driver/Src/stm32wbxx_hal_flash_ex.c **** static void FLASH_OB_IPCCBufferAddrConfig(uint32_t IPCCDataBufAddr)
 745:Drivers/STM32WBxx_HAL_Driver/Src/stm32wbxx_hal_flash_ex.c **** {
 397              		.loc 1 745 1 is_stmt 1 view -0
ARM GAS  C:\Users\Nathan\AppData\Local\Temp\cclrXYzQ.s 			page 21


 398              		.cfi_startproc
 399              		@ args = 0, pretend = 0, frame = 0
 400              		@ frame_needed = 0, uses_anonymous_args = 0
 401              		@ link register save eliminated.
 746:Drivers/STM32WBxx_HAL_Driver/Src/stm32wbxx_hal_flash_ex.c ****   assert_param(IS_OB_IPCC_BUF_ADDR(IPCCDataBufAddr));
 402              		.loc 1 746 3 view .LVU104
 747:Drivers/STM32WBxx_HAL_Driver/Src/stm32wbxx_hal_flash_ex.c **** 
 748:Drivers/STM32WBxx_HAL_Driver/Src/stm32wbxx_hal_flash_ex.c ****   /* Configure the option bytes register */
 749:Drivers/STM32WBxx_HAL_Driver/Src/stm32wbxx_hal_flash_ex.c ****   WRITE_REG(FLASH->IPCCBR, (uint32_t)((IPCCDataBufAddr - SRAM2A_BASE) >> 4));
 403              		.loc 1 749 3 view .LVU105
 404 0000 00F15F40 		add	r0, r0, #-553648128
 405              	.LVL31:
 406              		.loc 1 749 3 is_stmt 0 view .LVU106
 407 0004 00F57D00 		add	r0, r0, #16580608
 408              	.LVL32:
 409              		.loc 1 749 3 view .LVU107
 410 0008 0009     		lsrs	r0, r0, #4
 411              	.LVL33:
 412              		.loc 1 749 3 view .LVU108
 413 000a 014B     		ldr	r3, .L35
 414 000c D863     		str	r0, [r3, #60]
 750:Drivers/STM32WBxx_HAL_Driver/Src/stm32wbxx_hal_flash_ex.c **** }
 415              		.loc 1 750 1 view .LVU109
 416 000e 7047     		bx	lr
 417              	.L36:
 418              		.align	2
 419              	.L35:
 420 0010 00400058 		.word	1476411392
 421              		.cfi_endproc
 422              	.LFE1120:
 424              		.section	.text.FLASH_OB_SecureConfig,"ax",%progbits
 425              		.align	1
 426              		.syntax unified
 427              		.thumb
 428              		.thumb_func
 430              	FLASH_OB_SecureConfig:
 431              	.LVL34:
 432              	.LFB1121:
 751:Drivers/STM32WBxx_HAL_Driver/Src/stm32wbxx_hal_flash_ex.c **** 
 752:Drivers/STM32WBxx_HAL_Driver/Src/stm32wbxx_hal_flash_ex.c **** /**
 753:Drivers/STM32WBxx_HAL_Driver/Src/stm32wbxx_hal_flash_ex.c ****   * @brief  Configure the secure start address of the different memories (FLASH and SRAM2),
 754:Drivers/STM32WBxx_HAL_Driver/Src/stm32wbxx_hal_flash_ex.c ****   *         the secure mode and the CPU2 Secure Boot reset vector
 755:Drivers/STM32WBxx_HAL_Driver/Src/stm32wbxx_hal_flash_ex.c ****   * @note   To configure the PCROP options, the option lock bit OPTLOCK must be
 756:Drivers/STM32WBxx_HAL_Driver/Src/stm32wbxx_hal_flash_ex.c ****   *         cleared with the call of the @ref HAL_FLASH_OB_Unlock() function.
 757:Drivers/STM32WBxx_HAL_Driver/Src/stm32wbxx_hal_flash_ex.c ****   * @param  pOBParam Pointer to an @ref FLASH_OBProgramInitTypeDef structure that
 758:Drivers/STM32WBxx_HAL_Driver/Src/stm32wbxx_hal_flash_ex.c ****   *         contains the configuration information for the programming
 759:Drivers/STM32WBxx_HAL_Driver/Src/stm32wbxx_hal_flash_ex.c ****   * @retval void
 760:Drivers/STM32WBxx_HAL_Driver/Src/stm32wbxx_hal_flash_ex.c ****   */
 761:Drivers/STM32WBxx_HAL_Driver/Src/stm32wbxx_hal_flash_ex.c **** static void FLASH_OB_SecureConfig(FLASH_OBProgramInitTypeDef *pOBParam)
 762:Drivers/STM32WBxx_HAL_Driver/Src/stm32wbxx_hal_flash_ex.c **** {
 433              		.loc 1 762 1 is_stmt 1 view -0
 434              		.cfi_startproc
 435              		@ args = 0, pretend = 0, frame = 0
 436              		@ frame_needed = 0, uses_anonymous_args = 0
 437              		@ link register save eliminated.
 763:Drivers/STM32WBxx_HAL_Driver/Src/stm32wbxx_hal_flash_ex.c ****   uint32_t sfr_reg_val = READ_REG(FLASH->SFR);
 438              		.loc 1 763 3 view .LVU111
ARM GAS  C:\Users\Nathan\AppData\Local\Temp\cclrXYzQ.s 			page 22


 439              		.loc 1 763 12 is_stmt 0 view .LVU112
 440 0000 294B     		ldr	r3, .L45
 441 0002 D3F88020 		ldr	r2, [r3, #128]
 442              	.LVL35:
 764:Drivers/STM32WBxx_HAL_Driver/Src/stm32wbxx_hal_flash_ex.c ****   uint32_t srrvr_reg_val = READ_REG(FLASH->SRRVR);
 443              		.loc 1 764 3 is_stmt 1 view .LVU113
 444              		.loc 1 764 12 is_stmt 0 view .LVU114
 445 0006 D3F88430 		ldr	r3, [r3, #132]
 446              	.LVL36:
 765:Drivers/STM32WBxx_HAL_Driver/Src/stm32wbxx_hal_flash_ex.c **** 
 766:Drivers/STM32WBxx_HAL_Driver/Src/stm32wbxx_hal_flash_ex.c ****   if ((pOBParam->OptionType & OPTIONBYTE_SECURE_MODE) != 0U)
 447              		.loc 1 766 3 is_stmt 1 view .LVU115
 448              		.loc 1 766 16 is_stmt 0 view .LVU116
 449 000a 0168     		ldr	r1, [r0]
 450              		.loc 1 766 6 view .LVU117
 451 000c 11F4007F 		tst	r1, #512
 452 0010 26D0     		beq	.L38
 767:Drivers/STM32WBxx_HAL_Driver/Src/stm32wbxx_hal_flash_ex.c ****   {
 768:Drivers/STM32WBxx_HAL_Driver/Src/stm32wbxx_hal_flash_ex.c ****     assert_param(IS_OB_SFSA_START_ADDR(pOBParam->SecureFlashStartAddr));
 453              		.loc 1 768 5 is_stmt 1 view .LVU118
 769:Drivers/STM32WBxx_HAL_Driver/Src/stm32wbxx_hal_flash_ex.c ****     assert_param(IS_OB_SBRSA_START_ADDR(pOBParam->SecureRAM2aStartAddr));
 454              		.loc 1 769 5 view .LVU119
 770:Drivers/STM32WBxx_HAL_Driver/Src/stm32wbxx_hal_flash_ex.c ****     assert_param(IS_OB_SNBRSA_START_ADDR(pOBParam->SecureRAM2bStartAddr));
 455              		.loc 1 770 5 view .LVU120
 771:Drivers/STM32WBxx_HAL_Driver/Src/stm32wbxx_hal_flash_ex.c ****     assert_param(IS_OB_SECURE_MODE(pOBParam->SecureMode));
 456              		.loc 1 771 5 view .LVU121
 772:Drivers/STM32WBxx_HAL_Driver/Src/stm32wbxx_hal_flash_ex.c **** 
 773:Drivers/STM32WBxx_HAL_Driver/Src/stm32wbxx_hal_flash_ex.c ****     /* Configure SFR register content with start PAGE index to secure */
 774:Drivers/STM32WBxx_HAL_Driver/Src/stm32wbxx_hal_flash_ex.c ****     MODIFY_REG(sfr_reg_val, FLASH_SFR_SFSA, (((pOBParam->SecureFlashStartAddr - FLASH_BASE) / FLASH
 457              		.loc 1 774 5 view .LVU122
 458 0012 22F0FF02 		bic	r2, r2, #255
 459              	.LVL37:
 460              		.loc 1 774 5 is_stmt 0 view .LVU123
 461 0016 016B     		ldr	r1, [r0, #48]
 462 0018 01F17841 		add	r1, r1, #-134217728
 463 001c 42EA1131 		orr	r1, r2, r1, lsr #12
 464              	.LVL38:
 775:Drivers/STM32WBxx_HAL_Driver/Src/stm32wbxx_hal_flash_ex.c **** 
 776:Drivers/STM32WBxx_HAL_Driver/Src/stm32wbxx_hal_flash_ex.c ****     /* Configure SRRVR register */
 777:Drivers/STM32WBxx_HAL_Driver/Src/stm32wbxx_hal_flash_ex.c **** #if defined(FLASH_SRRVR_SBRSA_A)
 778:Drivers/STM32WBxx_HAL_Driver/Src/stm32wbxx_hal_flash_ex.c ****     MODIFY_REG(srrvr_reg_val, (FLASH_SRRVR_SBRSA_A | FLASH_SRRVR_SBRSA_B), \
 779:Drivers/STM32WBxx_HAL_Driver/Src/stm32wbxx_hal_flash_ex.c ****                (((((pOBParam->SecureRAM2aStartAddr - SRAM2A_BASE) >> SRAM_SECURE_PAGE_GRANULARITY_O
 780:Drivers/STM32WBxx_HAL_Driver/Src/stm32wbxx_hal_flash_ex.c ****                 ((((pOBParam->SecureRAM2bStartAddr - SRAM2B_BASE) >> SRAM_SECURE_PAGE_GRANULARITY_O
 781:Drivers/STM32WBxx_HAL_Driver/Src/stm32wbxx_hal_flash_ex.c **** #else
 782:Drivers/STM32WBxx_HAL_Driver/Src/stm32wbxx_hal_flash_ex.c ****     MODIFY_REG(srrvr_reg_val, (FLASH_SRRVR_SBRSA | FLASH_SRRVR_SNBRSA), \
 465              		.loc 1 782 5 is_stmt 1 view .LVU124
 466 0020 23F07953 		bic	r3, r3, #1044381696
 467              	.LVL39:
 468              		.loc 1 782 5 is_stmt 0 view .LVU125
 469 0024 23F47013 		bic	r3, r3, #3932160
 470 0028 426B     		ldr	r2, [r0, #52]
 471 002a 02F15F42 		add	r2, r2, #-553648128
 472 002e 02F57D02 		add	r2, r2, #16580608
 473 0032 4FEA922C 		lsr	ip, r2, #10
 474 0036 826B     		ldr	r2, [r0, #56]
 475 0038 02F16042 		add	r2, r2, #-536870912
 476 003c A2F56032 		sub	r2, r2, #229376
ARM GAS  C:\Users\Nathan\AppData\Local\Temp\cclrXYzQ.s 			page 23


 477 0040 920A     		lsrs	r2, r2, #10
 478 0042 5206     		lsls	r2, r2, #25
 479 0044 42EA8C42 		orr	r2, r2, ip, lsl #18
 480 0048 1343     		orrs	r3, r3, r2
 481              	.LVL40:
 783:Drivers/STM32WBxx_HAL_Driver/Src/stm32wbxx_hal_flash_ex.c ****                (((((pOBParam->SecureRAM2aStartAddr - SRAM2A_BASE) >> SRAM_SECURE_PAGE_GRANULARITY_O
 784:Drivers/STM32WBxx_HAL_Driver/Src/stm32wbxx_hal_flash_ex.c ****                 ((((pOBParam->SecureRAM2bStartAddr - SRAM2B_BASE) >> SRAM_SECURE_PAGE_GRANULARITY_O
 785:Drivers/STM32WBxx_HAL_Driver/Src/stm32wbxx_hal_flash_ex.c **** #endif /* FLASH_SRRVR_SBRSA_A */
 786:Drivers/STM32WBxx_HAL_Driver/Src/stm32wbxx_hal_flash_ex.c **** 
 787:Drivers/STM32WBxx_HAL_Driver/Src/stm32wbxx_hal_flash_ex.c ****     /* If Full System Secure mode is requested, clear all the corresponding bit */
 788:Drivers/STM32WBxx_HAL_Driver/Src/stm32wbxx_hal_flash_ex.c ****     /* Else set the corresponding bit */
 789:Drivers/STM32WBxx_HAL_Driver/Src/stm32wbxx_hal_flash_ex.c ****     if (pOBParam->SecureMode == SYSTEM_IN_SECURE_MODE)
 482              		.loc 1 789 5 is_stmt 1 view .LVU126
 483              		.loc 1 789 17 is_stmt 0 view .LVU127
 484 004a C26B     		ldr	r2, [r0, #60]
 485              		.loc 1 789 8 view .LVU128
 486 004c B2F5807F 		cmp	r2, #256
 487 0050 1BD0     		beq	.L43
 790:Drivers/STM32WBxx_HAL_Driver/Src/stm32wbxx_hal_flash_ex.c ****     {
 791:Drivers/STM32WBxx_HAL_Driver/Src/stm32wbxx_hal_flash_ex.c ****       CLEAR_BIT(sfr_reg_val, FLASH_SFR_FSD);
 792:Drivers/STM32WBxx_HAL_Driver/Src/stm32wbxx_hal_flash_ex.c **** #if defined(FLASH_SRRVR_BRSD_A)
 793:Drivers/STM32WBxx_HAL_Driver/Src/stm32wbxx_hal_flash_ex.c ****       CLEAR_BIT(srrvr_reg_val, (FLASH_SRRVR_BRSD_A | FLASH_SRRVR_BRSD_B));
 794:Drivers/STM32WBxx_HAL_Driver/Src/stm32wbxx_hal_flash_ex.c **** #else
 795:Drivers/STM32WBxx_HAL_Driver/Src/stm32wbxx_hal_flash_ex.c ****       CLEAR_BIT(srrvr_reg_val, (FLASH_SRRVR_BRSD | FLASH_SRRVR_NBRSD));
 796:Drivers/STM32WBxx_HAL_Driver/Src/stm32wbxx_hal_flash_ex.c **** #endif /* FLASH_SRRVR_BRSD_A */
 797:Drivers/STM32WBxx_HAL_Driver/Src/stm32wbxx_hal_flash_ex.c ****     }
 798:Drivers/STM32WBxx_HAL_Driver/Src/stm32wbxx_hal_flash_ex.c ****     else
 799:Drivers/STM32WBxx_HAL_Driver/Src/stm32wbxx_hal_flash_ex.c ****     {
 800:Drivers/STM32WBxx_HAL_Driver/Src/stm32wbxx_hal_flash_ex.c ****       SET_BIT(sfr_reg_val, FLASH_SFR_FSD);
 488              		.loc 1 800 7 is_stmt 1 view .LVU129
 489 0052 41F48072 		orr	r2, r1, #256
 490              	.LVL41:
 801:Drivers/STM32WBxx_HAL_Driver/Src/stm32wbxx_hal_flash_ex.c **** #if defined(FLASH_SRRVR_BRSD_A)
 802:Drivers/STM32WBxx_HAL_Driver/Src/stm32wbxx_hal_flash_ex.c ****       SET_BIT(srrvr_reg_val, (FLASH_SRRVR_BRSD_A | FLASH_SRRVR_BRSD_B));
 803:Drivers/STM32WBxx_HAL_Driver/Src/stm32wbxx_hal_flash_ex.c **** #else
 804:Drivers/STM32WBxx_HAL_Driver/Src/stm32wbxx_hal_flash_ex.c ****       SET_BIT(srrvr_reg_val, (FLASH_SRRVR_BRSD | FLASH_SRRVR_NBRSD));
 491              		.loc 1 804 7 view .LVU130
 492 0056 43F08143 		orr	r3, r3, #1082130432
 493              	.LVL42:
 494              	.L40:
 805:Drivers/STM32WBxx_HAL_Driver/Src/stm32wbxx_hal_flash_ex.c **** #endif /* FLASH_SRRVR_BRSD_A */
 806:Drivers/STM32WBxx_HAL_Driver/Src/stm32wbxx_hal_flash_ex.c ****     }
 807:Drivers/STM32WBxx_HAL_Driver/Src/stm32wbxx_hal_flash_ex.c **** 
 808:Drivers/STM32WBxx_HAL_Driver/Src/stm32wbxx_hal_flash_ex.c ****     /* Update Flash registers */
 809:Drivers/STM32WBxx_HAL_Driver/Src/stm32wbxx_hal_flash_ex.c ****     WRITE_REG(FLASH->SFR, sfr_reg_val);
 495              		.loc 1 809 5 view .LVU131
 496 005a 1349     		ldr	r1, .L45
 497 005c C1F88020 		str	r2, [r1, #128]
 498              	.L38:
 810:Drivers/STM32WBxx_HAL_Driver/Src/stm32wbxx_hal_flash_ex.c ****   }
 811:Drivers/STM32WBxx_HAL_Driver/Src/stm32wbxx_hal_flash_ex.c **** 
 812:Drivers/STM32WBxx_HAL_Driver/Src/stm32wbxx_hal_flash_ex.c ****   /* Boot vector */
 813:Drivers/STM32WBxx_HAL_Driver/Src/stm32wbxx_hal_flash_ex.c ****   if ((pOBParam->OptionType & OPTIONBYTE_C2_BOOT_VECT) != 0U)
 499              		.loc 1 813 3 view .LVU132
 500              		.loc 1 813 16 is_stmt 0 view .LVU133
 501 0060 0268     		ldr	r2, [r0]
 502              	.LVL43:
ARM GAS  C:\Users\Nathan\AppData\Local\Temp\cclrXYzQ.s 			page 24


 503              		.loc 1 813 6 view .LVU134
 504 0062 12F4807F 		tst	r2, #256
 505 0066 0CD0     		beq	.L41
 814:Drivers/STM32WBxx_HAL_Driver/Src/stm32wbxx_hal_flash_ex.c ****   {
 815:Drivers/STM32WBxx_HAL_Driver/Src/stm32wbxx_hal_flash_ex.c ****     /* Check the parameters */
 816:Drivers/STM32WBxx_HAL_Driver/Src/stm32wbxx_hal_flash_ex.c ****     assert_param(IS_OB_BOOT_VECTOR_ADDR(pOBParam->C2SecureBootVectAddr));
 506              		.loc 1 816 5 is_stmt 1 view .LVU135
 817:Drivers/STM32WBxx_HAL_Driver/Src/stm32wbxx_hal_flash_ex.c ****     assert_param(IS_OB_BOOT_REGION(pOBParam->C2BootRegion));
 507              		.loc 1 817 5 view .LVU136
 818:Drivers/STM32WBxx_HAL_Driver/Src/stm32wbxx_hal_flash_ex.c **** 
 819:Drivers/STM32WBxx_HAL_Driver/Src/stm32wbxx_hal_flash_ex.c ****     /* Set the boot vector */
 820:Drivers/STM32WBxx_HAL_Driver/Src/stm32wbxx_hal_flash_ex.c ****     if (pOBParam->C2BootRegion == OB_C2_BOOT_FROM_FLASH)
 508              		.loc 1 820 5 view .LVU137
 509              		.loc 1 820 17 is_stmt 0 view .LVU138
 510 0068 026C     		ldr	r2, [r0, #64]
 511              		.loc 1 820 8 view .LVU139
 512 006a B2F1004F 		cmp	r2, #-2147483648
 513 006e 11D0     		beq	.L44
 821:Drivers/STM32WBxx_HAL_Driver/Src/stm32wbxx_hal_flash_ex.c ****     {
 822:Drivers/STM32WBxx_HAL_Driver/Src/stm32wbxx_hal_flash_ex.c ****       MODIFY_REG(srrvr_reg_val, (FLASH_SRRVR_SBRV | FLASH_SRRVR_C2OPT),
 823:Drivers/STM32WBxx_HAL_Driver/Src/stm32wbxx_hal_flash_ex.c ****                  (((pOBParam->C2SecureBootVectAddr - FLASH_BASE) >> 2) | pOBParam->C2BootRegion));
 824:Drivers/STM32WBxx_HAL_Driver/Src/stm32wbxx_hal_flash_ex.c ****     }
 825:Drivers/STM32WBxx_HAL_Driver/Src/stm32wbxx_hal_flash_ex.c ****     else
 826:Drivers/STM32WBxx_HAL_Driver/Src/stm32wbxx_hal_flash_ex.c ****     {
 827:Drivers/STM32WBxx_HAL_Driver/Src/stm32wbxx_hal_flash_ex.c ****       MODIFY_REG(srrvr_reg_val, (FLASH_SRRVR_SBRV | FLASH_SRRVR_C2OPT),
 514              		.loc 1 827 7 is_stmt 1 view .LVU140
 515 0070 0E49     		ldr	r1, .L45+4
 516 0072 1940     		ands	r1, r1, r3
 517 0074 436C     		ldr	r3, [r0, #68]
 518              	.LVL44:
 519              		.loc 1 827 7 is_stmt 0 view .LVU141
 520 0076 03F16043 		add	r3, r3, #-536870912
 521 007a 42EA9302 		orr	r2, r2, r3, lsr #2
 522 007e 41EA0203 		orr	r3, r1, r2
 523              	.LVL45:
 524              	.L41:
 828:Drivers/STM32WBxx_HAL_Driver/Src/stm32wbxx_hal_flash_ex.c ****                  (((pOBParam->C2SecureBootVectAddr - SRAM1_BASE) >> 2) | pOBParam->C2BootRegion));
 829:Drivers/STM32WBxx_HAL_Driver/Src/stm32wbxx_hal_flash_ex.c ****     }
 830:Drivers/STM32WBxx_HAL_Driver/Src/stm32wbxx_hal_flash_ex.c ****   }
 831:Drivers/STM32WBxx_HAL_Driver/Src/stm32wbxx_hal_flash_ex.c **** 
 832:Drivers/STM32WBxx_HAL_Driver/Src/stm32wbxx_hal_flash_ex.c ****   /* Update Flash registers */
 833:Drivers/STM32WBxx_HAL_Driver/Src/stm32wbxx_hal_flash_ex.c ****   WRITE_REG(FLASH->SRRVR, srrvr_reg_val);
 525              		.loc 1 833 3 is_stmt 1 view .LVU142
 526 0082 094A     		ldr	r2, .L45
 527 0084 C2F88430 		str	r3, [r2, #132]
 834:Drivers/STM32WBxx_HAL_Driver/Src/stm32wbxx_hal_flash_ex.c **** }
 528              		.loc 1 834 1 is_stmt 0 view .LVU143
 529 0088 7047     		bx	lr
 530              	.LVL46:
 531              	.L43:
 791:Drivers/STM32WBxx_HAL_Driver/Src/stm32wbxx_hal_flash_ex.c **** #if defined(FLASH_SRRVR_BRSD_A)
 532              		.loc 1 791 7 is_stmt 1 view .LVU144
 533 008a 21F48072 		bic	r2, r1, #256
 534              	.LVL47:
 795:Drivers/STM32WBxx_HAL_Driver/Src/stm32wbxx_hal_flash_ex.c **** #endif /* FLASH_SRRVR_BRSD_A */
 535              		.loc 1 795 7 view .LVU145
 536 008e 23F08143 		bic	r3, r3, #1082130432
ARM GAS  C:\Users\Nathan\AppData\Local\Temp\cclrXYzQ.s 			page 25


 537              	.LVL48:
 795:Drivers/STM32WBxx_HAL_Driver/Src/stm32wbxx_hal_flash_ex.c **** #endif /* FLASH_SRRVR_BRSD_A */
 538              		.loc 1 795 7 is_stmt 0 view .LVU146
 539 0092 E2E7     		b	.L40
 540              	.LVL49:
 541              	.L44:
 822:Drivers/STM32WBxx_HAL_Driver/Src/stm32wbxx_hal_flash_ex.c ****                  (((pOBParam->C2SecureBootVectAddr - FLASH_BASE) >> 2) | pOBParam->C2BootRegion));
 542              		.loc 1 822 7 is_stmt 1 view .LVU147
 543 0094 0549     		ldr	r1, .L45+4
 544 0096 1940     		ands	r1, r1, r3
 545 0098 436C     		ldr	r3, [r0, #68]
 546              	.LVL50:
 822:Drivers/STM32WBxx_HAL_Driver/Src/stm32wbxx_hal_flash_ex.c ****                  (((pOBParam->C2SecureBootVectAddr - FLASH_BASE) >> 2) | pOBParam->C2BootRegion));
 547              		.loc 1 822 7 is_stmt 0 view .LVU148
 548 009a 03F17843 		add	r3, r3, #-134217728
 549 009e 42EA9302 		orr	r2, r2, r3, lsr #2
 550 00a2 41EA0203 		orr	r3, r1, r2
 551              	.LVL51:
 822:Drivers/STM32WBxx_HAL_Driver/Src/stm32wbxx_hal_flash_ex.c ****                  (((pOBParam->C2SecureBootVectAddr - FLASH_BASE) >> 2) | pOBParam->C2BootRegion));
 552              		.loc 1 822 7 view .LVU149
 553 00a6 ECE7     		b	.L41
 554              	.L46:
 555              		.align	2
 556              	.L45:
 557 00a8 00400058 		.word	1476411392
 558 00ac 0000FC7F 		.word	2147221504
 559              		.cfi_endproc
 560              	.LFE1121:
 562              		.section	.text.FLASH_OB_GetWRP,"ax",%progbits
 563              		.align	1
 564              		.syntax unified
 565              		.thumb
 566              		.thumb_func
 568              	FLASH_OB_GetWRP:
 569              	.LVL52:
 570              	.LFB1122:
 835:Drivers/STM32WBxx_HAL_Driver/Src/stm32wbxx_hal_flash_ex.c **** 
 836:Drivers/STM32WBxx_HAL_Driver/Src/stm32wbxx_hal_flash_ex.c **** /**
 837:Drivers/STM32WBxx_HAL_Driver/Src/stm32wbxx_hal_flash_ex.c ****   * @brief  Return the FLASH Write Protection Option Bytes value.
 838:Drivers/STM32WBxx_HAL_Driver/Src/stm32wbxx_hal_flash_ex.c ****   * @param[in]   WRPArea Specifies the area to be returned.
 839:Drivers/STM32WBxx_HAL_Driver/Src/stm32wbxx_hal_flash_ex.c ****   *              This parameter can be one of the following values:
 840:Drivers/STM32WBxx_HAL_Driver/Src/stm32wbxx_hal_flash_ex.c ****   *              @arg @ref OB_WRPAREA_BANK1_AREAA Flash Bank 1 Area A
 841:Drivers/STM32WBxx_HAL_Driver/Src/stm32wbxx_hal_flash_ex.c ****   *              @arg @ref OB_WRPAREA_BANK1_AREAB Flash Bank 1 Area B
 842:Drivers/STM32WBxx_HAL_Driver/Src/stm32wbxx_hal_flash_ex.c ****   * @param[out]  WRPStartOffset Specifies the address where to copied the start page
 843:Drivers/STM32WBxx_HAL_Driver/Src/stm32wbxx_hal_flash_ex.c ****   *                             of the write protected area
 844:Drivers/STM32WBxx_HAL_Driver/Src/stm32wbxx_hal_flash_ex.c ****   * @param[out]  WRDPEndOffset Specifies the address where to copied the end page of
 845:Drivers/STM32WBxx_HAL_Driver/Src/stm32wbxx_hal_flash_ex.c ****   *                            the write protected area
 846:Drivers/STM32WBxx_HAL_Driver/Src/stm32wbxx_hal_flash_ex.c ****   * @retval None
 847:Drivers/STM32WBxx_HAL_Driver/Src/stm32wbxx_hal_flash_ex.c ****   */
 848:Drivers/STM32WBxx_HAL_Driver/Src/stm32wbxx_hal_flash_ex.c **** static void FLASH_OB_GetWRP(uint32_t WRPArea, uint32_t *WRPStartOffset, uint32_t *WRDPEndOffset)
 849:Drivers/STM32WBxx_HAL_Driver/Src/stm32wbxx_hal_flash_ex.c **** {
 571              		.loc 1 849 1 is_stmt 1 view -0
 572              		.cfi_startproc
 573              		@ args = 0, pretend = 0, frame = 0
 574              		@ frame_needed = 0, uses_anonymous_args = 0
 575              		@ link register save eliminated.
 850:Drivers/STM32WBxx_HAL_Driver/Src/stm32wbxx_hal_flash_ex.c ****   /* Check the parameters */
ARM GAS  C:\Users\Nathan\AppData\Local\Temp\cclrXYzQ.s 			page 26


 851:Drivers/STM32WBxx_HAL_Driver/Src/stm32wbxx_hal_flash_ex.c ****   assert_param(IS_OB_WRPAREA(WRPArea));
 576              		.loc 1 851 3 view .LVU151
 852:Drivers/STM32WBxx_HAL_Driver/Src/stm32wbxx_hal_flash_ex.c **** 
 853:Drivers/STM32WBxx_HAL_Driver/Src/stm32wbxx_hal_flash_ex.c ****   /* Get the configuration of the write protected area */
 854:Drivers/STM32WBxx_HAL_Driver/Src/stm32wbxx_hal_flash_ex.c ****   if (WRPArea == OB_WRPAREA_BANK1_AREAA)
 577              		.loc 1 854 3 view .LVU152
 578              		.loc 1 854 6 is_stmt 0 view .LVU153
 579 0000 40B9     		cbnz	r0, .L48
 855:Drivers/STM32WBxx_HAL_Driver/Src/stm32wbxx_hal_flash_ex.c ****   {
 856:Drivers/STM32WBxx_HAL_Driver/Src/stm32wbxx_hal_flash_ex.c ****     *WRPStartOffset = READ_BIT(FLASH->WRP1AR, FLASH_WRP1AR_WRP1A_STRT);
 580              		.loc 1 856 5 is_stmt 1 view .LVU154
 581              		.loc 1 856 23 is_stmt 0 view .LVU155
 582 0002 0948     		ldr	r0, .L50
 583              	.LVL53:
 584              		.loc 1 856 23 view .LVU156
 585 0004 C36A     		ldr	r3, [r0, #44]
 586 0006 DBB2     		uxtb	r3, r3
 587              		.loc 1 856 21 view .LVU157
 588 0008 0B60     		str	r3, [r1]
 857:Drivers/STM32WBxx_HAL_Driver/Src/stm32wbxx_hal_flash_ex.c ****     *WRDPEndOffset = (READ_BIT(FLASH->WRP1AR, FLASH_WRP1AR_WRP1A_END) >> FLASH_WRP1AR_WRP1A_END_Pos
 589              		.loc 1 857 5 is_stmt 1 view .LVU158
 590              		.loc 1 857 23 is_stmt 0 view .LVU159
 591 000a C36A     		ldr	r3, [r0, #44]
 592              		.loc 1 857 71 view .LVU160
 593 000c C3F30743 		ubfx	r3, r3, #16, #8
 594              		.loc 1 857 20 view .LVU161
 595 0010 1360     		str	r3, [r2]
 596 0012 7047     		bx	lr
 597              	.LVL54:
 598              	.L48:
 858:Drivers/STM32WBxx_HAL_Driver/Src/stm32wbxx_hal_flash_ex.c ****   }
 859:Drivers/STM32WBxx_HAL_Driver/Src/stm32wbxx_hal_flash_ex.c ****   else /* OB_WRPAREA_BANK1_AREAB */
 860:Drivers/STM32WBxx_HAL_Driver/Src/stm32wbxx_hal_flash_ex.c ****   {
 861:Drivers/STM32WBxx_HAL_Driver/Src/stm32wbxx_hal_flash_ex.c ****     *WRPStartOffset = READ_BIT(FLASH->WRP1BR, FLASH_WRP1BR_WRP1B_STRT);
 599              		.loc 1 861 5 is_stmt 1 view .LVU162
 600              		.loc 1 861 23 is_stmt 0 view .LVU163
 601 0014 0448     		ldr	r0, .L50
 602              	.LVL55:
 603              		.loc 1 861 23 view .LVU164
 604 0016 036B     		ldr	r3, [r0, #48]
 605 0018 DBB2     		uxtb	r3, r3
 606              		.loc 1 861 21 view .LVU165
 607 001a 0B60     		str	r3, [r1]
 862:Drivers/STM32WBxx_HAL_Driver/Src/stm32wbxx_hal_flash_ex.c ****     *WRDPEndOffset = (READ_BIT(FLASH->WRP1BR, FLASH_WRP1BR_WRP1B_END) >> FLASH_WRP1BR_WRP1B_END_Pos
 608              		.loc 1 862 5 is_stmt 1 view .LVU166
 609              		.loc 1 862 23 is_stmt 0 view .LVU167
 610 001c 036B     		ldr	r3, [r0, #48]
 611              		.loc 1 862 71 view .LVU168
 612 001e C3F30743 		ubfx	r3, r3, #16, #8
 613              		.loc 1 862 20 view .LVU169
 614 0022 1360     		str	r3, [r2]
 863:Drivers/STM32WBxx_HAL_Driver/Src/stm32wbxx_hal_flash_ex.c ****   }
 864:Drivers/STM32WBxx_HAL_Driver/Src/stm32wbxx_hal_flash_ex.c **** }
 615              		.loc 1 864 1 view .LVU170
 616 0024 7047     		bx	lr
 617              	.L51:
 618 0026 00BF     		.align	2
ARM GAS  C:\Users\Nathan\AppData\Local\Temp\cclrXYzQ.s 			page 27


 619              	.L50:
 620 0028 00400058 		.word	1476411392
 621              		.cfi_endproc
 622              	.LFE1122:
 624              		.section	.text.FLASH_OB_GetRDP,"ax",%progbits
 625              		.align	1
 626              		.syntax unified
 627              		.thumb
 628              		.thumb_func
 630              	FLASH_OB_GetRDP:
 631              	.LFB1123:
 865:Drivers/STM32WBxx_HAL_Driver/Src/stm32wbxx_hal_flash_ex.c **** 
 866:Drivers/STM32WBxx_HAL_Driver/Src/stm32wbxx_hal_flash_ex.c **** /**
 867:Drivers/STM32WBxx_HAL_Driver/Src/stm32wbxx_hal_flash_ex.c ****   * @brief  Return the FLASH Read Protection level.
 868:Drivers/STM32WBxx_HAL_Driver/Src/stm32wbxx_hal_flash_ex.c ****   * @retval FLASH ReadOut Protection Status:
 869:Drivers/STM32WBxx_HAL_Driver/Src/stm32wbxx_hal_flash_ex.c ****   *         This return value can be one of the following values:
 870:Drivers/STM32WBxx_HAL_Driver/Src/stm32wbxx_hal_flash_ex.c ****   *            @arg @ref OB_RDP_LEVEL_0 No protection
 871:Drivers/STM32WBxx_HAL_Driver/Src/stm32wbxx_hal_flash_ex.c ****   *            @arg @ref OB_RDP_LEVEL_1 Read protection of the memory
 872:Drivers/STM32WBxx_HAL_Driver/Src/stm32wbxx_hal_flash_ex.c ****   *            @arg @ref OB_RDP_LEVEL_2 Full chip protection
 873:Drivers/STM32WBxx_HAL_Driver/Src/stm32wbxx_hal_flash_ex.c ****   */
 874:Drivers/STM32WBxx_HAL_Driver/Src/stm32wbxx_hal_flash_ex.c **** static uint32_t FLASH_OB_GetRDP(void)
 875:Drivers/STM32WBxx_HAL_Driver/Src/stm32wbxx_hal_flash_ex.c **** {
 632              		.loc 1 875 1 is_stmt 1 view -0
 633              		.cfi_startproc
 634              		@ args = 0, pretend = 0, frame = 0
 635              		@ frame_needed = 0, uses_anonymous_args = 0
 636              		@ link register save eliminated.
 876:Drivers/STM32WBxx_HAL_Driver/Src/stm32wbxx_hal_flash_ex.c ****   uint32_t rdplvl = READ_BIT(FLASH->OPTR, FLASH_OPTR_RDP);
 637              		.loc 1 876 3 view .LVU172
 638              		.loc 1 876 21 is_stmt 0 view .LVU173
 639 0000 044B     		ldr	r3, .L55
 640 0002 186A     		ldr	r0, [r3, #32]
 641              		.loc 1 876 12 view .LVU174
 642 0004 C0B2     		uxtb	r0, r0
 643              	.LVL56:
 877:Drivers/STM32WBxx_HAL_Driver/Src/stm32wbxx_hal_flash_ex.c **** 
 878:Drivers/STM32WBxx_HAL_Driver/Src/stm32wbxx_hal_flash_ex.c ****   if ((rdplvl != OB_RDP_LEVEL_0) && (rdplvl != OB_RDP_LEVEL_2))
 644              		.loc 1 878 3 is_stmt 1 view .LVU175
 645              		.loc 1 878 6 is_stmt 0 view .LVU176
 646 0006 AA28     		cmp	r0, #170
 647 0008 02D0     		beq	.L52
 648              		.loc 1 878 34 discriminator 1 view .LVU177
 649 000a CC28     		cmp	r0, #204
 650 000c 00D0     		beq	.L52
 879:Drivers/STM32WBxx_HAL_Driver/Src/stm32wbxx_hal_flash_ex.c ****   {
 880:Drivers/STM32WBxx_HAL_Driver/Src/stm32wbxx_hal_flash_ex.c ****     return (OB_RDP_LEVEL_1);
 651              		.loc 1 880 12 view .LVU178
 652 000e BB20     		movs	r0, #187
 653              	.LVL57:
 654              	.L52:
 881:Drivers/STM32WBxx_HAL_Driver/Src/stm32wbxx_hal_flash_ex.c ****   }
 882:Drivers/STM32WBxx_HAL_Driver/Src/stm32wbxx_hal_flash_ex.c ****   else
 883:Drivers/STM32WBxx_HAL_Driver/Src/stm32wbxx_hal_flash_ex.c ****   {
 884:Drivers/STM32WBxx_HAL_Driver/Src/stm32wbxx_hal_flash_ex.c ****     return rdplvl;
 885:Drivers/STM32WBxx_HAL_Driver/Src/stm32wbxx_hal_flash_ex.c ****   }
 886:Drivers/STM32WBxx_HAL_Driver/Src/stm32wbxx_hal_flash_ex.c **** }
 655              		.loc 1 886 1 view .LVU179
ARM GAS  C:\Users\Nathan\AppData\Local\Temp\cclrXYzQ.s 			page 28


 656 0010 7047     		bx	lr
 657              	.L56:
 658 0012 00BF     		.align	2
 659              	.L55:
 660 0014 00400058 		.word	1476411392
 661              		.cfi_endproc
 662              	.LFE1123:
 664              		.section	.text.FLASH_OB_GetUser,"ax",%progbits
 665              		.align	1
 666              		.syntax unified
 667              		.thumb
 668              		.thumb_func
 670              	FLASH_OB_GetUser:
 671              	.LFB1124:
 887:Drivers/STM32WBxx_HAL_Driver/Src/stm32wbxx_hal_flash_ex.c **** 
 888:Drivers/STM32WBxx_HAL_Driver/Src/stm32wbxx_hal_flash_ex.c **** /**
 889:Drivers/STM32WBxx_HAL_Driver/Src/stm32wbxx_hal_flash_ex.c ****   * @brief  Return the FLASH User Option Byte value.
 890:Drivers/STM32WBxx_HAL_Driver/Src/stm32wbxx_hal_flash_ex.c ****   * @retval This return value can be a combination of all the following values:
 891:Drivers/STM32WBxx_HAL_Driver/Src/stm32wbxx_hal_flash_ex.c ****   *         @arg @ref OB_BOR_LEVEL_0 or @ref OB_BOR_LEVEL_1 or ... or @ref OB_BOR_LEVEL_4
 892:Drivers/STM32WBxx_HAL_Driver/Src/stm32wbxx_hal_flash_ex.c ****   *         @arg @ref OB_STOP_RST or @ref OB_STOP_RST
 893:Drivers/STM32WBxx_HAL_Driver/Src/stm32wbxx_hal_flash_ex.c ****   *         @arg @ref OB_STANDBY_RST or @ref OB_STANDBY_NORST
 894:Drivers/STM32WBxx_HAL_Driver/Src/stm32wbxx_hal_flash_ex.c ****   *         @arg @ref OB_SHUTDOWN_RST or @ref OB_SHUTDOWN_NORST
 895:Drivers/STM32WBxx_HAL_Driver/Src/stm32wbxx_hal_flash_ex.c ****   *         @arg @ref OB_IRH_ENABLE or @ref OB_IRH_DISABLE (*)
 896:Drivers/STM32WBxx_HAL_Driver/Src/stm32wbxx_hal_flash_ex.c ****   *         @arg @ref OB_IWDG_SW or @ref OB_IWDG_HW
 897:Drivers/STM32WBxx_HAL_Driver/Src/stm32wbxx_hal_flash_ex.c ****   *         @arg @ref OB_IWDG_STOP_FREEZE or @ref OB_IWDG_STOP_RUN
 898:Drivers/STM32WBxx_HAL_Driver/Src/stm32wbxx_hal_flash_ex.c ****   *         @arg @ref OB_IWDG_STDBY_FREEZE or @ref OB_IWDG_STDBY_RUN
 899:Drivers/STM32WBxx_HAL_Driver/Src/stm32wbxx_hal_flash_ex.c ****   *         @arg @ref OB_WWDG_SW or @ref OB_WWDG_HW
 900:Drivers/STM32WBxx_HAL_Driver/Src/stm32wbxx_hal_flash_ex.c ****   *         @arg @ref OB_BOOT1_SRAM or @ref OB_BOOT1_SYSTEM
 901:Drivers/STM32WBxx_HAL_Driver/Src/stm32wbxx_hal_flash_ex.c ****   *         @arg @ref OB_SRAM2_PARITY_ENABLE or @ref OB_SRAM2_PARITY_DISABLE
 902:Drivers/STM32WBxx_HAL_Driver/Src/stm32wbxx_hal_flash_ex.c ****   *         @arg @ref OB_SRAM2_RST_ERASE or @ref OB_SRAM2_RST_NOT_ERASE
 903:Drivers/STM32WBxx_HAL_Driver/Src/stm32wbxx_hal_flash_ex.c ****   *         @arg @ref OB_BOOT0_FROM_OB or @ref OB_BOOT0_FROM_PIN
 904:Drivers/STM32WBxx_HAL_Driver/Src/stm32wbxx_hal_flash_ex.c ****   *         @arg @ref OB_BOOT0_RESET or @ref OB_BOOT0_SET
 905:Drivers/STM32WBxx_HAL_Driver/Src/stm32wbxx_hal_flash_ex.c ****   *         @arg @ref OB_RESET_MODE_INPUT_ONLY or @ref OB_RESET_MODE_GPIO or @ref OB_RESET_MODE_INP
 906:Drivers/STM32WBxx_HAL_Driver/Src/stm32wbxx_hal_flash_ex.c ****   *         @arg @ref OB_AGC_TRIM_0 or @ref OB_AGC_TRIM_1 or ... or @ref OB_AGC_TRIM_7
 907:Drivers/STM32WBxx_HAL_Driver/Src/stm32wbxx_hal_flash_ex.c ****   */
 908:Drivers/STM32WBxx_HAL_Driver/Src/stm32wbxx_hal_flash_ex.c **** static uint32_t FLASH_OB_GetUser(void)
 909:Drivers/STM32WBxx_HAL_Driver/Src/stm32wbxx_hal_flash_ex.c **** {
 672              		.loc 1 909 1 is_stmt 1 view -0
 673              		.cfi_startproc
 674              		@ args = 0, pretend = 0, frame = 0
 675              		@ frame_needed = 0, uses_anonymous_args = 0
 676              		@ link register save eliminated.
 910:Drivers/STM32WBxx_HAL_Driver/Src/stm32wbxx_hal_flash_ex.c ****   uint32_t user_config = (READ_REG(FLASH->OPTR) & OB_USER_ALL);
 677              		.loc 1 910 3 view .LVU181
 678              		.loc 1 910 27 is_stmt 0 view .LVU182
 679 0000 024B     		ldr	r3, .L58
 680 0002 1B6A     		ldr	r3, [r3, #32]
 681              	.LVL58:
 911:Drivers/STM32WBxx_HAL_Driver/Src/stm32wbxx_hal_flash_ex.c ****   CLEAR_BIT(user_config, (FLASH_OPTR_RDP | FLASH_OPTR_ESE));
 682              		.loc 1 911 3 is_stmt 1 view .LVU183
 912:Drivers/STM32WBxx_HAL_Driver/Src/stm32wbxx_hal_flash_ex.c **** 
 913:Drivers/STM32WBxx_HAL_Driver/Src/stm32wbxx_hal_flash_ex.c ****   return user_config;
 683              		.loc 1 913 3 view .LVU184
 914:Drivers/STM32WBxx_HAL_Driver/Src/stm32wbxx_hal_flash_ex.c **** }
 684              		.loc 1 914 1 is_stmt 0 view .LVU185
 685 0004 0248     		ldr	r0, .L58+4
 686 0006 1840     		ands	r0, r0, r3
ARM GAS  C:\Users\Nathan\AppData\Local\Temp\cclrXYzQ.s 			page 29


 687              	.LVL59:
 688              		.loc 1 914 1 view .LVU186
 689 0008 7047     		bx	lr
 690              	.L59:
 691 000a 00BF     		.align	2
 692              	.L58:
 693 000c 00400058 		.word	1476411392
 694 0010 007E8FEF 		.word	-275808768
 695              		.cfi_endproc
 696              	.LFE1124:
 698              		.section	.text.FLASH_OB_GetPCROP,"ax",%progbits
 699              		.align	1
 700              		.syntax unified
 701              		.thumb
 702              		.thumb_func
 704              	FLASH_OB_GetPCROP:
 705              	.LVL60:
 706              	.LFB1125:
 915:Drivers/STM32WBxx_HAL_Driver/Src/stm32wbxx_hal_flash_ex.c **** 
 916:Drivers/STM32WBxx_HAL_Driver/Src/stm32wbxx_hal_flash_ex.c **** /**
 917:Drivers/STM32WBxx_HAL_Driver/Src/stm32wbxx_hal_flash_ex.c ****   * @brief  Return the FLASH Write Protection Option Bytes value.
 918:Drivers/STM32WBxx_HAL_Driver/Src/stm32wbxx_hal_flash_ex.c ****   * @param PCROPConfig [out] Specifies the address where to copied the configuration of PCROP_RDP o
 919:Drivers/STM32WBxx_HAL_Driver/Src/stm32wbxx_hal_flash_ex.c ****   * @param PCROP1AStartAddr [out] Specifies the address where to copied the start address
 920:Drivers/STM32WBxx_HAL_Driver/Src/stm32wbxx_hal_flash_ex.c ****   *                         of the Zone 1A Proprietary code readout protection
 921:Drivers/STM32WBxx_HAL_Driver/Src/stm32wbxx_hal_flash_ex.c ****   * @param PCROP1AEndAddr [out] Specifies the address where to copied the end address of
 922:Drivers/STM32WBxx_HAL_Driver/Src/stm32wbxx_hal_flash_ex.c ****   *                       the Zone 1A Proprietary code readout protection
 923:Drivers/STM32WBxx_HAL_Driver/Src/stm32wbxx_hal_flash_ex.c ****   * @param PCROP1BStartAddr [out] Specifies the address where to copied the start address
 924:Drivers/STM32WBxx_HAL_Driver/Src/stm32wbxx_hal_flash_ex.c ****   *                         of the Zone 1B Proprietary code readout protection
 925:Drivers/STM32WBxx_HAL_Driver/Src/stm32wbxx_hal_flash_ex.c ****   * @param PCROP1BEndAddr [out] Specifies the address where to copied the end address of
 926:Drivers/STM32WBxx_HAL_Driver/Src/stm32wbxx_hal_flash_ex.c ****   *                       the Zone 1B Proprietary code readout protection
 927:Drivers/STM32WBxx_HAL_Driver/Src/stm32wbxx_hal_flash_ex.c ****   * @retval None
 928:Drivers/STM32WBxx_HAL_Driver/Src/stm32wbxx_hal_flash_ex.c ****   */
 929:Drivers/STM32WBxx_HAL_Driver/Src/stm32wbxx_hal_flash_ex.c **** static void FLASH_OB_GetPCROP(uint32_t *PCROPConfig, uint32_t *PCROP1AStartAddr, uint32_t *PCROP1AE
 930:Drivers/STM32WBxx_HAL_Driver/Src/stm32wbxx_hal_flash_ex.c ****                               uint32_t *PCROP1BStartAddr, uint32_t *PCROP1BEndAddr)
 931:Drivers/STM32WBxx_HAL_Driver/Src/stm32wbxx_hal_flash_ex.c **** {
 707              		.loc 1 931 1 is_stmt 1 view -0
 708              		.cfi_startproc
 709              		@ args = 4, pretend = 0, frame = 0
 710              		@ frame_needed = 0, uses_anonymous_args = 0
 711              		@ link register save eliminated.
 712              		.loc 1 931 1 is_stmt 0 view .LVU188
 713 0000 70B4     		push	{r4, r5, r6}
 714              		.cfi_def_cfa_offset 12
 715              		.cfi_offset 4, -12
 716              		.cfi_offset 5, -8
 717              		.cfi_offset 6, -4
 932:Drivers/STM32WBxx_HAL_Driver/Src/stm32wbxx_hal_flash_ex.c ****   uint32_t pcrop;
 718              		.loc 1 932 3 is_stmt 1 view .LVU189
 933:Drivers/STM32WBxx_HAL_Driver/Src/stm32wbxx_hal_flash_ex.c **** 
 934:Drivers/STM32WBxx_HAL_Driver/Src/stm32wbxx_hal_flash_ex.c ****   pcrop             = (READ_BIT(FLASH->PCROP1BSR, FLASH_PCROP1BSR_PCROP1B_STRT));
 719              		.loc 1 934 3 view .LVU190
 720              		.loc 1 934 24 is_stmt 0 view .LVU191
 721 0002 104D     		ldr	r5, .L62
 722 0004 6E6B     		ldr	r6, [r5, #52]
 723              	.LVL61:
 935:Drivers/STM32WBxx_HAL_Driver/Src/stm32wbxx_hal_flash_ex.c ****   *PCROP1BStartAddr = ((pcrop << FLASH_PCROP_GRANULARITY_OFFSET) + FLASH_BASE);
 724              		.loc 1 935 3 is_stmt 1 view .LVU192
ARM GAS  C:\Users\Nathan\AppData\Local\Temp\cclrXYzQ.s 			page 30


 725              		.loc 1 935 31 is_stmt 0 view .LVU193
 726 0006 104C     		ldr	r4, .L62+4
 727 0008 04EAC626 		and	r6, r4, r6, lsl #11
 728              	.LVL62:
 729              		.loc 1 935 66 view .LVU194
 730 000c 06F10066 		add	r6, r6, #134217728
 731              		.loc 1 935 21 view .LVU195
 732 0010 1E60     		str	r6, [r3]
 936:Drivers/STM32WBxx_HAL_Driver/Src/stm32wbxx_hal_flash_ex.c **** 
 937:Drivers/STM32WBxx_HAL_Driver/Src/stm32wbxx_hal_flash_ex.c ****   pcrop             = (READ_BIT(FLASH->PCROP1BER, FLASH_PCROP1BER_PCROP1B_END));
 733              		.loc 1 937 3 is_stmt 1 view .LVU196
 734              		.loc 1 937 24 is_stmt 0 view .LVU197
 735 0012 AB6B     		ldr	r3, [r5, #56]
 736              	.LVL63:
 938:Drivers/STM32WBxx_HAL_Driver/Src/stm32wbxx_hal_flash_ex.c ****   *PCROP1BEndAddr   = ((pcrop << FLASH_PCROP_GRANULARITY_OFFSET) + FLASH_BASE);
 737              		.loc 1 938 3 is_stmt 1 view .LVU198
 738              		.loc 1 938 31 is_stmt 0 view .LVU199
 739 0014 04EAC323 		and	r3, r4, r3, lsl #11
 740              	.LVL64:
 741              		.loc 1 938 66 view .LVU200
 742 0018 03F10063 		add	r3, r3, #134217728
 743              		.loc 1 938 21 view .LVU201
 744 001c 039E     		ldr	r6, [sp, #12]
 745 001e 3360     		str	r3, [r6]
 939:Drivers/STM32WBxx_HAL_Driver/Src/stm32wbxx_hal_flash_ex.c **** 
 940:Drivers/STM32WBxx_HAL_Driver/Src/stm32wbxx_hal_flash_ex.c ****   pcrop             = (READ_BIT(FLASH->PCROP1ASR, FLASH_PCROP1ASR_PCROP1A_STRT));
 746              		.loc 1 940 3 is_stmt 1 view .LVU202
 747              		.loc 1 940 24 is_stmt 0 view .LVU203
 748 0020 6B6A     		ldr	r3, [r5, #36]
 749              	.LVL65:
 941:Drivers/STM32WBxx_HAL_Driver/Src/stm32wbxx_hal_flash_ex.c ****   *PCROP1AStartAddr = ((pcrop << FLASH_PCROP_GRANULARITY_OFFSET) + FLASH_BASE);
 750              		.loc 1 941 3 is_stmt 1 view .LVU204
 751              		.loc 1 941 31 is_stmt 0 view .LVU205
 752 0022 04EAC323 		and	r3, r4, r3, lsl #11
 753              	.LVL66:
 754              		.loc 1 941 66 view .LVU206
 755 0026 03F10063 		add	r3, r3, #134217728
 756              		.loc 1 941 21 view .LVU207
 757 002a 0B60     		str	r3, [r1]
 942:Drivers/STM32WBxx_HAL_Driver/Src/stm32wbxx_hal_flash_ex.c **** 
 943:Drivers/STM32WBxx_HAL_Driver/Src/stm32wbxx_hal_flash_ex.c ****   pcrop             = (READ_BIT(FLASH->PCROP1AER, FLASH_PCROP1AER_PCROP1A_END));
 758              		.loc 1 943 3 is_stmt 1 view .LVU208
 759              		.loc 1 943 24 is_stmt 0 view .LVU209
 760 002c AB6A     		ldr	r3, [r5, #40]
 761              	.LVL67:
 944:Drivers/STM32WBxx_HAL_Driver/Src/stm32wbxx_hal_flash_ex.c ****   *PCROP1AEndAddr   = ((pcrop << FLASH_PCROP_GRANULARITY_OFFSET) + FLASH_BASE);
 762              		.loc 1 944 3 is_stmt 1 view .LVU210
 763              		.loc 1 944 31 is_stmt 0 view .LVU211
 764 002e 04EAC324 		and	r4, r4, r3, lsl #11
 765              		.loc 1 944 66 view .LVU212
 766 0032 04F10064 		add	r4, r4, #134217728
 767              		.loc 1 944 21 view .LVU213
 768 0036 1460     		str	r4, [r2]
 945:Drivers/STM32WBxx_HAL_Driver/Src/stm32wbxx_hal_flash_ex.c **** 
 946:Drivers/STM32WBxx_HAL_Driver/Src/stm32wbxx_hal_flash_ex.c ****   *PCROPConfig      = (READ_REG(FLASH->PCROP1AER) & FLASH_PCROP1AER_PCROP_RDP);
 769              		.loc 1 946 3 is_stmt 1 view .LVU214
 770              		.loc 1 946 24 is_stmt 0 view .LVU215
ARM GAS  C:\Users\Nathan\AppData\Local\Temp\cclrXYzQ.s 			page 31


 771 0038 AB6A     		ldr	r3, [r5, #40]
 772              	.LVL68:
 773              		.loc 1 946 51 view .LVU216
 774 003a 03F00043 		and	r3, r3, #-2147483648
 775              		.loc 1 946 21 view .LVU217
 776 003e 0360     		str	r3, [r0]
 947:Drivers/STM32WBxx_HAL_Driver/Src/stm32wbxx_hal_flash_ex.c **** }
 777              		.loc 1 947 1 view .LVU218
 778 0040 70BC     		pop	{r4, r5, r6}
 779              		.cfi_restore 6
 780              		.cfi_restore 5
 781              		.cfi_restore 4
 782              		.cfi_def_cfa_offset 0
 783              	.LVL69:
 784              		.loc 1 947 1 view .LVU219
 785 0042 7047     		bx	lr
 786              	.L63:
 787              		.align	2
 788              	.L62:
 789 0044 00400058 		.word	1476411392
 790 0048 00F80F00 		.word	1046528
 791              		.cfi_endproc
 792              	.LFE1125:
 794              		.section	.text.FLASH_OB_GetIPCCBufferAddr,"ax",%progbits
 795              		.align	1
 796              		.syntax unified
 797              		.thumb
 798              		.thumb_func
 800              	FLASH_OB_GetIPCCBufferAddr:
 801              	.LFB1126:
 948:Drivers/STM32WBxx_HAL_Driver/Src/stm32wbxx_hal_flash_ex.c **** 
 949:Drivers/STM32WBxx_HAL_Driver/Src/stm32wbxx_hal_flash_ex.c **** /**
 950:Drivers/STM32WBxx_HAL_Driver/Src/stm32wbxx_hal_flash_ex.c ****   * @brief  Return the FLASH IPCC data buffer base address Option Byte value.
 951:Drivers/STM32WBxx_HAL_Driver/Src/stm32wbxx_hal_flash_ex.c ****   * @retval Returned value is the IPCC data buffer start address area in SRAM2.
 952:Drivers/STM32WBxx_HAL_Driver/Src/stm32wbxx_hal_flash_ex.c ****   */
 953:Drivers/STM32WBxx_HAL_Driver/Src/stm32wbxx_hal_flash_ex.c **** static uint32_t FLASH_OB_GetIPCCBufferAddr(void)
 954:Drivers/STM32WBxx_HAL_Driver/Src/stm32wbxx_hal_flash_ex.c **** {
 802              		.loc 1 954 1 is_stmt 1 view -0
 803              		.cfi_startproc
 804              		@ args = 0, pretend = 0, frame = 0
 805              		@ frame_needed = 0, uses_anonymous_args = 0
 806              		@ link register save eliminated.
 955:Drivers/STM32WBxx_HAL_Driver/Src/stm32wbxx_hal_flash_ex.c ****   return (uint32_t)((READ_BIT(FLASH->IPCCBR, FLASH_IPCCBR_IPCCDBA) << 4) + SRAM2A_BASE);
 807              		.loc 1 955 3 view .LVU221
 808              		.loc 1 955 22 is_stmt 0 view .LVU222
 809 0000 044B     		ldr	r3, .L65
 810 0002 DB6B     		ldr	r3, [r3, #60]
 811              		.loc 1 955 68 view .LVU223
 812 0004 0448     		ldr	r0, .L65+4
 813 0006 00EA0310 		and	r0, r0, r3, lsl #4
 956:Drivers/STM32WBxx_HAL_Driver/Src/stm32wbxx_hal_flash_ex.c **** }
 814              		.loc 1 956 1 view .LVU224
 815 000a 00F10050 		add	r0, r0, #536870912
 816 000e 00F54030 		add	r0, r0, #196608
 817 0012 7047     		bx	lr
 818              	.L66:
 819              		.align	2
ARM GAS  C:\Users\Nathan\AppData\Local\Temp\cclrXYzQ.s 			page 32


 820              	.L65:
 821 0014 00400058 		.word	1476411392
 822 0018 F0FF0300 		.word	262128
 823              		.cfi_endproc
 824              	.LFE1126:
 826              		.section	.text.FLASH_OB_GetSecureMemoryConfig,"ax",%progbits
 827              		.align	1
 828              		.syntax unified
 829              		.thumb
 830              		.thumb_func
 832              	FLASH_OB_GetSecureMemoryConfig:
 833              	.LVL70:
 834              	.LFB1127:
 957:Drivers/STM32WBxx_HAL_Driver/Src/stm32wbxx_hal_flash_ex.c **** 
 958:Drivers/STM32WBxx_HAL_Driver/Src/stm32wbxx_hal_flash_ex.c **** /**
 959:Drivers/STM32WBxx_HAL_Driver/Src/stm32wbxx_hal_flash_ex.c ****   * @brief  Return the Secure Flash start address, Secure Backup RAM2a start address, Secure non-Ba
 960:Drivers/STM32WBxx_HAL_Driver/Src/stm32wbxx_hal_flash_ex.c ****   * @param  SecureFlashStartAddr Specifies the address where to copied the Secure Flash start addre
 961:Drivers/STM32WBxx_HAL_Driver/Src/stm32wbxx_hal_flash_ex.c ****   * @param  SecureRAM2aStartAddr Specifies the address where to copied the Secure Backup RAM2a star
 962:Drivers/STM32WBxx_HAL_Driver/Src/stm32wbxx_hal_flash_ex.c ****   * @param  SecureRAM2bStartAddr Specifies the address where to copied the Secure non-Backup RAM2b 
 963:Drivers/STM32WBxx_HAL_Driver/Src/stm32wbxx_hal_flash_ex.c ****   * @param  SecureMode           Specifies the address where to copied the Secure Mode.
 964:Drivers/STM32WBxx_HAL_Driver/Src/stm32wbxx_hal_flash_ex.c ****   *                              This return value can be one of the following values:
 965:Drivers/STM32WBxx_HAL_Driver/Src/stm32wbxx_hal_flash_ex.c ****   *                              @arg @ref SYSTEM_IN_SECURE_MODE : Security enabled
 966:Drivers/STM32WBxx_HAL_Driver/Src/stm32wbxx_hal_flash_ex.c ****   *                              @arg @ref SYSTEM_NOT_IN_SECURE_MODE : Security disabled
 967:Drivers/STM32WBxx_HAL_Driver/Src/stm32wbxx_hal_flash_ex.c ****   * @retval None
 968:Drivers/STM32WBxx_HAL_Driver/Src/stm32wbxx_hal_flash_ex.c ****   */
 969:Drivers/STM32WBxx_HAL_Driver/Src/stm32wbxx_hal_flash_ex.c **** static void FLASH_OB_GetSecureMemoryConfig(uint32_t *SecureFlashStartAddr, uint32_t *SecureRAM2aSta
 970:Drivers/STM32WBxx_HAL_Driver/Src/stm32wbxx_hal_flash_ex.c ****                                            uint32_t *SecureRAM2bStartAddr, uint32_t *SecureMode)
 971:Drivers/STM32WBxx_HAL_Driver/Src/stm32wbxx_hal_flash_ex.c **** {
 835              		.loc 1 971 1 is_stmt 1 view -0
 836              		.cfi_startproc
 837              		@ args = 0, pretend = 0, frame = 0
 838              		@ frame_needed = 0, uses_anonymous_args = 0
 839              		@ link register save eliminated.
 840              		.loc 1 971 1 is_stmt 0 view .LVU226
 841 0000 70B4     		push	{r4, r5, r6}
 842              		.cfi_def_cfa_offset 12
 843              		.cfi_offset 4, -12
 844              		.cfi_offset 5, -8
 845              		.cfi_offset 6, -4
 972:Drivers/STM32WBxx_HAL_Driver/Src/stm32wbxx_hal_flash_ex.c ****   uint32_t sfr_reg_val = READ_REG(FLASH->SFR);
 846              		.loc 1 972 3 is_stmt 1 view .LVU227
 847              		.loc 1 972 12 is_stmt 0 view .LVU228
 848 0002 114E     		ldr	r6, .L69
 849 0004 D6F88050 		ldr	r5, [r6, #128]
 850              	.LVL71:
 973:Drivers/STM32WBxx_HAL_Driver/Src/stm32wbxx_hal_flash_ex.c ****   uint32_t srrvr_reg_val = READ_REG(FLASH->SRRVR);
 851              		.loc 1 973 3 is_stmt 1 view .LVU229
 852              		.loc 1 973 12 is_stmt 0 view .LVU230
 853 0008 D6F88440 		ldr	r4, [r6, #132]
 854              	.LVL72:
 974:Drivers/STM32WBxx_HAL_Driver/Src/stm32wbxx_hal_flash_ex.c **** 
 975:Drivers/STM32WBxx_HAL_Driver/Src/stm32wbxx_hal_flash_ex.c ****   /* Get Secure Flash start address */
 976:Drivers/STM32WBxx_HAL_Driver/Src/stm32wbxx_hal_flash_ex.c ****   uint32_t user_config = (READ_BIT(sfr_reg_val, FLASH_SFR_SFSA) >> FLASH_SFR_SFSA_Pos);
 855              		.loc 1 976 3 is_stmt 1 view .LVU231
 856              		.loc 1 976 12 is_stmt 0 view .LVU232
 857 000c EDB2     		uxtb	r5, r5
 858              	.LVL73:
ARM GAS  C:\Users\Nathan\AppData\Local\Temp\cclrXYzQ.s 			page 33


 977:Drivers/STM32WBxx_HAL_Driver/Src/stm32wbxx_hal_flash_ex.c **** 
 978:Drivers/STM32WBxx_HAL_Driver/Src/stm32wbxx_hal_flash_ex.c ****   *SecureFlashStartAddr = ((user_config * FLASH_PAGE_SIZE) + FLASH_BASE);
 859              		.loc 1 978 3 is_stmt 1 view .LVU233
 860              		.loc 1 978 60 is_stmt 0 view .LVU234
 861 000e 05F50045 		add	r5, r5, #32768
 862              	.LVL74:
 863              		.loc 1 978 60 view .LVU235
 864 0012 2D03     		lsls	r5, r5, #12
 865              	.LVL75:
 866              		.loc 1 978 25 view .LVU236
 867 0014 0560     		str	r5, [r0]
 979:Drivers/STM32WBxx_HAL_Driver/Src/stm32wbxx_hal_flash_ex.c **** 
 980:Drivers/STM32WBxx_HAL_Driver/Src/stm32wbxx_hal_flash_ex.c ****   /* Get Secure SRAM2a start address */
 981:Drivers/STM32WBxx_HAL_Driver/Src/stm32wbxx_hal_flash_ex.c **** #if defined(FLASH_SRRVR_SBRSA_A)
 982:Drivers/STM32WBxx_HAL_Driver/Src/stm32wbxx_hal_flash_ex.c ****   user_config = (READ_BIT(srrvr_reg_val, FLASH_SRRVR_SBRSA_A) >> FLASH_SRRVR_SBRSA_A_Pos);
 983:Drivers/STM32WBxx_HAL_Driver/Src/stm32wbxx_hal_flash_ex.c **** #else
 984:Drivers/STM32WBxx_HAL_Driver/Src/stm32wbxx_hal_flash_ex.c ****   user_config = (READ_BIT(srrvr_reg_val, FLASH_SRRVR_SBRSA) >> FLASH_SRRVR_SBRSA_Pos);
 868              		.loc 1 984 3 is_stmt 1 view .LVU237
 869              		.loc 1 984 61 is_stmt 0 view .LVU238
 870 0016 A00C     		lsrs	r0, r4, #18
 871              	.LVL76:
 985:Drivers/STM32WBxx_HAL_Driver/Src/stm32wbxx_hal_flash_ex.c **** #endif /* FLASH_SRRVR_SBRSA_A */
 986:Drivers/STM32WBxx_HAL_Driver/Src/stm32wbxx_hal_flash_ex.c **** 
 987:Drivers/STM32WBxx_HAL_Driver/Src/stm32wbxx_hal_flash_ex.c ****   *SecureRAM2aStartAddr = ((user_config << SRAM_SECURE_PAGE_GRANULARITY_OFFSET) + SRAM2A_BASE);
 872              		.loc 1 987 3 is_stmt 1 view .LVU239
 873              		.loc 1 987 41 is_stmt 0 view .LVU240
 874 0018 8002     		lsls	r0, r0, #10
 875              	.LVL77:
 876              		.loc 1 987 41 view .LVU241
 877 001a 00F4F840 		and	r0, r0, #31744
 878              		.loc 1 987 81 view .LVU242
 879 001e 00F10050 		add	r0, r0, #536870912
 880 0022 00F54030 		add	r0, r0, #196608
 881              		.loc 1 987 25 view .LVU243
 882 0026 0860     		str	r0, [r1]
 988:Drivers/STM32WBxx_HAL_Driver/Src/stm32wbxx_hal_flash_ex.c **** 
 989:Drivers/STM32WBxx_HAL_Driver/Src/stm32wbxx_hal_flash_ex.c ****   /* Get Secure SRAM2b start address */
 990:Drivers/STM32WBxx_HAL_Driver/Src/stm32wbxx_hal_flash_ex.c **** #if defined(FLASH_SRRVR_SBRSA_B)
 991:Drivers/STM32WBxx_HAL_Driver/Src/stm32wbxx_hal_flash_ex.c ****   user_config = (READ_BIT(srrvr_reg_val, FLASH_SRRVR_SBRSA_B) >> FLASH_SRRVR_SBRSA_B_Pos);
 992:Drivers/STM32WBxx_HAL_Driver/Src/stm32wbxx_hal_flash_ex.c **** #else
 993:Drivers/STM32WBxx_HAL_Driver/Src/stm32wbxx_hal_flash_ex.c ****   user_config = (READ_BIT(srrvr_reg_val, FLASH_SRRVR_SNBRSA) >> FLASH_SRRVR_SNBRSA_Pos);
 883              		.loc 1 993 3 is_stmt 1 view .LVU244
 884              		.loc 1 993 62 is_stmt 0 view .LVU245
 885 0028 610E     		lsrs	r1, r4, #25
 886              	.LVL78:
 994:Drivers/STM32WBxx_HAL_Driver/Src/stm32wbxx_hal_flash_ex.c **** #endif /* FLASH_SRRVR_SBRSA_B */
 995:Drivers/STM32WBxx_HAL_Driver/Src/stm32wbxx_hal_flash_ex.c **** 
 996:Drivers/STM32WBxx_HAL_Driver/Src/stm32wbxx_hal_flash_ex.c ****   *SecureRAM2bStartAddr = ((user_config << SRAM_SECURE_PAGE_GRANULARITY_OFFSET) + SRAM2B_BASE);
 887              		.loc 1 996 3 is_stmt 1 view .LVU246
 888              		.loc 1 996 41 is_stmt 0 view .LVU247
 889 002a 8902     		lsls	r1, r1, #10
 890              	.LVL79:
 891              		.loc 1 996 41 view .LVU248
 892 002c 01F4F841 		and	r1, r1, #31744
 893              		.loc 1 996 81 view .LVU249
 894 0030 01F10051 		add	r1, r1, #536870912
 895 0034 01F56031 		add	r1, r1, #229376
ARM GAS  C:\Users\Nathan\AppData\Local\Temp\cclrXYzQ.s 			page 34


 896              		.loc 1 996 25 view .LVU250
 897 0038 1160     		str	r1, [r2]
 997:Drivers/STM32WBxx_HAL_Driver/Src/stm32wbxx_hal_flash_ex.c **** 
 998:Drivers/STM32WBxx_HAL_Driver/Src/stm32wbxx_hal_flash_ex.c ****   /* Get Secure Area mode */
 999:Drivers/STM32WBxx_HAL_Driver/Src/stm32wbxx_hal_flash_ex.c ****   *SecureMode = (READ_BIT(FLASH->OPTR, FLASH_OPTR_ESE));
 898              		.loc 1 999 3 is_stmt 1 view .LVU251
 899              		.loc 1 999 18 is_stmt 0 view .LVU252
 900 003a 326A     		ldr	r2, [r6, #32]
 901              	.LVL80:
 902              		.loc 1 999 18 view .LVU253
 903 003c 02F48072 		and	r2, r2, #256
 904              		.loc 1 999 15 view .LVU254
 905 0040 1A60     		str	r2, [r3]
1000:Drivers/STM32WBxx_HAL_Driver/Src/stm32wbxx_hal_flash_ex.c **** }
 906              		.loc 1 1000 1 view .LVU255
 907 0042 70BC     		pop	{r4, r5, r6}
 908              		.cfi_restore 6
 909              		.cfi_restore 5
 910              		.cfi_restore 4
 911              		.cfi_def_cfa_offset 0
 912              	.LVL81:
 913              		.loc 1 1000 1 view .LVU256
 914 0044 7047     		bx	lr
 915              	.L70:
 916 0046 00BF     		.align	2
 917              	.L69:
 918 0048 00400058 		.word	1476411392
 919              		.cfi_endproc
 920              	.LFE1127:
 922              		.section	.text.FLASH_OB_GetC2BootResetConfig,"ax",%progbits
 923              		.align	1
 924              		.syntax unified
 925              		.thumb
 926              		.thumb_func
 928              	FLASH_OB_GetC2BootResetConfig:
 929              	.LVL82:
 930              	.LFB1128:
1001:Drivers/STM32WBxx_HAL_Driver/Src/stm32wbxx_hal_flash_ex.c **** 
1002:Drivers/STM32WBxx_HAL_Driver/Src/stm32wbxx_hal_flash_ex.c **** /**
1003:Drivers/STM32WBxx_HAL_Driver/Src/stm32wbxx_hal_flash_ex.c ****   * @brief  Return the CPU2 Secure Boot reset vector address and the CPU2 Secure Boot Region
1004:Drivers/STM32WBxx_HAL_Driver/Src/stm32wbxx_hal_flash_ex.c ****   * @param  C2BootResetVectAddr Specifies the address where to copied the CPU2 Secure Boot reset ve
1005:Drivers/STM32WBxx_HAL_Driver/Src/stm32wbxx_hal_flash_ex.c ****   * @param  C2BootResetRegion   Specifies the Secure Boot reset memory region
1006:Drivers/STM32WBxx_HAL_Driver/Src/stm32wbxx_hal_flash_ex.c ****   * @retval None
1007:Drivers/STM32WBxx_HAL_Driver/Src/stm32wbxx_hal_flash_ex.c ****   */
1008:Drivers/STM32WBxx_HAL_Driver/Src/stm32wbxx_hal_flash_ex.c **** static void FLASH_OB_GetC2BootResetConfig(uint32_t *C2BootResetVectAddr, uint32_t *C2BootResetRegio
1009:Drivers/STM32WBxx_HAL_Driver/Src/stm32wbxx_hal_flash_ex.c **** {
 931              		.loc 1 1009 1 is_stmt 1 view -0
 932              		.cfi_startproc
 933              		@ args = 0, pretend = 0, frame = 0
 934              		@ frame_needed = 0, uses_anonymous_args = 0
 935              		@ link register save eliminated.
1010:Drivers/STM32WBxx_HAL_Driver/Src/stm32wbxx_hal_flash_ex.c ****   *C2BootResetRegion = (READ_BIT(FLASH->SRRVR, FLASH_SRRVR_C2OPT));
 936              		.loc 1 1010 3 view .LVU258
 937              		.loc 1 1010 25 is_stmt 0 view .LVU259
 938 0000 0D4B     		ldr	r3, .L75
 939 0002 D3F88430 		ldr	r3, [r3, #132]
 940 0006 03F00042 		and	r2, r3, #-2147483648
ARM GAS  C:\Users\Nathan\AppData\Local\Temp\cclrXYzQ.s 			page 35


 941              		.loc 1 1010 22 view .LVU260
 942 000a 0A60     		str	r2, [r1]
1011:Drivers/STM32WBxx_HAL_Driver/Src/stm32wbxx_hal_flash_ex.c **** 
1012:Drivers/STM32WBxx_HAL_Driver/Src/stm32wbxx_hal_flash_ex.c ****   if (*C2BootResetRegion == OB_C2_BOOT_FROM_FLASH)
 943              		.loc 1 1012 3 is_stmt 1 view .LVU261
 944              		.loc 1 1012 6 is_stmt 0 view .LVU262
 945 000c 002B     		cmp	r3, #0
 946 000e 09DB     		blt	.L74
1013:Drivers/STM32WBxx_HAL_Driver/Src/stm32wbxx_hal_flash_ex.c ****   {
1014:Drivers/STM32WBxx_HAL_Driver/Src/stm32wbxx_hal_flash_ex.c ****     *C2BootResetVectAddr = (uint32_t)((READ_BIT(FLASH->SRRVR, FLASH_SRRVR_SBRV) << 2) + FLASH_BASE)
1015:Drivers/STM32WBxx_HAL_Driver/Src/stm32wbxx_hal_flash_ex.c ****   }
1016:Drivers/STM32WBxx_HAL_Driver/Src/stm32wbxx_hal_flash_ex.c ****   else
1017:Drivers/STM32WBxx_HAL_Driver/Src/stm32wbxx_hal_flash_ex.c ****   {
1018:Drivers/STM32WBxx_HAL_Driver/Src/stm32wbxx_hal_flash_ex.c ****     *C2BootResetVectAddr = (uint32_t)((READ_BIT(FLASH->SRRVR, FLASH_SRRVR_SBRV) << 2) + SRAM1_BASE)
 947              		.loc 1 1018 5 is_stmt 1 view .LVU263
 948              		.loc 1 1018 40 is_stmt 0 view .LVU264
 949 0010 094B     		ldr	r3, .L75
 950 0012 D3F88420 		ldr	r2, [r3, #132]
 951              		.loc 1 1018 81 view .LVU265
 952 0016 094B     		ldr	r3, .L75+4
 953 0018 03EA8203 		and	r3, r3, r2, lsl #2
 954              		.loc 1 1018 28 view .LVU266
 955 001c 03F10053 		add	r3, r3, #536870912
 956              		.loc 1 1018 26 view .LVU267
 957 0020 0360     		str	r3, [r0]
1019:Drivers/STM32WBxx_HAL_Driver/Src/stm32wbxx_hal_flash_ex.c ****   }
1020:Drivers/STM32WBxx_HAL_Driver/Src/stm32wbxx_hal_flash_ex.c **** }
 958              		.loc 1 1020 1 view .LVU268
 959 0022 7047     		bx	lr
 960              	.L74:
1014:Drivers/STM32WBxx_HAL_Driver/Src/stm32wbxx_hal_flash_ex.c ****   }
 961              		.loc 1 1014 5 is_stmt 1 view .LVU269
1014:Drivers/STM32WBxx_HAL_Driver/Src/stm32wbxx_hal_flash_ex.c ****   }
 962              		.loc 1 1014 40 is_stmt 0 view .LVU270
 963 0024 044B     		ldr	r3, .L75
 964 0026 D3F88420 		ldr	r2, [r3, #132]
1014:Drivers/STM32WBxx_HAL_Driver/Src/stm32wbxx_hal_flash_ex.c ****   }
 965              		.loc 1 1014 81 view .LVU271
 966 002a 044B     		ldr	r3, .L75+4
 967 002c 03EA8203 		and	r3, r3, r2, lsl #2
1014:Drivers/STM32WBxx_HAL_Driver/Src/stm32wbxx_hal_flash_ex.c ****   }
 968              		.loc 1 1014 28 view .LVU272
 969 0030 03F10063 		add	r3, r3, #134217728
1014:Drivers/STM32WBxx_HAL_Driver/Src/stm32wbxx_hal_flash_ex.c ****   }
 970              		.loc 1 1014 26 view .LVU273
 971 0034 0360     		str	r3, [r0]
 972 0036 7047     		bx	lr
 973              	.L76:
 974              		.align	2
 975              	.L75:
 976 0038 00400058 		.word	1476411392
 977 003c FCFF0F00 		.word	1048572
 978              		.cfi_endproc
 979              	.LFE1128:
 981              		.section	.text.FLASH_OB_ProceedWriteOperation,"ax",%progbits
 982              		.align	1
 983              		.syntax unified
ARM GAS  C:\Users\Nathan\AppData\Local\Temp\cclrXYzQ.s 			page 36


 984              		.thumb
 985              		.thumb_func
 987              	FLASH_OB_ProceedWriteOperation:
 988              	.LFB1129:
1021:Drivers/STM32WBxx_HAL_Driver/Src/stm32wbxx_hal_flash_ex.c **** 
1022:Drivers/STM32WBxx_HAL_Driver/Src/stm32wbxx_hal_flash_ex.c **** /**
1023:Drivers/STM32WBxx_HAL_Driver/Src/stm32wbxx_hal_flash_ex.c ****   * @brief  Proceed the OB Write Operation.
1024:Drivers/STM32WBxx_HAL_Driver/Src/stm32wbxx_hal_flash_ex.c ****   * @retval HAL Status
1025:Drivers/STM32WBxx_HAL_Driver/Src/stm32wbxx_hal_flash_ex.c ****   */
1026:Drivers/STM32WBxx_HAL_Driver/Src/stm32wbxx_hal_flash_ex.c **** static HAL_StatusTypeDef FLASH_OB_ProceedWriteOperation(void)
1027:Drivers/STM32WBxx_HAL_Driver/Src/stm32wbxx_hal_flash_ex.c **** {
 989              		.loc 1 1027 1 is_stmt 1 view -0
 990              		.cfi_startproc
 991              		@ args = 0, pretend = 0, frame = 0
 992              		@ frame_needed = 0, uses_anonymous_args = 0
 993 0000 08B5     		push	{r3, lr}
 994              		.cfi_def_cfa_offset 8
 995              		.cfi_offset 3, -8
 996              		.cfi_offset 14, -4
1028:Drivers/STM32WBxx_HAL_Driver/Src/stm32wbxx_hal_flash_ex.c ****   HAL_StatusTypeDef status;
 997              		.loc 1 1028 3 view .LVU275
1029:Drivers/STM32WBxx_HAL_Driver/Src/stm32wbxx_hal_flash_ex.c **** 
1030:Drivers/STM32WBxx_HAL_Driver/Src/stm32wbxx_hal_flash_ex.c ****   /* Verify that next operation can be proceed */
1031:Drivers/STM32WBxx_HAL_Driver/Src/stm32wbxx_hal_flash_ex.c ****   status = FLASH_WaitForLastOperation(FLASH_TIMEOUT_VALUE);
 998              		.loc 1 1031 3 view .LVU276
 999              		.loc 1 1031 12 is_stmt 0 view .LVU277
 1000 0002 4FF47A70 		mov	r0, #1000
 1001 0006 FFF7FEFF 		bl	FLASH_WaitForLastOperation
 1002              	.LVL83:
1032:Drivers/STM32WBxx_HAL_Driver/Src/stm32wbxx_hal_flash_ex.c **** 
1033:Drivers/STM32WBxx_HAL_Driver/Src/stm32wbxx_hal_flash_ex.c ****   if (status == HAL_OK)
 1003              		.loc 1 1033 3 is_stmt 1 view .LVU278
 1004              		.loc 1 1033 6 is_stmt 0 view .LVU279
 1005 000a 00B1     		cbz	r0, .L80
 1006              	.LVL84:
 1007              	.L78:
1034:Drivers/STM32WBxx_HAL_Driver/Src/stm32wbxx_hal_flash_ex.c ****   {
1035:Drivers/STM32WBxx_HAL_Driver/Src/stm32wbxx_hal_flash_ex.c ****     /* Set OPTSTRT Bit */
1036:Drivers/STM32WBxx_HAL_Driver/Src/stm32wbxx_hal_flash_ex.c ****     SET_BIT(FLASH->CR, FLASH_CR_OPTSTRT);
1037:Drivers/STM32WBxx_HAL_Driver/Src/stm32wbxx_hal_flash_ex.c **** 
1038:Drivers/STM32WBxx_HAL_Driver/Src/stm32wbxx_hal_flash_ex.c ****     /* Wait for last operation to be completed */
1039:Drivers/STM32WBxx_HAL_Driver/Src/stm32wbxx_hal_flash_ex.c ****     status = FLASH_WaitForLastOperation(FLASH_TIMEOUT_VALUE);
1040:Drivers/STM32WBxx_HAL_Driver/Src/stm32wbxx_hal_flash_ex.c ****   }
1041:Drivers/STM32WBxx_HAL_Driver/Src/stm32wbxx_hal_flash_ex.c **** 
1042:Drivers/STM32WBxx_HAL_Driver/Src/stm32wbxx_hal_flash_ex.c ****   return status;
 1008              		.loc 1 1042 3 is_stmt 1 view .LVU280
1043:Drivers/STM32WBxx_HAL_Driver/Src/stm32wbxx_hal_flash_ex.c **** }
 1009              		.loc 1 1043 1 is_stmt 0 view .LVU281
 1010 000c 08BD     		pop	{r3, pc}
 1011              	.LVL85:
 1012              	.L80:
1036:Drivers/STM32WBxx_HAL_Driver/Src/stm32wbxx_hal_flash_ex.c **** 
 1013              		.loc 1 1036 5 is_stmt 1 view .LVU282
 1014 000e 054A     		ldr	r2, .L81
 1015 0010 5369     		ldr	r3, [r2, #20]
 1016 0012 43F40033 		orr	r3, r3, #131072
 1017 0016 5361     		str	r3, [r2, #20]
ARM GAS  C:\Users\Nathan\AppData\Local\Temp\cclrXYzQ.s 			page 37


1039:Drivers/STM32WBxx_HAL_Driver/Src/stm32wbxx_hal_flash_ex.c ****   }
 1018              		.loc 1 1039 5 view .LVU283
1039:Drivers/STM32WBxx_HAL_Driver/Src/stm32wbxx_hal_flash_ex.c ****   }
 1019              		.loc 1 1039 14 is_stmt 0 view .LVU284
 1020 0018 4FF47A70 		mov	r0, #1000
 1021 001c FFF7FEFF 		bl	FLASH_WaitForLastOperation
 1022              	.LVL86:
1039:Drivers/STM32WBxx_HAL_Driver/Src/stm32wbxx_hal_flash_ex.c ****   }
 1023              		.loc 1 1039 14 view .LVU285
 1024 0020 F4E7     		b	.L78
 1025              	.L82:
 1026 0022 00BF     		.align	2
 1027              	.L81:
 1028 0024 00400058 		.word	1476411392
 1029              		.cfi_endproc
 1030              	.LFE1129:
 1032              		.section	.text.HAL_FLASHEx_OBProgram,"ax",%progbits
 1033              		.align	1
 1034              		.global	HAL_FLASHEx_OBProgram
 1035              		.syntax unified
 1036              		.thumb
 1037              		.thumb_func
 1039              	HAL_FLASHEx_OBProgram:
 1040              	.LVL87:
 1041              	.LFB1106:
 272:Drivers/STM32WBxx_HAL_Driver/Src/stm32wbxx_hal_flash_ex.c ****   uint32_t optr;
 1042              		.loc 1 272 1 is_stmt 1 view -0
 1043              		.cfi_startproc
 1044              		@ args = 0, pretend = 0, frame = 0
 1045              		@ frame_needed = 0, uses_anonymous_args = 0
 273:Drivers/STM32WBxx_HAL_Driver/Src/stm32wbxx_hal_flash_ex.c ****   HAL_StatusTypeDef status;
 1046              		.loc 1 273 3 view .LVU287
 274:Drivers/STM32WBxx_HAL_Driver/Src/stm32wbxx_hal_flash_ex.c **** 
 1047              		.loc 1 274 3 view .LVU288
 277:Drivers/STM32WBxx_HAL_Driver/Src/stm32wbxx_hal_flash_ex.c **** 
 1048              		.loc 1 277 3 view .LVU289
 280:Drivers/STM32WBxx_HAL_Driver/Src/stm32wbxx_hal_flash_ex.c **** 
 1049              		.loc 1 280 3 view .LVU290
 280:Drivers/STM32WBxx_HAL_Driver/Src/stm32wbxx_hal_flash_ex.c **** 
 1050              		.loc 1 280 3 view .LVU291
 1051 0000 324B     		ldr	r3, .L106
 1052 0002 1B78     		ldrb	r3, [r3]	@ zero_extendqisi2
 1053 0004 012B     		cmp	r3, #1
 1054 0006 5ED0     		beq	.L93
 272:Drivers/STM32WBxx_HAL_Driver/Src/stm32wbxx_hal_flash_ex.c ****   uint32_t optr;
 1055              		.loc 1 272 1 is_stmt 0 view .LVU292
 1056 0008 10B5     		push	{r4, lr}
 1057              		.cfi_def_cfa_offset 8
 1058              		.cfi_offset 4, -8
 1059              		.cfi_offset 14, -4
 1060 000a 0446     		mov	r4, r0
 280:Drivers/STM32WBxx_HAL_Driver/Src/stm32wbxx_hal_flash_ex.c **** 
 1061              		.loc 1 280 3 is_stmt 1 discriminator 2 view .LVU293
 1062 000c 2F4B     		ldr	r3, .L106
 1063 000e 0122     		movs	r2, #1
 1064 0010 1A70     		strb	r2, [r3]
 280:Drivers/STM32WBxx_HAL_Driver/Src/stm32wbxx_hal_flash_ex.c **** 
ARM GAS  C:\Users\Nathan\AppData\Local\Temp\cclrXYzQ.s 			page 38


 1065              		.loc 1 280 3 discriminator 2 view .LVU294
 282:Drivers/STM32WBxx_HAL_Driver/Src/stm32wbxx_hal_flash_ex.c **** 
 1066              		.loc 1 282 3 view .LVU295
 282:Drivers/STM32WBxx_HAL_Driver/Src/stm32wbxx_hal_flash_ex.c **** 
 1067              		.loc 1 282 20 is_stmt 0 view .LVU296
 1068 0012 0022     		movs	r2, #0
 1069 0014 5A60     		str	r2, [r3, #4]
 285:Drivers/STM32WBxx_HAL_Driver/Src/stm32wbxx_hal_flash_ex.c ****   {
 1070              		.loc 1 285 3 is_stmt 1 view .LVU297
 285:Drivers/STM32WBxx_HAL_Driver/Src/stm32wbxx_hal_flash_ex.c ****   {
 1071              		.loc 1 285 15 is_stmt 0 view .LVU298
 1072 0016 0368     		ldr	r3, [r0]
 285:Drivers/STM32WBxx_HAL_Driver/Src/stm32wbxx_hal_flash_ex.c ****   {
 1073              		.loc 1 285 6 view .LVU299
 1074 0018 13F0010F 		tst	r3, #1
 1075 001c 24D1     		bne	.L98
 1076              	.LVL88:
 1077              	.L85:
 292:Drivers/STM32WBxx_HAL_Driver/Src/stm32wbxx_hal_flash_ex.c ****   {
 1078              		.loc 1 292 3 is_stmt 1 view .LVU300
 292:Drivers/STM32WBxx_HAL_Driver/Src/stm32wbxx_hal_flash_ex.c ****   {
 1079              		.loc 1 292 15 is_stmt 0 view .LVU301
 1080 001e 2368     		ldr	r3, [r4]
 292:Drivers/STM32WBxx_HAL_Driver/Src/stm32wbxx_hal_flash_ex.c ****   {
 1081              		.loc 1 292 28 view .LVU302
 1082 0020 03F00602 		and	r2, r3, #6
 292:Drivers/STM32WBxx_HAL_Driver/Src/stm32wbxx_hal_flash_ex.c ****   {
 1083              		.loc 1 292 6 view .LVU303
 1084 0024 062A     		cmp	r2, #6
 1085 0026 25D0     		beq	.L99
 297:Drivers/STM32WBxx_HAL_Driver/Src/stm32wbxx_hal_flash_ex.c ****   {
 1086              		.loc 1 297 8 is_stmt 1 view .LVU304
 297:Drivers/STM32WBxx_HAL_Driver/Src/stm32wbxx_hal_flash_ex.c ****   {
 1087              		.loc 1 297 11 is_stmt 0 view .LVU305
 1088 0028 13F0020F 		tst	r3, #2
 1089 002c 28D1     		bne	.L100
 307:Drivers/STM32WBxx_HAL_Driver/Src/stm32wbxx_hal_flash_ex.c ****   {
 1090              		.loc 1 307 8 is_stmt 1 view .LVU306
 307:Drivers/STM32WBxx_HAL_Driver/Src/stm32wbxx_hal_flash_ex.c ****   {
 1091              		.loc 1 307 11 is_stmt 0 view .LVU307
 1092 002e 13F0040F 		tst	r3, #4
 1093 0032 2ED1     		bne	.L101
 1094              	.L87:
 316:Drivers/STM32WBxx_HAL_Driver/Src/stm32wbxx_hal_flash_ex.c **** 
 1095              		.loc 1 316 3 is_stmt 1 view .LVU308
 319:Drivers/STM32WBxx_HAL_Driver/Src/stm32wbxx_hal_flash_ex.c ****   {
 1096              		.loc 1 319 3 view .LVU309
 319:Drivers/STM32WBxx_HAL_Driver/Src/stm32wbxx_hal_flash_ex.c ****   {
 1097              		.loc 1 319 15 is_stmt 0 view .LVU310
 1098 0034 2368     		ldr	r3, [r4]
 319:Drivers/STM32WBxx_HAL_Driver/Src/stm32wbxx_hal_flash_ex.c ****   {
 1099              		.loc 1 319 6 view .LVU311
 1100 0036 13F0080F 		tst	r3, #8
 1101 003a 07D0     		beq	.L89
 322:Drivers/STM32WBxx_HAL_Driver/Src/stm32wbxx_hal_flash_ex.c **** 
 1102              		.loc 1 322 5 is_stmt 1 view .LVU312
 324:Drivers/STM32WBxx_HAL_Driver/Src/stm32wbxx_hal_flash_ex.c ****     {
ARM GAS  C:\Users\Nathan\AppData\Local\Temp\cclrXYzQ.s 			page 39


 1103              		.loc 1 324 5 view .LVU313
 324:Drivers/STM32WBxx_HAL_Driver/Src/stm32wbxx_hal_flash_ex.c ****     {
 1104              		.loc 1 324 17 is_stmt 0 view .LVU314
 1105 003c E069     		ldr	r0, [r4, #28]
 324:Drivers/STM32WBxx_HAL_Driver/Src/stm32wbxx_hal_flash_ex.c ****     {
 1106              		.loc 1 324 8 view .LVU315
 1107 003e 244B     		ldr	r3, .L106+4
 1108 0040 1842     		tst	r0, r3
 1109 0042 2ED1     		bne	.L102
 1110              	.L90:
 330:Drivers/STM32WBxx_HAL_Driver/Src/stm32wbxx_hal_flash_ex.c ****     {
 1111              		.loc 1 330 5 is_stmt 1 view .LVU316
 330:Drivers/STM32WBxx_HAL_Driver/Src/stm32wbxx_hal_flash_ex.c ****     {
 1112              		.loc 1 330 17 is_stmt 0 view .LVU317
 1113 0044 E369     		ldr	r3, [r4, #28]
 330:Drivers/STM32WBxx_HAL_Driver/Src/stm32wbxx_hal_flash_ex.c ****     {
 1114              		.loc 1 330 8 view .LVU318
 1115 0046 13F0020F 		tst	r3, #2
 1116 004a 2FD1     		bne	.L103
 1117              	.L89:
 338:Drivers/STM32WBxx_HAL_Driver/Src/stm32wbxx_hal_flash_ex.c ****   {
 1118              		.loc 1 338 3 is_stmt 1 view .LVU319
 338:Drivers/STM32WBxx_HAL_Driver/Src/stm32wbxx_hal_flash_ex.c ****   {
 1119              		.loc 1 338 15 is_stmt 0 view .LVU320
 1120 004c 2368     		ldr	r3, [r4]
 338:Drivers/STM32WBxx_HAL_Driver/Src/stm32wbxx_hal_flash_ex.c ****   {
 1121              		.loc 1 338 6 view .LVU321
 1122 004e 13F4407F 		tst	r3, #768
 1123 0052 30D1     		bne	.L104
 1124              	.L91:
 345:Drivers/STM32WBxx_HAL_Driver/Src/stm32wbxx_hal_flash_ex.c ****   {
 1125              		.loc 1 345 3 is_stmt 1 view .LVU322
 345:Drivers/STM32WBxx_HAL_Driver/Src/stm32wbxx_hal_flash_ex.c ****   {
 1126              		.loc 1 345 15 is_stmt 0 view .LVU323
 1127 0054 2368     		ldr	r3, [r4]
 345:Drivers/STM32WBxx_HAL_Driver/Src/stm32wbxx_hal_flash_ex.c ****   {
 1128              		.loc 1 345 6 view .LVU324
 1129 0056 13F0100F 		tst	r3, #16
 1130 005a 30D1     		bne	.L105
 1131              	.L92:
 352:Drivers/STM32WBxx_HAL_Driver/Src/stm32wbxx_hal_flash_ex.c **** 
 1132              		.loc 1 352 3 is_stmt 1 view .LVU325
 352:Drivers/STM32WBxx_HAL_Driver/Src/stm32wbxx_hal_flash_ex.c **** 
 1133              		.loc 1 352 12 is_stmt 0 view .LVU326
 1134 005c FFF7FEFF 		bl	FLASH_OB_ProceedWriteOperation
 1135              	.LVL89:
 355:Drivers/STM32WBxx_HAL_Driver/Src/stm32wbxx_hal_flash_ex.c **** 
 1136              		.loc 1 355 3 is_stmt 1 view .LVU327
 355:Drivers/STM32WBxx_HAL_Driver/Src/stm32wbxx_hal_flash_ex.c **** 
 1137              		.loc 1 355 3 view .LVU328
 1138 0060 1A4B     		ldr	r3, .L106
 1139 0062 0022     		movs	r2, #0
 1140 0064 1A70     		strb	r2, [r3]
 355:Drivers/STM32WBxx_HAL_Driver/Src/stm32wbxx_hal_flash_ex.c **** 
 1141              		.loc 1 355 3 view .LVU329
 358:Drivers/STM32WBxx_HAL_Driver/Src/stm32wbxx_hal_flash_ex.c **** }
 1142              		.loc 1 358 3 view .LVU330
ARM GAS  C:\Users\Nathan\AppData\Local\Temp\cclrXYzQ.s 			page 40


 359:Drivers/STM32WBxx_HAL_Driver/Src/stm32wbxx_hal_flash_ex.c **** 
 1143              		.loc 1 359 1 is_stmt 0 view .LVU331
 1144 0066 10BD     		pop	{r4, pc}
 1145              	.LVL90:
 1146              	.L98:
 288:Drivers/STM32WBxx_HAL_Driver/Src/stm32wbxx_hal_flash_ex.c ****   }
 1147              		.loc 1 288 5 is_stmt 1 view .LVU332
 1148 0068 C268     		ldr	r2, [r0, #12]
 1149 006a 8168     		ldr	r1, [r0, #8]
 1150 006c 4068     		ldr	r0, [r0, #4]
 1151              	.LVL91:
 288:Drivers/STM32WBxx_HAL_Driver/Src/stm32wbxx_hal_flash_ex.c ****   }
 1152              		.loc 1 288 5 is_stmt 0 view .LVU333
 1153 006e FFF7FEFF 		bl	FLASH_OB_WRPConfig
 1154              	.LVL92:
 1155 0072 D4E7     		b	.L85
 1156              	.L99:
 295:Drivers/STM32WBxx_HAL_Driver/Src/stm32wbxx_hal_flash_ex.c ****   }
 1157              		.loc 1 295 5 is_stmt 1 view .LVU334
 1158 0074 2269     		ldr	r2, [r4, #16]
 1159 0076 A169     		ldr	r1, [r4, #24]
 1160 0078 6069     		ldr	r0, [r4, #20]
 1161 007a FFF7FEFF 		bl	FLASH_OB_OptrConfig
 1162              	.LVL93:
 1163 007e D9E7     		b	.L87
 1164              	.L100:
 300:Drivers/STM32WBxx_HAL_Driver/Src/stm32wbxx_hal_flash_ex.c **** 
 1165              		.loc 1 300 5 view .LVU335
 300:Drivers/STM32WBxx_HAL_Driver/Src/stm32wbxx_hal_flash_ex.c **** 
 1166              		.loc 1 300 12 is_stmt 0 view .LVU336
 1167 0080 FFF7FEFF 		bl	FLASH_OB_GetUser
 1168              	.LVL94:
 303:Drivers/STM32WBxx_HAL_Driver/Src/stm32wbxx_hal_flash_ex.c **** 
 1169              		.loc 1 303 5 is_stmt 1 view .LVU337
 303:Drivers/STM32WBxx_HAL_Driver/Src/stm32wbxx_hal_flash_ex.c **** 
 1170              		.loc 1 303 10 is_stmt 0 view .LVU338
 1171 0084 20F46060 		bic	r0, r0, #3584
 1172              	.LVL95:
 305:Drivers/STM32WBxx_HAL_Driver/Src/stm32wbxx_hal_flash_ex.c ****   }
 1173              		.loc 1 305 5 is_stmt 1 view .LVU339
 1174 0088 2269     		ldr	r2, [r4, #16]
 1175 008a 0146     		mov	r1, r0
 1176 008c FFF7FEFF 		bl	FLASH_OB_OptrConfig
 1177              	.LVL96:
 305:Drivers/STM32WBxx_HAL_Driver/Src/stm32wbxx_hal_flash_ex.c ****   }
 1178              		.loc 1 305 5 is_stmt 0 view .LVU340
 1179 0090 D0E7     		b	.L87
 1180              	.LVL97:
 1181              	.L101:
 310:Drivers/STM32WBxx_HAL_Driver/Src/stm32wbxx_hal_flash_ex.c ****     FLASH_OB_OptrConfig(pOBInit->UserType, pOBInit->UserConfig, optr);
 1182              		.loc 1 310 5 is_stmt 1 view .LVU341
 310:Drivers/STM32WBxx_HAL_Driver/Src/stm32wbxx_hal_flash_ex.c ****     FLASH_OB_OptrConfig(pOBInit->UserType, pOBInit->UserConfig, optr);
 1183              		.loc 1 310 12 is_stmt 0 view .LVU342
 1184 0092 FFF7FEFF 		bl	FLASH_OB_GetRDP
 1185              	.LVL98:
 1186 0096 0246     		mov	r2, r0
 1187              	.LVL99:
ARM GAS  C:\Users\Nathan\AppData\Local\Temp\cclrXYzQ.s 			page 41


 311:Drivers/STM32WBxx_HAL_Driver/Src/stm32wbxx_hal_flash_ex.c ****   }
 1188              		.loc 1 311 5 is_stmt 1 view .LVU343
 1189 0098 A169     		ldr	r1, [r4, #24]
 1190 009a 6069     		ldr	r0, [r4, #20]
 1191              	.LVL100:
 311:Drivers/STM32WBxx_HAL_Driver/Src/stm32wbxx_hal_flash_ex.c ****   }
 1192              		.loc 1 311 5 is_stmt 0 view .LVU344
 1193 009c FFF7FEFF 		bl	FLASH_OB_OptrConfig
 1194              	.LVL101:
 311:Drivers/STM32WBxx_HAL_Driver/Src/stm32wbxx_hal_flash_ex.c ****   }
 1195              		.loc 1 311 5 view .LVU345
 1196 00a0 C8E7     		b	.L87
 1197              	.LVL102:
 1198              	.L102:
 327:Drivers/STM32WBxx_HAL_Driver/Src/stm32wbxx_hal_flash_ex.c ****     }
 1199              		.loc 1 327 7 is_stmt 1 view .LVU346
 1200 00a2 626A     		ldr	r2, [r4, #36]
 1201 00a4 216A     		ldr	r1, [r4, #32]
 1202 00a6 FFF7FEFF 		bl	FLASH_OB_PCROP1AConfig
 1203              	.LVL103:
 1204 00aa CBE7     		b	.L90
 1205              	.L103:
 333:Drivers/STM32WBxx_HAL_Driver/Src/stm32wbxx_hal_flash_ex.c ****     }
 1206              		.loc 1 333 7 view .LVU347
 1207 00ac E16A     		ldr	r1, [r4, #44]
 1208 00ae A06A     		ldr	r0, [r4, #40]
 1209 00b0 FFF7FEFF 		bl	FLASH_OB_PCROP1BConfig
 1210              	.LVL104:
 1211 00b4 CAE7     		b	.L89
 1212              	.L104:
 341:Drivers/STM32WBxx_HAL_Driver/Src/stm32wbxx_hal_flash_ex.c ****   }
 1213              		.loc 1 341 5 view .LVU348
 1214 00b6 2046     		mov	r0, r4
 1215 00b8 FFF7FEFF 		bl	FLASH_OB_SecureConfig
 1216              	.LVL105:
 1217 00bc CAE7     		b	.L91
 1218              	.L105:
 348:Drivers/STM32WBxx_HAL_Driver/Src/stm32wbxx_hal_flash_ex.c ****   }
 1219              		.loc 1 348 5 view .LVU349
 1220 00be A06C     		ldr	r0, [r4, #72]
 1221 00c0 FFF7FEFF 		bl	FLASH_OB_IPCCBufferAddrConfig
 1222              	.LVL106:
 1223 00c4 CAE7     		b	.L92
 1224              	.LVL107:
 1225              	.L93:
 1226              		.cfi_def_cfa_offset 0
 1227              		.cfi_restore 4
 1228              		.cfi_restore 14
 280:Drivers/STM32WBxx_HAL_Driver/Src/stm32wbxx_hal_flash_ex.c **** 
 1229              		.loc 1 280 3 is_stmt 0 discriminator 1 view .LVU350
 1230 00c6 0220     		movs	r0, #2
 1231              	.LVL108:
 359:Drivers/STM32WBxx_HAL_Driver/Src/stm32wbxx_hal_flash_ex.c **** 
 1232              		.loc 1 359 1 view .LVU351
 1233 00c8 7047     		bx	lr
 1234              	.L107:
 1235 00ca 00BF     		.align	2
ARM GAS  C:\Users\Nathan\AppData\Local\Temp\cclrXYzQ.s 			page 42


 1236              	.L106:
 1237 00cc 00000000 		.word	pFlash
 1238 00d0 01000080 		.word	-2147483647
 1239              		.cfi_endproc
 1240              	.LFE1106:
 1242              		.section	.text.HAL_FLASHEx_OBGetConfig,"ax",%progbits
 1243              		.align	1
 1244              		.global	HAL_FLASHEx_OBGetConfig
 1245              		.syntax unified
 1246              		.thumb
 1247              		.thumb_func
 1249              	HAL_FLASHEx_OBGetConfig:
 1250              	.LVL109:
 1251              	.LFB1107:
 373:Drivers/STM32WBxx_HAL_Driver/Src/stm32wbxx_hal_flash_ex.c ****   pOBInit->OptionType = OPTIONBYTE_ALL;
 1252              		.loc 1 373 1 is_stmt 1 view -0
 1253              		.cfi_startproc
 1254              		@ args = 0, pretend = 0, frame = 0
 1255              		@ frame_needed = 0, uses_anonymous_args = 0
 373:Drivers/STM32WBxx_HAL_Driver/Src/stm32wbxx_hal_flash_ex.c ****   pOBInit->OptionType = OPTIONBYTE_ALL;
 1256              		.loc 1 373 1 is_stmt 0 view .LVU353
 1257 0000 10B5     		push	{r4, lr}
 1258              		.cfi_def_cfa_offset 8
 1259              		.cfi_offset 4, -8
 1260              		.cfi_offset 14, -4
 1261 0002 82B0     		sub	sp, sp, #8
 1262              		.cfi_def_cfa_offset 16
 1263 0004 0446     		mov	r4, r0
 374:Drivers/STM32WBxx_HAL_Driver/Src/stm32wbxx_hal_flash_ex.c **** 
 1264              		.loc 1 374 3 is_stmt 1 view .LVU354
 374:Drivers/STM32WBxx_HAL_Driver/Src/stm32wbxx_hal_flash_ex.c **** 
 1265              		.loc 1 374 23 is_stmt 0 view .LVU355
 1266 0006 40F21F33 		movw	r3, #799
 1267 000a 0360     		str	r3, [r0]
 376:Drivers/STM32WBxx_HAL_Driver/Src/stm32wbxx_hal_flash_ex.c ****   {
 1268              		.loc 1 376 3 is_stmt 1 view .LVU356
 376:Drivers/STM32WBxx_HAL_Driver/Src/stm32wbxx_hal_flash_ex.c ****   {
 1269              		.loc 1 376 15 is_stmt 0 view .LVU357
 1270 000c 4068     		ldr	r0, [r0, #4]
 1271              	.LVL110:
 376:Drivers/STM32WBxx_HAL_Driver/Src/stm32wbxx_hal_flash_ex.c ****   {
 1272              		.loc 1 376 6 view .LVU358
 1273 000e 0128     		cmp	r0, #1
 1274 0010 2DD9     		bls	.L111
 1275              	.L109:
 383:Drivers/STM32WBxx_HAL_Driver/Src/stm32wbxx_hal_flash_ex.c **** 
 1276              		.loc 1 383 3 is_stmt 1 view .LVU359
 383:Drivers/STM32WBxx_HAL_Driver/Src/stm32wbxx_hal_flash_ex.c **** 
 1277              		.loc 1 383 23 is_stmt 0 view .LVU360
 1278 0012 FFF7FEFF 		bl	FLASH_OB_GetRDP
 1279              	.LVL111:
 383:Drivers/STM32WBxx_HAL_Driver/Src/stm32wbxx_hal_flash_ex.c **** 
 1280              		.loc 1 383 21 discriminator 1 view .LVU361
 1281 0016 2061     		str	r0, [r4, #16]
 386:Drivers/STM32WBxx_HAL_Driver/Src/stm32wbxx_hal_flash_ex.c ****   pOBInit->UserType = OB_USER_ALL;
 1282              		.loc 1 386 3 is_stmt 1 view .LVU362
 386:Drivers/STM32WBxx_HAL_Driver/Src/stm32wbxx_hal_flash_ex.c ****   pOBInit->UserType = OB_USER_ALL;
ARM GAS  C:\Users\Nathan\AppData\Local\Temp\cclrXYzQ.s 			page 43


 1283              		.loc 1 386 25 is_stmt 0 view .LVU363
 1284 0018 FFF7FEFF 		bl	FLASH_OB_GetUser
 1285              	.LVL112:
 386:Drivers/STM32WBxx_HAL_Driver/Src/stm32wbxx_hal_flash_ex.c ****   pOBInit->UserType = OB_USER_ALL;
 1286              		.loc 1 386 23 discriminator 1 view .LVU364
 1287 001c A061     		str	r0, [r4, #24]
 387:Drivers/STM32WBxx_HAL_Driver/Src/stm32wbxx_hal_flash_ex.c **** 
 1288              		.loc 1 387 3 is_stmt 1 view .LVU365
 387:Drivers/STM32WBxx_HAL_Driver/Src/stm32wbxx_hal_flash_ex.c **** 
 1289              		.loc 1 387 21 is_stmt 0 view .LVU366
 1290 001e 174B     		ldr	r3, .L112
 1291 0020 6361     		str	r3, [r4, #20]
 390:Drivers/STM32WBxx_HAL_Driver/Src/stm32wbxx_hal_flash_ex.c ****                     &(pOBInit->PCROP1BStartAddr), &(pOBInit->PCROP1BEndAddr));
 1292              		.loc 1 390 3 is_stmt 1 view .LVU367
 1293 0022 04F12C03 		add	r3, r4, #44
 1294 0026 0093     		str	r3, [sp]
 1295 0028 04F12803 		add	r3, r4, #40
 1296 002c 04F12402 		add	r2, r4, #36
 1297 0030 04F12001 		add	r1, r4, #32
 1298 0034 04F11C00 		add	r0, r4, #28
 1299 0038 FFF7FEFF 		bl	FLASH_OB_GetPCROP
 1300              	.LVL113:
 392:Drivers/STM32WBxx_HAL_Driver/Src/stm32wbxx_hal_flash_ex.c **** 
 1301              		.loc 1 392 3 view .LVU368
 392:Drivers/STM32WBxx_HAL_Driver/Src/stm32wbxx_hal_flash_ex.c **** 
 1302              		.loc 1 392 10 is_stmt 0 view .LVU369
 1303 003c E369     		ldr	r3, [r4, #28]
 392:Drivers/STM32WBxx_HAL_Driver/Src/stm32wbxx_hal_flash_ex.c **** 
 1304              		.loc 1 392 24 view .LVU370
 1305 003e 43F00303 		orr	r3, r3, #3
 1306 0042 E361     		str	r3, [r4, #28]
 395:Drivers/STM32WBxx_HAL_Driver/Src/stm32wbxx_hal_flash_ex.c **** 
 1307              		.loc 1 395 3 is_stmt 1 view .LVU371
 395:Drivers/STM32WBxx_HAL_Driver/Src/stm32wbxx_hal_flash_ex.c **** 
 1308              		.loc 1 395 30 is_stmt 0 view .LVU372
 1309 0044 FFF7FEFF 		bl	FLASH_OB_GetIPCCBufferAddr
 1310              	.LVL114:
 395:Drivers/STM32WBxx_HAL_Driver/Src/stm32wbxx_hal_flash_ex.c **** 
 1311              		.loc 1 395 28 discriminator 1 view .LVU373
 1312 0048 A064     		str	r0, [r4, #72]
 398:Drivers/STM32WBxx_HAL_Driver/Src/stm32wbxx_hal_flash_ex.c ****                                  &(pOBInit->SecureRAM2bStartAddr), &(pOBInit->SecureMode));
 1313              		.loc 1 398 3 is_stmt 1 view .LVU374
 1314 004a 04F13C03 		add	r3, r4, #60
 1315 004e 04F13802 		add	r2, r4, #56
 1316 0052 04F13401 		add	r1, r4, #52
 1317 0056 04F13000 		add	r0, r4, #48
 1318 005a FFF7FEFF 		bl	FLASH_OB_GetSecureMemoryConfig
 1319              	.LVL115:
 402:Drivers/STM32WBxx_HAL_Driver/Src/stm32wbxx_hal_flash_ex.c **** }
 1320              		.loc 1 402 3 view .LVU375
 1321 005e 04F14001 		add	r1, r4, #64
 1322 0062 04F14400 		add	r0, r4, #68
 1323 0066 FFF7FEFF 		bl	FLASH_OB_GetC2BootResetConfig
 1324              	.LVL116:
 403:Drivers/STM32WBxx_HAL_Driver/Src/stm32wbxx_hal_flash_ex.c **** 
 1325              		.loc 1 403 1 is_stmt 0 view .LVU376
 1326 006a 02B0     		add	sp, sp, #8
ARM GAS  C:\Users\Nathan\AppData\Local\Temp\cclrXYzQ.s 			page 44


 1327              		.cfi_remember_state
 1328              		.cfi_def_cfa_offset 8
 1329              		@ sp needed
 1330 006c 10BD     		pop	{r4, pc}
 1331              	.LVL117:
 1332              	.L111:
 1333              		.cfi_restore_state
 379:Drivers/STM32WBxx_HAL_Driver/Src/stm32wbxx_hal_flash_ex.c ****   }
 1334              		.loc 1 379 5 is_stmt 1 view .LVU377
 1335 006e 04F10C02 		add	r2, r4, #12
 1336 0072 04F10801 		add	r1, r4, #8
 1337 0076 FFF7FEFF 		bl	FLASH_OB_GetWRP
 1338              	.LVL118:
 1339 007a CAE7     		b	.L109
 1340              	.L113:
 1341              		.align	2
 1342              	.L112:
 1343 007c 007E8FEF 		.word	-275808768
 1344              		.cfi_endproc
 1345              	.LFE1107:
 1347              		.section	.text.HAL_FLASHEx_FlashEmptyCheck,"ax",%progbits
 1348              		.align	1
 1349              		.global	HAL_FLASHEx_FlashEmptyCheck
 1350              		.syntax unified
 1351              		.thumb
 1352              		.thumb_func
 1354              	HAL_FLASHEx_FlashEmptyCheck:
 1355              	.LFB1108:
 414:Drivers/STM32WBxx_HAL_Driver/Src/stm32wbxx_hal_flash_ex.c ****   return (READ_BIT(FLASH->ACR, FLASH_ACR_EMPTY));
 1356              		.loc 1 414 1 view -0
 1357              		.cfi_startproc
 1358              		@ args = 0, pretend = 0, frame = 0
 1359              		@ frame_needed = 0, uses_anonymous_args = 0
 1360              		@ link register save eliminated.
 415:Drivers/STM32WBxx_HAL_Driver/Src/stm32wbxx_hal_flash_ex.c **** }
 1361              		.loc 1 415 3 view .LVU379
 415:Drivers/STM32WBxx_HAL_Driver/Src/stm32wbxx_hal_flash_ex.c **** }
 1362              		.loc 1 415 11 is_stmt 0 view .LVU380
 1363 0000 024B     		ldr	r3, .L115
 1364 0002 1868     		ldr	r0, [r3]
 416:Drivers/STM32WBxx_HAL_Driver/Src/stm32wbxx_hal_flash_ex.c **** 
 1365              		.loc 1 416 1 view .LVU381
 1366 0004 00F48030 		and	r0, r0, #65536
 1367 0008 7047     		bx	lr
 1368              	.L116:
 1369 000a 00BF     		.align	2
 1370              	.L115:
 1371 000c 00400058 		.word	1476411392
 1372              		.cfi_endproc
 1373              	.LFE1108:
 1375              		.section	.text.HAL_FLASHEx_ForceFlashEmpty,"ax",%progbits
 1376              		.align	1
 1377              		.global	HAL_FLASHEx_ForceFlashEmpty
 1378              		.syntax unified
 1379              		.thumb
 1380              		.thumb_func
 1382              	HAL_FLASHEx_ForceFlashEmpty:
ARM GAS  C:\Users\Nathan\AppData\Local\Temp\cclrXYzQ.s 			page 45


 1383              	.LVL119:
 1384              	.LFB1109:
 431:Drivers/STM32WBxx_HAL_Driver/Src/stm32wbxx_hal_flash_ex.c ****   assert_param(IS_FLASH_EMPTY_CHECK(FlashEmpty));
 1385              		.loc 1 431 1 is_stmt 1 view -0
 1386              		.cfi_startproc
 1387              		@ args = 0, pretend = 0, frame = 0
 1388              		@ frame_needed = 0, uses_anonymous_args = 0
 1389              		@ link register save eliminated.
 432:Drivers/STM32WBxx_HAL_Driver/Src/stm32wbxx_hal_flash_ex.c **** 
 1390              		.loc 1 432 3 view .LVU383
 434:Drivers/STM32WBxx_HAL_Driver/Src/stm32wbxx_hal_flash_ex.c **** }
 1391              		.loc 1 434 3 view .LVU384
 1392 0000 034A     		ldr	r2, .L118
 1393 0002 1368     		ldr	r3, [r2]
 1394 0004 23F48033 		bic	r3, r3, #65536
 1395 0008 0343     		orrs	r3, r3, r0
 1396 000a 1360     		str	r3, [r2]
 435:Drivers/STM32WBxx_HAL_Driver/Src/stm32wbxx_hal_flash_ex.c **** 
 1397              		.loc 1 435 1 is_stmt 0 view .LVU385
 1398 000c 7047     		bx	lr
 1399              	.L119:
 1400 000e 00BF     		.align	2
 1401              	.L118:
 1402 0010 00400058 		.word	1476411392
 1403              		.cfi_endproc
 1404              	.LFE1109:
 1406              		.section	.text.HAL_FLASHEx_SuspendOperation,"ax",%progbits
 1407              		.align	1
 1408              		.global	HAL_FLASHEx_SuspendOperation
 1409              		.syntax unified
 1410              		.thumb
 1411              		.thumb_func
 1413              	HAL_FLASHEx_SuspendOperation:
 1414              	.LFB1110:
 447:Drivers/STM32WBxx_HAL_Driver/Src/stm32wbxx_hal_flash_ex.c ****   SET_BIT(FLASH->ACR, FLASH_ACR_PES);
 1415              		.loc 1 447 1 is_stmt 1 view -0
 1416              		.cfi_startproc
 1417              		@ args = 0, pretend = 0, frame = 0
 1418              		@ frame_needed = 0, uses_anonymous_args = 0
 1419              		@ link register save eliminated.
 448:Drivers/STM32WBxx_HAL_Driver/Src/stm32wbxx_hal_flash_ex.c **** }
 1420              		.loc 1 448 3 view .LVU387
 1421 0000 024A     		ldr	r2, .L121
 1422 0002 1368     		ldr	r3, [r2]
 1423 0004 43F40043 		orr	r3, r3, #32768
 1424 0008 1360     		str	r3, [r2]
 449:Drivers/STM32WBxx_HAL_Driver/Src/stm32wbxx_hal_flash_ex.c **** 
 1425              		.loc 1 449 1 is_stmt 0 view .LVU388
 1426 000a 7047     		bx	lr
 1427              	.L122:
 1428              		.align	2
 1429              	.L121:
 1430 000c 00400058 		.word	1476411392
 1431              		.cfi_endproc
 1432              	.LFE1110:
 1434              		.section	.text.HAL_FLASHEx_AllowOperation,"ax",%progbits
 1435              		.align	1
ARM GAS  C:\Users\Nathan\AppData\Local\Temp\cclrXYzQ.s 			page 46


 1436              		.global	HAL_FLASHEx_AllowOperation
 1437              		.syntax unified
 1438              		.thumb
 1439              		.thumb_func
 1441              	HAL_FLASHEx_AllowOperation:
 1442              	.LFB1111:
 461:Drivers/STM32WBxx_HAL_Driver/Src/stm32wbxx_hal_flash_ex.c ****   CLEAR_BIT(FLASH->ACR, FLASH_ACR_PES);
 1443              		.loc 1 461 1 is_stmt 1 view -0
 1444              		.cfi_startproc
 1445              		@ args = 0, pretend = 0, frame = 0
 1446              		@ frame_needed = 0, uses_anonymous_args = 0
 1447              		@ link register save eliminated.
 462:Drivers/STM32WBxx_HAL_Driver/Src/stm32wbxx_hal_flash_ex.c **** }
 1448              		.loc 1 462 3 view .LVU390
 1449 0000 024A     		ldr	r2, .L124
 1450 0002 1368     		ldr	r3, [r2]
 1451 0004 23F40043 		bic	r3, r3, #32768
 1452 0008 1360     		str	r3, [r2]
 463:Drivers/STM32WBxx_HAL_Driver/Src/stm32wbxx_hal_flash_ex.c **** 
 1453              		.loc 1 463 1 is_stmt 0 view .LVU391
 1454 000a 7047     		bx	lr
 1455              	.L125:
 1456              		.align	2
 1457              	.L124:
 1458 000c 00400058 		.word	1476411392
 1459              		.cfi_endproc
 1460              	.LFE1111:
 1462              		.section	.text.HAL_FLASHEx_IsOperationSuspended,"ax",%progbits
 1463              		.align	1
 1464              		.global	HAL_FLASHEx_IsOperationSuspended
 1465              		.syntax unified
 1466              		.thumb
 1467              		.thumb_func
 1469              	HAL_FLASHEx_IsOperationSuspended:
 1470              	.LFB1112:
 477:Drivers/STM32WBxx_HAL_Driver/Src/stm32wbxx_hal_flash_ex.c ****   uint32_t status = 0U;
 1471              		.loc 1 477 1 is_stmt 1 view -0
 1472              		.cfi_startproc
 1473              		@ args = 0, pretend = 0, frame = 0
 1474              		@ frame_needed = 0, uses_anonymous_args = 0
 1475              		@ link register save eliminated.
 478:Drivers/STM32WBxx_HAL_Driver/Src/stm32wbxx_hal_flash_ex.c **** 
 1476              		.loc 1 478 3 view .LVU393
 1477              	.LVL120:
 480:Drivers/STM32WBxx_HAL_Driver/Src/stm32wbxx_hal_flash_ex.c ****   {
 1478              		.loc 1 480 3 view .LVU394
 480:Drivers/STM32WBxx_HAL_Driver/Src/stm32wbxx_hal_flash_ex.c ****   {
 1479              		.loc 1 480 7 is_stmt 0 view .LVU395
 1480 0000 034B     		ldr	r3, .L129
 1481 0002 1869     		ldr	r0, [r3, #16]
 480:Drivers/STM32WBxx_HAL_Driver/Src/stm32wbxx_hal_flash_ex.c ****   {
 1482              		.loc 1 480 6 view .LVU396
 1483 0004 10F40020 		ands	r0, r0, #524288
 1484 0008 00D0     		beq	.L126
 482:Drivers/STM32WBxx_HAL_Driver/Src/stm32wbxx_hal_flash_ex.c ****   }
 1485              		.loc 1 482 12 view .LVU397
 1486 000a 0120     		movs	r0, #1
ARM GAS  C:\Users\Nathan\AppData\Local\Temp\cclrXYzQ.s 			page 47


 1487              	.LVL121:
 485:Drivers/STM32WBxx_HAL_Driver/Src/stm32wbxx_hal_flash_ex.c **** }
 1488              		.loc 1 485 3 is_stmt 1 view .LVU398
 1489              	.L126:
 486:Drivers/STM32WBxx_HAL_Driver/Src/stm32wbxx_hal_flash_ex.c **** 
 1490              		.loc 1 486 1 is_stmt 0 view .LVU399
 1491 000c 7047     		bx	lr
 1492              	.L130:
 1493 000e 00BF     		.align	2
 1494              	.L129:
 1495 0010 00400058 		.word	1476411392
 1496              		.cfi_endproc
 1497              	.LFE1112:
 1499              		.section	.text.FLASH_PageErase,"ax",%progbits
 1500              		.align	1
 1501              		.global	FLASH_PageErase
 1502              		.syntax unified
 1503              		.thumb
 1504              		.thumb_func
 1506              	FLASH_PageErase:
 1507              	.LVL122:
 1508              	.LFB1113:
 508:Drivers/STM32WBxx_HAL_Driver/Src/stm32wbxx_hal_flash_ex.c ****   /* Check the parameters */
 1509              		.loc 1 508 1 is_stmt 1 view -0
 1510              		.cfi_startproc
 1511              		@ args = 0, pretend = 0, frame = 0
 1512              		@ frame_needed = 0, uses_anonymous_args = 0
 1513              		@ link register save eliminated.
 510:Drivers/STM32WBxx_HAL_Driver/Src/stm32wbxx_hal_flash_ex.c **** 
 1514              		.loc 1 510 3 view .LVU401
 513:Drivers/STM32WBxx_HAL_Driver/Src/stm32wbxx_hal_flash_ex.c **** }
 1515              		.loc 1 513 3 view .LVU402
 1516 0000 054A     		ldr	r2, .L132
 1517 0002 5369     		ldr	r3, [r2, #20]
 1518 0004 23F4FF63 		bic	r3, r3, #2040
 1519 0008 43EAC000 		orr	r0, r3, r0, lsl #3
 1520              	.LVL123:
 513:Drivers/STM32WBxx_HAL_Driver/Src/stm32wbxx_hal_flash_ex.c **** }
 1521              		.loc 1 513 3 is_stmt 0 view .LVU403
 1522 000c 40F48030 		orr	r0, r0, #65536
 1523 0010 40F00200 		orr	r0, r0, #2
 1524 0014 5061     		str	r0, [r2, #20]
 514:Drivers/STM32WBxx_HAL_Driver/Src/stm32wbxx_hal_flash_ex.c **** 
 1525              		.loc 1 514 1 view .LVU404
 1526 0016 7047     		bx	lr
 1527              	.L133:
 1528              		.align	2
 1529              	.L132:
 1530 0018 00400058 		.word	1476411392
 1531              		.cfi_endproc
 1532              	.LFE1113:
 1534              		.section	.text.HAL_FLASHEx_Erase,"ax",%progbits
 1535              		.align	1
 1536              		.global	HAL_FLASHEx_Erase
 1537              		.syntax unified
 1538              		.thumb
 1539              		.thumb_func
ARM GAS  C:\Users\Nathan\AppData\Local\Temp\cclrXYzQ.s 			page 48


 1541              	HAL_FLASHEx_Erase:
 1542              	.LVL124:
 1543              	.LFB1104:
 154:Drivers/STM32WBxx_HAL_Driver/Src/stm32wbxx_hal_flash_ex.c ****   HAL_StatusTypeDef status;
 1544              		.loc 1 154 1 is_stmt 1 view -0
 1545              		.cfi_startproc
 1546              		@ args = 0, pretend = 0, frame = 0
 1547              		@ frame_needed = 0, uses_anonymous_args = 0
 154:Drivers/STM32WBxx_HAL_Driver/Src/stm32wbxx_hal_flash_ex.c ****   HAL_StatusTypeDef status;
 1548              		.loc 1 154 1 is_stmt 0 view .LVU406
 1549 0000 F8B5     		push	{r3, r4, r5, r6, r7, lr}
 1550              		.cfi_def_cfa_offset 24
 1551              		.cfi_offset 3, -24
 1552              		.cfi_offset 4, -20
 1553              		.cfi_offset 5, -16
 1554              		.cfi_offset 6, -12
 1555              		.cfi_offset 7, -8
 1556              		.cfi_offset 14, -4
 155:Drivers/STM32WBxx_HAL_Driver/Src/stm32wbxx_hal_flash_ex.c ****   uint32_t index;
 1557              		.loc 1 155 3 is_stmt 1 view .LVU407
 156:Drivers/STM32WBxx_HAL_Driver/Src/stm32wbxx_hal_flash_ex.c **** 
 1558              		.loc 1 156 3 view .LVU408
 159:Drivers/STM32WBxx_HAL_Driver/Src/stm32wbxx_hal_flash_ex.c **** 
 1559              		.loc 1 159 3 view .LVU409
 162:Drivers/STM32WBxx_HAL_Driver/Src/stm32wbxx_hal_flash_ex.c **** 
 1560              		.loc 1 162 3 view .LVU410
 162:Drivers/STM32WBxx_HAL_Driver/Src/stm32wbxx_hal_flash_ex.c **** 
 1561              		.loc 1 162 3 view .LVU411
 1562 0002 1B4B     		ldr	r3, .L145
 1563 0004 1B78     		ldrb	r3, [r3]	@ zero_extendqisi2
 1564 0006 012B     		cmp	r3, #1
 1565 0008 2FD0     		beq	.L142
 1566 000a 0446     		mov	r4, r0
 1567 000c 0E46     		mov	r6, r1
 162:Drivers/STM32WBxx_HAL_Driver/Src/stm32wbxx_hal_flash_ex.c **** 
 1568              		.loc 1 162 3 discriminator 2 view .LVU412
 1569 000e 184B     		ldr	r3, .L145
 1570 0010 0122     		movs	r2, #1
 1571 0012 1A70     		strb	r2, [r3]
 162:Drivers/STM32WBxx_HAL_Driver/Src/stm32wbxx_hal_flash_ex.c **** 
 1572              		.loc 1 162 3 discriminator 2 view .LVU413
 165:Drivers/STM32WBxx_HAL_Driver/Src/stm32wbxx_hal_flash_ex.c **** 
 1573              		.loc 1 165 3 view .LVU414
 165:Drivers/STM32WBxx_HAL_Driver/Src/stm32wbxx_hal_flash_ex.c **** 
 1574              		.loc 1 165 20 is_stmt 0 view .LVU415
 1575 0014 0022     		movs	r2, #0
 1576 0016 5A60     		str	r2, [r3, #4]
 168:Drivers/STM32WBxx_HAL_Driver/Src/stm32wbxx_hal_flash_ex.c **** 
 1577              		.loc 1 168 3 is_stmt 1 view .LVU416
 168:Drivers/STM32WBxx_HAL_Driver/Src/stm32wbxx_hal_flash_ex.c **** 
 1578              		.loc 1 168 12 is_stmt 0 view .LVU417
 1579 0018 4FF47A70 		mov	r0, #1000
 1580              	.LVL125:
 168:Drivers/STM32WBxx_HAL_Driver/Src/stm32wbxx_hal_flash_ex.c **** 
 1581              		.loc 1 168 12 view .LVU418
 1582 001c FFF7FEFF 		bl	FLASH_WaitForLastOperation
 1583              	.LVL126:
ARM GAS  C:\Users\Nathan\AppData\Local\Temp\cclrXYzQ.s 			page 49


 170:Drivers/STM32WBxx_HAL_Driver/Src/stm32wbxx_hal_flash_ex.c ****   {
 1584              		.loc 1 170 3 is_stmt 1 view .LVU419
 170:Drivers/STM32WBxx_HAL_Driver/Src/stm32wbxx_hal_flash_ex.c ****   {
 1585              		.loc 1 170 6 is_stmt 0 view .LVU420
 1586 0020 0746     		mov	r7, r0
 1587 0022 20B9     		cbnz	r0, .L136
 172:Drivers/STM32WBxx_HAL_Driver/Src/stm32wbxx_hal_flash_ex.c ****     {
 1588              		.loc 1 172 5 is_stmt 1 view .LVU421
 172:Drivers/STM32WBxx_HAL_Driver/Src/stm32wbxx_hal_flash_ex.c ****     {
 1589              		.loc 1 172 19 is_stmt 0 view .LVU422
 1590 0024 2368     		ldr	r3, [r4]
 172:Drivers/STM32WBxx_HAL_Driver/Src/stm32wbxx_hal_flash_ex.c ****     {
 1591              		.loc 1 172 8 view .LVU423
 1592 0026 022B     		cmp	r3, #2
 1593 0028 06D0     		beq	.L144
 1594              	.LVL127:
 1595              	.L137:
 198:Drivers/STM32WBxx_HAL_Driver/Src/stm32wbxx_hal_flash_ex.c ****   }
 1596              		.loc 1 198 5 is_stmt 1 view .LVU424
 1597 002a FFF7FEFF 		bl	FLASH_FlushCaches
 1598              	.LVL128:
 1599              	.L136:
 202:Drivers/STM32WBxx_HAL_Driver/Src/stm32wbxx_hal_flash_ex.c **** 
 1600              		.loc 1 202 3 view .LVU425
 202:Drivers/STM32WBxx_HAL_Driver/Src/stm32wbxx_hal_flash_ex.c **** 
 1601              		.loc 1 202 3 view .LVU426
 1602 002e 104B     		ldr	r3, .L145
 1603 0030 0022     		movs	r2, #0
 1604 0032 1A70     		strb	r2, [r3]
 202:Drivers/STM32WBxx_HAL_Driver/Src/stm32wbxx_hal_flash_ex.c **** 
 1605              		.loc 1 202 3 view .LVU427
 204:Drivers/STM32WBxx_HAL_Driver/Src/stm32wbxx_hal_flash_ex.c **** }
 1606              		.loc 1 204 3 view .LVU428
 1607              	.LVL129:
 1608              	.L135:
 205:Drivers/STM32WBxx_HAL_Driver/Src/stm32wbxx_hal_flash_ex.c **** 
 1609              		.loc 1 205 1 is_stmt 0 view .LVU429
 1610 0034 3846     		mov	r0, r7
 1611 0036 F8BD     		pop	{r3, r4, r5, r6, r7, pc}
 1612              	.LVL130:
 1613              	.L144:
 175:Drivers/STM32WBxx_HAL_Driver/Src/stm32wbxx_hal_flash_ex.c **** 
 1614              		.loc 1 175 7 is_stmt 1 view .LVU430
 175:Drivers/STM32WBxx_HAL_Driver/Src/stm32wbxx_hal_flash_ex.c **** 
 1615              		.loc 1 175 18 is_stmt 0 view .LVU431
 1616 0038 4FF0FF33 		mov	r3, #-1
 1617 003c 3360     		str	r3, [r6]
 177:Drivers/STM32WBxx_HAL_Driver/Src/stm32wbxx_hal_flash_ex.c ****       {
 1618              		.loc 1 177 7 is_stmt 1 view .LVU432
 177:Drivers/STM32WBxx_HAL_Driver/Src/stm32wbxx_hal_flash_ex.c ****       {
 1619              		.loc 1 177 18 is_stmt 0 view .LVU433
 1620 003e 6568     		ldr	r5, [r4, #4]
 1621              	.LVL131:
 177:Drivers/STM32WBxx_HAL_Driver/Src/stm32wbxx_hal_flash_ex.c ****       {
 1622              		.loc 1 177 7 view .LVU434
 1623 0040 00E0     		b	.L138
 1624              	.L139:
ARM GAS  C:\Users\Nathan\AppData\Local\Temp\cclrXYzQ.s 			page 50


 177:Drivers/STM32WBxx_HAL_Driver/Src/stm32wbxx_hal_flash_ex.c ****       {
 1625              		.loc 1 177 93 is_stmt 1 discriminator 2 view .LVU435
 1626 0042 0135     		adds	r5, r5, #1
 1627              	.LVL132:
 1628              	.L138:
 177:Drivers/STM32WBxx_HAL_Driver/Src/stm32wbxx_hal_flash_ex.c ****       {
 1629              		.loc 1 177 44 discriminator 1 view .LVU436
 177:Drivers/STM32WBxx_HAL_Driver/Src/stm32wbxx_hal_flash_ex.c ****       {
 1630              		.loc 1 177 57 is_stmt 0 discriminator 1 view .LVU437
 1631 0044 6368     		ldr	r3, [r4, #4]
 177:Drivers/STM32WBxx_HAL_Driver/Src/stm32wbxx_hal_flash_ex.c ****       {
 1632              		.loc 1 177 76 discriminator 1 view .LVU438
 1633 0046 A268     		ldr	r2, [r4, #8]
 177:Drivers/STM32WBxx_HAL_Driver/Src/stm32wbxx_hal_flash_ex.c ****       {
 1634              		.loc 1 177 64 discriminator 1 view .LVU439
 1635 0048 1344     		add	r3, r3, r2
 177:Drivers/STM32WBxx_HAL_Driver/Src/stm32wbxx_hal_flash_ex.c ****       {
 1636              		.loc 1 177 44 discriminator 1 view .LVU440
 1637 004a AB42     		cmp	r3, r5
 1638 004c 0AD9     		bls	.L140
 180:Drivers/STM32WBxx_HAL_Driver/Src/stm32wbxx_hal_flash_ex.c **** 
 1639              		.loc 1 180 9 is_stmt 1 view .LVU441
 1640 004e 2846     		mov	r0, r5
 1641 0050 FFF7FEFF 		bl	FLASH_PageErase
 1642              	.LVL133:
 183:Drivers/STM32WBxx_HAL_Driver/Src/stm32wbxx_hal_flash_ex.c **** 
 1643              		.loc 1 183 9 view .LVU442
 183:Drivers/STM32WBxx_HAL_Driver/Src/stm32wbxx_hal_flash_ex.c **** 
 1644              		.loc 1 183 18 is_stmt 0 view .LVU443
 1645 0054 4FF47A70 		mov	r0, #1000
 1646 0058 FFF7FEFF 		bl	FLASH_WaitForLastOperation
 1647              	.LVL134:
 185:Drivers/STM32WBxx_HAL_Driver/Src/stm32wbxx_hal_flash_ex.c ****         {
 1648              		.loc 1 185 9 is_stmt 1 view .LVU444
 185:Drivers/STM32WBxx_HAL_Driver/Src/stm32wbxx_hal_flash_ex.c ****         {
 1649              		.loc 1 185 12 is_stmt 0 view .LVU445
 1650 005c 0746     		mov	r7, r0
 1651 005e 0028     		cmp	r0, #0
 1652 0060 EFD0     		beq	.L139
 188:Drivers/STM32WBxx_HAL_Driver/Src/stm32wbxx_hal_flash_ex.c ****           break;
 1653              		.loc 1 188 11 is_stmt 1 view .LVU446
 188:Drivers/STM32WBxx_HAL_Driver/Src/stm32wbxx_hal_flash_ex.c ****           break;
 1654              		.loc 1 188 22 is_stmt 0 view .LVU447
 1655 0062 3560     		str	r5, [r6]
 189:Drivers/STM32WBxx_HAL_Driver/Src/stm32wbxx_hal_flash_ex.c ****         }
 1656              		.loc 1 189 11 is_stmt 1 view .LVU448
 1657              	.LVL135:
 1658              	.L140:
 194:Drivers/STM32WBxx_HAL_Driver/Src/stm32wbxx_hal_flash_ex.c ****     }
 1659              		.loc 1 194 7 view .LVU449
 1660 0064 FFF7FEFF 		bl	FLASH_AcknowledgePageErase
 1661              	.LVL136:
 1662 0068 DFE7     		b	.L137
 1663              	.LVL137:
 1664              	.L142:
 162:Drivers/STM32WBxx_HAL_Driver/Src/stm32wbxx_hal_flash_ex.c **** 
 1665              		.loc 1 162 3 is_stmt 0 discriminator 1 view .LVU450
ARM GAS  C:\Users\Nathan\AppData\Local\Temp\cclrXYzQ.s 			page 51


 1666 006a 0227     		movs	r7, #2
 1667 006c E2E7     		b	.L135
 1668              	.L146:
 1669 006e 00BF     		.align	2
 1670              	.L145:
 1671 0070 00000000 		.word	pFlash
 1672              		.cfi_endproc
 1673              	.LFE1104:
 1675              		.section	.text.HAL_FLASHEx_Erase_IT,"ax",%progbits
 1676              		.align	1
 1677              		.global	HAL_FLASHEx_Erase_IT
 1678              		.syntax unified
 1679              		.thumb
 1680              		.thumb_func
 1682              	HAL_FLASHEx_Erase_IT:
 1683              	.LVL138:
 1684              	.LFB1105:
 216:Drivers/STM32WBxx_HAL_Driver/Src/stm32wbxx_hal_flash_ex.c ****   HAL_StatusTypeDef status;
 1685              		.loc 1 216 1 is_stmt 1 view -0
 1686              		.cfi_startproc
 1687              		@ args = 0, pretend = 0, frame = 0
 1688              		@ frame_needed = 0, uses_anonymous_args = 0
 216:Drivers/STM32WBxx_HAL_Driver/Src/stm32wbxx_hal_flash_ex.c ****   HAL_StatusTypeDef status;
 1689              		.loc 1 216 1 is_stmt 0 view .LVU452
 1690 0000 38B5     		push	{r3, r4, r5, lr}
 1691              		.cfi_def_cfa_offset 16
 1692              		.cfi_offset 3, -16
 1693              		.cfi_offset 4, -12
 1694              		.cfi_offset 5, -8
 1695              		.cfi_offset 14, -4
 217:Drivers/STM32WBxx_HAL_Driver/Src/stm32wbxx_hal_flash_ex.c **** 
 1696              		.loc 1 217 3 is_stmt 1 view .LVU453
 220:Drivers/STM32WBxx_HAL_Driver/Src/stm32wbxx_hal_flash_ex.c **** 
 1697              		.loc 1 220 3 view .LVU454
 223:Drivers/STM32WBxx_HAL_Driver/Src/stm32wbxx_hal_flash_ex.c **** 
 1698              		.loc 1 223 3 view .LVU455
 223:Drivers/STM32WBxx_HAL_Driver/Src/stm32wbxx_hal_flash_ex.c **** 
 1699              		.loc 1 223 3 view .LVU456
 1700 0002 144B     		ldr	r3, .L152
 1701 0004 1B78     		ldrb	r3, [r3]	@ zero_extendqisi2
 1702 0006 012B     		cmp	r3, #1
 1703 0008 22D0     		beq	.L150
 1704 000a 0446     		mov	r4, r0
 223:Drivers/STM32WBxx_HAL_Driver/Src/stm32wbxx_hal_flash_ex.c **** 
 1705              		.loc 1 223 3 discriminator 2 view .LVU457
 1706 000c 114B     		ldr	r3, .L152
 1707 000e 0122     		movs	r2, #1
 1708 0010 1A70     		strb	r2, [r3]
 223:Drivers/STM32WBxx_HAL_Driver/Src/stm32wbxx_hal_flash_ex.c **** 
 1709              		.loc 1 223 3 discriminator 2 view .LVU458
 226:Drivers/STM32WBxx_HAL_Driver/Src/stm32wbxx_hal_flash_ex.c **** 
 1710              		.loc 1 226 3 view .LVU459
 226:Drivers/STM32WBxx_HAL_Driver/Src/stm32wbxx_hal_flash_ex.c **** 
 1711              		.loc 1 226 20 is_stmt 0 view .LVU460
 1712 0012 0022     		movs	r2, #0
 1713 0014 5A60     		str	r2, [r3, #4]
 229:Drivers/STM32WBxx_HAL_Driver/Src/stm32wbxx_hal_flash_ex.c **** 
ARM GAS  C:\Users\Nathan\AppData\Local\Temp\cclrXYzQ.s 			page 52


 1714              		.loc 1 229 3 is_stmt 1 view .LVU461
 229:Drivers/STM32WBxx_HAL_Driver/Src/stm32wbxx_hal_flash_ex.c **** 
 1715              		.loc 1 229 39 is_stmt 0 view .LVU462
 1716 0016 0268     		ldr	r2, [r0]
 229:Drivers/STM32WBxx_HAL_Driver/Src/stm32wbxx_hal_flash_ex.c **** 
 1717              		.loc 1 229 27 view .LVU463
 1718 0018 9A60     		str	r2, [r3, #8]
 232:Drivers/STM32WBxx_HAL_Driver/Src/stm32wbxx_hal_flash_ex.c **** 
 1719              		.loc 1 232 3 is_stmt 1 view .LVU464
 232:Drivers/STM32WBxx_HAL_Driver/Src/stm32wbxx_hal_flash_ex.c **** 
 1720              		.loc 1 232 12 is_stmt 0 view .LVU465
 1721 001a 4FF47A70 		mov	r0, #1000
 1722              	.LVL139:
 232:Drivers/STM32WBxx_HAL_Driver/Src/stm32wbxx_hal_flash_ex.c **** 
 1723              		.loc 1 232 12 view .LVU466
 1724 001e FFF7FEFF 		bl	FLASH_WaitForLastOperation
 1725              	.LVL140:
 234:Drivers/STM32WBxx_HAL_Driver/Src/stm32wbxx_hal_flash_ex.c ****   {
 1726              		.loc 1 234 3 is_stmt 1 view .LVU467
 234:Drivers/STM32WBxx_HAL_Driver/Src/stm32wbxx_hal_flash_ex.c ****   {
 1727              		.loc 1 234 6 is_stmt 0 view .LVU468
 1728 0022 0546     		mov	r5, r0
 1729 0024 20B1     		cbz	r0, .L149
 237:Drivers/STM32WBxx_HAL_Driver/Src/stm32wbxx_hal_flash_ex.c ****   }
 1730              		.loc 1 237 5 is_stmt 1 view .LVU469
 237:Drivers/STM32WBxx_HAL_Driver/Src/stm32wbxx_hal_flash_ex.c ****   }
 1731              		.loc 1 237 5 view .LVU470
 1732 0026 0B4B     		ldr	r3, .L152
 1733 0028 0022     		movs	r2, #0
 1734 002a 1A70     		strb	r2, [r3]
 237:Drivers/STM32WBxx_HAL_Driver/Src/stm32wbxx_hal_flash_ex.c ****   }
 1735              		.loc 1 237 5 view .LVU471
 1736              	.LVL141:
 1737              	.L148:
 257:Drivers/STM32WBxx_HAL_Driver/Src/stm32wbxx_hal_flash_ex.c **** 
 1738              		.loc 1 257 1 is_stmt 0 view .LVU472
 1739 002c 2846     		mov	r0, r5
 1740 002e 38BD     		pop	{r3, r4, r5, pc}
 1741              	.LVL142:
 1742              	.L149:
 242:Drivers/STM32WBxx_HAL_Driver/Src/stm32wbxx_hal_flash_ex.c **** 
 1743              		.loc 1 242 5 is_stmt 1 view .LVU473
 242:Drivers/STM32WBxx_HAL_Driver/Src/stm32wbxx_hal_flash_ex.c **** 
 1744              		.loc 1 242 5 view .LVU474
 242:Drivers/STM32WBxx_HAL_Driver/Src/stm32wbxx_hal_flash_ex.c **** 
 1745              		.loc 1 242 5 discriminator 3 view .LVU475
 242:Drivers/STM32WBxx_HAL_Driver/Src/stm32wbxx_hal_flash_ex.c **** 
 1746              		.loc 1 242 5 discriminator 4 view .LVU476
 1747 0030 094A     		ldr	r2, .L152+4
 1748 0032 5369     		ldr	r3, [r2, #20]
 1749 0034 43F04073 		orr	r3, r3, #50331648
 1750 0038 5361     		str	r3, [r2, #20]
 242:Drivers/STM32WBxx_HAL_Driver/Src/stm32wbxx_hal_flash_ex.c **** 
 1751              		.loc 1 242 5 discriminator 6 view .LVU477
 244:Drivers/STM32WBxx_HAL_Driver/Src/stm32wbxx_hal_flash_ex.c ****     {
 1752              		.loc 1 244 5 view .LVU478
 244:Drivers/STM32WBxx_HAL_Driver/Src/stm32wbxx_hal_flash_ex.c ****     {
ARM GAS  C:\Users\Nathan\AppData\Local\Temp\cclrXYzQ.s 			page 53


 1753              		.loc 1 244 19 is_stmt 0 view .LVU479
 1754 003a 2368     		ldr	r3, [r4]
 244:Drivers/STM32WBxx_HAL_Driver/Src/stm32wbxx_hal_flash_ex.c ****     {
 1755              		.loc 1 244 8 view .LVU480
 1756 003c 022B     		cmp	r3, #2
 1757 003e F5D1     		bne	.L148
 247:Drivers/STM32WBxx_HAL_Driver/Src/stm32wbxx_hal_flash_ex.c ****       pFlash.Page = pEraseInit->Page;
 1758              		.loc 1 247 7 is_stmt 1 view .LVU481
 247:Drivers/STM32WBxx_HAL_Driver/Src/stm32wbxx_hal_flash_ex.c ****       pFlash.Page = pEraseInit->Page;
 1759              		.loc 1 247 41 is_stmt 0 view .LVU482
 1760 0040 A268     		ldr	r2, [r4, #8]
 247:Drivers/STM32WBxx_HAL_Driver/Src/stm32wbxx_hal_flash_ex.c ****       pFlash.Page = pEraseInit->Page;
 1761              		.loc 1 247 29 view .LVU483
 1762 0042 044B     		ldr	r3, .L152
 1763 0044 5A61     		str	r2, [r3, #20]
 248:Drivers/STM32WBxx_HAL_Driver/Src/stm32wbxx_hal_flash_ex.c **** 
 1764              		.loc 1 248 7 is_stmt 1 view .LVU484
 248:Drivers/STM32WBxx_HAL_Driver/Src/stm32wbxx_hal_flash_ex.c **** 
 1765              		.loc 1 248 31 is_stmt 0 view .LVU485
 1766 0046 6068     		ldr	r0, [r4, #4]
 1767              	.LVL143:
 248:Drivers/STM32WBxx_HAL_Driver/Src/stm32wbxx_hal_flash_ex.c **** 
 1768              		.loc 1 248 19 view .LVU486
 1769 0048 1861     		str	r0, [r3, #16]
 251:Drivers/STM32WBxx_HAL_Driver/Src/stm32wbxx_hal_flash_ex.c ****     }
 1770              		.loc 1 251 7 is_stmt 1 view .LVU487
 1771 004a FFF7FEFF 		bl	FLASH_PageErase
 1772              	.LVL144:
 1773 004e EDE7     		b	.L148
 1774              	.LVL145:
 1775              	.L150:
 223:Drivers/STM32WBxx_HAL_Driver/Src/stm32wbxx_hal_flash_ex.c **** 
 1776              		.loc 1 223 3 is_stmt 0 discriminator 1 view .LVU488
 1777 0050 0225     		movs	r5, #2
 1778 0052 EBE7     		b	.L148
 1779              	.L153:
 1780              		.align	2
 1781              	.L152:
 1782 0054 00000000 		.word	pFlash
 1783 0058 00400058 		.word	1476411392
 1784              		.cfi_endproc
 1785              	.LFE1105:
 1787              		.text
 1788              	.Letext0:
 1789              		.file 2 "C:/PROGRAM FILES (X86)/ARM GNU TOOLCHAIN ARM-NONE-EABI/13.3 REL1/arm-none-eabi/include/ma
 1790              		.file 3 "C:/PROGRAM FILES (X86)/ARM GNU TOOLCHAIN ARM-NONE-EABI/13.3 REL1/arm-none-eabi/include/sy
 1791              		.file 4 "Drivers/CMSIS/Device/ST/STM32WBxx/Include/stm32wb55xx.h"
 1792              		.file 5 "Drivers/STM32WBxx_HAL_Driver/Inc/stm32wbxx_hal_def.h"
 1793              		.file 6 "Drivers/STM32WBxx_HAL_Driver/Inc/stm32wbxx_hal_flash.h"
ARM GAS  C:\Users\Nathan\AppData\Local\Temp\cclrXYzQ.s 			page 54

