ARM GAS  C:\Users\Nathan\AppData\Local\Temp\ccvsgOlc.s 			page 1


   1              		.cpu cortex-m4
   2              		.arch armv7e-m
   3              		.fpu fpv4-sp-d16
   4              		.eabi_attribute 27, 1
   5              		.eabi_attribute 28, 1
   6              		.eabi_attribute 20, 1
   7              		.eabi_attribute 21, 1
   8              		.eabi_attribute 23, 3
   9              		.eabi_attribute 24, 1
  10              		.eabi_attribute 25, 1
  11              		.eabi_attribute 26, 1
  12              		.eabi_attribute 30, 1
  13              		.eabi_attribute 34, 1
  14              		.eabi_attribute 18, 4
  15              		.file	"stm32wbxx_hal_pwr_ex.c"
  16              		.text
  17              	.Ltext0:
  18              		.cfi_sections	.debug_frame
  19              		.file 1 "Drivers/STM32WBxx_HAL_Driver/Src/stm32wbxx_hal_pwr_ex.c"
  20              		.section	.text.HAL_PWREx_GetVoltageRange,"ax",%progbits
  21              		.align	1
  22              		.global	HAL_PWREx_GetVoltageRange
  23              		.syntax unified
  24              		.thumb
  25              		.thumb_func
  27              	HAL_PWREx_GetVoltageRange:
  28              	.LFB1104:
   1:Drivers/STM32WBxx_HAL_Driver/Src/stm32wbxx_hal_pwr_ex.c **** /**
   2:Drivers/STM32WBxx_HAL_Driver/Src/stm32wbxx_hal_pwr_ex.c ****   ******************************************************************************
   3:Drivers/STM32WBxx_HAL_Driver/Src/stm32wbxx_hal_pwr_ex.c ****   * @file    stm32wbxx_hal_pwr_ex.c
   4:Drivers/STM32WBxx_HAL_Driver/Src/stm32wbxx_hal_pwr_ex.c ****   * @author  MCD Application Team
   5:Drivers/STM32WBxx_HAL_Driver/Src/stm32wbxx_hal_pwr_ex.c ****   * @brief   Extended PWR HAL module driver.
   6:Drivers/STM32WBxx_HAL_Driver/Src/stm32wbxx_hal_pwr_ex.c ****   *          This file provides firmware functions to manage the following
   7:Drivers/STM32WBxx_HAL_Driver/Src/stm32wbxx_hal_pwr_ex.c ****   *          functionalities of the Power Controller (PWR) peripheral:
   8:Drivers/STM32WBxx_HAL_Driver/Src/stm32wbxx_hal_pwr_ex.c ****   *           + Extended Initialization and de-initialization functions
   9:Drivers/STM32WBxx_HAL_Driver/Src/stm32wbxx_hal_pwr_ex.c ****   *           + Extended Peripheral Control functions
  10:Drivers/STM32WBxx_HAL_Driver/Src/stm32wbxx_hal_pwr_ex.c ****   *
  11:Drivers/STM32WBxx_HAL_Driver/Src/stm32wbxx_hal_pwr_ex.c ****   ******************************************************************************
  12:Drivers/STM32WBxx_HAL_Driver/Src/stm32wbxx_hal_pwr_ex.c ****   * @attention
  13:Drivers/STM32WBxx_HAL_Driver/Src/stm32wbxx_hal_pwr_ex.c ****   *
  14:Drivers/STM32WBxx_HAL_Driver/Src/stm32wbxx_hal_pwr_ex.c ****   * Copyright (c) 2019 STMicroelectronics.
  15:Drivers/STM32WBxx_HAL_Driver/Src/stm32wbxx_hal_pwr_ex.c ****   * All rights reserved.
  16:Drivers/STM32WBxx_HAL_Driver/Src/stm32wbxx_hal_pwr_ex.c ****   *
  17:Drivers/STM32WBxx_HAL_Driver/Src/stm32wbxx_hal_pwr_ex.c ****   * This software is licensed under terms that can be found in the LICENSE file
  18:Drivers/STM32WBxx_HAL_Driver/Src/stm32wbxx_hal_pwr_ex.c ****   * in the root directory of this software component.
  19:Drivers/STM32WBxx_HAL_Driver/Src/stm32wbxx_hal_pwr_ex.c ****   * If no LICENSE file comes with this software, it is provided AS-IS.
  20:Drivers/STM32WBxx_HAL_Driver/Src/stm32wbxx_hal_pwr_ex.c ****   *
  21:Drivers/STM32WBxx_HAL_Driver/Src/stm32wbxx_hal_pwr_ex.c ****   ******************************************************************************
  22:Drivers/STM32WBxx_HAL_Driver/Src/stm32wbxx_hal_pwr_ex.c ****   */
  23:Drivers/STM32WBxx_HAL_Driver/Src/stm32wbxx_hal_pwr_ex.c **** 
  24:Drivers/STM32WBxx_HAL_Driver/Src/stm32wbxx_hal_pwr_ex.c **** /* Includes ------------------------------------------------------------------*/
  25:Drivers/STM32WBxx_HAL_Driver/Src/stm32wbxx_hal_pwr_ex.c **** #include "stm32wbxx_hal.h"
  26:Drivers/STM32WBxx_HAL_Driver/Src/stm32wbxx_hal_pwr_ex.c **** 
  27:Drivers/STM32WBxx_HAL_Driver/Src/stm32wbxx_hal_pwr_ex.c **** /** @addtogroup STM32WBxx_HAL_Driver
  28:Drivers/STM32WBxx_HAL_Driver/Src/stm32wbxx_hal_pwr_ex.c ****   * @{
  29:Drivers/STM32WBxx_HAL_Driver/Src/stm32wbxx_hal_pwr_ex.c ****   */
  30:Drivers/STM32WBxx_HAL_Driver/Src/stm32wbxx_hal_pwr_ex.c **** 
ARM GAS  C:\Users\Nathan\AppData\Local\Temp\ccvsgOlc.s 			page 2


  31:Drivers/STM32WBxx_HAL_Driver/Src/stm32wbxx_hal_pwr_ex.c **** /** @addtogroup PWREx
  32:Drivers/STM32WBxx_HAL_Driver/Src/stm32wbxx_hal_pwr_ex.c ****   * @{
  33:Drivers/STM32WBxx_HAL_Driver/Src/stm32wbxx_hal_pwr_ex.c ****   */
  34:Drivers/STM32WBxx_HAL_Driver/Src/stm32wbxx_hal_pwr_ex.c **** 
  35:Drivers/STM32WBxx_HAL_Driver/Src/stm32wbxx_hal_pwr_ex.c **** #ifdef HAL_PWR_MODULE_ENABLED
  36:Drivers/STM32WBxx_HAL_Driver/Src/stm32wbxx_hal_pwr_ex.c **** 
  37:Drivers/STM32WBxx_HAL_Driver/Src/stm32wbxx_hal_pwr_ex.c **** /* Private typedef -----------------------------------------------------------*/
  38:Drivers/STM32WBxx_HAL_Driver/Src/stm32wbxx_hal_pwr_ex.c **** /* Private define ------------------------------------------------------------*/
  39:Drivers/STM32WBxx_HAL_Driver/Src/stm32wbxx_hal_pwr_ex.c **** /** @defgroup PWR_Extended_Private_Defines PWR Extended Private Defines
  40:Drivers/STM32WBxx_HAL_Driver/Src/stm32wbxx_hal_pwr_ex.c ****   * @{
  41:Drivers/STM32WBxx_HAL_Driver/Src/stm32wbxx_hal_pwr_ex.c ****   */
  42:Drivers/STM32WBxx_HAL_Driver/Src/stm32wbxx_hal_pwr_ex.c **** #define PWR_PORTE_AVAILABLE_PINS   (PWR_GPIO_BIT_4 | PWR_GPIO_BIT_3 | PWR_GPIO_BIT_2 | PWR_GPIO_BIT
  43:Drivers/STM32WBxx_HAL_Driver/Src/stm32wbxx_hal_pwr_ex.c **** #define PWR_PORTH_AVAILABLE_PINS   (PWR_GPIO_BIT_3 | PWR_GPIO_BIT_1 | PWR_GPIO_BIT_0)
  44:Drivers/STM32WBxx_HAL_Driver/Src/stm32wbxx_hal_pwr_ex.c **** 
  45:Drivers/STM32WBxx_HAL_Driver/Src/stm32wbxx_hal_pwr_ex.c **** /** @defgroup PWREx_TimeOut_Value PWR Extended Flag Setting Time Out Value
  46:Drivers/STM32WBxx_HAL_Driver/Src/stm32wbxx_hal_pwr_ex.c ****   * @{
  47:Drivers/STM32WBxx_HAL_Driver/Src/stm32wbxx_hal_pwr_ex.c ****   */
  48:Drivers/STM32WBxx_HAL_Driver/Src/stm32wbxx_hal_pwr_ex.c **** #define PWR_FLAG_SETTING_DELAY_US                      50U   /*!< Time out value for REGLPF and VOS
  49:Drivers/STM32WBxx_HAL_Driver/Src/stm32wbxx_hal_pwr_ex.c **** /**
  50:Drivers/STM32WBxx_HAL_Driver/Src/stm32wbxx_hal_pwr_ex.c ****   * @}
  51:Drivers/STM32WBxx_HAL_Driver/Src/stm32wbxx_hal_pwr_ex.c ****   */
  52:Drivers/STM32WBxx_HAL_Driver/Src/stm32wbxx_hal_pwr_ex.c **** 
  53:Drivers/STM32WBxx_HAL_Driver/Src/stm32wbxx_hal_pwr_ex.c **** /**
  54:Drivers/STM32WBxx_HAL_Driver/Src/stm32wbxx_hal_pwr_ex.c ****   * @}
  55:Drivers/STM32WBxx_HAL_Driver/Src/stm32wbxx_hal_pwr_ex.c ****   */
  56:Drivers/STM32WBxx_HAL_Driver/Src/stm32wbxx_hal_pwr_ex.c **** 
  57:Drivers/STM32WBxx_HAL_Driver/Src/stm32wbxx_hal_pwr_ex.c **** 
  58:Drivers/STM32WBxx_HAL_Driver/Src/stm32wbxx_hal_pwr_ex.c **** 
  59:Drivers/STM32WBxx_HAL_Driver/Src/stm32wbxx_hal_pwr_ex.c **** /* Private macro -------------------------------------------------------------*/
  60:Drivers/STM32WBxx_HAL_Driver/Src/stm32wbxx_hal_pwr_ex.c **** /* Private variables ---------------------------------------------------------*/
  61:Drivers/STM32WBxx_HAL_Driver/Src/stm32wbxx_hal_pwr_ex.c **** /* Private function prototypes -----------------------------------------------*/
  62:Drivers/STM32WBxx_HAL_Driver/Src/stm32wbxx_hal_pwr_ex.c **** /* Exported functions --------------------------------------------------------*/
  63:Drivers/STM32WBxx_HAL_Driver/Src/stm32wbxx_hal_pwr_ex.c **** /** @addtogroup PWREx_Exported_Functions PWR Extended Exported Functions
  64:Drivers/STM32WBxx_HAL_Driver/Src/stm32wbxx_hal_pwr_ex.c ****   * @{
  65:Drivers/STM32WBxx_HAL_Driver/Src/stm32wbxx_hal_pwr_ex.c ****   */
  66:Drivers/STM32WBxx_HAL_Driver/Src/stm32wbxx_hal_pwr_ex.c **** 
  67:Drivers/STM32WBxx_HAL_Driver/Src/stm32wbxx_hal_pwr_ex.c **** /** @addtogroup PWREx_Exported_Functions_Group1 Extended Peripheral Control functions
  68:Drivers/STM32WBxx_HAL_Driver/Src/stm32wbxx_hal_pwr_ex.c ****   *  @brief   Extended Peripheral Control functions
  69:Drivers/STM32WBxx_HAL_Driver/Src/stm32wbxx_hal_pwr_ex.c ****   *
  70:Drivers/STM32WBxx_HAL_Driver/Src/stm32wbxx_hal_pwr_ex.c **** @verbatim
  71:Drivers/STM32WBxx_HAL_Driver/Src/stm32wbxx_hal_pwr_ex.c ****  ===============================================================================
  72:Drivers/STM32WBxx_HAL_Driver/Src/stm32wbxx_hal_pwr_ex.c ****               ##### Extended Peripheral Initialization and de-initialization functions #####
  73:Drivers/STM32WBxx_HAL_Driver/Src/stm32wbxx_hal_pwr_ex.c ****  ===============================================================================
  74:Drivers/STM32WBxx_HAL_Driver/Src/stm32wbxx_hal_pwr_ex.c ****     [..]
  75:Drivers/STM32WBxx_HAL_Driver/Src/stm32wbxx_hal_pwr_ex.c **** 
  76:Drivers/STM32WBxx_HAL_Driver/Src/stm32wbxx_hal_pwr_ex.c **** @endverbatim
  77:Drivers/STM32WBxx_HAL_Driver/Src/stm32wbxx_hal_pwr_ex.c ****   * @{
  78:Drivers/STM32WBxx_HAL_Driver/Src/stm32wbxx_hal_pwr_ex.c ****   */
  79:Drivers/STM32WBxx_HAL_Driver/Src/stm32wbxx_hal_pwr_ex.c **** 
  80:Drivers/STM32WBxx_HAL_Driver/Src/stm32wbxx_hal_pwr_ex.c **** 
  81:Drivers/STM32WBxx_HAL_Driver/Src/stm32wbxx_hal_pwr_ex.c **** #if defined(PWR_CR1_VOS)
  82:Drivers/STM32WBxx_HAL_Driver/Src/stm32wbxx_hal_pwr_ex.c **** /**
  83:Drivers/STM32WBxx_HAL_Driver/Src/stm32wbxx_hal_pwr_ex.c ****   * @brief Return Voltage Scaling Range.
  84:Drivers/STM32WBxx_HAL_Driver/Src/stm32wbxx_hal_pwr_ex.c ****   * @retval VOS bit field (PWR_REGULATOR_VOLTAGE_RANGE1 or PWR_REGULATOR_VOLTAGE_RANGE2)
  85:Drivers/STM32WBxx_HAL_Driver/Src/stm32wbxx_hal_pwr_ex.c ****   */
  86:Drivers/STM32WBxx_HAL_Driver/Src/stm32wbxx_hal_pwr_ex.c **** uint32_t HAL_PWREx_GetVoltageRange(void)
  87:Drivers/STM32WBxx_HAL_Driver/Src/stm32wbxx_hal_pwr_ex.c **** {
ARM GAS  C:\Users\Nathan\AppData\Local\Temp\ccvsgOlc.s 			page 3


  29              		.loc 1 87 1 view -0
  30              		.cfi_startproc
  31              		@ args = 0, pretend = 0, frame = 0
  32              		@ frame_needed = 0, uses_anonymous_args = 0
  33              		@ link register save eliminated.
  88:Drivers/STM32WBxx_HAL_Driver/Src/stm32wbxx_hal_pwr_ex.c ****   return (PWR->CR1 & PWR_CR1_VOS);
  34              		.loc 1 88 3 view .LVU1
  35              		.loc 1 88 14 is_stmt 0 view .LVU2
  36 0000 024B     		ldr	r3, .L2
  37 0002 1868     		ldr	r0, [r3]
  89:Drivers/STM32WBxx_HAL_Driver/Src/stm32wbxx_hal_pwr_ex.c **** }
  38              		.loc 1 89 1 view .LVU3
  39 0004 00F4C060 		and	r0, r0, #1536
  40 0008 7047     		bx	lr
  41              	.L3:
  42 000a 00BF     		.align	2
  43              	.L2:
  44 000c 00040058 		.word	1476396032
  45              		.cfi_endproc
  46              	.LFE1104:
  48              		.section	.text.HAL_PWREx_ControlVoltageScaling,"ax",%progbits
  49              		.align	1
  50              		.global	HAL_PWREx_ControlVoltageScaling
  51              		.syntax unified
  52              		.thumb
  53              		.thumb_func
  55              	HAL_PWREx_ControlVoltageScaling:
  56              	.LVL0:
  57              	.LFB1105:
  90:Drivers/STM32WBxx_HAL_Driver/Src/stm32wbxx_hal_pwr_ex.c **** 
  91:Drivers/STM32WBxx_HAL_Driver/Src/stm32wbxx_hal_pwr_ex.c **** /**
  92:Drivers/STM32WBxx_HAL_Driver/Src/stm32wbxx_hal_pwr_ex.c ****   * @brief Configure the main internal regulator output voltage.
  93:Drivers/STM32WBxx_HAL_Driver/Src/stm32wbxx_hal_pwr_ex.c ****   * @param VoltageScaling specifies the regulator output voltage to achieve
  94:Drivers/STM32WBxx_HAL_Driver/Src/stm32wbxx_hal_pwr_ex.c ****   *         a tradeoff between performance and power consumption.
  95:Drivers/STM32WBxx_HAL_Driver/Src/stm32wbxx_hal_pwr_ex.c ****   *          This parameter can be one of the following values:
  96:Drivers/STM32WBxx_HAL_Driver/Src/stm32wbxx_hal_pwr_ex.c ****   *            @arg @ref PWR_REGULATOR_VOLTAGE_SCALE1 Regulator voltage output range 1 mode,
  97:Drivers/STM32WBxx_HAL_Driver/Src/stm32wbxx_hal_pwr_ex.c ****   *                                                typical output voltage at 1.2 V,
  98:Drivers/STM32WBxx_HAL_Driver/Src/stm32wbxx_hal_pwr_ex.c ****   *                                                system frequency up to 64 MHz.
  99:Drivers/STM32WBxx_HAL_Driver/Src/stm32wbxx_hal_pwr_ex.c ****   *            @arg @ref PWR_REGULATOR_VOLTAGE_SCALE2 Regulator voltage output range 2 mode,
 100:Drivers/STM32WBxx_HAL_Driver/Src/stm32wbxx_hal_pwr_ex.c ****   *                                                typical output voltage at 1.0 V,
 101:Drivers/STM32WBxx_HAL_Driver/Src/stm32wbxx_hal_pwr_ex.c ****   *                                                system frequency up to 16 MHz.
 102:Drivers/STM32WBxx_HAL_Driver/Src/stm32wbxx_hal_pwr_ex.c ****   * @note  When moving from Range 1 to Range 2, the system frequency must be decreased to
 103:Drivers/STM32WBxx_HAL_Driver/Src/stm32wbxx_hal_pwr_ex.c ****   *        a value below 16 MHz before calling HAL_PWREx_ControlVoltageScaling() API.
 104:Drivers/STM32WBxx_HAL_Driver/Src/stm32wbxx_hal_pwr_ex.c ****   *        When moving from Range 2 to Range 1, the system frequency can be increased to
 105:Drivers/STM32WBxx_HAL_Driver/Src/stm32wbxx_hal_pwr_ex.c ****   *        a value up to 64 MHz after calling HAL_PWREx_ControlVoltageScaling() API.
 106:Drivers/STM32WBxx_HAL_Driver/Src/stm32wbxx_hal_pwr_ex.c ****   * @note  When moving from Range 2 to Range 1, the API waits for VOSF flag to be
 107:Drivers/STM32WBxx_HAL_Driver/Src/stm32wbxx_hal_pwr_ex.c ****   *        cleared before returning the status. If the flag is not cleared within
 108:Drivers/STM32WBxx_HAL_Driver/Src/stm32wbxx_hal_pwr_ex.c ****   *        50 microseconds, HAL_TIMEOUT status is reported.
 109:Drivers/STM32WBxx_HAL_Driver/Src/stm32wbxx_hal_pwr_ex.c ****   * @retval HAL Status
 110:Drivers/STM32WBxx_HAL_Driver/Src/stm32wbxx_hal_pwr_ex.c ****   */
 111:Drivers/STM32WBxx_HAL_Driver/Src/stm32wbxx_hal_pwr_ex.c **** HAL_StatusTypeDef HAL_PWREx_ControlVoltageScaling(uint32_t VoltageScaling)
 112:Drivers/STM32WBxx_HAL_Driver/Src/stm32wbxx_hal_pwr_ex.c **** {
  58              		.loc 1 112 1 is_stmt 1 view -0
  59              		.cfi_startproc
  60              		@ args = 0, pretend = 0, frame = 0
  61              		@ frame_needed = 0, uses_anonymous_args = 0
  62              		@ link register save eliminated.
ARM GAS  C:\Users\Nathan\AppData\Local\Temp\ccvsgOlc.s 			page 4


 113:Drivers/STM32WBxx_HAL_Driver/Src/stm32wbxx_hal_pwr_ex.c ****   uint32_t wait_loop_index;
  63              		.loc 1 113 3 view .LVU5
 114:Drivers/STM32WBxx_HAL_Driver/Src/stm32wbxx_hal_pwr_ex.c **** 
 115:Drivers/STM32WBxx_HAL_Driver/Src/stm32wbxx_hal_pwr_ex.c ****   assert_param(IS_PWR_VOLTAGE_SCALING_RANGE(VoltageScaling));
  64              		.loc 1 115 3 view .LVU6
 116:Drivers/STM32WBxx_HAL_Driver/Src/stm32wbxx_hal_pwr_ex.c **** 
 117:Drivers/STM32WBxx_HAL_Driver/Src/stm32wbxx_hal_pwr_ex.c ****   /* If Set Range 1 */
 118:Drivers/STM32WBxx_HAL_Driver/Src/stm32wbxx_hal_pwr_ex.c ****   if (VoltageScaling == PWR_REGULATOR_VOLTAGE_SCALE1)
  65              		.loc 1 118 3 view .LVU7
  66              		.loc 1 118 6 is_stmt 0 view .LVU8
  67 0000 B0F5007F 		cmp	r0, #512
  68 0004 0FD0     		beq	.L13
 119:Drivers/STM32WBxx_HAL_Driver/Src/stm32wbxx_hal_pwr_ex.c ****   {
 120:Drivers/STM32WBxx_HAL_Driver/Src/stm32wbxx_hal_pwr_ex.c ****     if (READ_BIT(PWR->CR1, PWR_CR1_VOS) != PWR_REGULATOR_VOLTAGE_SCALE1)
 121:Drivers/STM32WBxx_HAL_Driver/Src/stm32wbxx_hal_pwr_ex.c ****     {
 122:Drivers/STM32WBxx_HAL_Driver/Src/stm32wbxx_hal_pwr_ex.c ****       /* Set Range 1 */
 123:Drivers/STM32WBxx_HAL_Driver/Src/stm32wbxx_hal_pwr_ex.c ****       MODIFY_REG(PWR->CR1, PWR_CR1_VOS, PWR_REGULATOR_VOLTAGE_SCALE1);
 124:Drivers/STM32WBxx_HAL_Driver/Src/stm32wbxx_hal_pwr_ex.c **** 
 125:Drivers/STM32WBxx_HAL_Driver/Src/stm32wbxx_hal_pwr_ex.c ****       /* Wait until VOSF is cleared */
 126:Drivers/STM32WBxx_HAL_Driver/Src/stm32wbxx_hal_pwr_ex.c ****       wait_loop_index = (PWR_FLAG_SETTING_DELAY_US * (SystemCoreClock / 1000000U));
 127:Drivers/STM32WBxx_HAL_Driver/Src/stm32wbxx_hal_pwr_ex.c ****       while ((HAL_IS_BIT_SET(PWR->SR2, PWR_SR2_VOSF)) && (wait_loop_index != 0U))
 128:Drivers/STM32WBxx_HAL_Driver/Src/stm32wbxx_hal_pwr_ex.c ****       {
 129:Drivers/STM32WBxx_HAL_Driver/Src/stm32wbxx_hal_pwr_ex.c ****         wait_loop_index--;
 130:Drivers/STM32WBxx_HAL_Driver/Src/stm32wbxx_hal_pwr_ex.c ****       }
 131:Drivers/STM32WBxx_HAL_Driver/Src/stm32wbxx_hal_pwr_ex.c ****       if (HAL_IS_BIT_SET(PWR->SR2, PWR_SR2_VOSF))
 132:Drivers/STM32WBxx_HAL_Driver/Src/stm32wbxx_hal_pwr_ex.c ****       {
 133:Drivers/STM32WBxx_HAL_Driver/Src/stm32wbxx_hal_pwr_ex.c ****         return HAL_TIMEOUT;
 134:Drivers/STM32WBxx_HAL_Driver/Src/stm32wbxx_hal_pwr_ex.c ****       }
 135:Drivers/STM32WBxx_HAL_Driver/Src/stm32wbxx_hal_pwr_ex.c ****     }
 136:Drivers/STM32WBxx_HAL_Driver/Src/stm32wbxx_hal_pwr_ex.c ****   }
 137:Drivers/STM32WBxx_HAL_Driver/Src/stm32wbxx_hal_pwr_ex.c ****   else
 138:Drivers/STM32WBxx_HAL_Driver/Src/stm32wbxx_hal_pwr_ex.c ****   {
 139:Drivers/STM32WBxx_HAL_Driver/Src/stm32wbxx_hal_pwr_ex.c ****     if (READ_BIT(PWR->CR1, PWR_CR1_VOS) != PWR_REGULATOR_VOLTAGE_SCALE2)
  69              		.loc 1 139 5 is_stmt 1 view .LVU9
  70              		.loc 1 139 9 is_stmt 0 view .LVU10
  71 0006 214B     		ldr	r3, .L14
  72 0008 1B68     		ldr	r3, [r3]
  73 000a 03F4C063 		and	r3, r3, #1536
  74              		.loc 1 139 8 view .LVU11
  75 000e B3F5806F 		cmp	r3, #1024
  76 0012 38D0     		beq	.L12
 140:Drivers/STM32WBxx_HAL_Driver/Src/stm32wbxx_hal_pwr_ex.c ****     {
 141:Drivers/STM32WBxx_HAL_Driver/Src/stm32wbxx_hal_pwr_ex.c ****       /* Set Range 2 */
 142:Drivers/STM32WBxx_HAL_Driver/Src/stm32wbxx_hal_pwr_ex.c ****       MODIFY_REG(PWR->CR1, PWR_CR1_VOS, PWR_REGULATOR_VOLTAGE_SCALE2);
  77              		.loc 1 142 7 is_stmt 1 view .LVU12
  78 0014 1D4A     		ldr	r2, .L14
  79 0016 1368     		ldr	r3, [r2]
  80 0018 23F4C063 		bic	r3, r3, #1536
  81 001c 43F48063 		orr	r3, r3, #1024
  82 0020 1360     		str	r3, [r2]
 143:Drivers/STM32WBxx_HAL_Driver/Src/stm32wbxx_hal_pwr_ex.c ****       /* No need to wait for VOSF to be cleared for this transition */
 144:Drivers/STM32WBxx_HAL_Driver/Src/stm32wbxx_hal_pwr_ex.c ****     }
 145:Drivers/STM32WBxx_HAL_Driver/Src/stm32wbxx_hal_pwr_ex.c ****   }
 146:Drivers/STM32WBxx_HAL_Driver/Src/stm32wbxx_hal_pwr_ex.c **** 
 147:Drivers/STM32WBxx_HAL_Driver/Src/stm32wbxx_hal_pwr_ex.c ****   return HAL_OK;
  83              		.loc 1 147 10 is_stmt 0 view .LVU13
  84 0022 0020     		movs	r0, #0
ARM GAS  C:\Users\Nathan\AppData\Local\Temp\ccvsgOlc.s 			page 5


  85              	.LVL1:
  86              		.loc 1 147 10 view .LVU14
  87 0024 7047     		bx	lr
  88              	.LVL2:
  89              	.L13:
 120:Drivers/STM32WBxx_HAL_Driver/Src/stm32wbxx_hal_pwr_ex.c ****     {
  90              		.loc 1 120 5 is_stmt 1 view .LVU15
 120:Drivers/STM32WBxx_HAL_Driver/Src/stm32wbxx_hal_pwr_ex.c ****     {
  91              		.loc 1 120 9 is_stmt 0 view .LVU16
  92 0026 194B     		ldr	r3, .L14
  93 0028 1B68     		ldr	r3, [r3]
  94 002a 03F4C063 		and	r3, r3, #1536
 120:Drivers/STM32WBxx_HAL_Driver/Src/stm32wbxx_hal_pwr_ex.c ****     {
  95              		.loc 1 120 8 view .LVU17
  96 002e B3F5007F 		cmp	r3, #512
  97 0032 24D0     		beq	.L10
 123:Drivers/STM32WBxx_HAL_Driver/Src/stm32wbxx_hal_pwr_ex.c **** 
  98              		.loc 1 123 7 is_stmt 1 view .LVU18
  99 0034 154A     		ldr	r2, .L14
 100 0036 1368     		ldr	r3, [r2]
 101 0038 23F4C063 		bic	r3, r3, #1536
 102 003c 43F40073 		orr	r3, r3, #512
 103 0040 1360     		str	r3, [r2]
 126:Drivers/STM32WBxx_HAL_Driver/Src/stm32wbxx_hal_pwr_ex.c ****       while ((HAL_IS_BIT_SET(PWR->SR2, PWR_SR2_VOSF)) && (wait_loop_index != 0U))
 104              		.loc 1 126 7 view .LVU19
 126:Drivers/STM32WBxx_HAL_Driver/Src/stm32wbxx_hal_pwr_ex.c ****       while ((HAL_IS_BIT_SET(PWR->SR2, PWR_SR2_VOSF)) && (wait_loop_index != 0U))
 105              		.loc 1 126 71 is_stmt 0 view .LVU20
 106 0042 134B     		ldr	r3, .L14+4
 107 0044 1B68     		ldr	r3, [r3]
 108 0046 A2F1A752 		sub	r2, r2, #350224384
 109 004a A2F58422 		sub	r2, r2, #270336
 110 004e A2F27D52 		subw	r2, r2, #1405
 111 0052 A2FB0323 		umull	r2, r3, r2, r3
 112 0056 9B0C     		lsrs	r3, r3, #18
 126:Drivers/STM32WBxx_HAL_Driver/Src/stm32wbxx_hal_pwr_ex.c ****       while ((HAL_IS_BIT_SET(PWR->SR2, PWR_SR2_VOSF)) && (wait_loop_index != 0U))
 113              		.loc 1 126 23 view .LVU21
 114 0058 3222     		movs	r2, #50
 115 005a 02FB03F3 		mul	r3, r2, r3
 116              	.LVL3:
 127:Drivers/STM32WBxx_HAL_Driver/Src/stm32wbxx_hal_pwr_ex.c ****       {
 117              		.loc 1 127 7 is_stmt 1 view .LVU22
 127:Drivers/STM32WBxx_HAL_Driver/Src/stm32wbxx_hal_pwr_ex.c ****       {
 118              		.loc 1 127 13 is_stmt 0 view .LVU23
 119 005e 00E0     		b	.L7
 120              	.L9:
 129:Drivers/STM32WBxx_HAL_Driver/Src/stm32wbxx_hal_pwr_ex.c ****       }
 121              		.loc 1 129 9 is_stmt 1 view .LVU24
 129:Drivers/STM32WBxx_HAL_Driver/Src/stm32wbxx_hal_pwr_ex.c ****       }
 122              		.loc 1 129 24 is_stmt 0 view .LVU25
 123 0060 013B     		subs	r3, r3, #1
 124              	.LVL4:
 125              	.L7:
 127:Drivers/STM32WBxx_HAL_Driver/Src/stm32wbxx_hal_pwr_ex.c ****       {
 126              		.loc 1 127 55 is_stmt 1 view .LVU26
 127:Drivers/STM32WBxx_HAL_Driver/Src/stm32wbxx_hal_pwr_ex.c ****       {
 127              		.loc 1 127 15 is_stmt 0 view .LVU27
 128 0062 0A4A     		ldr	r2, .L14
ARM GAS  C:\Users\Nathan\AppData\Local\Temp\ccvsgOlc.s 			page 6


 129 0064 5269     		ldr	r2, [r2, #20]
 127:Drivers/STM32WBxx_HAL_Driver/Src/stm32wbxx_hal_pwr_ex.c ****       {
 130              		.loc 1 127 55 view .LVU28
 131 0066 12F4806F 		tst	r2, #1024
 132 006a 01D0     		beq	.L8
 127:Drivers/STM32WBxx_HAL_Driver/Src/stm32wbxx_hal_pwr_ex.c ****       {
 133              		.loc 1 127 55 discriminator 1 view .LVU29
 134 006c 002B     		cmp	r3, #0
 135 006e F7D1     		bne	.L9
 136              	.L8:
 131:Drivers/STM32WBxx_HAL_Driver/Src/stm32wbxx_hal_pwr_ex.c ****       {
 137              		.loc 1 131 7 is_stmt 1 view .LVU30
 131:Drivers/STM32WBxx_HAL_Driver/Src/stm32wbxx_hal_pwr_ex.c ****       {
 138              		.loc 1 131 11 is_stmt 0 view .LVU31
 139 0070 064B     		ldr	r3, .L14
 140              	.LVL5:
 131:Drivers/STM32WBxx_HAL_Driver/Src/stm32wbxx_hal_pwr_ex.c ****       {
 141              		.loc 1 131 11 view .LVU32
 142 0072 5B69     		ldr	r3, [r3, #20]
 131:Drivers/STM32WBxx_HAL_Driver/Src/stm32wbxx_hal_pwr_ex.c ****       {
 143              		.loc 1 131 10 view .LVU33
 144 0074 13F4806F 		tst	r3, #1024
 145 0078 03D1     		bne	.L11
 146              		.loc 1 147 10 view .LVU34
 147 007a 0020     		movs	r0, #0
 148              	.LVL6:
 149              		.loc 1 147 10 view .LVU35
 150 007c 7047     		bx	lr
 151              	.LVL7:
 152              	.L10:
 153              		.loc 1 147 10 view .LVU36
 154 007e 0020     		movs	r0, #0
 155              	.LVL8:
 156              		.loc 1 147 10 view .LVU37
 157 0080 7047     		bx	lr
 158              	.LVL9:
 159              	.L11:
 133:Drivers/STM32WBxx_HAL_Driver/Src/stm32wbxx_hal_pwr_ex.c ****       }
 160              		.loc 1 133 16 view .LVU38
 161 0082 0320     		movs	r0, #3
 162              	.LVL10:
 133:Drivers/STM32WBxx_HAL_Driver/Src/stm32wbxx_hal_pwr_ex.c ****       }
 163              		.loc 1 133 16 view .LVU39
 164 0084 7047     		bx	lr
 165              	.LVL11:
 166              	.L12:
 167              		.loc 1 147 10 view .LVU40
 168 0086 0020     		movs	r0, #0
 169              	.LVL12:
 148:Drivers/STM32WBxx_HAL_Driver/Src/stm32wbxx_hal_pwr_ex.c **** }
 170              		.loc 1 148 1 view .LVU41
 171 0088 7047     		bx	lr
 172              	.L15:
 173 008a 00BF     		.align	2
 174              	.L14:
 175 008c 00040058 		.word	1476396032
 176 0090 00000000 		.word	SystemCoreClock
ARM GAS  C:\Users\Nathan\AppData\Local\Temp\ccvsgOlc.s 			page 7


 177              		.cfi_endproc
 178              	.LFE1105:
 180              		.section	.text.HAL_PWREx_EnableBatteryCharging,"ax",%progbits
 181              		.align	1
 182              		.global	HAL_PWREx_EnableBatteryCharging
 183              		.syntax unified
 184              		.thumb
 185              		.thumb_func
 187              	HAL_PWREx_EnableBatteryCharging:
 188              	.LVL13:
 189              	.LFB1106:
 149:Drivers/STM32WBxx_HAL_Driver/Src/stm32wbxx_hal_pwr_ex.c **** #endif /* PWR_CR1_VOS */
 150:Drivers/STM32WBxx_HAL_Driver/Src/stm32wbxx_hal_pwr_ex.c **** 
 151:Drivers/STM32WBxx_HAL_Driver/Src/stm32wbxx_hal_pwr_ex.c **** /****************************************************************************/
 152:Drivers/STM32WBxx_HAL_Driver/Src/stm32wbxx_hal_pwr_ex.c **** 
 153:Drivers/STM32WBxx_HAL_Driver/Src/stm32wbxx_hal_pwr_ex.c **** /**
 154:Drivers/STM32WBxx_HAL_Driver/Src/stm32wbxx_hal_pwr_ex.c ****   * @brief Enable battery charging.
 155:Drivers/STM32WBxx_HAL_Driver/Src/stm32wbxx_hal_pwr_ex.c ****   *        When VDD is present, charge the external battery on VBAT thru an internal resistor.
 156:Drivers/STM32WBxx_HAL_Driver/Src/stm32wbxx_hal_pwr_ex.c ****   * @param ResistorSelection specifies the resistor impedance.
 157:Drivers/STM32WBxx_HAL_Driver/Src/stm32wbxx_hal_pwr_ex.c ****   *          This parameter can be one of the following values:
 158:Drivers/STM32WBxx_HAL_Driver/Src/stm32wbxx_hal_pwr_ex.c ****   *            @arg @ref PWR_BATTERY_CHARGING_RESISTOR_5     5 kOhms resistor
 159:Drivers/STM32WBxx_HAL_Driver/Src/stm32wbxx_hal_pwr_ex.c ****   *            @arg @ref PWR_BATTERY_CHARGING_RESISTOR_1_5 1.5 kOhms resistor
 160:Drivers/STM32WBxx_HAL_Driver/Src/stm32wbxx_hal_pwr_ex.c ****   * @retval None
 161:Drivers/STM32WBxx_HAL_Driver/Src/stm32wbxx_hal_pwr_ex.c ****   */
 162:Drivers/STM32WBxx_HAL_Driver/Src/stm32wbxx_hal_pwr_ex.c **** void HAL_PWREx_EnableBatteryCharging(uint32_t ResistorSelection)
 163:Drivers/STM32WBxx_HAL_Driver/Src/stm32wbxx_hal_pwr_ex.c **** {
 190              		.loc 1 163 1 is_stmt 1 view -0
 191              		.cfi_startproc
 192              		@ args = 0, pretend = 0, frame = 0
 193              		@ frame_needed = 0, uses_anonymous_args = 0
 194              		@ link register save eliminated.
 164:Drivers/STM32WBxx_HAL_Driver/Src/stm32wbxx_hal_pwr_ex.c ****   assert_param(IS_PWR_BATTERY_RESISTOR_SELECT(ResistorSelection));
 195              		.loc 1 164 3 view .LVU43
 165:Drivers/STM32WBxx_HAL_Driver/Src/stm32wbxx_hal_pwr_ex.c **** 
 166:Drivers/STM32WBxx_HAL_Driver/Src/stm32wbxx_hal_pwr_ex.c ****   /* Specify resistor selection */
 167:Drivers/STM32WBxx_HAL_Driver/Src/stm32wbxx_hal_pwr_ex.c ****   MODIFY_REG(PWR->CR4, PWR_CR4_VBRS, ResistorSelection);
 196              		.loc 1 167 3 view .LVU44
 197 0000 054A     		ldr	r2, .L17
 198 0002 D368     		ldr	r3, [r2, #12]
 199 0004 23F40073 		bic	r3, r3, #512
 200 0008 0343     		orrs	r3, r3, r0
 201 000a D360     		str	r3, [r2, #12]
 168:Drivers/STM32WBxx_HAL_Driver/Src/stm32wbxx_hal_pwr_ex.c **** 
 169:Drivers/STM32WBxx_HAL_Driver/Src/stm32wbxx_hal_pwr_ex.c ****   /* Enable battery charging */
 170:Drivers/STM32WBxx_HAL_Driver/Src/stm32wbxx_hal_pwr_ex.c ****   SET_BIT(PWR->CR4, PWR_CR4_VBE);
 202              		.loc 1 170 3 view .LVU45
 203 000c D368     		ldr	r3, [r2, #12]
 204 000e 43F48073 		orr	r3, r3, #256
 205 0012 D360     		str	r3, [r2, #12]
 171:Drivers/STM32WBxx_HAL_Driver/Src/stm32wbxx_hal_pwr_ex.c **** }
 206              		.loc 1 171 1 is_stmt 0 view .LVU46
 207 0014 7047     		bx	lr
 208              	.L18:
 209 0016 00BF     		.align	2
 210              	.L17:
 211 0018 00040058 		.word	1476396032
 212              		.cfi_endproc
ARM GAS  C:\Users\Nathan\AppData\Local\Temp\ccvsgOlc.s 			page 8


 213              	.LFE1106:
 215              		.section	.text.HAL_PWREx_DisableBatteryCharging,"ax",%progbits
 216              		.align	1
 217              		.global	HAL_PWREx_DisableBatteryCharging
 218              		.syntax unified
 219              		.thumb
 220              		.thumb_func
 222              	HAL_PWREx_DisableBatteryCharging:
 223              	.LFB1107:
 172:Drivers/STM32WBxx_HAL_Driver/Src/stm32wbxx_hal_pwr_ex.c **** 
 173:Drivers/STM32WBxx_HAL_Driver/Src/stm32wbxx_hal_pwr_ex.c **** /**
 174:Drivers/STM32WBxx_HAL_Driver/Src/stm32wbxx_hal_pwr_ex.c ****   * @brief Disable battery charging.
 175:Drivers/STM32WBxx_HAL_Driver/Src/stm32wbxx_hal_pwr_ex.c ****   * @retval None
 176:Drivers/STM32WBxx_HAL_Driver/Src/stm32wbxx_hal_pwr_ex.c ****   */
 177:Drivers/STM32WBxx_HAL_Driver/Src/stm32wbxx_hal_pwr_ex.c **** void HAL_PWREx_DisableBatteryCharging(void)
 178:Drivers/STM32WBxx_HAL_Driver/Src/stm32wbxx_hal_pwr_ex.c **** {
 224              		.loc 1 178 1 is_stmt 1 view -0
 225              		.cfi_startproc
 226              		@ args = 0, pretend = 0, frame = 0
 227              		@ frame_needed = 0, uses_anonymous_args = 0
 228              		@ link register save eliminated.
 179:Drivers/STM32WBxx_HAL_Driver/Src/stm32wbxx_hal_pwr_ex.c ****   CLEAR_BIT(PWR->CR4, PWR_CR4_VBE);
 229              		.loc 1 179 3 view .LVU48
 230 0000 024A     		ldr	r2, .L20
 231 0002 D368     		ldr	r3, [r2, #12]
 232 0004 23F48073 		bic	r3, r3, #256
 233 0008 D360     		str	r3, [r2, #12]
 180:Drivers/STM32WBxx_HAL_Driver/Src/stm32wbxx_hal_pwr_ex.c **** }
 234              		.loc 1 180 1 is_stmt 0 view .LVU49
 235 000a 7047     		bx	lr
 236              	.L21:
 237              		.align	2
 238              	.L20:
 239 000c 00040058 		.word	1476396032
 240              		.cfi_endproc
 241              	.LFE1107:
 243              		.section	.text.HAL_PWREx_EnableVddUSB,"ax",%progbits
 244              		.align	1
 245              		.global	HAL_PWREx_EnableVddUSB
 246              		.syntax unified
 247              		.thumb
 248              		.thumb_func
 250              	HAL_PWREx_EnableVddUSB:
 251              	.LFB1108:
 181:Drivers/STM32WBxx_HAL_Driver/Src/stm32wbxx_hal_pwr_ex.c **** 
 182:Drivers/STM32WBxx_HAL_Driver/Src/stm32wbxx_hal_pwr_ex.c **** /****************************************************************************/
 183:Drivers/STM32WBxx_HAL_Driver/Src/stm32wbxx_hal_pwr_ex.c **** #if defined(PWR_CR2_PVME1)
 184:Drivers/STM32WBxx_HAL_Driver/Src/stm32wbxx_hal_pwr_ex.c **** /**
 185:Drivers/STM32WBxx_HAL_Driver/Src/stm32wbxx_hal_pwr_ex.c ****   * @brief Enable VDDUSB supply.
 186:Drivers/STM32WBxx_HAL_Driver/Src/stm32wbxx_hal_pwr_ex.c ****   * @note  Remove VDDUSB electrical and logical isolation, once VDDUSB supply is present.
 187:Drivers/STM32WBxx_HAL_Driver/Src/stm32wbxx_hal_pwr_ex.c ****   * @retval None
 188:Drivers/STM32WBxx_HAL_Driver/Src/stm32wbxx_hal_pwr_ex.c ****   */
 189:Drivers/STM32WBxx_HAL_Driver/Src/stm32wbxx_hal_pwr_ex.c **** void HAL_PWREx_EnableVddUSB(void)
 190:Drivers/STM32WBxx_HAL_Driver/Src/stm32wbxx_hal_pwr_ex.c **** {
 252              		.loc 1 190 1 is_stmt 1 view -0
 253              		.cfi_startproc
 254              		@ args = 0, pretend = 0, frame = 0
ARM GAS  C:\Users\Nathan\AppData\Local\Temp\ccvsgOlc.s 			page 9


 255              		@ frame_needed = 0, uses_anonymous_args = 0
 256              		@ link register save eliminated.
 191:Drivers/STM32WBxx_HAL_Driver/Src/stm32wbxx_hal_pwr_ex.c ****   SET_BIT(PWR->CR2, PWR_CR2_USV);
 257              		.loc 1 191 3 view .LVU51
 258 0000 024A     		ldr	r2, .L23
 259 0002 5368     		ldr	r3, [r2, #4]
 260 0004 43F48063 		orr	r3, r3, #1024
 261 0008 5360     		str	r3, [r2, #4]
 192:Drivers/STM32WBxx_HAL_Driver/Src/stm32wbxx_hal_pwr_ex.c **** }
 262              		.loc 1 192 1 is_stmt 0 view .LVU52
 263 000a 7047     		bx	lr
 264              	.L24:
 265              		.align	2
 266              	.L23:
 267 000c 00040058 		.word	1476396032
 268              		.cfi_endproc
 269              	.LFE1108:
 271              		.section	.text.HAL_PWREx_DisableVddUSB,"ax",%progbits
 272              		.align	1
 273              		.global	HAL_PWREx_DisableVddUSB
 274              		.syntax unified
 275              		.thumb
 276              		.thumb_func
 278              	HAL_PWREx_DisableVddUSB:
 279              	.LFB1109:
 193:Drivers/STM32WBxx_HAL_Driver/Src/stm32wbxx_hal_pwr_ex.c **** 
 194:Drivers/STM32WBxx_HAL_Driver/Src/stm32wbxx_hal_pwr_ex.c **** /**
 195:Drivers/STM32WBxx_HAL_Driver/Src/stm32wbxx_hal_pwr_ex.c ****   * @brief Disable VDDUSB supply.
 196:Drivers/STM32WBxx_HAL_Driver/Src/stm32wbxx_hal_pwr_ex.c ****   * @retval None
 197:Drivers/STM32WBxx_HAL_Driver/Src/stm32wbxx_hal_pwr_ex.c ****   */
 198:Drivers/STM32WBxx_HAL_Driver/Src/stm32wbxx_hal_pwr_ex.c **** void HAL_PWREx_DisableVddUSB(void)
 199:Drivers/STM32WBxx_HAL_Driver/Src/stm32wbxx_hal_pwr_ex.c **** {
 280              		.loc 1 199 1 is_stmt 1 view -0
 281              		.cfi_startproc
 282              		@ args = 0, pretend = 0, frame = 0
 283              		@ frame_needed = 0, uses_anonymous_args = 0
 284              		@ link register save eliminated.
 200:Drivers/STM32WBxx_HAL_Driver/Src/stm32wbxx_hal_pwr_ex.c ****   CLEAR_BIT(PWR->CR2, PWR_CR2_USV);
 285              		.loc 1 200 3 view .LVU54
 286 0000 024A     		ldr	r2, .L26
 287 0002 5368     		ldr	r3, [r2, #4]
 288 0004 23F48063 		bic	r3, r3, #1024
 289 0008 5360     		str	r3, [r2, #4]
 201:Drivers/STM32WBxx_HAL_Driver/Src/stm32wbxx_hal_pwr_ex.c **** }
 290              		.loc 1 201 1 is_stmt 0 view .LVU55
 291 000a 7047     		bx	lr
 292              	.L27:
 293              		.align	2
 294              	.L26:
 295 000c 00040058 		.word	1476396032
 296              		.cfi_endproc
 297              	.LFE1109:
 299              		.section	.text.HAL_PWREx_EnableInternalWakeUpLine,"ax",%progbits
 300              		.align	1
 301              		.global	HAL_PWREx_EnableInternalWakeUpLine
 302              		.syntax unified
 303              		.thumb
ARM GAS  C:\Users\Nathan\AppData\Local\Temp\ccvsgOlc.s 			page 10


 304              		.thumb_func
 306              	HAL_PWREx_EnableInternalWakeUpLine:
 307              	.LFB1110:
 202:Drivers/STM32WBxx_HAL_Driver/Src/stm32wbxx_hal_pwr_ex.c **** #endif /* PWR_CR2_PVME1 */
 203:Drivers/STM32WBxx_HAL_Driver/Src/stm32wbxx_hal_pwr_ex.c **** 
 204:Drivers/STM32WBxx_HAL_Driver/Src/stm32wbxx_hal_pwr_ex.c **** /****************************************************************************/
 205:Drivers/STM32WBxx_HAL_Driver/Src/stm32wbxx_hal_pwr_ex.c **** 
 206:Drivers/STM32WBxx_HAL_Driver/Src/stm32wbxx_hal_pwr_ex.c **** /**
 207:Drivers/STM32WBxx_HAL_Driver/Src/stm32wbxx_hal_pwr_ex.c ****   * @brief Enable Internal Wake-up Line.
 208:Drivers/STM32WBxx_HAL_Driver/Src/stm32wbxx_hal_pwr_ex.c ****   * @retval None
 209:Drivers/STM32WBxx_HAL_Driver/Src/stm32wbxx_hal_pwr_ex.c ****   */
 210:Drivers/STM32WBxx_HAL_Driver/Src/stm32wbxx_hal_pwr_ex.c **** void HAL_PWREx_EnableInternalWakeUpLine(void)
 211:Drivers/STM32WBxx_HAL_Driver/Src/stm32wbxx_hal_pwr_ex.c **** {
 308              		.loc 1 211 1 is_stmt 1 view -0
 309              		.cfi_startproc
 310              		@ args = 0, pretend = 0, frame = 0
 311              		@ frame_needed = 0, uses_anonymous_args = 0
 312              		@ link register save eliminated.
 212:Drivers/STM32WBxx_HAL_Driver/Src/stm32wbxx_hal_pwr_ex.c ****   SET_BIT(PWR->CR3, PWR_CR3_EIWUL);
 313              		.loc 1 212 3 view .LVU57
 314 0000 024A     		ldr	r2, .L29
 315 0002 9368     		ldr	r3, [r2, #8]
 316 0004 43F40043 		orr	r3, r3, #32768
 317 0008 9360     		str	r3, [r2, #8]
 213:Drivers/STM32WBxx_HAL_Driver/Src/stm32wbxx_hal_pwr_ex.c **** }
 318              		.loc 1 213 1 is_stmt 0 view .LVU58
 319 000a 7047     		bx	lr
 320              	.L30:
 321              		.align	2
 322              	.L29:
 323 000c 00040058 		.word	1476396032
 324              		.cfi_endproc
 325              	.LFE1110:
 327              		.section	.text.HAL_PWREx_DisableInternalWakeUpLine,"ax",%progbits
 328              		.align	1
 329              		.global	HAL_PWREx_DisableInternalWakeUpLine
 330              		.syntax unified
 331              		.thumb
 332              		.thumb_func
 334              	HAL_PWREx_DisableInternalWakeUpLine:
 335              	.LFB1111:
 214:Drivers/STM32WBxx_HAL_Driver/Src/stm32wbxx_hal_pwr_ex.c **** 
 215:Drivers/STM32WBxx_HAL_Driver/Src/stm32wbxx_hal_pwr_ex.c **** /**
 216:Drivers/STM32WBxx_HAL_Driver/Src/stm32wbxx_hal_pwr_ex.c ****   * @brief Disable Internal Wake-up Line.
 217:Drivers/STM32WBxx_HAL_Driver/Src/stm32wbxx_hal_pwr_ex.c ****   * @retval None
 218:Drivers/STM32WBxx_HAL_Driver/Src/stm32wbxx_hal_pwr_ex.c ****   */
 219:Drivers/STM32WBxx_HAL_Driver/Src/stm32wbxx_hal_pwr_ex.c **** void HAL_PWREx_DisableInternalWakeUpLine(void)
 220:Drivers/STM32WBxx_HAL_Driver/Src/stm32wbxx_hal_pwr_ex.c **** {
 336              		.loc 1 220 1 is_stmt 1 view -0
 337              		.cfi_startproc
 338              		@ args = 0, pretend = 0, frame = 0
 339              		@ frame_needed = 0, uses_anonymous_args = 0
 340              		@ link register save eliminated.
 221:Drivers/STM32WBxx_HAL_Driver/Src/stm32wbxx_hal_pwr_ex.c ****   CLEAR_BIT(PWR->CR3, PWR_CR3_EIWUL);
 341              		.loc 1 221 3 view .LVU60
 342 0000 024A     		ldr	r2, .L32
 343 0002 9368     		ldr	r3, [r2, #8]
ARM GAS  C:\Users\Nathan\AppData\Local\Temp\ccvsgOlc.s 			page 11


 344 0004 23F40043 		bic	r3, r3, #32768
 345 0008 9360     		str	r3, [r2, #8]
 222:Drivers/STM32WBxx_HAL_Driver/Src/stm32wbxx_hal_pwr_ex.c **** }
 346              		.loc 1 222 1 is_stmt 0 view .LVU61
 347 000a 7047     		bx	lr
 348              	.L33:
 349              		.align	2
 350              	.L32:
 351 000c 00040058 		.word	1476396032
 352              		.cfi_endproc
 353              	.LFE1111:
 355              		.section	.text.HAL_PWREx_EnableBORH_SMPSBypassIT,"ax",%progbits
 356              		.align	1
 357              		.global	HAL_PWREx_EnableBORH_SMPSBypassIT
 358              		.syntax unified
 359              		.thumb
 360              		.thumb_func
 362              	HAL_PWREx_EnableBORH_SMPSBypassIT:
 363              	.LFB1112:
 223:Drivers/STM32WBxx_HAL_Driver/Src/stm32wbxx_hal_pwr_ex.c **** 
 224:Drivers/STM32WBxx_HAL_Driver/Src/stm32wbxx_hal_pwr_ex.c **** #if defined(PWR_CR5_SMPSEN)
 225:Drivers/STM32WBxx_HAL_Driver/Src/stm32wbxx_hal_pwr_ex.c **** /**
 226:Drivers/STM32WBxx_HAL_Driver/Src/stm32wbxx_hal_pwr_ex.c ****   * @brief Enable BORH and SMPS step down converter forced in bypass mode
 227:Drivers/STM32WBxx_HAL_Driver/Src/stm32wbxx_hal_pwr_ex.c ****   *        interrupt for CPU1
 228:Drivers/STM32WBxx_HAL_Driver/Src/stm32wbxx_hal_pwr_ex.c ****   * @retval None
 229:Drivers/STM32WBxx_HAL_Driver/Src/stm32wbxx_hal_pwr_ex.c ****   */
 230:Drivers/STM32WBxx_HAL_Driver/Src/stm32wbxx_hal_pwr_ex.c **** void HAL_PWREx_EnableBORH_SMPSBypassIT(void)
 231:Drivers/STM32WBxx_HAL_Driver/Src/stm32wbxx_hal_pwr_ex.c **** {
 364              		.loc 1 231 1 is_stmt 1 view -0
 365              		.cfi_startproc
 366              		@ args = 0, pretend = 0, frame = 0
 367              		@ frame_needed = 0, uses_anonymous_args = 0
 368              		@ link register save eliminated.
 232:Drivers/STM32WBxx_HAL_Driver/Src/stm32wbxx_hal_pwr_ex.c ****   SET_BIT(PWR->CR3, PWR_CR3_EBORHSMPSFB);
 369              		.loc 1 232 3 view .LVU63
 370 0000 024A     		ldr	r2, .L35
 371 0002 9368     		ldr	r3, [r2, #8]
 372 0004 43F48073 		orr	r3, r3, #256
 373 0008 9360     		str	r3, [r2, #8]
 233:Drivers/STM32WBxx_HAL_Driver/Src/stm32wbxx_hal_pwr_ex.c **** }
 374              		.loc 1 233 1 is_stmt 0 view .LVU64
 375 000a 7047     		bx	lr
 376              	.L36:
 377              		.align	2
 378              	.L35:
 379 000c 00040058 		.word	1476396032
 380              		.cfi_endproc
 381              	.LFE1112:
 383              		.section	.text.HAL_PWREx_DisableBORH_SMPSBypassIT,"ax",%progbits
 384              		.align	1
 385              		.global	HAL_PWREx_DisableBORH_SMPSBypassIT
 386              		.syntax unified
 387              		.thumb
 388              		.thumb_func
 390              	HAL_PWREx_DisableBORH_SMPSBypassIT:
 391              	.LFB1113:
 234:Drivers/STM32WBxx_HAL_Driver/Src/stm32wbxx_hal_pwr_ex.c **** 
ARM GAS  C:\Users\Nathan\AppData\Local\Temp\ccvsgOlc.s 			page 12


 235:Drivers/STM32WBxx_HAL_Driver/Src/stm32wbxx_hal_pwr_ex.c **** /**
 236:Drivers/STM32WBxx_HAL_Driver/Src/stm32wbxx_hal_pwr_ex.c ****   * @brief Disable BORH and SMPS step down converter forced in bypass mode
 237:Drivers/STM32WBxx_HAL_Driver/Src/stm32wbxx_hal_pwr_ex.c ****   *        interrupt for CPU1
 238:Drivers/STM32WBxx_HAL_Driver/Src/stm32wbxx_hal_pwr_ex.c ****   * @retval None
 239:Drivers/STM32WBxx_HAL_Driver/Src/stm32wbxx_hal_pwr_ex.c ****   */
 240:Drivers/STM32WBxx_HAL_Driver/Src/stm32wbxx_hal_pwr_ex.c **** void HAL_PWREx_DisableBORH_SMPSBypassIT(void)
 241:Drivers/STM32WBxx_HAL_Driver/Src/stm32wbxx_hal_pwr_ex.c **** {
 392              		.loc 1 241 1 is_stmt 1 view -0
 393              		.cfi_startproc
 394              		@ args = 0, pretend = 0, frame = 0
 395              		@ frame_needed = 0, uses_anonymous_args = 0
 396              		@ link register save eliminated.
 242:Drivers/STM32WBxx_HAL_Driver/Src/stm32wbxx_hal_pwr_ex.c ****   CLEAR_BIT(PWR->CR3, PWR_CR3_EBORHSMPSFB);
 397              		.loc 1 242 3 view .LVU66
 398 0000 024A     		ldr	r2, .L38
 399 0002 9368     		ldr	r3, [r2, #8]
 400 0004 23F48073 		bic	r3, r3, #256
 401 0008 9360     		str	r3, [r2, #8]
 243:Drivers/STM32WBxx_HAL_Driver/Src/stm32wbxx_hal_pwr_ex.c **** }
 402              		.loc 1 243 1 is_stmt 0 view .LVU67
 403 000a 7047     		bx	lr
 404              	.L39:
 405              		.align	2
 406              	.L38:
 407 000c 00040058 		.word	1476396032
 408              		.cfi_endproc
 409              	.LFE1113:
 411              		.section	.text.HAL_PWREx_EnableRFPhaseIT,"ax",%progbits
 412              		.align	1
 413              		.global	HAL_PWREx_EnableRFPhaseIT
 414              		.syntax unified
 415              		.thumb
 416              		.thumb_func
 418              	HAL_PWREx_EnableRFPhaseIT:
 419              	.LFB1114:
 244:Drivers/STM32WBxx_HAL_Driver/Src/stm32wbxx_hal_pwr_ex.c **** #endif /* PWR_CR5_SMPSEN */
 245:Drivers/STM32WBxx_HAL_Driver/Src/stm32wbxx_hal_pwr_ex.c **** 
 246:Drivers/STM32WBxx_HAL_Driver/Src/stm32wbxx_hal_pwr_ex.c **** /**
 247:Drivers/STM32WBxx_HAL_Driver/Src/stm32wbxx_hal_pwr_ex.c ****   * @brief Enable RF Phase interrupt.
 248:Drivers/STM32WBxx_HAL_Driver/Src/stm32wbxx_hal_pwr_ex.c ****   * @retval None
 249:Drivers/STM32WBxx_HAL_Driver/Src/stm32wbxx_hal_pwr_ex.c ****   */
 250:Drivers/STM32WBxx_HAL_Driver/Src/stm32wbxx_hal_pwr_ex.c **** void HAL_PWREx_EnableRFPhaseIT(void)
 251:Drivers/STM32WBxx_HAL_Driver/Src/stm32wbxx_hal_pwr_ex.c **** {
 420              		.loc 1 251 1 is_stmt 1 view -0
 421              		.cfi_startproc
 422              		@ args = 0, pretend = 0, frame = 0
 423              		@ frame_needed = 0, uses_anonymous_args = 0
 424              		@ link register save eliminated.
 252:Drivers/STM32WBxx_HAL_Driver/Src/stm32wbxx_hal_pwr_ex.c ****   SET_BIT(PWR->CR3, PWR_CR3_ECRPE_Msk);
 425              		.loc 1 252 3 view .LVU69
 426 0000 024A     		ldr	r2, .L41
 427 0002 9368     		ldr	r3, [r2, #8]
 428 0004 43F40063 		orr	r3, r3, #2048
 429 0008 9360     		str	r3, [r2, #8]
 253:Drivers/STM32WBxx_HAL_Driver/Src/stm32wbxx_hal_pwr_ex.c **** }
 430              		.loc 1 253 1 is_stmt 0 view .LVU70
 431 000a 7047     		bx	lr
ARM GAS  C:\Users\Nathan\AppData\Local\Temp\ccvsgOlc.s 			page 13


 432              	.L42:
 433              		.align	2
 434              	.L41:
 435 000c 00040058 		.word	1476396032
 436              		.cfi_endproc
 437              	.LFE1114:
 439              		.section	.text.HAL_PWREx_DisableRFPhaseIT,"ax",%progbits
 440              		.align	1
 441              		.global	HAL_PWREx_DisableRFPhaseIT
 442              		.syntax unified
 443              		.thumb
 444              		.thumb_func
 446              	HAL_PWREx_DisableRFPhaseIT:
 447              	.LFB1115:
 254:Drivers/STM32WBxx_HAL_Driver/Src/stm32wbxx_hal_pwr_ex.c **** 
 255:Drivers/STM32WBxx_HAL_Driver/Src/stm32wbxx_hal_pwr_ex.c **** /**
 256:Drivers/STM32WBxx_HAL_Driver/Src/stm32wbxx_hal_pwr_ex.c ****   * @brief Disable RF Phase interrupt.
 257:Drivers/STM32WBxx_HAL_Driver/Src/stm32wbxx_hal_pwr_ex.c ****   * @retval None
 258:Drivers/STM32WBxx_HAL_Driver/Src/stm32wbxx_hal_pwr_ex.c ****   */
 259:Drivers/STM32WBxx_HAL_Driver/Src/stm32wbxx_hal_pwr_ex.c **** void HAL_PWREx_DisableRFPhaseIT(void)
 260:Drivers/STM32WBxx_HAL_Driver/Src/stm32wbxx_hal_pwr_ex.c **** {
 448              		.loc 1 260 1 is_stmt 1 view -0
 449              		.cfi_startproc
 450              		@ args = 0, pretend = 0, frame = 0
 451              		@ frame_needed = 0, uses_anonymous_args = 0
 452              		@ link register save eliminated.
 261:Drivers/STM32WBxx_HAL_Driver/Src/stm32wbxx_hal_pwr_ex.c ****   CLEAR_BIT(PWR->CR3, PWR_CR3_ECRPE_Msk);
 453              		.loc 1 261 3 view .LVU72
 454 0000 024A     		ldr	r2, .L44
 455 0002 9368     		ldr	r3, [r2, #8]
 456 0004 23F40063 		bic	r3, r3, #2048
 457 0008 9360     		str	r3, [r2, #8]
 262:Drivers/STM32WBxx_HAL_Driver/Src/stm32wbxx_hal_pwr_ex.c **** }
 458              		.loc 1 262 1 is_stmt 0 view .LVU73
 459 000a 7047     		bx	lr
 460              	.L45:
 461              		.align	2
 462              	.L44:
 463 000c 00040058 		.word	1476396032
 464              		.cfi_endproc
 465              	.LFE1115:
 467              		.section	.text.HAL_PWREx_EnableBLEActivityIT,"ax",%progbits
 468              		.align	1
 469              		.global	HAL_PWREx_EnableBLEActivityIT
 470              		.syntax unified
 471              		.thumb
 472              		.thumb_func
 474              	HAL_PWREx_EnableBLEActivityIT:
 475              	.LFB1116:
 263:Drivers/STM32WBxx_HAL_Driver/Src/stm32wbxx_hal_pwr_ex.c **** 
 264:Drivers/STM32WBxx_HAL_Driver/Src/stm32wbxx_hal_pwr_ex.c **** 
 265:Drivers/STM32WBxx_HAL_Driver/Src/stm32wbxx_hal_pwr_ex.c **** /**
 266:Drivers/STM32WBxx_HAL_Driver/Src/stm32wbxx_hal_pwr_ex.c ****   * @brief Enable BLE Activity interrupt.
 267:Drivers/STM32WBxx_HAL_Driver/Src/stm32wbxx_hal_pwr_ex.c ****   * @retval None
 268:Drivers/STM32WBxx_HAL_Driver/Src/stm32wbxx_hal_pwr_ex.c ****   */
 269:Drivers/STM32WBxx_HAL_Driver/Src/stm32wbxx_hal_pwr_ex.c **** void HAL_PWREx_EnableBLEActivityIT(void)
 270:Drivers/STM32WBxx_HAL_Driver/Src/stm32wbxx_hal_pwr_ex.c **** {
ARM GAS  C:\Users\Nathan\AppData\Local\Temp\ccvsgOlc.s 			page 14


 476              		.loc 1 270 1 is_stmt 1 view -0
 477              		.cfi_startproc
 478              		@ args = 0, pretend = 0, frame = 0
 479              		@ frame_needed = 0, uses_anonymous_args = 0
 480              		@ link register save eliminated.
 271:Drivers/STM32WBxx_HAL_Driver/Src/stm32wbxx_hal_pwr_ex.c ****   SET_BIT(PWR->CR3, PWR_CR3_EBLEA);
 481              		.loc 1 271 3 view .LVU75
 482 0000 024A     		ldr	r2, .L47
 483 0002 9368     		ldr	r3, [r2, #8]
 484 0004 43F48053 		orr	r3, r3, #4096
 485 0008 9360     		str	r3, [r2, #8]
 272:Drivers/STM32WBxx_HAL_Driver/Src/stm32wbxx_hal_pwr_ex.c **** }
 486              		.loc 1 272 1 is_stmt 0 view .LVU76
 487 000a 7047     		bx	lr
 488              	.L48:
 489              		.align	2
 490              	.L47:
 491 000c 00040058 		.word	1476396032
 492              		.cfi_endproc
 493              	.LFE1116:
 495              		.section	.text.HAL_PWREx_DisableBLEActivityIT,"ax",%progbits
 496              		.align	1
 497              		.global	HAL_PWREx_DisableBLEActivityIT
 498              		.syntax unified
 499              		.thumb
 500              		.thumb_func
 502              	HAL_PWREx_DisableBLEActivityIT:
 503              	.LFB1117:
 273:Drivers/STM32WBxx_HAL_Driver/Src/stm32wbxx_hal_pwr_ex.c **** 
 274:Drivers/STM32WBxx_HAL_Driver/Src/stm32wbxx_hal_pwr_ex.c **** /**
 275:Drivers/STM32WBxx_HAL_Driver/Src/stm32wbxx_hal_pwr_ex.c ****   * @brief Disable BLE Activity interrupt.
 276:Drivers/STM32WBxx_HAL_Driver/Src/stm32wbxx_hal_pwr_ex.c ****   * @retval None
 277:Drivers/STM32WBxx_HAL_Driver/Src/stm32wbxx_hal_pwr_ex.c ****   */
 278:Drivers/STM32WBxx_HAL_Driver/Src/stm32wbxx_hal_pwr_ex.c **** void HAL_PWREx_DisableBLEActivityIT(void)
 279:Drivers/STM32WBxx_HAL_Driver/Src/stm32wbxx_hal_pwr_ex.c **** {
 504              		.loc 1 279 1 is_stmt 1 view -0
 505              		.cfi_startproc
 506              		@ args = 0, pretend = 0, frame = 0
 507              		@ frame_needed = 0, uses_anonymous_args = 0
 508              		@ link register save eliminated.
 280:Drivers/STM32WBxx_HAL_Driver/Src/stm32wbxx_hal_pwr_ex.c ****   CLEAR_BIT(PWR->CR3, PWR_CR3_EBLEA);
 509              		.loc 1 280 3 view .LVU78
 510 0000 024A     		ldr	r2, .L50
 511 0002 9368     		ldr	r3, [r2, #8]
 512 0004 23F48053 		bic	r3, r3, #4096
 513 0008 9360     		str	r3, [r2, #8]
 281:Drivers/STM32WBxx_HAL_Driver/Src/stm32wbxx_hal_pwr_ex.c **** }
 514              		.loc 1 281 1 is_stmt 0 view .LVU79
 515 000a 7047     		bx	lr
 516              	.L51:
 517              		.align	2
 518              	.L50:
 519 000c 00040058 		.word	1476396032
 520              		.cfi_endproc
 521              	.LFE1117:
 523              		.section	.text.HAL_PWREx_Enable802ActivityIT,"ax",%progbits
 524              		.align	1
ARM GAS  C:\Users\Nathan\AppData\Local\Temp\ccvsgOlc.s 			page 15


 525              		.global	HAL_PWREx_Enable802ActivityIT
 526              		.syntax unified
 527              		.thumb
 528              		.thumb_func
 530              	HAL_PWREx_Enable802ActivityIT:
 531              	.LFB1118:
 282:Drivers/STM32WBxx_HAL_Driver/Src/stm32wbxx_hal_pwr_ex.c **** 
 283:Drivers/STM32WBxx_HAL_Driver/Src/stm32wbxx_hal_pwr_ex.c **** #if defined(PWR_CR3_E802A)
 284:Drivers/STM32WBxx_HAL_Driver/Src/stm32wbxx_hal_pwr_ex.c **** /**
 285:Drivers/STM32WBxx_HAL_Driver/Src/stm32wbxx_hal_pwr_ex.c ****   * @brief Enable 802.15.4 Activity interrupt.
 286:Drivers/STM32WBxx_HAL_Driver/Src/stm32wbxx_hal_pwr_ex.c ****   * @retval None
 287:Drivers/STM32WBxx_HAL_Driver/Src/stm32wbxx_hal_pwr_ex.c ****   */
 288:Drivers/STM32WBxx_HAL_Driver/Src/stm32wbxx_hal_pwr_ex.c **** void HAL_PWREx_Enable802ActivityIT(void)
 289:Drivers/STM32WBxx_HAL_Driver/Src/stm32wbxx_hal_pwr_ex.c **** {
 532              		.loc 1 289 1 is_stmt 1 view -0
 533              		.cfi_startproc
 534              		@ args = 0, pretend = 0, frame = 0
 535              		@ frame_needed = 0, uses_anonymous_args = 0
 536              		@ link register save eliminated.
 290:Drivers/STM32WBxx_HAL_Driver/Src/stm32wbxx_hal_pwr_ex.c ****   SET_BIT(PWR->CR3, PWR_CR3_E802A);
 537              		.loc 1 290 3 view .LVU81
 538 0000 024A     		ldr	r2, .L53
 539 0002 9368     		ldr	r3, [r2, #8]
 540 0004 43F40053 		orr	r3, r3, #8192
 541 0008 9360     		str	r3, [r2, #8]
 291:Drivers/STM32WBxx_HAL_Driver/Src/stm32wbxx_hal_pwr_ex.c **** }
 542              		.loc 1 291 1 is_stmt 0 view .LVU82
 543 000a 7047     		bx	lr
 544              	.L54:
 545              		.align	2
 546              	.L53:
 547 000c 00040058 		.word	1476396032
 548              		.cfi_endproc
 549              	.LFE1118:
 551              		.section	.text.HAL_PWREx_Disable802ActivityIT,"ax",%progbits
 552              		.align	1
 553              		.global	HAL_PWREx_Disable802ActivityIT
 554              		.syntax unified
 555              		.thumb
 556              		.thumb_func
 558              	HAL_PWREx_Disable802ActivityIT:
 559              	.LFB1119:
 292:Drivers/STM32WBxx_HAL_Driver/Src/stm32wbxx_hal_pwr_ex.c **** 
 293:Drivers/STM32WBxx_HAL_Driver/Src/stm32wbxx_hal_pwr_ex.c **** /**
 294:Drivers/STM32WBxx_HAL_Driver/Src/stm32wbxx_hal_pwr_ex.c ****   * @brief Disable 802.15.4 Activity interrupt.
 295:Drivers/STM32WBxx_HAL_Driver/Src/stm32wbxx_hal_pwr_ex.c ****   * @retval None
 296:Drivers/STM32WBxx_HAL_Driver/Src/stm32wbxx_hal_pwr_ex.c ****   */
 297:Drivers/STM32WBxx_HAL_Driver/Src/stm32wbxx_hal_pwr_ex.c **** void HAL_PWREx_Disable802ActivityIT(void)
 298:Drivers/STM32WBxx_HAL_Driver/Src/stm32wbxx_hal_pwr_ex.c **** {
 560              		.loc 1 298 1 is_stmt 1 view -0
 561              		.cfi_startproc
 562              		@ args = 0, pretend = 0, frame = 0
 563              		@ frame_needed = 0, uses_anonymous_args = 0
 564              		@ link register save eliminated.
 299:Drivers/STM32WBxx_HAL_Driver/Src/stm32wbxx_hal_pwr_ex.c ****   CLEAR_BIT(PWR->CR3, PWR_CR3_E802A);
 565              		.loc 1 299 3 view .LVU84
 566 0000 024A     		ldr	r2, .L56
ARM GAS  C:\Users\Nathan\AppData\Local\Temp\ccvsgOlc.s 			page 16


 567 0002 9368     		ldr	r3, [r2, #8]
 568 0004 23F40053 		bic	r3, r3, #8192
 569 0008 9360     		str	r3, [r2, #8]
 300:Drivers/STM32WBxx_HAL_Driver/Src/stm32wbxx_hal_pwr_ex.c **** }
 570              		.loc 1 300 1 is_stmt 0 view .LVU85
 571 000a 7047     		bx	lr
 572              	.L57:
 573              		.align	2
 574              	.L56:
 575 000c 00040058 		.word	1476396032
 576              		.cfi_endproc
 577              	.LFE1119:
 579              		.section	.text.HAL_PWREx_EnableHOLDC2IT,"ax",%progbits
 580              		.align	1
 581              		.global	HAL_PWREx_EnableHOLDC2IT
 582              		.syntax unified
 583              		.thumb
 584              		.thumb_func
 586              	HAL_PWREx_EnableHOLDC2IT:
 587              	.LFB1120:
 301:Drivers/STM32WBxx_HAL_Driver/Src/stm32wbxx_hal_pwr_ex.c **** #endif /* PWR_CR3_E802A */
 302:Drivers/STM32WBxx_HAL_Driver/Src/stm32wbxx_hal_pwr_ex.c **** 
 303:Drivers/STM32WBxx_HAL_Driver/Src/stm32wbxx_hal_pwr_ex.c **** /**
 304:Drivers/STM32WBxx_HAL_Driver/Src/stm32wbxx_hal_pwr_ex.c ****   * @brief Enable CPU2 on-Hold interrupt.
 305:Drivers/STM32WBxx_HAL_Driver/Src/stm32wbxx_hal_pwr_ex.c ****   * @retval None
 306:Drivers/STM32WBxx_HAL_Driver/Src/stm32wbxx_hal_pwr_ex.c ****   */
 307:Drivers/STM32WBxx_HAL_Driver/Src/stm32wbxx_hal_pwr_ex.c **** void HAL_PWREx_EnableHOLDC2IT(void)
 308:Drivers/STM32WBxx_HAL_Driver/Src/stm32wbxx_hal_pwr_ex.c **** {
 588              		.loc 1 308 1 is_stmt 1 view -0
 589              		.cfi_startproc
 590              		@ args = 0, pretend = 0, frame = 0
 591              		@ frame_needed = 0, uses_anonymous_args = 0
 592              		@ link register save eliminated.
 309:Drivers/STM32WBxx_HAL_Driver/Src/stm32wbxx_hal_pwr_ex.c ****   SET_BIT(PWR->CR3, PWR_CR3_EC2H);
 593              		.loc 1 309 3 view .LVU87
 594 0000 024A     		ldr	r2, .L59
 595 0002 9368     		ldr	r3, [r2, #8]
 596 0004 43F48043 		orr	r3, r3, #16384
 597 0008 9360     		str	r3, [r2, #8]
 310:Drivers/STM32WBxx_HAL_Driver/Src/stm32wbxx_hal_pwr_ex.c **** }
 598              		.loc 1 310 1 is_stmt 0 view .LVU88
 599 000a 7047     		bx	lr
 600              	.L60:
 601              		.align	2
 602              	.L59:
 603 000c 00040058 		.word	1476396032
 604              		.cfi_endproc
 605              	.LFE1120:
 607              		.section	.text.HAL_PWREx_DisableHOLDC2IT,"ax",%progbits
 608              		.align	1
 609              		.global	HAL_PWREx_DisableHOLDC2IT
 610              		.syntax unified
 611              		.thumb
 612              		.thumb_func
 614              	HAL_PWREx_DisableHOLDC2IT:
 615              	.LFB1121:
 311:Drivers/STM32WBxx_HAL_Driver/Src/stm32wbxx_hal_pwr_ex.c **** 
ARM GAS  C:\Users\Nathan\AppData\Local\Temp\ccvsgOlc.s 			page 17


 312:Drivers/STM32WBxx_HAL_Driver/Src/stm32wbxx_hal_pwr_ex.c **** /**
 313:Drivers/STM32WBxx_HAL_Driver/Src/stm32wbxx_hal_pwr_ex.c ****   * @brief Disable CPU2 on-Hold interrupt.
 314:Drivers/STM32WBxx_HAL_Driver/Src/stm32wbxx_hal_pwr_ex.c ****   * @retval None
 315:Drivers/STM32WBxx_HAL_Driver/Src/stm32wbxx_hal_pwr_ex.c ****   */
 316:Drivers/STM32WBxx_HAL_Driver/Src/stm32wbxx_hal_pwr_ex.c **** void HAL_PWREx_DisableHOLDC2IT(void)
 317:Drivers/STM32WBxx_HAL_Driver/Src/stm32wbxx_hal_pwr_ex.c **** {
 616              		.loc 1 317 1 is_stmt 1 view -0
 617              		.cfi_startproc
 618              		@ args = 0, pretend = 0, frame = 0
 619              		@ frame_needed = 0, uses_anonymous_args = 0
 620              		@ link register save eliminated.
 318:Drivers/STM32WBxx_HAL_Driver/Src/stm32wbxx_hal_pwr_ex.c ****   CLEAR_BIT(PWR->CR3, PWR_CR3_EC2H);
 621              		.loc 1 318 3 view .LVU90
 622 0000 024A     		ldr	r2, .L62
 623 0002 9368     		ldr	r3, [r2, #8]
 624 0004 23F48043 		bic	r3, r3, #16384
 625 0008 9360     		str	r3, [r2, #8]
 319:Drivers/STM32WBxx_HAL_Driver/Src/stm32wbxx_hal_pwr_ex.c **** }
 626              		.loc 1 319 1 is_stmt 0 view .LVU91
 627 000a 7047     		bx	lr
 628              	.L63:
 629              		.align	2
 630              	.L62:
 631 000c 00040058 		.word	1476396032
 632              		.cfi_endproc
 633              	.LFE1121:
 635              		.section	.text.HAL_PWREx_EnableGPIOPullUp,"ax",%progbits
 636              		.align	1
 637              		.global	HAL_PWREx_EnableGPIOPullUp
 638              		.syntax unified
 639              		.thumb
 640              		.thumb_func
 642              	HAL_PWREx_EnableGPIOPullUp:
 643              	.LVL14:
 644              	.LFB1122:
 320:Drivers/STM32WBxx_HAL_Driver/Src/stm32wbxx_hal_pwr_ex.c **** 
 321:Drivers/STM32WBxx_HAL_Driver/Src/stm32wbxx_hal_pwr_ex.c **** /****************************************************************************/
 322:Drivers/STM32WBxx_HAL_Driver/Src/stm32wbxx_hal_pwr_ex.c **** 
 323:Drivers/STM32WBxx_HAL_Driver/Src/stm32wbxx_hal_pwr_ex.c **** /**
 324:Drivers/STM32WBxx_HAL_Driver/Src/stm32wbxx_hal_pwr_ex.c ****   * @brief Enable GPIO pull-up state in Standby and Shutdown modes.
 325:Drivers/STM32WBxx_HAL_Driver/Src/stm32wbxx_hal_pwr_ex.c ****   * @note  Set the relevant PUy bits of PWR_PUCRx register to configure the I/O in
 326:Drivers/STM32WBxx_HAL_Driver/Src/stm32wbxx_hal_pwr_ex.c ****   *        pull-up state in Standby and Shutdown modes.
 327:Drivers/STM32WBxx_HAL_Driver/Src/stm32wbxx_hal_pwr_ex.c ****   * @note  This state is effective in Standby and Shutdown modes only if APC bit
 328:Drivers/STM32WBxx_HAL_Driver/Src/stm32wbxx_hal_pwr_ex.c ****   *        is set through HAL_PWREx_EnablePullUpPullDownConfig() API.
 329:Drivers/STM32WBxx_HAL_Driver/Src/stm32wbxx_hal_pwr_ex.c ****   * @note  The configuration is lost when exiting the Shutdown mode due to the
 330:Drivers/STM32WBxx_HAL_Driver/Src/stm32wbxx_hal_pwr_ex.c ****   *        power-on reset, maintained when exiting the Standby mode.
 331:Drivers/STM32WBxx_HAL_Driver/Src/stm32wbxx_hal_pwr_ex.c ****   * @note  To avoid any conflict at Standby and Shutdown modes exits, the corresponding
 332:Drivers/STM32WBxx_HAL_Driver/Src/stm32wbxx_hal_pwr_ex.c ****   *        PDy bit of PWR_PDCRx register is cleared unless it is reserved.
 333:Drivers/STM32WBxx_HAL_Driver/Src/stm32wbxx_hal_pwr_ex.c ****   * @note  Even if a PUy bit to set is reserved, the other PUy bits entered as input
 334:Drivers/STM32WBxx_HAL_Driver/Src/stm32wbxx_hal_pwr_ex.c ****   *        parameter at the same time are set.
 335:Drivers/STM32WBxx_HAL_Driver/Src/stm32wbxx_hal_pwr_ex.c ****   * @param GPIO Specify the IO port. This parameter can be PWR_GPIO_A, ..., PWR_GPIO_H
 336:Drivers/STM32WBxx_HAL_Driver/Src/stm32wbxx_hal_pwr_ex.c ****   *         to select the GPIO peripheral.
 337:Drivers/STM32WBxx_HAL_Driver/Src/stm32wbxx_hal_pwr_ex.c ****   * @param GPIONumber Specify the I/O pins numbers.
 338:Drivers/STM32WBxx_HAL_Driver/Src/stm32wbxx_hal_pwr_ex.c ****   *         This parameter can be one of the following values:
 339:Drivers/STM32WBxx_HAL_Driver/Src/stm32wbxx_hal_pwr_ex.c ****   *         PWR_GPIO_BIT_0, ..., PWR_GPIO_BIT_15 (except for PORTH where less
 340:Drivers/STM32WBxx_HAL_Driver/Src/stm32wbxx_hal_pwr_ex.c ****   *         I/O pins are available) or the logical OR of several of them to set
 341:Drivers/STM32WBxx_HAL_Driver/Src/stm32wbxx_hal_pwr_ex.c ****   *         several bits for a given port in a single API call.
ARM GAS  C:\Users\Nathan\AppData\Local\Temp\ccvsgOlc.s 			page 18


 342:Drivers/STM32WBxx_HAL_Driver/Src/stm32wbxx_hal_pwr_ex.c ****   * @retval HAL Status
 343:Drivers/STM32WBxx_HAL_Driver/Src/stm32wbxx_hal_pwr_ex.c ****   */
 344:Drivers/STM32WBxx_HAL_Driver/Src/stm32wbxx_hal_pwr_ex.c **** HAL_StatusTypeDef HAL_PWREx_EnableGPIOPullUp(uint32_t GPIO, uint32_t GPIONumber)
 345:Drivers/STM32WBxx_HAL_Driver/Src/stm32wbxx_hal_pwr_ex.c **** {
 645              		.loc 1 345 1 is_stmt 1 view -0
 646              		.cfi_startproc
 647              		@ args = 0, pretend = 0, frame = 0
 648              		@ frame_needed = 0, uses_anonymous_args = 0
 649              		@ link register save eliminated.
 346:Drivers/STM32WBxx_HAL_Driver/Src/stm32wbxx_hal_pwr_ex.c ****   HAL_StatusTypeDef status = HAL_OK;
 650              		.loc 1 346 3 view .LVU93
 347:Drivers/STM32WBxx_HAL_Driver/Src/stm32wbxx_hal_pwr_ex.c **** 
 348:Drivers/STM32WBxx_HAL_Driver/Src/stm32wbxx_hal_pwr_ex.c ****   assert_param(IS_PWR_GPIO(GPIO));
 651              		.loc 1 348 3 view .LVU94
 349:Drivers/STM32WBxx_HAL_Driver/Src/stm32wbxx_hal_pwr_ex.c ****   assert_param(IS_PWR_GPIO_BIT_NUMBER(GPIONumber));
 652              		.loc 1 349 3 view .LVU95
 350:Drivers/STM32WBxx_HAL_Driver/Src/stm32wbxx_hal_pwr_ex.c **** 
 351:Drivers/STM32WBxx_HAL_Driver/Src/stm32wbxx_hal_pwr_ex.c ****   switch (GPIO)
 653              		.loc 1 351 3 view .LVU96
 654 0000 0728     		cmp	r0, #7
 655 0002 45D8     		bhi	.L73
 656 0004 DFE800F0 		tbb	[pc, r0]
 657              	.L67:
 658 0008 04       		.byte	(.L72-.L67)/2
 659 0009 0E       		.byte	(.L71-.L67)/2
 660 000a 18       		.byte	(.L70-.L67)/2
 661 000b 22       		.byte	(.L69-.L67)/2
 662 000c 2C       		.byte	(.L68-.L67)/2
 663 000d 44       		.byte	(.L73-.L67)/2
 664 000e 44       		.byte	(.L73-.L67)/2
 665 000f 38       		.byte	(.L66-.L67)/2
 666              		.p2align 1
 667              	.L72:
 352:Drivers/STM32WBxx_HAL_Driver/Src/stm32wbxx_hal_pwr_ex.c ****   {
 353:Drivers/STM32WBxx_HAL_Driver/Src/stm32wbxx_hal_pwr_ex.c ****     case PWR_GPIO_A:
 354:Drivers/STM32WBxx_HAL_Driver/Src/stm32wbxx_hal_pwr_ex.c ****       SET_BIT(PWR->PUCRA, GPIONumber);
 668              		.loc 1 354 7 view .LVU97
 669 0010 204B     		ldr	r3, .L74
 670 0012 1A6A     		ldr	r2, [r3, #32]
 671 0014 0A43     		orrs	r2, r2, r1
 672 0016 1A62     		str	r2, [r3, #32]
 355:Drivers/STM32WBxx_HAL_Driver/Src/stm32wbxx_hal_pwr_ex.c ****       CLEAR_BIT(PWR->PDCRA, GPIONumber);
 673              		.loc 1 355 7 view .LVU98
 674 0018 5A6A     		ldr	r2, [r3, #36]
 675 001a 22EA0102 		bic	r2, r2, r1
 676 001e 5A62     		str	r2, [r3, #36]
 356:Drivers/STM32WBxx_HAL_Driver/Src/stm32wbxx_hal_pwr_ex.c ****       break;
 677              		.loc 1 356 7 view .LVU99
 346:Drivers/STM32WBxx_HAL_Driver/Src/stm32wbxx_hal_pwr_ex.c **** 
 678              		.loc 1 346 21 is_stmt 0 view .LVU100
 679 0020 0020     		movs	r0, #0
 680              	.LVL15:
 681              		.loc 1 356 7 view .LVU101
 682 0022 7047     		bx	lr
 683              	.LVL16:
 684              	.L71:
 357:Drivers/STM32WBxx_HAL_Driver/Src/stm32wbxx_hal_pwr_ex.c ****     case PWR_GPIO_B:
ARM GAS  C:\Users\Nathan\AppData\Local\Temp\ccvsgOlc.s 			page 19


 358:Drivers/STM32WBxx_HAL_Driver/Src/stm32wbxx_hal_pwr_ex.c ****       SET_BIT(PWR->PUCRB, GPIONumber);
 685              		.loc 1 358 7 is_stmt 1 view .LVU102
 686 0024 1B4B     		ldr	r3, .L74
 687 0026 9A6A     		ldr	r2, [r3, #40]
 688 0028 0A43     		orrs	r2, r2, r1
 689 002a 9A62     		str	r2, [r3, #40]
 359:Drivers/STM32WBxx_HAL_Driver/Src/stm32wbxx_hal_pwr_ex.c ****       CLEAR_BIT(PWR->PDCRB, GPIONumber);
 690              		.loc 1 359 7 view .LVU103
 691 002c DA6A     		ldr	r2, [r3, #44]
 692 002e 22EA0102 		bic	r2, r2, r1
 693 0032 DA62     		str	r2, [r3, #44]
 360:Drivers/STM32WBxx_HAL_Driver/Src/stm32wbxx_hal_pwr_ex.c ****       break;
 694              		.loc 1 360 7 view .LVU104
 346:Drivers/STM32WBxx_HAL_Driver/Src/stm32wbxx_hal_pwr_ex.c **** 
 695              		.loc 1 346 21 is_stmt 0 view .LVU105
 696 0034 0020     		movs	r0, #0
 697              	.LVL17:
 698              		.loc 1 360 7 view .LVU106
 699 0036 7047     		bx	lr
 700              	.LVL18:
 701              	.L70:
 361:Drivers/STM32WBxx_HAL_Driver/Src/stm32wbxx_hal_pwr_ex.c ****     case PWR_GPIO_C:
 362:Drivers/STM32WBxx_HAL_Driver/Src/stm32wbxx_hal_pwr_ex.c ****       SET_BIT(PWR->PUCRC, GPIONumber);
 702              		.loc 1 362 7 is_stmt 1 view .LVU107
 703 0038 164B     		ldr	r3, .L74
 704 003a 1A6B     		ldr	r2, [r3, #48]
 705 003c 0A43     		orrs	r2, r2, r1
 706 003e 1A63     		str	r2, [r3, #48]
 363:Drivers/STM32WBxx_HAL_Driver/Src/stm32wbxx_hal_pwr_ex.c ****       CLEAR_BIT(PWR->PDCRC, GPIONumber);
 707              		.loc 1 363 7 view .LVU108
 708 0040 5A6B     		ldr	r2, [r3, #52]
 709 0042 22EA0102 		bic	r2, r2, r1
 710 0046 5A63     		str	r2, [r3, #52]
 364:Drivers/STM32WBxx_HAL_Driver/Src/stm32wbxx_hal_pwr_ex.c ****       break;
 711              		.loc 1 364 7 view .LVU109
 346:Drivers/STM32WBxx_HAL_Driver/Src/stm32wbxx_hal_pwr_ex.c **** 
 712              		.loc 1 346 21 is_stmt 0 view .LVU110
 713 0048 0020     		movs	r0, #0
 714              	.LVL19:
 715              		.loc 1 364 7 view .LVU111
 716 004a 7047     		bx	lr
 717              	.LVL20:
 718              	.L69:
 365:Drivers/STM32WBxx_HAL_Driver/Src/stm32wbxx_hal_pwr_ex.c **** #if defined(GPIOD)
 366:Drivers/STM32WBxx_HAL_Driver/Src/stm32wbxx_hal_pwr_ex.c ****     case PWR_GPIO_D:
 367:Drivers/STM32WBxx_HAL_Driver/Src/stm32wbxx_hal_pwr_ex.c ****       SET_BIT(PWR->PUCRD, GPIONumber);
 719              		.loc 1 367 7 is_stmt 1 view .LVU112
 720 004c 114B     		ldr	r3, .L74
 721 004e 9A6B     		ldr	r2, [r3, #56]
 722 0050 0A43     		orrs	r2, r2, r1
 723 0052 9A63     		str	r2, [r3, #56]
 368:Drivers/STM32WBxx_HAL_Driver/Src/stm32wbxx_hal_pwr_ex.c ****       CLEAR_BIT(PWR->PDCRD, GPIONumber);
 724              		.loc 1 368 7 view .LVU113
 725 0054 DA6B     		ldr	r2, [r3, #60]
 726 0056 22EA0102 		bic	r2, r2, r1
 727 005a DA63     		str	r2, [r3, #60]
 369:Drivers/STM32WBxx_HAL_Driver/Src/stm32wbxx_hal_pwr_ex.c ****       break;
ARM GAS  C:\Users\Nathan\AppData\Local\Temp\ccvsgOlc.s 			page 20


 728              		.loc 1 369 7 view .LVU114
 346:Drivers/STM32WBxx_HAL_Driver/Src/stm32wbxx_hal_pwr_ex.c **** 
 729              		.loc 1 346 21 is_stmt 0 view .LVU115
 730 005c 0020     		movs	r0, #0
 731              	.LVL21:
 732              		.loc 1 369 7 view .LVU116
 733 005e 7047     		bx	lr
 734              	.LVL22:
 735              	.L68:
 370:Drivers/STM32WBxx_HAL_Driver/Src/stm32wbxx_hal_pwr_ex.c **** #endif /* GPIOD */
 371:Drivers/STM32WBxx_HAL_Driver/Src/stm32wbxx_hal_pwr_ex.c ****     case PWR_GPIO_E:
 372:Drivers/STM32WBxx_HAL_Driver/Src/stm32wbxx_hal_pwr_ex.c ****       SET_BIT(PWR->PUCRE, (GPIONumber & PWR_PORTE_AVAILABLE_PINS));
 736              		.loc 1 372 7 is_stmt 1 view .LVU117
 737 0060 0C4B     		ldr	r3, .L74
 738 0062 1A6C     		ldr	r2, [r3, #64]
 739 0064 01F01F01 		and	r1, r1, #31
 740              	.LVL23:
 741              		.loc 1 372 7 is_stmt 0 view .LVU118
 742 0068 0A43     		orrs	r2, r2, r1
 743 006a 1A64     		str	r2, [r3, #64]
 373:Drivers/STM32WBxx_HAL_Driver/Src/stm32wbxx_hal_pwr_ex.c ****       CLEAR_BIT(PWR->PDCRE, (GPIONumber & PWR_PORTE_AVAILABLE_PINS));
 744              		.loc 1 373 7 is_stmt 1 view .LVU119
 745 006c 5A6C     		ldr	r2, [r3, #68]
 746 006e 22EA0102 		bic	r2, r2, r1
 747 0072 5A64     		str	r2, [r3, #68]
 374:Drivers/STM32WBxx_HAL_Driver/Src/stm32wbxx_hal_pwr_ex.c ****       break;
 748              		.loc 1 374 7 view .LVU120
 346:Drivers/STM32WBxx_HAL_Driver/Src/stm32wbxx_hal_pwr_ex.c **** 
 749              		.loc 1 346 21 is_stmt 0 view .LVU121
 750 0074 0020     		movs	r0, #0
 751              	.LVL24:
 752              		.loc 1 374 7 view .LVU122
 753 0076 7047     		bx	lr
 754              	.LVL25:
 755              	.L66:
 375:Drivers/STM32WBxx_HAL_Driver/Src/stm32wbxx_hal_pwr_ex.c ****     case PWR_GPIO_H:
 376:Drivers/STM32WBxx_HAL_Driver/Src/stm32wbxx_hal_pwr_ex.c ****       SET_BIT(PWR->PUCRH, (GPIONumber & PWR_PORTH_AVAILABLE_PINS));
 756              		.loc 1 376 7 is_stmt 1 view .LVU123
 757 0078 064B     		ldr	r3, .L74
 758 007a 9A6D     		ldr	r2, [r3, #88]
 759 007c 01F00B01 		and	r1, r1, #11
 760              	.LVL26:
 761              		.loc 1 376 7 is_stmt 0 view .LVU124
 762 0080 0A43     		orrs	r2, r2, r1
 763 0082 9A65     		str	r2, [r3, #88]
 377:Drivers/STM32WBxx_HAL_Driver/Src/stm32wbxx_hal_pwr_ex.c ****       CLEAR_BIT(PWR->PDCRH, (GPIONumber & PWR_PORTH_AVAILABLE_PINS));
 764              		.loc 1 377 7 is_stmt 1 view .LVU125
 765 0084 DA6D     		ldr	r2, [r3, #92]
 766 0086 22EA0102 		bic	r2, r2, r1
 767 008a DA65     		str	r2, [r3, #92]
 378:Drivers/STM32WBxx_HAL_Driver/Src/stm32wbxx_hal_pwr_ex.c ****       break;
 768              		.loc 1 378 7 view .LVU126
 346:Drivers/STM32WBxx_HAL_Driver/Src/stm32wbxx_hal_pwr_ex.c **** 
 769              		.loc 1 346 21 is_stmt 0 view .LVU127
 770 008c 0020     		movs	r0, #0
 771              	.LVL27:
 772              		.loc 1 378 7 view .LVU128
ARM GAS  C:\Users\Nathan\AppData\Local\Temp\ccvsgOlc.s 			page 21


 773 008e 7047     		bx	lr
 774              	.LVL28:
 775              	.L73:
 351:Drivers/STM32WBxx_HAL_Driver/Src/stm32wbxx_hal_pwr_ex.c ****   {
 776              		.loc 1 351 3 view .LVU129
 777 0090 0120     		movs	r0, #1
 778              	.LVL29:
 379:Drivers/STM32WBxx_HAL_Driver/Src/stm32wbxx_hal_pwr_ex.c ****     default:
 380:Drivers/STM32WBxx_HAL_Driver/Src/stm32wbxx_hal_pwr_ex.c ****       status = HAL_ERROR;
 381:Drivers/STM32WBxx_HAL_Driver/Src/stm32wbxx_hal_pwr_ex.c ****       break;
 382:Drivers/STM32WBxx_HAL_Driver/Src/stm32wbxx_hal_pwr_ex.c ****   }
 383:Drivers/STM32WBxx_HAL_Driver/Src/stm32wbxx_hal_pwr_ex.c **** 
 384:Drivers/STM32WBxx_HAL_Driver/Src/stm32wbxx_hal_pwr_ex.c ****   return status;
 779              		.loc 1 384 3 is_stmt 1 view .LVU130
 385:Drivers/STM32WBxx_HAL_Driver/Src/stm32wbxx_hal_pwr_ex.c **** }
 780              		.loc 1 385 1 is_stmt 0 view .LVU131
 781 0092 7047     		bx	lr
 782              	.L75:
 783              		.align	2
 784              	.L74:
 785 0094 00040058 		.word	1476396032
 786              		.cfi_endproc
 787              	.LFE1122:
 789              		.section	.text.HAL_PWREx_DisableGPIOPullUp,"ax",%progbits
 790              		.align	1
 791              		.global	HAL_PWREx_DisableGPIOPullUp
 792              		.syntax unified
 793              		.thumb
 794              		.thumb_func
 796              	HAL_PWREx_DisableGPIOPullUp:
 797              	.LVL30:
 798              	.LFB1123:
 386:Drivers/STM32WBxx_HAL_Driver/Src/stm32wbxx_hal_pwr_ex.c **** 
 387:Drivers/STM32WBxx_HAL_Driver/Src/stm32wbxx_hal_pwr_ex.c **** /**
 388:Drivers/STM32WBxx_HAL_Driver/Src/stm32wbxx_hal_pwr_ex.c ****   * @brief Disable GPIO pull-up state in Standby mode and Shutdown modes.
 389:Drivers/STM32WBxx_HAL_Driver/Src/stm32wbxx_hal_pwr_ex.c ****   * @note  Reset the relevant PUy bits of PWR_PUCRx register used to configure the I/O
 390:Drivers/STM32WBxx_HAL_Driver/Src/stm32wbxx_hal_pwr_ex.c ****   *        in pull-up state in Standby and Shutdown modes.
 391:Drivers/STM32WBxx_HAL_Driver/Src/stm32wbxx_hal_pwr_ex.c ****   * @note  Even if a PUy bit to reset is reserved, the other PUy bits entered as input
 392:Drivers/STM32WBxx_HAL_Driver/Src/stm32wbxx_hal_pwr_ex.c ****   *        parameter at the same time are reset.
 393:Drivers/STM32WBxx_HAL_Driver/Src/stm32wbxx_hal_pwr_ex.c ****   * @param GPIO Specifies the IO port. This parameter can be PWR_GPIO_A, ..., PWR_GPIO_H
 394:Drivers/STM32WBxx_HAL_Driver/Src/stm32wbxx_hal_pwr_ex.c ****   *         to select the GPIO peripheral.
 395:Drivers/STM32WBxx_HAL_Driver/Src/stm32wbxx_hal_pwr_ex.c ****   * @param GPIONumber Specify the I/O pins numbers.
 396:Drivers/STM32WBxx_HAL_Driver/Src/stm32wbxx_hal_pwr_ex.c ****   *         This parameter can be one of the following values:
 397:Drivers/STM32WBxx_HAL_Driver/Src/stm32wbxx_hal_pwr_ex.c ****   *         PWR_GPIO_BIT_0, ..., PWR_GPIO_BIT_15 (except for PORTH where less
 398:Drivers/STM32WBxx_HAL_Driver/Src/stm32wbxx_hal_pwr_ex.c ****   *         I/O pins are available) or the logical OR of several of them to reset
 399:Drivers/STM32WBxx_HAL_Driver/Src/stm32wbxx_hal_pwr_ex.c ****   *         several bits for a given port in a single API call.
 400:Drivers/STM32WBxx_HAL_Driver/Src/stm32wbxx_hal_pwr_ex.c ****   * @retval HAL Status
 401:Drivers/STM32WBxx_HAL_Driver/Src/stm32wbxx_hal_pwr_ex.c ****   */
 402:Drivers/STM32WBxx_HAL_Driver/Src/stm32wbxx_hal_pwr_ex.c **** HAL_StatusTypeDef HAL_PWREx_DisableGPIOPullUp(uint32_t GPIO, uint32_t GPIONumber)
 403:Drivers/STM32WBxx_HAL_Driver/Src/stm32wbxx_hal_pwr_ex.c **** {
 799              		.loc 1 403 1 is_stmt 1 view -0
 800              		.cfi_startproc
 801              		@ args = 0, pretend = 0, frame = 0
 802              		@ frame_needed = 0, uses_anonymous_args = 0
 803              		@ link register save eliminated.
 404:Drivers/STM32WBxx_HAL_Driver/Src/stm32wbxx_hal_pwr_ex.c ****   HAL_StatusTypeDef status = HAL_OK;
 804              		.loc 1 404 3 view .LVU133
ARM GAS  C:\Users\Nathan\AppData\Local\Temp\ccvsgOlc.s 			page 22


 405:Drivers/STM32WBxx_HAL_Driver/Src/stm32wbxx_hal_pwr_ex.c **** 
 406:Drivers/STM32WBxx_HAL_Driver/Src/stm32wbxx_hal_pwr_ex.c ****   assert_param(IS_PWR_GPIO(GPIO));
 805              		.loc 1 406 3 view .LVU134
 407:Drivers/STM32WBxx_HAL_Driver/Src/stm32wbxx_hal_pwr_ex.c ****   assert_param(IS_PWR_GPIO_BIT_NUMBER(GPIONumber));
 806              		.loc 1 407 3 view .LVU135
 408:Drivers/STM32WBxx_HAL_Driver/Src/stm32wbxx_hal_pwr_ex.c **** 
 409:Drivers/STM32WBxx_HAL_Driver/Src/stm32wbxx_hal_pwr_ex.c ****   switch (GPIO)
 807              		.loc 1 409 3 view .LVU136
 808 0000 0728     		cmp	r0, #7
 809 0002 33D8     		bhi	.L85
 810 0004 DFE800F0 		tbb	[pc, r0]
 811              	.L79:
 812 0008 04       		.byte	(.L84-.L79)/2
 813 0009 0B       		.byte	(.L83-.L79)/2
 814 000a 12       		.byte	(.L82-.L79)/2
 815 000b 19       		.byte	(.L81-.L79)/2
 816 000c 20       		.byte	(.L80-.L79)/2
 817 000d 32       		.byte	(.L85-.L79)/2
 818 000e 32       		.byte	(.L85-.L79)/2
 819 000f 29       		.byte	(.L78-.L79)/2
 820              		.p2align 1
 821              	.L84:
 410:Drivers/STM32WBxx_HAL_Driver/Src/stm32wbxx_hal_pwr_ex.c ****   {
 411:Drivers/STM32WBxx_HAL_Driver/Src/stm32wbxx_hal_pwr_ex.c ****     case PWR_GPIO_A:
 412:Drivers/STM32WBxx_HAL_Driver/Src/stm32wbxx_hal_pwr_ex.c ****       CLEAR_BIT(PWR->PUCRA, GPIONumber);
 822              		.loc 1 412 7 view .LVU137
 823 0010 174A     		ldr	r2, .L86
 824 0012 136A     		ldr	r3, [r2, #32]
 825 0014 23EA0103 		bic	r3, r3, r1
 826 0018 1362     		str	r3, [r2, #32]
 413:Drivers/STM32WBxx_HAL_Driver/Src/stm32wbxx_hal_pwr_ex.c ****       break;
 827              		.loc 1 413 7 view .LVU138
 404:Drivers/STM32WBxx_HAL_Driver/Src/stm32wbxx_hal_pwr_ex.c **** 
 828              		.loc 1 404 21 is_stmt 0 view .LVU139
 829 001a 0020     		movs	r0, #0
 830              	.LVL31:
 831              		.loc 1 413 7 view .LVU140
 832 001c 7047     		bx	lr
 833              	.LVL32:
 834              	.L83:
 414:Drivers/STM32WBxx_HAL_Driver/Src/stm32wbxx_hal_pwr_ex.c ****     case PWR_GPIO_B:
 415:Drivers/STM32WBxx_HAL_Driver/Src/stm32wbxx_hal_pwr_ex.c ****       CLEAR_BIT(PWR->PUCRB, GPIONumber);
 835              		.loc 1 415 7 is_stmt 1 view .LVU141
 836 001e 144A     		ldr	r2, .L86
 837 0020 936A     		ldr	r3, [r2, #40]
 838 0022 23EA0103 		bic	r3, r3, r1
 839 0026 9362     		str	r3, [r2, #40]
 416:Drivers/STM32WBxx_HAL_Driver/Src/stm32wbxx_hal_pwr_ex.c ****       break;
 840              		.loc 1 416 7 view .LVU142
 404:Drivers/STM32WBxx_HAL_Driver/Src/stm32wbxx_hal_pwr_ex.c **** 
 841              		.loc 1 404 21 is_stmt 0 view .LVU143
 842 0028 0020     		movs	r0, #0
 843              	.LVL33:
 844              		.loc 1 416 7 view .LVU144
 845 002a 7047     		bx	lr
 846              	.LVL34:
 847              	.L82:
ARM GAS  C:\Users\Nathan\AppData\Local\Temp\ccvsgOlc.s 			page 23


 417:Drivers/STM32WBxx_HAL_Driver/Src/stm32wbxx_hal_pwr_ex.c ****     case PWR_GPIO_C:
 418:Drivers/STM32WBxx_HAL_Driver/Src/stm32wbxx_hal_pwr_ex.c ****       CLEAR_BIT(PWR->PUCRC, GPIONumber);
 848              		.loc 1 418 7 is_stmt 1 view .LVU145
 849 002c 104A     		ldr	r2, .L86
 850 002e 136B     		ldr	r3, [r2, #48]
 851 0030 23EA0103 		bic	r3, r3, r1
 852 0034 1363     		str	r3, [r2, #48]
 419:Drivers/STM32WBxx_HAL_Driver/Src/stm32wbxx_hal_pwr_ex.c ****       break;
 853              		.loc 1 419 7 view .LVU146
 404:Drivers/STM32WBxx_HAL_Driver/Src/stm32wbxx_hal_pwr_ex.c **** 
 854              		.loc 1 404 21 is_stmt 0 view .LVU147
 855 0036 0020     		movs	r0, #0
 856              	.LVL35:
 857              		.loc 1 419 7 view .LVU148
 858 0038 7047     		bx	lr
 859              	.LVL36:
 860              	.L81:
 420:Drivers/STM32WBxx_HAL_Driver/Src/stm32wbxx_hal_pwr_ex.c **** #if defined(GPIOD)
 421:Drivers/STM32WBxx_HAL_Driver/Src/stm32wbxx_hal_pwr_ex.c ****     case PWR_GPIO_D:
 422:Drivers/STM32WBxx_HAL_Driver/Src/stm32wbxx_hal_pwr_ex.c ****       CLEAR_BIT(PWR->PUCRD, GPIONumber);
 861              		.loc 1 422 7 is_stmt 1 view .LVU149
 862 003a 0D4A     		ldr	r2, .L86
 863 003c 936B     		ldr	r3, [r2, #56]
 864 003e 23EA0103 		bic	r3, r3, r1
 865 0042 9363     		str	r3, [r2, #56]
 423:Drivers/STM32WBxx_HAL_Driver/Src/stm32wbxx_hal_pwr_ex.c ****       break;
 866              		.loc 1 423 7 view .LVU150
 404:Drivers/STM32WBxx_HAL_Driver/Src/stm32wbxx_hal_pwr_ex.c **** 
 867              		.loc 1 404 21 is_stmt 0 view .LVU151
 868 0044 0020     		movs	r0, #0
 869              	.LVL37:
 870              		.loc 1 423 7 view .LVU152
 871 0046 7047     		bx	lr
 872              	.LVL38:
 873              	.L80:
 424:Drivers/STM32WBxx_HAL_Driver/Src/stm32wbxx_hal_pwr_ex.c **** #endif /* GPIOD */
 425:Drivers/STM32WBxx_HAL_Driver/Src/stm32wbxx_hal_pwr_ex.c ****     case PWR_GPIO_E:
 426:Drivers/STM32WBxx_HAL_Driver/Src/stm32wbxx_hal_pwr_ex.c ****       CLEAR_BIT(PWR->PUCRE, (GPIONumber & PWR_PORTE_AVAILABLE_PINS));
 874              		.loc 1 426 7 is_stmt 1 view .LVU153
 875 0048 094A     		ldr	r2, .L86
 876 004a 136C     		ldr	r3, [r2, #64]
 877 004c 01F01F01 		and	r1, r1, #31
 878              	.LVL39:
 879              		.loc 1 426 7 is_stmt 0 view .LVU154
 880 0050 23EA0101 		bic	r1, r3, r1
 881 0054 1164     		str	r1, [r2, #64]
 427:Drivers/STM32WBxx_HAL_Driver/Src/stm32wbxx_hal_pwr_ex.c ****       break;
 882              		.loc 1 427 7 is_stmt 1 view .LVU155
 404:Drivers/STM32WBxx_HAL_Driver/Src/stm32wbxx_hal_pwr_ex.c **** 
 883              		.loc 1 404 21 is_stmt 0 view .LVU156
 884 0056 0020     		movs	r0, #0
 885              	.LVL40:
 886              		.loc 1 427 7 view .LVU157
 887 0058 7047     		bx	lr
 888              	.LVL41:
 889              	.L78:
 428:Drivers/STM32WBxx_HAL_Driver/Src/stm32wbxx_hal_pwr_ex.c ****     case PWR_GPIO_H:
ARM GAS  C:\Users\Nathan\AppData\Local\Temp\ccvsgOlc.s 			page 24


 429:Drivers/STM32WBxx_HAL_Driver/Src/stm32wbxx_hal_pwr_ex.c ****       CLEAR_BIT(PWR->PUCRH, (GPIONumber & PWR_PORTH_AVAILABLE_PINS));
 890              		.loc 1 429 7 is_stmt 1 view .LVU158
 891 005a 054A     		ldr	r2, .L86
 892 005c 936D     		ldr	r3, [r2, #88]
 893 005e 01F00B01 		and	r1, r1, #11
 894              	.LVL42:
 895              		.loc 1 429 7 is_stmt 0 view .LVU159
 896 0062 23EA0103 		bic	r3, r3, r1
 897 0066 9365     		str	r3, [r2, #88]
 430:Drivers/STM32WBxx_HAL_Driver/Src/stm32wbxx_hal_pwr_ex.c ****       break;
 898              		.loc 1 430 7 is_stmt 1 view .LVU160
 404:Drivers/STM32WBxx_HAL_Driver/Src/stm32wbxx_hal_pwr_ex.c **** 
 899              		.loc 1 404 21 is_stmt 0 view .LVU161
 900 0068 0020     		movs	r0, #0
 901              	.LVL43:
 902              		.loc 1 430 7 view .LVU162
 903 006a 7047     		bx	lr
 904              	.LVL44:
 905              	.L85:
 409:Drivers/STM32WBxx_HAL_Driver/Src/stm32wbxx_hal_pwr_ex.c ****   {
 906              		.loc 1 409 3 view .LVU163
 907 006c 0120     		movs	r0, #1
 908              	.LVL45:
 431:Drivers/STM32WBxx_HAL_Driver/Src/stm32wbxx_hal_pwr_ex.c ****     default:
 432:Drivers/STM32WBxx_HAL_Driver/Src/stm32wbxx_hal_pwr_ex.c ****       status = HAL_ERROR;
 433:Drivers/STM32WBxx_HAL_Driver/Src/stm32wbxx_hal_pwr_ex.c ****       break;
 434:Drivers/STM32WBxx_HAL_Driver/Src/stm32wbxx_hal_pwr_ex.c ****   }
 435:Drivers/STM32WBxx_HAL_Driver/Src/stm32wbxx_hal_pwr_ex.c **** 
 436:Drivers/STM32WBxx_HAL_Driver/Src/stm32wbxx_hal_pwr_ex.c ****   return status;
 909              		.loc 1 436 3 is_stmt 1 view .LVU164
 437:Drivers/STM32WBxx_HAL_Driver/Src/stm32wbxx_hal_pwr_ex.c **** }
 910              		.loc 1 437 1 is_stmt 0 view .LVU165
 911 006e 7047     		bx	lr
 912              	.L87:
 913              		.align	2
 914              	.L86:
 915 0070 00040058 		.word	1476396032
 916              		.cfi_endproc
 917              	.LFE1123:
 919              		.section	.text.HAL_PWREx_EnableGPIOPullDown,"ax",%progbits
 920              		.align	1
 921              		.global	HAL_PWREx_EnableGPIOPullDown
 922              		.syntax unified
 923              		.thumb
 924              		.thumb_func
 926              	HAL_PWREx_EnableGPIOPullDown:
 927              	.LVL46:
 928              	.LFB1124:
 438:Drivers/STM32WBxx_HAL_Driver/Src/stm32wbxx_hal_pwr_ex.c **** 
 439:Drivers/STM32WBxx_HAL_Driver/Src/stm32wbxx_hal_pwr_ex.c **** 
 440:Drivers/STM32WBxx_HAL_Driver/Src/stm32wbxx_hal_pwr_ex.c **** 
 441:Drivers/STM32WBxx_HAL_Driver/Src/stm32wbxx_hal_pwr_ex.c **** /**
 442:Drivers/STM32WBxx_HAL_Driver/Src/stm32wbxx_hal_pwr_ex.c ****   * @brief Enable GPIO pull-down state in Standby and Shutdown modes.
 443:Drivers/STM32WBxx_HAL_Driver/Src/stm32wbxx_hal_pwr_ex.c ****   * @note  Set the relevant PDy bits of PWR_PDCRx register to configure the I/O in
 444:Drivers/STM32WBxx_HAL_Driver/Src/stm32wbxx_hal_pwr_ex.c ****   *        pull-down state in Standby and Shutdown modes.
 445:Drivers/STM32WBxx_HAL_Driver/Src/stm32wbxx_hal_pwr_ex.c ****   * @note  This state is effective in Standby and Shutdown modes only if APC bit
 446:Drivers/STM32WBxx_HAL_Driver/Src/stm32wbxx_hal_pwr_ex.c ****   *        is set through HAL_PWREx_EnablePullUpPullDownConfig() API.
ARM GAS  C:\Users\Nathan\AppData\Local\Temp\ccvsgOlc.s 			page 25


 447:Drivers/STM32WBxx_HAL_Driver/Src/stm32wbxx_hal_pwr_ex.c ****   * @note  The configuration is lost when exiting the Shutdown mode due to the
 448:Drivers/STM32WBxx_HAL_Driver/Src/stm32wbxx_hal_pwr_ex.c ****   *        power-on reset, maintained when exiting the Standby mode.
 449:Drivers/STM32WBxx_HAL_Driver/Src/stm32wbxx_hal_pwr_ex.c ****   * @note  To avoid any conflict at Standby and Shutdown modes exits, the corresponding
 450:Drivers/STM32WBxx_HAL_Driver/Src/stm32wbxx_hal_pwr_ex.c ****   *        PUy bit of PWR_PUCRx register is cleared unless it is reserved.
 451:Drivers/STM32WBxx_HAL_Driver/Src/stm32wbxx_hal_pwr_ex.c ****   * @note  Even if a PDy bit to set is reserved, the other PDy bits entered as input
 452:Drivers/STM32WBxx_HAL_Driver/Src/stm32wbxx_hal_pwr_ex.c ****   *        parameter at the same time are set.
 453:Drivers/STM32WBxx_HAL_Driver/Src/stm32wbxx_hal_pwr_ex.c ****   * @param GPIO Specify the IO port. This parameter can be PWR_GPIO_A..PWR_GPIO_H
 454:Drivers/STM32WBxx_HAL_Driver/Src/stm32wbxx_hal_pwr_ex.c ****   *         to select the GPIO peripheral.
 455:Drivers/STM32WBxx_HAL_Driver/Src/stm32wbxx_hal_pwr_ex.c ****   * @param GPIONumber Specify the I/O pins numbers.
 456:Drivers/STM32WBxx_HAL_Driver/Src/stm32wbxx_hal_pwr_ex.c ****   *         This parameter can be one of the following values:
 457:Drivers/STM32WBxx_HAL_Driver/Src/stm32wbxx_hal_pwr_ex.c ****   *         PWR_GPIO_BIT_0, ..., PWR_GPIO_BIT_15 (except for PORTH where less
 458:Drivers/STM32WBxx_HAL_Driver/Src/stm32wbxx_hal_pwr_ex.c ****   *         I/O pins are available) or the logical OR of several of them to set
 459:Drivers/STM32WBxx_HAL_Driver/Src/stm32wbxx_hal_pwr_ex.c ****   *         several bits for a given port in a single API call.
 460:Drivers/STM32WBxx_HAL_Driver/Src/stm32wbxx_hal_pwr_ex.c ****   * @retval HAL Status
 461:Drivers/STM32WBxx_HAL_Driver/Src/stm32wbxx_hal_pwr_ex.c ****   */
 462:Drivers/STM32WBxx_HAL_Driver/Src/stm32wbxx_hal_pwr_ex.c **** HAL_StatusTypeDef HAL_PWREx_EnableGPIOPullDown(uint32_t GPIO, uint32_t GPIONumber)
 463:Drivers/STM32WBxx_HAL_Driver/Src/stm32wbxx_hal_pwr_ex.c **** {
 929              		.loc 1 463 1 is_stmt 1 view -0
 930              		.cfi_startproc
 931              		@ args = 0, pretend = 0, frame = 0
 932              		@ frame_needed = 0, uses_anonymous_args = 0
 933              		@ link register save eliminated.
 464:Drivers/STM32WBxx_HAL_Driver/Src/stm32wbxx_hal_pwr_ex.c ****   HAL_StatusTypeDef status = HAL_OK;
 934              		.loc 1 464 3 view .LVU167
 465:Drivers/STM32WBxx_HAL_Driver/Src/stm32wbxx_hal_pwr_ex.c **** 
 466:Drivers/STM32WBxx_HAL_Driver/Src/stm32wbxx_hal_pwr_ex.c ****   assert_param(IS_PWR_GPIO(GPIO));
 935              		.loc 1 466 3 view .LVU168
 467:Drivers/STM32WBxx_HAL_Driver/Src/stm32wbxx_hal_pwr_ex.c ****   assert_param(IS_PWR_GPIO_BIT_NUMBER(GPIONumber));
 936              		.loc 1 467 3 view .LVU169
 468:Drivers/STM32WBxx_HAL_Driver/Src/stm32wbxx_hal_pwr_ex.c **** 
 469:Drivers/STM32WBxx_HAL_Driver/Src/stm32wbxx_hal_pwr_ex.c ****   switch (GPIO)
 937              		.loc 1 469 3 view .LVU170
 938 0000 0728     		cmp	r0, #7
 939 0002 45D8     		bhi	.L97
 940 0004 DFE800F0 		tbb	[pc, r0]
 941              	.L91:
 942 0008 04       		.byte	(.L96-.L91)/2
 943 0009 0E       		.byte	(.L95-.L91)/2
 944 000a 18       		.byte	(.L94-.L91)/2
 945 000b 22       		.byte	(.L93-.L91)/2
 946 000c 2C       		.byte	(.L92-.L91)/2
 947 000d 44       		.byte	(.L97-.L91)/2
 948 000e 44       		.byte	(.L97-.L91)/2
 949 000f 38       		.byte	(.L90-.L91)/2
 950              		.p2align 1
 951              	.L96:
 470:Drivers/STM32WBxx_HAL_Driver/Src/stm32wbxx_hal_pwr_ex.c ****   {
 471:Drivers/STM32WBxx_HAL_Driver/Src/stm32wbxx_hal_pwr_ex.c ****     case PWR_GPIO_A:
 472:Drivers/STM32WBxx_HAL_Driver/Src/stm32wbxx_hal_pwr_ex.c ****       SET_BIT(PWR->PDCRA, GPIONumber);
 952              		.loc 1 472 7 view .LVU171
 953 0010 204B     		ldr	r3, .L98
 954 0012 5A6A     		ldr	r2, [r3, #36]
 955 0014 0A43     		orrs	r2, r2, r1
 956 0016 5A62     		str	r2, [r3, #36]
 473:Drivers/STM32WBxx_HAL_Driver/Src/stm32wbxx_hal_pwr_ex.c ****       CLEAR_BIT(PWR->PUCRA, GPIONumber);
 957              		.loc 1 473 7 view .LVU172
 958 0018 1A6A     		ldr	r2, [r3, #32]
ARM GAS  C:\Users\Nathan\AppData\Local\Temp\ccvsgOlc.s 			page 26


 959 001a 22EA0102 		bic	r2, r2, r1
 960 001e 1A62     		str	r2, [r3, #32]
 474:Drivers/STM32WBxx_HAL_Driver/Src/stm32wbxx_hal_pwr_ex.c ****       break;
 961              		.loc 1 474 7 view .LVU173
 464:Drivers/STM32WBxx_HAL_Driver/Src/stm32wbxx_hal_pwr_ex.c **** 
 962              		.loc 1 464 21 is_stmt 0 view .LVU174
 963 0020 0020     		movs	r0, #0
 964              	.LVL47:
 965              		.loc 1 474 7 view .LVU175
 966 0022 7047     		bx	lr
 967              	.LVL48:
 968              	.L95:
 475:Drivers/STM32WBxx_HAL_Driver/Src/stm32wbxx_hal_pwr_ex.c ****     case PWR_GPIO_B:
 476:Drivers/STM32WBxx_HAL_Driver/Src/stm32wbxx_hal_pwr_ex.c ****       SET_BIT(PWR->PDCRB, GPIONumber);
 969              		.loc 1 476 7 is_stmt 1 view .LVU176
 970 0024 1B4B     		ldr	r3, .L98
 971 0026 DA6A     		ldr	r2, [r3, #44]
 972 0028 0A43     		orrs	r2, r2, r1
 973 002a DA62     		str	r2, [r3, #44]
 477:Drivers/STM32WBxx_HAL_Driver/Src/stm32wbxx_hal_pwr_ex.c ****       CLEAR_BIT(PWR->PUCRB, GPIONumber);
 974              		.loc 1 477 7 view .LVU177
 975 002c 9A6A     		ldr	r2, [r3, #40]
 976 002e 22EA0102 		bic	r2, r2, r1
 977 0032 9A62     		str	r2, [r3, #40]
 478:Drivers/STM32WBxx_HAL_Driver/Src/stm32wbxx_hal_pwr_ex.c ****       break;
 978              		.loc 1 478 7 view .LVU178
 464:Drivers/STM32WBxx_HAL_Driver/Src/stm32wbxx_hal_pwr_ex.c **** 
 979              		.loc 1 464 21 is_stmt 0 view .LVU179
 980 0034 0020     		movs	r0, #0
 981              	.LVL49:
 982              		.loc 1 478 7 view .LVU180
 983 0036 7047     		bx	lr
 984              	.LVL50:
 985              	.L94:
 479:Drivers/STM32WBxx_HAL_Driver/Src/stm32wbxx_hal_pwr_ex.c ****     case PWR_GPIO_C:
 480:Drivers/STM32WBxx_HAL_Driver/Src/stm32wbxx_hal_pwr_ex.c ****       SET_BIT(PWR->PDCRC, GPIONumber);
 986              		.loc 1 480 7 is_stmt 1 view .LVU181
 987 0038 164B     		ldr	r3, .L98
 988 003a 5A6B     		ldr	r2, [r3, #52]
 989 003c 0A43     		orrs	r2, r2, r1
 990 003e 5A63     		str	r2, [r3, #52]
 481:Drivers/STM32WBxx_HAL_Driver/Src/stm32wbxx_hal_pwr_ex.c ****       CLEAR_BIT(PWR->PUCRC, GPIONumber);
 991              		.loc 1 481 7 view .LVU182
 992 0040 1A6B     		ldr	r2, [r3, #48]
 993 0042 22EA0102 		bic	r2, r2, r1
 994 0046 1A63     		str	r2, [r3, #48]
 482:Drivers/STM32WBxx_HAL_Driver/Src/stm32wbxx_hal_pwr_ex.c ****       break;
 995              		.loc 1 482 7 view .LVU183
 464:Drivers/STM32WBxx_HAL_Driver/Src/stm32wbxx_hal_pwr_ex.c **** 
 996              		.loc 1 464 21 is_stmt 0 view .LVU184
 997 0048 0020     		movs	r0, #0
 998              	.LVL51:
 999              		.loc 1 482 7 view .LVU185
 1000 004a 7047     		bx	lr
 1001              	.LVL52:
 1002              	.L93:
 483:Drivers/STM32WBxx_HAL_Driver/Src/stm32wbxx_hal_pwr_ex.c **** #if defined(GPIOD)
ARM GAS  C:\Users\Nathan\AppData\Local\Temp\ccvsgOlc.s 			page 27


 484:Drivers/STM32WBxx_HAL_Driver/Src/stm32wbxx_hal_pwr_ex.c ****     case PWR_GPIO_D:
 485:Drivers/STM32WBxx_HAL_Driver/Src/stm32wbxx_hal_pwr_ex.c ****       SET_BIT(PWR->PDCRD, GPIONumber);
 1003              		.loc 1 485 7 is_stmt 1 view .LVU186
 1004 004c 114B     		ldr	r3, .L98
 1005 004e DA6B     		ldr	r2, [r3, #60]
 1006 0050 0A43     		orrs	r2, r2, r1
 1007 0052 DA63     		str	r2, [r3, #60]
 486:Drivers/STM32WBxx_HAL_Driver/Src/stm32wbxx_hal_pwr_ex.c ****       CLEAR_BIT(PWR->PUCRD, GPIONumber);
 1008              		.loc 1 486 7 view .LVU187
 1009 0054 9A6B     		ldr	r2, [r3, #56]
 1010 0056 22EA0102 		bic	r2, r2, r1
 1011 005a 9A63     		str	r2, [r3, #56]
 487:Drivers/STM32WBxx_HAL_Driver/Src/stm32wbxx_hal_pwr_ex.c ****       break;
 1012              		.loc 1 487 7 view .LVU188
 464:Drivers/STM32WBxx_HAL_Driver/Src/stm32wbxx_hal_pwr_ex.c **** 
 1013              		.loc 1 464 21 is_stmt 0 view .LVU189
 1014 005c 0020     		movs	r0, #0
 1015              	.LVL53:
 1016              		.loc 1 487 7 view .LVU190
 1017 005e 7047     		bx	lr
 1018              	.LVL54:
 1019              	.L92:
 488:Drivers/STM32WBxx_HAL_Driver/Src/stm32wbxx_hal_pwr_ex.c **** #endif /* GPIOD */
 489:Drivers/STM32WBxx_HAL_Driver/Src/stm32wbxx_hal_pwr_ex.c ****     case PWR_GPIO_E:
 490:Drivers/STM32WBxx_HAL_Driver/Src/stm32wbxx_hal_pwr_ex.c ****       SET_BIT(PWR->PDCRE, (GPIONumber & PWR_PORTE_AVAILABLE_PINS));
 1020              		.loc 1 490 7 is_stmt 1 view .LVU191
 1021 0060 0C4B     		ldr	r3, .L98
 1022 0062 5A6C     		ldr	r2, [r3, #68]
 1023 0064 01F01F01 		and	r1, r1, #31
 1024              	.LVL55:
 1025              		.loc 1 490 7 is_stmt 0 view .LVU192
 1026 0068 0A43     		orrs	r2, r2, r1
 1027 006a 5A64     		str	r2, [r3, #68]
 491:Drivers/STM32WBxx_HAL_Driver/Src/stm32wbxx_hal_pwr_ex.c ****       CLEAR_BIT(PWR->PUCRE, (GPIONumber & PWR_PORTE_AVAILABLE_PINS));
 1028              		.loc 1 491 7 is_stmt 1 view .LVU193
 1029 006c 1A6C     		ldr	r2, [r3, #64]
 1030 006e 22EA0102 		bic	r2, r2, r1
 1031 0072 1A64     		str	r2, [r3, #64]
 492:Drivers/STM32WBxx_HAL_Driver/Src/stm32wbxx_hal_pwr_ex.c ****       break;
 1032              		.loc 1 492 7 view .LVU194
 464:Drivers/STM32WBxx_HAL_Driver/Src/stm32wbxx_hal_pwr_ex.c **** 
 1033              		.loc 1 464 21 is_stmt 0 view .LVU195
 1034 0074 0020     		movs	r0, #0
 1035              	.LVL56:
 1036              		.loc 1 492 7 view .LVU196
 1037 0076 7047     		bx	lr
 1038              	.LVL57:
 1039              	.L90:
 493:Drivers/STM32WBxx_HAL_Driver/Src/stm32wbxx_hal_pwr_ex.c ****     case PWR_GPIO_H:
 494:Drivers/STM32WBxx_HAL_Driver/Src/stm32wbxx_hal_pwr_ex.c ****       SET_BIT(PWR->PDCRH, (GPIONumber & PWR_PORTH_AVAILABLE_PINS));
 1040              		.loc 1 494 7 is_stmt 1 view .LVU197
 1041 0078 064B     		ldr	r3, .L98
 1042 007a DA6D     		ldr	r2, [r3, #92]
 1043 007c 01F00B01 		and	r1, r1, #11
 1044              	.LVL58:
 1045              		.loc 1 494 7 is_stmt 0 view .LVU198
 1046 0080 0A43     		orrs	r2, r2, r1
ARM GAS  C:\Users\Nathan\AppData\Local\Temp\ccvsgOlc.s 			page 28


 1047 0082 DA65     		str	r2, [r3, #92]
 495:Drivers/STM32WBxx_HAL_Driver/Src/stm32wbxx_hal_pwr_ex.c ****       CLEAR_BIT(PWR->PUCRH, (GPIONumber & PWR_PORTH_AVAILABLE_PINS));
 1048              		.loc 1 495 7 is_stmt 1 view .LVU199
 1049 0084 9A6D     		ldr	r2, [r3, #88]
 1050 0086 22EA0102 		bic	r2, r2, r1
 1051 008a 9A65     		str	r2, [r3, #88]
 496:Drivers/STM32WBxx_HAL_Driver/Src/stm32wbxx_hal_pwr_ex.c ****       break;
 1052              		.loc 1 496 7 view .LVU200
 464:Drivers/STM32WBxx_HAL_Driver/Src/stm32wbxx_hal_pwr_ex.c **** 
 1053              		.loc 1 464 21 is_stmt 0 view .LVU201
 1054 008c 0020     		movs	r0, #0
 1055              	.LVL59:
 1056              		.loc 1 496 7 view .LVU202
 1057 008e 7047     		bx	lr
 1058              	.LVL60:
 1059              	.L97:
 469:Drivers/STM32WBxx_HAL_Driver/Src/stm32wbxx_hal_pwr_ex.c ****   {
 1060              		.loc 1 469 3 view .LVU203
 1061 0090 0120     		movs	r0, #1
 1062              	.LVL61:
 497:Drivers/STM32WBxx_HAL_Driver/Src/stm32wbxx_hal_pwr_ex.c ****     default:
 498:Drivers/STM32WBxx_HAL_Driver/Src/stm32wbxx_hal_pwr_ex.c ****       status = HAL_ERROR;
 499:Drivers/STM32WBxx_HAL_Driver/Src/stm32wbxx_hal_pwr_ex.c ****       break;
 500:Drivers/STM32WBxx_HAL_Driver/Src/stm32wbxx_hal_pwr_ex.c ****   }
 501:Drivers/STM32WBxx_HAL_Driver/Src/stm32wbxx_hal_pwr_ex.c **** 
 502:Drivers/STM32WBxx_HAL_Driver/Src/stm32wbxx_hal_pwr_ex.c ****   return status;
 1063              		.loc 1 502 3 is_stmt 1 view .LVU204
 503:Drivers/STM32WBxx_HAL_Driver/Src/stm32wbxx_hal_pwr_ex.c **** }
 1064              		.loc 1 503 1 is_stmt 0 view .LVU205
 1065 0092 7047     		bx	lr
 1066              	.L99:
 1067              		.align	2
 1068              	.L98:
 1069 0094 00040058 		.word	1476396032
 1070              		.cfi_endproc
 1071              	.LFE1124:
 1073              		.section	.text.HAL_PWREx_DisableGPIOPullDown,"ax",%progbits
 1074              		.align	1
 1075              		.global	HAL_PWREx_DisableGPIOPullDown
 1076              		.syntax unified
 1077              		.thumb
 1078              		.thumb_func
 1080              	HAL_PWREx_DisableGPIOPullDown:
 1081              	.LVL62:
 1082              	.LFB1125:
 504:Drivers/STM32WBxx_HAL_Driver/Src/stm32wbxx_hal_pwr_ex.c **** 
 505:Drivers/STM32WBxx_HAL_Driver/Src/stm32wbxx_hal_pwr_ex.c **** /**
 506:Drivers/STM32WBxx_HAL_Driver/Src/stm32wbxx_hal_pwr_ex.c ****   * @brief Disable GPIO pull-down state in Standby and Shutdown modes.
 507:Drivers/STM32WBxx_HAL_Driver/Src/stm32wbxx_hal_pwr_ex.c ****   * @note  Reset the relevant PDy bits of PWR_PDCRx register used to configure the I/O
 508:Drivers/STM32WBxx_HAL_Driver/Src/stm32wbxx_hal_pwr_ex.c ****   *        in pull-down state in Standby and Shutdown modes.
 509:Drivers/STM32WBxx_HAL_Driver/Src/stm32wbxx_hal_pwr_ex.c ****   * @note  Even if a PDy bit to reset is reserved, the other PDy bits entered as input
 510:Drivers/STM32WBxx_HAL_Driver/Src/stm32wbxx_hal_pwr_ex.c ****   *        parameter at the same time are reset.
 511:Drivers/STM32WBxx_HAL_Driver/Src/stm32wbxx_hal_pwr_ex.c ****   * @param GPIO Specifies the IO port. This parameter can be PWR_GPIO_A..PWR_GPIO_H
 512:Drivers/STM32WBxx_HAL_Driver/Src/stm32wbxx_hal_pwr_ex.c ****   *         to select the GPIO peripheral.
 513:Drivers/STM32WBxx_HAL_Driver/Src/stm32wbxx_hal_pwr_ex.c ****   * @param GPIONumber Specify the I/O pins numbers.
 514:Drivers/STM32WBxx_HAL_Driver/Src/stm32wbxx_hal_pwr_ex.c ****   *         This parameter can be one of the following values:
 515:Drivers/STM32WBxx_HAL_Driver/Src/stm32wbxx_hal_pwr_ex.c ****   *         PWR_GPIO_BIT_0, ..., PWR_GPIO_BIT_15 (except for PORTH where less
ARM GAS  C:\Users\Nathan\AppData\Local\Temp\ccvsgOlc.s 			page 29


 516:Drivers/STM32WBxx_HAL_Driver/Src/stm32wbxx_hal_pwr_ex.c ****   *         I/O pins are available) or the logical OR of several of them to reset
 517:Drivers/STM32WBxx_HAL_Driver/Src/stm32wbxx_hal_pwr_ex.c ****   *         several bits for a given port in a single API call.
 518:Drivers/STM32WBxx_HAL_Driver/Src/stm32wbxx_hal_pwr_ex.c ****   * @retval HAL Status
 519:Drivers/STM32WBxx_HAL_Driver/Src/stm32wbxx_hal_pwr_ex.c ****   */
 520:Drivers/STM32WBxx_HAL_Driver/Src/stm32wbxx_hal_pwr_ex.c **** HAL_StatusTypeDef HAL_PWREx_DisableGPIOPullDown(uint32_t GPIO, uint32_t GPIONumber)
 521:Drivers/STM32WBxx_HAL_Driver/Src/stm32wbxx_hal_pwr_ex.c **** {
 1083              		.loc 1 521 1 is_stmt 1 view -0
 1084              		.cfi_startproc
 1085              		@ args = 0, pretend = 0, frame = 0
 1086              		@ frame_needed = 0, uses_anonymous_args = 0
 1087              		@ link register save eliminated.
 522:Drivers/STM32WBxx_HAL_Driver/Src/stm32wbxx_hal_pwr_ex.c ****   HAL_StatusTypeDef status = HAL_OK;
 1088              		.loc 1 522 3 view .LVU207
 523:Drivers/STM32WBxx_HAL_Driver/Src/stm32wbxx_hal_pwr_ex.c **** 
 524:Drivers/STM32WBxx_HAL_Driver/Src/stm32wbxx_hal_pwr_ex.c ****   assert_param(IS_PWR_GPIO(GPIO));
 1089              		.loc 1 524 3 view .LVU208
 525:Drivers/STM32WBxx_HAL_Driver/Src/stm32wbxx_hal_pwr_ex.c ****   assert_param(IS_PWR_GPIO_BIT_NUMBER(GPIONumber));
 1090              		.loc 1 525 3 view .LVU209
 526:Drivers/STM32WBxx_HAL_Driver/Src/stm32wbxx_hal_pwr_ex.c **** 
 527:Drivers/STM32WBxx_HAL_Driver/Src/stm32wbxx_hal_pwr_ex.c ****   switch (GPIO)
 1091              		.loc 1 527 3 view .LVU210
 1092 0000 0728     		cmp	r0, #7
 1093 0002 33D8     		bhi	.L109
 1094 0004 DFE800F0 		tbb	[pc, r0]
 1095              	.L103:
 1096 0008 04       		.byte	(.L108-.L103)/2
 1097 0009 0B       		.byte	(.L107-.L103)/2
 1098 000a 12       		.byte	(.L106-.L103)/2
 1099 000b 19       		.byte	(.L105-.L103)/2
 1100 000c 20       		.byte	(.L104-.L103)/2
 1101 000d 32       		.byte	(.L109-.L103)/2
 1102 000e 32       		.byte	(.L109-.L103)/2
 1103 000f 29       		.byte	(.L102-.L103)/2
 1104              		.p2align 1
 1105              	.L108:
 528:Drivers/STM32WBxx_HAL_Driver/Src/stm32wbxx_hal_pwr_ex.c ****   {
 529:Drivers/STM32WBxx_HAL_Driver/Src/stm32wbxx_hal_pwr_ex.c ****     case PWR_GPIO_A:
 530:Drivers/STM32WBxx_HAL_Driver/Src/stm32wbxx_hal_pwr_ex.c ****       CLEAR_BIT(PWR->PDCRA, GPIONumber);
 1106              		.loc 1 530 7 view .LVU211
 1107 0010 174A     		ldr	r2, .L110
 1108 0012 536A     		ldr	r3, [r2, #36]
 1109 0014 23EA0103 		bic	r3, r3, r1
 1110 0018 5362     		str	r3, [r2, #36]
 531:Drivers/STM32WBxx_HAL_Driver/Src/stm32wbxx_hal_pwr_ex.c ****       break;
 1111              		.loc 1 531 7 view .LVU212
 522:Drivers/STM32WBxx_HAL_Driver/Src/stm32wbxx_hal_pwr_ex.c **** 
 1112              		.loc 1 522 21 is_stmt 0 view .LVU213
 1113 001a 0020     		movs	r0, #0
 1114              	.LVL63:
 1115              		.loc 1 531 7 view .LVU214
 1116 001c 7047     		bx	lr
 1117              	.LVL64:
 1118              	.L107:
 532:Drivers/STM32WBxx_HAL_Driver/Src/stm32wbxx_hal_pwr_ex.c ****     case PWR_GPIO_B:
 533:Drivers/STM32WBxx_HAL_Driver/Src/stm32wbxx_hal_pwr_ex.c ****       CLEAR_BIT(PWR->PDCRB, GPIONumber);
 1119              		.loc 1 533 7 is_stmt 1 view .LVU215
 1120 001e 144A     		ldr	r2, .L110
ARM GAS  C:\Users\Nathan\AppData\Local\Temp\ccvsgOlc.s 			page 30


 1121 0020 D36A     		ldr	r3, [r2, #44]
 1122 0022 23EA0103 		bic	r3, r3, r1
 1123 0026 D362     		str	r3, [r2, #44]
 534:Drivers/STM32WBxx_HAL_Driver/Src/stm32wbxx_hal_pwr_ex.c ****       break;
 1124              		.loc 1 534 7 view .LVU216
 522:Drivers/STM32WBxx_HAL_Driver/Src/stm32wbxx_hal_pwr_ex.c **** 
 1125              		.loc 1 522 21 is_stmt 0 view .LVU217
 1126 0028 0020     		movs	r0, #0
 1127              	.LVL65:
 1128              		.loc 1 534 7 view .LVU218
 1129 002a 7047     		bx	lr
 1130              	.LVL66:
 1131              	.L106:
 535:Drivers/STM32WBxx_HAL_Driver/Src/stm32wbxx_hal_pwr_ex.c ****     case PWR_GPIO_C:
 536:Drivers/STM32WBxx_HAL_Driver/Src/stm32wbxx_hal_pwr_ex.c ****       CLEAR_BIT(PWR->PDCRC, GPIONumber);
 1132              		.loc 1 536 7 is_stmt 1 view .LVU219
 1133 002c 104A     		ldr	r2, .L110
 1134 002e 536B     		ldr	r3, [r2, #52]
 1135 0030 23EA0103 		bic	r3, r3, r1
 1136 0034 5363     		str	r3, [r2, #52]
 537:Drivers/STM32WBxx_HAL_Driver/Src/stm32wbxx_hal_pwr_ex.c ****       break;
 1137              		.loc 1 537 7 view .LVU220
 522:Drivers/STM32WBxx_HAL_Driver/Src/stm32wbxx_hal_pwr_ex.c **** 
 1138              		.loc 1 522 21 is_stmt 0 view .LVU221
 1139 0036 0020     		movs	r0, #0
 1140              	.LVL67:
 1141              		.loc 1 537 7 view .LVU222
 1142 0038 7047     		bx	lr
 1143              	.LVL68:
 1144              	.L105:
 538:Drivers/STM32WBxx_HAL_Driver/Src/stm32wbxx_hal_pwr_ex.c **** #if defined(GPIOD)
 539:Drivers/STM32WBxx_HAL_Driver/Src/stm32wbxx_hal_pwr_ex.c ****     case PWR_GPIO_D:
 540:Drivers/STM32WBxx_HAL_Driver/Src/stm32wbxx_hal_pwr_ex.c ****       CLEAR_BIT(PWR->PDCRD, GPIONumber);
 1145              		.loc 1 540 7 is_stmt 1 view .LVU223
 1146 003a 0D4A     		ldr	r2, .L110
 1147 003c D36B     		ldr	r3, [r2, #60]
 1148 003e 23EA0103 		bic	r3, r3, r1
 1149 0042 D363     		str	r3, [r2, #60]
 541:Drivers/STM32WBxx_HAL_Driver/Src/stm32wbxx_hal_pwr_ex.c ****       break;
 1150              		.loc 1 541 7 view .LVU224
 522:Drivers/STM32WBxx_HAL_Driver/Src/stm32wbxx_hal_pwr_ex.c **** 
 1151              		.loc 1 522 21 is_stmt 0 view .LVU225
 1152 0044 0020     		movs	r0, #0
 1153              	.LVL69:
 1154              		.loc 1 541 7 view .LVU226
 1155 0046 7047     		bx	lr
 1156              	.LVL70:
 1157              	.L104:
 542:Drivers/STM32WBxx_HAL_Driver/Src/stm32wbxx_hal_pwr_ex.c **** #endif /* GPIOD */
 543:Drivers/STM32WBxx_HAL_Driver/Src/stm32wbxx_hal_pwr_ex.c ****     case PWR_GPIO_E:
 544:Drivers/STM32WBxx_HAL_Driver/Src/stm32wbxx_hal_pwr_ex.c ****       CLEAR_BIT(PWR->PDCRE, (GPIONumber & PWR_PORTE_AVAILABLE_PINS));
 1158              		.loc 1 544 7 is_stmt 1 view .LVU227
 1159 0048 094A     		ldr	r2, .L110
 1160 004a 536C     		ldr	r3, [r2, #68]
 1161 004c 01F01F01 		and	r1, r1, #31
 1162              	.LVL71:
 1163              		.loc 1 544 7 is_stmt 0 view .LVU228
ARM GAS  C:\Users\Nathan\AppData\Local\Temp\ccvsgOlc.s 			page 31


 1164 0050 23EA0101 		bic	r1, r3, r1
 1165 0054 5164     		str	r1, [r2, #68]
 545:Drivers/STM32WBxx_HAL_Driver/Src/stm32wbxx_hal_pwr_ex.c ****       break;
 1166              		.loc 1 545 7 is_stmt 1 view .LVU229
 522:Drivers/STM32WBxx_HAL_Driver/Src/stm32wbxx_hal_pwr_ex.c **** 
 1167              		.loc 1 522 21 is_stmt 0 view .LVU230
 1168 0056 0020     		movs	r0, #0
 1169              	.LVL72:
 1170              		.loc 1 545 7 view .LVU231
 1171 0058 7047     		bx	lr
 1172              	.LVL73:
 1173              	.L102:
 546:Drivers/STM32WBxx_HAL_Driver/Src/stm32wbxx_hal_pwr_ex.c ****     case PWR_GPIO_H:
 547:Drivers/STM32WBxx_HAL_Driver/Src/stm32wbxx_hal_pwr_ex.c ****       CLEAR_BIT(PWR->PDCRH, (GPIONumber & PWR_PORTH_AVAILABLE_PINS));
 1174              		.loc 1 547 7 is_stmt 1 view .LVU232
 1175 005a 054A     		ldr	r2, .L110
 1176 005c D36D     		ldr	r3, [r2, #92]
 1177 005e 01F00B01 		and	r1, r1, #11
 1178              	.LVL74:
 1179              		.loc 1 547 7 is_stmt 0 view .LVU233
 1180 0062 23EA0103 		bic	r3, r3, r1
 1181 0066 D365     		str	r3, [r2, #92]
 548:Drivers/STM32WBxx_HAL_Driver/Src/stm32wbxx_hal_pwr_ex.c ****       break;
 1182              		.loc 1 548 7 is_stmt 1 view .LVU234
 522:Drivers/STM32WBxx_HAL_Driver/Src/stm32wbxx_hal_pwr_ex.c **** 
 1183              		.loc 1 522 21 is_stmt 0 view .LVU235
 1184 0068 0020     		movs	r0, #0
 1185              	.LVL75:
 1186              		.loc 1 548 7 view .LVU236
 1187 006a 7047     		bx	lr
 1188              	.LVL76:
 1189              	.L109:
 527:Drivers/STM32WBxx_HAL_Driver/Src/stm32wbxx_hal_pwr_ex.c ****   {
 1190              		.loc 1 527 3 view .LVU237
 1191 006c 0120     		movs	r0, #1
 1192              	.LVL77:
 549:Drivers/STM32WBxx_HAL_Driver/Src/stm32wbxx_hal_pwr_ex.c ****     default:
 550:Drivers/STM32WBxx_HAL_Driver/Src/stm32wbxx_hal_pwr_ex.c ****       status = HAL_ERROR;
 551:Drivers/STM32WBxx_HAL_Driver/Src/stm32wbxx_hal_pwr_ex.c ****       break;
 552:Drivers/STM32WBxx_HAL_Driver/Src/stm32wbxx_hal_pwr_ex.c ****   }
 553:Drivers/STM32WBxx_HAL_Driver/Src/stm32wbxx_hal_pwr_ex.c **** 
 554:Drivers/STM32WBxx_HAL_Driver/Src/stm32wbxx_hal_pwr_ex.c ****   return status;
 1193              		.loc 1 554 3 is_stmt 1 view .LVU238
 555:Drivers/STM32WBxx_HAL_Driver/Src/stm32wbxx_hal_pwr_ex.c **** }
 1194              		.loc 1 555 1 is_stmt 0 view .LVU239
 1195 006e 7047     		bx	lr
 1196              	.L111:
 1197              		.align	2
 1198              	.L110:
 1199 0070 00040058 		.word	1476396032
 1200              		.cfi_endproc
 1201              	.LFE1125:
 1203              		.section	.text.HAL_PWREx_EnablePullUpPullDownConfig,"ax",%progbits
 1204              		.align	1
 1205              		.global	HAL_PWREx_EnablePullUpPullDownConfig
 1206              		.syntax unified
 1207              		.thumb
ARM GAS  C:\Users\Nathan\AppData\Local\Temp\ccvsgOlc.s 			page 32


 1208              		.thumb_func
 1210              	HAL_PWREx_EnablePullUpPullDownConfig:
 1211              	.LFB1126:
 556:Drivers/STM32WBxx_HAL_Driver/Src/stm32wbxx_hal_pwr_ex.c **** 
 557:Drivers/STM32WBxx_HAL_Driver/Src/stm32wbxx_hal_pwr_ex.c **** /**
 558:Drivers/STM32WBxx_HAL_Driver/Src/stm32wbxx_hal_pwr_ex.c ****   * @brief Enable pull-up and pull-down configuration.
 559:Drivers/STM32WBxx_HAL_Driver/Src/stm32wbxx_hal_pwr_ex.c ****   * @note  When APC bit is set, the I/O pull-up and pull-down configurations defined in
 560:Drivers/STM32WBxx_HAL_Driver/Src/stm32wbxx_hal_pwr_ex.c ****   *        PWR_PUCRx and PWR_PDCRx registers are applied in Standby and Shutdown modes.
 561:Drivers/STM32WBxx_HAL_Driver/Src/stm32wbxx_hal_pwr_ex.c ****   * @note  Pull-up set by PUy bit of PWR_PUCRx register is not activated if the corresponding
 562:Drivers/STM32WBxx_HAL_Driver/Src/stm32wbxx_hal_pwr_ex.c ****   *        PDy bit of PWR_PDCRx register is also set (pull-down configuration priority is higher).
 563:Drivers/STM32WBxx_HAL_Driver/Src/stm32wbxx_hal_pwr_ex.c ****   *        HAL_PWREx_EnableGPIOPullUp() and HAL_PWREx_EnableGPIOPullDown() API's ensure there
 564:Drivers/STM32WBxx_HAL_Driver/Src/stm32wbxx_hal_pwr_ex.c ****   *        is no conflict when setting PUy or PDy bit.
 565:Drivers/STM32WBxx_HAL_Driver/Src/stm32wbxx_hal_pwr_ex.c ****   * @retval None
 566:Drivers/STM32WBxx_HAL_Driver/Src/stm32wbxx_hal_pwr_ex.c ****   */
 567:Drivers/STM32WBxx_HAL_Driver/Src/stm32wbxx_hal_pwr_ex.c **** void HAL_PWREx_EnablePullUpPullDownConfig(void)
 568:Drivers/STM32WBxx_HAL_Driver/Src/stm32wbxx_hal_pwr_ex.c **** {
 1212              		.loc 1 568 1 is_stmt 1 view -0
 1213              		.cfi_startproc
 1214              		@ args = 0, pretend = 0, frame = 0
 1215              		@ frame_needed = 0, uses_anonymous_args = 0
 1216              		@ link register save eliminated.
 569:Drivers/STM32WBxx_HAL_Driver/Src/stm32wbxx_hal_pwr_ex.c ****   SET_BIT(PWR->CR3, PWR_CR3_APC);
 1217              		.loc 1 569 3 view .LVU241
 1218 0000 024A     		ldr	r2, .L113
 1219 0002 9368     		ldr	r3, [r2, #8]
 1220 0004 43F48063 		orr	r3, r3, #1024
 1221 0008 9360     		str	r3, [r2, #8]
 570:Drivers/STM32WBxx_HAL_Driver/Src/stm32wbxx_hal_pwr_ex.c **** }
 1222              		.loc 1 570 1 is_stmt 0 view .LVU242
 1223 000a 7047     		bx	lr
 1224              	.L114:
 1225              		.align	2
 1226              	.L113:
 1227 000c 00040058 		.word	1476396032
 1228              		.cfi_endproc
 1229              	.LFE1126:
 1231              		.section	.text.HAL_PWREx_DisablePullUpPullDownConfig,"ax",%progbits
 1232              		.align	1
 1233              		.global	HAL_PWREx_DisablePullUpPullDownConfig
 1234              		.syntax unified
 1235              		.thumb
 1236              		.thumb_func
 1238              	HAL_PWREx_DisablePullUpPullDownConfig:
 1239              	.LFB1127:
 571:Drivers/STM32WBxx_HAL_Driver/Src/stm32wbxx_hal_pwr_ex.c **** 
 572:Drivers/STM32WBxx_HAL_Driver/Src/stm32wbxx_hal_pwr_ex.c **** /**
 573:Drivers/STM32WBxx_HAL_Driver/Src/stm32wbxx_hal_pwr_ex.c ****   * @brief Disable pull-up and pull-down configuration.
 574:Drivers/STM32WBxx_HAL_Driver/Src/stm32wbxx_hal_pwr_ex.c ****   * @note  When APC bit is cleared, the I/O pull-up and pull-down configurations defined in
 575:Drivers/STM32WBxx_HAL_Driver/Src/stm32wbxx_hal_pwr_ex.c ****   *        PWR_PUCRx and PWR_PDCRx registers are not applied in Standby and Shutdown modes.
 576:Drivers/STM32WBxx_HAL_Driver/Src/stm32wbxx_hal_pwr_ex.c ****   * @retval None
 577:Drivers/STM32WBxx_HAL_Driver/Src/stm32wbxx_hal_pwr_ex.c ****   */
 578:Drivers/STM32WBxx_HAL_Driver/Src/stm32wbxx_hal_pwr_ex.c **** void HAL_PWREx_DisablePullUpPullDownConfig(void)
 579:Drivers/STM32WBxx_HAL_Driver/Src/stm32wbxx_hal_pwr_ex.c **** {
 1240              		.loc 1 579 1 is_stmt 1 view -0
 1241              		.cfi_startproc
 1242              		@ args = 0, pretend = 0, frame = 0
 1243              		@ frame_needed = 0, uses_anonymous_args = 0
ARM GAS  C:\Users\Nathan\AppData\Local\Temp\ccvsgOlc.s 			page 33


 1244              		@ link register save eliminated.
 580:Drivers/STM32WBxx_HAL_Driver/Src/stm32wbxx_hal_pwr_ex.c ****   CLEAR_BIT(PWR->CR3, PWR_CR3_APC);
 1245              		.loc 1 580 3 view .LVU244
 1246 0000 024A     		ldr	r2, .L116
 1247 0002 9368     		ldr	r3, [r2, #8]
 1248 0004 23F48063 		bic	r3, r3, #1024
 1249 0008 9360     		str	r3, [r2, #8]
 581:Drivers/STM32WBxx_HAL_Driver/Src/stm32wbxx_hal_pwr_ex.c **** }
 1250              		.loc 1 581 1 is_stmt 0 view .LVU245
 1251 000a 7047     		bx	lr
 1252              	.L117:
 1253              		.align	2
 1254              	.L116:
 1255 000c 00040058 		.word	1476396032
 1256              		.cfi_endproc
 1257              	.LFE1127:
 1259              		.section	.text.HAL_PWREx_SetBORConfig,"ax",%progbits
 1260              		.align	1
 1261              		.global	HAL_PWREx_SetBORConfig
 1262              		.syntax unified
 1263              		.thumb
 1264              		.thumb_func
 1266              	HAL_PWREx_SetBORConfig:
 1267              	.LVL78:
 1268              	.LFB1128:
 582:Drivers/STM32WBxx_HAL_Driver/Src/stm32wbxx_hal_pwr_ex.c **** 
 583:Drivers/STM32WBxx_HAL_Driver/Src/stm32wbxx_hal_pwr_ex.c **** /****************************************************************************/
 584:Drivers/STM32WBxx_HAL_Driver/Src/stm32wbxx_hal_pwr_ex.c **** 
 585:Drivers/STM32WBxx_HAL_Driver/Src/stm32wbxx_hal_pwr_ex.c **** #if defined(PWR_CR5_SMPSEN)
 586:Drivers/STM32WBxx_HAL_Driver/Src/stm32wbxx_hal_pwr_ex.c **** /**
 587:Drivers/STM32WBxx_HAL_Driver/Src/stm32wbxx_hal_pwr_ex.c ****   * @brief  Set BOR configuration
 588:Drivers/STM32WBxx_HAL_Driver/Src/stm32wbxx_hal_pwr_ex.c ****   * @param  BORConfiguration This parameter can be one of the following values:
 589:Drivers/STM32WBxx_HAL_Driver/Src/stm32wbxx_hal_pwr_ex.c ****   *         @arg @ref PWR_BOR_SYSTEM_RESET
 590:Drivers/STM32WBxx_HAL_Driver/Src/stm32wbxx_hal_pwr_ex.c ****   *         @arg @ref PWR_BOR_SMPS_FORCE_BYPASS
 591:Drivers/STM32WBxx_HAL_Driver/Src/stm32wbxx_hal_pwr_ex.c ****   */
 592:Drivers/STM32WBxx_HAL_Driver/Src/stm32wbxx_hal_pwr_ex.c **** void HAL_PWREx_SetBORConfig(uint32_t BORConfiguration)
 593:Drivers/STM32WBxx_HAL_Driver/Src/stm32wbxx_hal_pwr_ex.c **** {
 1269              		.loc 1 593 1 is_stmt 1 view -0
 1270              		.cfi_startproc
 1271              		@ args = 0, pretend = 0, frame = 0
 1272              		@ frame_needed = 0, uses_anonymous_args = 0
 1273              		@ link register save eliminated.
 594:Drivers/STM32WBxx_HAL_Driver/Src/stm32wbxx_hal_pwr_ex.c ****   LL_PWR_SetBORConfig(BORConfiguration);
 1274              		.loc 1 594 3 view .LVU247
 1275              	.LBB58:
 1276              	.LBI58:
 1277              		.file 2 "Drivers/STM32WBxx_HAL_Driver/Inc/stm32wbxx_ll_pwr.h"
   1:Drivers/STM32WBxx_HAL_Driver/Inc/stm32wbxx_ll_pwr.h **** /**
   2:Drivers/STM32WBxx_HAL_Driver/Inc/stm32wbxx_ll_pwr.h ****   ******************************************************************************
   3:Drivers/STM32WBxx_HAL_Driver/Inc/stm32wbxx_ll_pwr.h ****   * @file    stm32wbxx_ll_pwr.h
   4:Drivers/STM32WBxx_HAL_Driver/Inc/stm32wbxx_ll_pwr.h ****   * @author  MCD Application Team
   5:Drivers/STM32WBxx_HAL_Driver/Inc/stm32wbxx_ll_pwr.h ****   * @brief   Header file of PWR LL module.
   6:Drivers/STM32WBxx_HAL_Driver/Inc/stm32wbxx_ll_pwr.h ****   ******************************************************************************
   7:Drivers/STM32WBxx_HAL_Driver/Inc/stm32wbxx_ll_pwr.h ****   * @attention
   8:Drivers/STM32WBxx_HAL_Driver/Inc/stm32wbxx_ll_pwr.h ****   *
   9:Drivers/STM32WBxx_HAL_Driver/Inc/stm32wbxx_ll_pwr.h ****   * Copyright (c) 2019 STMicroelectronics.
  10:Drivers/STM32WBxx_HAL_Driver/Inc/stm32wbxx_ll_pwr.h ****   * All rights reserved.
ARM GAS  C:\Users\Nathan\AppData\Local\Temp\ccvsgOlc.s 			page 34


  11:Drivers/STM32WBxx_HAL_Driver/Inc/stm32wbxx_ll_pwr.h ****   *
  12:Drivers/STM32WBxx_HAL_Driver/Inc/stm32wbxx_ll_pwr.h ****   * This software is licensed under terms that can be found in the LICENSE file
  13:Drivers/STM32WBxx_HAL_Driver/Inc/stm32wbxx_ll_pwr.h ****   * in the root directory of this software component.
  14:Drivers/STM32WBxx_HAL_Driver/Inc/stm32wbxx_ll_pwr.h ****   * If no LICENSE file comes with this software, it is provided AS-IS.
  15:Drivers/STM32WBxx_HAL_Driver/Inc/stm32wbxx_ll_pwr.h ****   *
  16:Drivers/STM32WBxx_HAL_Driver/Inc/stm32wbxx_ll_pwr.h ****   ******************************************************************************
  17:Drivers/STM32WBxx_HAL_Driver/Inc/stm32wbxx_ll_pwr.h ****   */
  18:Drivers/STM32WBxx_HAL_Driver/Inc/stm32wbxx_ll_pwr.h **** 
  19:Drivers/STM32WBxx_HAL_Driver/Inc/stm32wbxx_ll_pwr.h **** /* Define to prevent recursive inclusion -------------------------------------*/
  20:Drivers/STM32WBxx_HAL_Driver/Inc/stm32wbxx_ll_pwr.h **** #ifndef STM32WBxx_LL_PWR_H
  21:Drivers/STM32WBxx_HAL_Driver/Inc/stm32wbxx_ll_pwr.h **** #define STM32WBxx_LL_PWR_H
  22:Drivers/STM32WBxx_HAL_Driver/Inc/stm32wbxx_ll_pwr.h **** 
  23:Drivers/STM32WBxx_HAL_Driver/Inc/stm32wbxx_ll_pwr.h **** #ifdef __cplusplus
  24:Drivers/STM32WBxx_HAL_Driver/Inc/stm32wbxx_ll_pwr.h **** extern "C" {
  25:Drivers/STM32WBxx_HAL_Driver/Inc/stm32wbxx_ll_pwr.h **** #endif
  26:Drivers/STM32WBxx_HAL_Driver/Inc/stm32wbxx_ll_pwr.h **** 
  27:Drivers/STM32WBxx_HAL_Driver/Inc/stm32wbxx_ll_pwr.h **** /* Includes ------------------------------------------------------------------*/
  28:Drivers/STM32WBxx_HAL_Driver/Inc/stm32wbxx_ll_pwr.h **** #include "stm32wbxx.h"
  29:Drivers/STM32WBxx_HAL_Driver/Inc/stm32wbxx_ll_pwr.h **** 
  30:Drivers/STM32WBxx_HAL_Driver/Inc/stm32wbxx_ll_pwr.h **** /** @addtogroup STM32WBxx_LL_Driver
  31:Drivers/STM32WBxx_HAL_Driver/Inc/stm32wbxx_ll_pwr.h ****   * @{
  32:Drivers/STM32WBxx_HAL_Driver/Inc/stm32wbxx_ll_pwr.h ****   */
  33:Drivers/STM32WBxx_HAL_Driver/Inc/stm32wbxx_ll_pwr.h **** 
  34:Drivers/STM32WBxx_HAL_Driver/Inc/stm32wbxx_ll_pwr.h **** #if defined(PWR)
  35:Drivers/STM32WBxx_HAL_Driver/Inc/stm32wbxx_ll_pwr.h **** 
  36:Drivers/STM32WBxx_HAL_Driver/Inc/stm32wbxx_ll_pwr.h **** /** @defgroup PWR_LL PWR
  37:Drivers/STM32WBxx_HAL_Driver/Inc/stm32wbxx_ll_pwr.h ****   * @{
  38:Drivers/STM32WBxx_HAL_Driver/Inc/stm32wbxx_ll_pwr.h ****   */
  39:Drivers/STM32WBxx_HAL_Driver/Inc/stm32wbxx_ll_pwr.h **** 
  40:Drivers/STM32WBxx_HAL_Driver/Inc/stm32wbxx_ll_pwr.h **** /* Private types -------------------------------------------------------------*/
  41:Drivers/STM32WBxx_HAL_Driver/Inc/stm32wbxx_ll_pwr.h **** /* Private variables ---------------------------------------------------------*/
  42:Drivers/STM32WBxx_HAL_Driver/Inc/stm32wbxx_ll_pwr.h **** 
  43:Drivers/STM32WBxx_HAL_Driver/Inc/stm32wbxx_ll_pwr.h **** /* Private constants ---------------------------------------------------------*/
  44:Drivers/STM32WBxx_HAL_Driver/Inc/stm32wbxx_ll_pwr.h **** /** @defgroup PWR_LL_Private_Constants PWR Private Constants
  45:Drivers/STM32WBxx_HAL_Driver/Inc/stm32wbxx_ll_pwr.h ****   * @{
  46:Drivers/STM32WBxx_HAL_Driver/Inc/stm32wbxx_ll_pwr.h ****   */
  47:Drivers/STM32WBxx_HAL_Driver/Inc/stm32wbxx_ll_pwr.h **** 
  48:Drivers/STM32WBxx_HAL_Driver/Inc/stm32wbxx_ll_pwr.h **** #if defined(PWR_CR5_SMPSEN)
  49:Drivers/STM32WBxx_HAL_Driver/Inc/stm32wbxx_ll_pwr.h **** /** @defgroup PWR_SMPS_Calibration PWR SMPS calibration
  50:Drivers/STM32WBxx_HAL_Driver/Inc/stm32wbxx_ll_pwr.h ****   * @{
  51:Drivers/STM32WBxx_HAL_Driver/Inc/stm32wbxx_ll_pwr.h ****   */
  52:Drivers/STM32WBxx_HAL_Driver/Inc/stm32wbxx_ll_pwr.h **** #define SMPS_VOLTAGE_CAL_ADDR              ((uint32_t*) (0x1FFF7558UL))         /* SMPS output volt
  53:Drivers/STM32WBxx_HAL_Driver/Inc/stm32wbxx_ll_pwr.h **** #define SMPS_VOLTAGE_CAL_POS               (8UL)                                /* SMPS output volt
  54:Drivers/STM32WBxx_HAL_Driver/Inc/stm32wbxx_ll_pwr.h **** #define SMPS_VOLTAGE_CAL                   (0xFUL << SMPS_VOLTAGE_CAL_POS)      /* SMPS output volt
  55:Drivers/STM32WBxx_HAL_Driver/Inc/stm32wbxx_ll_pwr.h **** #define SMPS_VOLTAGE_CAL_VOLTAGE_MV        (1500UL)                             /* SMPS output volt
  56:Drivers/STM32WBxx_HAL_Driver/Inc/stm32wbxx_ll_pwr.h **** #define SMPS_VOLTAGE_BASE_MV               (1200UL)                             /* SMPS output volt
  57:Drivers/STM32WBxx_HAL_Driver/Inc/stm32wbxx_ll_pwr.h **** #define SMPS_VOLTAGE_STEP_MV               (  50UL)                             /* SMPS output volt
  58:Drivers/STM32WBxx_HAL_Driver/Inc/stm32wbxx_ll_pwr.h **** /**
  59:Drivers/STM32WBxx_HAL_Driver/Inc/stm32wbxx_ll_pwr.h ****   * @}
  60:Drivers/STM32WBxx_HAL_Driver/Inc/stm32wbxx_ll_pwr.h ****   */
  61:Drivers/STM32WBxx_HAL_Driver/Inc/stm32wbxx_ll_pwr.h **** #endif /* PWR_CR5_SMPSEN */
  62:Drivers/STM32WBxx_HAL_Driver/Inc/stm32wbxx_ll_pwr.h **** 
  63:Drivers/STM32WBxx_HAL_Driver/Inc/stm32wbxx_ll_pwr.h **** /**
  64:Drivers/STM32WBxx_HAL_Driver/Inc/stm32wbxx_ll_pwr.h ****   * @}
  65:Drivers/STM32WBxx_HAL_Driver/Inc/stm32wbxx_ll_pwr.h ****   */
  66:Drivers/STM32WBxx_HAL_Driver/Inc/stm32wbxx_ll_pwr.h **** 
  67:Drivers/STM32WBxx_HAL_Driver/Inc/stm32wbxx_ll_pwr.h **** /* Private macros ------------------------------------------------------------*/
ARM GAS  C:\Users\Nathan\AppData\Local\Temp\ccvsgOlc.s 			page 35


  68:Drivers/STM32WBxx_HAL_Driver/Inc/stm32wbxx_ll_pwr.h **** 
  69:Drivers/STM32WBxx_HAL_Driver/Inc/stm32wbxx_ll_pwr.h **** /* Exported types ------------------------------------------------------------*/
  70:Drivers/STM32WBxx_HAL_Driver/Inc/stm32wbxx_ll_pwr.h **** /* Exported constants --------------------------------------------------------*/
  71:Drivers/STM32WBxx_HAL_Driver/Inc/stm32wbxx_ll_pwr.h **** /** @defgroup PWR_LL_Exported_Constants PWR Exported Constants
  72:Drivers/STM32WBxx_HAL_Driver/Inc/stm32wbxx_ll_pwr.h ****   * @{
  73:Drivers/STM32WBxx_HAL_Driver/Inc/stm32wbxx_ll_pwr.h ****   */
  74:Drivers/STM32WBxx_HAL_Driver/Inc/stm32wbxx_ll_pwr.h **** 
  75:Drivers/STM32WBxx_HAL_Driver/Inc/stm32wbxx_ll_pwr.h **** /** @defgroup PWR_LL_EC_CLEAR_FLAG Clear Flags Defines
  76:Drivers/STM32WBxx_HAL_Driver/Inc/stm32wbxx_ll_pwr.h ****   * @brief    Flags defines which can be used with LL_PWR_WriteReg function
  77:Drivers/STM32WBxx_HAL_Driver/Inc/stm32wbxx_ll_pwr.h ****   * @{
  78:Drivers/STM32WBxx_HAL_Driver/Inc/stm32wbxx_ll_pwr.h ****   */
  79:Drivers/STM32WBxx_HAL_Driver/Inc/stm32wbxx_ll_pwr.h **** #define LL_PWR_SCR_CWUF                    PWR_SCR_CWUF
  80:Drivers/STM32WBxx_HAL_Driver/Inc/stm32wbxx_ll_pwr.h **** #if defined(PWR_CR3_EWUP2)
  81:Drivers/STM32WBxx_HAL_Driver/Inc/stm32wbxx_ll_pwr.h **** #define LL_PWR_SCR_CWUF5                   PWR_SCR_CWUF5
  82:Drivers/STM32WBxx_HAL_Driver/Inc/stm32wbxx_ll_pwr.h **** #endif /* PWR_CR3_EWUP2 */
  83:Drivers/STM32WBxx_HAL_Driver/Inc/stm32wbxx_ll_pwr.h **** #define LL_PWR_SCR_CWUF4                   PWR_SCR_CWUF4
  84:Drivers/STM32WBxx_HAL_Driver/Inc/stm32wbxx_ll_pwr.h **** #if defined(PWR_CR3_EWUP3)
  85:Drivers/STM32WBxx_HAL_Driver/Inc/stm32wbxx_ll_pwr.h **** #define LL_PWR_SCR_CWUF3                   PWR_SCR_CWUF3
  86:Drivers/STM32WBxx_HAL_Driver/Inc/stm32wbxx_ll_pwr.h **** #endif /* PWR_CR3_EWUP3 */
  87:Drivers/STM32WBxx_HAL_Driver/Inc/stm32wbxx_ll_pwr.h **** #if defined(PWR_CR3_EWUP2)
  88:Drivers/STM32WBxx_HAL_Driver/Inc/stm32wbxx_ll_pwr.h **** #define LL_PWR_SCR_CWUF2                   PWR_SCR_CWUF2
  89:Drivers/STM32WBxx_HAL_Driver/Inc/stm32wbxx_ll_pwr.h **** #endif /* PWR_CR3_EWUP2 */
  90:Drivers/STM32WBxx_HAL_Driver/Inc/stm32wbxx_ll_pwr.h **** #define LL_PWR_SCR_CWUF1                   PWR_SCR_CWUF1
  91:Drivers/STM32WBxx_HAL_Driver/Inc/stm32wbxx_ll_pwr.h **** #define LL_PWR_SCR_CC2HF                   PWR_SCR_CC2HF
  92:Drivers/STM32WBxx_HAL_Driver/Inc/stm32wbxx_ll_pwr.h **** #define LL_PWR_SCR_CBLEAF                  PWR_SCR_CBLEAF
  93:Drivers/STM32WBxx_HAL_Driver/Inc/stm32wbxx_ll_pwr.h **** #define LL_PWR_SCR_CCRPEF                  PWR_SCR_CCRPEF
  94:Drivers/STM32WBxx_HAL_Driver/Inc/stm32wbxx_ll_pwr.h **** #if defined(PWR_CR3_E802A)
  95:Drivers/STM32WBxx_HAL_Driver/Inc/stm32wbxx_ll_pwr.h **** #define LL_PWR_SCR_C802AF                  PWR_SCR_C802AF
  96:Drivers/STM32WBxx_HAL_Driver/Inc/stm32wbxx_ll_pwr.h **** #define LL_PWR_SCR_C802WUF                 PWR_SCR_C802WUF
  97:Drivers/STM32WBxx_HAL_Driver/Inc/stm32wbxx_ll_pwr.h **** #endif /* PWR_CR3_E802A */
  98:Drivers/STM32WBxx_HAL_Driver/Inc/stm32wbxx_ll_pwr.h **** #define LL_PWR_SCR_CBLEWUF                 PWR_SCR_CBLEWUF
  99:Drivers/STM32WBxx_HAL_Driver/Inc/stm32wbxx_ll_pwr.h **** #if defined(PWR_CR5_SMPSEN)
 100:Drivers/STM32WBxx_HAL_Driver/Inc/stm32wbxx_ll_pwr.h **** #define LL_PWR_SCR_CBORHF                  PWR_SCR_CBORHF
 101:Drivers/STM32WBxx_HAL_Driver/Inc/stm32wbxx_ll_pwr.h **** #define LL_PWR_SCR_CSMPSFBF                PWR_SCR_CSMPSFBF
 102:Drivers/STM32WBxx_HAL_Driver/Inc/stm32wbxx_ll_pwr.h **** #endif /* PWR_CR5_SMPSEN */
 103:Drivers/STM32WBxx_HAL_Driver/Inc/stm32wbxx_ll_pwr.h **** #define LL_PWR_EXTSCR_CCRPF                PWR_EXTSCR_CCRPF
 104:Drivers/STM32WBxx_HAL_Driver/Inc/stm32wbxx_ll_pwr.h **** #define LL_PWR_EXTSCR_C2CSSF               PWR_EXTSCR_C2CSSF
 105:Drivers/STM32WBxx_HAL_Driver/Inc/stm32wbxx_ll_pwr.h **** #define LL_PWR_EXTSCR_C1CSSF               PWR_EXTSCR_C1CSSF
 106:Drivers/STM32WBxx_HAL_Driver/Inc/stm32wbxx_ll_pwr.h **** /**
 107:Drivers/STM32WBxx_HAL_Driver/Inc/stm32wbxx_ll_pwr.h ****   * @}
 108:Drivers/STM32WBxx_HAL_Driver/Inc/stm32wbxx_ll_pwr.h ****   */
 109:Drivers/STM32WBxx_HAL_Driver/Inc/stm32wbxx_ll_pwr.h **** 
 110:Drivers/STM32WBxx_HAL_Driver/Inc/stm32wbxx_ll_pwr.h **** /** @defgroup PWR_LL_EC_GET_FLAG Get Flags Defines
 111:Drivers/STM32WBxx_HAL_Driver/Inc/stm32wbxx_ll_pwr.h ****   * @brief    Flags defines which can be used with LL_PWR_ReadReg function
 112:Drivers/STM32WBxx_HAL_Driver/Inc/stm32wbxx_ll_pwr.h ****   * @{
 113:Drivers/STM32WBxx_HAL_Driver/Inc/stm32wbxx_ll_pwr.h ****   */
 114:Drivers/STM32WBxx_HAL_Driver/Inc/stm32wbxx_ll_pwr.h **** #define LL_PWR_SR1_WUFI                    PWR_SR1_WUFI
 115:Drivers/STM32WBxx_HAL_Driver/Inc/stm32wbxx_ll_pwr.h **** #if defined(PWR_CR3_EWUP5)
 116:Drivers/STM32WBxx_HAL_Driver/Inc/stm32wbxx_ll_pwr.h **** #define LL_PWR_SR1_WUF5                    PWR_SR1_WUF5
 117:Drivers/STM32WBxx_HAL_Driver/Inc/stm32wbxx_ll_pwr.h **** #endif /* PWR_CR3_EWUP5 */
 118:Drivers/STM32WBxx_HAL_Driver/Inc/stm32wbxx_ll_pwr.h **** #define LL_PWR_SR1_WUF4                    PWR_SR1_WUF4
 119:Drivers/STM32WBxx_HAL_Driver/Inc/stm32wbxx_ll_pwr.h **** #if defined(PWR_CR3_EWUP3)
 120:Drivers/STM32WBxx_HAL_Driver/Inc/stm32wbxx_ll_pwr.h **** #define LL_PWR_SR1_WUF3                    PWR_SR1_WUF3
 121:Drivers/STM32WBxx_HAL_Driver/Inc/stm32wbxx_ll_pwr.h **** #endif /* PWR_CR3_EWUP3 */
 122:Drivers/STM32WBxx_HAL_Driver/Inc/stm32wbxx_ll_pwr.h **** #if defined(PWR_CR3_EWUP2)
 123:Drivers/STM32WBxx_HAL_Driver/Inc/stm32wbxx_ll_pwr.h **** #define LL_PWR_SR1_WUF2                    PWR_SR1_WUF2
 124:Drivers/STM32WBxx_HAL_Driver/Inc/stm32wbxx_ll_pwr.h **** #endif /* PWR_CR3_EWUP2 */
ARM GAS  C:\Users\Nathan\AppData\Local\Temp\ccvsgOlc.s 			page 36


 125:Drivers/STM32WBxx_HAL_Driver/Inc/stm32wbxx_ll_pwr.h **** #define LL_PWR_SR1_WUF1                    PWR_SR1_WUF1
 126:Drivers/STM32WBxx_HAL_Driver/Inc/stm32wbxx_ll_pwr.h **** #define LL_PWR_SR2_PVMO3                   PWR_SR2_PVMO3
 127:Drivers/STM32WBxx_HAL_Driver/Inc/stm32wbxx_ll_pwr.h **** #if defined(PWR_CR2_PVME1)
 128:Drivers/STM32WBxx_HAL_Driver/Inc/stm32wbxx_ll_pwr.h **** #define LL_PWR_SR2_PVMO1                   PWR_SR2_PVMO1
 129:Drivers/STM32WBxx_HAL_Driver/Inc/stm32wbxx_ll_pwr.h **** #endif /* PWR_CR2_PVME1 */
 130:Drivers/STM32WBxx_HAL_Driver/Inc/stm32wbxx_ll_pwr.h **** #define LL_PWR_SR2_PVDO                    PWR_SR2_PVDO
 131:Drivers/STM32WBxx_HAL_Driver/Inc/stm32wbxx_ll_pwr.h **** #if defined(PWR_CR1_VOS)
 132:Drivers/STM32WBxx_HAL_Driver/Inc/stm32wbxx_ll_pwr.h **** #define LL_PWR_SR2_VOSF                    PWR_SR2_VOSF
 133:Drivers/STM32WBxx_HAL_Driver/Inc/stm32wbxx_ll_pwr.h **** #endif /* PWR_CR1_VOS */
 134:Drivers/STM32WBxx_HAL_Driver/Inc/stm32wbxx_ll_pwr.h **** #define LL_PWR_SR2_REGLPF                  PWR_SR2_REGLPF
 135:Drivers/STM32WBxx_HAL_Driver/Inc/stm32wbxx_ll_pwr.h **** #define LL_PWR_SR2_REGLPS                  PWR_SR2_REGLPS
 136:Drivers/STM32WBxx_HAL_Driver/Inc/stm32wbxx_ll_pwr.h **** 
 137:Drivers/STM32WBxx_HAL_Driver/Inc/stm32wbxx_ll_pwr.h **** /* BOR flags */
 138:Drivers/STM32WBxx_HAL_Driver/Inc/stm32wbxx_ll_pwr.h **** #define LL_PWR_FLAG_BORH                   PWR_SR1_BORHF  /* BORH interrupt flag */
 139:Drivers/STM32WBxx_HAL_Driver/Inc/stm32wbxx_ll_pwr.h **** 
 140:Drivers/STM32WBxx_HAL_Driver/Inc/stm32wbxx_ll_pwr.h **** #if defined(PWR_CR5_SMPSEN)
 141:Drivers/STM32WBxx_HAL_Driver/Inc/stm32wbxx_ll_pwr.h **** /* SMPS flags */
 142:Drivers/STM32WBxx_HAL_Driver/Inc/stm32wbxx_ll_pwr.h **** #define LL_PWR_FLAG_SMPS                   PWR_SR2_SMPSF  /* SMPS step down converter ready flag */
 143:Drivers/STM32WBxx_HAL_Driver/Inc/stm32wbxx_ll_pwr.h **** #define LL_PWR_FLAG_SMPSB                  PWR_SR2_SMPSBF /* SMPS step down converter in bypass mod
 144:Drivers/STM32WBxx_HAL_Driver/Inc/stm32wbxx_ll_pwr.h **** #define LL_PWR_FLAG_SMPSFB                 PWR_SR1_SMPSFB /* SMPS step down converter forced in byp
 145:Drivers/STM32WBxx_HAL_Driver/Inc/stm32wbxx_ll_pwr.h **** #endif /* PWR_CR5_SMPSEN */
 146:Drivers/STM32WBxx_HAL_Driver/Inc/stm32wbxx_ll_pwr.h **** 
 147:Drivers/STM32WBxx_HAL_Driver/Inc/stm32wbxx_ll_pwr.h **** /* Radio (BLE or 802.15.4) flags */
 148:Drivers/STM32WBxx_HAL_Driver/Inc/stm32wbxx_ll_pwr.h **** #define LL_PWR_FLAG_BLEWU                  PWR_SR1_BLEWUF  /* BLE wakeup interrupt flag */
 149:Drivers/STM32WBxx_HAL_Driver/Inc/stm32wbxx_ll_pwr.h **** 
 150:Drivers/STM32WBxx_HAL_Driver/Inc/stm32wbxx_ll_pwr.h **** #define LL_PWR_FLAG_BLEA                   PWR_SR1_BLEAF   /* BLE end of activity interrupt flag */
 151:Drivers/STM32WBxx_HAL_Driver/Inc/stm32wbxx_ll_pwr.h **** #if defined(PWR_CR3_E802A)
 152:Drivers/STM32WBxx_HAL_Driver/Inc/stm32wbxx_ll_pwr.h **** #define LL_PWR_FLAG_802WU                  PWR_SR1_802WUF  /* 802.15.4 wakeup interrupt flag */
 153:Drivers/STM32WBxx_HAL_Driver/Inc/stm32wbxx_ll_pwr.h **** #define LL_PWR_FLAG_802A                   PWR_SR1_802AF   /* 802.15.4 end of activity interrupt fl
 154:Drivers/STM32WBxx_HAL_Driver/Inc/stm32wbxx_ll_pwr.h **** #endif /* PWR_CR3_E802A */
 155:Drivers/STM32WBxx_HAL_Driver/Inc/stm32wbxx_ll_pwr.h **** #define LL_PWR_FLAG_CRPE                   PWR_SR1_CRPEF   /* Critical radio phase end of activity 
 156:Drivers/STM32WBxx_HAL_Driver/Inc/stm32wbxx_ll_pwr.h **** #define LL_PWR_FLAG_CRP                    PWR_EXTSCR_CRPF /* Critical radio system phase */
 157:Drivers/STM32WBxx_HAL_Driver/Inc/stm32wbxx_ll_pwr.h **** 
 158:Drivers/STM32WBxx_HAL_Driver/Inc/stm32wbxx_ll_pwr.h **** /* Multicore flags */
 159:Drivers/STM32WBxx_HAL_Driver/Inc/stm32wbxx_ll_pwr.h **** #define LL_PWR_EXTSCR_C1SBF                PWR_EXTSCR_C1SBF   /* System standby flag for CPU1 */
 160:Drivers/STM32WBxx_HAL_Driver/Inc/stm32wbxx_ll_pwr.h **** #define LL_PWR_EXTSCR_C1STOPF              PWR_EXTSCR_C1STOPF /* System stop flag for CPU1 */
 161:Drivers/STM32WBxx_HAL_Driver/Inc/stm32wbxx_ll_pwr.h **** #define LL_PWR_EXTSCR_C1DS                 PWR_EXTSCR_C1DS    /* CPU1 deepsleep mode */
 162:Drivers/STM32WBxx_HAL_Driver/Inc/stm32wbxx_ll_pwr.h **** #define LL_PWR_EXTSCR_C2SBF                PWR_EXTSCR_C2SBF   /* System standby flag for CPU2 */
 163:Drivers/STM32WBxx_HAL_Driver/Inc/stm32wbxx_ll_pwr.h **** #define LL_PWR_EXTSCR_C2STOPF              PWR_EXTSCR_C2STOPF /* System stop flag for CPU2 */
 164:Drivers/STM32WBxx_HAL_Driver/Inc/stm32wbxx_ll_pwr.h **** #define LL_PWR_EXTSCR_C2DS                 PWR_EXTSCR_C2DS    /* CPU2 deepsleep mode */
 165:Drivers/STM32WBxx_HAL_Driver/Inc/stm32wbxx_ll_pwr.h **** #define LL_PWR_SR1_C2HF                    PWR_SR1_C2HF       /* CPU2 hold interrupt flag */
 166:Drivers/STM32WBxx_HAL_Driver/Inc/stm32wbxx_ll_pwr.h **** /**
 167:Drivers/STM32WBxx_HAL_Driver/Inc/stm32wbxx_ll_pwr.h ****   * @}
 168:Drivers/STM32WBxx_HAL_Driver/Inc/stm32wbxx_ll_pwr.h ****   */
 169:Drivers/STM32WBxx_HAL_Driver/Inc/stm32wbxx_ll_pwr.h **** 
 170:Drivers/STM32WBxx_HAL_Driver/Inc/stm32wbxx_ll_pwr.h **** #if defined(PWR_CR1_VOS)
 171:Drivers/STM32WBxx_HAL_Driver/Inc/stm32wbxx_ll_pwr.h **** /** @defgroup PWR_LL_EC_REGU_VOLTAGE REGU VOLTAGE
 172:Drivers/STM32WBxx_HAL_Driver/Inc/stm32wbxx_ll_pwr.h ****   * @{
 173:Drivers/STM32WBxx_HAL_Driver/Inc/stm32wbxx_ll_pwr.h ****   */
 174:Drivers/STM32WBxx_HAL_Driver/Inc/stm32wbxx_ll_pwr.h **** #define LL_PWR_REGU_VOLTAGE_SCALE1         (PWR_CR1_VOS_0) /* Regulator voltage output range 1 mode
 175:Drivers/STM32WBxx_HAL_Driver/Inc/stm32wbxx_ll_pwr.h **** #define LL_PWR_REGU_VOLTAGE_SCALE2         (PWR_CR1_VOS_1) /* Regulator voltage output range 2 mode
 176:Drivers/STM32WBxx_HAL_Driver/Inc/stm32wbxx_ll_pwr.h **** /**
 177:Drivers/STM32WBxx_HAL_Driver/Inc/stm32wbxx_ll_pwr.h ****   * @}
 178:Drivers/STM32WBxx_HAL_Driver/Inc/stm32wbxx_ll_pwr.h ****   */
 179:Drivers/STM32WBxx_HAL_Driver/Inc/stm32wbxx_ll_pwr.h **** #endif /* PWR_CR1_VOS */
 180:Drivers/STM32WBxx_HAL_Driver/Inc/stm32wbxx_ll_pwr.h **** 
 181:Drivers/STM32WBxx_HAL_Driver/Inc/stm32wbxx_ll_pwr.h **** /** @defgroup PWR_LL_EC_MODE_PWR MODE PWR
ARM GAS  C:\Users\Nathan\AppData\Local\Temp\ccvsgOlc.s 			page 37


 182:Drivers/STM32WBxx_HAL_Driver/Inc/stm32wbxx_ll_pwr.h ****   * @{
 183:Drivers/STM32WBxx_HAL_Driver/Inc/stm32wbxx_ll_pwr.h ****   */
 184:Drivers/STM32WBxx_HAL_Driver/Inc/stm32wbxx_ll_pwr.h **** #define LL_PWR_MODE_STOP0                  (0x000000000U)
 185:Drivers/STM32WBxx_HAL_Driver/Inc/stm32wbxx_ll_pwr.h **** #define LL_PWR_MODE_STOP1                  (PWR_CR1_LPMS_0)
 186:Drivers/STM32WBxx_HAL_Driver/Inc/stm32wbxx_ll_pwr.h **** #if defined(PWR_SUPPORT_STOP2)
 187:Drivers/STM32WBxx_HAL_Driver/Inc/stm32wbxx_ll_pwr.h **** #define LL_PWR_MODE_STOP2                  (PWR_CR1_LPMS_1)
 188:Drivers/STM32WBxx_HAL_Driver/Inc/stm32wbxx_ll_pwr.h **** #endif /* PWR_SUPPORT_STOP2 */
 189:Drivers/STM32WBxx_HAL_Driver/Inc/stm32wbxx_ll_pwr.h **** #define LL_PWR_MODE_STANDBY                (PWR_CR1_LPMS_1 | PWR_CR1_LPMS_0)
 190:Drivers/STM32WBxx_HAL_Driver/Inc/stm32wbxx_ll_pwr.h **** #define LL_PWR_MODE_SHUTDOWN               (PWR_CR1_LPMS_2)
 191:Drivers/STM32WBxx_HAL_Driver/Inc/stm32wbxx_ll_pwr.h **** /**
 192:Drivers/STM32WBxx_HAL_Driver/Inc/stm32wbxx_ll_pwr.h ****   * @}
 193:Drivers/STM32WBxx_HAL_Driver/Inc/stm32wbxx_ll_pwr.h ****   */
 194:Drivers/STM32WBxx_HAL_Driver/Inc/stm32wbxx_ll_pwr.h **** 
 195:Drivers/STM32WBxx_HAL_Driver/Inc/stm32wbxx_ll_pwr.h **** /** @defgroup PWR_LL_EC_FLASH_LPRUN_POWER_DOWN_MODE Flash power-down mode during low-power run mode
 196:Drivers/STM32WBxx_HAL_Driver/Inc/stm32wbxx_ll_pwr.h ****   * @{
 197:Drivers/STM32WBxx_HAL_Driver/Inc/stm32wbxx_ll_pwr.h ****   */
 198:Drivers/STM32WBxx_HAL_Driver/Inc/stm32wbxx_ll_pwr.h **** #define LL_PWR_FLASH_LPRUN_MODE_IDLE       (0x000000000U)
 199:Drivers/STM32WBxx_HAL_Driver/Inc/stm32wbxx_ll_pwr.h **** #define LL_PWR_FLASH_LPRUN_MODE_POWER_DOWN (PWR_CR1_FPDR)
 200:Drivers/STM32WBxx_HAL_Driver/Inc/stm32wbxx_ll_pwr.h **** /**
 201:Drivers/STM32WBxx_HAL_Driver/Inc/stm32wbxx_ll_pwr.h ****   * @}
 202:Drivers/STM32WBxx_HAL_Driver/Inc/stm32wbxx_ll_pwr.h ****   */
 203:Drivers/STM32WBxx_HAL_Driver/Inc/stm32wbxx_ll_pwr.h **** 
 204:Drivers/STM32WBxx_HAL_Driver/Inc/stm32wbxx_ll_pwr.h **** /** @defgroup PWR_LL_EC_FLASH_SLEEP_POWER_DOWN_MODE Flash power-down mode during sleep mode
 205:Drivers/STM32WBxx_HAL_Driver/Inc/stm32wbxx_ll_pwr.h ****   * @{
 206:Drivers/STM32WBxx_HAL_Driver/Inc/stm32wbxx_ll_pwr.h ****   */
 207:Drivers/STM32WBxx_HAL_Driver/Inc/stm32wbxx_ll_pwr.h **** #define LL_PWR_FLASH_SLEEP_MODE_IDLE       (0x000000000U)
 208:Drivers/STM32WBxx_HAL_Driver/Inc/stm32wbxx_ll_pwr.h **** #define LL_PWR_FLASH_SLEEP_MODE_POWER_DOWN (PWR_CR1_FPDS)
 209:Drivers/STM32WBxx_HAL_Driver/Inc/stm32wbxx_ll_pwr.h **** /**
 210:Drivers/STM32WBxx_HAL_Driver/Inc/stm32wbxx_ll_pwr.h ****   * @}
 211:Drivers/STM32WBxx_HAL_Driver/Inc/stm32wbxx_ll_pwr.h ****   */
 212:Drivers/STM32WBxx_HAL_Driver/Inc/stm32wbxx_ll_pwr.h **** 
 213:Drivers/STM32WBxx_HAL_Driver/Inc/stm32wbxx_ll_pwr.h **** /** @defgroup PWR_LL_EC_PVM Peripheral voltage monitoring
 214:Drivers/STM32WBxx_HAL_Driver/Inc/stm32wbxx_ll_pwr.h ****   * @{
 215:Drivers/STM32WBxx_HAL_Driver/Inc/stm32wbxx_ll_pwr.h ****   */
 216:Drivers/STM32WBxx_HAL_Driver/Inc/stm32wbxx_ll_pwr.h **** #if defined(PWR_CR2_PVME1)
 217:Drivers/STM32WBxx_HAL_Driver/Inc/stm32wbxx_ll_pwr.h **** #define LL_PWR_PVM_VDDUSB_1_2V             (PWR_CR2_PVME1)     /* Monitoring VDDUSB vs. 1.2V */
 218:Drivers/STM32WBxx_HAL_Driver/Inc/stm32wbxx_ll_pwr.h **** #endif /* PWR_CR2_PVME1 */
 219:Drivers/STM32WBxx_HAL_Driver/Inc/stm32wbxx_ll_pwr.h **** #define LL_PWR_PVM_VDDA_1_62V              (PWR_CR2_PVME3)     /* Monitoring VDDA vs. 1.62V  */
 220:Drivers/STM32WBxx_HAL_Driver/Inc/stm32wbxx_ll_pwr.h **** /**
 221:Drivers/STM32WBxx_HAL_Driver/Inc/stm32wbxx_ll_pwr.h ****   * @}
 222:Drivers/STM32WBxx_HAL_Driver/Inc/stm32wbxx_ll_pwr.h ****   */
 223:Drivers/STM32WBxx_HAL_Driver/Inc/stm32wbxx_ll_pwr.h **** 
 224:Drivers/STM32WBxx_HAL_Driver/Inc/stm32wbxx_ll_pwr.h **** /** @defgroup PWR_LL_EC_PVDLEVEL PVDLEVEL
 225:Drivers/STM32WBxx_HAL_Driver/Inc/stm32wbxx_ll_pwr.h ****   * @{
 226:Drivers/STM32WBxx_HAL_Driver/Inc/stm32wbxx_ll_pwr.h ****   */
 227:Drivers/STM32WBxx_HAL_Driver/Inc/stm32wbxx_ll_pwr.h **** #define LL_PWR_PVDLEVEL_0                  (0x00000000U)                                   /* VPVD0
 228:Drivers/STM32WBxx_HAL_Driver/Inc/stm32wbxx_ll_pwr.h **** #define LL_PWR_PVDLEVEL_1                  (PWR_CR2_PLS_0)                                 /* VPVD1
 229:Drivers/STM32WBxx_HAL_Driver/Inc/stm32wbxx_ll_pwr.h **** #define LL_PWR_PVDLEVEL_2                  (PWR_CR2_PLS_1)                                 /* VPVD2
 230:Drivers/STM32WBxx_HAL_Driver/Inc/stm32wbxx_ll_pwr.h **** #define LL_PWR_PVDLEVEL_3                  (PWR_CR2_PLS_1 | PWR_CR2_PLS_0)                 /* VPVD3
 231:Drivers/STM32WBxx_HAL_Driver/Inc/stm32wbxx_ll_pwr.h **** #define LL_PWR_PVDLEVEL_4                  (PWR_CR2_PLS_2)                                 /* VPVD4
 232:Drivers/STM32WBxx_HAL_Driver/Inc/stm32wbxx_ll_pwr.h **** #define LL_PWR_PVDLEVEL_5                  (PWR_CR2_PLS_2 | PWR_CR2_PLS_0)                 /* VPVD5
 233:Drivers/STM32WBxx_HAL_Driver/Inc/stm32wbxx_ll_pwr.h **** #define LL_PWR_PVDLEVEL_6                  (PWR_CR2_PLS_2 | PWR_CR2_PLS_1)                 /* VPVD6
 234:Drivers/STM32WBxx_HAL_Driver/Inc/stm32wbxx_ll_pwr.h **** #define LL_PWR_PVDLEVEL_7                  (PWR_CR2_PLS_2 | PWR_CR2_PLS_1 | PWR_CR2_PLS_0) /* Exter
 235:Drivers/STM32WBxx_HAL_Driver/Inc/stm32wbxx_ll_pwr.h **** /**
 236:Drivers/STM32WBxx_HAL_Driver/Inc/stm32wbxx_ll_pwr.h ****   * @}
 237:Drivers/STM32WBxx_HAL_Driver/Inc/stm32wbxx_ll_pwr.h ****   */
 238:Drivers/STM32WBxx_HAL_Driver/Inc/stm32wbxx_ll_pwr.h **** 
ARM GAS  C:\Users\Nathan\AppData\Local\Temp\ccvsgOlc.s 			page 38


 239:Drivers/STM32WBxx_HAL_Driver/Inc/stm32wbxx_ll_pwr.h **** /** @defgroup PWR_LL_EC_WAKEUP WAKEUP
 240:Drivers/STM32WBxx_HAL_Driver/Inc/stm32wbxx_ll_pwr.h ****   * @{
 241:Drivers/STM32WBxx_HAL_Driver/Inc/stm32wbxx_ll_pwr.h ****   */
 242:Drivers/STM32WBxx_HAL_Driver/Inc/stm32wbxx_ll_pwr.h **** #define LL_PWR_WAKEUP_PIN1                 (PWR_CR3_EWUP1)
 243:Drivers/STM32WBxx_HAL_Driver/Inc/stm32wbxx_ll_pwr.h **** #if defined(PWR_CR3_EWUP2)
 244:Drivers/STM32WBxx_HAL_Driver/Inc/stm32wbxx_ll_pwr.h **** #define LL_PWR_WAKEUP_PIN2                 (PWR_CR3_EWUP2)
 245:Drivers/STM32WBxx_HAL_Driver/Inc/stm32wbxx_ll_pwr.h **** #endif /* PWR_CR3_EWUP2 */
 246:Drivers/STM32WBxx_HAL_Driver/Inc/stm32wbxx_ll_pwr.h **** #if defined(PWR_CR3_EWUP3)
 247:Drivers/STM32WBxx_HAL_Driver/Inc/stm32wbxx_ll_pwr.h **** #define LL_PWR_WAKEUP_PIN3                 (PWR_CR3_EWUP3)
 248:Drivers/STM32WBxx_HAL_Driver/Inc/stm32wbxx_ll_pwr.h **** #endif /* PWR_CR3_EWUP3 */
 249:Drivers/STM32WBxx_HAL_Driver/Inc/stm32wbxx_ll_pwr.h **** #define LL_PWR_WAKEUP_PIN4                 (PWR_CR3_EWUP4)
 250:Drivers/STM32WBxx_HAL_Driver/Inc/stm32wbxx_ll_pwr.h **** #if defined(PWR_CR3_EWUP5)
 251:Drivers/STM32WBxx_HAL_Driver/Inc/stm32wbxx_ll_pwr.h **** #define LL_PWR_WAKEUP_PIN5                 (PWR_CR3_EWUP5)
 252:Drivers/STM32WBxx_HAL_Driver/Inc/stm32wbxx_ll_pwr.h **** #endif /* PWR_CR3_EWUP5 */
 253:Drivers/STM32WBxx_HAL_Driver/Inc/stm32wbxx_ll_pwr.h **** /**
 254:Drivers/STM32WBxx_HAL_Driver/Inc/stm32wbxx_ll_pwr.h ****   * @}
 255:Drivers/STM32WBxx_HAL_Driver/Inc/stm32wbxx_ll_pwr.h ****   */
 256:Drivers/STM32WBxx_HAL_Driver/Inc/stm32wbxx_ll_pwr.h **** 
 257:Drivers/STM32WBxx_HAL_Driver/Inc/stm32wbxx_ll_pwr.h **** /** @defgroup PWR_LL_EC_BATT_CHARG_RESISTOR BATT CHARG RESISTOR
 258:Drivers/STM32WBxx_HAL_Driver/Inc/stm32wbxx_ll_pwr.h ****   * @{
 259:Drivers/STM32WBxx_HAL_Driver/Inc/stm32wbxx_ll_pwr.h ****   */
 260:Drivers/STM32WBxx_HAL_Driver/Inc/stm32wbxx_ll_pwr.h **** #define LL_PWR_BATT_CHARG_RESISTOR_5K      (0x00000000U)
 261:Drivers/STM32WBxx_HAL_Driver/Inc/stm32wbxx_ll_pwr.h **** #define LL_PWR_BATT_CHARGRESISTOR_1_5K     (PWR_CR4_VBRS)
 262:Drivers/STM32WBxx_HAL_Driver/Inc/stm32wbxx_ll_pwr.h **** /**
 263:Drivers/STM32WBxx_HAL_Driver/Inc/stm32wbxx_ll_pwr.h ****   * @}
 264:Drivers/STM32WBxx_HAL_Driver/Inc/stm32wbxx_ll_pwr.h ****   */
 265:Drivers/STM32WBxx_HAL_Driver/Inc/stm32wbxx_ll_pwr.h **** 
 266:Drivers/STM32WBxx_HAL_Driver/Inc/stm32wbxx_ll_pwr.h **** /** @defgroup PWR_LL_EC_GPIO GPIO
 267:Drivers/STM32WBxx_HAL_Driver/Inc/stm32wbxx_ll_pwr.h ****   * @{
 268:Drivers/STM32WBxx_HAL_Driver/Inc/stm32wbxx_ll_pwr.h ****   */
 269:Drivers/STM32WBxx_HAL_Driver/Inc/stm32wbxx_ll_pwr.h **** #define LL_PWR_GPIO_A                      ((uint32_t)(&(PWR->PUCRA)))
 270:Drivers/STM32WBxx_HAL_Driver/Inc/stm32wbxx_ll_pwr.h **** #define LL_PWR_GPIO_B                      ((uint32_t)(&(PWR->PUCRB)))
 271:Drivers/STM32WBxx_HAL_Driver/Inc/stm32wbxx_ll_pwr.h **** #define LL_PWR_GPIO_C                      ((uint32_t)(&(PWR->PUCRC)))
 272:Drivers/STM32WBxx_HAL_Driver/Inc/stm32wbxx_ll_pwr.h **** #define LL_PWR_GPIO_D                      ((uint32_t)(&(PWR->PUCRD)))
 273:Drivers/STM32WBxx_HAL_Driver/Inc/stm32wbxx_ll_pwr.h **** #define LL_PWR_GPIO_E                      ((uint32_t)(&(PWR->PUCRE)))
 274:Drivers/STM32WBxx_HAL_Driver/Inc/stm32wbxx_ll_pwr.h **** #define LL_PWR_GPIO_H                      ((uint32_t)(&(PWR->PUCRH)))
 275:Drivers/STM32WBxx_HAL_Driver/Inc/stm32wbxx_ll_pwr.h **** /**
 276:Drivers/STM32WBxx_HAL_Driver/Inc/stm32wbxx_ll_pwr.h ****   * @}
 277:Drivers/STM32WBxx_HAL_Driver/Inc/stm32wbxx_ll_pwr.h ****   */
 278:Drivers/STM32WBxx_HAL_Driver/Inc/stm32wbxx_ll_pwr.h **** 
 279:Drivers/STM32WBxx_HAL_Driver/Inc/stm32wbxx_ll_pwr.h **** /** @defgroup PWR_LL_EC_GPIO_BIT GPIO BIT
 280:Drivers/STM32WBxx_HAL_Driver/Inc/stm32wbxx_ll_pwr.h ****   * @{
 281:Drivers/STM32WBxx_HAL_Driver/Inc/stm32wbxx_ll_pwr.h ****   */
 282:Drivers/STM32WBxx_HAL_Driver/Inc/stm32wbxx_ll_pwr.h **** #if defined(PWR_PUCRC_PC0)
 283:Drivers/STM32WBxx_HAL_Driver/Inc/stm32wbxx_ll_pwr.h **** /* Note: LL_PWR_GPIO_BIT_x defined from port C because all pins are available */
 284:Drivers/STM32WBxx_HAL_Driver/Inc/stm32wbxx_ll_pwr.h **** /*       for PWR pull-up and pull-down.                                       */
 285:Drivers/STM32WBxx_HAL_Driver/Inc/stm32wbxx_ll_pwr.h **** #define LL_PWR_GPIO_BIT_0                  (PWR_PUCRC_PC0)
 286:Drivers/STM32WBxx_HAL_Driver/Inc/stm32wbxx_ll_pwr.h **** #define LL_PWR_GPIO_BIT_1                  (PWR_PUCRC_PC1)
 287:Drivers/STM32WBxx_HAL_Driver/Inc/stm32wbxx_ll_pwr.h **** #define LL_PWR_GPIO_BIT_2                  (PWR_PUCRC_PC2)
 288:Drivers/STM32WBxx_HAL_Driver/Inc/stm32wbxx_ll_pwr.h **** #define LL_PWR_GPIO_BIT_3                  (PWR_PUCRC_PC3)
 289:Drivers/STM32WBxx_HAL_Driver/Inc/stm32wbxx_ll_pwr.h **** #define LL_PWR_GPIO_BIT_4                  (PWR_PUCRC_PC4)
 290:Drivers/STM32WBxx_HAL_Driver/Inc/stm32wbxx_ll_pwr.h **** #define LL_PWR_GPIO_BIT_5                  (PWR_PUCRC_PC5)
 291:Drivers/STM32WBxx_HAL_Driver/Inc/stm32wbxx_ll_pwr.h **** #define LL_PWR_GPIO_BIT_6                  (PWR_PUCRC_PC6)
 292:Drivers/STM32WBxx_HAL_Driver/Inc/stm32wbxx_ll_pwr.h **** #define LL_PWR_GPIO_BIT_7                  (PWR_PUCRC_PC7)
 293:Drivers/STM32WBxx_HAL_Driver/Inc/stm32wbxx_ll_pwr.h **** #define LL_PWR_GPIO_BIT_8                  (PWR_PUCRC_PC8)
 294:Drivers/STM32WBxx_HAL_Driver/Inc/stm32wbxx_ll_pwr.h **** #define LL_PWR_GPIO_BIT_9                  (PWR_PUCRC_PC9)
 295:Drivers/STM32WBxx_HAL_Driver/Inc/stm32wbxx_ll_pwr.h **** #define LL_PWR_GPIO_BIT_10                 (PWR_PUCRC_PC10)
ARM GAS  C:\Users\Nathan\AppData\Local\Temp\ccvsgOlc.s 			page 39


 296:Drivers/STM32WBxx_HAL_Driver/Inc/stm32wbxx_ll_pwr.h **** #define LL_PWR_GPIO_BIT_11                 (PWR_PUCRC_PC11)
 297:Drivers/STM32WBxx_HAL_Driver/Inc/stm32wbxx_ll_pwr.h **** #define LL_PWR_GPIO_BIT_12                 (PWR_PUCRC_PC12)
 298:Drivers/STM32WBxx_HAL_Driver/Inc/stm32wbxx_ll_pwr.h **** #define LL_PWR_GPIO_BIT_13                 (PWR_PUCRC_PC13)
 299:Drivers/STM32WBxx_HAL_Driver/Inc/stm32wbxx_ll_pwr.h **** #define LL_PWR_GPIO_BIT_14                 (PWR_PUCRC_PC14)
 300:Drivers/STM32WBxx_HAL_Driver/Inc/stm32wbxx_ll_pwr.h **** #define LL_PWR_GPIO_BIT_15                 (PWR_PUCRC_PC15)
 301:Drivers/STM32WBxx_HAL_Driver/Inc/stm32wbxx_ll_pwr.h **** #else
 302:Drivers/STM32WBxx_HAL_Driver/Inc/stm32wbxx_ll_pwr.h **** #define LL_PWR_GPIO_BIT_0                  (PWR_PUCRA_PA0)
 303:Drivers/STM32WBxx_HAL_Driver/Inc/stm32wbxx_ll_pwr.h **** #define LL_PWR_GPIO_BIT_1                  (PWR_PUCRA_PA1)
 304:Drivers/STM32WBxx_HAL_Driver/Inc/stm32wbxx_ll_pwr.h **** #define LL_PWR_GPIO_BIT_2                  (PWR_PUCRA_PA2)
 305:Drivers/STM32WBxx_HAL_Driver/Inc/stm32wbxx_ll_pwr.h **** #define LL_PWR_GPIO_BIT_3                  (PWR_PUCRA_PA3)
 306:Drivers/STM32WBxx_HAL_Driver/Inc/stm32wbxx_ll_pwr.h **** #define LL_PWR_GPIO_BIT_4                  (PWR_PUCRA_PA4)
 307:Drivers/STM32WBxx_HAL_Driver/Inc/stm32wbxx_ll_pwr.h **** #define LL_PWR_GPIO_BIT_5                  (PWR_PUCRA_PA5)
 308:Drivers/STM32WBxx_HAL_Driver/Inc/stm32wbxx_ll_pwr.h **** #define LL_PWR_GPIO_BIT_6                  (PWR_PUCRA_PA6)
 309:Drivers/STM32WBxx_HAL_Driver/Inc/stm32wbxx_ll_pwr.h **** #define LL_PWR_GPIO_BIT_7                  (PWR_PUCRA_PA7)
 310:Drivers/STM32WBxx_HAL_Driver/Inc/stm32wbxx_ll_pwr.h **** #define LL_PWR_GPIO_BIT_8                  (PWR_PUCRA_PA8)
 311:Drivers/STM32WBxx_HAL_Driver/Inc/stm32wbxx_ll_pwr.h **** #define LL_PWR_GPIO_BIT_9                  (PWR_PUCRA_PA9)
 312:Drivers/STM32WBxx_HAL_Driver/Inc/stm32wbxx_ll_pwr.h **** #define LL_PWR_GPIO_BIT_10                 (PWR_PUCRA_PA10)
 313:Drivers/STM32WBxx_HAL_Driver/Inc/stm32wbxx_ll_pwr.h **** #define LL_PWR_GPIO_BIT_11                 (PWR_PUCRA_PA11)
 314:Drivers/STM32WBxx_HAL_Driver/Inc/stm32wbxx_ll_pwr.h **** #define LL_PWR_GPIO_BIT_12                 (PWR_PUCRA_PA12)
 315:Drivers/STM32WBxx_HAL_Driver/Inc/stm32wbxx_ll_pwr.h **** #define LL_PWR_GPIO_BIT_13                 (PWR_PUCRA_PA13)
 316:Drivers/STM32WBxx_HAL_Driver/Inc/stm32wbxx_ll_pwr.h **** #define LL_PWR_GPIO_BIT_14                 (PWR_PUCRC_PC14)
 317:Drivers/STM32WBxx_HAL_Driver/Inc/stm32wbxx_ll_pwr.h **** #define LL_PWR_GPIO_BIT_15                 (PWR_PUCRC_PC15)
 318:Drivers/STM32WBxx_HAL_Driver/Inc/stm32wbxx_ll_pwr.h **** #endif /* PWR_PUCRC_PC0 */
 319:Drivers/STM32WBxx_HAL_Driver/Inc/stm32wbxx_ll_pwr.h **** /**
 320:Drivers/STM32WBxx_HAL_Driver/Inc/stm32wbxx_ll_pwr.h ****   * @}
 321:Drivers/STM32WBxx_HAL_Driver/Inc/stm32wbxx_ll_pwr.h ****   */
 322:Drivers/STM32WBxx_HAL_Driver/Inc/stm32wbxx_ll_pwr.h **** 
 323:Drivers/STM32WBxx_HAL_Driver/Inc/stm32wbxx_ll_pwr.h **** #if defined(PWR_CR5_SMPSEN)
 324:Drivers/STM32WBxx_HAL_Driver/Inc/stm32wbxx_ll_pwr.h **** /** @defgroup PWR_LL_EC_BOR_CONFIGURATION BOR configuration
 325:Drivers/STM32WBxx_HAL_Driver/Inc/stm32wbxx_ll_pwr.h ****   * @{
 326:Drivers/STM32WBxx_HAL_Driver/Inc/stm32wbxx_ll_pwr.h ****   */
 327:Drivers/STM32WBxx_HAL_Driver/Inc/stm32wbxx_ll_pwr.h **** #define LL_PWR_BOR_SYSTEM_RESET            (0x00000000U)     /*!< BOR will generate a system reset 
 328:Drivers/STM32WBxx_HAL_Driver/Inc/stm32wbxx_ll_pwr.h **** #define LL_PWR_BOR_SMPS_FORCE_BYPASS       (PWR_CR5_BORHC)   /*!< BOR will for SMPS step down conve
 329:Drivers/STM32WBxx_HAL_Driver/Inc/stm32wbxx_ll_pwr.h **** /**
 330:Drivers/STM32WBxx_HAL_Driver/Inc/stm32wbxx_ll_pwr.h ****   * @}
 331:Drivers/STM32WBxx_HAL_Driver/Inc/stm32wbxx_ll_pwr.h ****   */
 332:Drivers/STM32WBxx_HAL_Driver/Inc/stm32wbxx_ll_pwr.h **** 
 333:Drivers/STM32WBxx_HAL_Driver/Inc/stm32wbxx_ll_pwr.h **** /** @defgroup PWR_LL_EC_SMPS_OPERATING_MODES SMPS step down converter operating modes
 334:Drivers/STM32WBxx_HAL_Driver/Inc/stm32wbxx_ll_pwr.h ****   * @{
 335:Drivers/STM32WBxx_HAL_Driver/Inc/stm32wbxx_ll_pwr.h ****   */
 336:Drivers/STM32WBxx_HAL_Driver/Inc/stm32wbxx_ll_pwr.h **** /* Note: Literals values are defined from register SR2 bits SMPSF and SMPSBF  */
 337:Drivers/STM32WBxx_HAL_Driver/Inc/stm32wbxx_ll_pwr.h **** /*       but they are also used as register CR5 bits SMPSEN and SMPSBEN,      */
 338:Drivers/STM32WBxx_HAL_Driver/Inc/stm32wbxx_ll_pwr.h **** /*       as used by all SMPS operating mode functions targeting different    */
 339:Drivers/STM32WBxx_HAL_Driver/Inc/stm32wbxx_ll_pwr.h **** /*       registers:                                                           */
 340:Drivers/STM32WBxx_HAL_Driver/Inc/stm32wbxx_ll_pwr.h **** /*       "LL_PWR_SMPS_SetMode()", "LL_PWR_SMPS_GetMode()"                     */
 341:Drivers/STM32WBxx_HAL_Driver/Inc/stm32wbxx_ll_pwr.h **** /*       and "LL_PWR_SMPS_GetEffectiveMode()".                                */
 342:Drivers/STM32WBxx_HAL_Driver/Inc/stm32wbxx_ll_pwr.h **** #define LL_PWR_SMPS_BYPASS                 (PWR_SR2_SMPSBF) /*!< SMPS step down in bypass mode. */
 343:Drivers/STM32WBxx_HAL_Driver/Inc/stm32wbxx_ll_pwr.h **** #define LL_PWR_SMPS_STEP_DOWN              (PWR_SR2_SMPSF)  /*!< SMPS step down in step down mode i
 344:Drivers/STM32WBxx_HAL_Driver/Inc/stm32wbxx_ll_pwr.h **** /**
 345:Drivers/STM32WBxx_HAL_Driver/Inc/stm32wbxx_ll_pwr.h ****   * @}
 346:Drivers/STM32WBxx_HAL_Driver/Inc/stm32wbxx_ll_pwr.h ****   */
 347:Drivers/STM32WBxx_HAL_Driver/Inc/stm32wbxx_ll_pwr.h **** 
 348:Drivers/STM32WBxx_HAL_Driver/Inc/stm32wbxx_ll_pwr.h **** /** @defgroup PWR_LL_EC_SMPS_STARTUP_CURRENT SMPS step down converter supply startup current select
 349:Drivers/STM32WBxx_HAL_Driver/Inc/stm32wbxx_ll_pwr.h ****   * @{
 350:Drivers/STM32WBxx_HAL_Driver/Inc/stm32wbxx_ll_pwr.h ****   */
 351:Drivers/STM32WBxx_HAL_Driver/Inc/stm32wbxx_ll_pwr.h **** #define LL_PWR_SMPS_STARTUP_CURRENT_80MA   (0x00000000U)                                           
 352:Drivers/STM32WBxx_HAL_Driver/Inc/stm32wbxx_ll_pwr.h **** #define LL_PWR_SMPS_STARTUP_CURRENT_100MA  (                                      PWR_CR5_SMPSSC_0)
ARM GAS  C:\Users\Nathan\AppData\Local\Temp\ccvsgOlc.s 			page 40


 353:Drivers/STM32WBxx_HAL_Driver/Inc/stm32wbxx_ll_pwr.h **** #define LL_PWR_SMPS_STARTUP_CURRENT_120MA  (                   PWR_CR5_SMPSSC_1                   )
 354:Drivers/STM32WBxx_HAL_Driver/Inc/stm32wbxx_ll_pwr.h **** #define LL_PWR_SMPS_STARTUP_CURRENT_140MA  (                   PWR_CR5_SMPSSC_1 | PWR_CR5_SMPSSC_0)
 355:Drivers/STM32WBxx_HAL_Driver/Inc/stm32wbxx_ll_pwr.h **** #define LL_PWR_SMPS_STARTUP_CURRENT_160MA  (PWR_CR5_SMPSSC_2                                      )
 356:Drivers/STM32WBxx_HAL_Driver/Inc/stm32wbxx_ll_pwr.h **** #define LL_PWR_SMPS_STARTUP_CURRENT_180MA  (PWR_CR5_SMPSSC_2 |                    PWR_CR5_SMPSSC_0)
 357:Drivers/STM32WBxx_HAL_Driver/Inc/stm32wbxx_ll_pwr.h **** #define LL_PWR_SMPS_STARTUP_CURRENT_200MA  (PWR_CR5_SMPSSC_2 | PWR_CR5_SMPSSC_1                   )
 358:Drivers/STM32WBxx_HAL_Driver/Inc/stm32wbxx_ll_pwr.h **** #define LL_PWR_SMPS_STARTUP_CURRENT_220MA  (PWR_CR5_SMPSSC_2 | PWR_CR5_SMPSSC_1 | PWR_CR5_SMPSSC_0)
 359:Drivers/STM32WBxx_HAL_Driver/Inc/stm32wbxx_ll_pwr.h **** /**
 360:Drivers/STM32WBxx_HAL_Driver/Inc/stm32wbxx_ll_pwr.h ****   * @}
 361:Drivers/STM32WBxx_HAL_Driver/Inc/stm32wbxx_ll_pwr.h ****   */
 362:Drivers/STM32WBxx_HAL_Driver/Inc/stm32wbxx_ll_pwr.h **** 
 363:Drivers/STM32WBxx_HAL_Driver/Inc/stm32wbxx_ll_pwr.h **** /** @defgroup PWR_LL_EC_SMPS_OUTPUT_VOLTAGE_LEVEL SMPS step down converter output voltage scaling v
 364:Drivers/STM32WBxx_HAL_Driver/Inc/stm32wbxx_ll_pwr.h ****   * @{
 365:Drivers/STM32WBxx_HAL_Driver/Inc/stm32wbxx_ll_pwr.h ****   */
 366:Drivers/STM32WBxx_HAL_Driver/Inc/stm32wbxx_ll_pwr.h **** /* Note: SMPS voltage is trimmed during device production to control
 367:Drivers/STM32WBxx_HAL_Driver/Inc/stm32wbxx_ll_pwr.h ****          the actual voltage level variation from device to device. */
 368:Drivers/STM32WBxx_HAL_Driver/Inc/stm32wbxx_ll_pwr.h **** #define LL_PWR_SMPS_OUTPUT_VOLTAGE_1V20  (0x00000000U)                                             
 369:Drivers/STM32WBxx_HAL_Driver/Inc/stm32wbxx_ll_pwr.h **** #define LL_PWR_SMPS_OUTPUT_VOLTAGE_1V25  (                                                         
 370:Drivers/STM32WBxx_HAL_Driver/Inc/stm32wbxx_ll_pwr.h **** #define LL_PWR_SMPS_OUTPUT_VOLTAGE_1V30  (                                        PWR_CR5_SMPSVOS_1
 371:Drivers/STM32WBxx_HAL_Driver/Inc/stm32wbxx_ll_pwr.h **** #define LL_PWR_SMPS_OUTPUT_VOLTAGE_1V35  (                                        PWR_CR5_SMPSVOS_1
 372:Drivers/STM32WBxx_HAL_Driver/Inc/stm32wbxx_ll_pwr.h **** #define LL_PWR_SMPS_OUTPUT_VOLTAGE_1V40  (                    PWR_CR5_SMPSVOS_2                    
 373:Drivers/STM32WBxx_HAL_Driver/Inc/stm32wbxx_ll_pwr.h **** #define LL_PWR_SMPS_OUTPUT_VOLTAGE_1V45  (                    PWR_CR5_SMPSVOS_2 |                  
 374:Drivers/STM32WBxx_HAL_Driver/Inc/stm32wbxx_ll_pwr.h **** #define LL_PWR_SMPS_OUTPUT_VOLTAGE_1V50  (                    PWR_CR5_SMPSVOS_2 | PWR_CR5_SMPSVOS_1
 375:Drivers/STM32WBxx_HAL_Driver/Inc/stm32wbxx_ll_pwr.h **** #define LL_PWR_SMPS_OUTPUT_VOLTAGE_1V55  (                    PWR_CR5_SMPSVOS_2 | PWR_CR5_SMPSVOS_1
 376:Drivers/STM32WBxx_HAL_Driver/Inc/stm32wbxx_ll_pwr.h **** #define LL_PWR_SMPS_OUTPUT_VOLTAGE_1V60  (PWR_CR5_SMPSVOS_3                                        
 377:Drivers/STM32WBxx_HAL_Driver/Inc/stm32wbxx_ll_pwr.h **** #define LL_PWR_SMPS_OUTPUT_VOLTAGE_1V65  (PWR_CR5_SMPSVOS_3 |                                      
 378:Drivers/STM32WBxx_HAL_Driver/Inc/stm32wbxx_ll_pwr.h **** #define LL_PWR_SMPS_OUTPUT_VOLTAGE_1V70  (PWR_CR5_SMPSVOS_3 |                     PWR_CR5_SMPSVOS_1
 379:Drivers/STM32WBxx_HAL_Driver/Inc/stm32wbxx_ll_pwr.h **** #define LL_PWR_SMPS_OUTPUT_VOLTAGE_1V75  (PWR_CR5_SMPSVOS_3 |                     PWR_CR5_SMPSVOS_1
 380:Drivers/STM32WBxx_HAL_Driver/Inc/stm32wbxx_ll_pwr.h **** #define LL_PWR_SMPS_OUTPUT_VOLTAGE_1V80  (PWR_CR5_SMPSVOS_3 | PWR_CR5_SMPSVOS_2                    
 381:Drivers/STM32WBxx_HAL_Driver/Inc/stm32wbxx_ll_pwr.h **** #define LL_PWR_SMPS_OUTPUT_VOLTAGE_1V85  (PWR_CR5_SMPSVOS_3 | PWR_CR5_SMPSVOS_2 |                  
 382:Drivers/STM32WBxx_HAL_Driver/Inc/stm32wbxx_ll_pwr.h **** #define LL_PWR_SMPS_OUTPUT_VOLTAGE_1V90  (PWR_CR5_SMPSVOS_3 | PWR_CR5_SMPSVOS_2 | PWR_CR5_SMPSVOS_1
 383:Drivers/STM32WBxx_HAL_Driver/Inc/stm32wbxx_ll_pwr.h **** /**
 384:Drivers/STM32WBxx_HAL_Driver/Inc/stm32wbxx_ll_pwr.h ****   * @}
 385:Drivers/STM32WBxx_HAL_Driver/Inc/stm32wbxx_ll_pwr.h ****   */
 386:Drivers/STM32WBxx_HAL_Driver/Inc/stm32wbxx_ll_pwr.h **** #endif /* PWR_CR5_SMPSEN */
 387:Drivers/STM32WBxx_HAL_Driver/Inc/stm32wbxx_ll_pwr.h **** 
 388:Drivers/STM32WBxx_HAL_Driver/Inc/stm32wbxx_ll_pwr.h **** /**
 389:Drivers/STM32WBxx_HAL_Driver/Inc/stm32wbxx_ll_pwr.h ****   * @}
 390:Drivers/STM32WBxx_HAL_Driver/Inc/stm32wbxx_ll_pwr.h ****   */
 391:Drivers/STM32WBxx_HAL_Driver/Inc/stm32wbxx_ll_pwr.h **** 
 392:Drivers/STM32WBxx_HAL_Driver/Inc/stm32wbxx_ll_pwr.h **** /* Exported macro ------------------------------------------------------------*/
 393:Drivers/STM32WBxx_HAL_Driver/Inc/stm32wbxx_ll_pwr.h **** /** @defgroup PWR_LL_Exported_Macros PWR Exported Macros
 394:Drivers/STM32WBxx_HAL_Driver/Inc/stm32wbxx_ll_pwr.h ****   * @{
 395:Drivers/STM32WBxx_HAL_Driver/Inc/stm32wbxx_ll_pwr.h ****   */
 396:Drivers/STM32WBxx_HAL_Driver/Inc/stm32wbxx_ll_pwr.h **** 
 397:Drivers/STM32WBxx_HAL_Driver/Inc/stm32wbxx_ll_pwr.h **** /** @defgroup PWR_LL_EM_WRITE_READ Common Write and read registers Macros
 398:Drivers/STM32WBxx_HAL_Driver/Inc/stm32wbxx_ll_pwr.h ****   * @{
 399:Drivers/STM32WBxx_HAL_Driver/Inc/stm32wbxx_ll_pwr.h ****   */
 400:Drivers/STM32WBxx_HAL_Driver/Inc/stm32wbxx_ll_pwr.h **** 
 401:Drivers/STM32WBxx_HAL_Driver/Inc/stm32wbxx_ll_pwr.h **** /**
 402:Drivers/STM32WBxx_HAL_Driver/Inc/stm32wbxx_ll_pwr.h ****   * @brief  Write a value in PWR register
 403:Drivers/STM32WBxx_HAL_Driver/Inc/stm32wbxx_ll_pwr.h ****   * @param  __REG__ Register to be written
 404:Drivers/STM32WBxx_HAL_Driver/Inc/stm32wbxx_ll_pwr.h ****   * @param  __VALUE__ Value to be written in the register
 405:Drivers/STM32WBxx_HAL_Driver/Inc/stm32wbxx_ll_pwr.h ****   * @retval None
 406:Drivers/STM32WBxx_HAL_Driver/Inc/stm32wbxx_ll_pwr.h ****   */
 407:Drivers/STM32WBxx_HAL_Driver/Inc/stm32wbxx_ll_pwr.h **** #define LL_PWR_WriteReg(__REG__, __VALUE__) WRITE_REG(PWR->__REG__, (__VALUE__))
 408:Drivers/STM32WBxx_HAL_Driver/Inc/stm32wbxx_ll_pwr.h **** 
 409:Drivers/STM32WBxx_HAL_Driver/Inc/stm32wbxx_ll_pwr.h **** /**
ARM GAS  C:\Users\Nathan\AppData\Local\Temp\ccvsgOlc.s 			page 41


 410:Drivers/STM32WBxx_HAL_Driver/Inc/stm32wbxx_ll_pwr.h ****   * @brief  Read a value in PWR register
 411:Drivers/STM32WBxx_HAL_Driver/Inc/stm32wbxx_ll_pwr.h ****   * @param  __REG__ Register to be read
 412:Drivers/STM32WBxx_HAL_Driver/Inc/stm32wbxx_ll_pwr.h ****   * @retval Register value
 413:Drivers/STM32WBxx_HAL_Driver/Inc/stm32wbxx_ll_pwr.h ****   */
 414:Drivers/STM32WBxx_HAL_Driver/Inc/stm32wbxx_ll_pwr.h **** #define LL_PWR_ReadReg(__REG__) READ_REG(PWR->__REG__)
 415:Drivers/STM32WBxx_HAL_Driver/Inc/stm32wbxx_ll_pwr.h **** /**
 416:Drivers/STM32WBxx_HAL_Driver/Inc/stm32wbxx_ll_pwr.h ****   * @}
 417:Drivers/STM32WBxx_HAL_Driver/Inc/stm32wbxx_ll_pwr.h ****   */
 418:Drivers/STM32WBxx_HAL_Driver/Inc/stm32wbxx_ll_pwr.h **** 
 419:Drivers/STM32WBxx_HAL_Driver/Inc/stm32wbxx_ll_pwr.h **** /**
 420:Drivers/STM32WBxx_HAL_Driver/Inc/stm32wbxx_ll_pwr.h ****   * @}
 421:Drivers/STM32WBxx_HAL_Driver/Inc/stm32wbxx_ll_pwr.h ****   */
 422:Drivers/STM32WBxx_HAL_Driver/Inc/stm32wbxx_ll_pwr.h **** 
 423:Drivers/STM32WBxx_HAL_Driver/Inc/stm32wbxx_ll_pwr.h **** 
 424:Drivers/STM32WBxx_HAL_Driver/Inc/stm32wbxx_ll_pwr.h **** /* Exported functions --------------------------------------------------------*/
 425:Drivers/STM32WBxx_HAL_Driver/Inc/stm32wbxx_ll_pwr.h **** /** @defgroup PWR_LL_Exported_Functions PWR Exported Functions
 426:Drivers/STM32WBxx_HAL_Driver/Inc/stm32wbxx_ll_pwr.h ****   * @{
 427:Drivers/STM32WBxx_HAL_Driver/Inc/stm32wbxx_ll_pwr.h ****   */
 428:Drivers/STM32WBxx_HAL_Driver/Inc/stm32wbxx_ll_pwr.h **** 
 429:Drivers/STM32WBxx_HAL_Driver/Inc/stm32wbxx_ll_pwr.h **** /** @defgroup PWR_LL_EF_Configuration Configuration
 430:Drivers/STM32WBxx_HAL_Driver/Inc/stm32wbxx_ll_pwr.h ****   * @{
 431:Drivers/STM32WBxx_HAL_Driver/Inc/stm32wbxx_ll_pwr.h ****   */
 432:Drivers/STM32WBxx_HAL_Driver/Inc/stm32wbxx_ll_pwr.h **** 
 433:Drivers/STM32WBxx_HAL_Driver/Inc/stm32wbxx_ll_pwr.h **** /**
 434:Drivers/STM32WBxx_HAL_Driver/Inc/stm32wbxx_ll_pwr.h ****   * @brief  Switch from run main mode to run low-power mode.
 435:Drivers/STM32WBxx_HAL_Driver/Inc/stm32wbxx_ll_pwr.h ****   * @rmtoll CR1          LPR           LL_PWR_EnterLowPowerRunMode
 436:Drivers/STM32WBxx_HAL_Driver/Inc/stm32wbxx_ll_pwr.h ****   * @retval None
 437:Drivers/STM32WBxx_HAL_Driver/Inc/stm32wbxx_ll_pwr.h ****   */
 438:Drivers/STM32WBxx_HAL_Driver/Inc/stm32wbxx_ll_pwr.h **** __STATIC_INLINE void LL_PWR_EnterLowPowerRunMode(void)
 439:Drivers/STM32WBxx_HAL_Driver/Inc/stm32wbxx_ll_pwr.h **** {
 440:Drivers/STM32WBxx_HAL_Driver/Inc/stm32wbxx_ll_pwr.h ****   SET_BIT(PWR->CR1, PWR_CR1_LPR);
 441:Drivers/STM32WBxx_HAL_Driver/Inc/stm32wbxx_ll_pwr.h **** }
 442:Drivers/STM32WBxx_HAL_Driver/Inc/stm32wbxx_ll_pwr.h **** 
 443:Drivers/STM32WBxx_HAL_Driver/Inc/stm32wbxx_ll_pwr.h **** /**
 444:Drivers/STM32WBxx_HAL_Driver/Inc/stm32wbxx_ll_pwr.h ****   * @brief  Switch from run main mode to low-power mode.
 445:Drivers/STM32WBxx_HAL_Driver/Inc/stm32wbxx_ll_pwr.h ****   * @rmtoll CR1          LPR           LL_PWR_ExitLowPowerRunMode
 446:Drivers/STM32WBxx_HAL_Driver/Inc/stm32wbxx_ll_pwr.h ****   * @retval None
 447:Drivers/STM32WBxx_HAL_Driver/Inc/stm32wbxx_ll_pwr.h ****   */
 448:Drivers/STM32WBxx_HAL_Driver/Inc/stm32wbxx_ll_pwr.h **** __STATIC_INLINE void LL_PWR_ExitLowPowerRunMode(void)
 449:Drivers/STM32WBxx_HAL_Driver/Inc/stm32wbxx_ll_pwr.h **** {
 450:Drivers/STM32WBxx_HAL_Driver/Inc/stm32wbxx_ll_pwr.h ****   CLEAR_BIT(PWR->CR1, PWR_CR1_LPR);
 451:Drivers/STM32WBxx_HAL_Driver/Inc/stm32wbxx_ll_pwr.h **** }
 452:Drivers/STM32WBxx_HAL_Driver/Inc/stm32wbxx_ll_pwr.h **** 
 453:Drivers/STM32WBxx_HAL_Driver/Inc/stm32wbxx_ll_pwr.h **** /**
 454:Drivers/STM32WBxx_HAL_Driver/Inc/stm32wbxx_ll_pwr.h ****   * @brief  Check if the regulator is in low-power mode
 455:Drivers/STM32WBxx_HAL_Driver/Inc/stm32wbxx_ll_pwr.h ****   * @rmtoll CR1          LPR           LL_PWR_IsEnabledLowPowerRunMode
 456:Drivers/STM32WBxx_HAL_Driver/Inc/stm32wbxx_ll_pwr.h ****   * @retval State of bit (1 or 0).
 457:Drivers/STM32WBxx_HAL_Driver/Inc/stm32wbxx_ll_pwr.h ****   */
 458:Drivers/STM32WBxx_HAL_Driver/Inc/stm32wbxx_ll_pwr.h **** __STATIC_INLINE uint32_t LL_PWR_IsEnabledLowPowerRunMode(void)
 459:Drivers/STM32WBxx_HAL_Driver/Inc/stm32wbxx_ll_pwr.h **** {
 460:Drivers/STM32WBxx_HAL_Driver/Inc/stm32wbxx_ll_pwr.h ****   return ((READ_BIT(PWR->CR1, PWR_CR1_LPR) == (PWR_CR1_LPR)) ? 1UL : 0UL);
 461:Drivers/STM32WBxx_HAL_Driver/Inc/stm32wbxx_ll_pwr.h **** }
 462:Drivers/STM32WBxx_HAL_Driver/Inc/stm32wbxx_ll_pwr.h **** 
 463:Drivers/STM32WBxx_HAL_Driver/Inc/stm32wbxx_ll_pwr.h **** #if defined(PWR_CR1_VOS)
 464:Drivers/STM32WBxx_HAL_Driver/Inc/stm32wbxx_ll_pwr.h **** /**
 465:Drivers/STM32WBxx_HAL_Driver/Inc/stm32wbxx_ll_pwr.h ****   * @brief  Set the main internal regulator output voltage
 466:Drivers/STM32WBxx_HAL_Driver/Inc/stm32wbxx_ll_pwr.h ****   * @note   A delay is required for the internal regulator to be ready
ARM GAS  C:\Users\Nathan\AppData\Local\Temp\ccvsgOlc.s 			page 42


 467:Drivers/STM32WBxx_HAL_Driver/Inc/stm32wbxx_ll_pwr.h ****   *         after the voltage scaling has been changed.
 468:Drivers/STM32WBxx_HAL_Driver/Inc/stm32wbxx_ll_pwr.h ****   *         Check whether regulator reached the selected voltage level
 469:Drivers/STM32WBxx_HAL_Driver/Inc/stm32wbxx_ll_pwr.h ****   *         can be done using function @ref LL_PWR_IsActiveFlag_VOS().
 470:Drivers/STM32WBxx_HAL_Driver/Inc/stm32wbxx_ll_pwr.h ****   * @rmtoll CR1          VOS           LL_PWR_SetRegulVoltageScaling
 471:Drivers/STM32WBxx_HAL_Driver/Inc/stm32wbxx_ll_pwr.h ****   * @param  VoltageScaling This parameter can be one of the following values:
 472:Drivers/STM32WBxx_HAL_Driver/Inc/stm32wbxx_ll_pwr.h ****   *         @arg @ref LL_PWR_REGU_VOLTAGE_SCALE1
 473:Drivers/STM32WBxx_HAL_Driver/Inc/stm32wbxx_ll_pwr.h ****   *         @arg @ref LL_PWR_REGU_VOLTAGE_SCALE2
 474:Drivers/STM32WBxx_HAL_Driver/Inc/stm32wbxx_ll_pwr.h ****   * @retval None
 475:Drivers/STM32WBxx_HAL_Driver/Inc/stm32wbxx_ll_pwr.h ****   */
 476:Drivers/STM32WBxx_HAL_Driver/Inc/stm32wbxx_ll_pwr.h **** __STATIC_INLINE void LL_PWR_SetRegulVoltageScaling(uint32_t VoltageScaling)
 477:Drivers/STM32WBxx_HAL_Driver/Inc/stm32wbxx_ll_pwr.h **** {
 478:Drivers/STM32WBxx_HAL_Driver/Inc/stm32wbxx_ll_pwr.h ****   MODIFY_REG(PWR->CR1, PWR_CR1_VOS, VoltageScaling);
 479:Drivers/STM32WBxx_HAL_Driver/Inc/stm32wbxx_ll_pwr.h **** }
 480:Drivers/STM32WBxx_HAL_Driver/Inc/stm32wbxx_ll_pwr.h **** 
 481:Drivers/STM32WBxx_HAL_Driver/Inc/stm32wbxx_ll_pwr.h **** /**
 482:Drivers/STM32WBxx_HAL_Driver/Inc/stm32wbxx_ll_pwr.h ****   * @brief  Get the main internal regulator output voltage
 483:Drivers/STM32WBxx_HAL_Driver/Inc/stm32wbxx_ll_pwr.h ****   * @rmtoll CR1          VOS           LL_PWR_GetRegulVoltageScaling
 484:Drivers/STM32WBxx_HAL_Driver/Inc/stm32wbxx_ll_pwr.h ****   * @retval Returned value can be one of the following values:
 485:Drivers/STM32WBxx_HAL_Driver/Inc/stm32wbxx_ll_pwr.h ****   *         @arg @ref LL_PWR_REGU_VOLTAGE_SCALE1
 486:Drivers/STM32WBxx_HAL_Driver/Inc/stm32wbxx_ll_pwr.h ****   *         @arg @ref LL_PWR_REGU_VOLTAGE_SCALE2
 487:Drivers/STM32WBxx_HAL_Driver/Inc/stm32wbxx_ll_pwr.h ****   */
 488:Drivers/STM32WBxx_HAL_Driver/Inc/stm32wbxx_ll_pwr.h **** __STATIC_INLINE uint32_t LL_PWR_GetRegulVoltageScaling(void)
 489:Drivers/STM32WBxx_HAL_Driver/Inc/stm32wbxx_ll_pwr.h **** {
 490:Drivers/STM32WBxx_HAL_Driver/Inc/stm32wbxx_ll_pwr.h ****   return (uint32_t)(READ_BIT(PWR->CR1, PWR_CR1_VOS));
 491:Drivers/STM32WBxx_HAL_Driver/Inc/stm32wbxx_ll_pwr.h **** }
 492:Drivers/STM32WBxx_HAL_Driver/Inc/stm32wbxx_ll_pwr.h **** #endif /* PWR_CR1_VOS */
 493:Drivers/STM32WBxx_HAL_Driver/Inc/stm32wbxx_ll_pwr.h **** 
 494:Drivers/STM32WBxx_HAL_Driver/Inc/stm32wbxx_ll_pwr.h **** /**
 495:Drivers/STM32WBxx_HAL_Driver/Inc/stm32wbxx_ll_pwr.h ****   * @brief  Enable access to the backup domain
 496:Drivers/STM32WBxx_HAL_Driver/Inc/stm32wbxx_ll_pwr.h ****   * @rmtoll CR1          DBP           LL_PWR_EnableBkUpAccess
 497:Drivers/STM32WBxx_HAL_Driver/Inc/stm32wbxx_ll_pwr.h ****   * @retval None
 498:Drivers/STM32WBxx_HAL_Driver/Inc/stm32wbxx_ll_pwr.h ****   */
 499:Drivers/STM32WBxx_HAL_Driver/Inc/stm32wbxx_ll_pwr.h **** __STATIC_INLINE void LL_PWR_EnableBkUpAccess(void)
 500:Drivers/STM32WBxx_HAL_Driver/Inc/stm32wbxx_ll_pwr.h **** {
 501:Drivers/STM32WBxx_HAL_Driver/Inc/stm32wbxx_ll_pwr.h ****   SET_BIT(PWR->CR1, PWR_CR1_DBP);
 502:Drivers/STM32WBxx_HAL_Driver/Inc/stm32wbxx_ll_pwr.h **** }
 503:Drivers/STM32WBxx_HAL_Driver/Inc/stm32wbxx_ll_pwr.h **** 
 504:Drivers/STM32WBxx_HAL_Driver/Inc/stm32wbxx_ll_pwr.h **** /**
 505:Drivers/STM32WBxx_HAL_Driver/Inc/stm32wbxx_ll_pwr.h ****   * @brief  Disable access to the backup domain
 506:Drivers/STM32WBxx_HAL_Driver/Inc/stm32wbxx_ll_pwr.h ****   * @rmtoll CR1          DBP           LL_PWR_DisableBkUpAccess
 507:Drivers/STM32WBxx_HAL_Driver/Inc/stm32wbxx_ll_pwr.h ****   * @retval None
 508:Drivers/STM32WBxx_HAL_Driver/Inc/stm32wbxx_ll_pwr.h ****   */
 509:Drivers/STM32WBxx_HAL_Driver/Inc/stm32wbxx_ll_pwr.h **** __STATIC_INLINE void LL_PWR_DisableBkUpAccess(void)
 510:Drivers/STM32WBxx_HAL_Driver/Inc/stm32wbxx_ll_pwr.h **** {
 511:Drivers/STM32WBxx_HAL_Driver/Inc/stm32wbxx_ll_pwr.h ****   CLEAR_BIT(PWR->CR1, PWR_CR1_DBP);
 512:Drivers/STM32WBxx_HAL_Driver/Inc/stm32wbxx_ll_pwr.h **** }
 513:Drivers/STM32WBxx_HAL_Driver/Inc/stm32wbxx_ll_pwr.h **** 
 514:Drivers/STM32WBxx_HAL_Driver/Inc/stm32wbxx_ll_pwr.h **** /**
 515:Drivers/STM32WBxx_HAL_Driver/Inc/stm32wbxx_ll_pwr.h ****   * @brief  Check if the backup domain is enabled
 516:Drivers/STM32WBxx_HAL_Driver/Inc/stm32wbxx_ll_pwr.h ****   * @rmtoll CR1          DBP           LL_PWR_IsEnabledBkUpAccess
 517:Drivers/STM32WBxx_HAL_Driver/Inc/stm32wbxx_ll_pwr.h ****   * @retval State of bit (1 or 0).
 518:Drivers/STM32WBxx_HAL_Driver/Inc/stm32wbxx_ll_pwr.h ****   */
 519:Drivers/STM32WBxx_HAL_Driver/Inc/stm32wbxx_ll_pwr.h **** __STATIC_INLINE uint32_t LL_PWR_IsEnabledBkUpAccess(void)
 520:Drivers/STM32WBxx_HAL_Driver/Inc/stm32wbxx_ll_pwr.h **** {
 521:Drivers/STM32WBxx_HAL_Driver/Inc/stm32wbxx_ll_pwr.h ****   return ((READ_BIT(PWR->CR1, PWR_CR1_DBP) == (PWR_CR1_DBP)) ? 1UL : 0UL);
 522:Drivers/STM32WBxx_HAL_Driver/Inc/stm32wbxx_ll_pwr.h **** }
 523:Drivers/STM32WBxx_HAL_Driver/Inc/stm32wbxx_ll_pwr.h **** 
ARM GAS  C:\Users\Nathan\AppData\Local\Temp\ccvsgOlc.s 			page 43


 524:Drivers/STM32WBxx_HAL_Driver/Inc/stm32wbxx_ll_pwr.h **** /**
 525:Drivers/STM32WBxx_HAL_Driver/Inc/stm32wbxx_ll_pwr.h ****   * @brief  Set Low-Power mode
 526:Drivers/STM32WBxx_HAL_Driver/Inc/stm32wbxx_ll_pwr.h ****   * @rmtoll CR1          LPMS          LL_PWR_SetPowerMode
 527:Drivers/STM32WBxx_HAL_Driver/Inc/stm32wbxx_ll_pwr.h ****   * @param  LowPowerMode This parameter can be one of the following values:
 528:Drivers/STM32WBxx_HAL_Driver/Inc/stm32wbxx_ll_pwr.h ****   *         @arg @ref LL_PWR_MODE_STOP0
 529:Drivers/STM32WBxx_HAL_Driver/Inc/stm32wbxx_ll_pwr.h ****   *         @arg @ref LL_PWR_MODE_STOP1
 530:Drivers/STM32WBxx_HAL_Driver/Inc/stm32wbxx_ll_pwr.h ****   *         @arg @ref LL_PWR_MODE_STOP2 (*)
 531:Drivers/STM32WBxx_HAL_Driver/Inc/stm32wbxx_ll_pwr.h ****   *         @arg @ref LL_PWR_MODE_STANDBY
 532:Drivers/STM32WBxx_HAL_Driver/Inc/stm32wbxx_ll_pwr.h ****   *         @arg @ref LL_PWR_MODE_SHUTDOWN
 533:Drivers/STM32WBxx_HAL_Driver/Inc/stm32wbxx_ll_pwr.h ****   *
 534:Drivers/STM32WBxx_HAL_Driver/Inc/stm32wbxx_ll_pwr.h ****   *         (*) Not available on devices STM32WB15xx, STM32WB10xx, STM32WB1Mxx
 535:Drivers/STM32WBxx_HAL_Driver/Inc/stm32wbxx_ll_pwr.h ****   * @retval None
 536:Drivers/STM32WBxx_HAL_Driver/Inc/stm32wbxx_ll_pwr.h ****   */
 537:Drivers/STM32WBxx_HAL_Driver/Inc/stm32wbxx_ll_pwr.h **** __STATIC_INLINE void LL_PWR_SetPowerMode(uint32_t LowPowerMode)
 538:Drivers/STM32WBxx_HAL_Driver/Inc/stm32wbxx_ll_pwr.h **** {
 539:Drivers/STM32WBxx_HAL_Driver/Inc/stm32wbxx_ll_pwr.h ****   MODIFY_REG(PWR->CR1, PWR_CR1_LPMS, LowPowerMode);
 540:Drivers/STM32WBxx_HAL_Driver/Inc/stm32wbxx_ll_pwr.h **** }
 541:Drivers/STM32WBxx_HAL_Driver/Inc/stm32wbxx_ll_pwr.h **** 
 542:Drivers/STM32WBxx_HAL_Driver/Inc/stm32wbxx_ll_pwr.h **** /**
 543:Drivers/STM32WBxx_HAL_Driver/Inc/stm32wbxx_ll_pwr.h ****   * @brief  Get Low-Power mode
 544:Drivers/STM32WBxx_HAL_Driver/Inc/stm32wbxx_ll_pwr.h ****   * @rmtoll CR1          LPMS          LL_PWR_GetPowerMode
 545:Drivers/STM32WBxx_HAL_Driver/Inc/stm32wbxx_ll_pwr.h ****   * @retval Returned value can be one of the following values:
 546:Drivers/STM32WBxx_HAL_Driver/Inc/stm32wbxx_ll_pwr.h ****   *         @arg @ref LL_PWR_MODE_STOP0
 547:Drivers/STM32WBxx_HAL_Driver/Inc/stm32wbxx_ll_pwr.h ****   *         @arg @ref LL_PWR_MODE_STOP1
 548:Drivers/STM32WBxx_HAL_Driver/Inc/stm32wbxx_ll_pwr.h ****   *         @arg @ref LL_PWR_MODE_STOP2 (*)
 549:Drivers/STM32WBxx_HAL_Driver/Inc/stm32wbxx_ll_pwr.h ****   *         @arg @ref LL_PWR_MODE_STANDBY
 550:Drivers/STM32WBxx_HAL_Driver/Inc/stm32wbxx_ll_pwr.h ****   *         @arg @ref LL_PWR_MODE_SHUTDOWN
 551:Drivers/STM32WBxx_HAL_Driver/Inc/stm32wbxx_ll_pwr.h ****   *
 552:Drivers/STM32WBxx_HAL_Driver/Inc/stm32wbxx_ll_pwr.h ****   *         (*) Not available on devices STM32WB15xx, STM32WB10xx, STM32WB1Mxx
 553:Drivers/STM32WBxx_HAL_Driver/Inc/stm32wbxx_ll_pwr.h ****   */
 554:Drivers/STM32WBxx_HAL_Driver/Inc/stm32wbxx_ll_pwr.h **** __STATIC_INLINE uint32_t LL_PWR_GetPowerMode(void)
 555:Drivers/STM32WBxx_HAL_Driver/Inc/stm32wbxx_ll_pwr.h **** {
 556:Drivers/STM32WBxx_HAL_Driver/Inc/stm32wbxx_ll_pwr.h ****   return (uint32_t)(READ_BIT(PWR->CR1, PWR_CR1_LPMS));
 557:Drivers/STM32WBxx_HAL_Driver/Inc/stm32wbxx_ll_pwr.h **** }
 558:Drivers/STM32WBxx_HAL_Driver/Inc/stm32wbxx_ll_pwr.h **** 
 559:Drivers/STM32WBxx_HAL_Driver/Inc/stm32wbxx_ll_pwr.h **** /**
 560:Drivers/STM32WBxx_HAL_Driver/Inc/stm32wbxx_ll_pwr.h ****   * @brief  Set flash power-down mode during low-power run mode
 561:Drivers/STM32WBxx_HAL_Driver/Inc/stm32wbxx_ll_pwr.h ****   * @rmtoll CR1          FPDR          LL_PWR_SetFlashPowerModeLPRun
 562:Drivers/STM32WBxx_HAL_Driver/Inc/stm32wbxx_ll_pwr.h ****   * @param  FlashLowPowerMode This parameter can be one of the following values:
 563:Drivers/STM32WBxx_HAL_Driver/Inc/stm32wbxx_ll_pwr.h ****   *         @arg @ref LL_PWR_FLASH_LPRUN_MODE_IDLE
 564:Drivers/STM32WBxx_HAL_Driver/Inc/stm32wbxx_ll_pwr.h ****   *         @arg @ref LL_PWR_FLASH_LPRUN_MODE_POWER_DOWN
 565:Drivers/STM32WBxx_HAL_Driver/Inc/stm32wbxx_ll_pwr.h ****   * @retval None
 566:Drivers/STM32WBxx_HAL_Driver/Inc/stm32wbxx_ll_pwr.h ****   */
 567:Drivers/STM32WBxx_HAL_Driver/Inc/stm32wbxx_ll_pwr.h **** __STATIC_INLINE void LL_PWR_SetFlashPowerModeLPRun(uint32_t FlashLowPowerMode)
 568:Drivers/STM32WBxx_HAL_Driver/Inc/stm32wbxx_ll_pwr.h **** {
 569:Drivers/STM32WBxx_HAL_Driver/Inc/stm32wbxx_ll_pwr.h ****   /* Unlock bit FPDR */
 570:Drivers/STM32WBxx_HAL_Driver/Inc/stm32wbxx_ll_pwr.h ****   WRITE_REG(PWR->CR1, 0x0000C1B0UL);
 571:Drivers/STM32WBxx_HAL_Driver/Inc/stm32wbxx_ll_pwr.h **** 
 572:Drivers/STM32WBxx_HAL_Driver/Inc/stm32wbxx_ll_pwr.h ****   /* Update bit FPDR */
 573:Drivers/STM32WBxx_HAL_Driver/Inc/stm32wbxx_ll_pwr.h ****   MODIFY_REG(PWR->CR1, PWR_CR1_FPDR, FlashLowPowerMode);
 574:Drivers/STM32WBxx_HAL_Driver/Inc/stm32wbxx_ll_pwr.h **** }
 575:Drivers/STM32WBxx_HAL_Driver/Inc/stm32wbxx_ll_pwr.h **** 
 576:Drivers/STM32WBxx_HAL_Driver/Inc/stm32wbxx_ll_pwr.h **** /**
 577:Drivers/STM32WBxx_HAL_Driver/Inc/stm32wbxx_ll_pwr.h ****   * @brief  Get flash power-down mode during low-power run mode
 578:Drivers/STM32WBxx_HAL_Driver/Inc/stm32wbxx_ll_pwr.h ****   * @rmtoll CR1          FPDR          LL_PWR_GetFlashPowerModeLPRun
 579:Drivers/STM32WBxx_HAL_Driver/Inc/stm32wbxx_ll_pwr.h ****   * @retval Returned value can be one of the following values:
 580:Drivers/STM32WBxx_HAL_Driver/Inc/stm32wbxx_ll_pwr.h ****   *         @arg @ref LL_PWR_FLASH_LPRUN_MODE_IDLE
ARM GAS  C:\Users\Nathan\AppData\Local\Temp\ccvsgOlc.s 			page 44


 581:Drivers/STM32WBxx_HAL_Driver/Inc/stm32wbxx_ll_pwr.h ****   *         @arg @ref LL_PWR_FLASH_LPRUN_MODE_POWER_DOWN
 582:Drivers/STM32WBxx_HAL_Driver/Inc/stm32wbxx_ll_pwr.h ****   */
 583:Drivers/STM32WBxx_HAL_Driver/Inc/stm32wbxx_ll_pwr.h **** __STATIC_INLINE uint32_t LL_PWR_GetFlashPowerModeLPRun(void)
 584:Drivers/STM32WBxx_HAL_Driver/Inc/stm32wbxx_ll_pwr.h **** {
 585:Drivers/STM32WBxx_HAL_Driver/Inc/stm32wbxx_ll_pwr.h ****   return (uint32_t)(READ_BIT(PWR->CR1, PWR_CR1_FPDR));
 586:Drivers/STM32WBxx_HAL_Driver/Inc/stm32wbxx_ll_pwr.h **** }
 587:Drivers/STM32WBxx_HAL_Driver/Inc/stm32wbxx_ll_pwr.h **** 
 588:Drivers/STM32WBxx_HAL_Driver/Inc/stm32wbxx_ll_pwr.h **** /**
 589:Drivers/STM32WBxx_HAL_Driver/Inc/stm32wbxx_ll_pwr.h ****   * @brief  Set flash power-down mode during sleep mode
 590:Drivers/STM32WBxx_HAL_Driver/Inc/stm32wbxx_ll_pwr.h ****   * @rmtoll CR1          FPDS          LL_PWR_SetFlashPowerModeSleep
 591:Drivers/STM32WBxx_HAL_Driver/Inc/stm32wbxx_ll_pwr.h ****   * @param  FlashLowPowerMode This parameter can be one of the following values:
 592:Drivers/STM32WBxx_HAL_Driver/Inc/stm32wbxx_ll_pwr.h ****   *         @arg @ref LL_PWR_FLASH_SLEEP_MODE_IDLE
 593:Drivers/STM32WBxx_HAL_Driver/Inc/stm32wbxx_ll_pwr.h ****   *         @arg @ref LL_PWR_FLASH_SLEEP_MODE_POWER_DOWN
 594:Drivers/STM32WBxx_HAL_Driver/Inc/stm32wbxx_ll_pwr.h ****   * @retval None
 595:Drivers/STM32WBxx_HAL_Driver/Inc/stm32wbxx_ll_pwr.h ****   */
 596:Drivers/STM32WBxx_HAL_Driver/Inc/stm32wbxx_ll_pwr.h **** __STATIC_INLINE void LL_PWR_SetFlashPowerModeSleep(uint32_t FlashLowPowerMode)
 597:Drivers/STM32WBxx_HAL_Driver/Inc/stm32wbxx_ll_pwr.h **** {
 598:Drivers/STM32WBxx_HAL_Driver/Inc/stm32wbxx_ll_pwr.h ****   MODIFY_REG(PWR->CR1, PWR_CR1_FPDS, FlashLowPowerMode);
 599:Drivers/STM32WBxx_HAL_Driver/Inc/stm32wbxx_ll_pwr.h **** }
 600:Drivers/STM32WBxx_HAL_Driver/Inc/stm32wbxx_ll_pwr.h **** 
 601:Drivers/STM32WBxx_HAL_Driver/Inc/stm32wbxx_ll_pwr.h **** /**
 602:Drivers/STM32WBxx_HAL_Driver/Inc/stm32wbxx_ll_pwr.h ****   * @brief  Get flash power-down mode during sleep mode
 603:Drivers/STM32WBxx_HAL_Driver/Inc/stm32wbxx_ll_pwr.h ****   * @rmtoll CR1          FPDS          LL_PWR_GetFlashPowerModeSleep
 604:Drivers/STM32WBxx_HAL_Driver/Inc/stm32wbxx_ll_pwr.h ****   * @retval Returned value can be one of the following values:
 605:Drivers/STM32WBxx_HAL_Driver/Inc/stm32wbxx_ll_pwr.h ****   *         @arg @ref LL_PWR_FLASH_SLEEP_MODE_IDLE
 606:Drivers/STM32WBxx_HAL_Driver/Inc/stm32wbxx_ll_pwr.h ****   *         @arg @ref LL_PWR_FLASH_SLEEP_MODE_POWER_DOWN
 607:Drivers/STM32WBxx_HAL_Driver/Inc/stm32wbxx_ll_pwr.h ****   */
 608:Drivers/STM32WBxx_HAL_Driver/Inc/stm32wbxx_ll_pwr.h **** __STATIC_INLINE uint32_t LL_PWR_GetFlashPowerModeSleep(void)
 609:Drivers/STM32WBxx_HAL_Driver/Inc/stm32wbxx_ll_pwr.h **** {
 610:Drivers/STM32WBxx_HAL_Driver/Inc/stm32wbxx_ll_pwr.h ****   return (uint32_t)(READ_BIT(PWR->CR1, PWR_CR1_FPDS));
 611:Drivers/STM32WBxx_HAL_Driver/Inc/stm32wbxx_ll_pwr.h **** }
 612:Drivers/STM32WBxx_HAL_Driver/Inc/stm32wbxx_ll_pwr.h **** 
 613:Drivers/STM32WBxx_HAL_Driver/Inc/stm32wbxx_ll_pwr.h **** #if defined(PWR_CR2_PVME1)
 614:Drivers/STM32WBxx_HAL_Driver/Inc/stm32wbxx_ll_pwr.h **** /**
 615:Drivers/STM32WBxx_HAL_Driver/Inc/stm32wbxx_ll_pwr.h ****   * @brief  Enable VDDUSB supply
 616:Drivers/STM32WBxx_HAL_Driver/Inc/stm32wbxx_ll_pwr.h ****   * @rmtoll CR2          USV           LL_PWR_EnableVddUSB
 617:Drivers/STM32WBxx_HAL_Driver/Inc/stm32wbxx_ll_pwr.h ****   * @retval None
 618:Drivers/STM32WBxx_HAL_Driver/Inc/stm32wbxx_ll_pwr.h ****   */
 619:Drivers/STM32WBxx_HAL_Driver/Inc/stm32wbxx_ll_pwr.h **** __STATIC_INLINE void LL_PWR_EnableVddUSB(void)
 620:Drivers/STM32WBxx_HAL_Driver/Inc/stm32wbxx_ll_pwr.h **** {
 621:Drivers/STM32WBxx_HAL_Driver/Inc/stm32wbxx_ll_pwr.h ****   SET_BIT(PWR->CR2, PWR_CR2_USV);
 622:Drivers/STM32WBxx_HAL_Driver/Inc/stm32wbxx_ll_pwr.h **** }
 623:Drivers/STM32WBxx_HAL_Driver/Inc/stm32wbxx_ll_pwr.h **** 
 624:Drivers/STM32WBxx_HAL_Driver/Inc/stm32wbxx_ll_pwr.h **** /**
 625:Drivers/STM32WBxx_HAL_Driver/Inc/stm32wbxx_ll_pwr.h ****   * @brief  Disable VDDUSB supply
 626:Drivers/STM32WBxx_HAL_Driver/Inc/stm32wbxx_ll_pwr.h ****   * @rmtoll CR2          USV           LL_PWR_DisableVddUSB
 627:Drivers/STM32WBxx_HAL_Driver/Inc/stm32wbxx_ll_pwr.h ****   * @retval None
 628:Drivers/STM32WBxx_HAL_Driver/Inc/stm32wbxx_ll_pwr.h ****   */
 629:Drivers/STM32WBxx_HAL_Driver/Inc/stm32wbxx_ll_pwr.h **** __STATIC_INLINE void LL_PWR_DisableVddUSB(void)
 630:Drivers/STM32WBxx_HAL_Driver/Inc/stm32wbxx_ll_pwr.h **** {
 631:Drivers/STM32WBxx_HAL_Driver/Inc/stm32wbxx_ll_pwr.h ****   CLEAR_BIT(PWR->CR2, PWR_CR2_USV);
 632:Drivers/STM32WBxx_HAL_Driver/Inc/stm32wbxx_ll_pwr.h **** }
 633:Drivers/STM32WBxx_HAL_Driver/Inc/stm32wbxx_ll_pwr.h **** 
 634:Drivers/STM32WBxx_HAL_Driver/Inc/stm32wbxx_ll_pwr.h **** /**
 635:Drivers/STM32WBxx_HAL_Driver/Inc/stm32wbxx_ll_pwr.h ****   * @brief  Check if VDDUSB supply is enabled
 636:Drivers/STM32WBxx_HAL_Driver/Inc/stm32wbxx_ll_pwr.h ****   * @rmtoll CR2          USV           LL_PWR_IsEnabledVddUSB
 637:Drivers/STM32WBxx_HAL_Driver/Inc/stm32wbxx_ll_pwr.h ****   * @retval State of bit (1 or 0).
ARM GAS  C:\Users\Nathan\AppData\Local\Temp\ccvsgOlc.s 			page 45


 638:Drivers/STM32WBxx_HAL_Driver/Inc/stm32wbxx_ll_pwr.h ****   */
 639:Drivers/STM32WBxx_HAL_Driver/Inc/stm32wbxx_ll_pwr.h **** __STATIC_INLINE uint32_t LL_PWR_IsEnabledVddUSB(void)
 640:Drivers/STM32WBxx_HAL_Driver/Inc/stm32wbxx_ll_pwr.h **** {
 641:Drivers/STM32WBxx_HAL_Driver/Inc/stm32wbxx_ll_pwr.h ****   return ((READ_BIT(PWR->CR2, PWR_CR2_USV) == (PWR_CR2_USV)) ? 1UL : 0UL);
 642:Drivers/STM32WBxx_HAL_Driver/Inc/stm32wbxx_ll_pwr.h **** }
 643:Drivers/STM32WBxx_HAL_Driver/Inc/stm32wbxx_ll_pwr.h **** #endif
 644:Drivers/STM32WBxx_HAL_Driver/Inc/stm32wbxx_ll_pwr.h **** 
 645:Drivers/STM32WBxx_HAL_Driver/Inc/stm32wbxx_ll_pwr.h **** /**
 646:Drivers/STM32WBxx_HAL_Driver/Inc/stm32wbxx_ll_pwr.h ****   * @brief  Enable the Power Voltage Monitoring on a peripheral
 647:Drivers/STM32WBxx_HAL_Driver/Inc/stm32wbxx_ll_pwr.h ****   * @rmtoll CR2          PVME1         LL_PWR_EnablePVM\n
 648:Drivers/STM32WBxx_HAL_Driver/Inc/stm32wbxx_ll_pwr.h ****   *         CR2          PVME3         LL_PWR_EnablePVM
 649:Drivers/STM32WBxx_HAL_Driver/Inc/stm32wbxx_ll_pwr.h ****   * @param  PeriphVoltage This parameter can be one of the following values:
 650:Drivers/STM32WBxx_HAL_Driver/Inc/stm32wbxx_ll_pwr.h ****   *         @arg @ref LL_PWR_PVM_VDDUSB_1_2V (*)
 651:Drivers/STM32WBxx_HAL_Driver/Inc/stm32wbxx_ll_pwr.h ****   *         @arg @ref LL_PWR_PVM_VDDA_1_62V
 652:Drivers/STM32WBxx_HAL_Driver/Inc/stm32wbxx_ll_pwr.h ****   *
 653:Drivers/STM32WBxx_HAL_Driver/Inc/stm32wbxx_ll_pwr.h ****   *         (*) Not available on devices STM32WB50xx, STM32WB30xx, STM32WB15xx, STM32WB10xx, STM32W
 654:Drivers/STM32WBxx_HAL_Driver/Inc/stm32wbxx_ll_pwr.h ****   * @retval None
 655:Drivers/STM32WBxx_HAL_Driver/Inc/stm32wbxx_ll_pwr.h ****   */
 656:Drivers/STM32WBxx_HAL_Driver/Inc/stm32wbxx_ll_pwr.h **** __STATIC_INLINE void LL_PWR_EnablePVM(uint32_t PeriphVoltage)
 657:Drivers/STM32WBxx_HAL_Driver/Inc/stm32wbxx_ll_pwr.h **** {
 658:Drivers/STM32WBxx_HAL_Driver/Inc/stm32wbxx_ll_pwr.h ****   SET_BIT(PWR->CR2, PeriphVoltage);
 659:Drivers/STM32WBxx_HAL_Driver/Inc/stm32wbxx_ll_pwr.h **** }
 660:Drivers/STM32WBxx_HAL_Driver/Inc/stm32wbxx_ll_pwr.h **** 
 661:Drivers/STM32WBxx_HAL_Driver/Inc/stm32wbxx_ll_pwr.h **** /**
 662:Drivers/STM32WBxx_HAL_Driver/Inc/stm32wbxx_ll_pwr.h ****   * @brief  Disable the Power Voltage Monitoring on a peripheral
 663:Drivers/STM32WBxx_HAL_Driver/Inc/stm32wbxx_ll_pwr.h ****   * @rmtoll CR2          PVME1         LL_PWR_DisablePVM\n
 664:Drivers/STM32WBxx_HAL_Driver/Inc/stm32wbxx_ll_pwr.h ****   *         CR2          PVME3         LL_PWR_DisablePVM
 665:Drivers/STM32WBxx_HAL_Driver/Inc/stm32wbxx_ll_pwr.h ****   * @param  PeriphVoltage This parameter can be one of the following values:
 666:Drivers/STM32WBxx_HAL_Driver/Inc/stm32wbxx_ll_pwr.h ****   *         @arg @ref LL_PWR_PVM_VDDUSB_1_2V (*)
 667:Drivers/STM32WBxx_HAL_Driver/Inc/stm32wbxx_ll_pwr.h ****   *         @arg @ref LL_PWR_PVM_VDDA_1_62V
 668:Drivers/STM32WBxx_HAL_Driver/Inc/stm32wbxx_ll_pwr.h ****   *
 669:Drivers/STM32WBxx_HAL_Driver/Inc/stm32wbxx_ll_pwr.h ****   *         (*) Not available on devices STM32WB50xx, STM32WB30xx, STM32WB15xx, STM32WB10xx, STM32W
 670:Drivers/STM32WBxx_HAL_Driver/Inc/stm32wbxx_ll_pwr.h ****   * @retval None
 671:Drivers/STM32WBxx_HAL_Driver/Inc/stm32wbxx_ll_pwr.h ****   */
 672:Drivers/STM32WBxx_HAL_Driver/Inc/stm32wbxx_ll_pwr.h **** __STATIC_INLINE void LL_PWR_DisablePVM(uint32_t PeriphVoltage)
 673:Drivers/STM32WBxx_HAL_Driver/Inc/stm32wbxx_ll_pwr.h **** {
 674:Drivers/STM32WBxx_HAL_Driver/Inc/stm32wbxx_ll_pwr.h ****   CLEAR_BIT(PWR->CR2, PeriphVoltage);
 675:Drivers/STM32WBxx_HAL_Driver/Inc/stm32wbxx_ll_pwr.h **** }
 676:Drivers/STM32WBxx_HAL_Driver/Inc/stm32wbxx_ll_pwr.h **** 
 677:Drivers/STM32WBxx_HAL_Driver/Inc/stm32wbxx_ll_pwr.h **** /**
 678:Drivers/STM32WBxx_HAL_Driver/Inc/stm32wbxx_ll_pwr.h ****   * @brief  Check if Power Voltage Monitoring is enabled on a peripheral
 679:Drivers/STM32WBxx_HAL_Driver/Inc/stm32wbxx_ll_pwr.h ****   * @rmtoll CR2          PVME1         LL_PWR_IsEnabledPVM\n
 680:Drivers/STM32WBxx_HAL_Driver/Inc/stm32wbxx_ll_pwr.h ****   *         CR2          PVME3         LL_PWR_IsEnabledPVM
 681:Drivers/STM32WBxx_HAL_Driver/Inc/stm32wbxx_ll_pwr.h ****   * @param  PeriphVoltage This parameter can be one of the following values:
 682:Drivers/STM32WBxx_HAL_Driver/Inc/stm32wbxx_ll_pwr.h ****   *         @arg @ref LL_PWR_PVM_VDDUSB_1_2V (*)
 683:Drivers/STM32WBxx_HAL_Driver/Inc/stm32wbxx_ll_pwr.h ****   *         @arg @ref LL_PWR_PVM_VDDA_1_62V
 684:Drivers/STM32WBxx_HAL_Driver/Inc/stm32wbxx_ll_pwr.h ****   *
 685:Drivers/STM32WBxx_HAL_Driver/Inc/stm32wbxx_ll_pwr.h ****   *         (*) Not available on devices STM32WB50xx, STM32WB30xx, STM32WB15xx, STM32WB10xx, STM32W
 686:Drivers/STM32WBxx_HAL_Driver/Inc/stm32wbxx_ll_pwr.h ****   * @retval State of bit (1 or 0).
 687:Drivers/STM32WBxx_HAL_Driver/Inc/stm32wbxx_ll_pwr.h ****   */
 688:Drivers/STM32WBxx_HAL_Driver/Inc/stm32wbxx_ll_pwr.h **** __STATIC_INLINE uint32_t LL_PWR_IsEnabledPVM(uint32_t PeriphVoltage)
 689:Drivers/STM32WBxx_HAL_Driver/Inc/stm32wbxx_ll_pwr.h **** {
 690:Drivers/STM32WBxx_HAL_Driver/Inc/stm32wbxx_ll_pwr.h ****   return ((READ_BIT(PWR->CR2, PeriphVoltage) == (PeriphVoltage)) ? 1UL : 0UL);
 691:Drivers/STM32WBxx_HAL_Driver/Inc/stm32wbxx_ll_pwr.h **** }
 692:Drivers/STM32WBxx_HAL_Driver/Inc/stm32wbxx_ll_pwr.h **** 
 693:Drivers/STM32WBxx_HAL_Driver/Inc/stm32wbxx_ll_pwr.h **** /**
 694:Drivers/STM32WBxx_HAL_Driver/Inc/stm32wbxx_ll_pwr.h ****   * @brief  Configure the voltage threshold detected by the Power Voltage Detector
ARM GAS  C:\Users\Nathan\AppData\Local\Temp\ccvsgOlc.s 			page 46


 695:Drivers/STM32WBxx_HAL_Driver/Inc/stm32wbxx_ll_pwr.h ****   * @rmtoll CR2          PLS           LL_PWR_SetPVDLevel
 696:Drivers/STM32WBxx_HAL_Driver/Inc/stm32wbxx_ll_pwr.h ****   * @param  PVDLevel This parameter can be one of the following values:
 697:Drivers/STM32WBxx_HAL_Driver/Inc/stm32wbxx_ll_pwr.h ****   *         @arg @ref LL_PWR_PVDLEVEL_0
 698:Drivers/STM32WBxx_HAL_Driver/Inc/stm32wbxx_ll_pwr.h ****   *         @arg @ref LL_PWR_PVDLEVEL_1
 699:Drivers/STM32WBxx_HAL_Driver/Inc/stm32wbxx_ll_pwr.h ****   *         @arg @ref LL_PWR_PVDLEVEL_2
 700:Drivers/STM32WBxx_HAL_Driver/Inc/stm32wbxx_ll_pwr.h ****   *         @arg @ref LL_PWR_PVDLEVEL_3
 701:Drivers/STM32WBxx_HAL_Driver/Inc/stm32wbxx_ll_pwr.h ****   *         @arg @ref LL_PWR_PVDLEVEL_4
 702:Drivers/STM32WBxx_HAL_Driver/Inc/stm32wbxx_ll_pwr.h ****   *         @arg @ref LL_PWR_PVDLEVEL_5
 703:Drivers/STM32WBxx_HAL_Driver/Inc/stm32wbxx_ll_pwr.h ****   *         @arg @ref LL_PWR_PVDLEVEL_6
 704:Drivers/STM32WBxx_HAL_Driver/Inc/stm32wbxx_ll_pwr.h ****   *         @arg @ref LL_PWR_PVDLEVEL_7
 705:Drivers/STM32WBxx_HAL_Driver/Inc/stm32wbxx_ll_pwr.h ****   * @retval None
 706:Drivers/STM32WBxx_HAL_Driver/Inc/stm32wbxx_ll_pwr.h ****   */
 707:Drivers/STM32WBxx_HAL_Driver/Inc/stm32wbxx_ll_pwr.h **** __STATIC_INLINE void LL_PWR_SetPVDLevel(uint32_t PVDLevel)
 708:Drivers/STM32WBxx_HAL_Driver/Inc/stm32wbxx_ll_pwr.h **** {
 709:Drivers/STM32WBxx_HAL_Driver/Inc/stm32wbxx_ll_pwr.h ****   MODIFY_REG(PWR->CR2, PWR_CR2_PLS, PVDLevel);
 710:Drivers/STM32WBxx_HAL_Driver/Inc/stm32wbxx_ll_pwr.h **** }
 711:Drivers/STM32WBxx_HAL_Driver/Inc/stm32wbxx_ll_pwr.h **** 
 712:Drivers/STM32WBxx_HAL_Driver/Inc/stm32wbxx_ll_pwr.h **** /**
 713:Drivers/STM32WBxx_HAL_Driver/Inc/stm32wbxx_ll_pwr.h ****   * @brief  Get the voltage threshold detection
 714:Drivers/STM32WBxx_HAL_Driver/Inc/stm32wbxx_ll_pwr.h ****   * @rmtoll CR2          PLS           LL_PWR_GetPVDLevel
 715:Drivers/STM32WBxx_HAL_Driver/Inc/stm32wbxx_ll_pwr.h ****   * @retval Returned value can be one of the following values:
 716:Drivers/STM32WBxx_HAL_Driver/Inc/stm32wbxx_ll_pwr.h ****   *         @arg @ref LL_PWR_PVDLEVEL_0
 717:Drivers/STM32WBxx_HAL_Driver/Inc/stm32wbxx_ll_pwr.h ****   *         @arg @ref LL_PWR_PVDLEVEL_1
 718:Drivers/STM32WBxx_HAL_Driver/Inc/stm32wbxx_ll_pwr.h ****   *         @arg @ref LL_PWR_PVDLEVEL_2
 719:Drivers/STM32WBxx_HAL_Driver/Inc/stm32wbxx_ll_pwr.h ****   *         @arg @ref LL_PWR_PVDLEVEL_3
 720:Drivers/STM32WBxx_HAL_Driver/Inc/stm32wbxx_ll_pwr.h ****   *         @arg @ref LL_PWR_PVDLEVEL_4
 721:Drivers/STM32WBxx_HAL_Driver/Inc/stm32wbxx_ll_pwr.h ****   *         @arg @ref LL_PWR_PVDLEVEL_5
 722:Drivers/STM32WBxx_HAL_Driver/Inc/stm32wbxx_ll_pwr.h ****   *         @arg @ref LL_PWR_PVDLEVEL_6
 723:Drivers/STM32WBxx_HAL_Driver/Inc/stm32wbxx_ll_pwr.h ****   *         @arg @ref LL_PWR_PVDLEVEL_7
 724:Drivers/STM32WBxx_HAL_Driver/Inc/stm32wbxx_ll_pwr.h ****   */
 725:Drivers/STM32WBxx_HAL_Driver/Inc/stm32wbxx_ll_pwr.h **** __STATIC_INLINE uint32_t LL_PWR_GetPVDLevel(void)
 726:Drivers/STM32WBxx_HAL_Driver/Inc/stm32wbxx_ll_pwr.h **** {
 727:Drivers/STM32WBxx_HAL_Driver/Inc/stm32wbxx_ll_pwr.h ****   return (uint32_t)(READ_BIT(PWR->CR2, PWR_CR2_PLS));
 728:Drivers/STM32WBxx_HAL_Driver/Inc/stm32wbxx_ll_pwr.h **** }
 729:Drivers/STM32WBxx_HAL_Driver/Inc/stm32wbxx_ll_pwr.h **** 
 730:Drivers/STM32WBxx_HAL_Driver/Inc/stm32wbxx_ll_pwr.h **** /**
 731:Drivers/STM32WBxx_HAL_Driver/Inc/stm32wbxx_ll_pwr.h ****   * @brief  Enable Power Voltage Detector
 732:Drivers/STM32WBxx_HAL_Driver/Inc/stm32wbxx_ll_pwr.h ****   * @rmtoll CR2          PVDE          LL_PWR_EnablePVD
 733:Drivers/STM32WBxx_HAL_Driver/Inc/stm32wbxx_ll_pwr.h ****   * @retval None
 734:Drivers/STM32WBxx_HAL_Driver/Inc/stm32wbxx_ll_pwr.h ****   */
 735:Drivers/STM32WBxx_HAL_Driver/Inc/stm32wbxx_ll_pwr.h **** __STATIC_INLINE void LL_PWR_EnablePVD(void)
 736:Drivers/STM32WBxx_HAL_Driver/Inc/stm32wbxx_ll_pwr.h **** {
 737:Drivers/STM32WBxx_HAL_Driver/Inc/stm32wbxx_ll_pwr.h ****   SET_BIT(PWR->CR2, PWR_CR2_PVDE);
 738:Drivers/STM32WBxx_HAL_Driver/Inc/stm32wbxx_ll_pwr.h **** }
 739:Drivers/STM32WBxx_HAL_Driver/Inc/stm32wbxx_ll_pwr.h **** 
 740:Drivers/STM32WBxx_HAL_Driver/Inc/stm32wbxx_ll_pwr.h **** /**
 741:Drivers/STM32WBxx_HAL_Driver/Inc/stm32wbxx_ll_pwr.h ****   * @brief  Disable Power Voltage Detector
 742:Drivers/STM32WBxx_HAL_Driver/Inc/stm32wbxx_ll_pwr.h ****   * @rmtoll CR2          PVDE          LL_PWR_DisablePVD
 743:Drivers/STM32WBxx_HAL_Driver/Inc/stm32wbxx_ll_pwr.h ****   * @retval None
 744:Drivers/STM32WBxx_HAL_Driver/Inc/stm32wbxx_ll_pwr.h ****   */
 745:Drivers/STM32WBxx_HAL_Driver/Inc/stm32wbxx_ll_pwr.h **** __STATIC_INLINE void LL_PWR_DisablePVD(void)
 746:Drivers/STM32WBxx_HAL_Driver/Inc/stm32wbxx_ll_pwr.h **** {
 747:Drivers/STM32WBxx_HAL_Driver/Inc/stm32wbxx_ll_pwr.h ****   CLEAR_BIT(PWR->CR2, PWR_CR2_PVDE);
 748:Drivers/STM32WBxx_HAL_Driver/Inc/stm32wbxx_ll_pwr.h **** }
 749:Drivers/STM32WBxx_HAL_Driver/Inc/stm32wbxx_ll_pwr.h **** 
 750:Drivers/STM32WBxx_HAL_Driver/Inc/stm32wbxx_ll_pwr.h **** /**
 751:Drivers/STM32WBxx_HAL_Driver/Inc/stm32wbxx_ll_pwr.h ****   * @brief  Check if Power Voltage Detector is enabled
ARM GAS  C:\Users\Nathan\AppData\Local\Temp\ccvsgOlc.s 			page 47


 752:Drivers/STM32WBxx_HAL_Driver/Inc/stm32wbxx_ll_pwr.h ****   * @rmtoll CR2          PVDE          LL_PWR_IsEnabledPVD
 753:Drivers/STM32WBxx_HAL_Driver/Inc/stm32wbxx_ll_pwr.h ****   * @retval State of bit (1 or 0).
 754:Drivers/STM32WBxx_HAL_Driver/Inc/stm32wbxx_ll_pwr.h ****   */
 755:Drivers/STM32WBxx_HAL_Driver/Inc/stm32wbxx_ll_pwr.h **** __STATIC_INLINE uint32_t LL_PWR_IsEnabledPVD(void)
 756:Drivers/STM32WBxx_HAL_Driver/Inc/stm32wbxx_ll_pwr.h **** {
 757:Drivers/STM32WBxx_HAL_Driver/Inc/stm32wbxx_ll_pwr.h ****   return ((READ_BIT(PWR->CR2, PWR_CR2_PVDE) == (PWR_CR2_PVDE)) ? 1UL : 0UL);
 758:Drivers/STM32WBxx_HAL_Driver/Inc/stm32wbxx_ll_pwr.h **** }
 759:Drivers/STM32WBxx_HAL_Driver/Inc/stm32wbxx_ll_pwr.h **** 
 760:Drivers/STM32WBxx_HAL_Driver/Inc/stm32wbxx_ll_pwr.h **** /**
 761:Drivers/STM32WBxx_HAL_Driver/Inc/stm32wbxx_ll_pwr.h ****   * @brief  Enable Internal Wake-up line
 762:Drivers/STM32WBxx_HAL_Driver/Inc/stm32wbxx_ll_pwr.h ****   * @rmtoll CR3          EIWF          LL_PWR_EnableInternWU
 763:Drivers/STM32WBxx_HAL_Driver/Inc/stm32wbxx_ll_pwr.h ****   * @retval None
 764:Drivers/STM32WBxx_HAL_Driver/Inc/stm32wbxx_ll_pwr.h ****   */
 765:Drivers/STM32WBxx_HAL_Driver/Inc/stm32wbxx_ll_pwr.h **** __STATIC_INLINE void LL_PWR_EnableInternWU(void)
 766:Drivers/STM32WBxx_HAL_Driver/Inc/stm32wbxx_ll_pwr.h **** {
 767:Drivers/STM32WBxx_HAL_Driver/Inc/stm32wbxx_ll_pwr.h ****   SET_BIT(PWR->CR3, PWR_CR3_EIWUL);
 768:Drivers/STM32WBxx_HAL_Driver/Inc/stm32wbxx_ll_pwr.h **** }
 769:Drivers/STM32WBxx_HAL_Driver/Inc/stm32wbxx_ll_pwr.h **** 
 770:Drivers/STM32WBxx_HAL_Driver/Inc/stm32wbxx_ll_pwr.h **** /**
 771:Drivers/STM32WBxx_HAL_Driver/Inc/stm32wbxx_ll_pwr.h ****   * @brief  Disable Internal Wake-up line
 772:Drivers/STM32WBxx_HAL_Driver/Inc/stm32wbxx_ll_pwr.h ****   * @rmtoll CR3          EIWF          LL_PWR_DisableInternWU
 773:Drivers/STM32WBxx_HAL_Driver/Inc/stm32wbxx_ll_pwr.h ****   * @retval None
 774:Drivers/STM32WBxx_HAL_Driver/Inc/stm32wbxx_ll_pwr.h ****   */
 775:Drivers/STM32WBxx_HAL_Driver/Inc/stm32wbxx_ll_pwr.h **** __STATIC_INLINE void LL_PWR_DisableInternWU(void)
 776:Drivers/STM32WBxx_HAL_Driver/Inc/stm32wbxx_ll_pwr.h **** {
 777:Drivers/STM32WBxx_HAL_Driver/Inc/stm32wbxx_ll_pwr.h ****   CLEAR_BIT(PWR->CR3, PWR_CR3_EIWUL);
 778:Drivers/STM32WBxx_HAL_Driver/Inc/stm32wbxx_ll_pwr.h **** }
 779:Drivers/STM32WBxx_HAL_Driver/Inc/stm32wbxx_ll_pwr.h **** 
 780:Drivers/STM32WBxx_HAL_Driver/Inc/stm32wbxx_ll_pwr.h **** /**
 781:Drivers/STM32WBxx_HAL_Driver/Inc/stm32wbxx_ll_pwr.h ****   * @brief  Check if Internal Wake-up line is enabled
 782:Drivers/STM32WBxx_HAL_Driver/Inc/stm32wbxx_ll_pwr.h ****   * @rmtoll CR3          EIWF          LL_PWR_IsEnabledInternWU
 783:Drivers/STM32WBxx_HAL_Driver/Inc/stm32wbxx_ll_pwr.h ****   * @retval State of bit (1 or 0).
 784:Drivers/STM32WBxx_HAL_Driver/Inc/stm32wbxx_ll_pwr.h ****   */
 785:Drivers/STM32WBxx_HAL_Driver/Inc/stm32wbxx_ll_pwr.h **** __STATIC_INLINE uint32_t LL_PWR_IsEnabledInternWU(void)
 786:Drivers/STM32WBxx_HAL_Driver/Inc/stm32wbxx_ll_pwr.h **** {
 787:Drivers/STM32WBxx_HAL_Driver/Inc/stm32wbxx_ll_pwr.h ****   return ((READ_BIT(PWR->CR3, PWR_CR3_EIWUL) == (PWR_CR3_EIWUL)) ? 1UL : 0UL);
 788:Drivers/STM32WBxx_HAL_Driver/Inc/stm32wbxx_ll_pwr.h **** }
 789:Drivers/STM32WBxx_HAL_Driver/Inc/stm32wbxx_ll_pwr.h **** 
 790:Drivers/STM32WBxx_HAL_Driver/Inc/stm32wbxx_ll_pwr.h **** /**
 791:Drivers/STM32WBxx_HAL_Driver/Inc/stm32wbxx_ll_pwr.h ****   * @brief  Enable pull-up and pull-down configuration
 792:Drivers/STM32WBxx_HAL_Driver/Inc/stm32wbxx_ll_pwr.h ****   * @rmtoll CR3          APC           LL_PWR_EnablePUPDCfg
 793:Drivers/STM32WBxx_HAL_Driver/Inc/stm32wbxx_ll_pwr.h ****   * @retval None
 794:Drivers/STM32WBxx_HAL_Driver/Inc/stm32wbxx_ll_pwr.h ****   */
 795:Drivers/STM32WBxx_HAL_Driver/Inc/stm32wbxx_ll_pwr.h **** __STATIC_INLINE void LL_PWR_EnablePUPDCfg(void)
 796:Drivers/STM32WBxx_HAL_Driver/Inc/stm32wbxx_ll_pwr.h **** {
 797:Drivers/STM32WBxx_HAL_Driver/Inc/stm32wbxx_ll_pwr.h ****   SET_BIT(PWR->CR3, PWR_CR3_APC);
 798:Drivers/STM32WBxx_HAL_Driver/Inc/stm32wbxx_ll_pwr.h **** }
 799:Drivers/STM32WBxx_HAL_Driver/Inc/stm32wbxx_ll_pwr.h **** 
 800:Drivers/STM32WBxx_HAL_Driver/Inc/stm32wbxx_ll_pwr.h **** /**
 801:Drivers/STM32WBxx_HAL_Driver/Inc/stm32wbxx_ll_pwr.h ****   * @brief  Disable pull-up and pull-down configuration
 802:Drivers/STM32WBxx_HAL_Driver/Inc/stm32wbxx_ll_pwr.h ****   * @rmtoll CR3          APC           LL_PWR_DisablePUPDCfg
 803:Drivers/STM32WBxx_HAL_Driver/Inc/stm32wbxx_ll_pwr.h ****   * @retval None
 804:Drivers/STM32WBxx_HAL_Driver/Inc/stm32wbxx_ll_pwr.h ****   */
 805:Drivers/STM32WBxx_HAL_Driver/Inc/stm32wbxx_ll_pwr.h **** __STATIC_INLINE void LL_PWR_DisablePUPDCfg(void)
 806:Drivers/STM32WBxx_HAL_Driver/Inc/stm32wbxx_ll_pwr.h **** {
 807:Drivers/STM32WBxx_HAL_Driver/Inc/stm32wbxx_ll_pwr.h ****   CLEAR_BIT(PWR->CR3, PWR_CR3_APC);
 808:Drivers/STM32WBxx_HAL_Driver/Inc/stm32wbxx_ll_pwr.h **** }
ARM GAS  C:\Users\Nathan\AppData\Local\Temp\ccvsgOlc.s 			page 48


 809:Drivers/STM32WBxx_HAL_Driver/Inc/stm32wbxx_ll_pwr.h **** 
 810:Drivers/STM32WBxx_HAL_Driver/Inc/stm32wbxx_ll_pwr.h **** /**
 811:Drivers/STM32WBxx_HAL_Driver/Inc/stm32wbxx_ll_pwr.h ****   * @brief  Check if pull-up and pull-down configuration is enabled
 812:Drivers/STM32WBxx_HAL_Driver/Inc/stm32wbxx_ll_pwr.h ****   * @rmtoll CR3          APC           LL_PWR_IsEnabledPUPDCfg
 813:Drivers/STM32WBxx_HAL_Driver/Inc/stm32wbxx_ll_pwr.h ****   * @retval State of bit (1 or 0).
 814:Drivers/STM32WBxx_HAL_Driver/Inc/stm32wbxx_ll_pwr.h ****   */
 815:Drivers/STM32WBxx_HAL_Driver/Inc/stm32wbxx_ll_pwr.h **** __STATIC_INLINE uint32_t LL_PWR_IsEnabledPUPDCfg(void)
 816:Drivers/STM32WBxx_HAL_Driver/Inc/stm32wbxx_ll_pwr.h **** {
 817:Drivers/STM32WBxx_HAL_Driver/Inc/stm32wbxx_ll_pwr.h ****   return ((READ_BIT(PWR->CR3, PWR_CR3_APC) == (PWR_CR3_APC)) ? 1UL : 0UL);
 818:Drivers/STM32WBxx_HAL_Driver/Inc/stm32wbxx_ll_pwr.h **** }
 819:Drivers/STM32WBxx_HAL_Driver/Inc/stm32wbxx_ll_pwr.h **** 
 820:Drivers/STM32WBxx_HAL_Driver/Inc/stm32wbxx_ll_pwr.h **** /**
 821:Drivers/STM32WBxx_HAL_Driver/Inc/stm32wbxx_ll_pwr.h ****   * @brief  Enable SRAM2a content retention in Standby mode
 822:Drivers/STM32WBxx_HAL_Driver/Inc/stm32wbxx_ll_pwr.h ****   * @note   On devices STM32WB15xx, STM32WB10xx, STM32WB1Mxx, retention is extended
 823:Drivers/STM32WBxx_HAL_Driver/Inc/stm32wbxx_ll_pwr.h ****   *         to SRAM1, SRAM2a and SRAM2b.
 824:Drivers/STM32WBxx_HAL_Driver/Inc/stm32wbxx_ll_pwr.h ****   * @rmtoll CR3          RRS           LL_PWR_EnableSRAM2Retention
 825:Drivers/STM32WBxx_HAL_Driver/Inc/stm32wbxx_ll_pwr.h ****   * @retval None
 826:Drivers/STM32WBxx_HAL_Driver/Inc/stm32wbxx_ll_pwr.h ****   */
 827:Drivers/STM32WBxx_HAL_Driver/Inc/stm32wbxx_ll_pwr.h **** __STATIC_INLINE void LL_PWR_EnableSRAM2Retention(void)
 828:Drivers/STM32WBxx_HAL_Driver/Inc/stm32wbxx_ll_pwr.h **** {
 829:Drivers/STM32WBxx_HAL_Driver/Inc/stm32wbxx_ll_pwr.h ****   SET_BIT(PWR->CR3, PWR_CR3_RRS);
 830:Drivers/STM32WBxx_HAL_Driver/Inc/stm32wbxx_ll_pwr.h **** }
 831:Drivers/STM32WBxx_HAL_Driver/Inc/stm32wbxx_ll_pwr.h **** 
 832:Drivers/STM32WBxx_HAL_Driver/Inc/stm32wbxx_ll_pwr.h **** /**
 833:Drivers/STM32WBxx_HAL_Driver/Inc/stm32wbxx_ll_pwr.h ****   * @brief  Disable SRAM2a content retention in Standby mode
 834:Drivers/STM32WBxx_HAL_Driver/Inc/stm32wbxx_ll_pwr.h ****   * @note   On devices STM32WB15xx, STM32WB10xx, STM32WB1Mxx, retention is extended
 835:Drivers/STM32WBxx_HAL_Driver/Inc/stm32wbxx_ll_pwr.h ****   *         to SRAM1, SRAM2a and SRAM2b.
 836:Drivers/STM32WBxx_HAL_Driver/Inc/stm32wbxx_ll_pwr.h ****   * @rmtoll CR3          RRS           LL_PWR_DisableSRAM2Retention
 837:Drivers/STM32WBxx_HAL_Driver/Inc/stm32wbxx_ll_pwr.h ****   * @retval None
 838:Drivers/STM32WBxx_HAL_Driver/Inc/stm32wbxx_ll_pwr.h ****   */
 839:Drivers/STM32WBxx_HAL_Driver/Inc/stm32wbxx_ll_pwr.h **** __STATIC_INLINE void LL_PWR_DisableSRAM2Retention(void)
 840:Drivers/STM32WBxx_HAL_Driver/Inc/stm32wbxx_ll_pwr.h **** {
 841:Drivers/STM32WBxx_HAL_Driver/Inc/stm32wbxx_ll_pwr.h ****   CLEAR_BIT(PWR->CR3, PWR_CR3_RRS);
 842:Drivers/STM32WBxx_HAL_Driver/Inc/stm32wbxx_ll_pwr.h **** }
 843:Drivers/STM32WBxx_HAL_Driver/Inc/stm32wbxx_ll_pwr.h **** 
 844:Drivers/STM32WBxx_HAL_Driver/Inc/stm32wbxx_ll_pwr.h **** /**
 845:Drivers/STM32WBxx_HAL_Driver/Inc/stm32wbxx_ll_pwr.h ****   * @brief  Check if SRAM2 content retention in Standby mode  is enabled
 846:Drivers/STM32WBxx_HAL_Driver/Inc/stm32wbxx_ll_pwr.h ****   * @note   On devices STM32WB15xx, STM32WB10xx, STM32WB1Mxx, retention is extended
 847:Drivers/STM32WBxx_HAL_Driver/Inc/stm32wbxx_ll_pwr.h ****   *         to SRAM1, SRAM2a and SRAM2b.
 848:Drivers/STM32WBxx_HAL_Driver/Inc/stm32wbxx_ll_pwr.h ****   * @rmtoll CR3          RRS           LL_PWR_IsEnabledSRAM2Retention
 849:Drivers/STM32WBxx_HAL_Driver/Inc/stm32wbxx_ll_pwr.h ****   * @retval State of bit (1 or 0).
 850:Drivers/STM32WBxx_HAL_Driver/Inc/stm32wbxx_ll_pwr.h ****   */
 851:Drivers/STM32WBxx_HAL_Driver/Inc/stm32wbxx_ll_pwr.h **** __STATIC_INLINE uint32_t LL_PWR_IsEnabledSRAM2Retention(void)
 852:Drivers/STM32WBxx_HAL_Driver/Inc/stm32wbxx_ll_pwr.h **** {
 853:Drivers/STM32WBxx_HAL_Driver/Inc/stm32wbxx_ll_pwr.h ****   return ((READ_BIT(PWR->CR3, PWR_CR3_RRS) == (PWR_CR3_RRS)) ? 1UL : 0UL);
 854:Drivers/STM32WBxx_HAL_Driver/Inc/stm32wbxx_ll_pwr.h **** }
 855:Drivers/STM32WBxx_HAL_Driver/Inc/stm32wbxx_ll_pwr.h **** 
 856:Drivers/STM32WBxx_HAL_Driver/Inc/stm32wbxx_ll_pwr.h **** /**
 857:Drivers/STM32WBxx_HAL_Driver/Inc/stm32wbxx_ll_pwr.h ****   * @brief  Enable the WakeUp PINx functionality
 858:Drivers/STM32WBxx_HAL_Driver/Inc/stm32wbxx_ll_pwr.h ****   * @rmtoll CR3          EWUP1         LL_PWR_EnableWakeUpPin\n
 859:Drivers/STM32WBxx_HAL_Driver/Inc/stm32wbxx_ll_pwr.h ****   *         CR3          EWUP2         LL_PWR_EnableWakeUpPin\n
 860:Drivers/STM32WBxx_HAL_Driver/Inc/stm32wbxx_ll_pwr.h ****   *         CR3          EWUP3         LL_PWR_EnableWakeUpPin\n
 861:Drivers/STM32WBxx_HAL_Driver/Inc/stm32wbxx_ll_pwr.h ****   *         CR3          EWUP4         LL_PWR_EnableWakeUpPin\n
 862:Drivers/STM32WBxx_HAL_Driver/Inc/stm32wbxx_ll_pwr.h ****   *         CR3          EWUP5         LL_PWR_EnableWakeUpPin\n
 863:Drivers/STM32WBxx_HAL_Driver/Inc/stm32wbxx_ll_pwr.h ****   * @param  WakeUpPin This parameter can be one of the following values:
 864:Drivers/STM32WBxx_HAL_Driver/Inc/stm32wbxx_ll_pwr.h ****   *         @arg @ref LL_PWR_WAKEUP_PIN1
 865:Drivers/STM32WBxx_HAL_Driver/Inc/stm32wbxx_ll_pwr.h ****   *         @arg @ref LL_PWR_WAKEUP_PIN2 (*)
ARM GAS  C:\Users\Nathan\AppData\Local\Temp\ccvsgOlc.s 			page 49


 866:Drivers/STM32WBxx_HAL_Driver/Inc/stm32wbxx_ll_pwr.h ****   *         @arg @ref LL_PWR_WAKEUP_PIN3 (*)
 867:Drivers/STM32WBxx_HAL_Driver/Inc/stm32wbxx_ll_pwr.h ****   *         @arg @ref LL_PWR_WAKEUP_PIN4
 868:Drivers/STM32WBxx_HAL_Driver/Inc/stm32wbxx_ll_pwr.h ****   *         @arg @ref LL_PWR_WAKEUP_PIN5 (*)
 869:Drivers/STM32WBxx_HAL_Driver/Inc/stm32wbxx_ll_pwr.h ****   *
 870:Drivers/STM32WBxx_HAL_Driver/Inc/stm32wbxx_ll_pwr.h ****   *         (*) Not available on devices STM32WB50xx, STM32WB35xx, STM32WB30xx, STM32WB15xx, STM32W
 871:Drivers/STM32WBxx_HAL_Driver/Inc/stm32wbxx_ll_pwr.h ****   * @retval None
 872:Drivers/STM32WBxx_HAL_Driver/Inc/stm32wbxx_ll_pwr.h ****   */
 873:Drivers/STM32WBxx_HAL_Driver/Inc/stm32wbxx_ll_pwr.h **** __STATIC_INLINE void LL_PWR_EnableWakeUpPin(uint32_t WakeUpPin)
 874:Drivers/STM32WBxx_HAL_Driver/Inc/stm32wbxx_ll_pwr.h **** {
 875:Drivers/STM32WBxx_HAL_Driver/Inc/stm32wbxx_ll_pwr.h ****   SET_BIT(PWR->CR3, WakeUpPin);
 876:Drivers/STM32WBxx_HAL_Driver/Inc/stm32wbxx_ll_pwr.h **** }
 877:Drivers/STM32WBxx_HAL_Driver/Inc/stm32wbxx_ll_pwr.h **** 
 878:Drivers/STM32WBxx_HAL_Driver/Inc/stm32wbxx_ll_pwr.h **** /**
 879:Drivers/STM32WBxx_HAL_Driver/Inc/stm32wbxx_ll_pwr.h ****   * @brief  Disable the WakeUp PINx functionality
 880:Drivers/STM32WBxx_HAL_Driver/Inc/stm32wbxx_ll_pwr.h ****   * @rmtoll CR3          EWUP1         LL_PWR_DisableWakeUpPin\n
 881:Drivers/STM32WBxx_HAL_Driver/Inc/stm32wbxx_ll_pwr.h ****   *         CR3          EWUP2         LL_PWR_DisableWakeUpPin\n
 882:Drivers/STM32WBxx_HAL_Driver/Inc/stm32wbxx_ll_pwr.h ****   *         CR3          EWUP3         LL_PWR_DisableWakeUpPin\n
 883:Drivers/STM32WBxx_HAL_Driver/Inc/stm32wbxx_ll_pwr.h ****   *         CR3          EWUP4         LL_PWR_DisableWakeUpPin\n
 884:Drivers/STM32WBxx_HAL_Driver/Inc/stm32wbxx_ll_pwr.h ****   *         CR3          EWUP5         LL_PWR_DisableWakeUpPin\n
 885:Drivers/STM32WBxx_HAL_Driver/Inc/stm32wbxx_ll_pwr.h ****   * @param  WakeUpPin This parameter can be one of the following values:
 886:Drivers/STM32WBxx_HAL_Driver/Inc/stm32wbxx_ll_pwr.h ****   *         @arg @ref LL_PWR_WAKEUP_PIN1
 887:Drivers/STM32WBxx_HAL_Driver/Inc/stm32wbxx_ll_pwr.h ****   *         @arg @ref LL_PWR_WAKEUP_PIN2 (*)
 888:Drivers/STM32WBxx_HAL_Driver/Inc/stm32wbxx_ll_pwr.h ****   *         @arg @ref LL_PWR_WAKEUP_PIN3 (*)
 889:Drivers/STM32WBxx_HAL_Driver/Inc/stm32wbxx_ll_pwr.h ****   *         @arg @ref LL_PWR_WAKEUP_PIN4
 890:Drivers/STM32WBxx_HAL_Driver/Inc/stm32wbxx_ll_pwr.h ****   *         @arg @ref LL_PWR_WAKEUP_PIN5 (*)
 891:Drivers/STM32WBxx_HAL_Driver/Inc/stm32wbxx_ll_pwr.h ****   *
 892:Drivers/STM32WBxx_HAL_Driver/Inc/stm32wbxx_ll_pwr.h ****   *         (*) Not available on devices STM32WB50xx, STM32WB35xx, STM32WB30xx, STM32WB15xx, STM32W
 893:Drivers/STM32WBxx_HAL_Driver/Inc/stm32wbxx_ll_pwr.h ****   * @retval None
 894:Drivers/STM32WBxx_HAL_Driver/Inc/stm32wbxx_ll_pwr.h ****   */
 895:Drivers/STM32WBxx_HAL_Driver/Inc/stm32wbxx_ll_pwr.h **** __STATIC_INLINE void LL_PWR_DisableWakeUpPin(uint32_t WakeUpPin)
 896:Drivers/STM32WBxx_HAL_Driver/Inc/stm32wbxx_ll_pwr.h **** {
 897:Drivers/STM32WBxx_HAL_Driver/Inc/stm32wbxx_ll_pwr.h ****   CLEAR_BIT(PWR->CR3, WakeUpPin);
 898:Drivers/STM32WBxx_HAL_Driver/Inc/stm32wbxx_ll_pwr.h **** }
 899:Drivers/STM32WBxx_HAL_Driver/Inc/stm32wbxx_ll_pwr.h **** 
 900:Drivers/STM32WBxx_HAL_Driver/Inc/stm32wbxx_ll_pwr.h **** /**
 901:Drivers/STM32WBxx_HAL_Driver/Inc/stm32wbxx_ll_pwr.h ****   * @brief  Check if the WakeUp PINx functionality is enabled
 902:Drivers/STM32WBxx_HAL_Driver/Inc/stm32wbxx_ll_pwr.h ****   * @rmtoll CR3          EWUP1         LL_PWR_IsEnabledWakeUpPin\n
 903:Drivers/STM32WBxx_HAL_Driver/Inc/stm32wbxx_ll_pwr.h ****   *         CR3          EWUP2         LL_PWR_IsEnabledWakeUpPin\n
 904:Drivers/STM32WBxx_HAL_Driver/Inc/stm32wbxx_ll_pwr.h ****   *         CR3          EWUP3         LL_PWR_IsEnabledWakeUpPin\n
 905:Drivers/STM32WBxx_HAL_Driver/Inc/stm32wbxx_ll_pwr.h ****   *         CR3          EWUP4         LL_PWR_IsEnabledWakeUpPin\n
 906:Drivers/STM32WBxx_HAL_Driver/Inc/stm32wbxx_ll_pwr.h ****   *         CR3          EWUP5         LL_PWR_IsEnabledWakeUpPin\n
 907:Drivers/STM32WBxx_HAL_Driver/Inc/stm32wbxx_ll_pwr.h ****   * @param  WakeUpPin This parameter can be one of the following values:
 908:Drivers/STM32WBxx_HAL_Driver/Inc/stm32wbxx_ll_pwr.h ****   *         @arg @ref LL_PWR_WAKEUP_PIN1
 909:Drivers/STM32WBxx_HAL_Driver/Inc/stm32wbxx_ll_pwr.h ****   *         @arg @ref LL_PWR_WAKEUP_PIN2 (*)
 910:Drivers/STM32WBxx_HAL_Driver/Inc/stm32wbxx_ll_pwr.h ****   *         @arg @ref LL_PWR_WAKEUP_PIN3 (*)
 911:Drivers/STM32WBxx_HAL_Driver/Inc/stm32wbxx_ll_pwr.h ****   *         @arg @ref LL_PWR_WAKEUP_PIN4
 912:Drivers/STM32WBxx_HAL_Driver/Inc/stm32wbxx_ll_pwr.h ****   *         @arg @ref LL_PWR_WAKEUP_PIN5 (*)
 913:Drivers/STM32WBxx_HAL_Driver/Inc/stm32wbxx_ll_pwr.h ****   *
 914:Drivers/STM32WBxx_HAL_Driver/Inc/stm32wbxx_ll_pwr.h ****   *         (*) Not available on devices STM32WB50xx, STM32WB35xx, STM32WB30xx, STM32WB15xx, STM32W
 915:Drivers/STM32WBxx_HAL_Driver/Inc/stm32wbxx_ll_pwr.h ****   * @retval State of bit (1 or 0).
 916:Drivers/STM32WBxx_HAL_Driver/Inc/stm32wbxx_ll_pwr.h ****   */
 917:Drivers/STM32WBxx_HAL_Driver/Inc/stm32wbxx_ll_pwr.h **** __STATIC_INLINE uint32_t LL_PWR_IsEnabledWakeUpPin(uint32_t WakeUpPin)
 918:Drivers/STM32WBxx_HAL_Driver/Inc/stm32wbxx_ll_pwr.h **** {
 919:Drivers/STM32WBxx_HAL_Driver/Inc/stm32wbxx_ll_pwr.h ****   return ((READ_BIT(PWR->CR3, WakeUpPin) == (WakeUpPin)) ? 1UL : 0UL);
 920:Drivers/STM32WBxx_HAL_Driver/Inc/stm32wbxx_ll_pwr.h **** }
 921:Drivers/STM32WBxx_HAL_Driver/Inc/stm32wbxx_ll_pwr.h **** 
 922:Drivers/STM32WBxx_HAL_Driver/Inc/stm32wbxx_ll_pwr.h **** /**
ARM GAS  C:\Users\Nathan\AppData\Local\Temp\ccvsgOlc.s 			page 50


 923:Drivers/STM32WBxx_HAL_Driver/Inc/stm32wbxx_ll_pwr.h ****   * @brief  Set the resistor impedance
 924:Drivers/STM32WBxx_HAL_Driver/Inc/stm32wbxx_ll_pwr.h ****   * @rmtoll CR4          VBRS          LL_PWR_SetBattChargResistor
 925:Drivers/STM32WBxx_HAL_Driver/Inc/stm32wbxx_ll_pwr.h ****   * @param  Resistor This parameter can be one of the following values:
 926:Drivers/STM32WBxx_HAL_Driver/Inc/stm32wbxx_ll_pwr.h ****   *         @arg @ref LL_PWR_BATT_CHARG_RESISTOR_5K
 927:Drivers/STM32WBxx_HAL_Driver/Inc/stm32wbxx_ll_pwr.h ****   *         @arg @ref LL_PWR_BATT_CHARGRESISTOR_1_5K
 928:Drivers/STM32WBxx_HAL_Driver/Inc/stm32wbxx_ll_pwr.h ****   * @retval None
 929:Drivers/STM32WBxx_HAL_Driver/Inc/stm32wbxx_ll_pwr.h ****   */
 930:Drivers/STM32WBxx_HAL_Driver/Inc/stm32wbxx_ll_pwr.h **** __STATIC_INLINE void LL_PWR_SetBattChargResistor(uint32_t Resistor)
 931:Drivers/STM32WBxx_HAL_Driver/Inc/stm32wbxx_ll_pwr.h **** {
 932:Drivers/STM32WBxx_HAL_Driver/Inc/stm32wbxx_ll_pwr.h ****   MODIFY_REG(PWR->CR4, PWR_CR4_VBRS, Resistor);
 933:Drivers/STM32WBxx_HAL_Driver/Inc/stm32wbxx_ll_pwr.h **** }
 934:Drivers/STM32WBxx_HAL_Driver/Inc/stm32wbxx_ll_pwr.h **** 
 935:Drivers/STM32WBxx_HAL_Driver/Inc/stm32wbxx_ll_pwr.h **** /**
 936:Drivers/STM32WBxx_HAL_Driver/Inc/stm32wbxx_ll_pwr.h ****   * @brief  Get the resistor impedance
 937:Drivers/STM32WBxx_HAL_Driver/Inc/stm32wbxx_ll_pwr.h ****   * @rmtoll CR4          VBRS          LL_PWR_GetBattChargResistor
 938:Drivers/STM32WBxx_HAL_Driver/Inc/stm32wbxx_ll_pwr.h ****   * @retval Returned value can be one of the following values:
 939:Drivers/STM32WBxx_HAL_Driver/Inc/stm32wbxx_ll_pwr.h ****   *         @arg @ref LL_PWR_BATT_CHARG_RESISTOR_5K
 940:Drivers/STM32WBxx_HAL_Driver/Inc/stm32wbxx_ll_pwr.h ****   *         @arg @ref LL_PWR_BATT_CHARGRESISTOR_1_5K
 941:Drivers/STM32WBxx_HAL_Driver/Inc/stm32wbxx_ll_pwr.h ****   */
 942:Drivers/STM32WBxx_HAL_Driver/Inc/stm32wbxx_ll_pwr.h **** __STATIC_INLINE uint32_t LL_PWR_GetBattChargResistor(void)
 943:Drivers/STM32WBxx_HAL_Driver/Inc/stm32wbxx_ll_pwr.h **** {
 944:Drivers/STM32WBxx_HAL_Driver/Inc/stm32wbxx_ll_pwr.h ****   return (uint32_t)(READ_BIT(PWR->CR4, PWR_CR4_VBRS));
 945:Drivers/STM32WBxx_HAL_Driver/Inc/stm32wbxx_ll_pwr.h **** }
 946:Drivers/STM32WBxx_HAL_Driver/Inc/stm32wbxx_ll_pwr.h **** 
 947:Drivers/STM32WBxx_HAL_Driver/Inc/stm32wbxx_ll_pwr.h **** /**
 948:Drivers/STM32WBxx_HAL_Driver/Inc/stm32wbxx_ll_pwr.h ****   * @brief  Enable battery charging
 949:Drivers/STM32WBxx_HAL_Driver/Inc/stm32wbxx_ll_pwr.h ****   * @rmtoll CR4          VBE           LL_PWR_EnableBatteryCharging
 950:Drivers/STM32WBxx_HAL_Driver/Inc/stm32wbxx_ll_pwr.h ****   * @retval None
 951:Drivers/STM32WBxx_HAL_Driver/Inc/stm32wbxx_ll_pwr.h ****   */
 952:Drivers/STM32WBxx_HAL_Driver/Inc/stm32wbxx_ll_pwr.h **** __STATIC_INLINE void LL_PWR_EnableBatteryCharging(void)
 953:Drivers/STM32WBxx_HAL_Driver/Inc/stm32wbxx_ll_pwr.h **** {
 954:Drivers/STM32WBxx_HAL_Driver/Inc/stm32wbxx_ll_pwr.h ****   SET_BIT(PWR->CR4, PWR_CR4_VBE);
 955:Drivers/STM32WBxx_HAL_Driver/Inc/stm32wbxx_ll_pwr.h **** }
 956:Drivers/STM32WBxx_HAL_Driver/Inc/stm32wbxx_ll_pwr.h **** 
 957:Drivers/STM32WBxx_HAL_Driver/Inc/stm32wbxx_ll_pwr.h **** /**
 958:Drivers/STM32WBxx_HAL_Driver/Inc/stm32wbxx_ll_pwr.h ****   * @brief  Disable battery charging
 959:Drivers/STM32WBxx_HAL_Driver/Inc/stm32wbxx_ll_pwr.h ****   * @rmtoll CR4          VBE           LL_PWR_DisableBatteryCharging
 960:Drivers/STM32WBxx_HAL_Driver/Inc/stm32wbxx_ll_pwr.h ****   * @retval None
 961:Drivers/STM32WBxx_HAL_Driver/Inc/stm32wbxx_ll_pwr.h ****   */
 962:Drivers/STM32WBxx_HAL_Driver/Inc/stm32wbxx_ll_pwr.h **** __STATIC_INLINE void LL_PWR_DisableBatteryCharging(void)
 963:Drivers/STM32WBxx_HAL_Driver/Inc/stm32wbxx_ll_pwr.h **** {
 964:Drivers/STM32WBxx_HAL_Driver/Inc/stm32wbxx_ll_pwr.h ****   CLEAR_BIT(PWR->CR4, PWR_CR4_VBE);
 965:Drivers/STM32WBxx_HAL_Driver/Inc/stm32wbxx_ll_pwr.h **** }
 966:Drivers/STM32WBxx_HAL_Driver/Inc/stm32wbxx_ll_pwr.h **** 
 967:Drivers/STM32WBxx_HAL_Driver/Inc/stm32wbxx_ll_pwr.h **** /**
 968:Drivers/STM32WBxx_HAL_Driver/Inc/stm32wbxx_ll_pwr.h ****   * @brief  Check if battery charging is enabled
 969:Drivers/STM32WBxx_HAL_Driver/Inc/stm32wbxx_ll_pwr.h ****   * @rmtoll CR4          VBE           LL_PWR_IsEnabledBatteryCharging
 970:Drivers/STM32WBxx_HAL_Driver/Inc/stm32wbxx_ll_pwr.h ****   * @retval State of bit (1 or 0).
 971:Drivers/STM32WBxx_HAL_Driver/Inc/stm32wbxx_ll_pwr.h ****   */
 972:Drivers/STM32WBxx_HAL_Driver/Inc/stm32wbxx_ll_pwr.h **** __STATIC_INLINE uint32_t LL_PWR_IsEnabledBatteryCharging(void)
 973:Drivers/STM32WBxx_HAL_Driver/Inc/stm32wbxx_ll_pwr.h **** {
 974:Drivers/STM32WBxx_HAL_Driver/Inc/stm32wbxx_ll_pwr.h ****   return ((READ_BIT(PWR->CR4, PWR_CR4_VBE) == (PWR_CR4_VBE)) ? 1UL : 0UL);
 975:Drivers/STM32WBxx_HAL_Driver/Inc/stm32wbxx_ll_pwr.h **** }
 976:Drivers/STM32WBxx_HAL_Driver/Inc/stm32wbxx_ll_pwr.h **** 
 977:Drivers/STM32WBxx_HAL_Driver/Inc/stm32wbxx_ll_pwr.h **** /**
 978:Drivers/STM32WBxx_HAL_Driver/Inc/stm32wbxx_ll_pwr.h ****   * @brief  Set the Wake-Up pin polarity low for the event detection
 979:Drivers/STM32WBxx_HAL_Driver/Inc/stm32wbxx_ll_pwr.h ****   * @rmtoll CR4          WP1           LL_PWR_SetWakeUpPinPolarityLow\n
ARM GAS  C:\Users\Nathan\AppData\Local\Temp\ccvsgOlc.s 			page 51


 980:Drivers/STM32WBxx_HAL_Driver/Inc/stm32wbxx_ll_pwr.h ****   *         CR4          WP2           LL_PWR_SetWakeUpPinPolarityLow\n
 981:Drivers/STM32WBxx_HAL_Driver/Inc/stm32wbxx_ll_pwr.h ****   *         CR4          WP3           LL_PWR_SetWakeUpPinPolarityLow\n
 982:Drivers/STM32WBxx_HAL_Driver/Inc/stm32wbxx_ll_pwr.h ****   *         CR4          WP4           LL_PWR_SetWakeUpPinPolarityLow\n
 983:Drivers/STM32WBxx_HAL_Driver/Inc/stm32wbxx_ll_pwr.h ****   *         CR4          WP5           LL_PWR_SetWakeUpPinPolarityLow
 984:Drivers/STM32WBxx_HAL_Driver/Inc/stm32wbxx_ll_pwr.h ****   * @param  WakeUpPin This parameter can be one of the following values:
 985:Drivers/STM32WBxx_HAL_Driver/Inc/stm32wbxx_ll_pwr.h ****   *         @arg @ref LL_PWR_WAKEUP_PIN1
 986:Drivers/STM32WBxx_HAL_Driver/Inc/stm32wbxx_ll_pwr.h ****   *         @arg @ref LL_PWR_WAKEUP_PIN2 (*)
 987:Drivers/STM32WBxx_HAL_Driver/Inc/stm32wbxx_ll_pwr.h ****   *         @arg @ref LL_PWR_WAKEUP_PIN3 (*)
 988:Drivers/STM32WBxx_HAL_Driver/Inc/stm32wbxx_ll_pwr.h ****   *         @arg @ref LL_PWR_WAKEUP_PIN4
 989:Drivers/STM32WBxx_HAL_Driver/Inc/stm32wbxx_ll_pwr.h ****   *         @arg @ref LL_PWR_WAKEUP_PIN5 (*)
 990:Drivers/STM32WBxx_HAL_Driver/Inc/stm32wbxx_ll_pwr.h ****   *
 991:Drivers/STM32WBxx_HAL_Driver/Inc/stm32wbxx_ll_pwr.h ****   *         (*) Not available on devices STM32WB50xx, STM32WB35xx, STM32WB30xx, STM32WB15xx, STM32W
 992:Drivers/STM32WBxx_HAL_Driver/Inc/stm32wbxx_ll_pwr.h ****   * @retval None
 993:Drivers/STM32WBxx_HAL_Driver/Inc/stm32wbxx_ll_pwr.h ****   */
 994:Drivers/STM32WBxx_HAL_Driver/Inc/stm32wbxx_ll_pwr.h **** __STATIC_INLINE void LL_PWR_SetWakeUpPinPolarityLow(uint32_t WakeUpPin)
 995:Drivers/STM32WBxx_HAL_Driver/Inc/stm32wbxx_ll_pwr.h **** {
 996:Drivers/STM32WBxx_HAL_Driver/Inc/stm32wbxx_ll_pwr.h ****   SET_BIT(PWR->CR4, WakeUpPin);
 997:Drivers/STM32WBxx_HAL_Driver/Inc/stm32wbxx_ll_pwr.h **** }
 998:Drivers/STM32WBxx_HAL_Driver/Inc/stm32wbxx_ll_pwr.h **** 
 999:Drivers/STM32WBxx_HAL_Driver/Inc/stm32wbxx_ll_pwr.h **** /**
1000:Drivers/STM32WBxx_HAL_Driver/Inc/stm32wbxx_ll_pwr.h ****   * @brief  Set the Wake-Up pin polarity high for the event detection
1001:Drivers/STM32WBxx_HAL_Driver/Inc/stm32wbxx_ll_pwr.h ****   * @rmtoll CR4          WP1           LL_PWR_SetWakeUpPinPolarityHigh\n
1002:Drivers/STM32WBxx_HAL_Driver/Inc/stm32wbxx_ll_pwr.h ****   *         CR4          WP2           LL_PWR_SetWakeUpPinPolarityHigh\n
1003:Drivers/STM32WBxx_HAL_Driver/Inc/stm32wbxx_ll_pwr.h ****   *         CR4          WP3           LL_PWR_SetWakeUpPinPolarityHigh\n
1004:Drivers/STM32WBxx_HAL_Driver/Inc/stm32wbxx_ll_pwr.h ****   *         CR4          WP4           LL_PWR_SetWakeUpPinPolarityHigh\n
1005:Drivers/STM32WBxx_HAL_Driver/Inc/stm32wbxx_ll_pwr.h ****   *         CR4          WP5           LL_PWR_SetWakeUpPinPolarityHigh
1006:Drivers/STM32WBxx_HAL_Driver/Inc/stm32wbxx_ll_pwr.h ****   * @param  WakeUpPin This parameter can be one of the following values:
1007:Drivers/STM32WBxx_HAL_Driver/Inc/stm32wbxx_ll_pwr.h ****   *         @arg @ref LL_PWR_WAKEUP_PIN1
1008:Drivers/STM32WBxx_HAL_Driver/Inc/stm32wbxx_ll_pwr.h ****   *         @arg @ref LL_PWR_WAKEUP_PIN2 (*)
1009:Drivers/STM32WBxx_HAL_Driver/Inc/stm32wbxx_ll_pwr.h ****   *         @arg @ref LL_PWR_WAKEUP_PIN3 (*)
1010:Drivers/STM32WBxx_HAL_Driver/Inc/stm32wbxx_ll_pwr.h ****   *         @arg @ref LL_PWR_WAKEUP_PIN4
1011:Drivers/STM32WBxx_HAL_Driver/Inc/stm32wbxx_ll_pwr.h ****   *         @arg @ref LL_PWR_WAKEUP_PIN5 (*)
1012:Drivers/STM32WBxx_HAL_Driver/Inc/stm32wbxx_ll_pwr.h ****   *
1013:Drivers/STM32WBxx_HAL_Driver/Inc/stm32wbxx_ll_pwr.h ****   *         (*) Not available on devices STM32WB50xx, STM32WB35xx, STM32WB30xx, STM32WB15xx, STM32W
1014:Drivers/STM32WBxx_HAL_Driver/Inc/stm32wbxx_ll_pwr.h ****   * @retval None
1015:Drivers/STM32WBxx_HAL_Driver/Inc/stm32wbxx_ll_pwr.h ****   */
1016:Drivers/STM32WBxx_HAL_Driver/Inc/stm32wbxx_ll_pwr.h **** __STATIC_INLINE void LL_PWR_SetWakeUpPinPolarityHigh(uint32_t WakeUpPin)
1017:Drivers/STM32WBxx_HAL_Driver/Inc/stm32wbxx_ll_pwr.h **** {
1018:Drivers/STM32WBxx_HAL_Driver/Inc/stm32wbxx_ll_pwr.h ****   CLEAR_BIT(PWR->CR4, WakeUpPin);
1019:Drivers/STM32WBxx_HAL_Driver/Inc/stm32wbxx_ll_pwr.h **** }
1020:Drivers/STM32WBxx_HAL_Driver/Inc/stm32wbxx_ll_pwr.h **** 
1021:Drivers/STM32WBxx_HAL_Driver/Inc/stm32wbxx_ll_pwr.h **** /**
1022:Drivers/STM32WBxx_HAL_Driver/Inc/stm32wbxx_ll_pwr.h ****   * @brief  Get the Wake-Up pin polarity for the event detection
1023:Drivers/STM32WBxx_HAL_Driver/Inc/stm32wbxx_ll_pwr.h ****   * @rmtoll CR4          WP1           LL_PWR_IsWakeUpPinPolarityLow\n
1024:Drivers/STM32WBxx_HAL_Driver/Inc/stm32wbxx_ll_pwr.h ****   *         CR4          WP2           LL_PWR_IsWakeUpPinPolarityLow\n
1025:Drivers/STM32WBxx_HAL_Driver/Inc/stm32wbxx_ll_pwr.h ****   *         CR4          WP3           LL_PWR_IsWakeUpPinPolarityLow\n
1026:Drivers/STM32WBxx_HAL_Driver/Inc/stm32wbxx_ll_pwr.h ****   *         CR4          WP4           LL_PWR_IsWakeUpPinPolarityLow\n
1027:Drivers/STM32WBxx_HAL_Driver/Inc/stm32wbxx_ll_pwr.h ****   *         CR4          WP5           LL_PWR_IsWakeUpPinPolarityLow
1028:Drivers/STM32WBxx_HAL_Driver/Inc/stm32wbxx_ll_pwr.h ****   * @param  WakeUpPin This parameter can be one of the following values:
1029:Drivers/STM32WBxx_HAL_Driver/Inc/stm32wbxx_ll_pwr.h ****   *         @arg @ref LL_PWR_WAKEUP_PIN1
1030:Drivers/STM32WBxx_HAL_Driver/Inc/stm32wbxx_ll_pwr.h ****   *         @arg @ref LL_PWR_WAKEUP_PIN2 (*)
1031:Drivers/STM32WBxx_HAL_Driver/Inc/stm32wbxx_ll_pwr.h ****   *         @arg @ref LL_PWR_WAKEUP_PIN3 (*)
1032:Drivers/STM32WBxx_HAL_Driver/Inc/stm32wbxx_ll_pwr.h ****   *         @arg @ref LL_PWR_WAKEUP_PIN4
1033:Drivers/STM32WBxx_HAL_Driver/Inc/stm32wbxx_ll_pwr.h ****   *         @arg @ref LL_PWR_WAKEUP_PIN5 (*)
1034:Drivers/STM32WBxx_HAL_Driver/Inc/stm32wbxx_ll_pwr.h ****   *
1035:Drivers/STM32WBxx_HAL_Driver/Inc/stm32wbxx_ll_pwr.h ****   *         (*) Not available on devices STM32WB50xx, STM32WB35xx, STM32WB30xx, STM32WB15xx, STM32W
1036:Drivers/STM32WBxx_HAL_Driver/Inc/stm32wbxx_ll_pwr.h ****   * @retval State of bit (1 or 0).
ARM GAS  C:\Users\Nathan\AppData\Local\Temp\ccvsgOlc.s 			page 52


1037:Drivers/STM32WBxx_HAL_Driver/Inc/stm32wbxx_ll_pwr.h ****   */
1038:Drivers/STM32WBxx_HAL_Driver/Inc/stm32wbxx_ll_pwr.h **** __STATIC_INLINE uint32_t LL_PWR_IsWakeUpPinPolarityLow(uint32_t WakeUpPin)
1039:Drivers/STM32WBxx_HAL_Driver/Inc/stm32wbxx_ll_pwr.h **** {
1040:Drivers/STM32WBxx_HAL_Driver/Inc/stm32wbxx_ll_pwr.h ****   return ((READ_BIT(PWR->CR4, WakeUpPin) == (WakeUpPin)) ? 1UL : 0UL);
1041:Drivers/STM32WBxx_HAL_Driver/Inc/stm32wbxx_ll_pwr.h **** }
1042:Drivers/STM32WBxx_HAL_Driver/Inc/stm32wbxx_ll_pwr.h **** 
1043:Drivers/STM32WBxx_HAL_Driver/Inc/stm32wbxx_ll_pwr.h **** /**
1044:Drivers/STM32WBxx_HAL_Driver/Inc/stm32wbxx_ll_pwr.h ****   * @brief  Enable GPIO pull-up state in Standby and Shutdown modes
1045:Drivers/STM32WBxx_HAL_Driver/Inc/stm32wbxx_ll_pwr.h ****   * @note   Some pins are not configurable for pulling in Standby and Shutdown
1046:Drivers/STM32WBxx_HAL_Driver/Inc/stm32wbxx_ll_pwr.h ****   *         modes. Refer to reference manual for available pins and ports.
1047:Drivers/STM32WBxx_HAL_Driver/Inc/stm32wbxx_ll_pwr.h ****   * @rmtoll PUCRA        PU0-15        LL_PWR_EnableGPIOPullUp\n
1048:Drivers/STM32WBxx_HAL_Driver/Inc/stm32wbxx_ll_pwr.h ****   *         PUCRB        PU0-15        LL_PWR_EnableGPIOPullUp\n
1049:Drivers/STM32WBxx_HAL_Driver/Inc/stm32wbxx_ll_pwr.h ****   *         PUCRC        PU0-15        LL_PWR_EnableGPIOPullUp\n
1050:Drivers/STM32WBxx_HAL_Driver/Inc/stm32wbxx_ll_pwr.h ****   *         PUCRD        PU0-15        LL_PWR_EnableGPIOPullUp\n
1051:Drivers/STM32WBxx_HAL_Driver/Inc/stm32wbxx_ll_pwr.h ****   *         PUCRE        PU0-15        LL_PWR_EnableGPIOPullUp\n
1052:Drivers/STM32WBxx_HAL_Driver/Inc/stm32wbxx_ll_pwr.h ****   *         PUCRH        PU0-15        LL_PWR_EnableGPIOPullUp
1053:Drivers/STM32WBxx_HAL_Driver/Inc/stm32wbxx_ll_pwr.h ****   * @param  GPIO This parameter can be one of the following values:
1054:Drivers/STM32WBxx_HAL_Driver/Inc/stm32wbxx_ll_pwr.h ****   *         @arg @ref LL_PWR_GPIO_A
1055:Drivers/STM32WBxx_HAL_Driver/Inc/stm32wbxx_ll_pwr.h ****   *         @arg @ref LL_PWR_GPIO_B
1056:Drivers/STM32WBxx_HAL_Driver/Inc/stm32wbxx_ll_pwr.h ****   *         @arg @ref LL_PWR_GPIO_C
1057:Drivers/STM32WBxx_HAL_Driver/Inc/stm32wbxx_ll_pwr.h ****   *         @arg @ref LL_PWR_GPIO_D
1058:Drivers/STM32WBxx_HAL_Driver/Inc/stm32wbxx_ll_pwr.h ****   *         @arg @ref LL_PWR_GPIO_E
1059:Drivers/STM32WBxx_HAL_Driver/Inc/stm32wbxx_ll_pwr.h ****   *         @arg @ref LL_PWR_GPIO_H
1060:Drivers/STM32WBxx_HAL_Driver/Inc/stm32wbxx_ll_pwr.h ****   * @param  GPIONumber This parameter can be one of the following values:
1061:Drivers/STM32WBxx_HAL_Driver/Inc/stm32wbxx_ll_pwr.h ****   *         @arg @ref LL_PWR_GPIO_BIT_0
1062:Drivers/STM32WBxx_HAL_Driver/Inc/stm32wbxx_ll_pwr.h ****   *         @arg @ref LL_PWR_GPIO_BIT_1
1063:Drivers/STM32WBxx_HAL_Driver/Inc/stm32wbxx_ll_pwr.h ****   *         @arg @ref LL_PWR_GPIO_BIT_2
1064:Drivers/STM32WBxx_HAL_Driver/Inc/stm32wbxx_ll_pwr.h ****   *         @arg @ref LL_PWR_GPIO_BIT_3
1065:Drivers/STM32WBxx_HAL_Driver/Inc/stm32wbxx_ll_pwr.h ****   *         @arg @ref LL_PWR_GPIO_BIT_4
1066:Drivers/STM32WBxx_HAL_Driver/Inc/stm32wbxx_ll_pwr.h ****   *         @arg @ref LL_PWR_GPIO_BIT_5
1067:Drivers/STM32WBxx_HAL_Driver/Inc/stm32wbxx_ll_pwr.h ****   *         @arg @ref LL_PWR_GPIO_BIT_6
1068:Drivers/STM32WBxx_HAL_Driver/Inc/stm32wbxx_ll_pwr.h ****   *         @arg @ref LL_PWR_GPIO_BIT_7
1069:Drivers/STM32WBxx_HAL_Driver/Inc/stm32wbxx_ll_pwr.h ****   *         @arg @ref LL_PWR_GPIO_BIT_8
1070:Drivers/STM32WBxx_HAL_Driver/Inc/stm32wbxx_ll_pwr.h ****   *         @arg @ref LL_PWR_GPIO_BIT_9
1071:Drivers/STM32WBxx_HAL_Driver/Inc/stm32wbxx_ll_pwr.h ****   *         @arg @ref LL_PWR_GPIO_BIT_10
1072:Drivers/STM32WBxx_HAL_Driver/Inc/stm32wbxx_ll_pwr.h ****   *         @arg @ref LL_PWR_GPIO_BIT_11
1073:Drivers/STM32WBxx_HAL_Driver/Inc/stm32wbxx_ll_pwr.h ****   *         @arg @ref LL_PWR_GPIO_BIT_12
1074:Drivers/STM32WBxx_HAL_Driver/Inc/stm32wbxx_ll_pwr.h ****   *         @arg @ref LL_PWR_GPIO_BIT_13
1075:Drivers/STM32WBxx_HAL_Driver/Inc/stm32wbxx_ll_pwr.h ****   *         @arg @ref LL_PWR_GPIO_BIT_14
1076:Drivers/STM32WBxx_HAL_Driver/Inc/stm32wbxx_ll_pwr.h ****   *         @arg @ref LL_PWR_GPIO_BIT_15
1077:Drivers/STM32WBxx_HAL_Driver/Inc/stm32wbxx_ll_pwr.h ****   * @retval None
1078:Drivers/STM32WBxx_HAL_Driver/Inc/stm32wbxx_ll_pwr.h ****   */
1079:Drivers/STM32WBxx_HAL_Driver/Inc/stm32wbxx_ll_pwr.h **** __STATIC_INLINE void LL_PWR_EnableGPIOPullUp(uint32_t GPIO, uint32_t GPIONumber)
1080:Drivers/STM32WBxx_HAL_Driver/Inc/stm32wbxx_ll_pwr.h **** {
1081:Drivers/STM32WBxx_HAL_Driver/Inc/stm32wbxx_ll_pwr.h ****   SET_BIT(*((__IO uint32_t *)GPIO), GPIONumber);
1082:Drivers/STM32WBxx_HAL_Driver/Inc/stm32wbxx_ll_pwr.h **** }
1083:Drivers/STM32WBxx_HAL_Driver/Inc/stm32wbxx_ll_pwr.h **** 
1084:Drivers/STM32WBxx_HAL_Driver/Inc/stm32wbxx_ll_pwr.h **** /**
1085:Drivers/STM32WBxx_HAL_Driver/Inc/stm32wbxx_ll_pwr.h ****   * @brief  Disable GPIO pull-up state in Standby and Shutdown modes
1086:Drivers/STM32WBxx_HAL_Driver/Inc/stm32wbxx_ll_pwr.h ****   * @note   Some pins are not configurable for pulling in Standby and Shutdown
1087:Drivers/STM32WBxx_HAL_Driver/Inc/stm32wbxx_ll_pwr.h ****   *         modes. Refer to reference manual for available pins and ports.
1088:Drivers/STM32WBxx_HAL_Driver/Inc/stm32wbxx_ll_pwr.h ****   * @rmtoll PUCRA        PU0-15        LL_PWR_DisableGPIOPullUp\n
1089:Drivers/STM32WBxx_HAL_Driver/Inc/stm32wbxx_ll_pwr.h ****   *         PUCRB        PU0-15        LL_PWR_DisableGPIOPullUp\n
1090:Drivers/STM32WBxx_HAL_Driver/Inc/stm32wbxx_ll_pwr.h ****   *         PUCRC        PU0-15        LL_PWR_DisableGPIOPullUp\n
1091:Drivers/STM32WBxx_HAL_Driver/Inc/stm32wbxx_ll_pwr.h ****   *         PUCRD        PU0-15        LL_PWR_DisableGPIOPullUp\n
1092:Drivers/STM32WBxx_HAL_Driver/Inc/stm32wbxx_ll_pwr.h ****   *         PUCRE        PU0-15        LL_PWR_DisableGPIOPullUp\n
1093:Drivers/STM32WBxx_HAL_Driver/Inc/stm32wbxx_ll_pwr.h ****   *         PUCRH        PU0-15        LL_PWR_DisableGPIOPullUp
ARM GAS  C:\Users\Nathan\AppData\Local\Temp\ccvsgOlc.s 			page 53


1094:Drivers/STM32WBxx_HAL_Driver/Inc/stm32wbxx_ll_pwr.h ****   * @param  GPIO This parameter can be one of the following values:
1095:Drivers/STM32WBxx_HAL_Driver/Inc/stm32wbxx_ll_pwr.h ****   *         @arg @ref LL_PWR_GPIO_A
1096:Drivers/STM32WBxx_HAL_Driver/Inc/stm32wbxx_ll_pwr.h ****   *         @arg @ref LL_PWR_GPIO_B
1097:Drivers/STM32WBxx_HAL_Driver/Inc/stm32wbxx_ll_pwr.h ****   *         @arg @ref LL_PWR_GPIO_C
1098:Drivers/STM32WBxx_HAL_Driver/Inc/stm32wbxx_ll_pwr.h ****   *         @arg @ref LL_PWR_GPIO_D
1099:Drivers/STM32WBxx_HAL_Driver/Inc/stm32wbxx_ll_pwr.h ****   *         @arg @ref LL_PWR_GPIO_E
1100:Drivers/STM32WBxx_HAL_Driver/Inc/stm32wbxx_ll_pwr.h ****   *         @arg @ref LL_PWR_GPIO_H
1101:Drivers/STM32WBxx_HAL_Driver/Inc/stm32wbxx_ll_pwr.h ****   * @param  GPIONumber This parameter can be one of the following values:
1102:Drivers/STM32WBxx_HAL_Driver/Inc/stm32wbxx_ll_pwr.h ****   *         @arg @ref LL_PWR_GPIO_BIT_0
1103:Drivers/STM32WBxx_HAL_Driver/Inc/stm32wbxx_ll_pwr.h ****   *         @arg @ref LL_PWR_GPIO_BIT_1
1104:Drivers/STM32WBxx_HAL_Driver/Inc/stm32wbxx_ll_pwr.h ****   *         @arg @ref LL_PWR_GPIO_BIT_2
1105:Drivers/STM32WBxx_HAL_Driver/Inc/stm32wbxx_ll_pwr.h ****   *         @arg @ref LL_PWR_GPIO_BIT_3
1106:Drivers/STM32WBxx_HAL_Driver/Inc/stm32wbxx_ll_pwr.h ****   *         @arg @ref LL_PWR_GPIO_BIT_4
1107:Drivers/STM32WBxx_HAL_Driver/Inc/stm32wbxx_ll_pwr.h ****   *         @arg @ref LL_PWR_GPIO_BIT_5
1108:Drivers/STM32WBxx_HAL_Driver/Inc/stm32wbxx_ll_pwr.h ****   *         @arg @ref LL_PWR_GPIO_BIT_6
1109:Drivers/STM32WBxx_HAL_Driver/Inc/stm32wbxx_ll_pwr.h ****   *         @arg @ref LL_PWR_GPIO_BIT_7
1110:Drivers/STM32WBxx_HAL_Driver/Inc/stm32wbxx_ll_pwr.h ****   *         @arg @ref LL_PWR_GPIO_BIT_8
1111:Drivers/STM32WBxx_HAL_Driver/Inc/stm32wbxx_ll_pwr.h ****   *         @arg @ref LL_PWR_GPIO_BIT_9
1112:Drivers/STM32WBxx_HAL_Driver/Inc/stm32wbxx_ll_pwr.h ****   *         @arg @ref LL_PWR_GPIO_BIT_10
1113:Drivers/STM32WBxx_HAL_Driver/Inc/stm32wbxx_ll_pwr.h ****   *         @arg @ref LL_PWR_GPIO_BIT_11
1114:Drivers/STM32WBxx_HAL_Driver/Inc/stm32wbxx_ll_pwr.h ****   *         @arg @ref LL_PWR_GPIO_BIT_12
1115:Drivers/STM32WBxx_HAL_Driver/Inc/stm32wbxx_ll_pwr.h ****   *         @arg @ref LL_PWR_GPIO_BIT_13
1116:Drivers/STM32WBxx_HAL_Driver/Inc/stm32wbxx_ll_pwr.h ****   *         @arg @ref LL_PWR_GPIO_BIT_14
1117:Drivers/STM32WBxx_HAL_Driver/Inc/stm32wbxx_ll_pwr.h ****   *         @arg @ref LL_PWR_GPIO_BIT_15
1118:Drivers/STM32WBxx_HAL_Driver/Inc/stm32wbxx_ll_pwr.h ****   * @retval None
1119:Drivers/STM32WBxx_HAL_Driver/Inc/stm32wbxx_ll_pwr.h ****   */
1120:Drivers/STM32WBxx_HAL_Driver/Inc/stm32wbxx_ll_pwr.h **** __STATIC_INLINE void LL_PWR_DisableGPIOPullUp(uint32_t GPIO, uint32_t GPIONumber)
1121:Drivers/STM32WBxx_HAL_Driver/Inc/stm32wbxx_ll_pwr.h **** {
1122:Drivers/STM32WBxx_HAL_Driver/Inc/stm32wbxx_ll_pwr.h ****   CLEAR_BIT(*((__IO uint32_t *)GPIO), GPIONumber);
1123:Drivers/STM32WBxx_HAL_Driver/Inc/stm32wbxx_ll_pwr.h **** }
1124:Drivers/STM32WBxx_HAL_Driver/Inc/stm32wbxx_ll_pwr.h **** 
1125:Drivers/STM32WBxx_HAL_Driver/Inc/stm32wbxx_ll_pwr.h **** /**
1126:Drivers/STM32WBxx_HAL_Driver/Inc/stm32wbxx_ll_pwr.h ****   * @brief  Check if GPIO pull-up state is enabled
1127:Drivers/STM32WBxx_HAL_Driver/Inc/stm32wbxx_ll_pwr.h ****   * @rmtoll PUCRA        PU0-15        LL_PWR_IsEnabledGPIOPullUp\n
1128:Drivers/STM32WBxx_HAL_Driver/Inc/stm32wbxx_ll_pwr.h ****   *         PUCRB        PU0-15        LL_PWR_IsEnabledGPIOPullUp\n
1129:Drivers/STM32WBxx_HAL_Driver/Inc/stm32wbxx_ll_pwr.h ****   *         PUCRC        PU0-15        LL_PWR_IsEnabledGPIOPullUp\n
1130:Drivers/STM32WBxx_HAL_Driver/Inc/stm32wbxx_ll_pwr.h ****   *         PUCRD        PU0-15        LL_PWR_IsEnabledGPIOPullUp\n
1131:Drivers/STM32WBxx_HAL_Driver/Inc/stm32wbxx_ll_pwr.h ****   *         PUCRE        PU0-15        LL_PWR_IsEnabledGPIOPullUp\n
1132:Drivers/STM32WBxx_HAL_Driver/Inc/stm32wbxx_ll_pwr.h ****   *         PUCRH        PU0-15        LL_PWR_IsEnabledGPIOPullUp
1133:Drivers/STM32WBxx_HAL_Driver/Inc/stm32wbxx_ll_pwr.h ****   * @param  GPIO This parameter can be one of the following values:
1134:Drivers/STM32WBxx_HAL_Driver/Inc/stm32wbxx_ll_pwr.h ****   *         @arg @ref LL_PWR_GPIO_A
1135:Drivers/STM32WBxx_HAL_Driver/Inc/stm32wbxx_ll_pwr.h ****   *         @arg @ref LL_PWR_GPIO_B
1136:Drivers/STM32WBxx_HAL_Driver/Inc/stm32wbxx_ll_pwr.h ****   *         @arg @ref LL_PWR_GPIO_C
1137:Drivers/STM32WBxx_HAL_Driver/Inc/stm32wbxx_ll_pwr.h ****   *         @arg @ref LL_PWR_GPIO_D
1138:Drivers/STM32WBxx_HAL_Driver/Inc/stm32wbxx_ll_pwr.h ****   *         @arg @ref LL_PWR_GPIO_E
1139:Drivers/STM32WBxx_HAL_Driver/Inc/stm32wbxx_ll_pwr.h ****   *         @arg @ref LL_PWR_GPIO_H
1140:Drivers/STM32WBxx_HAL_Driver/Inc/stm32wbxx_ll_pwr.h ****   * @param  GPIONumber This parameter can be one of the following values:
1141:Drivers/STM32WBxx_HAL_Driver/Inc/stm32wbxx_ll_pwr.h ****   *         @arg @ref LL_PWR_GPIO_BIT_0
1142:Drivers/STM32WBxx_HAL_Driver/Inc/stm32wbxx_ll_pwr.h ****   *         @arg @ref LL_PWR_GPIO_BIT_1
1143:Drivers/STM32WBxx_HAL_Driver/Inc/stm32wbxx_ll_pwr.h ****   *         @arg @ref LL_PWR_GPIO_BIT_2
1144:Drivers/STM32WBxx_HAL_Driver/Inc/stm32wbxx_ll_pwr.h ****   *         @arg @ref LL_PWR_GPIO_BIT_3
1145:Drivers/STM32WBxx_HAL_Driver/Inc/stm32wbxx_ll_pwr.h ****   *         @arg @ref LL_PWR_GPIO_BIT_4
1146:Drivers/STM32WBxx_HAL_Driver/Inc/stm32wbxx_ll_pwr.h ****   *         @arg @ref LL_PWR_GPIO_BIT_5
1147:Drivers/STM32WBxx_HAL_Driver/Inc/stm32wbxx_ll_pwr.h ****   *         @arg @ref LL_PWR_GPIO_BIT_6
1148:Drivers/STM32WBxx_HAL_Driver/Inc/stm32wbxx_ll_pwr.h ****   *         @arg @ref LL_PWR_GPIO_BIT_7
1149:Drivers/STM32WBxx_HAL_Driver/Inc/stm32wbxx_ll_pwr.h ****   *         @arg @ref LL_PWR_GPIO_BIT_8
1150:Drivers/STM32WBxx_HAL_Driver/Inc/stm32wbxx_ll_pwr.h ****   *         @arg @ref LL_PWR_GPIO_BIT_9
ARM GAS  C:\Users\Nathan\AppData\Local\Temp\ccvsgOlc.s 			page 54


1151:Drivers/STM32WBxx_HAL_Driver/Inc/stm32wbxx_ll_pwr.h ****   *         @arg @ref LL_PWR_GPIO_BIT_10
1152:Drivers/STM32WBxx_HAL_Driver/Inc/stm32wbxx_ll_pwr.h ****   *         @arg @ref LL_PWR_GPIO_BIT_11
1153:Drivers/STM32WBxx_HAL_Driver/Inc/stm32wbxx_ll_pwr.h ****   *         @arg @ref LL_PWR_GPIO_BIT_12
1154:Drivers/STM32WBxx_HAL_Driver/Inc/stm32wbxx_ll_pwr.h ****   *         @arg @ref LL_PWR_GPIO_BIT_13
1155:Drivers/STM32WBxx_HAL_Driver/Inc/stm32wbxx_ll_pwr.h ****   *         @arg @ref LL_PWR_GPIO_BIT_14
1156:Drivers/STM32WBxx_HAL_Driver/Inc/stm32wbxx_ll_pwr.h ****   *         @arg @ref LL_PWR_GPIO_BIT_15
1157:Drivers/STM32WBxx_HAL_Driver/Inc/stm32wbxx_ll_pwr.h ****   * @retval State of bit (1 or 0).
1158:Drivers/STM32WBxx_HAL_Driver/Inc/stm32wbxx_ll_pwr.h ****   */
1159:Drivers/STM32WBxx_HAL_Driver/Inc/stm32wbxx_ll_pwr.h **** __STATIC_INLINE uint32_t LL_PWR_IsEnabledGPIOPullUp(uint32_t GPIO, uint32_t GPIONumber)
1160:Drivers/STM32WBxx_HAL_Driver/Inc/stm32wbxx_ll_pwr.h **** {
1161:Drivers/STM32WBxx_HAL_Driver/Inc/stm32wbxx_ll_pwr.h ****   return ((READ_BIT(*((__IO uint32_t *)GPIO), GPIONumber) == (GPIONumber)) ? 1UL : 0UL);
1162:Drivers/STM32WBxx_HAL_Driver/Inc/stm32wbxx_ll_pwr.h **** }
1163:Drivers/STM32WBxx_HAL_Driver/Inc/stm32wbxx_ll_pwr.h **** 
1164:Drivers/STM32WBxx_HAL_Driver/Inc/stm32wbxx_ll_pwr.h **** /**
1165:Drivers/STM32WBxx_HAL_Driver/Inc/stm32wbxx_ll_pwr.h ****   * @brief  Enable GPIO pull-down state in Standby and Shutdown modes
1166:Drivers/STM32WBxx_HAL_Driver/Inc/stm32wbxx_ll_pwr.h ****   * @note   Some pins are not configurable for pulling in Standby and Shutdown
1167:Drivers/STM32WBxx_HAL_Driver/Inc/stm32wbxx_ll_pwr.h ****   *         modes. Refer to reference manual for available pins and ports.
1168:Drivers/STM32WBxx_HAL_Driver/Inc/stm32wbxx_ll_pwr.h ****   * @rmtoll PDCRA        PD0-15        LL_PWR_EnableGPIOPullDown\n
1169:Drivers/STM32WBxx_HAL_Driver/Inc/stm32wbxx_ll_pwr.h ****   *         PDCRB        PD0-15        LL_PWR_EnableGPIOPullDown\n
1170:Drivers/STM32WBxx_HAL_Driver/Inc/stm32wbxx_ll_pwr.h ****   *         PDCRC        PD0-15        LL_PWR_EnableGPIOPullDown\n
1171:Drivers/STM32WBxx_HAL_Driver/Inc/stm32wbxx_ll_pwr.h ****   *         PDCRD        PD0-15        LL_PWR_EnableGPIOPullDown\n
1172:Drivers/STM32WBxx_HAL_Driver/Inc/stm32wbxx_ll_pwr.h ****   *         PDCRE        PD0-15        LL_PWR_EnableGPIOPullDown\n
1173:Drivers/STM32WBxx_HAL_Driver/Inc/stm32wbxx_ll_pwr.h ****   *         PDCRH        PD0-15        LL_PWR_EnableGPIOPullDown
1174:Drivers/STM32WBxx_HAL_Driver/Inc/stm32wbxx_ll_pwr.h ****   * @param  GPIO This parameter can be one of the following values:
1175:Drivers/STM32WBxx_HAL_Driver/Inc/stm32wbxx_ll_pwr.h ****   *         @arg @ref LL_PWR_GPIO_A
1176:Drivers/STM32WBxx_HAL_Driver/Inc/stm32wbxx_ll_pwr.h ****   *         @arg @ref LL_PWR_GPIO_B
1177:Drivers/STM32WBxx_HAL_Driver/Inc/stm32wbxx_ll_pwr.h ****   *         @arg @ref LL_PWR_GPIO_C
1178:Drivers/STM32WBxx_HAL_Driver/Inc/stm32wbxx_ll_pwr.h ****   *         @arg @ref LL_PWR_GPIO_D
1179:Drivers/STM32WBxx_HAL_Driver/Inc/stm32wbxx_ll_pwr.h ****   *         @arg @ref LL_PWR_GPIO_E
1180:Drivers/STM32WBxx_HAL_Driver/Inc/stm32wbxx_ll_pwr.h ****   *         @arg @ref LL_PWR_GPIO_H
1181:Drivers/STM32WBxx_HAL_Driver/Inc/stm32wbxx_ll_pwr.h ****   * @param  GPIONumber This parameter can be one of the following values:
1182:Drivers/STM32WBxx_HAL_Driver/Inc/stm32wbxx_ll_pwr.h ****   *         @arg @ref LL_PWR_GPIO_BIT_0
1183:Drivers/STM32WBxx_HAL_Driver/Inc/stm32wbxx_ll_pwr.h ****   *         @arg @ref LL_PWR_GPIO_BIT_1
1184:Drivers/STM32WBxx_HAL_Driver/Inc/stm32wbxx_ll_pwr.h ****   *         @arg @ref LL_PWR_GPIO_BIT_2
1185:Drivers/STM32WBxx_HAL_Driver/Inc/stm32wbxx_ll_pwr.h ****   *         @arg @ref LL_PWR_GPIO_BIT_3
1186:Drivers/STM32WBxx_HAL_Driver/Inc/stm32wbxx_ll_pwr.h ****   *         @arg @ref LL_PWR_GPIO_BIT_4
1187:Drivers/STM32WBxx_HAL_Driver/Inc/stm32wbxx_ll_pwr.h ****   *         @arg @ref LL_PWR_GPIO_BIT_5
1188:Drivers/STM32WBxx_HAL_Driver/Inc/stm32wbxx_ll_pwr.h ****   *         @arg @ref LL_PWR_GPIO_BIT_6
1189:Drivers/STM32WBxx_HAL_Driver/Inc/stm32wbxx_ll_pwr.h ****   *         @arg @ref LL_PWR_GPIO_BIT_7
1190:Drivers/STM32WBxx_HAL_Driver/Inc/stm32wbxx_ll_pwr.h ****   *         @arg @ref LL_PWR_GPIO_BIT_8
1191:Drivers/STM32WBxx_HAL_Driver/Inc/stm32wbxx_ll_pwr.h ****   *         @arg @ref LL_PWR_GPIO_BIT_9
1192:Drivers/STM32WBxx_HAL_Driver/Inc/stm32wbxx_ll_pwr.h ****   *         @arg @ref LL_PWR_GPIO_BIT_10
1193:Drivers/STM32WBxx_HAL_Driver/Inc/stm32wbxx_ll_pwr.h ****   *         @arg @ref LL_PWR_GPIO_BIT_11
1194:Drivers/STM32WBxx_HAL_Driver/Inc/stm32wbxx_ll_pwr.h ****   *         @arg @ref LL_PWR_GPIO_BIT_12
1195:Drivers/STM32WBxx_HAL_Driver/Inc/stm32wbxx_ll_pwr.h ****   *         @arg @ref LL_PWR_GPIO_BIT_13
1196:Drivers/STM32WBxx_HAL_Driver/Inc/stm32wbxx_ll_pwr.h ****   *         @arg @ref LL_PWR_GPIO_BIT_14
1197:Drivers/STM32WBxx_HAL_Driver/Inc/stm32wbxx_ll_pwr.h ****   *         @arg @ref LL_PWR_GPIO_BIT_15
1198:Drivers/STM32WBxx_HAL_Driver/Inc/stm32wbxx_ll_pwr.h ****   * @retval None
1199:Drivers/STM32WBxx_HAL_Driver/Inc/stm32wbxx_ll_pwr.h ****   */
1200:Drivers/STM32WBxx_HAL_Driver/Inc/stm32wbxx_ll_pwr.h **** __STATIC_INLINE void LL_PWR_EnableGPIOPullDown(uint32_t GPIO, uint32_t GPIONumber)
1201:Drivers/STM32WBxx_HAL_Driver/Inc/stm32wbxx_ll_pwr.h **** {
1202:Drivers/STM32WBxx_HAL_Driver/Inc/stm32wbxx_ll_pwr.h ****   SET_BIT(*((__IO uint32_t *)(GPIO + 4UL)), GPIONumber);
1203:Drivers/STM32WBxx_HAL_Driver/Inc/stm32wbxx_ll_pwr.h **** }
1204:Drivers/STM32WBxx_HAL_Driver/Inc/stm32wbxx_ll_pwr.h **** 
1205:Drivers/STM32WBxx_HAL_Driver/Inc/stm32wbxx_ll_pwr.h **** /**
1206:Drivers/STM32WBxx_HAL_Driver/Inc/stm32wbxx_ll_pwr.h ****   * @brief  Disable GPIO pull-down state in Standby and Shutdown modes
1207:Drivers/STM32WBxx_HAL_Driver/Inc/stm32wbxx_ll_pwr.h ****   * @note   Some pins are not configurable for pulling in Standby and Shutdown
ARM GAS  C:\Users\Nathan\AppData\Local\Temp\ccvsgOlc.s 			page 55


1208:Drivers/STM32WBxx_HAL_Driver/Inc/stm32wbxx_ll_pwr.h ****   *         modes. Refer to reference manual for available pins and ports.
1209:Drivers/STM32WBxx_HAL_Driver/Inc/stm32wbxx_ll_pwr.h ****   * @rmtoll PDCRA        PD0-15        LL_PWR_DisableGPIOPullDown\n
1210:Drivers/STM32WBxx_HAL_Driver/Inc/stm32wbxx_ll_pwr.h ****   *         PDCRB        PD0-15        LL_PWR_DisableGPIOPullDown\n
1211:Drivers/STM32WBxx_HAL_Driver/Inc/stm32wbxx_ll_pwr.h ****   *         PDCRC        PD0-15        LL_PWR_DisableGPIOPullDown\n
1212:Drivers/STM32WBxx_HAL_Driver/Inc/stm32wbxx_ll_pwr.h ****   *         PDCRD        PD0-15        LL_PWR_DisableGPIOPullDown\n
1213:Drivers/STM32WBxx_HAL_Driver/Inc/stm32wbxx_ll_pwr.h ****   *         PDCRE        PD0-15        LL_PWR_DisableGPIOPullDown\n
1214:Drivers/STM32WBxx_HAL_Driver/Inc/stm32wbxx_ll_pwr.h ****   *         PDCRH        PD0-15        LL_PWR_DisableGPIOPullDown
1215:Drivers/STM32WBxx_HAL_Driver/Inc/stm32wbxx_ll_pwr.h ****   * @param  GPIO This parameter can be one of the following values:
1216:Drivers/STM32WBxx_HAL_Driver/Inc/stm32wbxx_ll_pwr.h ****   *         @arg @ref LL_PWR_GPIO_A
1217:Drivers/STM32WBxx_HAL_Driver/Inc/stm32wbxx_ll_pwr.h ****   *         @arg @ref LL_PWR_GPIO_B
1218:Drivers/STM32WBxx_HAL_Driver/Inc/stm32wbxx_ll_pwr.h ****   *         @arg @ref LL_PWR_GPIO_C
1219:Drivers/STM32WBxx_HAL_Driver/Inc/stm32wbxx_ll_pwr.h ****   *         @arg @ref LL_PWR_GPIO_D
1220:Drivers/STM32WBxx_HAL_Driver/Inc/stm32wbxx_ll_pwr.h ****   *         @arg @ref LL_PWR_GPIO_E
1221:Drivers/STM32WBxx_HAL_Driver/Inc/stm32wbxx_ll_pwr.h ****   *         @arg @ref LL_PWR_GPIO_H
1222:Drivers/STM32WBxx_HAL_Driver/Inc/stm32wbxx_ll_pwr.h ****   * @param  GPIONumber This parameter can be one of the following values:
1223:Drivers/STM32WBxx_HAL_Driver/Inc/stm32wbxx_ll_pwr.h ****   *         @arg @ref LL_PWR_GPIO_BIT_0
1224:Drivers/STM32WBxx_HAL_Driver/Inc/stm32wbxx_ll_pwr.h ****   *         @arg @ref LL_PWR_GPIO_BIT_1
1225:Drivers/STM32WBxx_HAL_Driver/Inc/stm32wbxx_ll_pwr.h ****   *         @arg @ref LL_PWR_GPIO_BIT_2
1226:Drivers/STM32WBxx_HAL_Driver/Inc/stm32wbxx_ll_pwr.h ****   *         @arg @ref LL_PWR_GPIO_BIT_3
1227:Drivers/STM32WBxx_HAL_Driver/Inc/stm32wbxx_ll_pwr.h ****   *         @arg @ref LL_PWR_GPIO_BIT_4
1228:Drivers/STM32WBxx_HAL_Driver/Inc/stm32wbxx_ll_pwr.h ****   *         @arg @ref LL_PWR_GPIO_BIT_5
1229:Drivers/STM32WBxx_HAL_Driver/Inc/stm32wbxx_ll_pwr.h ****   *         @arg @ref LL_PWR_GPIO_BIT_6
1230:Drivers/STM32WBxx_HAL_Driver/Inc/stm32wbxx_ll_pwr.h ****   *         @arg @ref LL_PWR_GPIO_BIT_7
1231:Drivers/STM32WBxx_HAL_Driver/Inc/stm32wbxx_ll_pwr.h ****   *         @arg @ref LL_PWR_GPIO_BIT_8
1232:Drivers/STM32WBxx_HAL_Driver/Inc/stm32wbxx_ll_pwr.h ****   *         @arg @ref LL_PWR_GPIO_BIT_9
1233:Drivers/STM32WBxx_HAL_Driver/Inc/stm32wbxx_ll_pwr.h ****   *         @arg @ref LL_PWR_GPIO_BIT_10
1234:Drivers/STM32WBxx_HAL_Driver/Inc/stm32wbxx_ll_pwr.h ****   *         @arg @ref LL_PWR_GPIO_BIT_11
1235:Drivers/STM32WBxx_HAL_Driver/Inc/stm32wbxx_ll_pwr.h ****   *         @arg @ref LL_PWR_GPIO_BIT_12
1236:Drivers/STM32WBxx_HAL_Driver/Inc/stm32wbxx_ll_pwr.h ****   *         @arg @ref LL_PWR_GPIO_BIT_13
1237:Drivers/STM32WBxx_HAL_Driver/Inc/stm32wbxx_ll_pwr.h ****   *         @arg @ref LL_PWR_GPIO_BIT_14
1238:Drivers/STM32WBxx_HAL_Driver/Inc/stm32wbxx_ll_pwr.h ****   *         @arg @ref LL_PWR_GPIO_BIT_15
1239:Drivers/STM32WBxx_HAL_Driver/Inc/stm32wbxx_ll_pwr.h ****   * @retval None
1240:Drivers/STM32WBxx_HAL_Driver/Inc/stm32wbxx_ll_pwr.h ****   */
1241:Drivers/STM32WBxx_HAL_Driver/Inc/stm32wbxx_ll_pwr.h **** __STATIC_INLINE void LL_PWR_DisableGPIOPullDown(uint32_t GPIO, uint32_t GPIONumber)
1242:Drivers/STM32WBxx_HAL_Driver/Inc/stm32wbxx_ll_pwr.h **** {
1243:Drivers/STM32WBxx_HAL_Driver/Inc/stm32wbxx_ll_pwr.h ****   CLEAR_BIT(*((__IO uint32_t *)(GPIO + 4UL)), GPIONumber);
1244:Drivers/STM32WBxx_HAL_Driver/Inc/stm32wbxx_ll_pwr.h **** }
1245:Drivers/STM32WBxx_HAL_Driver/Inc/stm32wbxx_ll_pwr.h **** 
1246:Drivers/STM32WBxx_HAL_Driver/Inc/stm32wbxx_ll_pwr.h **** /**
1247:Drivers/STM32WBxx_HAL_Driver/Inc/stm32wbxx_ll_pwr.h ****   * @brief  Check if GPIO pull-down state is enabled
1248:Drivers/STM32WBxx_HAL_Driver/Inc/stm32wbxx_ll_pwr.h ****   * @rmtoll PDCRA        PD0-15        LL_PWR_IsEnabledGPIOPullDown\n
1249:Drivers/STM32WBxx_HAL_Driver/Inc/stm32wbxx_ll_pwr.h ****   *         PDCRB        PD0-15        LL_PWR_IsEnabledGPIOPullDown\n
1250:Drivers/STM32WBxx_HAL_Driver/Inc/stm32wbxx_ll_pwr.h ****   *         PDCRC        PD0-15        LL_PWR_IsEnabledGPIOPullDown\n
1251:Drivers/STM32WBxx_HAL_Driver/Inc/stm32wbxx_ll_pwr.h ****   *         PDCRD        PD0-15        LL_PWR_IsEnabledGPIOPullDown\n
1252:Drivers/STM32WBxx_HAL_Driver/Inc/stm32wbxx_ll_pwr.h ****   *         PDCRE        PD0-15        LL_PWR_IsEnabledGPIOPullDown\n
1253:Drivers/STM32WBxx_HAL_Driver/Inc/stm32wbxx_ll_pwr.h ****   *         PDCRH        PD0-15        LL_PWR_IsEnabledGPIOPullDown
1254:Drivers/STM32WBxx_HAL_Driver/Inc/stm32wbxx_ll_pwr.h ****   * @param  GPIO This parameter can be one of the following values:
1255:Drivers/STM32WBxx_HAL_Driver/Inc/stm32wbxx_ll_pwr.h ****   *         @arg @ref LL_PWR_GPIO_A
1256:Drivers/STM32WBxx_HAL_Driver/Inc/stm32wbxx_ll_pwr.h ****   *         @arg @ref LL_PWR_GPIO_B
1257:Drivers/STM32WBxx_HAL_Driver/Inc/stm32wbxx_ll_pwr.h ****   *         @arg @ref LL_PWR_GPIO_C
1258:Drivers/STM32WBxx_HAL_Driver/Inc/stm32wbxx_ll_pwr.h ****   *         @arg @ref LL_PWR_GPIO_D
1259:Drivers/STM32WBxx_HAL_Driver/Inc/stm32wbxx_ll_pwr.h ****   *         @arg @ref LL_PWR_GPIO_E
1260:Drivers/STM32WBxx_HAL_Driver/Inc/stm32wbxx_ll_pwr.h ****   *         @arg @ref LL_PWR_GPIO_H
1261:Drivers/STM32WBxx_HAL_Driver/Inc/stm32wbxx_ll_pwr.h ****   * @param  GPIONumber This parameter can be one of the following values:
1262:Drivers/STM32WBxx_HAL_Driver/Inc/stm32wbxx_ll_pwr.h ****   *         @arg @ref LL_PWR_GPIO_BIT_0
1263:Drivers/STM32WBxx_HAL_Driver/Inc/stm32wbxx_ll_pwr.h ****   *         @arg @ref LL_PWR_GPIO_BIT_1
1264:Drivers/STM32WBxx_HAL_Driver/Inc/stm32wbxx_ll_pwr.h ****   *         @arg @ref LL_PWR_GPIO_BIT_2
ARM GAS  C:\Users\Nathan\AppData\Local\Temp\ccvsgOlc.s 			page 56


1265:Drivers/STM32WBxx_HAL_Driver/Inc/stm32wbxx_ll_pwr.h ****   *         @arg @ref LL_PWR_GPIO_BIT_3
1266:Drivers/STM32WBxx_HAL_Driver/Inc/stm32wbxx_ll_pwr.h ****   *         @arg @ref LL_PWR_GPIO_BIT_4
1267:Drivers/STM32WBxx_HAL_Driver/Inc/stm32wbxx_ll_pwr.h ****   *         @arg @ref LL_PWR_GPIO_BIT_5
1268:Drivers/STM32WBxx_HAL_Driver/Inc/stm32wbxx_ll_pwr.h ****   *         @arg @ref LL_PWR_GPIO_BIT_6
1269:Drivers/STM32WBxx_HAL_Driver/Inc/stm32wbxx_ll_pwr.h ****   *         @arg @ref LL_PWR_GPIO_BIT_7
1270:Drivers/STM32WBxx_HAL_Driver/Inc/stm32wbxx_ll_pwr.h ****   *         @arg @ref LL_PWR_GPIO_BIT_8
1271:Drivers/STM32WBxx_HAL_Driver/Inc/stm32wbxx_ll_pwr.h ****   *         @arg @ref LL_PWR_GPIO_BIT_9
1272:Drivers/STM32WBxx_HAL_Driver/Inc/stm32wbxx_ll_pwr.h ****   *         @arg @ref LL_PWR_GPIO_BIT_10
1273:Drivers/STM32WBxx_HAL_Driver/Inc/stm32wbxx_ll_pwr.h ****   *         @arg @ref LL_PWR_GPIO_BIT_11
1274:Drivers/STM32WBxx_HAL_Driver/Inc/stm32wbxx_ll_pwr.h ****   *         @arg @ref LL_PWR_GPIO_BIT_12
1275:Drivers/STM32WBxx_HAL_Driver/Inc/stm32wbxx_ll_pwr.h ****   *         @arg @ref LL_PWR_GPIO_BIT_13
1276:Drivers/STM32WBxx_HAL_Driver/Inc/stm32wbxx_ll_pwr.h ****   *         @arg @ref LL_PWR_GPIO_BIT_14
1277:Drivers/STM32WBxx_HAL_Driver/Inc/stm32wbxx_ll_pwr.h ****   *         @arg @ref LL_PWR_GPIO_BIT_15
1278:Drivers/STM32WBxx_HAL_Driver/Inc/stm32wbxx_ll_pwr.h ****   * @retval State of bit (1 or 0).
1279:Drivers/STM32WBxx_HAL_Driver/Inc/stm32wbxx_ll_pwr.h ****   */
1280:Drivers/STM32WBxx_HAL_Driver/Inc/stm32wbxx_ll_pwr.h **** __STATIC_INLINE uint32_t LL_PWR_IsEnabledGPIOPullDown(uint32_t GPIO, uint32_t GPIONumber)
1281:Drivers/STM32WBxx_HAL_Driver/Inc/stm32wbxx_ll_pwr.h **** {
1282:Drivers/STM32WBxx_HAL_Driver/Inc/stm32wbxx_ll_pwr.h ****   return ((READ_BIT(*((__IO uint32_t *)(GPIO + 4UL)), GPIONumber) == (GPIONumber)) ? 1UL : 0UL);
1283:Drivers/STM32WBxx_HAL_Driver/Inc/stm32wbxx_ll_pwr.h **** }
1284:Drivers/STM32WBxx_HAL_Driver/Inc/stm32wbxx_ll_pwr.h **** 
1285:Drivers/STM32WBxx_HAL_Driver/Inc/stm32wbxx_ll_pwr.h **** #if defined(PWR_CR5_SMPSEN)
1286:Drivers/STM32WBxx_HAL_Driver/Inc/stm32wbxx_ll_pwr.h **** /**
1287:Drivers/STM32WBxx_HAL_Driver/Inc/stm32wbxx_ll_pwr.h ****   * @brief  Set BOR configuration
1288:Drivers/STM32WBxx_HAL_Driver/Inc/stm32wbxx_ll_pwr.h ****   * @rmtoll CR5          BORHC         LL_PWR_SetBORConfig
1289:Drivers/STM32WBxx_HAL_Driver/Inc/stm32wbxx_ll_pwr.h ****   * @param  BORConfiguration This parameter can be one of the following values:
1290:Drivers/STM32WBxx_HAL_Driver/Inc/stm32wbxx_ll_pwr.h ****   *         @arg @ref LL_PWR_BOR_SYSTEM_RESET
1291:Drivers/STM32WBxx_HAL_Driver/Inc/stm32wbxx_ll_pwr.h ****   *         @arg @ref LL_PWR_BOR_SMPS_FORCE_BYPASS
1292:Drivers/STM32WBxx_HAL_Driver/Inc/stm32wbxx_ll_pwr.h ****   */
1293:Drivers/STM32WBxx_HAL_Driver/Inc/stm32wbxx_ll_pwr.h **** __STATIC_INLINE void LL_PWR_SetBORConfig(uint32_t BORConfiguration)
 1278              		.loc 2 1293 22 view .LVU248
 1279              	.LBB59:
1294:Drivers/STM32WBxx_HAL_Driver/Inc/stm32wbxx_ll_pwr.h **** {
1295:Drivers/STM32WBxx_HAL_Driver/Inc/stm32wbxx_ll_pwr.h ****   MODIFY_REG(PWR->CR5, PWR_CR5_BORHC, BORConfiguration);
 1280              		.loc 2 1295 3 view .LVU249
 1281 0000 034A     		ldr	r2, .L119
 1282 0002 D369     		ldr	r3, [r2, #28]
 1283 0004 23F48073 		bic	r3, r3, #256
 1284 0008 1843     		orrs	r0, r0, r3
 1285              	.LVL79:
 1286              		.loc 2 1295 3 is_stmt 0 view .LVU250
 1287 000a D061     		str	r0, [r2, #28]
 1288              	.LVL80:
 1289              		.loc 2 1295 3 view .LVU251
 1290              	.LBE59:
 1291              	.LBE58:
 595:Drivers/STM32WBxx_HAL_Driver/Src/stm32wbxx_hal_pwr_ex.c **** }
 1292              		.loc 1 595 1 view .LVU252
 1293 000c 7047     		bx	lr
 1294              	.L120:
 1295 000e 00BF     		.align	2
 1296              	.L119:
 1297 0010 00040058 		.word	1476396032
 1298              		.cfi_endproc
 1299              	.LFE1128:
 1301              		.section	.text.HAL_PWREx_GetBORConfig,"ax",%progbits
 1302              		.align	1
 1303              		.global	HAL_PWREx_GetBORConfig
ARM GAS  C:\Users\Nathan\AppData\Local\Temp\ccvsgOlc.s 			page 57


 1304              		.syntax unified
 1305              		.thumb
 1306              		.thumb_func
 1308              	HAL_PWREx_GetBORConfig:
 1309              	.LFB1129:
 596:Drivers/STM32WBxx_HAL_Driver/Src/stm32wbxx_hal_pwr_ex.c **** 
 597:Drivers/STM32WBxx_HAL_Driver/Src/stm32wbxx_hal_pwr_ex.c **** /**
 598:Drivers/STM32WBxx_HAL_Driver/Src/stm32wbxx_hal_pwr_ex.c ****   * @brief  Get BOR configuration
 599:Drivers/STM32WBxx_HAL_Driver/Src/stm32wbxx_hal_pwr_ex.c ****   * @retval Returned value can be one of the following values:
 600:Drivers/STM32WBxx_HAL_Driver/Src/stm32wbxx_hal_pwr_ex.c ****   *         @arg @ref PWR_BOR_SYSTEM_RESET
 601:Drivers/STM32WBxx_HAL_Driver/Src/stm32wbxx_hal_pwr_ex.c ****   *         @arg @ref PWR_BOR_SMPS_FORCE_BYPASS
 602:Drivers/STM32WBxx_HAL_Driver/Src/stm32wbxx_hal_pwr_ex.c ****   */
 603:Drivers/STM32WBxx_HAL_Driver/Src/stm32wbxx_hal_pwr_ex.c **** uint32_t HAL_PWREx_GetBORConfig(void)
 604:Drivers/STM32WBxx_HAL_Driver/Src/stm32wbxx_hal_pwr_ex.c **** {
 1310              		.loc 1 604 1 is_stmt 1 view -0
 1311              		.cfi_startproc
 1312              		@ args = 0, pretend = 0, frame = 0
 1313              		@ frame_needed = 0, uses_anonymous_args = 0
 1314              		@ link register save eliminated.
 605:Drivers/STM32WBxx_HAL_Driver/Src/stm32wbxx_hal_pwr_ex.c ****   return LL_PWR_GetBORConfig();
 1315              		.loc 1 605 3 view .LVU254
 1316              	.LBB60:
 1317              	.LBI60:
1296:Drivers/STM32WBxx_HAL_Driver/Inc/stm32wbxx_ll_pwr.h **** }
1297:Drivers/STM32WBxx_HAL_Driver/Inc/stm32wbxx_ll_pwr.h **** 
1298:Drivers/STM32WBxx_HAL_Driver/Inc/stm32wbxx_ll_pwr.h **** /**
1299:Drivers/STM32WBxx_HAL_Driver/Inc/stm32wbxx_ll_pwr.h ****   * @brief  Get BOR configuration
1300:Drivers/STM32WBxx_HAL_Driver/Inc/stm32wbxx_ll_pwr.h ****   * @rmtoll CR5          BORHC         LL_PWR_GetBORConfig
1301:Drivers/STM32WBxx_HAL_Driver/Inc/stm32wbxx_ll_pwr.h ****   * @retval Returned value can be one of the following values:
1302:Drivers/STM32WBxx_HAL_Driver/Inc/stm32wbxx_ll_pwr.h ****   *         @arg @ref LL_PWR_BOR_SYSTEM_RESET
1303:Drivers/STM32WBxx_HAL_Driver/Inc/stm32wbxx_ll_pwr.h ****   *         @arg @ref LL_PWR_BOR_SMPS_FORCE_BYPASS
1304:Drivers/STM32WBxx_HAL_Driver/Inc/stm32wbxx_ll_pwr.h ****   */
1305:Drivers/STM32WBxx_HAL_Driver/Inc/stm32wbxx_ll_pwr.h **** __STATIC_INLINE uint32_t LL_PWR_GetBORConfig(void)
 1318              		.loc 2 1305 26 view .LVU255
 1319              	.LBB61:
1306:Drivers/STM32WBxx_HAL_Driver/Inc/stm32wbxx_ll_pwr.h **** {
1307:Drivers/STM32WBxx_HAL_Driver/Inc/stm32wbxx_ll_pwr.h ****   return (uint32_t)(READ_BIT(PWR->CR5, PWR_CR5_BORHC));
 1320              		.loc 2 1307 3 view .LVU256
 1321              		.loc 2 1307 21 is_stmt 0 view .LVU257
 1322 0000 024B     		ldr	r3, .L122
 1323 0002 D869     		ldr	r0, [r3, #28]
 1324              	.LBE61:
 1325              	.LBE60:
 606:Drivers/STM32WBxx_HAL_Driver/Src/stm32wbxx_hal_pwr_ex.c **** }
 1326              		.loc 1 606 1 view .LVU258
 1327 0004 00F48070 		and	r0, r0, #256
 1328 0008 7047     		bx	lr
 1329              	.L123:
 1330 000a 00BF     		.align	2
 1331              	.L122:
 1332 000c 00040058 		.word	1476396032
 1333              		.cfi_endproc
 1334              	.LFE1129:
 1336              		.section	.text.HAL_PWREx_HoldCore,"ax",%progbits
 1337              		.align	1
 1338              		.global	HAL_PWREx_HoldCore
 1339              		.syntax unified
ARM GAS  C:\Users\Nathan\AppData\Local\Temp\ccvsgOlc.s 			page 58


 1340              		.thumb
 1341              		.thumb_func
 1343              	HAL_PWREx_HoldCore:
 1344              	.LVL81:
 1345              	.LFB1130:
 607:Drivers/STM32WBxx_HAL_Driver/Src/stm32wbxx_hal_pwr_ex.c **** #endif /* PWR_CR5_SMPSEN */
 608:Drivers/STM32WBxx_HAL_Driver/Src/stm32wbxx_hal_pwr_ex.c **** 
 609:Drivers/STM32WBxx_HAL_Driver/Src/stm32wbxx_hal_pwr_ex.c **** /****************************************************************************/
 610:Drivers/STM32WBxx_HAL_Driver/Src/stm32wbxx_hal_pwr_ex.c **** /**
 611:Drivers/STM32WBxx_HAL_Driver/Src/stm32wbxx_hal_pwr_ex.c ****   * @brief  Hold the CPU and their allocated peripherals after reset or wakeup from stop or standby
 612:Drivers/STM32WBxx_HAL_Driver/Src/stm32wbxx_hal_pwr_ex.c ****   * @param  CPU: Specifies the core to be held.
 613:Drivers/STM32WBxx_HAL_Driver/Src/stm32wbxx_hal_pwr_ex.c ****   *              This parameter can be one of the following values:
 614:Drivers/STM32WBxx_HAL_Driver/Src/stm32wbxx_hal_pwr_ex.c ****   *             @arg PWR_CORE_CPU2: Hold CPU2 and set CPU1 as master.
 615:Drivers/STM32WBxx_HAL_Driver/Src/stm32wbxx_hal_pwr_ex.c ****   * @note   Hold CPU2 with CPU1 as master by default.
 616:Drivers/STM32WBxx_HAL_Driver/Src/stm32wbxx_hal_pwr_ex.c ****   * @retval None
 617:Drivers/STM32WBxx_HAL_Driver/Src/stm32wbxx_hal_pwr_ex.c ****   */
 618:Drivers/STM32WBxx_HAL_Driver/Src/stm32wbxx_hal_pwr_ex.c **** void HAL_PWREx_HoldCore(uint32_t CPU)
 619:Drivers/STM32WBxx_HAL_Driver/Src/stm32wbxx_hal_pwr_ex.c **** {
 1346              		.loc 1 619 1 is_stmt 1 view -0
 1347              		.cfi_startproc
 1348              		@ args = 0, pretend = 0, frame = 0
 1349              		@ frame_needed = 0, uses_anonymous_args = 0
 1350              		@ link register save eliminated.
 620:Drivers/STM32WBxx_HAL_Driver/Src/stm32wbxx_hal_pwr_ex.c ****   /* Check the parameters */
 621:Drivers/STM32WBxx_HAL_Driver/Src/stm32wbxx_hal_pwr_ex.c ****   assert_param(IS_PWR_CORE_HOLD_RELEASE(CPU));
 1351              		.loc 1 621 3 view .LVU260
 622:Drivers/STM32WBxx_HAL_Driver/Src/stm32wbxx_hal_pwr_ex.c **** 
 623:Drivers/STM32WBxx_HAL_Driver/Src/stm32wbxx_hal_pwr_ex.c ****   LL_PWR_DisableBootC2();
 1352              		.loc 1 623 3 view .LVU261
 1353              	.LBB62:
 1354              	.LBI62:
1308:Drivers/STM32WBxx_HAL_Driver/Inc/stm32wbxx_ll_pwr.h **** }
1309:Drivers/STM32WBxx_HAL_Driver/Inc/stm32wbxx_ll_pwr.h **** #endif /* PWR_CR5_SMPSEN */
1310:Drivers/STM32WBxx_HAL_Driver/Inc/stm32wbxx_ll_pwr.h **** 
1311:Drivers/STM32WBxx_HAL_Driver/Inc/stm32wbxx_ll_pwr.h **** /**
1312:Drivers/STM32WBxx_HAL_Driver/Inc/stm32wbxx_ll_pwr.h ****   * @}
1313:Drivers/STM32WBxx_HAL_Driver/Inc/stm32wbxx_ll_pwr.h ****   */
1314:Drivers/STM32WBxx_HAL_Driver/Inc/stm32wbxx_ll_pwr.h **** 
1315:Drivers/STM32WBxx_HAL_Driver/Inc/stm32wbxx_ll_pwr.h **** #if defined(PWR_CR5_SMPSEN)
1316:Drivers/STM32WBxx_HAL_Driver/Inc/stm32wbxx_ll_pwr.h **** /** @defgroup PWR_LL_EF_Configuration_SMPS Configuration of SMPS
1317:Drivers/STM32WBxx_HAL_Driver/Inc/stm32wbxx_ll_pwr.h ****   * @{
1318:Drivers/STM32WBxx_HAL_Driver/Inc/stm32wbxx_ll_pwr.h ****   */
1319:Drivers/STM32WBxx_HAL_Driver/Inc/stm32wbxx_ll_pwr.h **** 
1320:Drivers/STM32WBxx_HAL_Driver/Inc/stm32wbxx_ll_pwr.h **** /**
1321:Drivers/STM32WBxx_HAL_Driver/Inc/stm32wbxx_ll_pwr.h ****   * @brief  Set SMPS operating mode
1322:Drivers/STM32WBxx_HAL_Driver/Inc/stm32wbxx_ll_pwr.h ****   * @note   When SMPS step down converter SMPS mode is enabled,
1323:Drivers/STM32WBxx_HAL_Driver/Inc/stm32wbxx_ll_pwr.h ****   *         it is good practice to enable the BORH to monitor the supply:
1324:Drivers/STM32WBxx_HAL_Driver/Inc/stm32wbxx_ll_pwr.h ****   *         in this case, when the supply drops below the SMPS step down
1325:Drivers/STM32WBxx_HAL_Driver/Inc/stm32wbxx_ll_pwr.h ****   *         converter SMPS mode operating supply level,
1326:Drivers/STM32WBxx_HAL_Driver/Inc/stm32wbxx_ll_pwr.h ****   *         switching on the fly is performed automaticcaly
1327:Drivers/STM32WBxx_HAL_Driver/Inc/stm32wbxx_ll_pwr.h ****   *         and interruption is generated.
1328:Drivers/STM32WBxx_HAL_Driver/Inc/stm32wbxx_ll_pwr.h ****   *         Refer to function @ref LL_PWR_SetBORConfig().
1329:Drivers/STM32WBxx_HAL_Driver/Inc/stm32wbxx_ll_pwr.h ****   * @note   Occurrence of SMPS step down converter forced in bypass mode
1330:Drivers/STM32WBxx_HAL_Driver/Inc/stm32wbxx_ll_pwr.h ****   *         can be monitored by flag and interruption.
1331:Drivers/STM32WBxx_HAL_Driver/Inc/stm32wbxx_ll_pwr.h ****   *         Refer to functions
1332:Drivers/STM32WBxx_HAL_Driver/Inc/stm32wbxx_ll_pwr.h ****   *         @ref LL_PWR_IsActiveFlag_SMPSFB(), @ref LL_PWR_ClearFlag_SMPSFB(),
1333:Drivers/STM32WBxx_HAL_Driver/Inc/stm32wbxx_ll_pwr.h ****   *         @ref LL_PWR_EnableIT_BORH_SMPSFB().
ARM GAS  C:\Users\Nathan\AppData\Local\Temp\ccvsgOlc.s 			page 59


1334:Drivers/STM32WBxx_HAL_Driver/Inc/stm32wbxx_ll_pwr.h ****   * @rmtoll CR5          SMPSEN        LL_PWR_SMPS_SetMode \n
1335:Drivers/STM32WBxx_HAL_Driver/Inc/stm32wbxx_ll_pwr.h ****   *         CR5          SMPSBEN       LL_PWR_SMPS_SetMode
1336:Drivers/STM32WBxx_HAL_Driver/Inc/stm32wbxx_ll_pwr.h ****   * @param  OperatingMode This parameter can be one of the following values:
1337:Drivers/STM32WBxx_HAL_Driver/Inc/stm32wbxx_ll_pwr.h ****   *         @arg @ref LL_PWR_SMPS_BYPASS
1338:Drivers/STM32WBxx_HAL_Driver/Inc/stm32wbxx_ll_pwr.h ****   *         @arg @ref LL_PWR_SMPS_STEP_DOWN (1)
1339:Drivers/STM32WBxx_HAL_Driver/Inc/stm32wbxx_ll_pwr.h ****   *
1340:Drivers/STM32WBxx_HAL_Driver/Inc/stm32wbxx_ll_pwr.h ****   *         (1) SMPS operating mode step down or open depends on system low-power mode:
1341:Drivers/STM32WBxx_HAL_Driver/Inc/stm32wbxx_ll_pwr.h ****   *              - step down mode if system low power mode is run, LP run or stop0,
1342:Drivers/STM32WBxx_HAL_Driver/Inc/stm32wbxx_ll_pwr.h ****   *              - open mode if system low power mode is Stop1, Stop2, Standby or Shutdown
1343:Drivers/STM32WBxx_HAL_Driver/Inc/stm32wbxx_ll_pwr.h ****   * @retval None
1344:Drivers/STM32WBxx_HAL_Driver/Inc/stm32wbxx_ll_pwr.h ****   */
1345:Drivers/STM32WBxx_HAL_Driver/Inc/stm32wbxx_ll_pwr.h **** __STATIC_INLINE void LL_PWR_SMPS_SetMode(uint32_t OperatingMode)
1346:Drivers/STM32WBxx_HAL_Driver/Inc/stm32wbxx_ll_pwr.h **** {
1347:Drivers/STM32WBxx_HAL_Driver/Inc/stm32wbxx_ll_pwr.h ****   /* Note: Operation on bits performed to keep compatibility of literals      */
1348:Drivers/STM32WBxx_HAL_Driver/Inc/stm32wbxx_ll_pwr.h ****   /*       for all SMPS operating mode functions:                             */
1349:Drivers/STM32WBxx_HAL_Driver/Inc/stm32wbxx_ll_pwr.h ****   /*       "LL_PWR_SMPS_SetMode()", "LL_PWR_SMPS_GetMode()"                   */
1350:Drivers/STM32WBxx_HAL_Driver/Inc/stm32wbxx_ll_pwr.h ****   /*       and "LL_PWR_SMPS_GetEffectiveMode()".                              */
1351:Drivers/STM32WBxx_HAL_Driver/Inc/stm32wbxx_ll_pwr.h ****   MODIFY_REG(PWR->CR5, PWR_CR5_SMPSEN, (OperatingMode & PWR_SR2_SMPSF) << (PWR_CR5_SMPSEN_Pos - PWR
1352:Drivers/STM32WBxx_HAL_Driver/Inc/stm32wbxx_ll_pwr.h **** }
1353:Drivers/STM32WBxx_HAL_Driver/Inc/stm32wbxx_ll_pwr.h **** 
1354:Drivers/STM32WBxx_HAL_Driver/Inc/stm32wbxx_ll_pwr.h **** /**
1355:Drivers/STM32WBxx_HAL_Driver/Inc/stm32wbxx_ll_pwr.h ****   * @brief  Get SMPS operating mode
1356:Drivers/STM32WBxx_HAL_Driver/Inc/stm32wbxx_ll_pwr.h ****   * @rmtoll CR5          SMPSEN        LL_PWR_SMPS_GetMode \n
1357:Drivers/STM32WBxx_HAL_Driver/Inc/stm32wbxx_ll_pwr.h ****   *         CR5          SMPSBEN       LL_PWR_SMPS_GetMode
1358:Drivers/STM32WBxx_HAL_Driver/Inc/stm32wbxx_ll_pwr.h ****   * @retval Returned value can be one of the following values:
1359:Drivers/STM32WBxx_HAL_Driver/Inc/stm32wbxx_ll_pwr.h ****   *         @arg @ref LL_PWR_SMPS_BYPASS
1360:Drivers/STM32WBxx_HAL_Driver/Inc/stm32wbxx_ll_pwr.h ****   *         @arg @ref LL_PWR_SMPS_STEP_DOWN (1)
1361:Drivers/STM32WBxx_HAL_Driver/Inc/stm32wbxx_ll_pwr.h ****   *
1362:Drivers/STM32WBxx_HAL_Driver/Inc/stm32wbxx_ll_pwr.h ****   *         (1) SMPS operating mode step down or open depends on system low-power mode:
1363:Drivers/STM32WBxx_HAL_Driver/Inc/stm32wbxx_ll_pwr.h ****   *              - step down mode if system low power mode is run, LP run or stop0,
1364:Drivers/STM32WBxx_HAL_Driver/Inc/stm32wbxx_ll_pwr.h ****   *              - open mode if system low power mode is Stop1, Stop2, Standby or Shutdown
1365:Drivers/STM32WBxx_HAL_Driver/Inc/stm32wbxx_ll_pwr.h ****   */
1366:Drivers/STM32WBxx_HAL_Driver/Inc/stm32wbxx_ll_pwr.h **** __STATIC_INLINE uint32_t LL_PWR_SMPS_GetMode(void)
1367:Drivers/STM32WBxx_HAL_Driver/Inc/stm32wbxx_ll_pwr.h **** {
1368:Drivers/STM32WBxx_HAL_Driver/Inc/stm32wbxx_ll_pwr.h ****   /* Note: Operation on bits performed to keep compatibility of literals      */
1369:Drivers/STM32WBxx_HAL_Driver/Inc/stm32wbxx_ll_pwr.h ****   /*       for all SMPS operating mode functions:                             */
1370:Drivers/STM32WBxx_HAL_Driver/Inc/stm32wbxx_ll_pwr.h ****   /*       "LL_PWR_SMPS_SetMode()", "LL_PWR_SMPS_GetMode()"                   */
1371:Drivers/STM32WBxx_HAL_Driver/Inc/stm32wbxx_ll_pwr.h ****   /*       and "LL_PWR_SMPS_GetEffectiveMode()".                              */
1372:Drivers/STM32WBxx_HAL_Driver/Inc/stm32wbxx_ll_pwr.h ****   uint32_t OperatingMode = (READ_BIT(PWR->CR5, PWR_CR5_SMPSEN) >> (PWR_CR5_SMPSEN_Pos - PWR_SR2_SMP
1373:Drivers/STM32WBxx_HAL_Driver/Inc/stm32wbxx_ll_pwr.h **** 
1374:Drivers/STM32WBxx_HAL_Driver/Inc/stm32wbxx_ll_pwr.h ****   OperatingMode = (OperatingMode | ((~OperatingMode >> 1U) & PWR_SR2_SMPSBF));
1375:Drivers/STM32WBxx_HAL_Driver/Inc/stm32wbxx_ll_pwr.h **** 
1376:Drivers/STM32WBxx_HAL_Driver/Inc/stm32wbxx_ll_pwr.h ****   return OperatingMode;
1377:Drivers/STM32WBxx_HAL_Driver/Inc/stm32wbxx_ll_pwr.h **** }
1378:Drivers/STM32WBxx_HAL_Driver/Inc/stm32wbxx_ll_pwr.h **** 
1379:Drivers/STM32WBxx_HAL_Driver/Inc/stm32wbxx_ll_pwr.h **** /**
1380:Drivers/STM32WBxx_HAL_Driver/Inc/stm32wbxx_ll_pwr.h ****   * @brief  Get SMPS effective operating mode
1381:Drivers/STM32WBxx_HAL_Driver/Inc/stm32wbxx_ll_pwr.h ****   * @note   SMPS operating mode can be changed by hardware, therefore
1382:Drivers/STM32WBxx_HAL_Driver/Inc/stm32wbxx_ll_pwr.h ****   *         requested operating mode can differ from effective low power mode.
1383:Drivers/STM32WBxx_HAL_Driver/Inc/stm32wbxx_ll_pwr.h ****   *         - dependency on system low-power mode:
1384:Drivers/STM32WBxx_HAL_Driver/Inc/stm32wbxx_ll_pwr.h ****   *           - step down mode if system low power mode is run, LP run or stop0,
1385:Drivers/STM32WBxx_HAL_Driver/Inc/stm32wbxx_ll_pwr.h ****   *           - open mode if system low power mode is Stop1, Stop2, Standby or Shutdown
1386:Drivers/STM32WBxx_HAL_Driver/Inc/stm32wbxx_ll_pwr.h ****   *         - dependency on BOR level:
1387:Drivers/STM32WBxx_HAL_Driver/Inc/stm32wbxx_ll_pwr.h ****   *           - bypass mode if supply voltage drops below BOR level
1388:Drivers/STM32WBxx_HAL_Driver/Inc/stm32wbxx_ll_pwr.h ****   * @note   This functions check flags of SMPS operating modes step down
1389:Drivers/STM32WBxx_HAL_Driver/Inc/stm32wbxx_ll_pwr.h ****   *         and bypass. If the SMPS is not among these 2 operating modes,
1390:Drivers/STM32WBxx_HAL_Driver/Inc/stm32wbxx_ll_pwr.h ****   *         then it can be in mode off or open.
ARM GAS  C:\Users\Nathan\AppData\Local\Temp\ccvsgOlc.s 			page 60


1391:Drivers/STM32WBxx_HAL_Driver/Inc/stm32wbxx_ll_pwr.h ****   * @rmtoll SR2          SMPSF         LL_PWR_SMPS_GetEffectiveMode \n
1392:Drivers/STM32WBxx_HAL_Driver/Inc/stm32wbxx_ll_pwr.h ****   *         SR2          SMPSBF        LL_PWR_SMPS_GetEffectiveMode
1393:Drivers/STM32WBxx_HAL_Driver/Inc/stm32wbxx_ll_pwr.h ****   * @retval Returned value can be one of the following values:
1394:Drivers/STM32WBxx_HAL_Driver/Inc/stm32wbxx_ll_pwr.h ****   *         @arg @ref LL_PWR_SMPS_BYPASS
1395:Drivers/STM32WBxx_HAL_Driver/Inc/stm32wbxx_ll_pwr.h ****   *         @arg @ref LL_PWR_SMPS_STEP_DOWN (1)
1396:Drivers/STM32WBxx_HAL_Driver/Inc/stm32wbxx_ll_pwr.h ****   *
1397:Drivers/STM32WBxx_HAL_Driver/Inc/stm32wbxx_ll_pwr.h ****   *         (1) SMPS operating mode step down or open depends on system low-power mode:
1398:Drivers/STM32WBxx_HAL_Driver/Inc/stm32wbxx_ll_pwr.h ****   *              - step down mode if system low power mode is run, LP run or stop0,
1399:Drivers/STM32WBxx_HAL_Driver/Inc/stm32wbxx_ll_pwr.h ****   *              - open mode if system low power mode is Stop1, Stop2, Standby or Shutdown
1400:Drivers/STM32WBxx_HAL_Driver/Inc/stm32wbxx_ll_pwr.h ****   */
1401:Drivers/STM32WBxx_HAL_Driver/Inc/stm32wbxx_ll_pwr.h **** __STATIC_INLINE uint32_t LL_PWR_SMPS_GetEffectiveMode(void)
1402:Drivers/STM32WBxx_HAL_Driver/Inc/stm32wbxx_ll_pwr.h **** {
1403:Drivers/STM32WBxx_HAL_Driver/Inc/stm32wbxx_ll_pwr.h ****   return (uint32_t)(READ_BIT(PWR->SR2, (PWR_SR2_SMPSF | PWR_SR2_SMPSBF)));
1404:Drivers/STM32WBxx_HAL_Driver/Inc/stm32wbxx_ll_pwr.h **** }
1405:Drivers/STM32WBxx_HAL_Driver/Inc/stm32wbxx_ll_pwr.h **** 
1406:Drivers/STM32WBxx_HAL_Driver/Inc/stm32wbxx_ll_pwr.h **** /**
1407:Drivers/STM32WBxx_HAL_Driver/Inc/stm32wbxx_ll_pwr.h ****   * @brief  SMPS step down converter enable
1408:Drivers/STM32WBxx_HAL_Driver/Inc/stm32wbxx_ll_pwr.h ****   * @note   This function can be used for specific usage of the SMPS,
1409:Drivers/STM32WBxx_HAL_Driver/Inc/stm32wbxx_ll_pwr.h ****   *         for general usage of the SMPS the function
1410:Drivers/STM32WBxx_HAL_Driver/Inc/stm32wbxx_ll_pwr.h ****   *         @ref LL_PWR_SMPS_SetMode() should be used instead.
1411:Drivers/STM32WBxx_HAL_Driver/Inc/stm32wbxx_ll_pwr.h ****   * @rmtoll CR5          SMPSEN        LL_PWR_SMPS_Enable
1412:Drivers/STM32WBxx_HAL_Driver/Inc/stm32wbxx_ll_pwr.h ****   * @retval None
1413:Drivers/STM32WBxx_HAL_Driver/Inc/stm32wbxx_ll_pwr.h ****   */
1414:Drivers/STM32WBxx_HAL_Driver/Inc/stm32wbxx_ll_pwr.h **** __STATIC_INLINE void LL_PWR_SMPS_Enable(void)
1415:Drivers/STM32WBxx_HAL_Driver/Inc/stm32wbxx_ll_pwr.h **** {
1416:Drivers/STM32WBxx_HAL_Driver/Inc/stm32wbxx_ll_pwr.h ****   SET_BIT(PWR->CR5, PWR_CR5_SMPSEN);
1417:Drivers/STM32WBxx_HAL_Driver/Inc/stm32wbxx_ll_pwr.h **** }
1418:Drivers/STM32WBxx_HAL_Driver/Inc/stm32wbxx_ll_pwr.h **** 
1419:Drivers/STM32WBxx_HAL_Driver/Inc/stm32wbxx_ll_pwr.h **** /**
1420:Drivers/STM32WBxx_HAL_Driver/Inc/stm32wbxx_ll_pwr.h ****   * @brief  SMPS step down converter enable
1421:Drivers/STM32WBxx_HAL_Driver/Inc/stm32wbxx_ll_pwr.h ****   * @note   This function can be used for specific usage of the SMPS,
1422:Drivers/STM32WBxx_HAL_Driver/Inc/stm32wbxx_ll_pwr.h ****   *         for general usage of the SMPS the function
1423:Drivers/STM32WBxx_HAL_Driver/Inc/stm32wbxx_ll_pwr.h ****   *         @ref LL_PWR_SMPS_SetMode() should be used instead.
1424:Drivers/STM32WBxx_HAL_Driver/Inc/stm32wbxx_ll_pwr.h ****   * @rmtoll CR5          SMPSEN        LL_PWR_SMPS_Disable
1425:Drivers/STM32WBxx_HAL_Driver/Inc/stm32wbxx_ll_pwr.h ****   * @retval None
1426:Drivers/STM32WBxx_HAL_Driver/Inc/stm32wbxx_ll_pwr.h ****   */
1427:Drivers/STM32WBxx_HAL_Driver/Inc/stm32wbxx_ll_pwr.h **** __STATIC_INLINE void LL_PWR_SMPS_Disable(void)
1428:Drivers/STM32WBxx_HAL_Driver/Inc/stm32wbxx_ll_pwr.h **** {
1429:Drivers/STM32WBxx_HAL_Driver/Inc/stm32wbxx_ll_pwr.h ****   CLEAR_BIT(PWR->CR5, PWR_CR5_SMPSEN);
1430:Drivers/STM32WBxx_HAL_Driver/Inc/stm32wbxx_ll_pwr.h **** }
1431:Drivers/STM32WBxx_HAL_Driver/Inc/stm32wbxx_ll_pwr.h **** 
1432:Drivers/STM32WBxx_HAL_Driver/Inc/stm32wbxx_ll_pwr.h **** /**
1433:Drivers/STM32WBxx_HAL_Driver/Inc/stm32wbxx_ll_pwr.h ****   * @brief  Check if the SMPS step down converter is enabled
1434:Drivers/STM32WBxx_HAL_Driver/Inc/stm32wbxx_ll_pwr.h ****   * @rmtoll CR5          SMPSEN        LL_PWR_SMPS_IsEnabled
1435:Drivers/STM32WBxx_HAL_Driver/Inc/stm32wbxx_ll_pwr.h ****   * @retval State of bit (1 or 0).
1436:Drivers/STM32WBxx_HAL_Driver/Inc/stm32wbxx_ll_pwr.h ****   */
1437:Drivers/STM32WBxx_HAL_Driver/Inc/stm32wbxx_ll_pwr.h **** __STATIC_INLINE uint32_t LL_PWR_SMPS_IsEnabled(void)
1438:Drivers/STM32WBxx_HAL_Driver/Inc/stm32wbxx_ll_pwr.h **** {
1439:Drivers/STM32WBxx_HAL_Driver/Inc/stm32wbxx_ll_pwr.h ****   return ((READ_BIT(PWR->CR5, PWR_CR5_SMPSEN) == (PWR_CR5_SMPSEN)) ? 1UL : 0UL);
1440:Drivers/STM32WBxx_HAL_Driver/Inc/stm32wbxx_ll_pwr.h **** }
1441:Drivers/STM32WBxx_HAL_Driver/Inc/stm32wbxx_ll_pwr.h **** 
1442:Drivers/STM32WBxx_HAL_Driver/Inc/stm32wbxx_ll_pwr.h **** /**
1443:Drivers/STM32WBxx_HAL_Driver/Inc/stm32wbxx_ll_pwr.h ****   * @brief  Set SMPS step down converter supply startup current selection
1444:Drivers/STM32WBxx_HAL_Driver/Inc/stm32wbxx_ll_pwr.h ****   * @rmtoll CR5          SMPSSC        LL_PWR_SMPS_SetStartupCurrent
1445:Drivers/STM32WBxx_HAL_Driver/Inc/stm32wbxx_ll_pwr.h ****   * @param  StartupCurrent This parameter can be one of the following values:
1446:Drivers/STM32WBxx_HAL_Driver/Inc/stm32wbxx_ll_pwr.h ****   *         @arg @ref LL_PWR_SMPS_STARTUP_CURRENT_80MA
1447:Drivers/STM32WBxx_HAL_Driver/Inc/stm32wbxx_ll_pwr.h ****   *         @arg @ref LL_PWR_SMPS_STARTUP_CURRENT_100MA
ARM GAS  C:\Users\Nathan\AppData\Local\Temp\ccvsgOlc.s 			page 61


1448:Drivers/STM32WBxx_HAL_Driver/Inc/stm32wbxx_ll_pwr.h ****   *         @arg @ref LL_PWR_SMPS_STARTUP_CURRENT_120MA
1449:Drivers/STM32WBxx_HAL_Driver/Inc/stm32wbxx_ll_pwr.h ****   *         @arg @ref LL_PWR_SMPS_STARTUP_CURRENT_140MA
1450:Drivers/STM32WBxx_HAL_Driver/Inc/stm32wbxx_ll_pwr.h ****   *         @arg @ref LL_PWR_SMPS_STARTUP_CURRENT_160MA
1451:Drivers/STM32WBxx_HAL_Driver/Inc/stm32wbxx_ll_pwr.h ****   *         @arg @ref LL_PWR_SMPS_STARTUP_CURRENT_180MA
1452:Drivers/STM32WBxx_HAL_Driver/Inc/stm32wbxx_ll_pwr.h ****   *         @arg @ref LL_PWR_SMPS_STARTUP_CURRENT_200MA
1453:Drivers/STM32WBxx_HAL_Driver/Inc/stm32wbxx_ll_pwr.h ****   *         @arg @ref LL_PWR_SMPS_STARTUP_CURRENT_220MA
1454:Drivers/STM32WBxx_HAL_Driver/Inc/stm32wbxx_ll_pwr.h ****   * @retval None
1455:Drivers/STM32WBxx_HAL_Driver/Inc/stm32wbxx_ll_pwr.h ****   */
1456:Drivers/STM32WBxx_HAL_Driver/Inc/stm32wbxx_ll_pwr.h **** __STATIC_INLINE void LL_PWR_SMPS_SetStartupCurrent(uint32_t StartupCurrent)
1457:Drivers/STM32WBxx_HAL_Driver/Inc/stm32wbxx_ll_pwr.h **** {
1458:Drivers/STM32WBxx_HAL_Driver/Inc/stm32wbxx_ll_pwr.h ****   MODIFY_REG(PWR->CR5, PWR_CR5_SMPSSC, StartupCurrent);
1459:Drivers/STM32WBxx_HAL_Driver/Inc/stm32wbxx_ll_pwr.h **** }
1460:Drivers/STM32WBxx_HAL_Driver/Inc/stm32wbxx_ll_pwr.h **** 
1461:Drivers/STM32WBxx_HAL_Driver/Inc/stm32wbxx_ll_pwr.h **** /**
1462:Drivers/STM32WBxx_HAL_Driver/Inc/stm32wbxx_ll_pwr.h ****   * @brief  Get SMPS step down converter supply startup current selection
1463:Drivers/STM32WBxx_HAL_Driver/Inc/stm32wbxx_ll_pwr.h ****   * @rmtoll CR5          SMPSSC        LL_PWR_SMPS_GetStartupCurrent
1464:Drivers/STM32WBxx_HAL_Driver/Inc/stm32wbxx_ll_pwr.h ****   * @retval Returned value can be one of the following values:
1465:Drivers/STM32WBxx_HAL_Driver/Inc/stm32wbxx_ll_pwr.h ****   *         @arg @ref LL_PWR_SMPS_STARTUP_CURRENT_80MA
1466:Drivers/STM32WBxx_HAL_Driver/Inc/stm32wbxx_ll_pwr.h ****   *         @arg @ref LL_PWR_SMPS_STARTUP_CURRENT_100MA
1467:Drivers/STM32WBxx_HAL_Driver/Inc/stm32wbxx_ll_pwr.h ****   *         @arg @ref LL_PWR_SMPS_STARTUP_CURRENT_120MA
1468:Drivers/STM32WBxx_HAL_Driver/Inc/stm32wbxx_ll_pwr.h ****   *         @arg @ref LL_PWR_SMPS_STARTUP_CURRENT_140MA
1469:Drivers/STM32WBxx_HAL_Driver/Inc/stm32wbxx_ll_pwr.h ****   *         @arg @ref LL_PWR_SMPS_STARTUP_CURRENT_160MA
1470:Drivers/STM32WBxx_HAL_Driver/Inc/stm32wbxx_ll_pwr.h ****   *         @arg @ref LL_PWR_SMPS_STARTUP_CURRENT_180MA
1471:Drivers/STM32WBxx_HAL_Driver/Inc/stm32wbxx_ll_pwr.h ****   *         @arg @ref LL_PWR_SMPS_STARTUP_CURRENT_200MA
1472:Drivers/STM32WBxx_HAL_Driver/Inc/stm32wbxx_ll_pwr.h ****   *         @arg @ref LL_PWR_SMPS_STARTUP_CURRENT_220MA
1473:Drivers/STM32WBxx_HAL_Driver/Inc/stm32wbxx_ll_pwr.h ****   */
1474:Drivers/STM32WBxx_HAL_Driver/Inc/stm32wbxx_ll_pwr.h **** __STATIC_INLINE uint32_t LL_PWR_SMPS_GetStartupCurrent(void)
1475:Drivers/STM32WBxx_HAL_Driver/Inc/stm32wbxx_ll_pwr.h **** {
1476:Drivers/STM32WBxx_HAL_Driver/Inc/stm32wbxx_ll_pwr.h ****   return (uint32_t)(READ_BIT(PWR->CR5, PWR_CR5_SMPSSC));
1477:Drivers/STM32WBxx_HAL_Driver/Inc/stm32wbxx_ll_pwr.h **** }
1478:Drivers/STM32WBxx_HAL_Driver/Inc/stm32wbxx_ll_pwr.h **** 
1479:Drivers/STM32WBxx_HAL_Driver/Inc/stm32wbxx_ll_pwr.h **** /**
1480:Drivers/STM32WBxx_HAL_Driver/Inc/stm32wbxx_ll_pwr.h ****   * @brief  Set SMPS step down converter output voltage scaling
1481:Drivers/STM32WBxx_HAL_Driver/Inc/stm32wbxx_ll_pwr.h ****   * @note   SMPS output voltage is calibrated in production,
1482:Drivers/STM32WBxx_HAL_Driver/Inc/stm32wbxx_ll_pwr.h ****   *         calibration parameters are applied to the voltage level parameter
1483:Drivers/STM32WBxx_HAL_Driver/Inc/stm32wbxx_ll_pwr.h ****   *         to reach the requested voltage value.
1484:Drivers/STM32WBxx_HAL_Driver/Inc/stm32wbxx_ll_pwr.h ****   * @rmtoll CR5          SMPSVOS       LL_PWR_SMPS_SetOutputVoltageLevel
1485:Drivers/STM32WBxx_HAL_Driver/Inc/stm32wbxx_ll_pwr.h ****   * @param  OutputVoltageLevel This parameter can be one of the following values:
1486:Drivers/STM32WBxx_HAL_Driver/Inc/stm32wbxx_ll_pwr.h ****   *         @arg @ref LL_PWR_SMPS_OUTPUT_VOLTAGE_1V20
1487:Drivers/STM32WBxx_HAL_Driver/Inc/stm32wbxx_ll_pwr.h ****   *         @arg @ref LL_PWR_SMPS_OUTPUT_VOLTAGE_1V25
1488:Drivers/STM32WBxx_HAL_Driver/Inc/stm32wbxx_ll_pwr.h ****   *         @arg @ref LL_PWR_SMPS_OUTPUT_VOLTAGE_1V30
1489:Drivers/STM32WBxx_HAL_Driver/Inc/stm32wbxx_ll_pwr.h ****   *         @arg @ref LL_PWR_SMPS_OUTPUT_VOLTAGE_1V35
1490:Drivers/STM32WBxx_HAL_Driver/Inc/stm32wbxx_ll_pwr.h ****   *         @arg @ref LL_PWR_SMPS_OUTPUT_VOLTAGE_1V40
1491:Drivers/STM32WBxx_HAL_Driver/Inc/stm32wbxx_ll_pwr.h ****   *         @arg @ref LL_PWR_SMPS_OUTPUT_VOLTAGE_1V45
1492:Drivers/STM32WBxx_HAL_Driver/Inc/stm32wbxx_ll_pwr.h ****   *         @arg @ref LL_PWR_SMPS_OUTPUT_VOLTAGE_1V50
1493:Drivers/STM32WBxx_HAL_Driver/Inc/stm32wbxx_ll_pwr.h ****   *         @arg @ref LL_PWR_SMPS_OUTPUT_VOLTAGE_1V55
1494:Drivers/STM32WBxx_HAL_Driver/Inc/stm32wbxx_ll_pwr.h ****   *         @arg @ref LL_PWR_SMPS_OUTPUT_VOLTAGE_1V60
1495:Drivers/STM32WBxx_HAL_Driver/Inc/stm32wbxx_ll_pwr.h ****   *         @arg @ref LL_PWR_SMPS_OUTPUT_VOLTAGE_1V65
1496:Drivers/STM32WBxx_HAL_Driver/Inc/stm32wbxx_ll_pwr.h ****   *         @arg @ref LL_PWR_SMPS_OUTPUT_VOLTAGE_1V70
1497:Drivers/STM32WBxx_HAL_Driver/Inc/stm32wbxx_ll_pwr.h ****   *         @arg @ref LL_PWR_SMPS_OUTPUT_VOLTAGE_1V75
1498:Drivers/STM32WBxx_HAL_Driver/Inc/stm32wbxx_ll_pwr.h ****   *         @arg @ref LL_PWR_SMPS_OUTPUT_VOLTAGE_1V80
1499:Drivers/STM32WBxx_HAL_Driver/Inc/stm32wbxx_ll_pwr.h ****   *         @arg @ref LL_PWR_SMPS_OUTPUT_VOLTAGE_1V85
1500:Drivers/STM32WBxx_HAL_Driver/Inc/stm32wbxx_ll_pwr.h ****   *         @arg @ref LL_PWR_SMPS_OUTPUT_VOLTAGE_1V90
1501:Drivers/STM32WBxx_HAL_Driver/Inc/stm32wbxx_ll_pwr.h ****   * @retval None
1502:Drivers/STM32WBxx_HAL_Driver/Inc/stm32wbxx_ll_pwr.h ****   */
1503:Drivers/STM32WBxx_HAL_Driver/Inc/stm32wbxx_ll_pwr.h **** __STATIC_INLINE void LL_PWR_SMPS_SetOutputVoltageLevel(uint32_t OutputVoltageLevel)
1504:Drivers/STM32WBxx_HAL_Driver/Inc/stm32wbxx_ll_pwr.h **** {
ARM GAS  C:\Users\Nathan\AppData\Local\Temp\ccvsgOlc.s 			page 62


1505:Drivers/STM32WBxx_HAL_Driver/Inc/stm32wbxx_ll_pwr.h ****   __IO const uint32_t OutputVoltageLevel_calibration = (((*SMPS_VOLTAGE_CAL_ADDR) & SMPS_VOLTAGE_CA
1506:Drivers/STM32WBxx_HAL_Driver/Inc/stm32wbxx_ll_pwr.h ****   int32_t TrimmingSteps;                               /* Trimming steps between theoretical output
1507:Drivers/STM32WBxx_HAL_Driver/Inc/stm32wbxx_ll_pwr.h ****   int32_t OutputVoltageLevelTrimmed;                   /* SMPS output voltage level after calibrati
1508:Drivers/STM32WBxx_HAL_Driver/Inc/stm32wbxx_ll_pwr.h **** 
1509:Drivers/STM32WBxx_HAL_Driver/Inc/stm32wbxx_ll_pwr.h ****   if (OutputVoltageLevel_calibration == 0UL)
1510:Drivers/STM32WBxx_HAL_Driver/Inc/stm32wbxx_ll_pwr.h ****   {
1511:Drivers/STM32WBxx_HAL_Driver/Inc/stm32wbxx_ll_pwr.h ****     /* Device with SMPS output voltage not calibrated in production: Apply output voltage value dir
1512:Drivers/STM32WBxx_HAL_Driver/Inc/stm32wbxx_ll_pwr.h **** 
1513:Drivers/STM32WBxx_HAL_Driver/Inc/stm32wbxx_ll_pwr.h ****     /* Update register */
1514:Drivers/STM32WBxx_HAL_Driver/Inc/stm32wbxx_ll_pwr.h ****     MODIFY_REG(PWR->CR5, PWR_CR5_SMPSVOS, OutputVoltageLevel);
1515:Drivers/STM32WBxx_HAL_Driver/Inc/stm32wbxx_ll_pwr.h ****   }
1516:Drivers/STM32WBxx_HAL_Driver/Inc/stm32wbxx_ll_pwr.h ****   else
1517:Drivers/STM32WBxx_HAL_Driver/Inc/stm32wbxx_ll_pwr.h ****   {
1518:Drivers/STM32WBxx_HAL_Driver/Inc/stm32wbxx_ll_pwr.h ****     /* Device with SMPS output voltage calibrated in production: Apply output voltage value after c
1519:Drivers/STM32WBxx_HAL_Driver/Inc/stm32wbxx_ll_pwr.h **** 
1520:Drivers/STM32WBxx_HAL_Driver/Inc/stm32wbxx_ll_pwr.h ****     TrimmingSteps = ((int32_t)OutputVoltageLevel_calibration - (int32_t)(LL_PWR_SMPS_OUTPUT_VOLTAGE
1521:Drivers/STM32WBxx_HAL_Driver/Inc/stm32wbxx_ll_pwr.h ****     OutputVoltageLevelTrimmed = ((int32_t)((uint32_t)(OutputVoltageLevel >> PWR_CR5_SMPSVOS_Pos)) +
1522:Drivers/STM32WBxx_HAL_Driver/Inc/stm32wbxx_ll_pwr.h **** 
1523:Drivers/STM32WBxx_HAL_Driver/Inc/stm32wbxx_ll_pwr.h ****     /* Clamp value to voltage trimming bitfield range */
1524:Drivers/STM32WBxx_HAL_Driver/Inc/stm32wbxx_ll_pwr.h ****     if (OutputVoltageLevelTrimmed < 0)
1525:Drivers/STM32WBxx_HAL_Driver/Inc/stm32wbxx_ll_pwr.h ****     {
1526:Drivers/STM32WBxx_HAL_Driver/Inc/stm32wbxx_ll_pwr.h ****       OutputVoltageLevelTrimmed = 0;
1527:Drivers/STM32WBxx_HAL_Driver/Inc/stm32wbxx_ll_pwr.h ****     }
1528:Drivers/STM32WBxx_HAL_Driver/Inc/stm32wbxx_ll_pwr.h ****     else
1529:Drivers/STM32WBxx_HAL_Driver/Inc/stm32wbxx_ll_pwr.h ****     {
1530:Drivers/STM32WBxx_HAL_Driver/Inc/stm32wbxx_ll_pwr.h ****       if (OutputVoltageLevelTrimmed > (int32_t)PWR_CR5_SMPSVOS)
1531:Drivers/STM32WBxx_HAL_Driver/Inc/stm32wbxx_ll_pwr.h ****       {
1532:Drivers/STM32WBxx_HAL_Driver/Inc/stm32wbxx_ll_pwr.h ****         OutputVoltageLevelTrimmed = (int32_t)PWR_CR5_SMPSVOS;
1533:Drivers/STM32WBxx_HAL_Driver/Inc/stm32wbxx_ll_pwr.h ****       }
1534:Drivers/STM32WBxx_HAL_Driver/Inc/stm32wbxx_ll_pwr.h ****     }
1535:Drivers/STM32WBxx_HAL_Driver/Inc/stm32wbxx_ll_pwr.h **** 
1536:Drivers/STM32WBxx_HAL_Driver/Inc/stm32wbxx_ll_pwr.h ****     /* Update register */
1537:Drivers/STM32WBxx_HAL_Driver/Inc/stm32wbxx_ll_pwr.h ****     MODIFY_REG(PWR->CR5, PWR_CR5_SMPSVOS, (uint32_t)OutputVoltageLevelTrimmed);
1538:Drivers/STM32WBxx_HAL_Driver/Inc/stm32wbxx_ll_pwr.h ****   }
1539:Drivers/STM32WBxx_HAL_Driver/Inc/stm32wbxx_ll_pwr.h **** }
1540:Drivers/STM32WBxx_HAL_Driver/Inc/stm32wbxx_ll_pwr.h **** 
1541:Drivers/STM32WBxx_HAL_Driver/Inc/stm32wbxx_ll_pwr.h **** /**
1542:Drivers/STM32WBxx_HAL_Driver/Inc/stm32wbxx_ll_pwr.h ****   * @brief  Get SMPS step down converter output voltage scaling
1543:Drivers/STM32WBxx_HAL_Driver/Inc/stm32wbxx_ll_pwr.h ****   * @note   SMPS output voltage is calibrated in production,
1544:Drivers/STM32WBxx_HAL_Driver/Inc/stm32wbxx_ll_pwr.h ****   *         calibration parameters are applied to the voltage level parameter
1545:Drivers/STM32WBxx_HAL_Driver/Inc/stm32wbxx_ll_pwr.h ****   *         to return the effective voltage value.
1546:Drivers/STM32WBxx_HAL_Driver/Inc/stm32wbxx_ll_pwr.h ****   * @rmtoll CR5          SMPSVOS       LL_PWR_SMPS_GetOutputVoltageLevel
1547:Drivers/STM32WBxx_HAL_Driver/Inc/stm32wbxx_ll_pwr.h ****   * @retval Returned value can be one of the following values:
1548:Drivers/STM32WBxx_HAL_Driver/Inc/stm32wbxx_ll_pwr.h ****   *         @arg @ref LL_PWR_SMPS_OUTPUT_VOLTAGE_1V20
1549:Drivers/STM32WBxx_HAL_Driver/Inc/stm32wbxx_ll_pwr.h ****   *         @arg @ref LL_PWR_SMPS_OUTPUT_VOLTAGE_1V25
1550:Drivers/STM32WBxx_HAL_Driver/Inc/stm32wbxx_ll_pwr.h ****   *         @arg @ref LL_PWR_SMPS_OUTPUT_VOLTAGE_1V30
1551:Drivers/STM32WBxx_HAL_Driver/Inc/stm32wbxx_ll_pwr.h ****   *         @arg @ref LL_PWR_SMPS_OUTPUT_VOLTAGE_1V35
1552:Drivers/STM32WBxx_HAL_Driver/Inc/stm32wbxx_ll_pwr.h ****   *         @arg @ref LL_PWR_SMPS_OUTPUT_VOLTAGE_1V40
1553:Drivers/STM32WBxx_HAL_Driver/Inc/stm32wbxx_ll_pwr.h ****   *         @arg @ref LL_PWR_SMPS_OUTPUT_VOLTAGE_1V45
1554:Drivers/STM32WBxx_HAL_Driver/Inc/stm32wbxx_ll_pwr.h ****   *         @arg @ref LL_PWR_SMPS_OUTPUT_VOLTAGE_1V50
1555:Drivers/STM32WBxx_HAL_Driver/Inc/stm32wbxx_ll_pwr.h ****   *         @arg @ref LL_PWR_SMPS_OUTPUT_VOLTAGE_1V55
1556:Drivers/STM32WBxx_HAL_Driver/Inc/stm32wbxx_ll_pwr.h ****   *         @arg @ref LL_PWR_SMPS_OUTPUT_VOLTAGE_1V60
1557:Drivers/STM32WBxx_HAL_Driver/Inc/stm32wbxx_ll_pwr.h ****   *         @arg @ref LL_PWR_SMPS_OUTPUT_VOLTAGE_1V65
1558:Drivers/STM32WBxx_HAL_Driver/Inc/stm32wbxx_ll_pwr.h ****   *         @arg @ref LL_PWR_SMPS_OUTPUT_VOLTAGE_1V70
1559:Drivers/STM32WBxx_HAL_Driver/Inc/stm32wbxx_ll_pwr.h ****   *         @arg @ref LL_PWR_SMPS_OUTPUT_VOLTAGE_1V75
1560:Drivers/STM32WBxx_HAL_Driver/Inc/stm32wbxx_ll_pwr.h ****   *         @arg @ref LL_PWR_SMPS_OUTPUT_VOLTAGE_1V80
1561:Drivers/STM32WBxx_HAL_Driver/Inc/stm32wbxx_ll_pwr.h ****   *         @arg @ref LL_PWR_SMPS_OUTPUT_VOLTAGE_1V85
ARM GAS  C:\Users\Nathan\AppData\Local\Temp\ccvsgOlc.s 			page 63


1562:Drivers/STM32WBxx_HAL_Driver/Inc/stm32wbxx_ll_pwr.h ****   *         @arg @ref LL_PWR_SMPS_OUTPUT_VOLTAGE_1V90
1563:Drivers/STM32WBxx_HAL_Driver/Inc/stm32wbxx_ll_pwr.h ****   */
1564:Drivers/STM32WBxx_HAL_Driver/Inc/stm32wbxx_ll_pwr.h **** __STATIC_INLINE uint32_t LL_PWR_SMPS_GetOutputVoltageLevel(void)
1565:Drivers/STM32WBxx_HAL_Driver/Inc/stm32wbxx_ll_pwr.h **** {
1566:Drivers/STM32WBxx_HAL_Driver/Inc/stm32wbxx_ll_pwr.h ****   __IO const uint32_t OutputVoltageLevel_calibration = (((*SMPS_VOLTAGE_CAL_ADDR) & SMPS_VOLTAGE_CA
1567:Drivers/STM32WBxx_HAL_Driver/Inc/stm32wbxx_ll_pwr.h ****   int32_t TrimmingSteps;                               /* Trimming steps between theoretical output
1568:Drivers/STM32WBxx_HAL_Driver/Inc/stm32wbxx_ll_pwr.h ****   int32_t OutputVoltageLevelTrimmed;                   /* SMPS output voltage level after calibrati
1569:Drivers/STM32WBxx_HAL_Driver/Inc/stm32wbxx_ll_pwr.h **** 
1570:Drivers/STM32WBxx_HAL_Driver/Inc/stm32wbxx_ll_pwr.h ****   if (OutputVoltageLevel_calibration == 0UL)
1571:Drivers/STM32WBxx_HAL_Driver/Inc/stm32wbxx_ll_pwr.h ****   {
1572:Drivers/STM32WBxx_HAL_Driver/Inc/stm32wbxx_ll_pwr.h ****     /* Device with SMPS output voltage not calibrated in production: Return output voltage value di
1573:Drivers/STM32WBxx_HAL_Driver/Inc/stm32wbxx_ll_pwr.h **** 
1574:Drivers/STM32WBxx_HAL_Driver/Inc/stm32wbxx_ll_pwr.h ****     return (uint32_t)(READ_BIT(PWR->CR5, PWR_CR5_SMPSVOS));
1575:Drivers/STM32WBxx_HAL_Driver/Inc/stm32wbxx_ll_pwr.h ****   }
1576:Drivers/STM32WBxx_HAL_Driver/Inc/stm32wbxx_ll_pwr.h ****   else
1577:Drivers/STM32WBxx_HAL_Driver/Inc/stm32wbxx_ll_pwr.h ****   {
1578:Drivers/STM32WBxx_HAL_Driver/Inc/stm32wbxx_ll_pwr.h ****     /* Device with SMPS output voltage calibrated in production: Return output voltage value after 
1579:Drivers/STM32WBxx_HAL_Driver/Inc/stm32wbxx_ll_pwr.h **** 
1580:Drivers/STM32WBxx_HAL_Driver/Inc/stm32wbxx_ll_pwr.h ****     TrimmingSteps = ((int32_t)OutputVoltageLevel_calibration - (int32_t)(LL_PWR_SMPS_OUTPUT_VOLTAGE
1581:Drivers/STM32WBxx_HAL_Driver/Inc/stm32wbxx_ll_pwr.h **** 
1582:Drivers/STM32WBxx_HAL_Driver/Inc/stm32wbxx_ll_pwr.h ****     OutputVoltageLevelTrimmed = ((int32_t)((uint32_t)READ_BIT(PWR->CR5, PWR_CR5_SMPSVOS)) - Trimmin
1583:Drivers/STM32WBxx_HAL_Driver/Inc/stm32wbxx_ll_pwr.h **** 
1584:Drivers/STM32WBxx_HAL_Driver/Inc/stm32wbxx_ll_pwr.h ****     /* Clamp value to voltage range */
1585:Drivers/STM32WBxx_HAL_Driver/Inc/stm32wbxx_ll_pwr.h ****     if (OutputVoltageLevelTrimmed < 0)
1586:Drivers/STM32WBxx_HAL_Driver/Inc/stm32wbxx_ll_pwr.h ****     {
1587:Drivers/STM32WBxx_HAL_Driver/Inc/stm32wbxx_ll_pwr.h ****       OutputVoltageLevelTrimmed = (int32_t)LL_PWR_SMPS_OUTPUT_VOLTAGE_1V20;
1588:Drivers/STM32WBxx_HAL_Driver/Inc/stm32wbxx_ll_pwr.h ****     }
1589:Drivers/STM32WBxx_HAL_Driver/Inc/stm32wbxx_ll_pwr.h ****     else
1590:Drivers/STM32WBxx_HAL_Driver/Inc/stm32wbxx_ll_pwr.h ****     {
1591:Drivers/STM32WBxx_HAL_Driver/Inc/stm32wbxx_ll_pwr.h ****       if (OutputVoltageLevelTrimmed > (int32_t)PWR_CR5_SMPSVOS)
1592:Drivers/STM32WBxx_HAL_Driver/Inc/stm32wbxx_ll_pwr.h ****       {
1593:Drivers/STM32WBxx_HAL_Driver/Inc/stm32wbxx_ll_pwr.h ****         OutputVoltageLevelTrimmed = (int32_t)LL_PWR_SMPS_OUTPUT_VOLTAGE_1V90;
1594:Drivers/STM32WBxx_HAL_Driver/Inc/stm32wbxx_ll_pwr.h ****       }
1595:Drivers/STM32WBxx_HAL_Driver/Inc/stm32wbxx_ll_pwr.h ****     }
1596:Drivers/STM32WBxx_HAL_Driver/Inc/stm32wbxx_ll_pwr.h **** 
1597:Drivers/STM32WBxx_HAL_Driver/Inc/stm32wbxx_ll_pwr.h ****     return (uint32_t)OutputVoltageLevelTrimmed;
1598:Drivers/STM32WBxx_HAL_Driver/Inc/stm32wbxx_ll_pwr.h ****   }
1599:Drivers/STM32WBxx_HAL_Driver/Inc/stm32wbxx_ll_pwr.h **** }
1600:Drivers/STM32WBxx_HAL_Driver/Inc/stm32wbxx_ll_pwr.h **** 
1601:Drivers/STM32WBxx_HAL_Driver/Inc/stm32wbxx_ll_pwr.h **** /**
1602:Drivers/STM32WBxx_HAL_Driver/Inc/stm32wbxx_ll_pwr.h ****   * @}
1603:Drivers/STM32WBxx_HAL_Driver/Inc/stm32wbxx_ll_pwr.h ****   */
1604:Drivers/STM32WBxx_HAL_Driver/Inc/stm32wbxx_ll_pwr.h **** #endif /* PWR_CR5_SMPSEN */
1605:Drivers/STM32WBxx_HAL_Driver/Inc/stm32wbxx_ll_pwr.h **** 
1606:Drivers/STM32WBxx_HAL_Driver/Inc/stm32wbxx_ll_pwr.h **** /** @defgroup PWR_LL_EF_Configuration_Multicore Configuration of multicore, intended to be executed
1607:Drivers/STM32WBxx_HAL_Driver/Inc/stm32wbxx_ll_pwr.h ****   * @{
1608:Drivers/STM32WBxx_HAL_Driver/Inc/stm32wbxx_ll_pwr.h ****   */
1609:Drivers/STM32WBxx_HAL_Driver/Inc/stm32wbxx_ll_pwr.h **** 
1610:Drivers/STM32WBxx_HAL_Driver/Inc/stm32wbxx_ll_pwr.h **** /**
1611:Drivers/STM32WBxx_HAL_Driver/Inc/stm32wbxx_ll_pwr.h ****   * @brief  Boot CPU2 after reset or wakeup from stop or standby modes
1612:Drivers/STM32WBxx_HAL_Driver/Inc/stm32wbxx_ll_pwr.h ****   * @rmtoll CR4          C2BOOT        LL_PWR_EnableBootC2
1613:Drivers/STM32WBxx_HAL_Driver/Inc/stm32wbxx_ll_pwr.h ****   * @retval None
1614:Drivers/STM32WBxx_HAL_Driver/Inc/stm32wbxx_ll_pwr.h ****   */
1615:Drivers/STM32WBxx_HAL_Driver/Inc/stm32wbxx_ll_pwr.h **** __STATIC_INLINE void LL_PWR_EnableBootC2(void)
1616:Drivers/STM32WBxx_HAL_Driver/Inc/stm32wbxx_ll_pwr.h **** {
1617:Drivers/STM32WBxx_HAL_Driver/Inc/stm32wbxx_ll_pwr.h ****   SET_BIT(PWR->CR4, PWR_CR4_C2BOOT);
1618:Drivers/STM32WBxx_HAL_Driver/Inc/stm32wbxx_ll_pwr.h **** }
ARM GAS  C:\Users\Nathan\AppData\Local\Temp\ccvsgOlc.s 			page 64


1619:Drivers/STM32WBxx_HAL_Driver/Inc/stm32wbxx_ll_pwr.h **** 
1620:Drivers/STM32WBxx_HAL_Driver/Inc/stm32wbxx_ll_pwr.h **** /**
1621:Drivers/STM32WBxx_HAL_Driver/Inc/stm32wbxx_ll_pwr.h ****   * @brief  Release bit to boot CPU2 after reset or wakeup from stop or standby
1622:Drivers/STM32WBxx_HAL_Driver/Inc/stm32wbxx_ll_pwr.h ****   *         modes
1623:Drivers/STM32WBxx_HAL_Driver/Inc/stm32wbxx_ll_pwr.h ****   * @rmtoll CR4          C2BOOT        LL_PWR_DisableBootC2
1624:Drivers/STM32WBxx_HAL_Driver/Inc/stm32wbxx_ll_pwr.h ****   * @retval None
1625:Drivers/STM32WBxx_HAL_Driver/Inc/stm32wbxx_ll_pwr.h ****   */
1626:Drivers/STM32WBxx_HAL_Driver/Inc/stm32wbxx_ll_pwr.h **** __STATIC_INLINE void LL_PWR_DisableBootC2(void)
 1355              		.loc 2 1626 22 view .LVU262
 1356              	.LBB63:
1627:Drivers/STM32WBxx_HAL_Driver/Inc/stm32wbxx_ll_pwr.h **** {
1628:Drivers/STM32WBxx_HAL_Driver/Inc/stm32wbxx_ll_pwr.h ****   CLEAR_BIT(PWR->CR4, PWR_CR4_C2BOOT);
 1357              		.loc 2 1628 3 view .LVU263
 1358 0000 024A     		ldr	r2, .L125
 1359 0002 D368     		ldr	r3, [r2, #12]
 1360 0004 23F40043 		bic	r3, r3, #32768
 1361 0008 D360     		str	r3, [r2, #12]
 1362              	.LBE63:
 1363              	.LBE62:
 624:Drivers/STM32WBxx_HAL_Driver/Src/stm32wbxx_hal_pwr_ex.c **** }
 1364              		.loc 1 624 1 is_stmt 0 view .LVU264
 1365 000a 7047     		bx	lr
 1366              	.L126:
 1367              		.align	2
 1368              	.L125:
 1369 000c 00040058 		.word	1476396032
 1370              		.cfi_endproc
 1371              	.LFE1130:
 1373              		.section	.text.HAL_PWREx_ReleaseCore,"ax",%progbits
 1374              		.align	1
 1375              		.global	HAL_PWREx_ReleaseCore
 1376              		.syntax unified
 1377              		.thumb
 1378              		.thumb_func
 1380              	HAL_PWREx_ReleaseCore:
 1381              	.LVL82:
 1382              	.LFB1131:
 625:Drivers/STM32WBxx_HAL_Driver/Src/stm32wbxx_hal_pwr_ex.c **** 
 626:Drivers/STM32WBxx_HAL_Driver/Src/stm32wbxx_hal_pwr_ex.c **** /**
 627:Drivers/STM32WBxx_HAL_Driver/Src/stm32wbxx_hal_pwr_ex.c ****   * @brief  Release Cortex CPU2 and allocated peripherals after reset or wakeup from stop or standb
 628:Drivers/STM32WBxx_HAL_Driver/Src/stm32wbxx_hal_pwr_ex.c ****   * @param  CPU: Specifies the core to be released.
 629:Drivers/STM32WBxx_HAL_Driver/Src/stm32wbxx_hal_pwr_ex.c ****   *              This parameter can be one of the following values:
 630:Drivers/STM32WBxx_HAL_Driver/Src/stm32wbxx_hal_pwr_ex.c ****   *             @arg PWR_CORE_CPU2: Release the CPU2 from holding.
 631:Drivers/STM32WBxx_HAL_Driver/Src/stm32wbxx_hal_pwr_ex.c ****   * @retval None
 632:Drivers/STM32WBxx_HAL_Driver/Src/stm32wbxx_hal_pwr_ex.c ****   */
 633:Drivers/STM32WBxx_HAL_Driver/Src/stm32wbxx_hal_pwr_ex.c **** void HAL_PWREx_ReleaseCore(uint32_t CPU)
 634:Drivers/STM32WBxx_HAL_Driver/Src/stm32wbxx_hal_pwr_ex.c **** {
 1383              		.loc 1 634 1 is_stmt 1 view -0
 1384              		.cfi_startproc
 1385              		@ args = 0, pretend = 0, frame = 0
 1386              		@ frame_needed = 0, uses_anonymous_args = 0
 1387              		@ link register save eliminated.
 635:Drivers/STM32WBxx_HAL_Driver/Src/stm32wbxx_hal_pwr_ex.c ****   /* Check the parameters */
 636:Drivers/STM32WBxx_HAL_Driver/Src/stm32wbxx_hal_pwr_ex.c ****   assert_param(IS_PWR_CORE_HOLD_RELEASE(CPU));
 1388              		.loc 1 636 3 view .LVU266
 637:Drivers/STM32WBxx_HAL_Driver/Src/stm32wbxx_hal_pwr_ex.c **** 
 638:Drivers/STM32WBxx_HAL_Driver/Src/stm32wbxx_hal_pwr_ex.c ****   LL_PWR_EnableBootC2();
ARM GAS  C:\Users\Nathan\AppData\Local\Temp\ccvsgOlc.s 			page 65


 1389              		.loc 1 638 3 view .LVU267
 1390              	.LBB64:
 1391              	.LBI64:
1615:Drivers/STM32WBxx_HAL_Driver/Inc/stm32wbxx_ll_pwr.h **** {
 1392              		.loc 2 1615 22 view .LVU268
 1393              	.LBB65:
1617:Drivers/STM32WBxx_HAL_Driver/Inc/stm32wbxx_ll_pwr.h **** }
 1394              		.loc 2 1617 3 view .LVU269
 1395 0000 024A     		ldr	r2, .L128
 1396 0002 D368     		ldr	r3, [r2, #12]
 1397 0004 43F40043 		orr	r3, r3, #32768
 1398 0008 D360     		str	r3, [r2, #12]
 1399              	.LBE65:
 1400              	.LBE64:
 639:Drivers/STM32WBxx_HAL_Driver/Src/stm32wbxx_hal_pwr_ex.c **** }
 1401              		.loc 1 639 1 is_stmt 0 view .LVU270
 1402 000a 7047     		bx	lr
 1403              	.L129:
 1404              		.align	2
 1405              	.L128:
 1406 000c 00040058 		.word	1476396032
 1407              		.cfi_endproc
 1408              	.LFE1131:
 1410              		.section	.text.HAL_PWREx_EnableSRAMRetention,"ax",%progbits
 1411              		.align	1
 1412              		.global	HAL_PWREx_EnableSRAMRetention
 1413              		.syntax unified
 1414              		.thumb
 1415              		.thumb_func
 1417              	HAL_PWREx_EnableSRAMRetention:
 1418              	.LFB1132:
 640:Drivers/STM32WBxx_HAL_Driver/Src/stm32wbxx_hal_pwr_ex.c **** 
 641:Drivers/STM32WBxx_HAL_Driver/Src/stm32wbxx_hal_pwr_ex.c **** /****************************************************************************/
 642:Drivers/STM32WBxx_HAL_Driver/Src/stm32wbxx_hal_pwr_ex.c **** /**
 643:Drivers/STM32WBxx_HAL_Driver/Src/stm32wbxx_hal_pwr_ex.c ****   * @brief Enable SRAM2a content retention in Standby mode.
 644:Drivers/STM32WBxx_HAL_Driver/Src/stm32wbxx_hal_pwr_ex.c ****   * @note  When RRS bit is set, SRAM2a is powered by the low-power regulator in
 645:Drivers/STM32WBxx_HAL_Driver/Src/stm32wbxx_hal_pwr_ex.c ****   *         Standby mode and its content is kept.
 646:Drivers/STM32WBxx_HAL_Driver/Src/stm32wbxx_hal_pwr_ex.c ****   * @note   On devices STM32WB15xx, STM32WB10xx, STM32WB1Mxx retention is extended
 647:Drivers/STM32WBxx_HAL_Driver/Src/stm32wbxx_hal_pwr_ex.c ****   *         to SRAM1, SRAM2a and SRAM2b.
 648:Drivers/STM32WBxx_HAL_Driver/Src/stm32wbxx_hal_pwr_ex.c ****   * @retval None
 649:Drivers/STM32WBxx_HAL_Driver/Src/stm32wbxx_hal_pwr_ex.c ****   */
 650:Drivers/STM32WBxx_HAL_Driver/Src/stm32wbxx_hal_pwr_ex.c **** void HAL_PWREx_EnableSRAMRetention(void)
 651:Drivers/STM32WBxx_HAL_Driver/Src/stm32wbxx_hal_pwr_ex.c **** {
 1419              		.loc 1 651 1 is_stmt 1 view -0
 1420              		.cfi_startproc
 1421              		@ args = 0, pretend = 0, frame = 0
 1422              		@ frame_needed = 0, uses_anonymous_args = 0
 1423              		@ link register save eliminated.
 652:Drivers/STM32WBxx_HAL_Driver/Src/stm32wbxx_hal_pwr_ex.c ****   LL_PWR_EnableSRAM2Retention();
 1424              		.loc 1 652 3 view .LVU272
 1425              	.LBB66:
 1426              	.LBI66:
 827:Drivers/STM32WBxx_HAL_Driver/Inc/stm32wbxx_ll_pwr.h **** {
 1427              		.loc 2 827 22 view .LVU273
 1428              	.LBB67:
 829:Drivers/STM32WBxx_HAL_Driver/Inc/stm32wbxx_ll_pwr.h **** }
 1429              		.loc 2 829 3 view .LVU274
ARM GAS  C:\Users\Nathan\AppData\Local\Temp\ccvsgOlc.s 			page 66


 1430 0000 024A     		ldr	r2, .L131
 1431 0002 9368     		ldr	r3, [r2, #8]
 1432 0004 43F40073 		orr	r3, r3, #512
 1433 0008 9360     		str	r3, [r2, #8]
 1434              	.LBE67:
 1435              	.LBE66:
 653:Drivers/STM32WBxx_HAL_Driver/Src/stm32wbxx_hal_pwr_ex.c **** }
 1436              		.loc 1 653 1 is_stmt 0 view .LVU275
 1437 000a 7047     		bx	lr
 1438              	.L132:
 1439              		.align	2
 1440              	.L131:
 1441 000c 00040058 		.word	1476396032
 1442              		.cfi_endproc
 1443              	.LFE1132:
 1445              		.section	.text.HAL_PWREx_DisableSRAMRetention,"ax",%progbits
 1446              		.align	1
 1447              		.global	HAL_PWREx_DisableSRAMRetention
 1448              		.syntax unified
 1449              		.thumb
 1450              		.thumb_func
 1452              	HAL_PWREx_DisableSRAMRetention:
 1453              	.LFB1133:
 654:Drivers/STM32WBxx_HAL_Driver/Src/stm32wbxx_hal_pwr_ex.c **** 
 655:Drivers/STM32WBxx_HAL_Driver/Src/stm32wbxx_hal_pwr_ex.c **** /**
 656:Drivers/STM32WBxx_HAL_Driver/Src/stm32wbxx_hal_pwr_ex.c ****   * @brief Disable SRAM2a content retention in Standby mode.
 657:Drivers/STM32WBxx_HAL_Driver/Src/stm32wbxx_hal_pwr_ex.c ****   * @note  When RRS bit is reset, SRAM2a is powered off in Standby mode
 658:Drivers/STM32WBxx_HAL_Driver/Src/stm32wbxx_hal_pwr_ex.c ****   *        and its content is lost.
 659:Drivers/STM32WBxx_HAL_Driver/Src/stm32wbxx_hal_pwr_ex.c ****   * @note   On devices STM32WB15xx, STM32WB10xx, STM32WB1Mxx retention is extended
 660:Drivers/STM32WBxx_HAL_Driver/Src/stm32wbxx_hal_pwr_ex.c ****   *         to SRAM1, SRAM2a and SRAM2b.
 661:Drivers/STM32WBxx_HAL_Driver/Src/stm32wbxx_hal_pwr_ex.c ****   * @retval None
 662:Drivers/STM32WBxx_HAL_Driver/Src/stm32wbxx_hal_pwr_ex.c ****   */
 663:Drivers/STM32WBxx_HAL_Driver/Src/stm32wbxx_hal_pwr_ex.c **** void HAL_PWREx_DisableSRAMRetention(void)
 664:Drivers/STM32WBxx_HAL_Driver/Src/stm32wbxx_hal_pwr_ex.c **** {
 1454              		.loc 1 664 1 is_stmt 1 view -0
 1455              		.cfi_startproc
 1456              		@ args = 0, pretend = 0, frame = 0
 1457              		@ frame_needed = 0, uses_anonymous_args = 0
 1458              		@ link register save eliminated.
 665:Drivers/STM32WBxx_HAL_Driver/Src/stm32wbxx_hal_pwr_ex.c ****   LL_PWR_DisableSRAM2Retention();
 1459              		.loc 1 665 3 view .LVU277
 1460              	.LBB68:
 1461              	.LBI68:
 839:Drivers/STM32WBxx_HAL_Driver/Inc/stm32wbxx_ll_pwr.h **** {
 1462              		.loc 2 839 22 view .LVU278
 1463              	.LBB69:
 841:Drivers/STM32WBxx_HAL_Driver/Inc/stm32wbxx_ll_pwr.h **** }
 1464              		.loc 2 841 3 view .LVU279
 1465 0000 024A     		ldr	r2, .L134
 1466 0002 9368     		ldr	r3, [r2, #8]
 1467 0004 23F40073 		bic	r3, r3, #512
 1468 0008 9360     		str	r3, [r2, #8]
 1469              	.LBE69:
 1470              	.LBE68:
 666:Drivers/STM32WBxx_HAL_Driver/Src/stm32wbxx_hal_pwr_ex.c **** }
 1471              		.loc 1 666 1 is_stmt 0 view .LVU280
 1472 000a 7047     		bx	lr
ARM GAS  C:\Users\Nathan\AppData\Local\Temp\ccvsgOlc.s 			page 67


 1473              	.L135:
 1474              		.align	2
 1475              	.L134:
 1476 000c 00040058 		.word	1476396032
 1477              		.cfi_endproc
 1478              	.LFE1133:
 1480              		.section	.text.HAL_PWREx_EnableFlashPowerDown,"ax",%progbits
 1481              		.align	1
 1482              		.global	HAL_PWREx_EnableFlashPowerDown
 1483              		.syntax unified
 1484              		.thumb
 1485              		.thumb_func
 1487              	HAL_PWREx_EnableFlashPowerDown:
 1488              	.LVL83:
 1489              	.LFB1134:
 667:Drivers/STM32WBxx_HAL_Driver/Src/stm32wbxx_hal_pwr_ex.c **** 
 668:Drivers/STM32WBxx_HAL_Driver/Src/stm32wbxx_hal_pwr_ex.c **** /****************************************************************************/
 669:Drivers/STM32WBxx_HAL_Driver/Src/stm32wbxx_hal_pwr_ex.c **** /**
 670:Drivers/STM32WBxx_HAL_Driver/Src/stm32wbxx_hal_pwr_ex.c ****   * @brief  Enable Flash Power Down.
 671:Drivers/STM32WBxx_HAL_Driver/Src/stm32wbxx_hal_pwr_ex.c ****   * @note   This API allows to enable flash power down capabilities in low power
 672:Drivers/STM32WBxx_HAL_Driver/Src/stm32wbxx_hal_pwr_ex.c ****   *         run and low power sleep modes.
 673:Drivers/STM32WBxx_HAL_Driver/Src/stm32wbxx_hal_pwr_ex.c ****   * @param  PowerMode this can be a combination of following values:
 674:Drivers/STM32WBxx_HAL_Driver/Src/stm32wbxx_hal_pwr_ex.c ****   *           @arg @ref PWR_FLASHPD_LPRUN
 675:Drivers/STM32WBxx_HAL_Driver/Src/stm32wbxx_hal_pwr_ex.c ****   *           @arg @ref PWR_FLASHPD_LPSLEEP
 676:Drivers/STM32WBxx_HAL_Driver/Src/stm32wbxx_hal_pwr_ex.c ****   * @retval None
 677:Drivers/STM32WBxx_HAL_Driver/Src/stm32wbxx_hal_pwr_ex.c ****   */
 678:Drivers/STM32WBxx_HAL_Driver/Src/stm32wbxx_hal_pwr_ex.c **** void HAL_PWREx_EnableFlashPowerDown(uint32_t PowerMode)
 679:Drivers/STM32WBxx_HAL_Driver/Src/stm32wbxx_hal_pwr_ex.c **** {
 1490              		.loc 1 679 1 is_stmt 1 view -0
 1491              		.cfi_startproc
 1492              		@ args = 0, pretend = 0, frame = 0
 1493              		@ frame_needed = 0, uses_anonymous_args = 0
 1494              		@ link register save eliminated.
 680:Drivers/STM32WBxx_HAL_Driver/Src/stm32wbxx_hal_pwr_ex.c ****   assert_param(IS_PWR_FLASH_POWERDOWN(PowerMode));
 1495              		.loc 1 680 3 view .LVU282
 681:Drivers/STM32WBxx_HAL_Driver/Src/stm32wbxx_hal_pwr_ex.c **** 
 682:Drivers/STM32WBxx_HAL_Driver/Src/stm32wbxx_hal_pwr_ex.c ****   if ((PowerMode & PWR_FLASHPD_LPRUN) != 0U)
 1496              		.loc 1 682 3 view .LVU283
 1497              		.loc 1 682 6 is_stmt 0 view .LVU284
 1498 0000 10F0100F 		tst	r0, #16
 1499 0004 03D0     		beq	.L137
 683:Drivers/STM32WBxx_HAL_Driver/Src/stm32wbxx_hal_pwr_ex.c ****   {
 684:Drivers/STM32WBxx_HAL_Driver/Src/stm32wbxx_hal_pwr_ex.c ****     /* Unlock bit FPDR */
 685:Drivers/STM32WBxx_HAL_Driver/Src/stm32wbxx_hal_pwr_ex.c ****     WRITE_REG(PWR->CR1, 0x0000C1B0UL);
 1500              		.loc 1 685 5 is_stmt 1 view .LVU285
 1501 0006 044B     		ldr	r3, .L138
 1502 0008 4CF2B012 		movw	r2, #49584
 1503 000c 1A60     		str	r2, [r3]
 1504              	.L137:
 686:Drivers/STM32WBxx_HAL_Driver/Src/stm32wbxx_hal_pwr_ex.c ****   }
 687:Drivers/STM32WBxx_HAL_Driver/Src/stm32wbxx_hal_pwr_ex.c **** 
 688:Drivers/STM32WBxx_HAL_Driver/Src/stm32wbxx_hal_pwr_ex.c ****   /* Set flash power down mode */
 689:Drivers/STM32WBxx_HAL_Driver/Src/stm32wbxx_hal_pwr_ex.c ****   SET_BIT(PWR->CR1, PowerMode);
 1505              		.loc 1 689 3 view .LVU286
 1506 000e 024A     		ldr	r2, .L138
 1507 0010 1368     		ldr	r3, [r2]
 1508 0012 0343     		orrs	r3, r3, r0
ARM GAS  C:\Users\Nathan\AppData\Local\Temp\ccvsgOlc.s 			page 68


 1509 0014 1360     		str	r3, [r2]
 690:Drivers/STM32WBxx_HAL_Driver/Src/stm32wbxx_hal_pwr_ex.c **** }
 1510              		.loc 1 690 1 is_stmt 0 view .LVU287
 1511 0016 7047     		bx	lr
 1512              	.L139:
 1513              		.align	2
 1514              	.L138:
 1515 0018 00040058 		.word	1476396032
 1516              		.cfi_endproc
 1517              	.LFE1134:
 1519              		.section	.text.HAL_PWREx_DisableFlashPowerDown,"ax",%progbits
 1520              		.align	1
 1521              		.global	HAL_PWREx_DisableFlashPowerDown
 1522              		.syntax unified
 1523              		.thumb
 1524              		.thumb_func
 1526              	HAL_PWREx_DisableFlashPowerDown:
 1527              	.LVL84:
 1528              	.LFB1135:
 691:Drivers/STM32WBxx_HAL_Driver/Src/stm32wbxx_hal_pwr_ex.c **** 
 692:Drivers/STM32WBxx_HAL_Driver/Src/stm32wbxx_hal_pwr_ex.c **** /**
 693:Drivers/STM32WBxx_HAL_Driver/Src/stm32wbxx_hal_pwr_ex.c ****   * @brief  Disable Flash Power Down.
 694:Drivers/STM32WBxx_HAL_Driver/Src/stm32wbxx_hal_pwr_ex.c ****   * @note   This API allows to disable flash power down capabilities in low power
 695:Drivers/STM32WBxx_HAL_Driver/Src/stm32wbxx_hal_pwr_ex.c ****   *         run and low power sleep modes.
 696:Drivers/STM32WBxx_HAL_Driver/Src/stm32wbxx_hal_pwr_ex.c ****   * @param  PowerMode this can be a combination of following values:
 697:Drivers/STM32WBxx_HAL_Driver/Src/stm32wbxx_hal_pwr_ex.c ****   *           @arg @ref PWR_FLASHPD_LPRUN
 698:Drivers/STM32WBxx_HAL_Driver/Src/stm32wbxx_hal_pwr_ex.c ****   *           @arg @ref PWR_FLASHPD_LPSLEEP
 699:Drivers/STM32WBxx_HAL_Driver/Src/stm32wbxx_hal_pwr_ex.c ****   * @retval None
 700:Drivers/STM32WBxx_HAL_Driver/Src/stm32wbxx_hal_pwr_ex.c ****   */
 701:Drivers/STM32WBxx_HAL_Driver/Src/stm32wbxx_hal_pwr_ex.c **** void HAL_PWREx_DisableFlashPowerDown(uint32_t PowerMode)
 702:Drivers/STM32WBxx_HAL_Driver/Src/stm32wbxx_hal_pwr_ex.c **** {
 1529              		.loc 1 702 1 is_stmt 1 view -0
 1530              		.cfi_startproc
 1531              		@ args = 0, pretend = 0, frame = 0
 1532              		@ frame_needed = 0, uses_anonymous_args = 0
 1533              		@ link register save eliminated.
 703:Drivers/STM32WBxx_HAL_Driver/Src/stm32wbxx_hal_pwr_ex.c ****   assert_param(IS_PWR_FLASH_POWERDOWN(PowerMode));
 1534              		.loc 1 703 3 view .LVU289
 704:Drivers/STM32WBxx_HAL_Driver/Src/stm32wbxx_hal_pwr_ex.c **** 
 705:Drivers/STM32WBxx_HAL_Driver/Src/stm32wbxx_hal_pwr_ex.c ****   /* Set flash power down mode */
 706:Drivers/STM32WBxx_HAL_Driver/Src/stm32wbxx_hal_pwr_ex.c ****   CLEAR_BIT(PWR->CR1, PowerMode);
 1535              		.loc 1 706 3 view .LVU290
 1536 0000 024A     		ldr	r2, .L141
 1537 0002 1368     		ldr	r3, [r2]
 1538 0004 23EA0003 		bic	r3, r3, r0
 1539 0008 1360     		str	r3, [r2]
 707:Drivers/STM32WBxx_HAL_Driver/Src/stm32wbxx_hal_pwr_ex.c **** }
 1540              		.loc 1 707 1 is_stmt 0 view .LVU291
 1541 000a 7047     		bx	lr
 1542              	.L142:
 1543              		.align	2
 1544              	.L141:
 1545 000c 00040058 		.word	1476396032
 1546              		.cfi_endproc
 1547              	.LFE1135:
 1549              		.section	.text.HAL_PWREx_EnablePVM1,"ax",%progbits
 1550              		.align	1
ARM GAS  C:\Users\Nathan\AppData\Local\Temp\ccvsgOlc.s 			page 69


 1551              		.global	HAL_PWREx_EnablePVM1
 1552              		.syntax unified
 1553              		.thumb
 1554              		.thumb_func
 1556              	HAL_PWREx_EnablePVM1:
 1557              	.LFB1136:
 708:Drivers/STM32WBxx_HAL_Driver/Src/stm32wbxx_hal_pwr_ex.c **** 
 709:Drivers/STM32WBxx_HAL_Driver/Src/stm32wbxx_hal_pwr_ex.c **** /****************************************************************************/
 710:Drivers/STM32WBxx_HAL_Driver/Src/stm32wbxx_hal_pwr_ex.c **** #if defined(PWR_CR2_PVME1)
 711:Drivers/STM32WBxx_HAL_Driver/Src/stm32wbxx_hal_pwr_ex.c **** /**
 712:Drivers/STM32WBxx_HAL_Driver/Src/stm32wbxx_hal_pwr_ex.c ****   * @brief Enable the Power Voltage Monitoring 1: VDDUSB versus 1.2V.
 713:Drivers/STM32WBxx_HAL_Driver/Src/stm32wbxx_hal_pwr_ex.c ****   * @retval None
 714:Drivers/STM32WBxx_HAL_Driver/Src/stm32wbxx_hal_pwr_ex.c ****   */
 715:Drivers/STM32WBxx_HAL_Driver/Src/stm32wbxx_hal_pwr_ex.c **** void HAL_PWREx_EnablePVM1(void)
 716:Drivers/STM32WBxx_HAL_Driver/Src/stm32wbxx_hal_pwr_ex.c **** {
 1558              		.loc 1 716 1 is_stmt 1 view -0
 1559              		.cfi_startproc
 1560              		@ args = 0, pretend = 0, frame = 0
 1561              		@ frame_needed = 0, uses_anonymous_args = 0
 1562              		@ link register save eliminated.
 717:Drivers/STM32WBxx_HAL_Driver/Src/stm32wbxx_hal_pwr_ex.c ****   SET_BIT(PWR->CR2, PWR_PVM_1);
 1563              		.loc 1 717 3 view .LVU293
 1564 0000 024A     		ldr	r2, .L144
 1565 0002 5368     		ldr	r3, [r2, #4]
 1566 0004 43F01003 		orr	r3, r3, #16
 1567 0008 5360     		str	r3, [r2, #4]
 718:Drivers/STM32WBxx_HAL_Driver/Src/stm32wbxx_hal_pwr_ex.c **** }
 1568              		.loc 1 718 1 is_stmt 0 view .LVU294
 1569 000a 7047     		bx	lr
 1570              	.L145:
 1571              		.align	2
 1572              	.L144:
 1573 000c 00040058 		.word	1476396032
 1574              		.cfi_endproc
 1575              	.LFE1136:
 1577              		.section	.text.HAL_PWREx_DisablePVM1,"ax",%progbits
 1578              		.align	1
 1579              		.global	HAL_PWREx_DisablePVM1
 1580              		.syntax unified
 1581              		.thumb
 1582              		.thumb_func
 1584              	HAL_PWREx_DisablePVM1:
 1585              	.LFB1137:
 719:Drivers/STM32WBxx_HAL_Driver/Src/stm32wbxx_hal_pwr_ex.c **** 
 720:Drivers/STM32WBxx_HAL_Driver/Src/stm32wbxx_hal_pwr_ex.c **** /**
 721:Drivers/STM32WBxx_HAL_Driver/Src/stm32wbxx_hal_pwr_ex.c ****   * @brief Disable the Power Voltage Monitoring 1: VDDUSB versus 1.2V.
 722:Drivers/STM32WBxx_HAL_Driver/Src/stm32wbxx_hal_pwr_ex.c ****   * @retval None
 723:Drivers/STM32WBxx_HAL_Driver/Src/stm32wbxx_hal_pwr_ex.c ****   */
 724:Drivers/STM32WBxx_HAL_Driver/Src/stm32wbxx_hal_pwr_ex.c **** void HAL_PWREx_DisablePVM1(void)
 725:Drivers/STM32WBxx_HAL_Driver/Src/stm32wbxx_hal_pwr_ex.c **** {
 1586              		.loc 1 725 1 is_stmt 1 view -0
 1587              		.cfi_startproc
 1588              		@ args = 0, pretend = 0, frame = 0
 1589              		@ frame_needed = 0, uses_anonymous_args = 0
 1590              		@ link register save eliminated.
 726:Drivers/STM32WBxx_HAL_Driver/Src/stm32wbxx_hal_pwr_ex.c ****   CLEAR_BIT(PWR->CR2, PWR_PVM_1);
 1591              		.loc 1 726 3 view .LVU296
ARM GAS  C:\Users\Nathan\AppData\Local\Temp\ccvsgOlc.s 			page 70


 1592 0000 024A     		ldr	r2, .L147
 1593 0002 5368     		ldr	r3, [r2, #4]
 1594 0004 23F01003 		bic	r3, r3, #16
 1595 0008 5360     		str	r3, [r2, #4]
 727:Drivers/STM32WBxx_HAL_Driver/Src/stm32wbxx_hal_pwr_ex.c **** }
 1596              		.loc 1 727 1 is_stmt 0 view .LVU297
 1597 000a 7047     		bx	lr
 1598              	.L148:
 1599              		.align	2
 1600              	.L147:
 1601 000c 00040058 		.word	1476396032
 1602              		.cfi_endproc
 1603              	.LFE1137:
 1605              		.section	.text.HAL_PWREx_EnablePVM3,"ax",%progbits
 1606              		.align	1
 1607              		.global	HAL_PWREx_EnablePVM3
 1608              		.syntax unified
 1609              		.thumb
 1610              		.thumb_func
 1612              	HAL_PWREx_EnablePVM3:
 1613              	.LFB1138:
 728:Drivers/STM32WBxx_HAL_Driver/Src/stm32wbxx_hal_pwr_ex.c **** #endif /* PWR_CR2_PVME1 */
 729:Drivers/STM32WBxx_HAL_Driver/Src/stm32wbxx_hal_pwr_ex.c **** 
 730:Drivers/STM32WBxx_HAL_Driver/Src/stm32wbxx_hal_pwr_ex.c **** /**
 731:Drivers/STM32WBxx_HAL_Driver/Src/stm32wbxx_hal_pwr_ex.c ****   * @brief Enable the Power Voltage Monitoring 3: VDDA versus 1.62V.
 732:Drivers/STM32WBxx_HAL_Driver/Src/stm32wbxx_hal_pwr_ex.c ****   * @retval None
 733:Drivers/STM32WBxx_HAL_Driver/Src/stm32wbxx_hal_pwr_ex.c ****   */
 734:Drivers/STM32WBxx_HAL_Driver/Src/stm32wbxx_hal_pwr_ex.c **** void HAL_PWREx_EnablePVM3(void)
 735:Drivers/STM32WBxx_HAL_Driver/Src/stm32wbxx_hal_pwr_ex.c **** {
 1614              		.loc 1 735 1 is_stmt 1 view -0
 1615              		.cfi_startproc
 1616              		@ args = 0, pretend = 0, frame = 0
 1617              		@ frame_needed = 0, uses_anonymous_args = 0
 1618              		@ link register save eliminated.
 736:Drivers/STM32WBxx_HAL_Driver/Src/stm32wbxx_hal_pwr_ex.c ****   SET_BIT(PWR->CR2, PWR_PVM_3);
 1619              		.loc 1 736 3 view .LVU299
 1620 0000 024A     		ldr	r2, .L150
 1621 0002 5368     		ldr	r3, [r2, #4]
 1622 0004 43F04003 		orr	r3, r3, #64
 1623 0008 5360     		str	r3, [r2, #4]
 737:Drivers/STM32WBxx_HAL_Driver/Src/stm32wbxx_hal_pwr_ex.c **** }
 1624              		.loc 1 737 1 is_stmt 0 view .LVU300
 1625 000a 7047     		bx	lr
 1626              	.L151:
 1627              		.align	2
 1628              	.L150:
 1629 000c 00040058 		.word	1476396032
 1630              		.cfi_endproc
 1631              	.LFE1138:
 1633              		.section	.text.HAL_PWREx_DisablePVM3,"ax",%progbits
 1634              		.align	1
 1635              		.global	HAL_PWREx_DisablePVM3
 1636              		.syntax unified
 1637              		.thumb
 1638              		.thumb_func
 1640              	HAL_PWREx_DisablePVM3:
 1641              	.LFB1139:
ARM GAS  C:\Users\Nathan\AppData\Local\Temp\ccvsgOlc.s 			page 71


 738:Drivers/STM32WBxx_HAL_Driver/Src/stm32wbxx_hal_pwr_ex.c **** 
 739:Drivers/STM32WBxx_HAL_Driver/Src/stm32wbxx_hal_pwr_ex.c **** /**
 740:Drivers/STM32WBxx_HAL_Driver/Src/stm32wbxx_hal_pwr_ex.c ****   * @brief Disable the Power Voltage Monitoring 3: VDDA versus 1.62V.
 741:Drivers/STM32WBxx_HAL_Driver/Src/stm32wbxx_hal_pwr_ex.c ****   * @retval None
 742:Drivers/STM32WBxx_HAL_Driver/Src/stm32wbxx_hal_pwr_ex.c ****   */
 743:Drivers/STM32WBxx_HAL_Driver/Src/stm32wbxx_hal_pwr_ex.c **** void HAL_PWREx_DisablePVM3(void)
 744:Drivers/STM32WBxx_HAL_Driver/Src/stm32wbxx_hal_pwr_ex.c **** {
 1642              		.loc 1 744 1 is_stmt 1 view -0
 1643              		.cfi_startproc
 1644              		@ args = 0, pretend = 0, frame = 0
 1645              		@ frame_needed = 0, uses_anonymous_args = 0
 1646              		@ link register save eliminated.
 745:Drivers/STM32WBxx_HAL_Driver/Src/stm32wbxx_hal_pwr_ex.c ****   CLEAR_BIT(PWR->CR2, PWR_PVM_3);
 1647              		.loc 1 745 3 view .LVU302
 1648 0000 024A     		ldr	r2, .L153
 1649 0002 5368     		ldr	r3, [r2, #4]
 1650 0004 23F04003 		bic	r3, r3, #64
 1651 0008 5360     		str	r3, [r2, #4]
 746:Drivers/STM32WBxx_HAL_Driver/Src/stm32wbxx_hal_pwr_ex.c **** }
 1652              		.loc 1 746 1 is_stmt 0 view .LVU303
 1653 000a 7047     		bx	lr
 1654              	.L154:
 1655              		.align	2
 1656              	.L153:
 1657 000c 00040058 		.word	1476396032
 1658              		.cfi_endproc
 1659              	.LFE1139:
 1661              		.section	.text.HAL_PWREx_ConfigPVM,"ax",%progbits
 1662              		.align	1
 1663              		.global	HAL_PWREx_ConfigPVM
 1664              		.syntax unified
 1665              		.thumb
 1666              		.thumb_func
 1668              	HAL_PWREx_ConfigPVM:
 1669              	.LVL85:
 1670              	.LFB1140:
 747:Drivers/STM32WBxx_HAL_Driver/Src/stm32wbxx_hal_pwr_ex.c **** 
 748:Drivers/STM32WBxx_HAL_Driver/Src/stm32wbxx_hal_pwr_ex.c **** 
 749:Drivers/STM32WBxx_HAL_Driver/Src/stm32wbxx_hal_pwr_ex.c **** 
 750:Drivers/STM32WBxx_HAL_Driver/Src/stm32wbxx_hal_pwr_ex.c **** 
 751:Drivers/STM32WBxx_HAL_Driver/Src/stm32wbxx_hal_pwr_ex.c **** /**
 752:Drivers/STM32WBxx_HAL_Driver/Src/stm32wbxx_hal_pwr_ex.c ****   * @brief Configure the Peripheral Voltage Monitoring (PVM).
 753:Drivers/STM32WBxx_HAL_Driver/Src/stm32wbxx_hal_pwr_ex.c ****   * @param sConfigPVM pointer to a PWR_PVMTypeDef structure that contains the
 754:Drivers/STM32WBxx_HAL_Driver/Src/stm32wbxx_hal_pwr_ex.c ****   *        PVM configuration information.
 755:Drivers/STM32WBxx_HAL_Driver/Src/stm32wbxx_hal_pwr_ex.c ****   * @note The API configures a single PVM according to the information contained
 756:Drivers/STM32WBxx_HAL_Driver/Src/stm32wbxx_hal_pwr_ex.c ****   *       in the input structure. To configure several PVMs, the API must be singly
 757:Drivers/STM32WBxx_HAL_Driver/Src/stm32wbxx_hal_pwr_ex.c ****   *       called for each PVM used.
 758:Drivers/STM32WBxx_HAL_Driver/Src/stm32wbxx_hal_pwr_ex.c ****   * @note Refer to the electrical characteristics of your device datasheet for
 759:Drivers/STM32WBxx_HAL_Driver/Src/stm32wbxx_hal_pwr_ex.c ****   *         more details about the voltage thresholds corresponding to each
 760:Drivers/STM32WBxx_HAL_Driver/Src/stm32wbxx_hal_pwr_ex.c ****   *         detection level and to each monitored supply.
 761:Drivers/STM32WBxx_HAL_Driver/Src/stm32wbxx_hal_pwr_ex.c ****   * @retval HAL status
 762:Drivers/STM32WBxx_HAL_Driver/Src/stm32wbxx_hal_pwr_ex.c ****   */
 763:Drivers/STM32WBxx_HAL_Driver/Src/stm32wbxx_hal_pwr_ex.c **** HAL_StatusTypeDef HAL_PWREx_ConfigPVM(PWR_PVMTypeDef *sConfigPVM)
 764:Drivers/STM32WBxx_HAL_Driver/Src/stm32wbxx_hal_pwr_ex.c **** {
 1671              		.loc 1 764 1 is_stmt 1 view -0
 1672              		.cfi_startproc
 1673              		@ args = 0, pretend = 0, frame = 0
ARM GAS  C:\Users\Nathan\AppData\Local\Temp\ccvsgOlc.s 			page 72


 1674              		@ frame_needed = 0, uses_anonymous_args = 0
 1675              		@ link register save eliminated.
 765:Drivers/STM32WBxx_HAL_Driver/Src/stm32wbxx_hal_pwr_ex.c ****   HAL_StatusTypeDef status = HAL_OK;
 1676              		.loc 1 765 3 view .LVU305
 766:Drivers/STM32WBxx_HAL_Driver/Src/stm32wbxx_hal_pwr_ex.c **** 
 767:Drivers/STM32WBxx_HAL_Driver/Src/stm32wbxx_hal_pwr_ex.c ****   /* Check the parameters */
 768:Drivers/STM32WBxx_HAL_Driver/Src/stm32wbxx_hal_pwr_ex.c ****   assert_param(IS_PWR_PVM_TYPE(sConfigPVM->PVMType));
 1677              		.loc 1 768 3 view .LVU306
 769:Drivers/STM32WBxx_HAL_Driver/Src/stm32wbxx_hal_pwr_ex.c ****   assert_param(IS_PWR_PVM_MODE(sConfigPVM->Mode));
 1678              		.loc 1 769 3 view .LVU307
 770:Drivers/STM32WBxx_HAL_Driver/Src/stm32wbxx_hal_pwr_ex.c **** 
 771:Drivers/STM32WBxx_HAL_Driver/Src/stm32wbxx_hal_pwr_ex.c ****   /* Configure EXTI 31 and 33 interrupts if so required:
 772:Drivers/STM32WBxx_HAL_Driver/Src/stm32wbxx_hal_pwr_ex.c ****      scan thru PVMType to detect which PVMx is set and
 773:Drivers/STM32WBxx_HAL_Driver/Src/stm32wbxx_hal_pwr_ex.c ****      configure the corresponding EXTI line accordingly. */
 774:Drivers/STM32WBxx_HAL_Driver/Src/stm32wbxx_hal_pwr_ex.c ****   switch (sConfigPVM->PVMType)
 1679              		.loc 1 774 3 view .LVU308
 1680              		.loc 1 774 21 is_stmt 0 view .LVU309
 1681 0000 0368     		ldr	r3, [r0]
 1682              		.loc 1 774 3 view .LVU310
 1683 0002 102B     		cmp	r3, #16
 1684 0004 03D0     		beq	.L156
 1685 0006 402B     		cmp	r3, #64
 1686 0008 40D0     		beq	.L157
 1687 000a 0120     		movs	r0, #1
 1688              	.LVL86:
 1689              		.loc 1 774 3 view .LVU311
 1690 000c 7047     		bx	lr
 1691              	.LVL87:
 1692              	.L156:
 775:Drivers/STM32WBxx_HAL_Driver/Src/stm32wbxx_hal_pwr_ex.c ****   {
 776:Drivers/STM32WBxx_HAL_Driver/Src/stm32wbxx_hal_pwr_ex.c **** #if defined(PWR_CR2_PVME1)
 777:Drivers/STM32WBxx_HAL_Driver/Src/stm32wbxx_hal_pwr_ex.c ****     case PWR_PVM_1:
 778:Drivers/STM32WBxx_HAL_Driver/Src/stm32wbxx_hal_pwr_ex.c ****       /* Clear any previous config. Keep it clear if no event or IT mode is selected */
 779:Drivers/STM32WBxx_HAL_Driver/Src/stm32wbxx_hal_pwr_ex.c ****       __HAL_PWR_PVM1_EXTI_DISABLE_EVENT();
 1693              		.loc 1 779 7 is_stmt 1 view .LVU312
 1694              	.LBB70:
 1695              	.LBI70:
 1696              		.file 3 "Drivers/STM32WBxx_HAL_Driver/Inc/stm32wbxx_ll_exti.h"
   1:Drivers/STM32WBxx_HAL_Driver/Inc/stm32wbxx_ll_exti.h **** /**
   2:Drivers/STM32WBxx_HAL_Driver/Inc/stm32wbxx_ll_exti.h ****   ******************************************************************************
   3:Drivers/STM32WBxx_HAL_Driver/Inc/stm32wbxx_ll_exti.h ****   * @file    stm32wbxx_ll_exti.h
   4:Drivers/STM32WBxx_HAL_Driver/Inc/stm32wbxx_ll_exti.h ****   * @author  MCD Application Team
   5:Drivers/STM32WBxx_HAL_Driver/Inc/stm32wbxx_ll_exti.h ****   * @brief   Header file of EXTI LL module.
   6:Drivers/STM32WBxx_HAL_Driver/Inc/stm32wbxx_ll_exti.h ****   ******************************************************************************
   7:Drivers/STM32WBxx_HAL_Driver/Inc/stm32wbxx_ll_exti.h ****   * @attention
   8:Drivers/STM32WBxx_HAL_Driver/Inc/stm32wbxx_ll_exti.h ****   *
   9:Drivers/STM32WBxx_HAL_Driver/Inc/stm32wbxx_ll_exti.h ****   * Copyright (c) 2019 STMicroelectronics.
  10:Drivers/STM32WBxx_HAL_Driver/Inc/stm32wbxx_ll_exti.h ****   * All rights reserved.
  11:Drivers/STM32WBxx_HAL_Driver/Inc/stm32wbxx_ll_exti.h ****   *
  12:Drivers/STM32WBxx_HAL_Driver/Inc/stm32wbxx_ll_exti.h ****   * This software is licensed under terms that can be found in the LICENSE file
  13:Drivers/STM32WBxx_HAL_Driver/Inc/stm32wbxx_ll_exti.h ****   * in the root directory of this software component.
  14:Drivers/STM32WBxx_HAL_Driver/Inc/stm32wbxx_ll_exti.h ****   * If no LICENSE file comes with this software, it is provided AS-IS.
  15:Drivers/STM32WBxx_HAL_Driver/Inc/stm32wbxx_ll_exti.h ****   *
  16:Drivers/STM32WBxx_HAL_Driver/Inc/stm32wbxx_ll_exti.h ****   ******************************************************************************
  17:Drivers/STM32WBxx_HAL_Driver/Inc/stm32wbxx_ll_exti.h ****   */
  18:Drivers/STM32WBxx_HAL_Driver/Inc/stm32wbxx_ll_exti.h **** 
  19:Drivers/STM32WBxx_HAL_Driver/Inc/stm32wbxx_ll_exti.h **** /* Define to prevent recursive inclusion -------------------------------------*/
ARM GAS  C:\Users\Nathan\AppData\Local\Temp\ccvsgOlc.s 			page 73


  20:Drivers/STM32WBxx_HAL_Driver/Inc/stm32wbxx_ll_exti.h **** #ifndef STM32WBxx_LL_EXTI_H
  21:Drivers/STM32WBxx_HAL_Driver/Inc/stm32wbxx_ll_exti.h **** #define STM32WBxx_LL_EXTI_H
  22:Drivers/STM32WBxx_HAL_Driver/Inc/stm32wbxx_ll_exti.h **** 
  23:Drivers/STM32WBxx_HAL_Driver/Inc/stm32wbxx_ll_exti.h **** #ifdef __cplusplus
  24:Drivers/STM32WBxx_HAL_Driver/Inc/stm32wbxx_ll_exti.h **** extern "C" {
  25:Drivers/STM32WBxx_HAL_Driver/Inc/stm32wbxx_ll_exti.h **** #endif
  26:Drivers/STM32WBxx_HAL_Driver/Inc/stm32wbxx_ll_exti.h **** 
  27:Drivers/STM32WBxx_HAL_Driver/Inc/stm32wbxx_ll_exti.h **** /* Includes ------------------------------------------------------------------*/
  28:Drivers/STM32WBxx_HAL_Driver/Inc/stm32wbxx_ll_exti.h **** #include "stm32wbxx.h"
  29:Drivers/STM32WBxx_HAL_Driver/Inc/stm32wbxx_ll_exti.h **** 
  30:Drivers/STM32WBxx_HAL_Driver/Inc/stm32wbxx_ll_exti.h **** /** @addtogroup STM32WBxx_LL_Driver
  31:Drivers/STM32WBxx_HAL_Driver/Inc/stm32wbxx_ll_exti.h ****   * @{
  32:Drivers/STM32WBxx_HAL_Driver/Inc/stm32wbxx_ll_exti.h ****   */
  33:Drivers/STM32WBxx_HAL_Driver/Inc/stm32wbxx_ll_exti.h **** 
  34:Drivers/STM32WBxx_HAL_Driver/Inc/stm32wbxx_ll_exti.h **** #if defined (EXTI)
  35:Drivers/STM32WBxx_HAL_Driver/Inc/stm32wbxx_ll_exti.h **** 
  36:Drivers/STM32WBxx_HAL_Driver/Inc/stm32wbxx_ll_exti.h **** /** @defgroup EXTI_LL EXTI
  37:Drivers/STM32WBxx_HAL_Driver/Inc/stm32wbxx_ll_exti.h ****   * @{
  38:Drivers/STM32WBxx_HAL_Driver/Inc/stm32wbxx_ll_exti.h ****   */
  39:Drivers/STM32WBxx_HAL_Driver/Inc/stm32wbxx_ll_exti.h **** 
  40:Drivers/STM32WBxx_HAL_Driver/Inc/stm32wbxx_ll_exti.h **** /* Private types -------------------------------------------------------------*/
  41:Drivers/STM32WBxx_HAL_Driver/Inc/stm32wbxx_ll_exti.h **** /* Private variables ---------------------------------------------------------*/
  42:Drivers/STM32WBxx_HAL_Driver/Inc/stm32wbxx_ll_exti.h **** /* Private constants ---------------------------------------------------------*/
  43:Drivers/STM32WBxx_HAL_Driver/Inc/stm32wbxx_ll_exti.h **** /* Private Macros ------------------------------------------------------------*/
  44:Drivers/STM32WBxx_HAL_Driver/Inc/stm32wbxx_ll_exti.h **** #if defined(USE_FULL_LL_DRIVER)
  45:Drivers/STM32WBxx_HAL_Driver/Inc/stm32wbxx_ll_exti.h **** /** @defgroup EXTI_LL_Private_Macros EXTI Private Macros
  46:Drivers/STM32WBxx_HAL_Driver/Inc/stm32wbxx_ll_exti.h ****   * @{
  47:Drivers/STM32WBxx_HAL_Driver/Inc/stm32wbxx_ll_exti.h ****   */
  48:Drivers/STM32WBxx_HAL_Driver/Inc/stm32wbxx_ll_exti.h **** /**
  49:Drivers/STM32WBxx_HAL_Driver/Inc/stm32wbxx_ll_exti.h ****   * @}
  50:Drivers/STM32WBxx_HAL_Driver/Inc/stm32wbxx_ll_exti.h ****   */
  51:Drivers/STM32WBxx_HAL_Driver/Inc/stm32wbxx_ll_exti.h **** #endif /*USE_FULL_LL_DRIVER*/
  52:Drivers/STM32WBxx_HAL_Driver/Inc/stm32wbxx_ll_exti.h **** /* Exported types ------------------------------------------------------------*/
  53:Drivers/STM32WBxx_HAL_Driver/Inc/stm32wbxx_ll_exti.h **** #if defined(USE_FULL_LL_DRIVER)
  54:Drivers/STM32WBxx_HAL_Driver/Inc/stm32wbxx_ll_exti.h **** /** @defgroup EXTI_LL_ES_INIT EXTI Exported Init structure
  55:Drivers/STM32WBxx_HAL_Driver/Inc/stm32wbxx_ll_exti.h ****   * @{
  56:Drivers/STM32WBxx_HAL_Driver/Inc/stm32wbxx_ll_exti.h ****   */
  57:Drivers/STM32WBxx_HAL_Driver/Inc/stm32wbxx_ll_exti.h **** typedef struct
  58:Drivers/STM32WBxx_HAL_Driver/Inc/stm32wbxx_ll_exti.h **** {
  59:Drivers/STM32WBxx_HAL_Driver/Inc/stm32wbxx_ll_exti.h **** 
  60:Drivers/STM32WBxx_HAL_Driver/Inc/stm32wbxx_ll_exti.h ****   uint32_t Line_0_31;           /*!< Specifies the EXTI lines to be enabled or disabled for Lines i
  61:Drivers/STM32WBxx_HAL_Driver/Inc/stm32wbxx_ll_exti.h ****                                      This parameter can be any combination of @ref EXTI_LL_EC_LINE 
  62:Drivers/STM32WBxx_HAL_Driver/Inc/stm32wbxx_ll_exti.h **** 
  63:Drivers/STM32WBxx_HAL_Driver/Inc/stm32wbxx_ll_exti.h ****   uint32_t Line_32_63;          /*!< Specifies the EXTI lines to be enabled or disabled for Lines i
  64:Drivers/STM32WBxx_HAL_Driver/Inc/stm32wbxx_ll_exti.h ****                                      This parameter can be any combination of @ref EXTI_LL_EC_LINE 
  65:Drivers/STM32WBxx_HAL_Driver/Inc/stm32wbxx_ll_exti.h **** 
  66:Drivers/STM32WBxx_HAL_Driver/Inc/stm32wbxx_ll_exti.h ****   FunctionalState LineCommand;  /*!< Specifies the new state of the selected EXTI lines.
  67:Drivers/STM32WBxx_HAL_Driver/Inc/stm32wbxx_ll_exti.h ****                                      This parameter can be set either to ENABLE or DISABLE */
  68:Drivers/STM32WBxx_HAL_Driver/Inc/stm32wbxx_ll_exti.h **** 
  69:Drivers/STM32WBxx_HAL_Driver/Inc/stm32wbxx_ll_exti.h ****   uint8_t Mode;                 /*!< Specifies the mode for the EXTI lines.
  70:Drivers/STM32WBxx_HAL_Driver/Inc/stm32wbxx_ll_exti.h ****                                      This parameter can be a value of @ref EXTI_LL_EC_MODE. */
  71:Drivers/STM32WBxx_HAL_Driver/Inc/stm32wbxx_ll_exti.h **** 
  72:Drivers/STM32WBxx_HAL_Driver/Inc/stm32wbxx_ll_exti.h ****   uint8_t Trigger;              /*!< Specifies the trigger signal active edge for the EXTI lines.
  73:Drivers/STM32WBxx_HAL_Driver/Inc/stm32wbxx_ll_exti.h ****                                      This parameter can be a value of @ref EXTI_LL_EC_TRIGGER. */
  74:Drivers/STM32WBxx_HAL_Driver/Inc/stm32wbxx_ll_exti.h **** } LL_EXTI_InitTypeDef;
  75:Drivers/STM32WBxx_HAL_Driver/Inc/stm32wbxx_ll_exti.h **** 
  76:Drivers/STM32WBxx_HAL_Driver/Inc/stm32wbxx_ll_exti.h **** /**
ARM GAS  C:\Users\Nathan\AppData\Local\Temp\ccvsgOlc.s 			page 74


  77:Drivers/STM32WBxx_HAL_Driver/Inc/stm32wbxx_ll_exti.h ****   * @}
  78:Drivers/STM32WBxx_HAL_Driver/Inc/stm32wbxx_ll_exti.h ****   */
  79:Drivers/STM32WBxx_HAL_Driver/Inc/stm32wbxx_ll_exti.h **** #endif /*USE_FULL_LL_DRIVER*/
  80:Drivers/STM32WBxx_HAL_Driver/Inc/stm32wbxx_ll_exti.h **** 
  81:Drivers/STM32WBxx_HAL_Driver/Inc/stm32wbxx_ll_exti.h **** /* Exported constants --------------------------------------------------------*/
  82:Drivers/STM32WBxx_HAL_Driver/Inc/stm32wbxx_ll_exti.h **** /** @defgroup EXTI_LL_Exported_Constants EXTI Exported Constants
  83:Drivers/STM32WBxx_HAL_Driver/Inc/stm32wbxx_ll_exti.h ****   * @{
  84:Drivers/STM32WBxx_HAL_Driver/Inc/stm32wbxx_ll_exti.h ****   */
  85:Drivers/STM32WBxx_HAL_Driver/Inc/stm32wbxx_ll_exti.h **** 
  86:Drivers/STM32WBxx_HAL_Driver/Inc/stm32wbxx_ll_exti.h **** /** @defgroup EXTI_LL_EC_LINE LINE
  87:Drivers/STM32WBxx_HAL_Driver/Inc/stm32wbxx_ll_exti.h ****   * @{
  88:Drivers/STM32WBxx_HAL_Driver/Inc/stm32wbxx_ll_exti.h ****   */
  89:Drivers/STM32WBxx_HAL_Driver/Inc/stm32wbxx_ll_exti.h **** #define LL_EXTI_LINE_0                 EXTI_IMR1_IM0           /*!< Extended line 0 */
  90:Drivers/STM32WBxx_HAL_Driver/Inc/stm32wbxx_ll_exti.h **** #define LL_EXTI_LINE_1                 EXTI_IMR1_IM1           /*!< Extended line 1 */
  91:Drivers/STM32WBxx_HAL_Driver/Inc/stm32wbxx_ll_exti.h **** #define LL_EXTI_LINE_2                 EXTI_IMR1_IM2           /*!< Extended line 2 */
  92:Drivers/STM32WBxx_HAL_Driver/Inc/stm32wbxx_ll_exti.h **** #define LL_EXTI_LINE_3                 EXTI_IMR1_IM3           /*!< Extended line 3 */
  93:Drivers/STM32WBxx_HAL_Driver/Inc/stm32wbxx_ll_exti.h **** #define LL_EXTI_LINE_4                 EXTI_IMR1_IM4           /*!< Extended line 4 */
  94:Drivers/STM32WBxx_HAL_Driver/Inc/stm32wbxx_ll_exti.h **** #define LL_EXTI_LINE_5                 EXTI_IMR1_IM5           /*!< Extended line 5 */
  95:Drivers/STM32WBxx_HAL_Driver/Inc/stm32wbxx_ll_exti.h **** #define LL_EXTI_LINE_6                 EXTI_IMR1_IM6           /*!< Extended line 6 */
  96:Drivers/STM32WBxx_HAL_Driver/Inc/stm32wbxx_ll_exti.h **** #define LL_EXTI_LINE_7                 EXTI_IMR1_IM7           /*!< Extended line 7 */
  97:Drivers/STM32WBxx_HAL_Driver/Inc/stm32wbxx_ll_exti.h **** #define LL_EXTI_LINE_8                 EXTI_IMR1_IM8           /*!< Extended line 8 */
  98:Drivers/STM32WBxx_HAL_Driver/Inc/stm32wbxx_ll_exti.h **** #define LL_EXTI_LINE_9                 EXTI_IMR1_IM9           /*!< Extended line 9 */
  99:Drivers/STM32WBxx_HAL_Driver/Inc/stm32wbxx_ll_exti.h **** #define LL_EXTI_LINE_10                EXTI_IMR1_IM10          /*!< Extended line 10 */
 100:Drivers/STM32WBxx_HAL_Driver/Inc/stm32wbxx_ll_exti.h **** #define LL_EXTI_LINE_11                EXTI_IMR1_IM11          /*!< Extended line 11 */
 101:Drivers/STM32WBxx_HAL_Driver/Inc/stm32wbxx_ll_exti.h **** #define LL_EXTI_LINE_12                EXTI_IMR1_IM12          /*!< Extended line 12 */
 102:Drivers/STM32WBxx_HAL_Driver/Inc/stm32wbxx_ll_exti.h **** #define LL_EXTI_LINE_13                EXTI_IMR1_IM13          /*!< Extended line 13 */
 103:Drivers/STM32WBxx_HAL_Driver/Inc/stm32wbxx_ll_exti.h **** #define LL_EXTI_LINE_14                EXTI_IMR1_IM14          /*!< Extended line 14 */
 104:Drivers/STM32WBxx_HAL_Driver/Inc/stm32wbxx_ll_exti.h **** #define LL_EXTI_LINE_15                EXTI_IMR1_IM15          /*!< Extended line 15 */
 105:Drivers/STM32WBxx_HAL_Driver/Inc/stm32wbxx_ll_exti.h **** #define LL_EXTI_LINE_16                EXTI_IMR1_IM16          /*!< Extended line 16 */
 106:Drivers/STM32WBxx_HAL_Driver/Inc/stm32wbxx_ll_exti.h **** #define LL_EXTI_LINE_17                EXTI_IMR1_IM17          /*!< Extended line 17 */
 107:Drivers/STM32WBxx_HAL_Driver/Inc/stm32wbxx_ll_exti.h **** #define LL_EXTI_LINE_18                EXTI_IMR1_IM18          /*!< Extended line 18 */
 108:Drivers/STM32WBxx_HAL_Driver/Inc/stm32wbxx_ll_exti.h **** #define LL_EXTI_LINE_19                EXTI_IMR1_IM19          /*!< Extended line 19 */
 109:Drivers/STM32WBxx_HAL_Driver/Inc/stm32wbxx_ll_exti.h **** #if defined (STM32WB55xx) || defined (STM32WB5Mxx) || defined (STM32WB35xx) || defined (STM32WB15xx
 110:Drivers/STM32WBxx_HAL_Driver/Inc/stm32wbxx_ll_exti.h **** #define LL_EXTI_LINE_20                EXTI_IMR1_IM20          /*!< Extended line 20 */
 111:Drivers/STM32WBxx_HAL_Driver/Inc/stm32wbxx_ll_exti.h **** #endif /* STM32WB55xx || STM32WB5Mxx || ... */
 112:Drivers/STM32WBxx_HAL_Driver/Inc/stm32wbxx_ll_exti.h **** #if defined (STM32WB55xx) || defined (STM32WB5Mxx) || defined (STM32WB35xx)
 113:Drivers/STM32WBxx_HAL_Driver/Inc/stm32wbxx_ll_exti.h **** #define LL_EXTI_LINE_21                EXTI_IMR1_IM21          /*!< Extended line 21 */
 114:Drivers/STM32WBxx_HAL_Driver/Inc/stm32wbxx_ll_exti.h **** #endif /* STM32WB55xx || STM32WB5Mxx || STM32WB35xx */
 115:Drivers/STM32WBxx_HAL_Driver/Inc/stm32wbxx_ll_exti.h **** #define LL_EXTI_LINE_22                EXTI_IMR1_IM22          /*!< Extended line 22 */
 116:Drivers/STM32WBxx_HAL_Driver/Inc/stm32wbxx_ll_exti.h **** #if defined (STM32WB55xx) || defined (STM32WB5Mxx) || defined (STM32WB35xx)
 117:Drivers/STM32WBxx_HAL_Driver/Inc/stm32wbxx_ll_exti.h **** #define LL_EXTI_LINE_23                EXTI_IMR1_IM23          /*!< Extended line 23 */
 118:Drivers/STM32WBxx_HAL_Driver/Inc/stm32wbxx_ll_exti.h **** #endif /* STM32WB55xx || STM32WB5Mxx || STM32WB35xx */
 119:Drivers/STM32WBxx_HAL_Driver/Inc/stm32wbxx_ll_exti.h **** #define LL_EXTI_LINE_24                EXTI_IMR1_IM24          /*!< Extended line 24 */
 120:Drivers/STM32WBxx_HAL_Driver/Inc/stm32wbxx_ll_exti.h **** #if defined (STM32WB55xx) || defined (STM32WB5Mxx) || defined (STM32WB35xx) || defined (STM32WB15xx
 121:Drivers/STM32WBxx_HAL_Driver/Inc/stm32wbxx_ll_exti.h **** #define LL_EXTI_LINE_25                EXTI_IMR1_IM25          /*!< Extended line 25 */
 122:Drivers/STM32WBxx_HAL_Driver/Inc/stm32wbxx_ll_exti.h **** #endif /* STM32WB55xx || STM32WB5Mxx || ... */
 123:Drivers/STM32WBxx_HAL_Driver/Inc/stm32wbxx_ll_exti.h **** #if defined (STM32WB55xx) || defined (STM32WB5Mxx) || defined (STM32WB35xx)
 124:Drivers/STM32WBxx_HAL_Driver/Inc/stm32wbxx_ll_exti.h **** #define LL_EXTI_LINE_28                EXTI_IMR1_IM28          /*!< Extended line 28 */
 125:Drivers/STM32WBxx_HAL_Driver/Inc/stm32wbxx_ll_exti.h **** #endif /* STM32WB55xx || STM32WB5Mxx || STM32WB35xx */
 126:Drivers/STM32WBxx_HAL_Driver/Inc/stm32wbxx_ll_exti.h **** #define LL_EXTI_LINE_29                EXTI_IMR1_IM29          /*!< Extended line 29 */
 127:Drivers/STM32WBxx_HAL_Driver/Inc/stm32wbxx_ll_exti.h **** #define LL_EXTI_LINE_30                EXTI_IMR1_IM30          /*!< Extended line 30 */
 128:Drivers/STM32WBxx_HAL_Driver/Inc/stm32wbxx_ll_exti.h **** #if defined (STM32WB55xx) || defined (STM32WB5Mxx) || defined (STM32WB35xx) || defined (STM32WB15xx
 129:Drivers/STM32WBxx_HAL_Driver/Inc/stm32wbxx_ll_exti.h **** #define LL_EXTI_LINE_31                EXTI_IMR1_IM31          /*!< Extended line 31 */
 130:Drivers/STM32WBxx_HAL_Driver/Inc/stm32wbxx_ll_exti.h **** #endif /* STM32WB55xx || STM32WB5Mxx || ... */
 131:Drivers/STM32WBxx_HAL_Driver/Inc/stm32wbxx_ll_exti.h **** 
 132:Drivers/STM32WBxx_HAL_Driver/Inc/stm32wbxx_ll_exti.h **** #if defined (STM32WB55xx) || defined (STM32WB5Mxx) || defined (STM32WB35xx)
 133:Drivers/STM32WBxx_HAL_Driver/Inc/stm32wbxx_ll_exti.h **** #define LL_EXTI_LINE_ALL_0_31          (LL_EXTI_LINE_0 | LL_EXTI_LINE_1 | LL_EXTI_LINE_2 | \
ARM GAS  C:\Users\Nathan\AppData\Local\Temp\ccvsgOlc.s 			page 75


 134:Drivers/STM32WBxx_HAL_Driver/Inc/stm32wbxx_ll_exti.h ****                                         LL_EXTI_LINE_3 | LL_EXTI_LINE_4 | LL_EXTI_LINE_5 | \
 135:Drivers/STM32WBxx_HAL_Driver/Inc/stm32wbxx_ll_exti.h ****                                         LL_EXTI_LINE_6 | LL_EXTI_LINE_7 | LL_EXTI_LINE_8 | \
 136:Drivers/STM32WBxx_HAL_Driver/Inc/stm32wbxx_ll_exti.h ****                                         LL_EXTI_LINE_9 | LL_EXTI_LINE_10 | LL_EXTI_LINE_11 | \
 137:Drivers/STM32WBxx_HAL_Driver/Inc/stm32wbxx_ll_exti.h ****                                         LL_EXTI_LINE_12 | LL_EXTI_LINE_13 | LL_EXTI_LINE_14 | \
 138:Drivers/STM32WBxx_HAL_Driver/Inc/stm32wbxx_ll_exti.h ****                                         LL_EXTI_LINE_15 | LL_EXTI_LINE_16 | LL_EXTI_LINE_17 | \
 139:Drivers/STM32WBxx_HAL_Driver/Inc/stm32wbxx_ll_exti.h ****                                         LL_EXTI_LINE_18 | LL_EXTI_LINE_19 | LL_EXTI_LINE_20 | \
 140:Drivers/STM32WBxx_HAL_Driver/Inc/stm32wbxx_ll_exti.h ****                                         LL_EXTI_LINE_21 | LL_EXTI_LINE_22 | LL_EXTI_LINE_23 | \
 141:Drivers/STM32WBxx_HAL_Driver/Inc/stm32wbxx_ll_exti.h ****                                         LL_EXTI_LINE_24 | LL_EXTI_LINE_25 | LL_EXTI_LINE_28 | \
 142:Drivers/STM32WBxx_HAL_Driver/Inc/stm32wbxx_ll_exti.h ****                                         LL_EXTI_LINE_29 | LL_EXTI_LINE_30 | LL_EXTI_LINE_31) /*!< A
 143:Drivers/STM32WBxx_HAL_Driver/Inc/stm32wbxx_ll_exti.h **** #elif defined (STM32WB15xx) || defined(STM32WB1Mxx)
 144:Drivers/STM32WBxx_HAL_Driver/Inc/stm32wbxx_ll_exti.h **** #define LL_EXTI_LINE_ALL_0_31          (LL_EXTI_LINE_0 | LL_EXTI_LINE_1 | LL_EXTI_LINE_2 | \
 145:Drivers/STM32WBxx_HAL_Driver/Inc/stm32wbxx_ll_exti.h ****                                         LL_EXTI_LINE_3 | LL_EXTI_LINE_4 | LL_EXTI_LINE_5 | \
 146:Drivers/STM32WBxx_HAL_Driver/Inc/stm32wbxx_ll_exti.h ****                                         LL_EXTI_LINE_6 | LL_EXTI_LINE_7 | LL_EXTI_LINE_8 | \
 147:Drivers/STM32WBxx_HAL_Driver/Inc/stm32wbxx_ll_exti.h ****                                         LL_EXTI_LINE_9 | LL_EXTI_LINE_10 | LL_EXTI_LINE_11 | \
 148:Drivers/STM32WBxx_HAL_Driver/Inc/stm32wbxx_ll_exti.h ****                                         LL_EXTI_LINE_12 | LL_EXTI_LINE_13 | LL_EXTI_LINE_14 | \
 149:Drivers/STM32WBxx_HAL_Driver/Inc/stm32wbxx_ll_exti.h ****                                         LL_EXTI_LINE_15 | LL_EXTI_LINE_16 | LL_EXTI_LINE_17 | \
 150:Drivers/STM32WBxx_HAL_Driver/Inc/stm32wbxx_ll_exti.h ****                                         LL_EXTI_LINE_18 | LL_EXTI_LINE_19 | LL_EXTI_LINE_20 | \
 151:Drivers/STM32WBxx_HAL_Driver/Inc/stm32wbxx_ll_exti.h ****                                         LL_EXTI_LINE_22 | LL_EXTI_LINE_24 | LL_EXTI_LINE_25 | \
 152:Drivers/STM32WBxx_HAL_Driver/Inc/stm32wbxx_ll_exti.h ****                                         LL_EXTI_LINE_29 | LL_EXTI_LINE_30 | LL_EXTI_LINE_31) /*!< A
 153:Drivers/STM32WBxx_HAL_Driver/Inc/stm32wbxx_ll_exti.h **** #else
 154:Drivers/STM32WBxx_HAL_Driver/Inc/stm32wbxx_ll_exti.h **** #define LL_EXTI_LINE_ALL_0_31          (LL_EXTI_LINE_0 | LL_EXTI_LINE_1 | LL_EXTI_LINE_2 | \
 155:Drivers/STM32WBxx_HAL_Driver/Inc/stm32wbxx_ll_exti.h ****                                         LL_EXTI_LINE_3 | LL_EXTI_LINE_4 | LL_EXTI_LINE_5 | \
 156:Drivers/STM32WBxx_HAL_Driver/Inc/stm32wbxx_ll_exti.h ****                                         LL_EXTI_LINE_6 | LL_EXTI_LINE_7 | LL_EXTI_LINE_8 | \
 157:Drivers/STM32WBxx_HAL_Driver/Inc/stm32wbxx_ll_exti.h ****                                         LL_EXTI_LINE_9 | LL_EXTI_LINE_10 | LL_EXTI_LINE_11 | \
 158:Drivers/STM32WBxx_HAL_Driver/Inc/stm32wbxx_ll_exti.h ****                                         LL_EXTI_LINE_12 | LL_EXTI_LINE_13 | LL_EXTI_LINE_14 | \
 159:Drivers/STM32WBxx_HAL_Driver/Inc/stm32wbxx_ll_exti.h ****                                         LL_EXTI_LINE_15 | LL_EXTI_LINE_16 | LL_EXTI_LINE_17 | \
 160:Drivers/STM32WBxx_HAL_Driver/Inc/stm32wbxx_ll_exti.h ****                                         LL_EXTI_LINE_18 | LL_EXTI_LINE_19 | LL_EXTI_LINE_22 | \
 161:Drivers/STM32WBxx_HAL_Driver/Inc/stm32wbxx_ll_exti.h ****                                         LL_EXTI_LINE_24 | LL_EXTI_LINE_29 | LL_EXTI_LINE_30) /*!< A
 162:Drivers/STM32WBxx_HAL_Driver/Inc/stm32wbxx_ll_exti.h **** #endif /* STM32WB55xx || STM32WB5Mxx || STM32WB35xx */
 163:Drivers/STM32WBxx_HAL_Driver/Inc/stm32wbxx_ll_exti.h **** 
 164:Drivers/STM32WBxx_HAL_Driver/Inc/stm32wbxx_ll_exti.h **** #define LL_EXTI_LINE_33                EXTI_IMR2_IM33          /*!< Extended line 33 */
 165:Drivers/STM32WBxx_HAL_Driver/Inc/stm32wbxx_ll_exti.h **** #define LL_EXTI_LINE_36                EXTI_IMR2_IM36          /*!< Extended line 36 */
 166:Drivers/STM32WBxx_HAL_Driver/Inc/stm32wbxx_ll_exti.h **** #define LL_EXTI_LINE_37                EXTI_IMR2_IM37          /*!< Extended line 37 */
 167:Drivers/STM32WBxx_HAL_Driver/Inc/stm32wbxx_ll_exti.h **** #define LL_EXTI_LINE_38                EXTI_IMR2_IM38          /*!< Extended line 38 */
 168:Drivers/STM32WBxx_HAL_Driver/Inc/stm32wbxx_ll_exti.h **** #define LL_EXTI_LINE_39                EXTI_IMR2_IM39          /*!< Extended line 39 */
 169:Drivers/STM32WBxx_HAL_Driver/Inc/stm32wbxx_ll_exti.h **** #define LL_EXTI_LINE_40                EXTI_IMR2_IM40          /*!< Extended line 40 */
 170:Drivers/STM32WBxx_HAL_Driver/Inc/stm32wbxx_ll_exti.h **** #define LL_EXTI_LINE_41                EXTI_IMR2_IM41          /*!< Extended line 41 */
 171:Drivers/STM32WBxx_HAL_Driver/Inc/stm32wbxx_ll_exti.h **** #define LL_EXTI_LINE_42                EXTI_IMR2_IM42          /*!< Extended line 42 */
 172:Drivers/STM32WBxx_HAL_Driver/Inc/stm32wbxx_ll_exti.h **** #if defined (STM32WB55xx) || defined (STM32WB5Mxx)
 173:Drivers/STM32WBxx_HAL_Driver/Inc/stm32wbxx_ll_exti.h **** #define LL_EXTI_LINE_43                EXTI_IMR2_IM43          /*!< Extended line 43 */
 174:Drivers/STM32WBxx_HAL_Driver/Inc/stm32wbxx_ll_exti.h **** #endif /* STM32WB55xx || STM32WB5Mxx */
 175:Drivers/STM32WBxx_HAL_Driver/Inc/stm32wbxx_ll_exti.h **** #define LL_EXTI_LINE_44                EXTI_IMR2_IM44          /*!< Extended line 44 */
 176:Drivers/STM32WBxx_HAL_Driver/Inc/stm32wbxx_ll_exti.h **** #define LL_EXTI_LINE_45                EXTI_IMR2_IM45          /*!< Extended line 45 */
 177:Drivers/STM32WBxx_HAL_Driver/Inc/stm32wbxx_ll_exti.h **** #if defined (STM32WB55xx) || defined (STM32WB5Mxx) || defined (STM32WB50xx) || defined (STM32WB35xx
 178:Drivers/STM32WBxx_HAL_Driver/Inc/stm32wbxx_ll_exti.h **** #define LL_EXTI_LINE_46                EXTI_IMR2_IM46          /*!< Extended line 46 */
 179:Drivers/STM32WBxx_HAL_Driver/Inc/stm32wbxx_ll_exti.h **** #endif /* STM32WB55xx || STM32WB5Mxx || ... */
 180:Drivers/STM32WBxx_HAL_Driver/Inc/stm32wbxx_ll_exti.h **** #define LL_EXTI_LINE_48                EXTI_IMR2_IM48          /*!< Extended line 48 */
 181:Drivers/STM32WBxx_HAL_Driver/Inc/stm32wbxx_ll_exti.h **** 
 182:Drivers/STM32WBxx_HAL_Driver/Inc/stm32wbxx_ll_exti.h **** #if defined (STM32WB55xx) || defined (STM32WB5Mxx)
 183:Drivers/STM32WBxx_HAL_Driver/Inc/stm32wbxx_ll_exti.h **** #define LL_EXTI_LINE_ALL_32_63         (LL_EXTI_LINE_33 | LL_EXTI_LINE_36 | LL_EXTI_LINE_37 | \
 184:Drivers/STM32WBxx_HAL_Driver/Inc/stm32wbxx_ll_exti.h ****                                         LL_EXTI_LINE_38 | LL_EXTI_LINE_39 | LL_EXTI_LINE_40 | \
 185:Drivers/STM32WBxx_HAL_Driver/Inc/stm32wbxx_ll_exti.h ****                                         LL_EXTI_LINE_41 | LL_EXTI_LINE_42 | LL_EXTI_LINE_43 | \
 186:Drivers/STM32WBxx_HAL_Driver/Inc/stm32wbxx_ll_exti.h ****                                         LL_EXTI_LINE_44 | LL_EXTI_LINE_45 | LL_EXTI_LINE_46 | \
 187:Drivers/STM32WBxx_HAL_Driver/Inc/stm32wbxx_ll_exti.h ****                                         LL_EXTI_LINE_48)                    /*!< All Extended line 
 188:Drivers/STM32WBxx_HAL_Driver/Inc/stm32wbxx_ll_exti.h **** #elif defined (STM32WB50xx) || defined (STM32WB35xx) || defined (STM32WB30xx)
 189:Drivers/STM32WBxx_HAL_Driver/Inc/stm32wbxx_ll_exti.h **** #define LL_EXTI_LINE_ALL_32_63         (LL_EXTI_LINE_33 | LL_EXTI_LINE_36 | LL_EXTI_LINE_37 | \
 190:Drivers/STM32WBxx_HAL_Driver/Inc/stm32wbxx_ll_exti.h ****                                         LL_EXTI_LINE_38 | LL_EXTI_LINE_39 | LL_EXTI_LINE_40 | \
ARM GAS  C:\Users\Nathan\AppData\Local\Temp\ccvsgOlc.s 			page 76


 191:Drivers/STM32WBxx_HAL_Driver/Inc/stm32wbxx_ll_exti.h ****                                         LL_EXTI_LINE_41 | LL_EXTI_LINE_42 | LL_EXTI_LINE_44 | \
 192:Drivers/STM32WBxx_HAL_Driver/Inc/stm32wbxx_ll_exti.h ****                                         LL_EXTI_LINE_45 | LL_EXTI_LINE_46 | LL_EXTI_LINE_48)  /*!< 
 193:Drivers/STM32WBxx_HAL_Driver/Inc/stm32wbxx_ll_exti.h **** #else
 194:Drivers/STM32WBxx_HAL_Driver/Inc/stm32wbxx_ll_exti.h **** #define LL_EXTI_LINE_ALL_32_63         (LL_EXTI_LINE_33 | LL_EXTI_LINE_36 | LL_EXTI_LINE_37 | \
 195:Drivers/STM32WBxx_HAL_Driver/Inc/stm32wbxx_ll_exti.h ****                                         LL_EXTI_LINE_38 | LL_EXTI_LINE_39 | LL_EXTI_LINE_40 | \
 196:Drivers/STM32WBxx_HAL_Driver/Inc/stm32wbxx_ll_exti.h ****                                         LL_EXTI_LINE_41 | LL_EXTI_LINE_42 | LL_EXTI_LINE_44 | \
 197:Drivers/STM32WBxx_HAL_Driver/Inc/stm32wbxx_ll_exti.h ****                                         LL_EXTI_LINE_45 | LL_EXTI_LINE_48)  /*!< All Extended line 
 198:Drivers/STM32WBxx_HAL_Driver/Inc/stm32wbxx_ll_exti.h **** #endif /* STM32WB55xx || STM32WB5Mxx */
 199:Drivers/STM32WBxx_HAL_Driver/Inc/stm32wbxx_ll_exti.h **** 
 200:Drivers/STM32WBxx_HAL_Driver/Inc/stm32wbxx_ll_exti.h **** 
 201:Drivers/STM32WBxx_HAL_Driver/Inc/stm32wbxx_ll_exti.h **** #define LL_EXTI_LINE_ALL               (0xFFFFFFFFU)  /*!< All Extended line */
 202:Drivers/STM32WBxx_HAL_Driver/Inc/stm32wbxx_ll_exti.h **** 
 203:Drivers/STM32WBxx_HAL_Driver/Inc/stm32wbxx_ll_exti.h **** #if defined(USE_FULL_LL_DRIVER)
 204:Drivers/STM32WBxx_HAL_Driver/Inc/stm32wbxx_ll_exti.h **** #define LL_EXTI_LINE_NONE              (0x00000000U)  /*!< None Extended line */
 205:Drivers/STM32WBxx_HAL_Driver/Inc/stm32wbxx_ll_exti.h **** #endif /*USE_FULL_LL_DRIVER*/
 206:Drivers/STM32WBxx_HAL_Driver/Inc/stm32wbxx_ll_exti.h **** 
 207:Drivers/STM32WBxx_HAL_Driver/Inc/stm32wbxx_ll_exti.h **** /**
 208:Drivers/STM32WBxx_HAL_Driver/Inc/stm32wbxx_ll_exti.h ****   * @}
 209:Drivers/STM32WBxx_HAL_Driver/Inc/stm32wbxx_ll_exti.h ****   */
 210:Drivers/STM32WBxx_HAL_Driver/Inc/stm32wbxx_ll_exti.h **** #if defined(USE_FULL_LL_DRIVER)
 211:Drivers/STM32WBxx_HAL_Driver/Inc/stm32wbxx_ll_exti.h **** 
 212:Drivers/STM32WBxx_HAL_Driver/Inc/stm32wbxx_ll_exti.h **** /** @defgroup EXTI_LL_EC_MODE Mode
 213:Drivers/STM32WBxx_HAL_Driver/Inc/stm32wbxx_ll_exti.h ****   * @{
 214:Drivers/STM32WBxx_HAL_Driver/Inc/stm32wbxx_ll_exti.h ****   */
 215:Drivers/STM32WBxx_HAL_Driver/Inc/stm32wbxx_ll_exti.h **** #define LL_EXTI_MODE_IT                 ((uint8_t)0x00U) /*!< Interrupt Mode */
 216:Drivers/STM32WBxx_HAL_Driver/Inc/stm32wbxx_ll_exti.h **** #define LL_EXTI_MODE_EVENT              ((uint8_t)0x01U) /*!< Event Mode */
 217:Drivers/STM32WBxx_HAL_Driver/Inc/stm32wbxx_ll_exti.h **** #define LL_EXTI_MODE_IT_EVENT           ((uint8_t)0x02U) /*!< Interrupt & Event Mode */
 218:Drivers/STM32WBxx_HAL_Driver/Inc/stm32wbxx_ll_exti.h **** /**
 219:Drivers/STM32WBxx_HAL_Driver/Inc/stm32wbxx_ll_exti.h ****   * @}
 220:Drivers/STM32WBxx_HAL_Driver/Inc/stm32wbxx_ll_exti.h ****   */
 221:Drivers/STM32WBxx_HAL_Driver/Inc/stm32wbxx_ll_exti.h **** 
 222:Drivers/STM32WBxx_HAL_Driver/Inc/stm32wbxx_ll_exti.h **** /** @defgroup EXTI_LL_EC_TRIGGER Edge Trigger
 223:Drivers/STM32WBxx_HAL_Driver/Inc/stm32wbxx_ll_exti.h ****   * @{
 224:Drivers/STM32WBxx_HAL_Driver/Inc/stm32wbxx_ll_exti.h ****   */
 225:Drivers/STM32WBxx_HAL_Driver/Inc/stm32wbxx_ll_exti.h **** #define LL_EXTI_TRIGGER_NONE            ((uint8_t)0x00U) /*!< No Trigger Mode */
 226:Drivers/STM32WBxx_HAL_Driver/Inc/stm32wbxx_ll_exti.h **** #define LL_EXTI_TRIGGER_RISING          ((uint8_t)0x01U) /*!< Trigger Rising Mode */
 227:Drivers/STM32WBxx_HAL_Driver/Inc/stm32wbxx_ll_exti.h **** #define LL_EXTI_TRIGGER_FALLING         ((uint8_t)0x02U) /*!< Trigger Falling Mode */
 228:Drivers/STM32WBxx_HAL_Driver/Inc/stm32wbxx_ll_exti.h **** #define LL_EXTI_TRIGGER_RISING_FALLING  ((uint8_t)0x03U) /*!< Trigger Rising & Falling Mode */
 229:Drivers/STM32WBxx_HAL_Driver/Inc/stm32wbxx_ll_exti.h **** 
 230:Drivers/STM32WBxx_HAL_Driver/Inc/stm32wbxx_ll_exti.h **** /**
 231:Drivers/STM32WBxx_HAL_Driver/Inc/stm32wbxx_ll_exti.h ****   * @}
 232:Drivers/STM32WBxx_HAL_Driver/Inc/stm32wbxx_ll_exti.h ****   */
 233:Drivers/STM32WBxx_HAL_Driver/Inc/stm32wbxx_ll_exti.h **** 
 234:Drivers/STM32WBxx_HAL_Driver/Inc/stm32wbxx_ll_exti.h **** 
 235:Drivers/STM32WBxx_HAL_Driver/Inc/stm32wbxx_ll_exti.h **** #endif /*USE_FULL_LL_DRIVER*/
 236:Drivers/STM32WBxx_HAL_Driver/Inc/stm32wbxx_ll_exti.h **** 
 237:Drivers/STM32WBxx_HAL_Driver/Inc/stm32wbxx_ll_exti.h **** 
 238:Drivers/STM32WBxx_HAL_Driver/Inc/stm32wbxx_ll_exti.h **** /**
 239:Drivers/STM32WBxx_HAL_Driver/Inc/stm32wbxx_ll_exti.h ****   * @}
 240:Drivers/STM32WBxx_HAL_Driver/Inc/stm32wbxx_ll_exti.h ****   */
 241:Drivers/STM32WBxx_HAL_Driver/Inc/stm32wbxx_ll_exti.h **** 
 242:Drivers/STM32WBxx_HAL_Driver/Inc/stm32wbxx_ll_exti.h **** /* Exported macro ------------------------------------------------------------*/
 243:Drivers/STM32WBxx_HAL_Driver/Inc/stm32wbxx_ll_exti.h **** /** @defgroup EXTI_LL_Exported_Macros EXTI Exported Macros
 244:Drivers/STM32WBxx_HAL_Driver/Inc/stm32wbxx_ll_exti.h ****   * @{
 245:Drivers/STM32WBxx_HAL_Driver/Inc/stm32wbxx_ll_exti.h ****   */
 246:Drivers/STM32WBxx_HAL_Driver/Inc/stm32wbxx_ll_exti.h **** 
 247:Drivers/STM32WBxx_HAL_Driver/Inc/stm32wbxx_ll_exti.h **** /** @defgroup EXTI_LL_EM_WRITE_READ Common Write and read registers Macros
ARM GAS  C:\Users\Nathan\AppData\Local\Temp\ccvsgOlc.s 			page 77


 248:Drivers/STM32WBxx_HAL_Driver/Inc/stm32wbxx_ll_exti.h ****   * @{
 249:Drivers/STM32WBxx_HAL_Driver/Inc/stm32wbxx_ll_exti.h ****   */
 250:Drivers/STM32WBxx_HAL_Driver/Inc/stm32wbxx_ll_exti.h **** 
 251:Drivers/STM32WBxx_HAL_Driver/Inc/stm32wbxx_ll_exti.h **** /**
 252:Drivers/STM32WBxx_HAL_Driver/Inc/stm32wbxx_ll_exti.h ****   * @brief  Write a value in EXTI register
 253:Drivers/STM32WBxx_HAL_Driver/Inc/stm32wbxx_ll_exti.h ****   * @param  __REG__ Register to be written
 254:Drivers/STM32WBxx_HAL_Driver/Inc/stm32wbxx_ll_exti.h ****   * @param  __VALUE__ Value to be written in the register
 255:Drivers/STM32WBxx_HAL_Driver/Inc/stm32wbxx_ll_exti.h ****   * @retval None
 256:Drivers/STM32WBxx_HAL_Driver/Inc/stm32wbxx_ll_exti.h ****   */
 257:Drivers/STM32WBxx_HAL_Driver/Inc/stm32wbxx_ll_exti.h **** #define LL_EXTI_WriteReg(__REG__, __VALUE__) WRITE_REG(EXTI->__REG__, (__VALUE__))
 258:Drivers/STM32WBxx_HAL_Driver/Inc/stm32wbxx_ll_exti.h **** 
 259:Drivers/STM32WBxx_HAL_Driver/Inc/stm32wbxx_ll_exti.h **** /**
 260:Drivers/STM32WBxx_HAL_Driver/Inc/stm32wbxx_ll_exti.h ****   * @brief  Read a value in EXTI register
 261:Drivers/STM32WBxx_HAL_Driver/Inc/stm32wbxx_ll_exti.h ****   * @param  __REG__ Register to be read
 262:Drivers/STM32WBxx_HAL_Driver/Inc/stm32wbxx_ll_exti.h ****   * @retval Register value
 263:Drivers/STM32WBxx_HAL_Driver/Inc/stm32wbxx_ll_exti.h ****   */
 264:Drivers/STM32WBxx_HAL_Driver/Inc/stm32wbxx_ll_exti.h **** #define LL_EXTI_ReadReg(__REG__) READ_REG(EXTI->__REG__)
 265:Drivers/STM32WBxx_HAL_Driver/Inc/stm32wbxx_ll_exti.h **** /**
 266:Drivers/STM32WBxx_HAL_Driver/Inc/stm32wbxx_ll_exti.h ****   * @}
 267:Drivers/STM32WBxx_HAL_Driver/Inc/stm32wbxx_ll_exti.h ****   */
 268:Drivers/STM32WBxx_HAL_Driver/Inc/stm32wbxx_ll_exti.h **** 
 269:Drivers/STM32WBxx_HAL_Driver/Inc/stm32wbxx_ll_exti.h **** 
 270:Drivers/STM32WBxx_HAL_Driver/Inc/stm32wbxx_ll_exti.h **** /**
 271:Drivers/STM32WBxx_HAL_Driver/Inc/stm32wbxx_ll_exti.h ****   * @}
 272:Drivers/STM32WBxx_HAL_Driver/Inc/stm32wbxx_ll_exti.h ****   */
 273:Drivers/STM32WBxx_HAL_Driver/Inc/stm32wbxx_ll_exti.h **** 
 274:Drivers/STM32WBxx_HAL_Driver/Inc/stm32wbxx_ll_exti.h **** 
 275:Drivers/STM32WBxx_HAL_Driver/Inc/stm32wbxx_ll_exti.h **** 
 276:Drivers/STM32WBxx_HAL_Driver/Inc/stm32wbxx_ll_exti.h **** /* Exported functions --------------------------------------------------------*/
 277:Drivers/STM32WBxx_HAL_Driver/Inc/stm32wbxx_ll_exti.h **** /** @defgroup EXTI_LL_Exported_Functions EXTI Exported Functions
 278:Drivers/STM32WBxx_HAL_Driver/Inc/stm32wbxx_ll_exti.h ****   * @{
 279:Drivers/STM32WBxx_HAL_Driver/Inc/stm32wbxx_ll_exti.h ****   */
 280:Drivers/STM32WBxx_HAL_Driver/Inc/stm32wbxx_ll_exti.h **** /** @defgroup EXTI_LL_EF_IT_Management IT_Management
 281:Drivers/STM32WBxx_HAL_Driver/Inc/stm32wbxx_ll_exti.h ****   * @{
 282:Drivers/STM32WBxx_HAL_Driver/Inc/stm32wbxx_ll_exti.h ****   */
 283:Drivers/STM32WBxx_HAL_Driver/Inc/stm32wbxx_ll_exti.h **** 
 284:Drivers/STM32WBxx_HAL_Driver/Inc/stm32wbxx_ll_exti.h **** /**
 285:Drivers/STM32WBxx_HAL_Driver/Inc/stm32wbxx_ll_exti.h ****   * @brief  Enable ExtiLine Interrupt request for Lines in range 0 to 31
 286:Drivers/STM32WBxx_HAL_Driver/Inc/stm32wbxx_ll_exti.h ****   * @rmtoll IMR1         IMx           LL_EXTI_EnableIT_0_31
 287:Drivers/STM32WBxx_HAL_Driver/Inc/stm32wbxx_ll_exti.h ****   * @param  ExtiLine This parameter can be a combination of the following values:
 288:Drivers/STM32WBxx_HAL_Driver/Inc/stm32wbxx_ll_exti.h ****   *         @arg @ref LL_EXTI_LINE_0
 289:Drivers/STM32WBxx_HAL_Driver/Inc/stm32wbxx_ll_exti.h ****   *         @arg @ref LL_EXTI_LINE_1
 290:Drivers/STM32WBxx_HAL_Driver/Inc/stm32wbxx_ll_exti.h ****   *         @arg @ref LL_EXTI_LINE_2
 291:Drivers/STM32WBxx_HAL_Driver/Inc/stm32wbxx_ll_exti.h ****   *         @arg @ref LL_EXTI_LINE_3
 292:Drivers/STM32WBxx_HAL_Driver/Inc/stm32wbxx_ll_exti.h ****   *         @arg @ref LL_EXTI_LINE_4
 293:Drivers/STM32WBxx_HAL_Driver/Inc/stm32wbxx_ll_exti.h ****   *         @arg @ref LL_EXTI_LINE_5
 294:Drivers/STM32WBxx_HAL_Driver/Inc/stm32wbxx_ll_exti.h ****   *         @arg @ref LL_EXTI_LINE_6
 295:Drivers/STM32WBxx_HAL_Driver/Inc/stm32wbxx_ll_exti.h ****   *         @arg @ref LL_EXTI_LINE_7
 296:Drivers/STM32WBxx_HAL_Driver/Inc/stm32wbxx_ll_exti.h ****   *         @arg @ref LL_EXTI_LINE_8
 297:Drivers/STM32WBxx_HAL_Driver/Inc/stm32wbxx_ll_exti.h ****   *         @arg @ref LL_EXTI_LINE_9
 298:Drivers/STM32WBxx_HAL_Driver/Inc/stm32wbxx_ll_exti.h ****   *         @arg @ref LL_EXTI_LINE_10
 299:Drivers/STM32WBxx_HAL_Driver/Inc/stm32wbxx_ll_exti.h ****   *         @arg @ref LL_EXTI_LINE_11
 300:Drivers/STM32WBxx_HAL_Driver/Inc/stm32wbxx_ll_exti.h ****   *         @arg @ref LL_EXTI_LINE_12
 301:Drivers/STM32WBxx_HAL_Driver/Inc/stm32wbxx_ll_exti.h ****   *         @arg @ref LL_EXTI_LINE_13
 302:Drivers/STM32WBxx_HAL_Driver/Inc/stm32wbxx_ll_exti.h ****   *         @arg @ref LL_EXTI_LINE_14
 303:Drivers/STM32WBxx_HAL_Driver/Inc/stm32wbxx_ll_exti.h ****   *         @arg @ref LL_EXTI_LINE_15
 304:Drivers/STM32WBxx_HAL_Driver/Inc/stm32wbxx_ll_exti.h ****   *         @arg @ref LL_EXTI_LINE_16
ARM GAS  C:\Users\Nathan\AppData\Local\Temp\ccvsgOlc.s 			page 78


 305:Drivers/STM32WBxx_HAL_Driver/Inc/stm32wbxx_ll_exti.h ****   *         @arg @ref LL_EXTI_LINE_17
 306:Drivers/STM32WBxx_HAL_Driver/Inc/stm32wbxx_ll_exti.h ****   *         @arg @ref LL_EXTI_LINE_18
 307:Drivers/STM32WBxx_HAL_Driver/Inc/stm32wbxx_ll_exti.h ****   *         @arg @ref LL_EXTI_LINE_19
 308:Drivers/STM32WBxx_HAL_Driver/Inc/stm32wbxx_ll_exti.h ****   *         @arg @ref LL_EXTI_LINE_20 (*)
 309:Drivers/STM32WBxx_HAL_Driver/Inc/stm32wbxx_ll_exti.h ****   *         @arg @ref LL_EXTI_LINE_21 (*)
 310:Drivers/STM32WBxx_HAL_Driver/Inc/stm32wbxx_ll_exti.h ****   *         @arg @ref LL_EXTI_LINE_22
 311:Drivers/STM32WBxx_HAL_Driver/Inc/stm32wbxx_ll_exti.h ****   *         @arg @ref LL_EXTI_LINE_23 (*)
 312:Drivers/STM32WBxx_HAL_Driver/Inc/stm32wbxx_ll_exti.h ****   *         @arg @ref LL_EXTI_LINE_24
 313:Drivers/STM32WBxx_HAL_Driver/Inc/stm32wbxx_ll_exti.h ****   *         @arg @ref LL_EXTI_LINE_25 (*)
 314:Drivers/STM32WBxx_HAL_Driver/Inc/stm32wbxx_ll_exti.h ****   *         @arg @ref LL_EXTI_LINE_28 (*)
 315:Drivers/STM32WBxx_HAL_Driver/Inc/stm32wbxx_ll_exti.h ****   *         @arg @ref LL_EXTI_LINE_29
 316:Drivers/STM32WBxx_HAL_Driver/Inc/stm32wbxx_ll_exti.h ****   *         @arg @ref LL_EXTI_LINE_30
 317:Drivers/STM32WBxx_HAL_Driver/Inc/stm32wbxx_ll_exti.h ****   *         @arg @ref LL_EXTI_LINE_31 (*)
 318:Drivers/STM32WBxx_HAL_Driver/Inc/stm32wbxx_ll_exti.h ****   *         @arg @ref LL_EXTI_LINE_ALL_0_31
 319:Drivers/STM32WBxx_HAL_Driver/Inc/stm32wbxx_ll_exti.h ****   *         (*) value not defined in all devices
 320:Drivers/STM32WBxx_HAL_Driver/Inc/stm32wbxx_ll_exti.h ****   * @retval None
 321:Drivers/STM32WBxx_HAL_Driver/Inc/stm32wbxx_ll_exti.h ****   */
 322:Drivers/STM32WBxx_HAL_Driver/Inc/stm32wbxx_ll_exti.h **** __STATIC_INLINE void LL_EXTI_EnableIT_0_31(uint32_t ExtiLine)
 323:Drivers/STM32WBxx_HAL_Driver/Inc/stm32wbxx_ll_exti.h **** {
 324:Drivers/STM32WBxx_HAL_Driver/Inc/stm32wbxx_ll_exti.h ****   SET_BIT(EXTI->IMR1, ExtiLine);
 325:Drivers/STM32WBxx_HAL_Driver/Inc/stm32wbxx_ll_exti.h **** }
 326:Drivers/STM32WBxx_HAL_Driver/Inc/stm32wbxx_ll_exti.h **** 
 327:Drivers/STM32WBxx_HAL_Driver/Inc/stm32wbxx_ll_exti.h **** /**
 328:Drivers/STM32WBxx_HAL_Driver/Inc/stm32wbxx_ll_exti.h ****   * @brief  Enable ExtiLine Interrupt request for Lines in range 0 to 31 for cpu2
 329:Drivers/STM32WBxx_HAL_Driver/Inc/stm32wbxx_ll_exti.h ****   * @rmtoll C2IMR1         IMx           LL_C2_EXTI_EnableIT_0_31
 330:Drivers/STM32WBxx_HAL_Driver/Inc/stm32wbxx_ll_exti.h ****   * @param  ExtiLine This parameter can be a combination of the following values:
 331:Drivers/STM32WBxx_HAL_Driver/Inc/stm32wbxx_ll_exti.h ****   *         @arg @ref LL_EXTI_LINE_0
 332:Drivers/STM32WBxx_HAL_Driver/Inc/stm32wbxx_ll_exti.h ****   *         @arg @ref LL_EXTI_LINE_1
 333:Drivers/STM32WBxx_HAL_Driver/Inc/stm32wbxx_ll_exti.h ****   *         @arg @ref LL_EXTI_LINE_2
 334:Drivers/STM32WBxx_HAL_Driver/Inc/stm32wbxx_ll_exti.h ****   *         @arg @ref LL_EXTI_LINE_3
 335:Drivers/STM32WBxx_HAL_Driver/Inc/stm32wbxx_ll_exti.h ****   *         @arg @ref LL_EXTI_LINE_4
 336:Drivers/STM32WBxx_HAL_Driver/Inc/stm32wbxx_ll_exti.h ****   *         @arg @ref LL_EXTI_LINE_5
 337:Drivers/STM32WBxx_HAL_Driver/Inc/stm32wbxx_ll_exti.h ****   *         @arg @ref LL_EXTI_LINE_6
 338:Drivers/STM32WBxx_HAL_Driver/Inc/stm32wbxx_ll_exti.h ****   *         @arg @ref LL_EXTI_LINE_7
 339:Drivers/STM32WBxx_HAL_Driver/Inc/stm32wbxx_ll_exti.h ****   *         @arg @ref LL_EXTI_LINE_8
 340:Drivers/STM32WBxx_HAL_Driver/Inc/stm32wbxx_ll_exti.h ****   *         @arg @ref LL_EXTI_LINE_9
 341:Drivers/STM32WBxx_HAL_Driver/Inc/stm32wbxx_ll_exti.h ****   *         @arg @ref LL_EXTI_LINE_10
 342:Drivers/STM32WBxx_HAL_Driver/Inc/stm32wbxx_ll_exti.h ****   *         @arg @ref LL_EXTI_LINE_11
 343:Drivers/STM32WBxx_HAL_Driver/Inc/stm32wbxx_ll_exti.h ****   *         @arg @ref LL_EXTI_LINE_12
 344:Drivers/STM32WBxx_HAL_Driver/Inc/stm32wbxx_ll_exti.h ****   *         @arg @ref LL_EXTI_LINE_13
 345:Drivers/STM32WBxx_HAL_Driver/Inc/stm32wbxx_ll_exti.h ****   *         @arg @ref LL_EXTI_LINE_14
 346:Drivers/STM32WBxx_HAL_Driver/Inc/stm32wbxx_ll_exti.h ****   *         @arg @ref LL_EXTI_LINE_15
 347:Drivers/STM32WBxx_HAL_Driver/Inc/stm32wbxx_ll_exti.h ****   *         @arg @ref LL_EXTI_LINE_16
 348:Drivers/STM32WBxx_HAL_Driver/Inc/stm32wbxx_ll_exti.h ****   *         @arg @ref LL_EXTI_LINE_17
 349:Drivers/STM32WBxx_HAL_Driver/Inc/stm32wbxx_ll_exti.h ****   *         @arg @ref LL_EXTI_LINE_18
 350:Drivers/STM32WBxx_HAL_Driver/Inc/stm32wbxx_ll_exti.h ****   *         @arg @ref LL_EXTI_LINE_19
 351:Drivers/STM32WBxx_HAL_Driver/Inc/stm32wbxx_ll_exti.h ****   *         @arg @ref LL_EXTI_LINE_20 (*)
 352:Drivers/STM32WBxx_HAL_Driver/Inc/stm32wbxx_ll_exti.h ****   *         @arg @ref LL_EXTI_LINE_21 (*)
 353:Drivers/STM32WBxx_HAL_Driver/Inc/stm32wbxx_ll_exti.h ****   *         @arg @ref LL_EXTI_LINE_22
 354:Drivers/STM32WBxx_HAL_Driver/Inc/stm32wbxx_ll_exti.h ****   *         @arg @ref LL_EXTI_LINE_23 (*)
 355:Drivers/STM32WBxx_HAL_Driver/Inc/stm32wbxx_ll_exti.h ****   *         @arg @ref LL_EXTI_LINE_24
 356:Drivers/STM32WBxx_HAL_Driver/Inc/stm32wbxx_ll_exti.h ****   *         @arg @ref LL_EXTI_LINE_25 (*)
 357:Drivers/STM32WBxx_HAL_Driver/Inc/stm32wbxx_ll_exti.h ****   *         @arg @ref LL_EXTI_LINE_28 (*)
 358:Drivers/STM32WBxx_HAL_Driver/Inc/stm32wbxx_ll_exti.h ****   *         @arg @ref LL_EXTI_LINE_29
 359:Drivers/STM32WBxx_HAL_Driver/Inc/stm32wbxx_ll_exti.h ****   *         @arg @ref LL_EXTI_LINE_30
 360:Drivers/STM32WBxx_HAL_Driver/Inc/stm32wbxx_ll_exti.h ****   *         @arg @ref LL_EXTI_LINE_31 (*)
 361:Drivers/STM32WBxx_HAL_Driver/Inc/stm32wbxx_ll_exti.h ****   *         @arg @ref LL_EXTI_LINE_ALL_0_31
ARM GAS  C:\Users\Nathan\AppData\Local\Temp\ccvsgOlc.s 			page 79


 362:Drivers/STM32WBxx_HAL_Driver/Inc/stm32wbxx_ll_exti.h ****   *         (*) value not defined in all devices
 363:Drivers/STM32WBxx_HAL_Driver/Inc/stm32wbxx_ll_exti.h ****   * @retval None
 364:Drivers/STM32WBxx_HAL_Driver/Inc/stm32wbxx_ll_exti.h ****   */
 365:Drivers/STM32WBxx_HAL_Driver/Inc/stm32wbxx_ll_exti.h **** __STATIC_INLINE void LL_C2_EXTI_EnableIT_0_31(uint32_t ExtiLine)
 366:Drivers/STM32WBxx_HAL_Driver/Inc/stm32wbxx_ll_exti.h **** {
 367:Drivers/STM32WBxx_HAL_Driver/Inc/stm32wbxx_ll_exti.h ****   SET_BIT(EXTI->C2IMR1, ExtiLine);
 368:Drivers/STM32WBxx_HAL_Driver/Inc/stm32wbxx_ll_exti.h **** }
 369:Drivers/STM32WBxx_HAL_Driver/Inc/stm32wbxx_ll_exti.h **** 
 370:Drivers/STM32WBxx_HAL_Driver/Inc/stm32wbxx_ll_exti.h **** /**
 371:Drivers/STM32WBxx_HAL_Driver/Inc/stm32wbxx_ll_exti.h ****   * @brief  Enable ExtiLine Interrupt request for Lines in range 32 to 63
 372:Drivers/STM32WBxx_HAL_Driver/Inc/stm32wbxx_ll_exti.h ****   * @rmtoll IMR2         IMx           LL_EXTI_EnableIT_32_63
 373:Drivers/STM32WBxx_HAL_Driver/Inc/stm32wbxx_ll_exti.h ****   * @param  ExtiLine This parameter can be a combination of the following values:
 374:Drivers/STM32WBxx_HAL_Driver/Inc/stm32wbxx_ll_exti.h ****   *         @arg @ref LL_EXTI_LINE_33
 375:Drivers/STM32WBxx_HAL_Driver/Inc/stm32wbxx_ll_exti.h ****   *         @arg @ref LL_EXTI_LINE_36
 376:Drivers/STM32WBxx_HAL_Driver/Inc/stm32wbxx_ll_exti.h ****   *         @arg @ref LL_EXTI_LINE_37
 377:Drivers/STM32WBxx_HAL_Driver/Inc/stm32wbxx_ll_exti.h ****   *         @arg @ref LL_EXTI_LINE_38
 378:Drivers/STM32WBxx_HAL_Driver/Inc/stm32wbxx_ll_exti.h ****   *         @arg @ref LL_EXTI_LINE_39
 379:Drivers/STM32WBxx_HAL_Driver/Inc/stm32wbxx_ll_exti.h ****   *         @arg @ref LL_EXTI_LINE_40
 380:Drivers/STM32WBxx_HAL_Driver/Inc/stm32wbxx_ll_exti.h ****   *         @arg @ref LL_EXTI_LINE_41
 381:Drivers/STM32WBxx_HAL_Driver/Inc/stm32wbxx_ll_exti.h ****   *         @arg @ref LL_EXTI_LINE_42
 382:Drivers/STM32WBxx_HAL_Driver/Inc/stm32wbxx_ll_exti.h ****   *         @arg @ref LL_EXTI_LINE_43 (*)
 383:Drivers/STM32WBxx_HAL_Driver/Inc/stm32wbxx_ll_exti.h ****   *         @arg @ref LL_EXTI_LINE_44
 384:Drivers/STM32WBxx_HAL_Driver/Inc/stm32wbxx_ll_exti.h ****   *         @arg @ref LL_EXTI_LINE_45
 385:Drivers/STM32WBxx_HAL_Driver/Inc/stm32wbxx_ll_exti.h ****   *         @arg @ref LL_EXTI_LINE_46 (*)
 386:Drivers/STM32WBxx_HAL_Driver/Inc/stm32wbxx_ll_exti.h ****   *         @arg @ref LL_EXTI_LINE_48
 387:Drivers/STM32WBxx_HAL_Driver/Inc/stm32wbxx_ll_exti.h ****   *         @arg @ref LL_EXTI_LINE_ALL_32_63
 388:Drivers/STM32WBxx_HAL_Driver/Inc/stm32wbxx_ll_exti.h ****   *         (*) value not defined in all devices
 389:Drivers/STM32WBxx_HAL_Driver/Inc/stm32wbxx_ll_exti.h ****   * @retval None
 390:Drivers/STM32WBxx_HAL_Driver/Inc/stm32wbxx_ll_exti.h ****   */
 391:Drivers/STM32WBxx_HAL_Driver/Inc/stm32wbxx_ll_exti.h **** __STATIC_INLINE void LL_EXTI_EnableIT_32_63(uint32_t ExtiLine)
 392:Drivers/STM32WBxx_HAL_Driver/Inc/stm32wbxx_ll_exti.h **** {
 393:Drivers/STM32WBxx_HAL_Driver/Inc/stm32wbxx_ll_exti.h ****   SET_BIT(EXTI->IMR2, ExtiLine);
 394:Drivers/STM32WBxx_HAL_Driver/Inc/stm32wbxx_ll_exti.h **** }
 395:Drivers/STM32WBxx_HAL_Driver/Inc/stm32wbxx_ll_exti.h **** 
 396:Drivers/STM32WBxx_HAL_Driver/Inc/stm32wbxx_ll_exti.h **** /**
 397:Drivers/STM32WBxx_HAL_Driver/Inc/stm32wbxx_ll_exti.h ****   * @brief  Enable ExtiLine Interrupt request for Lines in range 32 to 63 for cpu2
 398:Drivers/STM32WBxx_HAL_Driver/Inc/stm32wbxx_ll_exti.h ****   * @rmtoll C2IMR2         IMx           LL_C2_EXTI_EnableIT_32_63
 399:Drivers/STM32WBxx_HAL_Driver/Inc/stm32wbxx_ll_exti.h ****   * @param  ExtiLine This parameter can be a combination of the following values:
 400:Drivers/STM32WBxx_HAL_Driver/Inc/stm32wbxx_ll_exti.h ****   *         @arg @ref LL_EXTI_LINE_33
 401:Drivers/STM32WBxx_HAL_Driver/Inc/stm32wbxx_ll_exti.h ****   *         @arg @ref LL_EXTI_LINE_36
 402:Drivers/STM32WBxx_HAL_Driver/Inc/stm32wbxx_ll_exti.h ****   *         @arg @ref LL_EXTI_LINE_37
 403:Drivers/STM32WBxx_HAL_Driver/Inc/stm32wbxx_ll_exti.h ****   *         @arg @ref LL_EXTI_LINE_38
 404:Drivers/STM32WBxx_HAL_Driver/Inc/stm32wbxx_ll_exti.h ****   *         @arg @ref LL_EXTI_LINE_39
 405:Drivers/STM32WBxx_HAL_Driver/Inc/stm32wbxx_ll_exti.h ****   *         @arg @ref LL_EXTI_LINE_40
 406:Drivers/STM32WBxx_HAL_Driver/Inc/stm32wbxx_ll_exti.h ****   *         @arg @ref LL_EXTI_LINE_41
 407:Drivers/STM32WBxx_HAL_Driver/Inc/stm32wbxx_ll_exti.h ****   *         @arg @ref LL_EXTI_LINE_42
 408:Drivers/STM32WBxx_HAL_Driver/Inc/stm32wbxx_ll_exti.h ****   *         @arg @ref LL_EXTI_LINE_43 (*)
 409:Drivers/STM32WBxx_HAL_Driver/Inc/stm32wbxx_ll_exti.h ****   *         @arg @ref LL_EXTI_LINE_44
 410:Drivers/STM32WBxx_HAL_Driver/Inc/stm32wbxx_ll_exti.h ****   *         @arg @ref LL_EXTI_LINE_45
 411:Drivers/STM32WBxx_HAL_Driver/Inc/stm32wbxx_ll_exti.h ****   *         @arg @ref LL_EXTI_LINE_46 (*)
 412:Drivers/STM32WBxx_HAL_Driver/Inc/stm32wbxx_ll_exti.h ****   *         @arg @ref LL_EXTI_LINE_48
 413:Drivers/STM32WBxx_HAL_Driver/Inc/stm32wbxx_ll_exti.h ****   *         @arg @ref LL_EXTI_LINE_ALL_32_63
 414:Drivers/STM32WBxx_HAL_Driver/Inc/stm32wbxx_ll_exti.h ****   *         (*) value not defined in all devices
 415:Drivers/STM32WBxx_HAL_Driver/Inc/stm32wbxx_ll_exti.h ****   * @retval None
 416:Drivers/STM32WBxx_HAL_Driver/Inc/stm32wbxx_ll_exti.h ****   */
 417:Drivers/STM32WBxx_HAL_Driver/Inc/stm32wbxx_ll_exti.h **** __STATIC_INLINE void LL_C2_EXTI_EnableIT_32_63(uint32_t ExtiLine)
 418:Drivers/STM32WBxx_HAL_Driver/Inc/stm32wbxx_ll_exti.h **** {
ARM GAS  C:\Users\Nathan\AppData\Local\Temp\ccvsgOlc.s 			page 80


 419:Drivers/STM32WBxx_HAL_Driver/Inc/stm32wbxx_ll_exti.h ****   SET_BIT(EXTI->C2IMR2, ExtiLine);
 420:Drivers/STM32WBxx_HAL_Driver/Inc/stm32wbxx_ll_exti.h **** }
 421:Drivers/STM32WBxx_HAL_Driver/Inc/stm32wbxx_ll_exti.h **** 
 422:Drivers/STM32WBxx_HAL_Driver/Inc/stm32wbxx_ll_exti.h **** /**
 423:Drivers/STM32WBxx_HAL_Driver/Inc/stm32wbxx_ll_exti.h ****   * @brief  Disable ExtiLine Interrupt request for Lines in range 0 to 31
 424:Drivers/STM32WBxx_HAL_Driver/Inc/stm32wbxx_ll_exti.h ****   * @rmtoll IMR1         IMx           LL_EXTI_DisableIT_0_31
 425:Drivers/STM32WBxx_HAL_Driver/Inc/stm32wbxx_ll_exti.h ****   * @param  ExtiLine This parameter can be a combination of the following values:
 426:Drivers/STM32WBxx_HAL_Driver/Inc/stm32wbxx_ll_exti.h ****   *         @arg @ref LL_EXTI_LINE_0
 427:Drivers/STM32WBxx_HAL_Driver/Inc/stm32wbxx_ll_exti.h ****   *         @arg @ref LL_EXTI_LINE_1
 428:Drivers/STM32WBxx_HAL_Driver/Inc/stm32wbxx_ll_exti.h ****   *         @arg @ref LL_EXTI_LINE_2
 429:Drivers/STM32WBxx_HAL_Driver/Inc/stm32wbxx_ll_exti.h ****   *         @arg @ref LL_EXTI_LINE_3
 430:Drivers/STM32WBxx_HAL_Driver/Inc/stm32wbxx_ll_exti.h ****   *         @arg @ref LL_EXTI_LINE_4
 431:Drivers/STM32WBxx_HAL_Driver/Inc/stm32wbxx_ll_exti.h ****   *         @arg @ref LL_EXTI_LINE_5
 432:Drivers/STM32WBxx_HAL_Driver/Inc/stm32wbxx_ll_exti.h ****   *         @arg @ref LL_EXTI_LINE_6
 433:Drivers/STM32WBxx_HAL_Driver/Inc/stm32wbxx_ll_exti.h ****   *         @arg @ref LL_EXTI_LINE_7
 434:Drivers/STM32WBxx_HAL_Driver/Inc/stm32wbxx_ll_exti.h ****   *         @arg @ref LL_EXTI_LINE_8
 435:Drivers/STM32WBxx_HAL_Driver/Inc/stm32wbxx_ll_exti.h ****   *         @arg @ref LL_EXTI_LINE_9
 436:Drivers/STM32WBxx_HAL_Driver/Inc/stm32wbxx_ll_exti.h ****   *         @arg @ref LL_EXTI_LINE_10
 437:Drivers/STM32WBxx_HAL_Driver/Inc/stm32wbxx_ll_exti.h ****   *         @arg @ref LL_EXTI_LINE_11
 438:Drivers/STM32WBxx_HAL_Driver/Inc/stm32wbxx_ll_exti.h ****   *         @arg @ref LL_EXTI_LINE_12
 439:Drivers/STM32WBxx_HAL_Driver/Inc/stm32wbxx_ll_exti.h ****   *         @arg @ref LL_EXTI_LINE_13
 440:Drivers/STM32WBxx_HAL_Driver/Inc/stm32wbxx_ll_exti.h ****   *         @arg @ref LL_EXTI_LINE_14
 441:Drivers/STM32WBxx_HAL_Driver/Inc/stm32wbxx_ll_exti.h ****   *         @arg @ref LL_EXTI_LINE_15
 442:Drivers/STM32WBxx_HAL_Driver/Inc/stm32wbxx_ll_exti.h ****   *         @arg @ref LL_EXTI_LINE_16
 443:Drivers/STM32WBxx_HAL_Driver/Inc/stm32wbxx_ll_exti.h ****   *         @arg @ref LL_EXTI_LINE_17
 444:Drivers/STM32WBxx_HAL_Driver/Inc/stm32wbxx_ll_exti.h ****   *         @arg @ref LL_EXTI_LINE_18
 445:Drivers/STM32WBxx_HAL_Driver/Inc/stm32wbxx_ll_exti.h ****   *         @arg @ref LL_EXTI_LINE_19
 446:Drivers/STM32WBxx_HAL_Driver/Inc/stm32wbxx_ll_exti.h ****   *         @arg @ref LL_EXTI_LINE_20 (*)
 447:Drivers/STM32WBxx_HAL_Driver/Inc/stm32wbxx_ll_exti.h ****   *         @arg @ref LL_EXTI_LINE_21 (*)
 448:Drivers/STM32WBxx_HAL_Driver/Inc/stm32wbxx_ll_exti.h ****   *         @arg @ref LL_EXTI_LINE_22
 449:Drivers/STM32WBxx_HAL_Driver/Inc/stm32wbxx_ll_exti.h ****   *         @arg @ref LL_EXTI_LINE_23 (*)
 450:Drivers/STM32WBxx_HAL_Driver/Inc/stm32wbxx_ll_exti.h ****   *         @arg @ref LL_EXTI_LINE_24
 451:Drivers/STM32WBxx_HAL_Driver/Inc/stm32wbxx_ll_exti.h ****   *         @arg @ref LL_EXTI_LINE_25 (*)
 452:Drivers/STM32WBxx_HAL_Driver/Inc/stm32wbxx_ll_exti.h ****   *         @arg @ref LL_EXTI_LINE_28 (*)
 453:Drivers/STM32WBxx_HAL_Driver/Inc/stm32wbxx_ll_exti.h ****   *         @arg @ref LL_EXTI_LINE_29
 454:Drivers/STM32WBxx_HAL_Driver/Inc/stm32wbxx_ll_exti.h ****   *         @arg @ref LL_EXTI_LINE_30
 455:Drivers/STM32WBxx_HAL_Driver/Inc/stm32wbxx_ll_exti.h ****   *         @arg @ref LL_EXTI_LINE_31 (*)
 456:Drivers/STM32WBxx_HAL_Driver/Inc/stm32wbxx_ll_exti.h ****   *         @arg @ref LL_EXTI_LINE_ALL_0_31
 457:Drivers/STM32WBxx_HAL_Driver/Inc/stm32wbxx_ll_exti.h ****   *         (*) value not defined in all devices
 458:Drivers/STM32WBxx_HAL_Driver/Inc/stm32wbxx_ll_exti.h ****   * @retval None
 459:Drivers/STM32WBxx_HAL_Driver/Inc/stm32wbxx_ll_exti.h ****   */
 460:Drivers/STM32WBxx_HAL_Driver/Inc/stm32wbxx_ll_exti.h **** __STATIC_INLINE void LL_EXTI_DisableIT_0_31(uint32_t ExtiLine)
 461:Drivers/STM32WBxx_HAL_Driver/Inc/stm32wbxx_ll_exti.h **** {
 462:Drivers/STM32WBxx_HAL_Driver/Inc/stm32wbxx_ll_exti.h ****   CLEAR_BIT(EXTI->IMR1, ExtiLine);
 463:Drivers/STM32WBxx_HAL_Driver/Inc/stm32wbxx_ll_exti.h **** }
 464:Drivers/STM32WBxx_HAL_Driver/Inc/stm32wbxx_ll_exti.h **** 
 465:Drivers/STM32WBxx_HAL_Driver/Inc/stm32wbxx_ll_exti.h **** /**
 466:Drivers/STM32WBxx_HAL_Driver/Inc/stm32wbxx_ll_exti.h ****   * @brief  Disable ExtiLine Interrupt request for Lines in range 0 to 31 for cpu2
 467:Drivers/STM32WBxx_HAL_Driver/Inc/stm32wbxx_ll_exti.h ****   * @rmtoll C2IMR1         IMx           LL_C2_EXTI_DisableIT_0_31
 468:Drivers/STM32WBxx_HAL_Driver/Inc/stm32wbxx_ll_exti.h ****   * @param  ExtiLine This parameter can be a combination of the following values:
 469:Drivers/STM32WBxx_HAL_Driver/Inc/stm32wbxx_ll_exti.h ****   *         @arg @ref LL_EXTI_LINE_0
 470:Drivers/STM32WBxx_HAL_Driver/Inc/stm32wbxx_ll_exti.h ****   *         @arg @ref LL_EXTI_LINE_1
 471:Drivers/STM32WBxx_HAL_Driver/Inc/stm32wbxx_ll_exti.h ****   *         @arg @ref LL_EXTI_LINE_2
 472:Drivers/STM32WBxx_HAL_Driver/Inc/stm32wbxx_ll_exti.h ****   *         @arg @ref LL_EXTI_LINE_3
 473:Drivers/STM32WBxx_HAL_Driver/Inc/stm32wbxx_ll_exti.h ****   *         @arg @ref LL_EXTI_LINE_4
 474:Drivers/STM32WBxx_HAL_Driver/Inc/stm32wbxx_ll_exti.h ****   *         @arg @ref LL_EXTI_LINE_5
 475:Drivers/STM32WBxx_HAL_Driver/Inc/stm32wbxx_ll_exti.h ****   *         @arg @ref LL_EXTI_LINE_6
ARM GAS  C:\Users\Nathan\AppData\Local\Temp\ccvsgOlc.s 			page 81


 476:Drivers/STM32WBxx_HAL_Driver/Inc/stm32wbxx_ll_exti.h ****   *         @arg @ref LL_EXTI_LINE_7
 477:Drivers/STM32WBxx_HAL_Driver/Inc/stm32wbxx_ll_exti.h ****   *         @arg @ref LL_EXTI_LINE_8
 478:Drivers/STM32WBxx_HAL_Driver/Inc/stm32wbxx_ll_exti.h ****   *         @arg @ref LL_EXTI_LINE_9
 479:Drivers/STM32WBxx_HAL_Driver/Inc/stm32wbxx_ll_exti.h ****   *         @arg @ref LL_EXTI_LINE_10
 480:Drivers/STM32WBxx_HAL_Driver/Inc/stm32wbxx_ll_exti.h ****   *         @arg @ref LL_EXTI_LINE_11
 481:Drivers/STM32WBxx_HAL_Driver/Inc/stm32wbxx_ll_exti.h ****   *         @arg @ref LL_EXTI_LINE_12
 482:Drivers/STM32WBxx_HAL_Driver/Inc/stm32wbxx_ll_exti.h ****   *         @arg @ref LL_EXTI_LINE_13
 483:Drivers/STM32WBxx_HAL_Driver/Inc/stm32wbxx_ll_exti.h ****   *         @arg @ref LL_EXTI_LINE_14
 484:Drivers/STM32WBxx_HAL_Driver/Inc/stm32wbxx_ll_exti.h ****   *         @arg @ref LL_EXTI_LINE_15
 485:Drivers/STM32WBxx_HAL_Driver/Inc/stm32wbxx_ll_exti.h ****   *         @arg @ref LL_EXTI_LINE_16
 486:Drivers/STM32WBxx_HAL_Driver/Inc/stm32wbxx_ll_exti.h ****   *         @arg @ref LL_EXTI_LINE_17
 487:Drivers/STM32WBxx_HAL_Driver/Inc/stm32wbxx_ll_exti.h ****   *         @arg @ref LL_EXTI_LINE_18
 488:Drivers/STM32WBxx_HAL_Driver/Inc/stm32wbxx_ll_exti.h ****   *         @arg @ref LL_EXTI_LINE_19
 489:Drivers/STM32WBxx_HAL_Driver/Inc/stm32wbxx_ll_exti.h ****   *         @arg @ref LL_EXTI_LINE_20 (*)
 490:Drivers/STM32WBxx_HAL_Driver/Inc/stm32wbxx_ll_exti.h ****   *         @arg @ref LL_EXTI_LINE_21 (*)
 491:Drivers/STM32WBxx_HAL_Driver/Inc/stm32wbxx_ll_exti.h ****   *         @arg @ref LL_EXTI_LINE_22
 492:Drivers/STM32WBxx_HAL_Driver/Inc/stm32wbxx_ll_exti.h ****   *         @arg @ref LL_EXTI_LINE_23 (*)
 493:Drivers/STM32WBxx_HAL_Driver/Inc/stm32wbxx_ll_exti.h ****   *         @arg @ref LL_EXTI_LINE_24
 494:Drivers/STM32WBxx_HAL_Driver/Inc/stm32wbxx_ll_exti.h ****   *         @arg @ref LL_EXTI_LINE_25 (*)
 495:Drivers/STM32WBxx_HAL_Driver/Inc/stm32wbxx_ll_exti.h ****   *         @arg @ref LL_EXTI_LINE_28 (*)
 496:Drivers/STM32WBxx_HAL_Driver/Inc/stm32wbxx_ll_exti.h ****   *         @arg @ref LL_EXTI_LINE_29
 497:Drivers/STM32WBxx_HAL_Driver/Inc/stm32wbxx_ll_exti.h ****   *         @arg @ref LL_EXTI_LINE_30
 498:Drivers/STM32WBxx_HAL_Driver/Inc/stm32wbxx_ll_exti.h ****   *         @arg @ref LL_EXTI_LINE_31 (*)
 499:Drivers/STM32WBxx_HAL_Driver/Inc/stm32wbxx_ll_exti.h ****   *         @arg @ref LL_EXTI_LINE_ALL_0_31
 500:Drivers/STM32WBxx_HAL_Driver/Inc/stm32wbxx_ll_exti.h ****   *         (*) value not defined in all devices
 501:Drivers/STM32WBxx_HAL_Driver/Inc/stm32wbxx_ll_exti.h ****   * @retval None
 502:Drivers/STM32WBxx_HAL_Driver/Inc/stm32wbxx_ll_exti.h ****   */
 503:Drivers/STM32WBxx_HAL_Driver/Inc/stm32wbxx_ll_exti.h **** __STATIC_INLINE void LL_C2_EXTI_DisableIT_0_31(uint32_t ExtiLine)
 504:Drivers/STM32WBxx_HAL_Driver/Inc/stm32wbxx_ll_exti.h **** {
 505:Drivers/STM32WBxx_HAL_Driver/Inc/stm32wbxx_ll_exti.h ****   CLEAR_BIT(EXTI->C2IMR1, ExtiLine);
 506:Drivers/STM32WBxx_HAL_Driver/Inc/stm32wbxx_ll_exti.h **** }
 507:Drivers/STM32WBxx_HAL_Driver/Inc/stm32wbxx_ll_exti.h **** 
 508:Drivers/STM32WBxx_HAL_Driver/Inc/stm32wbxx_ll_exti.h **** /**
 509:Drivers/STM32WBxx_HAL_Driver/Inc/stm32wbxx_ll_exti.h ****   * @brief  Disable ExtiLine Interrupt request for Lines in range 32 to 63
 510:Drivers/STM32WBxx_HAL_Driver/Inc/stm32wbxx_ll_exti.h ****   * @rmtoll IMR2         IMx           LL_EXTI_DisableIT_32_63
 511:Drivers/STM32WBxx_HAL_Driver/Inc/stm32wbxx_ll_exti.h ****   * @param  ExtiLine This parameter can be a combination of the following values:
 512:Drivers/STM32WBxx_HAL_Driver/Inc/stm32wbxx_ll_exti.h ****   *         @arg @ref LL_EXTI_LINE_33
 513:Drivers/STM32WBxx_HAL_Driver/Inc/stm32wbxx_ll_exti.h ****   *         @arg @ref LL_EXTI_LINE_36
 514:Drivers/STM32WBxx_HAL_Driver/Inc/stm32wbxx_ll_exti.h ****   *         @arg @ref LL_EXTI_LINE_37
 515:Drivers/STM32WBxx_HAL_Driver/Inc/stm32wbxx_ll_exti.h ****   *         @arg @ref LL_EXTI_LINE_38
 516:Drivers/STM32WBxx_HAL_Driver/Inc/stm32wbxx_ll_exti.h ****   *         @arg @ref LL_EXTI_LINE_39
 517:Drivers/STM32WBxx_HAL_Driver/Inc/stm32wbxx_ll_exti.h ****   *         @arg @ref LL_EXTI_LINE_40
 518:Drivers/STM32WBxx_HAL_Driver/Inc/stm32wbxx_ll_exti.h ****   *         @arg @ref LL_EXTI_LINE_41
 519:Drivers/STM32WBxx_HAL_Driver/Inc/stm32wbxx_ll_exti.h ****   *         @arg @ref LL_EXTI_LINE_42
 520:Drivers/STM32WBxx_HAL_Driver/Inc/stm32wbxx_ll_exti.h ****   *         @arg @ref LL_EXTI_LINE_43 (*)
 521:Drivers/STM32WBxx_HAL_Driver/Inc/stm32wbxx_ll_exti.h ****   *         @arg @ref LL_EXTI_LINE_44
 522:Drivers/STM32WBxx_HAL_Driver/Inc/stm32wbxx_ll_exti.h ****   *         @arg @ref LL_EXTI_LINE_45
 523:Drivers/STM32WBxx_HAL_Driver/Inc/stm32wbxx_ll_exti.h ****   *         @arg @ref LL_EXTI_LINE_46 (*)
 524:Drivers/STM32WBxx_HAL_Driver/Inc/stm32wbxx_ll_exti.h ****   *         @arg @ref LL_EXTI_LINE_48
 525:Drivers/STM32WBxx_HAL_Driver/Inc/stm32wbxx_ll_exti.h ****   *         @arg @ref LL_EXTI_LINE_ALL_32_63
 526:Drivers/STM32WBxx_HAL_Driver/Inc/stm32wbxx_ll_exti.h ****   *         (*) value not defined in all devices
 527:Drivers/STM32WBxx_HAL_Driver/Inc/stm32wbxx_ll_exti.h ****   * @retval None
 528:Drivers/STM32WBxx_HAL_Driver/Inc/stm32wbxx_ll_exti.h ****   */
 529:Drivers/STM32WBxx_HAL_Driver/Inc/stm32wbxx_ll_exti.h **** __STATIC_INLINE void LL_EXTI_DisableIT_32_63(uint32_t ExtiLine)
 530:Drivers/STM32WBxx_HAL_Driver/Inc/stm32wbxx_ll_exti.h **** {
 531:Drivers/STM32WBxx_HAL_Driver/Inc/stm32wbxx_ll_exti.h ****   CLEAR_BIT(EXTI->IMR2, ExtiLine);
 532:Drivers/STM32WBxx_HAL_Driver/Inc/stm32wbxx_ll_exti.h **** }
ARM GAS  C:\Users\Nathan\AppData\Local\Temp\ccvsgOlc.s 			page 82


 533:Drivers/STM32WBxx_HAL_Driver/Inc/stm32wbxx_ll_exti.h **** 
 534:Drivers/STM32WBxx_HAL_Driver/Inc/stm32wbxx_ll_exti.h **** /**
 535:Drivers/STM32WBxx_HAL_Driver/Inc/stm32wbxx_ll_exti.h ****   * @brief  Disable ExtiLine Interrupt request for Lines in range 32 to 63 for cpu2
 536:Drivers/STM32WBxx_HAL_Driver/Inc/stm32wbxx_ll_exti.h ****   * @rmtoll C2IMR2         IMx           LL_C2_EXTI_DisableIT_32_63
 537:Drivers/STM32WBxx_HAL_Driver/Inc/stm32wbxx_ll_exti.h ****   * @param  ExtiLine This parameter can be a combination of the following values:
 538:Drivers/STM32WBxx_HAL_Driver/Inc/stm32wbxx_ll_exti.h ****   *         @arg @ref LL_EXTI_LINE_33
 539:Drivers/STM32WBxx_HAL_Driver/Inc/stm32wbxx_ll_exti.h ****   *         @arg @ref LL_EXTI_LINE_36
 540:Drivers/STM32WBxx_HAL_Driver/Inc/stm32wbxx_ll_exti.h ****   *         @arg @ref LL_EXTI_LINE_37
 541:Drivers/STM32WBxx_HAL_Driver/Inc/stm32wbxx_ll_exti.h ****   *         @arg @ref LL_EXTI_LINE_38
 542:Drivers/STM32WBxx_HAL_Driver/Inc/stm32wbxx_ll_exti.h ****   *         @arg @ref LL_EXTI_LINE_39
 543:Drivers/STM32WBxx_HAL_Driver/Inc/stm32wbxx_ll_exti.h ****   *         @arg @ref LL_EXTI_LINE_40
 544:Drivers/STM32WBxx_HAL_Driver/Inc/stm32wbxx_ll_exti.h ****   *         @arg @ref LL_EXTI_LINE_41
 545:Drivers/STM32WBxx_HAL_Driver/Inc/stm32wbxx_ll_exti.h ****   *         @arg @ref LL_EXTI_LINE_42
 546:Drivers/STM32WBxx_HAL_Driver/Inc/stm32wbxx_ll_exti.h ****   *         @arg @ref LL_EXTI_LINE_43 (*)
 547:Drivers/STM32WBxx_HAL_Driver/Inc/stm32wbxx_ll_exti.h ****   *         @arg @ref LL_EXTI_LINE_44
 548:Drivers/STM32WBxx_HAL_Driver/Inc/stm32wbxx_ll_exti.h ****   *         @arg @ref LL_EXTI_LINE_45
 549:Drivers/STM32WBxx_HAL_Driver/Inc/stm32wbxx_ll_exti.h ****   *         @arg @ref LL_EXTI_LINE_46 (*)
 550:Drivers/STM32WBxx_HAL_Driver/Inc/stm32wbxx_ll_exti.h ****   *         @arg @ref LL_EXTI_LINE_48
 551:Drivers/STM32WBxx_HAL_Driver/Inc/stm32wbxx_ll_exti.h ****   *         @arg @ref LL_EXTI_LINE_ALL_32_63
 552:Drivers/STM32WBxx_HAL_Driver/Inc/stm32wbxx_ll_exti.h ****   *         (*) value not defined in all devices
 553:Drivers/STM32WBxx_HAL_Driver/Inc/stm32wbxx_ll_exti.h ****   * @retval None
 554:Drivers/STM32WBxx_HAL_Driver/Inc/stm32wbxx_ll_exti.h ****   */
 555:Drivers/STM32WBxx_HAL_Driver/Inc/stm32wbxx_ll_exti.h **** __STATIC_INLINE void LL_C2_EXTI_DisableIT_32_63(uint32_t ExtiLine)
 556:Drivers/STM32WBxx_HAL_Driver/Inc/stm32wbxx_ll_exti.h **** {
 557:Drivers/STM32WBxx_HAL_Driver/Inc/stm32wbxx_ll_exti.h ****   CLEAR_BIT(EXTI->C2IMR2, ExtiLine);
 558:Drivers/STM32WBxx_HAL_Driver/Inc/stm32wbxx_ll_exti.h **** }
 559:Drivers/STM32WBxx_HAL_Driver/Inc/stm32wbxx_ll_exti.h **** 
 560:Drivers/STM32WBxx_HAL_Driver/Inc/stm32wbxx_ll_exti.h **** /**
 561:Drivers/STM32WBxx_HAL_Driver/Inc/stm32wbxx_ll_exti.h ****   * @brief  Indicate if ExtiLine Interrupt request is enabled for Lines in range 0 to 31
 562:Drivers/STM32WBxx_HAL_Driver/Inc/stm32wbxx_ll_exti.h ****   * @rmtoll IMR1         IMx           LL_EXTI_IsEnabledIT_0_31
 563:Drivers/STM32WBxx_HAL_Driver/Inc/stm32wbxx_ll_exti.h ****   * @param  ExtiLine This parameter can be a combination of the following values:
 564:Drivers/STM32WBxx_HAL_Driver/Inc/stm32wbxx_ll_exti.h ****   *         @arg @ref LL_EXTI_LINE_0
 565:Drivers/STM32WBxx_HAL_Driver/Inc/stm32wbxx_ll_exti.h ****   *         @arg @ref LL_EXTI_LINE_1
 566:Drivers/STM32WBxx_HAL_Driver/Inc/stm32wbxx_ll_exti.h ****   *         @arg @ref LL_EXTI_LINE_2
 567:Drivers/STM32WBxx_HAL_Driver/Inc/stm32wbxx_ll_exti.h ****   *         @arg @ref LL_EXTI_LINE_3
 568:Drivers/STM32WBxx_HAL_Driver/Inc/stm32wbxx_ll_exti.h ****   *         @arg @ref LL_EXTI_LINE_4
 569:Drivers/STM32WBxx_HAL_Driver/Inc/stm32wbxx_ll_exti.h ****   *         @arg @ref LL_EXTI_LINE_5
 570:Drivers/STM32WBxx_HAL_Driver/Inc/stm32wbxx_ll_exti.h ****   *         @arg @ref LL_EXTI_LINE_6
 571:Drivers/STM32WBxx_HAL_Driver/Inc/stm32wbxx_ll_exti.h ****   *         @arg @ref LL_EXTI_LINE_7
 572:Drivers/STM32WBxx_HAL_Driver/Inc/stm32wbxx_ll_exti.h ****   *         @arg @ref LL_EXTI_LINE_8
 573:Drivers/STM32WBxx_HAL_Driver/Inc/stm32wbxx_ll_exti.h ****   *         @arg @ref LL_EXTI_LINE_9
 574:Drivers/STM32WBxx_HAL_Driver/Inc/stm32wbxx_ll_exti.h ****   *         @arg @ref LL_EXTI_LINE_10
 575:Drivers/STM32WBxx_HAL_Driver/Inc/stm32wbxx_ll_exti.h ****   *         @arg @ref LL_EXTI_LINE_11
 576:Drivers/STM32WBxx_HAL_Driver/Inc/stm32wbxx_ll_exti.h ****   *         @arg @ref LL_EXTI_LINE_12
 577:Drivers/STM32WBxx_HAL_Driver/Inc/stm32wbxx_ll_exti.h ****   *         @arg @ref LL_EXTI_LINE_13
 578:Drivers/STM32WBxx_HAL_Driver/Inc/stm32wbxx_ll_exti.h ****   *         @arg @ref LL_EXTI_LINE_14
 579:Drivers/STM32WBxx_HAL_Driver/Inc/stm32wbxx_ll_exti.h ****   *         @arg @ref LL_EXTI_LINE_15
 580:Drivers/STM32WBxx_HAL_Driver/Inc/stm32wbxx_ll_exti.h ****   *         @arg @ref LL_EXTI_LINE_16
 581:Drivers/STM32WBxx_HAL_Driver/Inc/stm32wbxx_ll_exti.h ****   *         @arg @ref LL_EXTI_LINE_17
 582:Drivers/STM32WBxx_HAL_Driver/Inc/stm32wbxx_ll_exti.h ****   *         @arg @ref LL_EXTI_LINE_18
 583:Drivers/STM32WBxx_HAL_Driver/Inc/stm32wbxx_ll_exti.h ****   *         @arg @ref LL_EXTI_LINE_19
 584:Drivers/STM32WBxx_HAL_Driver/Inc/stm32wbxx_ll_exti.h ****   *         @arg @ref LL_EXTI_LINE_20 (*)
 585:Drivers/STM32WBxx_HAL_Driver/Inc/stm32wbxx_ll_exti.h ****   *         @arg @ref LL_EXTI_LINE_21 (*)
 586:Drivers/STM32WBxx_HAL_Driver/Inc/stm32wbxx_ll_exti.h ****   *         @arg @ref LL_EXTI_LINE_22
 587:Drivers/STM32WBxx_HAL_Driver/Inc/stm32wbxx_ll_exti.h ****   *         @arg @ref LL_EXTI_LINE_23 (*)
 588:Drivers/STM32WBxx_HAL_Driver/Inc/stm32wbxx_ll_exti.h ****   *         @arg @ref LL_EXTI_LINE_24
 589:Drivers/STM32WBxx_HAL_Driver/Inc/stm32wbxx_ll_exti.h ****   *         @arg @ref LL_EXTI_LINE_25 (*)
ARM GAS  C:\Users\Nathan\AppData\Local\Temp\ccvsgOlc.s 			page 83


 590:Drivers/STM32WBxx_HAL_Driver/Inc/stm32wbxx_ll_exti.h ****   *         @arg @ref LL_EXTI_LINE_28 (*)
 591:Drivers/STM32WBxx_HAL_Driver/Inc/stm32wbxx_ll_exti.h ****   *         @arg @ref LL_EXTI_LINE_29
 592:Drivers/STM32WBxx_HAL_Driver/Inc/stm32wbxx_ll_exti.h ****   *         @arg @ref LL_EXTI_LINE_30
 593:Drivers/STM32WBxx_HAL_Driver/Inc/stm32wbxx_ll_exti.h ****   *         @arg @ref LL_EXTI_LINE_31 (*)
 594:Drivers/STM32WBxx_HAL_Driver/Inc/stm32wbxx_ll_exti.h ****   *         @arg @ref LL_EXTI_LINE_ALL_0_31
 595:Drivers/STM32WBxx_HAL_Driver/Inc/stm32wbxx_ll_exti.h ****   *         (*) value not defined in all devices
 596:Drivers/STM32WBxx_HAL_Driver/Inc/stm32wbxx_ll_exti.h ****   * @retval State of bit (1 or 0).
 597:Drivers/STM32WBxx_HAL_Driver/Inc/stm32wbxx_ll_exti.h ****   */
 598:Drivers/STM32WBxx_HAL_Driver/Inc/stm32wbxx_ll_exti.h **** __STATIC_INLINE uint32_t LL_EXTI_IsEnabledIT_0_31(uint32_t ExtiLine)
 599:Drivers/STM32WBxx_HAL_Driver/Inc/stm32wbxx_ll_exti.h **** {
 600:Drivers/STM32WBxx_HAL_Driver/Inc/stm32wbxx_ll_exti.h ****   return ((READ_BIT(EXTI->IMR1, ExtiLine) == (ExtiLine)) ? 1UL : 0UL);
 601:Drivers/STM32WBxx_HAL_Driver/Inc/stm32wbxx_ll_exti.h **** }
 602:Drivers/STM32WBxx_HAL_Driver/Inc/stm32wbxx_ll_exti.h **** 
 603:Drivers/STM32WBxx_HAL_Driver/Inc/stm32wbxx_ll_exti.h **** /**
 604:Drivers/STM32WBxx_HAL_Driver/Inc/stm32wbxx_ll_exti.h ****   * @brief  Indicate if ExtiLine Interrupt request is enabled for Lines in range 0 to 31 for cpu2
 605:Drivers/STM32WBxx_HAL_Driver/Inc/stm32wbxx_ll_exti.h ****   * @rmtoll C2IMR1         IMx           LL_C2_EXTI_IsEnabledIT_0_31
 606:Drivers/STM32WBxx_HAL_Driver/Inc/stm32wbxx_ll_exti.h ****   * @param  ExtiLine This parameter can be a combination of the following values:
 607:Drivers/STM32WBxx_HAL_Driver/Inc/stm32wbxx_ll_exti.h ****   *         @arg @ref LL_EXTI_LINE_0
 608:Drivers/STM32WBxx_HAL_Driver/Inc/stm32wbxx_ll_exti.h ****   *         @arg @ref LL_EXTI_LINE_1
 609:Drivers/STM32WBxx_HAL_Driver/Inc/stm32wbxx_ll_exti.h ****   *         @arg @ref LL_EXTI_LINE_2
 610:Drivers/STM32WBxx_HAL_Driver/Inc/stm32wbxx_ll_exti.h ****   *         @arg @ref LL_EXTI_LINE_3
 611:Drivers/STM32WBxx_HAL_Driver/Inc/stm32wbxx_ll_exti.h ****   *         @arg @ref LL_EXTI_LINE_4
 612:Drivers/STM32WBxx_HAL_Driver/Inc/stm32wbxx_ll_exti.h ****   *         @arg @ref LL_EXTI_LINE_5
 613:Drivers/STM32WBxx_HAL_Driver/Inc/stm32wbxx_ll_exti.h ****   *         @arg @ref LL_EXTI_LINE_6
 614:Drivers/STM32WBxx_HAL_Driver/Inc/stm32wbxx_ll_exti.h ****   *         @arg @ref LL_EXTI_LINE_7
 615:Drivers/STM32WBxx_HAL_Driver/Inc/stm32wbxx_ll_exti.h ****   *         @arg @ref LL_EXTI_LINE_8
 616:Drivers/STM32WBxx_HAL_Driver/Inc/stm32wbxx_ll_exti.h ****   *         @arg @ref LL_EXTI_LINE_9
 617:Drivers/STM32WBxx_HAL_Driver/Inc/stm32wbxx_ll_exti.h ****   *         @arg @ref LL_EXTI_LINE_10
 618:Drivers/STM32WBxx_HAL_Driver/Inc/stm32wbxx_ll_exti.h ****   *         @arg @ref LL_EXTI_LINE_11
 619:Drivers/STM32WBxx_HAL_Driver/Inc/stm32wbxx_ll_exti.h ****   *         @arg @ref LL_EXTI_LINE_12
 620:Drivers/STM32WBxx_HAL_Driver/Inc/stm32wbxx_ll_exti.h ****   *         @arg @ref LL_EXTI_LINE_13
 621:Drivers/STM32WBxx_HAL_Driver/Inc/stm32wbxx_ll_exti.h ****   *         @arg @ref LL_EXTI_LINE_14
 622:Drivers/STM32WBxx_HAL_Driver/Inc/stm32wbxx_ll_exti.h ****   *         @arg @ref LL_EXTI_LINE_15
 623:Drivers/STM32WBxx_HAL_Driver/Inc/stm32wbxx_ll_exti.h ****   *         @arg @ref LL_EXTI_LINE_16
 624:Drivers/STM32WBxx_HAL_Driver/Inc/stm32wbxx_ll_exti.h ****   *         @arg @ref LL_EXTI_LINE_17
 625:Drivers/STM32WBxx_HAL_Driver/Inc/stm32wbxx_ll_exti.h ****   *         @arg @ref LL_EXTI_LINE_18
 626:Drivers/STM32WBxx_HAL_Driver/Inc/stm32wbxx_ll_exti.h ****   *         @arg @ref LL_EXTI_LINE_19
 627:Drivers/STM32WBxx_HAL_Driver/Inc/stm32wbxx_ll_exti.h ****   *         @arg @ref LL_EXTI_LINE_20 (*)
 628:Drivers/STM32WBxx_HAL_Driver/Inc/stm32wbxx_ll_exti.h ****   *         @arg @ref LL_EXTI_LINE_21 (*)
 629:Drivers/STM32WBxx_HAL_Driver/Inc/stm32wbxx_ll_exti.h ****   *         @arg @ref LL_EXTI_LINE_22
 630:Drivers/STM32WBxx_HAL_Driver/Inc/stm32wbxx_ll_exti.h ****   *         @arg @ref LL_EXTI_LINE_23 (*)
 631:Drivers/STM32WBxx_HAL_Driver/Inc/stm32wbxx_ll_exti.h ****   *         @arg @ref LL_EXTI_LINE_24
 632:Drivers/STM32WBxx_HAL_Driver/Inc/stm32wbxx_ll_exti.h ****   *         @arg @ref LL_EXTI_LINE_25 (*)
 633:Drivers/STM32WBxx_HAL_Driver/Inc/stm32wbxx_ll_exti.h ****   *         @arg @ref LL_EXTI_LINE_28 (*)
 634:Drivers/STM32WBxx_HAL_Driver/Inc/stm32wbxx_ll_exti.h ****   *         @arg @ref LL_EXTI_LINE_29
 635:Drivers/STM32WBxx_HAL_Driver/Inc/stm32wbxx_ll_exti.h ****   *         @arg @ref LL_EXTI_LINE_30
 636:Drivers/STM32WBxx_HAL_Driver/Inc/stm32wbxx_ll_exti.h ****   *         @arg @ref LL_EXTI_LINE_31 (*)
 637:Drivers/STM32WBxx_HAL_Driver/Inc/stm32wbxx_ll_exti.h ****   *         @arg @ref LL_EXTI_LINE_ALL_0_31
 638:Drivers/STM32WBxx_HAL_Driver/Inc/stm32wbxx_ll_exti.h ****   *         (*) value not defined in all devices
 639:Drivers/STM32WBxx_HAL_Driver/Inc/stm32wbxx_ll_exti.h ****   * @retval State of bit (1 or 0).
 640:Drivers/STM32WBxx_HAL_Driver/Inc/stm32wbxx_ll_exti.h ****   */
 641:Drivers/STM32WBxx_HAL_Driver/Inc/stm32wbxx_ll_exti.h **** __STATIC_INLINE uint32_t LL_C2_EXTI_IsEnabledIT_0_31(uint32_t ExtiLine)
 642:Drivers/STM32WBxx_HAL_Driver/Inc/stm32wbxx_ll_exti.h **** {
 643:Drivers/STM32WBxx_HAL_Driver/Inc/stm32wbxx_ll_exti.h ****   return ((READ_BIT(EXTI->C2IMR1, ExtiLine) == (ExtiLine)) ? 1UL : 0UL);
 644:Drivers/STM32WBxx_HAL_Driver/Inc/stm32wbxx_ll_exti.h **** }
 645:Drivers/STM32WBxx_HAL_Driver/Inc/stm32wbxx_ll_exti.h **** 
 646:Drivers/STM32WBxx_HAL_Driver/Inc/stm32wbxx_ll_exti.h **** /**
ARM GAS  C:\Users\Nathan\AppData\Local\Temp\ccvsgOlc.s 			page 84


 647:Drivers/STM32WBxx_HAL_Driver/Inc/stm32wbxx_ll_exti.h ****   * @brief  Indicate if ExtiLine Interrupt request is enabled for Lines in range 32 to 63
 648:Drivers/STM32WBxx_HAL_Driver/Inc/stm32wbxx_ll_exti.h ****   * @rmtoll IMR2         IMx           LL_EXTI_IsEnabledIT_32_63
 649:Drivers/STM32WBxx_HAL_Driver/Inc/stm32wbxx_ll_exti.h ****   * @param  ExtiLine This parameter can be a combination of the following values:
 650:Drivers/STM32WBxx_HAL_Driver/Inc/stm32wbxx_ll_exti.h ****   *         @arg @ref LL_EXTI_LINE_33
 651:Drivers/STM32WBxx_HAL_Driver/Inc/stm32wbxx_ll_exti.h ****   *         @arg @ref LL_EXTI_LINE_36
 652:Drivers/STM32WBxx_HAL_Driver/Inc/stm32wbxx_ll_exti.h ****   *         @arg @ref LL_EXTI_LINE_37
 653:Drivers/STM32WBxx_HAL_Driver/Inc/stm32wbxx_ll_exti.h ****   *         @arg @ref LL_EXTI_LINE_38
 654:Drivers/STM32WBxx_HAL_Driver/Inc/stm32wbxx_ll_exti.h ****   *         @arg @ref LL_EXTI_LINE_39
 655:Drivers/STM32WBxx_HAL_Driver/Inc/stm32wbxx_ll_exti.h ****   *         @arg @ref LL_EXTI_LINE_40
 656:Drivers/STM32WBxx_HAL_Driver/Inc/stm32wbxx_ll_exti.h ****   *         @arg @ref LL_EXTI_LINE_41
 657:Drivers/STM32WBxx_HAL_Driver/Inc/stm32wbxx_ll_exti.h ****   *         @arg @ref LL_EXTI_LINE_42
 658:Drivers/STM32WBxx_HAL_Driver/Inc/stm32wbxx_ll_exti.h ****   *         @arg @ref LL_EXTI_LINE_43 (*)
 659:Drivers/STM32WBxx_HAL_Driver/Inc/stm32wbxx_ll_exti.h ****   *         @arg @ref LL_EXTI_LINE_44
 660:Drivers/STM32WBxx_HAL_Driver/Inc/stm32wbxx_ll_exti.h ****   *         @arg @ref LL_EXTI_LINE_45
 661:Drivers/STM32WBxx_HAL_Driver/Inc/stm32wbxx_ll_exti.h ****   *         @arg @ref LL_EXTI_LINE_46 (*)
 662:Drivers/STM32WBxx_HAL_Driver/Inc/stm32wbxx_ll_exti.h ****   *         @arg @ref LL_EXTI_LINE_48
 663:Drivers/STM32WBxx_HAL_Driver/Inc/stm32wbxx_ll_exti.h ****   *         @arg @ref LL_EXTI_LINE_ALL_32_63
 664:Drivers/STM32WBxx_HAL_Driver/Inc/stm32wbxx_ll_exti.h ****   *         (*) value not defined in all devices
 665:Drivers/STM32WBxx_HAL_Driver/Inc/stm32wbxx_ll_exti.h ****   * @retval State of bit (1 or 0).
 666:Drivers/STM32WBxx_HAL_Driver/Inc/stm32wbxx_ll_exti.h ****   */
 667:Drivers/STM32WBxx_HAL_Driver/Inc/stm32wbxx_ll_exti.h **** __STATIC_INLINE uint32_t LL_EXTI_IsEnabledIT_32_63(uint32_t ExtiLine)
 668:Drivers/STM32WBxx_HAL_Driver/Inc/stm32wbxx_ll_exti.h **** {
 669:Drivers/STM32WBxx_HAL_Driver/Inc/stm32wbxx_ll_exti.h ****   return ((READ_BIT(EXTI->IMR2, ExtiLine) == (ExtiLine)) ? 1UL : 0UL);
 670:Drivers/STM32WBxx_HAL_Driver/Inc/stm32wbxx_ll_exti.h **** }
 671:Drivers/STM32WBxx_HAL_Driver/Inc/stm32wbxx_ll_exti.h **** 
 672:Drivers/STM32WBxx_HAL_Driver/Inc/stm32wbxx_ll_exti.h **** /**
 673:Drivers/STM32WBxx_HAL_Driver/Inc/stm32wbxx_ll_exti.h ****   * @brief  Indicate if ExtiLine Interrupt request is enabled for Lines in range 32 to 63 for cpu2
 674:Drivers/STM32WBxx_HAL_Driver/Inc/stm32wbxx_ll_exti.h ****   * @rmtoll C2IMR2         IMx           LL_C2_EXTI_IsEnabledIT_32_63
 675:Drivers/STM32WBxx_HAL_Driver/Inc/stm32wbxx_ll_exti.h ****   * @param  ExtiLine This parameter can be a combination of the following values:
 676:Drivers/STM32WBxx_HAL_Driver/Inc/stm32wbxx_ll_exti.h ****   *         @arg @ref LL_EXTI_LINE_33
 677:Drivers/STM32WBxx_HAL_Driver/Inc/stm32wbxx_ll_exti.h ****   *         @arg @ref LL_EXTI_LINE_36
 678:Drivers/STM32WBxx_HAL_Driver/Inc/stm32wbxx_ll_exti.h ****   *         @arg @ref LL_EXTI_LINE_37
 679:Drivers/STM32WBxx_HAL_Driver/Inc/stm32wbxx_ll_exti.h ****   *         @arg @ref LL_EXTI_LINE_38
 680:Drivers/STM32WBxx_HAL_Driver/Inc/stm32wbxx_ll_exti.h ****   *         @arg @ref LL_EXTI_LINE_39
 681:Drivers/STM32WBxx_HAL_Driver/Inc/stm32wbxx_ll_exti.h ****   *         @arg @ref LL_EXTI_LINE_40
 682:Drivers/STM32WBxx_HAL_Driver/Inc/stm32wbxx_ll_exti.h ****   *         @arg @ref LL_EXTI_LINE_41
 683:Drivers/STM32WBxx_HAL_Driver/Inc/stm32wbxx_ll_exti.h ****   *         @arg @ref LL_EXTI_LINE_42
 684:Drivers/STM32WBxx_HAL_Driver/Inc/stm32wbxx_ll_exti.h ****   *         @arg @ref LL_EXTI_LINE_43 (*)
 685:Drivers/STM32WBxx_HAL_Driver/Inc/stm32wbxx_ll_exti.h ****   *         @arg @ref LL_EXTI_LINE_44
 686:Drivers/STM32WBxx_HAL_Driver/Inc/stm32wbxx_ll_exti.h ****   *         @arg @ref LL_EXTI_LINE_45
 687:Drivers/STM32WBxx_HAL_Driver/Inc/stm32wbxx_ll_exti.h ****   *         @arg @ref LL_EXTI_LINE_46 (*)
 688:Drivers/STM32WBxx_HAL_Driver/Inc/stm32wbxx_ll_exti.h ****   *         @arg @ref LL_EXTI_LINE_48
 689:Drivers/STM32WBxx_HAL_Driver/Inc/stm32wbxx_ll_exti.h ****   *         @arg @ref LL_EXTI_LINE_ALL_32_63
 690:Drivers/STM32WBxx_HAL_Driver/Inc/stm32wbxx_ll_exti.h ****   *         (*) value not defined in all devices
 691:Drivers/STM32WBxx_HAL_Driver/Inc/stm32wbxx_ll_exti.h ****   * @retval State of bit (1 or 0).
 692:Drivers/STM32WBxx_HAL_Driver/Inc/stm32wbxx_ll_exti.h ****   */
 693:Drivers/STM32WBxx_HAL_Driver/Inc/stm32wbxx_ll_exti.h **** __STATIC_INLINE uint32_t LL_C2_EXTI_IsEnabledIT_32_63(uint32_t ExtiLine)
 694:Drivers/STM32WBxx_HAL_Driver/Inc/stm32wbxx_ll_exti.h **** {
 695:Drivers/STM32WBxx_HAL_Driver/Inc/stm32wbxx_ll_exti.h ****   return ((READ_BIT(EXTI->C2IMR2, ExtiLine) == (ExtiLine)) ? 1UL : 0UL);
 696:Drivers/STM32WBxx_HAL_Driver/Inc/stm32wbxx_ll_exti.h **** }
 697:Drivers/STM32WBxx_HAL_Driver/Inc/stm32wbxx_ll_exti.h **** 
 698:Drivers/STM32WBxx_HAL_Driver/Inc/stm32wbxx_ll_exti.h **** /**
 699:Drivers/STM32WBxx_HAL_Driver/Inc/stm32wbxx_ll_exti.h ****   * @}
 700:Drivers/STM32WBxx_HAL_Driver/Inc/stm32wbxx_ll_exti.h ****   */
 701:Drivers/STM32WBxx_HAL_Driver/Inc/stm32wbxx_ll_exti.h **** 
 702:Drivers/STM32WBxx_HAL_Driver/Inc/stm32wbxx_ll_exti.h **** /** @defgroup EXTI_LL_EF_Event_Management Event_Management
 703:Drivers/STM32WBxx_HAL_Driver/Inc/stm32wbxx_ll_exti.h ****   * @{
ARM GAS  C:\Users\Nathan\AppData\Local\Temp\ccvsgOlc.s 			page 85


 704:Drivers/STM32WBxx_HAL_Driver/Inc/stm32wbxx_ll_exti.h ****   */
 705:Drivers/STM32WBxx_HAL_Driver/Inc/stm32wbxx_ll_exti.h **** 
 706:Drivers/STM32WBxx_HAL_Driver/Inc/stm32wbxx_ll_exti.h **** /**
 707:Drivers/STM32WBxx_HAL_Driver/Inc/stm32wbxx_ll_exti.h ****   * @brief  Enable ExtiLine Event request for Lines in range 0 to 31
 708:Drivers/STM32WBxx_HAL_Driver/Inc/stm32wbxx_ll_exti.h ****   * @rmtoll EMR1         EMx           LL_EXTI_EnableEvent_0_31
 709:Drivers/STM32WBxx_HAL_Driver/Inc/stm32wbxx_ll_exti.h ****   * @param  ExtiLine This parameter can be a combination of the following values:
 710:Drivers/STM32WBxx_HAL_Driver/Inc/stm32wbxx_ll_exti.h ****   *         @arg @ref LL_EXTI_LINE_0
 711:Drivers/STM32WBxx_HAL_Driver/Inc/stm32wbxx_ll_exti.h ****   *         @arg @ref LL_EXTI_LINE_1
 712:Drivers/STM32WBxx_HAL_Driver/Inc/stm32wbxx_ll_exti.h ****   *         @arg @ref LL_EXTI_LINE_2
 713:Drivers/STM32WBxx_HAL_Driver/Inc/stm32wbxx_ll_exti.h ****   *         @arg @ref LL_EXTI_LINE_3
 714:Drivers/STM32WBxx_HAL_Driver/Inc/stm32wbxx_ll_exti.h ****   *         @arg @ref LL_EXTI_LINE_4
 715:Drivers/STM32WBxx_HAL_Driver/Inc/stm32wbxx_ll_exti.h ****   *         @arg @ref LL_EXTI_LINE_5
 716:Drivers/STM32WBxx_HAL_Driver/Inc/stm32wbxx_ll_exti.h ****   *         @arg @ref LL_EXTI_LINE_6
 717:Drivers/STM32WBxx_HAL_Driver/Inc/stm32wbxx_ll_exti.h ****   *         @arg @ref LL_EXTI_LINE_7
 718:Drivers/STM32WBxx_HAL_Driver/Inc/stm32wbxx_ll_exti.h ****   *         @arg @ref LL_EXTI_LINE_8
 719:Drivers/STM32WBxx_HAL_Driver/Inc/stm32wbxx_ll_exti.h ****   *         @arg @ref LL_EXTI_LINE_9
 720:Drivers/STM32WBxx_HAL_Driver/Inc/stm32wbxx_ll_exti.h ****   *         @arg @ref LL_EXTI_LINE_10
 721:Drivers/STM32WBxx_HAL_Driver/Inc/stm32wbxx_ll_exti.h ****   *         @arg @ref LL_EXTI_LINE_11
 722:Drivers/STM32WBxx_HAL_Driver/Inc/stm32wbxx_ll_exti.h ****   *         @arg @ref LL_EXTI_LINE_12
 723:Drivers/STM32WBxx_HAL_Driver/Inc/stm32wbxx_ll_exti.h ****   *         @arg @ref LL_EXTI_LINE_13
 724:Drivers/STM32WBxx_HAL_Driver/Inc/stm32wbxx_ll_exti.h ****   *         @arg @ref LL_EXTI_LINE_14
 725:Drivers/STM32WBxx_HAL_Driver/Inc/stm32wbxx_ll_exti.h ****   *         @arg @ref LL_EXTI_LINE_15
 726:Drivers/STM32WBxx_HAL_Driver/Inc/stm32wbxx_ll_exti.h ****   *         @arg @ref LL_EXTI_LINE_17
 727:Drivers/STM32WBxx_HAL_Driver/Inc/stm32wbxx_ll_exti.h ****   *         @arg @ref LL_EXTI_LINE_18
 728:Drivers/STM32WBxx_HAL_Driver/Inc/stm32wbxx_ll_exti.h ****   *         @arg @ref LL_EXTI_LINE_19
 729:Drivers/STM32WBxx_HAL_Driver/Inc/stm32wbxx_ll_exti.h ****   *         @arg @ref LL_EXTI_LINE_20 (*)
 730:Drivers/STM32WBxx_HAL_Driver/Inc/stm32wbxx_ll_exti.h ****   *         @arg @ref LL_EXTI_LINE_21 (*)
 731:Drivers/STM32WBxx_HAL_Driver/Inc/stm32wbxx_ll_exti.h ****   *         (*) value not defined in all devices
 732:Drivers/STM32WBxx_HAL_Driver/Inc/stm32wbxx_ll_exti.h ****   * @retval None
 733:Drivers/STM32WBxx_HAL_Driver/Inc/stm32wbxx_ll_exti.h ****   */
 734:Drivers/STM32WBxx_HAL_Driver/Inc/stm32wbxx_ll_exti.h **** __STATIC_INLINE void LL_EXTI_EnableEvent_0_31(uint32_t ExtiLine)
 735:Drivers/STM32WBxx_HAL_Driver/Inc/stm32wbxx_ll_exti.h **** {
 736:Drivers/STM32WBxx_HAL_Driver/Inc/stm32wbxx_ll_exti.h ****   SET_BIT(EXTI->EMR1, ExtiLine);
 737:Drivers/STM32WBxx_HAL_Driver/Inc/stm32wbxx_ll_exti.h **** }
 738:Drivers/STM32WBxx_HAL_Driver/Inc/stm32wbxx_ll_exti.h **** 
 739:Drivers/STM32WBxx_HAL_Driver/Inc/stm32wbxx_ll_exti.h **** /**
 740:Drivers/STM32WBxx_HAL_Driver/Inc/stm32wbxx_ll_exti.h ****   * @brief  Enable ExtiLine Event request for Lines in range 0 to 31 for cpu2
 741:Drivers/STM32WBxx_HAL_Driver/Inc/stm32wbxx_ll_exti.h ****   * @rmtoll C2EMR1         EMx           LL_C2_EXTI_EnableEvent_0_31
 742:Drivers/STM32WBxx_HAL_Driver/Inc/stm32wbxx_ll_exti.h ****   * @param  ExtiLine This parameter can be a combination of the following values:
 743:Drivers/STM32WBxx_HAL_Driver/Inc/stm32wbxx_ll_exti.h ****   *         @arg @ref LL_EXTI_LINE_0
 744:Drivers/STM32WBxx_HAL_Driver/Inc/stm32wbxx_ll_exti.h ****   *         @arg @ref LL_EXTI_LINE_1
 745:Drivers/STM32WBxx_HAL_Driver/Inc/stm32wbxx_ll_exti.h ****   *         @arg @ref LL_EXTI_LINE_2
 746:Drivers/STM32WBxx_HAL_Driver/Inc/stm32wbxx_ll_exti.h ****   *         @arg @ref LL_EXTI_LINE_3
 747:Drivers/STM32WBxx_HAL_Driver/Inc/stm32wbxx_ll_exti.h ****   *         @arg @ref LL_EXTI_LINE_4
 748:Drivers/STM32WBxx_HAL_Driver/Inc/stm32wbxx_ll_exti.h ****   *         @arg @ref LL_EXTI_LINE_5
 749:Drivers/STM32WBxx_HAL_Driver/Inc/stm32wbxx_ll_exti.h ****   *         @arg @ref LL_EXTI_LINE_6
 750:Drivers/STM32WBxx_HAL_Driver/Inc/stm32wbxx_ll_exti.h ****   *         @arg @ref LL_EXTI_LINE_7
 751:Drivers/STM32WBxx_HAL_Driver/Inc/stm32wbxx_ll_exti.h ****   *         @arg @ref LL_EXTI_LINE_8
 752:Drivers/STM32WBxx_HAL_Driver/Inc/stm32wbxx_ll_exti.h ****   *         @arg @ref LL_EXTI_LINE_9
 753:Drivers/STM32WBxx_HAL_Driver/Inc/stm32wbxx_ll_exti.h ****   *         @arg @ref LL_EXTI_LINE_10
 754:Drivers/STM32WBxx_HAL_Driver/Inc/stm32wbxx_ll_exti.h ****   *         @arg @ref LL_EXTI_LINE_11
 755:Drivers/STM32WBxx_HAL_Driver/Inc/stm32wbxx_ll_exti.h ****   *         @arg @ref LL_EXTI_LINE_12
 756:Drivers/STM32WBxx_HAL_Driver/Inc/stm32wbxx_ll_exti.h ****   *         @arg @ref LL_EXTI_LINE_13
 757:Drivers/STM32WBxx_HAL_Driver/Inc/stm32wbxx_ll_exti.h ****   *         @arg @ref LL_EXTI_LINE_14
 758:Drivers/STM32WBxx_HAL_Driver/Inc/stm32wbxx_ll_exti.h ****   *         @arg @ref LL_EXTI_LINE_15
 759:Drivers/STM32WBxx_HAL_Driver/Inc/stm32wbxx_ll_exti.h ****   *         @arg @ref LL_EXTI_LINE_17
 760:Drivers/STM32WBxx_HAL_Driver/Inc/stm32wbxx_ll_exti.h ****   *         @arg @ref LL_EXTI_LINE_18
ARM GAS  C:\Users\Nathan\AppData\Local\Temp\ccvsgOlc.s 			page 86


 761:Drivers/STM32WBxx_HAL_Driver/Inc/stm32wbxx_ll_exti.h ****   *         @arg @ref LL_EXTI_LINE_19
 762:Drivers/STM32WBxx_HAL_Driver/Inc/stm32wbxx_ll_exti.h ****   *         @arg @ref LL_EXTI_LINE_20 (*)
 763:Drivers/STM32WBxx_HAL_Driver/Inc/stm32wbxx_ll_exti.h ****   *         @arg @ref LL_EXTI_LINE_21 (*)
 764:Drivers/STM32WBxx_HAL_Driver/Inc/stm32wbxx_ll_exti.h ****   *         (*) value not defined in all devices
 765:Drivers/STM32WBxx_HAL_Driver/Inc/stm32wbxx_ll_exti.h ****   * @retval None
 766:Drivers/STM32WBxx_HAL_Driver/Inc/stm32wbxx_ll_exti.h ****   */
 767:Drivers/STM32WBxx_HAL_Driver/Inc/stm32wbxx_ll_exti.h **** __STATIC_INLINE void LL_C2_EXTI_EnableEvent_0_31(uint32_t ExtiLine)
 768:Drivers/STM32WBxx_HAL_Driver/Inc/stm32wbxx_ll_exti.h **** {
 769:Drivers/STM32WBxx_HAL_Driver/Inc/stm32wbxx_ll_exti.h ****   SET_BIT(EXTI->C2EMR1, ExtiLine);
 770:Drivers/STM32WBxx_HAL_Driver/Inc/stm32wbxx_ll_exti.h **** }
 771:Drivers/STM32WBxx_HAL_Driver/Inc/stm32wbxx_ll_exti.h **** 
 772:Drivers/STM32WBxx_HAL_Driver/Inc/stm32wbxx_ll_exti.h **** /**
 773:Drivers/STM32WBxx_HAL_Driver/Inc/stm32wbxx_ll_exti.h ****   * @brief  Enable ExtiLine Event request for Lines in range 32 to 63
 774:Drivers/STM32WBxx_HAL_Driver/Inc/stm32wbxx_ll_exti.h ****   * @rmtoll EMR2         EMx           LL_EXTI_EnableEvent_32_63
 775:Drivers/STM32WBxx_HAL_Driver/Inc/stm32wbxx_ll_exti.h ****   * @param  ExtiLine This parameter can be a combination of the following values:
 776:Drivers/STM32WBxx_HAL_Driver/Inc/stm32wbxx_ll_exti.h ****   *         @arg @ref LL_EXTI_LINE_40
 777:Drivers/STM32WBxx_HAL_Driver/Inc/stm32wbxx_ll_exti.h ****   *         @arg @ref LL_EXTI_LINE_41
 778:Drivers/STM32WBxx_HAL_Driver/Inc/stm32wbxx_ll_exti.h ****   * @retval None
 779:Drivers/STM32WBxx_HAL_Driver/Inc/stm32wbxx_ll_exti.h ****   */
 780:Drivers/STM32WBxx_HAL_Driver/Inc/stm32wbxx_ll_exti.h **** __STATIC_INLINE void LL_EXTI_EnableEvent_32_63(uint32_t ExtiLine)
 781:Drivers/STM32WBxx_HAL_Driver/Inc/stm32wbxx_ll_exti.h **** {
 782:Drivers/STM32WBxx_HAL_Driver/Inc/stm32wbxx_ll_exti.h ****   SET_BIT(EXTI->EMR2, ExtiLine);
 783:Drivers/STM32WBxx_HAL_Driver/Inc/stm32wbxx_ll_exti.h **** }
 784:Drivers/STM32WBxx_HAL_Driver/Inc/stm32wbxx_ll_exti.h **** 
 785:Drivers/STM32WBxx_HAL_Driver/Inc/stm32wbxx_ll_exti.h **** /**
 786:Drivers/STM32WBxx_HAL_Driver/Inc/stm32wbxx_ll_exti.h ****   * @brief  Enable ExtiLine Event request for Lines in range 32 to 63 for cpu2
 787:Drivers/STM32WBxx_HAL_Driver/Inc/stm32wbxx_ll_exti.h ****   * @rmtoll C2EMR2         EMx           LL_C2_EXTI_EnableEvent_32_63
 788:Drivers/STM32WBxx_HAL_Driver/Inc/stm32wbxx_ll_exti.h ****   * @param  ExtiLine This parameter can be a combination of the following values:
 789:Drivers/STM32WBxx_HAL_Driver/Inc/stm32wbxx_ll_exti.h ****   *         @arg @ref LL_EXTI_LINE_40
 790:Drivers/STM32WBxx_HAL_Driver/Inc/stm32wbxx_ll_exti.h ****   *         @arg @ref LL_EXTI_LINE_41
 791:Drivers/STM32WBxx_HAL_Driver/Inc/stm32wbxx_ll_exti.h ****   * @retval None
 792:Drivers/STM32WBxx_HAL_Driver/Inc/stm32wbxx_ll_exti.h ****   */
 793:Drivers/STM32WBxx_HAL_Driver/Inc/stm32wbxx_ll_exti.h **** __STATIC_INLINE void LL_C2_EXTI_EnableEvent_32_63(uint32_t ExtiLine)
 794:Drivers/STM32WBxx_HAL_Driver/Inc/stm32wbxx_ll_exti.h **** {
 795:Drivers/STM32WBxx_HAL_Driver/Inc/stm32wbxx_ll_exti.h ****   SET_BIT(EXTI->C2EMR2, ExtiLine);
 796:Drivers/STM32WBxx_HAL_Driver/Inc/stm32wbxx_ll_exti.h **** }
 797:Drivers/STM32WBxx_HAL_Driver/Inc/stm32wbxx_ll_exti.h **** 
 798:Drivers/STM32WBxx_HAL_Driver/Inc/stm32wbxx_ll_exti.h **** /**
 799:Drivers/STM32WBxx_HAL_Driver/Inc/stm32wbxx_ll_exti.h ****   * @brief  Disable ExtiLine Event request for Lines in range 0 to 31
 800:Drivers/STM32WBxx_HAL_Driver/Inc/stm32wbxx_ll_exti.h ****   * @rmtoll EMR1         EMx           LL_EXTI_DisableEvent_0_31
 801:Drivers/STM32WBxx_HAL_Driver/Inc/stm32wbxx_ll_exti.h ****   * @param  ExtiLine This parameter can be a combination of the following values:
 802:Drivers/STM32WBxx_HAL_Driver/Inc/stm32wbxx_ll_exti.h ****   *         @arg @ref LL_EXTI_LINE_0
 803:Drivers/STM32WBxx_HAL_Driver/Inc/stm32wbxx_ll_exti.h ****   *         @arg @ref LL_EXTI_LINE_1
 804:Drivers/STM32WBxx_HAL_Driver/Inc/stm32wbxx_ll_exti.h ****   *         @arg @ref LL_EXTI_LINE_2
 805:Drivers/STM32WBxx_HAL_Driver/Inc/stm32wbxx_ll_exti.h ****   *         @arg @ref LL_EXTI_LINE_3
 806:Drivers/STM32WBxx_HAL_Driver/Inc/stm32wbxx_ll_exti.h ****   *         @arg @ref LL_EXTI_LINE_4
 807:Drivers/STM32WBxx_HAL_Driver/Inc/stm32wbxx_ll_exti.h ****   *         @arg @ref LL_EXTI_LINE_5
 808:Drivers/STM32WBxx_HAL_Driver/Inc/stm32wbxx_ll_exti.h ****   *         @arg @ref LL_EXTI_LINE_6
 809:Drivers/STM32WBxx_HAL_Driver/Inc/stm32wbxx_ll_exti.h ****   *         @arg @ref LL_EXTI_LINE_7
 810:Drivers/STM32WBxx_HAL_Driver/Inc/stm32wbxx_ll_exti.h ****   *         @arg @ref LL_EXTI_LINE_8
 811:Drivers/STM32WBxx_HAL_Driver/Inc/stm32wbxx_ll_exti.h ****   *         @arg @ref LL_EXTI_LINE_9
 812:Drivers/STM32WBxx_HAL_Driver/Inc/stm32wbxx_ll_exti.h ****   *         @arg @ref LL_EXTI_LINE_10
 813:Drivers/STM32WBxx_HAL_Driver/Inc/stm32wbxx_ll_exti.h ****   *         @arg @ref LL_EXTI_LINE_11
 814:Drivers/STM32WBxx_HAL_Driver/Inc/stm32wbxx_ll_exti.h ****   *         @arg @ref LL_EXTI_LINE_12
 815:Drivers/STM32WBxx_HAL_Driver/Inc/stm32wbxx_ll_exti.h ****   *         @arg @ref LL_EXTI_LINE_13
 816:Drivers/STM32WBxx_HAL_Driver/Inc/stm32wbxx_ll_exti.h ****   *         @arg @ref LL_EXTI_LINE_14
 817:Drivers/STM32WBxx_HAL_Driver/Inc/stm32wbxx_ll_exti.h ****   *         @arg @ref LL_EXTI_LINE_15
ARM GAS  C:\Users\Nathan\AppData\Local\Temp\ccvsgOlc.s 			page 87


 818:Drivers/STM32WBxx_HAL_Driver/Inc/stm32wbxx_ll_exti.h ****   *         @arg @ref LL_EXTI_LINE_17
 819:Drivers/STM32WBxx_HAL_Driver/Inc/stm32wbxx_ll_exti.h ****   *         @arg @ref LL_EXTI_LINE_18
 820:Drivers/STM32WBxx_HAL_Driver/Inc/stm32wbxx_ll_exti.h ****   *         @arg @ref LL_EXTI_LINE_19
 821:Drivers/STM32WBxx_HAL_Driver/Inc/stm32wbxx_ll_exti.h ****   *         @arg @ref LL_EXTI_LINE_20 (*)
 822:Drivers/STM32WBxx_HAL_Driver/Inc/stm32wbxx_ll_exti.h ****   *         @arg @ref LL_EXTI_LINE_21 (*)
 823:Drivers/STM32WBxx_HAL_Driver/Inc/stm32wbxx_ll_exti.h ****   * @retval None
 824:Drivers/STM32WBxx_HAL_Driver/Inc/stm32wbxx_ll_exti.h ****   */
 825:Drivers/STM32WBxx_HAL_Driver/Inc/stm32wbxx_ll_exti.h **** __STATIC_INLINE void LL_EXTI_DisableEvent_0_31(uint32_t ExtiLine)
 1697              		.loc 3 825 22 view .LVU313
 1698              	.LBB71:
 826:Drivers/STM32WBxx_HAL_Driver/Inc/stm32wbxx_ll_exti.h **** {
 827:Drivers/STM32WBxx_HAL_Driver/Inc/stm32wbxx_ll_exti.h ****   CLEAR_BIT(EXTI->EMR1, ExtiLine);
 1699              		.loc 3 827 3 view .LVU314
 1700 000e 414B     		ldr	r3, .L167
 1701 0010 D3F88420 		ldr	r2, [r3, #132]
 1702 0014 22F00042 		bic	r2, r2, #-2147483648
 1703 0018 C3F88420 		str	r2, [r3, #132]
 1704              	.LVL88:
 1705              		.loc 3 827 3 is_stmt 0 view .LVU315
 1706              	.LBE71:
 1707              	.LBE70:
 780:Drivers/STM32WBxx_HAL_Driver/Src/stm32wbxx_hal_pwr_ex.c ****       __HAL_PWR_PVM1_EXTI_DISABLE_IT();
 1708              		.loc 1 780 7 is_stmt 1 view .LVU316
 1709              	.LBB72:
 1710              	.LBI72:
 460:Drivers/STM32WBxx_HAL_Driver/Inc/stm32wbxx_ll_exti.h **** {
 1711              		.loc 3 460 22 view .LVU317
 1712              	.LBB73:
 462:Drivers/STM32WBxx_HAL_Driver/Inc/stm32wbxx_ll_exti.h **** }
 1713              		.loc 3 462 3 view .LVU318
 1714 001c D3F88020 		ldr	r2, [r3, #128]
 1715 0020 22F00042 		bic	r2, r2, #-2147483648
 1716 0024 C3F88020 		str	r2, [r3, #128]
 1717              	.LVL89:
 462:Drivers/STM32WBxx_HAL_Driver/Inc/stm32wbxx_ll_exti.h **** }
 1718              		.loc 3 462 3 is_stmt 0 view .LVU319
 1719              	.LBE73:
 1720              	.LBE72:
 781:Drivers/STM32WBxx_HAL_Driver/Src/stm32wbxx_hal_pwr_ex.c ****       __HAL_PWR_PVM1_EXTI_DISABLE_FALLING_EDGE();
 1721              		.loc 1 781 7 is_stmt 1 view .LVU320
 1722              	.LBB74:
 1723              	.LBI74:
 828:Drivers/STM32WBxx_HAL_Driver/Inc/stm32wbxx_ll_exti.h **** }
 829:Drivers/STM32WBxx_HAL_Driver/Inc/stm32wbxx_ll_exti.h **** 
 830:Drivers/STM32WBxx_HAL_Driver/Inc/stm32wbxx_ll_exti.h **** /**
 831:Drivers/STM32WBxx_HAL_Driver/Inc/stm32wbxx_ll_exti.h ****   * @brief  Disable ExtiLine Event request for Lines in range 0 to 31 for cpu2
 832:Drivers/STM32WBxx_HAL_Driver/Inc/stm32wbxx_ll_exti.h ****   * @rmtoll C2EMR1         EMx           LL_C2_EXTI_DisableEvent_0_31
 833:Drivers/STM32WBxx_HAL_Driver/Inc/stm32wbxx_ll_exti.h ****   * @param  ExtiLine This parameter can be a combination of the following values:
 834:Drivers/STM32WBxx_HAL_Driver/Inc/stm32wbxx_ll_exti.h ****   *         @arg @ref LL_EXTI_LINE_0
 835:Drivers/STM32WBxx_HAL_Driver/Inc/stm32wbxx_ll_exti.h ****   *         @arg @ref LL_EXTI_LINE_1
 836:Drivers/STM32WBxx_HAL_Driver/Inc/stm32wbxx_ll_exti.h ****   *         @arg @ref LL_EXTI_LINE_2
 837:Drivers/STM32WBxx_HAL_Driver/Inc/stm32wbxx_ll_exti.h ****   *         @arg @ref LL_EXTI_LINE_3
 838:Drivers/STM32WBxx_HAL_Driver/Inc/stm32wbxx_ll_exti.h ****   *         @arg @ref LL_EXTI_LINE_4
 839:Drivers/STM32WBxx_HAL_Driver/Inc/stm32wbxx_ll_exti.h ****   *         @arg @ref LL_EXTI_LINE_5
 840:Drivers/STM32WBxx_HAL_Driver/Inc/stm32wbxx_ll_exti.h ****   *         @arg @ref LL_EXTI_LINE_6
 841:Drivers/STM32WBxx_HAL_Driver/Inc/stm32wbxx_ll_exti.h ****   *         @arg @ref LL_EXTI_LINE_7
 842:Drivers/STM32WBxx_HAL_Driver/Inc/stm32wbxx_ll_exti.h ****   *         @arg @ref LL_EXTI_LINE_8
ARM GAS  C:\Users\Nathan\AppData\Local\Temp\ccvsgOlc.s 			page 88


 843:Drivers/STM32WBxx_HAL_Driver/Inc/stm32wbxx_ll_exti.h ****   *         @arg @ref LL_EXTI_LINE_9
 844:Drivers/STM32WBxx_HAL_Driver/Inc/stm32wbxx_ll_exti.h ****   *         @arg @ref LL_EXTI_LINE_10
 845:Drivers/STM32WBxx_HAL_Driver/Inc/stm32wbxx_ll_exti.h ****   *         @arg @ref LL_EXTI_LINE_11
 846:Drivers/STM32WBxx_HAL_Driver/Inc/stm32wbxx_ll_exti.h ****   *         @arg @ref LL_EXTI_LINE_12
 847:Drivers/STM32WBxx_HAL_Driver/Inc/stm32wbxx_ll_exti.h ****   *         @arg @ref LL_EXTI_LINE_13
 848:Drivers/STM32WBxx_HAL_Driver/Inc/stm32wbxx_ll_exti.h ****   *         @arg @ref LL_EXTI_LINE_14
 849:Drivers/STM32WBxx_HAL_Driver/Inc/stm32wbxx_ll_exti.h ****   *         @arg @ref LL_EXTI_LINE_15
 850:Drivers/STM32WBxx_HAL_Driver/Inc/stm32wbxx_ll_exti.h ****   *         @arg @ref LL_EXTI_LINE_17
 851:Drivers/STM32WBxx_HAL_Driver/Inc/stm32wbxx_ll_exti.h ****   *         @arg @ref LL_EXTI_LINE_18
 852:Drivers/STM32WBxx_HAL_Driver/Inc/stm32wbxx_ll_exti.h ****   *         @arg @ref LL_EXTI_LINE_19
 853:Drivers/STM32WBxx_HAL_Driver/Inc/stm32wbxx_ll_exti.h ****   *         @arg @ref LL_EXTI_LINE_20 (*)
 854:Drivers/STM32WBxx_HAL_Driver/Inc/stm32wbxx_ll_exti.h ****   *         @arg @ref LL_EXTI_LINE_21 (*)
 855:Drivers/STM32WBxx_HAL_Driver/Inc/stm32wbxx_ll_exti.h ****   *         (*) value not defined in all devices
 856:Drivers/STM32WBxx_HAL_Driver/Inc/stm32wbxx_ll_exti.h ****   * @retval None
 857:Drivers/STM32WBxx_HAL_Driver/Inc/stm32wbxx_ll_exti.h ****   */
 858:Drivers/STM32WBxx_HAL_Driver/Inc/stm32wbxx_ll_exti.h **** __STATIC_INLINE void LL_C2_EXTI_DisableEvent_0_31(uint32_t ExtiLine)
 859:Drivers/STM32WBxx_HAL_Driver/Inc/stm32wbxx_ll_exti.h **** {
 860:Drivers/STM32WBxx_HAL_Driver/Inc/stm32wbxx_ll_exti.h ****   CLEAR_BIT(EXTI->C2EMR1, ExtiLine);
 861:Drivers/STM32WBxx_HAL_Driver/Inc/stm32wbxx_ll_exti.h **** }
 862:Drivers/STM32WBxx_HAL_Driver/Inc/stm32wbxx_ll_exti.h **** 
 863:Drivers/STM32WBxx_HAL_Driver/Inc/stm32wbxx_ll_exti.h **** /**
 864:Drivers/STM32WBxx_HAL_Driver/Inc/stm32wbxx_ll_exti.h ****   * @brief  Disable ExtiLine Event request for Lines in range 32 to 63
 865:Drivers/STM32WBxx_HAL_Driver/Inc/stm32wbxx_ll_exti.h ****   * @rmtoll EMR2         EMx           LL_EXTI_DisableEvent_32_63
 866:Drivers/STM32WBxx_HAL_Driver/Inc/stm32wbxx_ll_exti.h ****   * @param  ExtiLine This parameter can be a combination of the following values:
 867:Drivers/STM32WBxx_HAL_Driver/Inc/stm32wbxx_ll_exti.h ****   *         @arg @ref LL_EXTI_LINE_40
 868:Drivers/STM32WBxx_HAL_Driver/Inc/stm32wbxx_ll_exti.h ****   *         @arg @ref LL_EXTI_LINE_41
 869:Drivers/STM32WBxx_HAL_Driver/Inc/stm32wbxx_ll_exti.h ****   *         (*) value not defined in all devices
 870:Drivers/STM32WBxx_HAL_Driver/Inc/stm32wbxx_ll_exti.h ****   * @retval None
 871:Drivers/STM32WBxx_HAL_Driver/Inc/stm32wbxx_ll_exti.h ****   */
 872:Drivers/STM32WBxx_HAL_Driver/Inc/stm32wbxx_ll_exti.h **** __STATIC_INLINE void LL_EXTI_DisableEvent_32_63(uint32_t ExtiLine)
 873:Drivers/STM32WBxx_HAL_Driver/Inc/stm32wbxx_ll_exti.h **** {
 874:Drivers/STM32WBxx_HAL_Driver/Inc/stm32wbxx_ll_exti.h ****   CLEAR_BIT(EXTI->EMR2, ExtiLine);
 875:Drivers/STM32WBxx_HAL_Driver/Inc/stm32wbxx_ll_exti.h **** }
 876:Drivers/STM32WBxx_HAL_Driver/Inc/stm32wbxx_ll_exti.h **** 
 877:Drivers/STM32WBxx_HAL_Driver/Inc/stm32wbxx_ll_exti.h **** /**
 878:Drivers/STM32WBxx_HAL_Driver/Inc/stm32wbxx_ll_exti.h ****   * @brief  Disable ExtiLine Event request for Lines in range 32 to 63 for cpu2
 879:Drivers/STM32WBxx_HAL_Driver/Inc/stm32wbxx_ll_exti.h ****   * @rmtoll C2EMR2         EMx           LL_C2_EXTI_DisableEvent_32_63
 880:Drivers/STM32WBxx_HAL_Driver/Inc/stm32wbxx_ll_exti.h ****   * @param  ExtiLine This parameter can be a combination of the following values:
 881:Drivers/STM32WBxx_HAL_Driver/Inc/stm32wbxx_ll_exti.h ****   *         @arg @ref LL_EXTI_LINE_40
 882:Drivers/STM32WBxx_HAL_Driver/Inc/stm32wbxx_ll_exti.h ****   *         @arg @ref LL_EXTI_LINE_41
 883:Drivers/STM32WBxx_HAL_Driver/Inc/stm32wbxx_ll_exti.h ****   * @retval None
 884:Drivers/STM32WBxx_HAL_Driver/Inc/stm32wbxx_ll_exti.h ****   */
 885:Drivers/STM32WBxx_HAL_Driver/Inc/stm32wbxx_ll_exti.h **** __STATIC_INLINE void LL_C2_EXTI_DisableEvent_32_63(uint32_t ExtiLine)
 886:Drivers/STM32WBxx_HAL_Driver/Inc/stm32wbxx_ll_exti.h **** {
 887:Drivers/STM32WBxx_HAL_Driver/Inc/stm32wbxx_ll_exti.h ****   CLEAR_BIT(EXTI->C2EMR2, ExtiLine);
 888:Drivers/STM32WBxx_HAL_Driver/Inc/stm32wbxx_ll_exti.h **** }
 889:Drivers/STM32WBxx_HAL_Driver/Inc/stm32wbxx_ll_exti.h **** 
 890:Drivers/STM32WBxx_HAL_Driver/Inc/stm32wbxx_ll_exti.h **** /**
 891:Drivers/STM32WBxx_HAL_Driver/Inc/stm32wbxx_ll_exti.h ****   * @brief  Indicate if ExtiLine Event request is enabled for Lines in range 0 to 31
 892:Drivers/STM32WBxx_HAL_Driver/Inc/stm32wbxx_ll_exti.h ****   * @rmtoll EMR1         EMx           LL_EXTI_IsEnabledEvent_0_31
 893:Drivers/STM32WBxx_HAL_Driver/Inc/stm32wbxx_ll_exti.h ****   * @param  ExtiLine This parameter can be a combination of the following values:
 894:Drivers/STM32WBxx_HAL_Driver/Inc/stm32wbxx_ll_exti.h ****   *         @arg @ref LL_EXTI_LINE_0
 895:Drivers/STM32WBxx_HAL_Driver/Inc/stm32wbxx_ll_exti.h ****   *         @arg @ref LL_EXTI_LINE_1
 896:Drivers/STM32WBxx_HAL_Driver/Inc/stm32wbxx_ll_exti.h ****   *         @arg @ref LL_EXTI_LINE_2
 897:Drivers/STM32WBxx_HAL_Driver/Inc/stm32wbxx_ll_exti.h ****   *         @arg @ref LL_EXTI_LINE_3
 898:Drivers/STM32WBxx_HAL_Driver/Inc/stm32wbxx_ll_exti.h ****   *         @arg @ref LL_EXTI_LINE_4
 899:Drivers/STM32WBxx_HAL_Driver/Inc/stm32wbxx_ll_exti.h ****   *         @arg @ref LL_EXTI_LINE_5
ARM GAS  C:\Users\Nathan\AppData\Local\Temp\ccvsgOlc.s 			page 89


 900:Drivers/STM32WBxx_HAL_Driver/Inc/stm32wbxx_ll_exti.h ****   *         @arg @ref LL_EXTI_LINE_6
 901:Drivers/STM32WBxx_HAL_Driver/Inc/stm32wbxx_ll_exti.h ****   *         @arg @ref LL_EXTI_LINE_7
 902:Drivers/STM32WBxx_HAL_Driver/Inc/stm32wbxx_ll_exti.h ****   *         @arg @ref LL_EXTI_LINE_8
 903:Drivers/STM32WBxx_HAL_Driver/Inc/stm32wbxx_ll_exti.h ****   *         @arg @ref LL_EXTI_LINE_9
 904:Drivers/STM32WBxx_HAL_Driver/Inc/stm32wbxx_ll_exti.h ****   *         @arg @ref LL_EXTI_LINE_10
 905:Drivers/STM32WBxx_HAL_Driver/Inc/stm32wbxx_ll_exti.h ****   *         @arg @ref LL_EXTI_LINE_11
 906:Drivers/STM32WBxx_HAL_Driver/Inc/stm32wbxx_ll_exti.h ****   *         @arg @ref LL_EXTI_LINE_12
 907:Drivers/STM32WBxx_HAL_Driver/Inc/stm32wbxx_ll_exti.h ****   *         @arg @ref LL_EXTI_LINE_13
 908:Drivers/STM32WBxx_HAL_Driver/Inc/stm32wbxx_ll_exti.h ****   *         @arg @ref LL_EXTI_LINE_14
 909:Drivers/STM32WBxx_HAL_Driver/Inc/stm32wbxx_ll_exti.h ****   *         @arg @ref LL_EXTI_LINE_15
 910:Drivers/STM32WBxx_HAL_Driver/Inc/stm32wbxx_ll_exti.h ****   *         @arg @ref LL_EXTI_LINE_17
 911:Drivers/STM32WBxx_HAL_Driver/Inc/stm32wbxx_ll_exti.h ****   *         @arg @ref LL_EXTI_LINE_18
 912:Drivers/STM32WBxx_HAL_Driver/Inc/stm32wbxx_ll_exti.h ****   *         @arg @ref LL_EXTI_LINE_19
 913:Drivers/STM32WBxx_HAL_Driver/Inc/stm32wbxx_ll_exti.h ****   *         @arg @ref LL_EXTI_LINE_20 (*)
 914:Drivers/STM32WBxx_HAL_Driver/Inc/stm32wbxx_ll_exti.h ****   *         @arg @ref LL_EXTI_LINE_21 (*)
 915:Drivers/STM32WBxx_HAL_Driver/Inc/stm32wbxx_ll_exti.h ****   *         (*) value not defined in all devices
 916:Drivers/STM32WBxx_HAL_Driver/Inc/stm32wbxx_ll_exti.h ****   * @note   Please check each device line mapping for EXTI Line availability
 917:Drivers/STM32WBxx_HAL_Driver/Inc/stm32wbxx_ll_exti.h ****   * @retval State of bit (1 or 0).
 918:Drivers/STM32WBxx_HAL_Driver/Inc/stm32wbxx_ll_exti.h ****   */
 919:Drivers/STM32WBxx_HAL_Driver/Inc/stm32wbxx_ll_exti.h **** __STATIC_INLINE uint32_t LL_EXTI_IsEnabledEvent_0_31(uint32_t ExtiLine)
 920:Drivers/STM32WBxx_HAL_Driver/Inc/stm32wbxx_ll_exti.h **** {
 921:Drivers/STM32WBxx_HAL_Driver/Inc/stm32wbxx_ll_exti.h ****   return ((READ_BIT(EXTI->EMR1, ExtiLine) == (ExtiLine)) ? 1UL : 0UL);
 922:Drivers/STM32WBxx_HAL_Driver/Inc/stm32wbxx_ll_exti.h **** }
 923:Drivers/STM32WBxx_HAL_Driver/Inc/stm32wbxx_ll_exti.h **** 
 924:Drivers/STM32WBxx_HAL_Driver/Inc/stm32wbxx_ll_exti.h **** /**
 925:Drivers/STM32WBxx_HAL_Driver/Inc/stm32wbxx_ll_exti.h ****   * @brief  Indicate if ExtiLine Event request is enabled for Lines in range 0 to 31 for cpu2
 926:Drivers/STM32WBxx_HAL_Driver/Inc/stm32wbxx_ll_exti.h ****   * @rmtoll C2EMR1         EMx           LL_C2_EXTI_IsEnabledEvent_0_31
 927:Drivers/STM32WBxx_HAL_Driver/Inc/stm32wbxx_ll_exti.h ****   * @param  ExtiLine This parameter can be a combination of the following values:
 928:Drivers/STM32WBxx_HAL_Driver/Inc/stm32wbxx_ll_exti.h ****   *         @arg @ref LL_EXTI_LINE_0
 929:Drivers/STM32WBxx_HAL_Driver/Inc/stm32wbxx_ll_exti.h ****   *         @arg @ref LL_EXTI_LINE_1
 930:Drivers/STM32WBxx_HAL_Driver/Inc/stm32wbxx_ll_exti.h ****   *         @arg @ref LL_EXTI_LINE_2
 931:Drivers/STM32WBxx_HAL_Driver/Inc/stm32wbxx_ll_exti.h ****   *         @arg @ref LL_EXTI_LINE_3
 932:Drivers/STM32WBxx_HAL_Driver/Inc/stm32wbxx_ll_exti.h ****   *         @arg @ref LL_EXTI_LINE_4
 933:Drivers/STM32WBxx_HAL_Driver/Inc/stm32wbxx_ll_exti.h ****   *         @arg @ref LL_EXTI_LINE_5
 934:Drivers/STM32WBxx_HAL_Driver/Inc/stm32wbxx_ll_exti.h ****   *         @arg @ref LL_EXTI_LINE_6
 935:Drivers/STM32WBxx_HAL_Driver/Inc/stm32wbxx_ll_exti.h ****   *         @arg @ref LL_EXTI_LINE_7
 936:Drivers/STM32WBxx_HAL_Driver/Inc/stm32wbxx_ll_exti.h ****   *         @arg @ref LL_EXTI_LINE_8
 937:Drivers/STM32WBxx_HAL_Driver/Inc/stm32wbxx_ll_exti.h ****   *         @arg @ref LL_EXTI_LINE_9
 938:Drivers/STM32WBxx_HAL_Driver/Inc/stm32wbxx_ll_exti.h ****   *         @arg @ref LL_EXTI_LINE_10
 939:Drivers/STM32WBxx_HAL_Driver/Inc/stm32wbxx_ll_exti.h ****   *         @arg @ref LL_EXTI_LINE_11
 940:Drivers/STM32WBxx_HAL_Driver/Inc/stm32wbxx_ll_exti.h ****   *         @arg @ref LL_EXTI_LINE_12
 941:Drivers/STM32WBxx_HAL_Driver/Inc/stm32wbxx_ll_exti.h ****   *         @arg @ref LL_EXTI_LINE_13
 942:Drivers/STM32WBxx_HAL_Driver/Inc/stm32wbxx_ll_exti.h ****   *         @arg @ref LL_EXTI_LINE_14
 943:Drivers/STM32WBxx_HAL_Driver/Inc/stm32wbxx_ll_exti.h ****   *         @arg @ref LL_EXTI_LINE_15
 944:Drivers/STM32WBxx_HAL_Driver/Inc/stm32wbxx_ll_exti.h ****   *         @arg @ref LL_EXTI_LINE_17
 945:Drivers/STM32WBxx_HAL_Driver/Inc/stm32wbxx_ll_exti.h ****   *         @arg @ref LL_EXTI_LINE_18
 946:Drivers/STM32WBxx_HAL_Driver/Inc/stm32wbxx_ll_exti.h ****   *         @arg @ref LL_EXTI_LINE_19
 947:Drivers/STM32WBxx_HAL_Driver/Inc/stm32wbxx_ll_exti.h ****   *         @arg @ref LL_EXTI_LINE_20 (*)
 948:Drivers/STM32WBxx_HAL_Driver/Inc/stm32wbxx_ll_exti.h ****   *         @arg @ref LL_EXTI_LINE_21 (*)
 949:Drivers/STM32WBxx_HAL_Driver/Inc/stm32wbxx_ll_exti.h ****   *         (*) value not defined in all devices
 950:Drivers/STM32WBxx_HAL_Driver/Inc/stm32wbxx_ll_exti.h ****   * @note   Please check each device line mapping for EXTI Line availability
 951:Drivers/STM32WBxx_HAL_Driver/Inc/stm32wbxx_ll_exti.h ****   * @retval State of bit (1 or 0).
 952:Drivers/STM32WBxx_HAL_Driver/Inc/stm32wbxx_ll_exti.h ****   */
 953:Drivers/STM32WBxx_HAL_Driver/Inc/stm32wbxx_ll_exti.h **** __STATIC_INLINE uint32_t LL_C2_EXTI_IsEnabledEvent_0_31(uint32_t ExtiLine)
 954:Drivers/STM32WBxx_HAL_Driver/Inc/stm32wbxx_ll_exti.h **** {
 955:Drivers/STM32WBxx_HAL_Driver/Inc/stm32wbxx_ll_exti.h ****   return ((READ_BIT(EXTI->C2EMR1, ExtiLine) == (ExtiLine)) ? 1UL : 0UL);
 956:Drivers/STM32WBxx_HAL_Driver/Inc/stm32wbxx_ll_exti.h **** }
ARM GAS  C:\Users\Nathan\AppData\Local\Temp\ccvsgOlc.s 			page 90


 957:Drivers/STM32WBxx_HAL_Driver/Inc/stm32wbxx_ll_exti.h **** 
 958:Drivers/STM32WBxx_HAL_Driver/Inc/stm32wbxx_ll_exti.h **** /**
 959:Drivers/STM32WBxx_HAL_Driver/Inc/stm32wbxx_ll_exti.h ****   * @brief  Indicate if ExtiLine Event request is enabled for Lines in range 32 to 63
 960:Drivers/STM32WBxx_HAL_Driver/Inc/stm32wbxx_ll_exti.h ****   * @rmtoll EMR2         EMx           LL_EXTI_IsEnabledEvent_32_63
 961:Drivers/STM32WBxx_HAL_Driver/Inc/stm32wbxx_ll_exti.h ****   * @param  ExtiLine This parameter can be a combination of the following values:
 962:Drivers/STM32WBxx_HAL_Driver/Inc/stm32wbxx_ll_exti.h ****   *         @arg @ref LL_EXTI_LINE_40
 963:Drivers/STM32WBxx_HAL_Driver/Inc/stm32wbxx_ll_exti.h ****   *         @arg @ref LL_EXTI_LINE_41
 964:Drivers/STM32WBxx_HAL_Driver/Inc/stm32wbxx_ll_exti.h ****   * @retval State of bit (1 or 0).
 965:Drivers/STM32WBxx_HAL_Driver/Inc/stm32wbxx_ll_exti.h ****   */
 966:Drivers/STM32WBxx_HAL_Driver/Inc/stm32wbxx_ll_exti.h **** __STATIC_INLINE uint32_t LL_EXTI_IsEnabledEvent_32_63(uint32_t ExtiLine)
 967:Drivers/STM32WBxx_HAL_Driver/Inc/stm32wbxx_ll_exti.h **** {
 968:Drivers/STM32WBxx_HAL_Driver/Inc/stm32wbxx_ll_exti.h ****   return ((READ_BIT(EXTI->EMR2, ExtiLine) == (ExtiLine)) ? 1UL : 0UL);
 969:Drivers/STM32WBxx_HAL_Driver/Inc/stm32wbxx_ll_exti.h **** }
 970:Drivers/STM32WBxx_HAL_Driver/Inc/stm32wbxx_ll_exti.h **** 
 971:Drivers/STM32WBxx_HAL_Driver/Inc/stm32wbxx_ll_exti.h **** /**
 972:Drivers/STM32WBxx_HAL_Driver/Inc/stm32wbxx_ll_exti.h ****   * @brief  Indicate if ExtiLine Event request is enabled for Lines in range 32 to 63 for cpu2
 973:Drivers/STM32WBxx_HAL_Driver/Inc/stm32wbxx_ll_exti.h ****   * @rmtoll EMR2         EMx           LL_C2_EXTI_IsEnabledEvent_32_63
 974:Drivers/STM32WBxx_HAL_Driver/Inc/stm32wbxx_ll_exti.h ****   * @param  ExtiLine This parameter can be a combination of the following values:
 975:Drivers/STM32WBxx_HAL_Driver/Inc/stm32wbxx_ll_exti.h ****   *         @arg @ref LL_EXTI_LINE_40
 976:Drivers/STM32WBxx_HAL_Driver/Inc/stm32wbxx_ll_exti.h ****   *         @arg @ref LL_EXTI_LINE_41
 977:Drivers/STM32WBxx_HAL_Driver/Inc/stm32wbxx_ll_exti.h ****   * @retval State of bit (1 or 0).
 978:Drivers/STM32WBxx_HAL_Driver/Inc/stm32wbxx_ll_exti.h ****   */
 979:Drivers/STM32WBxx_HAL_Driver/Inc/stm32wbxx_ll_exti.h **** __STATIC_INLINE uint32_t LL_C2_EXTI_IsEnabledEvent_32_63(uint32_t ExtiLine)
 980:Drivers/STM32WBxx_HAL_Driver/Inc/stm32wbxx_ll_exti.h **** {
 981:Drivers/STM32WBxx_HAL_Driver/Inc/stm32wbxx_ll_exti.h ****   return ((READ_BIT(EXTI->C2EMR2, ExtiLine) == (ExtiLine)) ? 1UL : 0UL);
 982:Drivers/STM32WBxx_HAL_Driver/Inc/stm32wbxx_ll_exti.h **** }
 983:Drivers/STM32WBxx_HAL_Driver/Inc/stm32wbxx_ll_exti.h **** 
 984:Drivers/STM32WBxx_HAL_Driver/Inc/stm32wbxx_ll_exti.h **** /**
 985:Drivers/STM32WBxx_HAL_Driver/Inc/stm32wbxx_ll_exti.h ****   * @}
 986:Drivers/STM32WBxx_HAL_Driver/Inc/stm32wbxx_ll_exti.h ****   */
 987:Drivers/STM32WBxx_HAL_Driver/Inc/stm32wbxx_ll_exti.h **** 
 988:Drivers/STM32WBxx_HAL_Driver/Inc/stm32wbxx_ll_exti.h **** /** @defgroup EXTI_LL_EF_Rising_Trigger_Management Rising_Trigger_Management
 989:Drivers/STM32WBxx_HAL_Driver/Inc/stm32wbxx_ll_exti.h ****   * @{
 990:Drivers/STM32WBxx_HAL_Driver/Inc/stm32wbxx_ll_exti.h ****   */
 991:Drivers/STM32WBxx_HAL_Driver/Inc/stm32wbxx_ll_exti.h **** 
 992:Drivers/STM32WBxx_HAL_Driver/Inc/stm32wbxx_ll_exti.h **** /**
 993:Drivers/STM32WBxx_HAL_Driver/Inc/stm32wbxx_ll_exti.h ****   * @brief  Enable ExtiLine Rising Edge Trigger for Lines in range 0 to 31
 994:Drivers/STM32WBxx_HAL_Driver/Inc/stm32wbxx_ll_exti.h ****   * @note The configurable wakeup lines are edge-triggered. No glitch must be
 995:Drivers/STM32WBxx_HAL_Driver/Inc/stm32wbxx_ll_exti.h ****   *       generated on these lines. If a rising edge on a configurable interrupt
 996:Drivers/STM32WBxx_HAL_Driver/Inc/stm32wbxx_ll_exti.h ****   *       line occurs during a write operation in the EXTI_RTSR register, the
 997:Drivers/STM32WBxx_HAL_Driver/Inc/stm32wbxx_ll_exti.h ****   *       pending bit is not set.
 998:Drivers/STM32WBxx_HAL_Driver/Inc/stm32wbxx_ll_exti.h ****   *       Rising and falling edge triggers can be set for
 999:Drivers/STM32WBxx_HAL_Driver/Inc/stm32wbxx_ll_exti.h ****   *       the same interrupt line. In this case, both generate a trigger
1000:Drivers/STM32WBxx_HAL_Driver/Inc/stm32wbxx_ll_exti.h ****   *       condition.
1001:Drivers/STM32WBxx_HAL_Driver/Inc/stm32wbxx_ll_exti.h ****   * @rmtoll RTSR1        RTx           LL_EXTI_EnableRisingTrig_0_31
1002:Drivers/STM32WBxx_HAL_Driver/Inc/stm32wbxx_ll_exti.h ****   * @param  ExtiLine This parameter can be a combination of the following values:
1003:Drivers/STM32WBxx_HAL_Driver/Inc/stm32wbxx_ll_exti.h ****   *         @arg @ref LL_EXTI_LINE_0
1004:Drivers/STM32WBxx_HAL_Driver/Inc/stm32wbxx_ll_exti.h ****   *         @arg @ref LL_EXTI_LINE_1
1005:Drivers/STM32WBxx_HAL_Driver/Inc/stm32wbxx_ll_exti.h ****   *         @arg @ref LL_EXTI_LINE_2
1006:Drivers/STM32WBxx_HAL_Driver/Inc/stm32wbxx_ll_exti.h ****   *         @arg @ref LL_EXTI_LINE_3
1007:Drivers/STM32WBxx_HAL_Driver/Inc/stm32wbxx_ll_exti.h ****   *         @arg @ref LL_EXTI_LINE_4
1008:Drivers/STM32WBxx_HAL_Driver/Inc/stm32wbxx_ll_exti.h ****   *         @arg @ref LL_EXTI_LINE_5
1009:Drivers/STM32WBxx_HAL_Driver/Inc/stm32wbxx_ll_exti.h ****   *         @arg @ref LL_EXTI_LINE_6
1010:Drivers/STM32WBxx_HAL_Driver/Inc/stm32wbxx_ll_exti.h ****   *         @arg @ref LL_EXTI_LINE_7
1011:Drivers/STM32WBxx_HAL_Driver/Inc/stm32wbxx_ll_exti.h ****   *         @arg @ref LL_EXTI_LINE_8
1012:Drivers/STM32WBxx_HAL_Driver/Inc/stm32wbxx_ll_exti.h ****   *         @arg @ref LL_EXTI_LINE_9
1013:Drivers/STM32WBxx_HAL_Driver/Inc/stm32wbxx_ll_exti.h ****   *         @arg @ref LL_EXTI_LINE_10
ARM GAS  C:\Users\Nathan\AppData\Local\Temp\ccvsgOlc.s 			page 91


1014:Drivers/STM32WBxx_HAL_Driver/Inc/stm32wbxx_ll_exti.h ****   *         @arg @ref LL_EXTI_LINE_11
1015:Drivers/STM32WBxx_HAL_Driver/Inc/stm32wbxx_ll_exti.h ****   *         @arg @ref LL_EXTI_LINE_12
1016:Drivers/STM32WBxx_HAL_Driver/Inc/stm32wbxx_ll_exti.h ****   *         @arg @ref LL_EXTI_LINE_13
1017:Drivers/STM32WBxx_HAL_Driver/Inc/stm32wbxx_ll_exti.h ****   *         @arg @ref LL_EXTI_LINE_14
1018:Drivers/STM32WBxx_HAL_Driver/Inc/stm32wbxx_ll_exti.h ****   *         @arg @ref LL_EXTI_LINE_15
1019:Drivers/STM32WBxx_HAL_Driver/Inc/stm32wbxx_ll_exti.h ****   *         @arg @ref LL_EXTI_LINE_16
1020:Drivers/STM32WBxx_HAL_Driver/Inc/stm32wbxx_ll_exti.h ****   *         @arg @ref LL_EXTI_LINE_17
1021:Drivers/STM32WBxx_HAL_Driver/Inc/stm32wbxx_ll_exti.h ****   *         @arg @ref LL_EXTI_LINE_18
1022:Drivers/STM32WBxx_HAL_Driver/Inc/stm32wbxx_ll_exti.h ****   *         @arg @ref LL_EXTI_LINE_19
1023:Drivers/STM32WBxx_HAL_Driver/Inc/stm32wbxx_ll_exti.h ****   *         @arg @ref LL_EXTI_LINE_20 (*)
1024:Drivers/STM32WBxx_HAL_Driver/Inc/stm32wbxx_ll_exti.h ****   *         @arg @ref LL_EXTI_LINE_21 (*)
1025:Drivers/STM32WBxx_HAL_Driver/Inc/stm32wbxx_ll_exti.h ****   *         @arg @ref LL_EXTI_LINE_31 (*)
1026:Drivers/STM32WBxx_HAL_Driver/Inc/stm32wbxx_ll_exti.h ****   *         (*) value not defined in all devices
1027:Drivers/STM32WBxx_HAL_Driver/Inc/stm32wbxx_ll_exti.h ****   * @retval None
1028:Drivers/STM32WBxx_HAL_Driver/Inc/stm32wbxx_ll_exti.h ****   */
1029:Drivers/STM32WBxx_HAL_Driver/Inc/stm32wbxx_ll_exti.h **** __STATIC_INLINE void LL_EXTI_EnableRisingTrig_0_31(uint32_t ExtiLine)
1030:Drivers/STM32WBxx_HAL_Driver/Inc/stm32wbxx_ll_exti.h **** {
1031:Drivers/STM32WBxx_HAL_Driver/Inc/stm32wbxx_ll_exti.h ****   SET_BIT(EXTI->RTSR1, ExtiLine);
1032:Drivers/STM32WBxx_HAL_Driver/Inc/stm32wbxx_ll_exti.h **** 
1033:Drivers/STM32WBxx_HAL_Driver/Inc/stm32wbxx_ll_exti.h **** }
1034:Drivers/STM32WBxx_HAL_Driver/Inc/stm32wbxx_ll_exti.h **** 
1035:Drivers/STM32WBxx_HAL_Driver/Inc/stm32wbxx_ll_exti.h **** /**
1036:Drivers/STM32WBxx_HAL_Driver/Inc/stm32wbxx_ll_exti.h ****   * @brief  Enable ExtiLine Rising Edge Trigger for Lines in range 32 to 63
1037:Drivers/STM32WBxx_HAL_Driver/Inc/stm32wbxx_ll_exti.h ****   * @note The configurable wakeup lines are edge-triggered. No glitch must be
1038:Drivers/STM32WBxx_HAL_Driver/Inc/stm32wbxx_ll_exti.h ****   *       generated on these lines. If a rising edge on a configurable interrupt
1039:Drivers/STM32WBxx_HAL_Driver/Inc/stm32wbxx_ll_exti.h ****   *       line occurs during a write operation in the EXTI_RTSR register, the
1040:Drivers/STM32WBxx_HAL_Driver/Inc/stm32wbxx_ll_exti.h ****   *       pending bit is not set.Rising and falling edge triggers can be set for
1041:Drivers/STM32WBxx_HAL_Driver/Inc/stm32wbxx_ll_exti.h ****   *       the same interrupt line. In this case, both generate a trigger
1042:Drivers/STM32WBxx_HAL_Driver/Inc/stm32wbxx_ll_exti.h ****   *       condition.
1043:Drivers/STM32WBxx_HAL_Driver/Inc/stm32wbxx_ll_exti.h ****   * @rmtoll RTSR2        RTx           LL_EXTI_EnableRisingTrig_32_63
1044:Drivers/STM32WBxx_HAL_Driver/Inc/stm32wbxx_ll_exti.h ****   * @param  ExtiLine This parameter can be a combination of the following values:
1045:Drivers/STM32WBxx_HAL_Driver/Inc/stm32wbxx_ll_exti.h ****   *         @arg @ref LL_EXTI_LINE_33 (*)
1046:Drivers/STM32WBxx_HAL_Driver/Inc/stm32wbxx_ll_exti.h ****   *         @arg @ref LL_EXTI_LINE_40
1047:Drivers/STM32WBxx_HAL_Driver/Inc/stm32wbxx_ll_exti.h ****   *         @arg @ref LL_EXTI_LINE_41
1048:Drivers/STM32WBxx_HAL_Driver/Inc/stm32wbxx_ll_exti.h ****   *         (*) value not defined in all devices
1049:Drivers/STM32WBxx_HAL_Driver/Inc/stm32wbxx_ll_exti.h ****   * @retval None
1050:Drivers/STM32WBxx_HAL_Driver/Inc/stm32wbxx_ll_exti.h ****   */
1051:Drivers/STM32WBxx_HAL_Driver/Inc/stm32wbxx_ll_exti.h **** __STATIC_INLINE void LL_EXTI_EnableRisingTrig_32_63(uint32_t ExtiLine)
1052:Drivers/STM32WBxx_HAL_Driver/Inc/stm32wbxx_ll_exti.h **** {
1053:Drivers/STM32WBxx_HAL_Driver/Inc/stm32wbxx_ll_exti.h ****   SET_BIT(EXTI->RTSR2, ExtiLine);
1054:Drivers/STM32WBxx_HAL_Driver/Inc/stm32wbxx_ll_exti.h **** }
1055:Drivers/STM32WBxx_HAL_Driver/Inc/stm32wbxx_ll_exti.h **** 
1056:Drivers/STM32WBxx_HAL_Driver/Inc/stm32wbxx_ll_exti.h **** /**
1057:Drivers/STM32WBxx_HAL_Driver/Inc/stm32wbxx_ll_exti.h ****   * @brief  Disable ExtiLine Rising Edge Trigger for Lines in range 0 to 31
1058:Drivers/STM32WBxx_HAL_Driver/Inc/stm32wbxx_ll_exti.h ****   * @note The configurable wakeup lines are edge-triggered. No glitch must be
1059:Drivers/STM32WBxx_HAL_Driver/Inc/stm32wbxx_ll_exti.h ****   *       generated on these lines. If a rising edge on a configurable interrupt
1060:Drivers/STM32WBxx_HAL_Driver/Inc/stm32wbxx_ll_exti.h ****   *       line occurs during a write operation in the EXTI_RTSR register, the
1061:Drivers/STM32WBxx_HAL_Driver/Inc/stm32wbxx_ll_exti.h ****   *       pending bit is not set.
1062:Drivers/STM32WBxx_HAL_Driver/Inc/stm32wbxx_ll_exti.h ****   *       Rising and falling edge triggers can be set for
1063:Drivers/STM32WBxx_HAL_Driver/Inc/stm32wbxx_ll_exti.h ****   *       the same interrupt line. In this case, both generate a trigger
1064:Drivers/STM32WBxx_HAL_Driver/Inc/stm32wbxx_ll_exti.h ****   *       condition.
1065:Drivers/STM32WBxx_HAL_Driver/Inc/stm32wbxx_ll_exti.h ****   * @rmtoll RTSR1        RTx           LL_EXTI_DisableRisingTrig_0_31
1066:Drivers/STM32WBxx_HAL_Driver/Inc/stm32wbxx_ll_exti.h ****   * @param  ExtiLine This parameter can be a combination of the following values:
1067:Drivers/STM32WBxx_HAL_Driver/Inc/stm32wbxx_ll_exti.h ****   *         @arg @ref LL_EXTI_LINE_0
1068:Drivers/STM32WBxx_HAL_Driver/Inc/stm32wbxx_ll_exti.h ****   *         @arg @ref LL_EXTI_LINE_1
1069:Drivers/STM32WBxx_HAL_Driver/Inc/stm32wbxx_ll_exti.h ****   *         @arg @ref LL_EXTI_LINE_2
1070:Drivers/STM32WBxx_HAL_Driver/Inc/stm32wbxx_ll_exti.h ****   *         @arg @ref LL_EXTI_LINE_3
ARM GAS  C:\Users\Nathan\AppData\Local\Temp\ccvsgOlc.s 			page 92


1071:Drivers/STM32WBxx_HAL_Driver/Inc/stm32wbxx_ll_exti.h ****   *         @arg @ref LL_EXTI_LINE_4
1072:Drivers/STM32WBxx_HAL_Driver/Inc/stm32wbxx_ll_exti.h ****   *         @arg @ref LL_EXTI_LINE_5
1073:Drivers/STM32WBxx_HAL_Driver/Inc/stm32wbxx_ll_exti.h ****   *         @arg @ref LL_EXTI_LINE_6
1074:Drivers/STM32WBxx_HAL_Driver/Inc/stm32wbxx_ll_exti.h ****   *         @arg @ref LL_EXTI_LINE_7
1075:Drivers/STM32WBxx_HAL_Driver/Inc/stm32wbxx_ll_exti.h ****   *         @arg @ref LL_EXTI_LINE_8
1076:Drivers/STM32WBxx_HAL_Driver/Inc/stm32wbxx_ll_exti.h ****   *         @arg @ref LL_EXTI_LINE_9
1077:Drivers/STM32WBxx_HAL_Driver/Inc/stm32wbxx_ll_exti.h ****   *         @arg @ref LL_EXTI_LINE_10
1078:Drivers/STM32WBxx_HAL_Driver/Inc/stm32wbxx_ll_exti.h ****   *         @arg @ref LL_EXTI_LINE_11
1079:Drivers/STM32WBxx_HAL_Driver/Inc/stm32wbxx_ll_exti.h ****   *         @arg @ref LL_EXTI_LINE_12
1080:Drivers/STM32WBxx_HAL_Driver/Inc/stm32wbxx_ll_exti.h ****   *         @arg @ref LL_EXTI_LINE_13
1081:Drivers/STM32WBxx_HAL_Driver/Inc/stm32wbxx_ll_exti.h ****   *         @arg @ref LL_EXTI_LINE_14
1082:Drivers/STM32WBxx_HAL_Driver/Inc/stm32wbxx_ll_exti.h ****   *         @arg @ref LL_EXTI_LINE_15
1083:Drivers/STM32WBxx_HAL_Driver/Inc/stm32wbxx_ll_exti.h ****   *         @arg @ref LL_EXTI_LINE_16
1084:Drivers/STM32WBxx_HAL_Driver/Inc/stm32wbxx_ll_exti.h ****   *         @arg @ref LL_EXTI_LINE_17
1085:Drivers/STM32WBxx_HAL_Driver/Inc/stm32wbxx_ll_exti.h ****   *         @arg @ref LL_EXTI_LINE_18
1086:Drivers/STM32WBxx_HAL_Driver/Inc/stm32wbxx_ll_exti.h ****   *         @arg @ref LL_EXTI_LINE_19
1087:Drivers/STM32WBxx_HAL_Driver/Inc/stm32wbxx_ll_exti.h ****   *         @arg @ref LL_EXTI_LINE_20 (*)
1088:Drivers/STM32WBxx_HAL_Driver/Inc/stm32wbxx_ll_exti.h ****   *         @arg @ref LL_EXTI_LINE_21 (*)
1089:Drivers/STM32WBxx_HAL_Driver/Inc/stm32wbxx_ll_exti.h ****   *         @arg @ref LL_EXTI_LINE_31 (*)
1090:Drivers/STM32WBxx_HAL_Driver/Inc/stm32wbxx_ll_exti.h ****   *         (*) value not defined in all devices
1091:Drivers/STM32WBxx_HAL_Driver/Inc/stm32wbxx_ll_exti.h ****   * @retval None
1092:Drivers/STM32WBxx_HAL_Driver/Inc/stm32wbxx_ll_exti.h ****   */
1093:Drivers/STM32WBxx_HAL_Driver/Inc/stm32wbxx_ll_exti.h **** __STATIC_INLINE void LL_EXTI_DisableRisingTrig_0_31(uint32_t ExtiLine)
1094:Drivers/STM32WBxx_HAL_Driver/Inc/stm32wbxx_ll_exti.h **** {
1095:Drivers/STM32WBxx_HAL_Driver/Inc/stm32wbxx_ll_exti.h ****   CLEAR_BIT(EXTI->RTSR1, ExtiLine);
1096:Drivers/STM32WBxx_HAL_Driver/Inc/stm32wbxx_ll_exti.h **** 
1097:Drivers/STM32WBxx_HAL_Driver/Inc/stm32wbxx_ll_exti.h **** }
1098:Drivers/STM32WBxx_HAL_Driver/Inc/stm32wbxx_ll_exti.h **** 
1099:Drivers/STM32WBxx_HAL_Driver/Inc/stm32wbxx_ll_exti.h **** /**
1100:Drivers/STM32WBxx_HAL_Driver/Inc/stm32wbxx_ll_exti.h ****   * @brief  Disable ExtiLine Rising Edge Trigger for Lines in range 32 to 63
1101:Drivers/STM32WBxx_HAL_Driver/Inc/stm32wbxx_ll_exti.h ****   * @note The configurable wakeup lines are edge-triggered. No glitch must be
1102:Drivers/STM32WBxx_HAL_Driver/Inc/stm32wbxx_ll_exti.h ****   *       generated on these lines. If a rising edge on a configurable interrupt
1103:Drivers/STM32WBxx_HAL_Driver/Inc/stm32wbxx_ll_exti.h ****   *       line occurs during a write operation in the EXTI_RTSR register, the
1104:Drivers/STM32WBxx_HAL_Driver/Inc/stm32wbxx_ll_exti.h ****   *       pending bit is not set.
1105:Drivers/STM32WBxx_HAL_Driver/Inc/stm32wbxx_ll_exti.h ****   *       Rising and falling edge triggers can be set for
1106:Drivers/STM32WBxx_HAL_Driver/Inc/stm32wbxx_ll_exti.h ****   *       the same interrupt line. In this case, both generate a trigger
1107:Drivers/STM32WBxx_HAL_Driver/Inc/stm32wbxx_ll_exti.h ****   *       condition.
1108:Drivers/STM32WBxx_HAL_Driver/Inc/stm32wbxx_ll_exti.h ****   * @rmtoll RTSR2        RTx           LL_EXTI_DisableRisingTrig_32_63
1109:Drivers/STM32WBxx_HAL_Driver/Inc/stm32wbxx_ll_exti.h ****   * @param  ExtiLine This parameter can be a combination of the following values:
1110:Drivers/STM32WBxx_HAL_Driver/Inc/stm32wbxx_ll_exti.h ****   *         @arg @ref LL_EXTI_LINE_33 (*)
1111:Drivers/STM32WBxx_HAL_Driver/Inc/stm32wbxx_ll_exti.h ****   *         @arg @ref LL_EXTI_LINE_40
1112:Drivers/STM32WBxx_HAL_Driver/Inc/stm32wbxx_ll_exti.h ****   *         @arg @ref LL_EXTI_LINE_41
1113:Drivers/STM32WBxx_HAL_Driver/Inc/stm32wbxx_ll_exti.h ****   *         (*) value not defined in all devices
1114:Drivers/STM32WBxx_HAL_Driver/Inc/stm32wbxx_ll_exti.h ****   * @retval None
1115:Drivers/STM32WBxx_HAL_Driver/Inc/stm32wbxx_ll_exti.h ****   */
1116:Drivers/STM32WBxx_HAL_Driver/Inc/stm32wbxx_ll_exti.h **** __STATIC_INLINE void LL_EXTI_DisableRisingTrig_32_63(uint32_t ExtiLine)
1117:Drivers/STM32WBxx_HAL_Driver/Inc/stm32wbxx_ll_exti.h **** {
1118:Drivers/STM32WBxx_HAL_Driver/Inc/stm32wbxx_ll_exti.h ****   CLEAR_BIT(EXTI->RTSR2, ExtiLine);
1119:Drivers/STM32WBxx_HAL_Driver/Inc/stm32wbxx_ll_exti.h **** }
1120:Drivers/STM32WBxx_HAL_Driver/Inc/stm32wbxx_ll_exti.h **** 
1121:Drivers/STM32WBxx_HAL_Driver/Inc/stm32wbxx_ll_exti.h **** /**
1122:Drivers/STM32WBxx_HAL_Driver/Inc/stm32wbxx_ll_exti.h ****   * @brief  Check if rising edge trigger is enabled for Lines in range 0 to 31
1123:Drivers/STM32WBxx_HAL_Driver/Inc/stm32wbxx_ll_exti.h ****   * @rmtoll RTSR1        RTx           LL_EXTI_IsEnabledRisingTrig_0_31
1124:Drivers/STM32WBxx_HAL_Driver/Inc/stm32wbxx_ll_exti.h ****   * @param  ExtiLine This parameter can be a combination of the following values:
1125:Drivers/STM32WBxx_HAL_Driver/Inc/stm32wbxx_ll_exti.h ****   *         @arg @ref LL_EXTI_LINE_0
1126:Drivers/STM32WBxx_HAL_Driver/Inc/stm32wbxx_ll_exti.h ****   *         @arg @ref LL_EXTI_LINE_1
1127:Drivers/STM32WBxx_HAL_Driver/Inc/stm32wbxx_ll_exti.h ****   *         @arg @ref LL_EXTI_LINE_2
ARM GAS  C:\Users\Nathan\AppData\Local\Temp\ccvsgOlc.s 			page 93


1128:Drivers/STM32WBxx_HAL_Driver/Inc/stm32wbxx_ll_exti.h ****   *         @arg @ref LL_EXTI_LINE_3
1129:Drivers/STM32WBxx_HAL_Driver/Inc/stm32wbxx_ll_exti.h ****   *         @arg @ref LL_EXTI_LINE_4
1130:Drivers/STM32WBxx_HAL_Driver/Inc/stm32wbxx_ll_exti.h ****   *         @arg @ref LL_EXTI_LINE_5
1131:Drivers/STM32WBxx_HAL_Driver/Inc/stm32wbxx_ll_exti.h ****   *         @arg @ref LL_EXTI_LINE_6
1132:Drivers/STM32WBxx_HAL_Driver/Inc/stm32wbxx_ll_exti.h ****   *         @arg @ref LL_EXTI_LINE_7
1133:Drivers/STM32WBxx_HAL_Driver/Inc/stm32wbxx_ll_exti.h ****   *         @arg @ref LL_EXTI_LINE_8
1134:Drivers/STM32WBxx_HAL_Driver/Inc/stm32wbxx_ll_exti.h ****   *         @arg @ref LL_EXTI_LINE_9
1135:Drivers/STM32WBxx_HAL_Driver/Inc/stm32wbxx_ll_exti.h ****   *         @arg @ref LL_EXTI_LINE_10
1136:Drivers/STM32WBxx_HAL_Driver/Inc/stm32wbxx_ll_exti.h ****   *         @arg @ref LL_EXTI_LINE_11
1137:Drivers/STM32WBxx_HAL_Driver/Inc/stm32wbxx_ll_exti.h ****   *         @arg @ref LL_EXTI_LINE_12
1138:Drivers/STM32WBxx_HAL_Driver/Inc/stm32wbxx_ll_exti.h ****   *         @arg @ref LL_EXTI_LINE_13
1139:Drivers/STM32WBxx_HAL_Driver/Inc/stm32wbxx_ll_exti.h ****   *         @arg @ref LL_EXTI_LINE_14
1140:Drivers/STM32WBxx_HAL_Driver/Inc/stm32wbxx_ll_exti.h ****   *         @arg @ref LL_EXTI_LINE_15
1141:Drivers/STM32WBxx_HAL_Driver/Inc/stm32wbxx_ll_exti.h ****   *         @arg @ref LL_EXTI_LINE_16
1142:Drivers/STM32WBxx_HAL_Driver/Inc/stm32wbxx_ll_exti.h ****   *         @arg @ref LL_EXTI_LINE_17
1143:Drivers/STM32WBxx_HAL_Driver/Inc/stm32wbxx_ll_exti.h ****   *         @arg @ref LL_EXTI_LINE_18
1144:Drivers/STM32WBxx_HAL_Driver/Inc/stm32wbxx_ll_exti.h ****   *         @arg @ref LL_EXTI_LINE_19
1145:Drivers/STM32WBxx_HAL_Driver/Inc/stm32wbxx_ll_exti.h ****   *         @arg @ref LL_EXTI_LINE_20 (*)
1146:Drivers/STM32WBxx_HAL_Driver/Inc/stm32wbxx_ll_exti.h ****   *         @arg @ref LL_EXTI_LINE_21 (*)
1147:Drivers/STM32WBxx_HAL_Driver/Inc/stm32wbxx_ll_exti.h ****   *         @arg @ref LL_EXTI_LINE_31 (*)
1148:Drivers/STM32WBxx_HAL_Driver/Inc/stm32wbxx_ll_exti.h ****   *         (*) value not defined in all devices
1149:Drivers/STM32WBxx_HAL_Driver/Inc/stm32wbxx_ll_exti.h ****   * @retval State of bit (1 or 0).
1150:Drivers/STM32WBxx_HAL_Driver/Inc/stm32wbxx_ll_exti.h ****   */
1151:Drivers/STM32WBxx_HAL_Driver/Inc/stm32wbxx_ll_exti.h **** __STATIC_INLINE uint32_t LL_EXTI_IsEnabledRisingTrig_0_31(uint32_t ExtiLine)
1152:Drivers/STM32WBxx_HAL_Driver/Inc/stm32wbxx_ll_exti.h **** {
1153:Drivers/STM32WBxx_HAL_Driver/Inc/stm32wbxx_ll_exti.h ****   return ((READ_BIT(EXTI->RTSR1, ExtiLine) == (ExtiLine)) ? 1UL : 0UL);
1154:Drivers/STM32WBxx_HAL_Driver/Inc/stm32wbxx_ll_exti.h **** }
1155:Drivers/STM32WBxx_HAL_Driver/Inc/stm32wbxx_ll_exti.h **** 
1156:Drivers/STM32WBxx_HAL_Driver/Inc/stm32wbxx_ll_exti.h **** /**
1157:Drivers/STM32WBxx_HAL_Driver/Inc/stm32wbxx_ll_exti.h ****   * @brief  Check if rising edge trigger is enabled for Lines in range 32 to 63
1158:Drivers/STM32WBxx_HAL_Driver/Inc/stm32wbxx_ll_exti.h ****   * @rmtoll RTSR2        RTx           LL_EXTI_IsEnabledRisingTrig_32_63
1159:Drivers/STM32WBxx_HAL_Driver/Inc/stm32wbxx_ll_exti.h ****   * @param  ExtiLine This parameter can be a combination of the following values:
1160:Drivers/STM32WBxx_HAL_Driver/Inc/stm32wbxx_ll_exti.h ****   *         @arg @ref LL_EXTI_LINE_33 (*)
1161:Drivers/STM32WBxx_HAL_Driver/Inc/stm32wbxx_ll_exti.h ****   *         @arg @ref LL_EXTI_LINE_40
1162:Drivers/STM32WBxx_HAL_Driver/Inc/stm32wbxx_ll_exti.h ****   *         @arg @ref LL_EXTI_LINE_41
1163:Drivers/STM32WBxx_HAL_Driver/Inc/stm32wbxx_ll_exti.h ****   *         (*) value not defined in all devices
1164:Drivers/STM32WBxx_HAL_Driver/Inc/stm32wbxx_ll_exti.h ****   * @retval State of bit (1 or 0).
1165:Drivers/STM32WBxx_HAL_Driver/Inc/stm32wbxx_ll_exti.h ****   */
1166:Drivers/STM32WBxx_HAL_Driver/Inc/stm32wbxx_ll_exti.h **** __STATIC_INLINE uint32_t LL_EXTI_IsEnabledRisingTrig_32_63(uint32_t ExtiLine)
1167:Drivers/STM32WBxx_HAL_Driver/Inc/stm32wbxx_ll_exti.h **** {
1168:Drivers/STM32WBxx_HAL_Driver/Inc/stm32wbxx_ll_exti.h ****   return ((READ_BIT(EXTI->RTSR2, ExtiLine) == (ExtiLine)) ? 1UL : 0UL);
1169:Drivers/STM32WBxx_HAL_Driver/Inc/stm32wbxx_ll_exti.h **** }
1170:Drivers/STM32WBxx_HAL_Driver/Inc/stm32wbxx_ll_exti.h **** 
1171:Drivers/STM32WBxx_HAL_Driver/Inc/stm32wbxx_ll_exti.h **** /**
1172:Drivers/STM32WBxx_HAL_Driver/Inc/stm32wbxx_ll_exti.h ****   * @}
1173:Drivers/STM32WBxx_HAL_Driver/Inc/stm32wbxx_ll_exti.h ****   */
1174:Drivers/STM32WBxx_HAL_Driver/Inc/stm32wbxx_ll_exti.h **** 
1175:Drivers/STM32WBxx_HAL_Driver/Inc/stm32wbxx_ll_exti.h **** /** @defgroup EXTI_LL_EF_Falling_Trigger_Management Falling_Trigger_Management
1176:Drivers/STM32WBxx_HAL_Driver/Inc/stm32wbxx_ll_exti.h ****   * @{
1177:Drivers/STM32WBxx_HAL_Driver/Inc/stm32wbxx_ll_exti.h ****   */
1178:Drivers/STM32WBxx_HAL_Driver/Inc/stm32wbxx_ll_exti.h **** 
1179:Drivers/STM32WBxx_HAL_Driver/Inc/stm32wbxx_ll_exti.h **** /**
1180:Drivers/STM32WBxx_HAL_Driver/Inc/stm32wbxx_ll_exti.h ****   * @brief  Enable ExtiLine Falling Edge Trigger for Lines in range 0 to 31
1181:Drivers/STM32WBxx_HAL_Driver/Inc/stm32wbxx_ll_exti.h ****   * @note The configurable wakeup lines are edge-triggered. No glitch must be
1182:Drivers/STM32WBxx_HAL_Driver/Inc/stm32wbxx_ll_exti.h ****   *       generated on these lines. If a falling edge on a configurable interrupt
1183:Drivers/STM32WBxx_HAL_Driver/Inc/stm32wbxx_ll_exti.h ****   *       line occurs during a write operation in the EXTI_FTSR register, the
1184:Drivers/STM32WBxx_HAL_Driver/Inc/stm32wbxx_ll_exti.h ****   *       pending bit is not set.
ARM GAS  C:\Users\Nathan\AppData\Local\Temp\ccvsgOlc.s 			page 94


1185:Drivers/STM32WBxx_HAL_Driver/Inc/stm32wbxx_ll_exti.h ****   *       Rising and falling edge triggers can be set for
1186:Drivers/STM32WBxx_HAL_Driver/Inc/stm32wbxx_ll_exti.h ****   *       the same interrupt line. In this case, both generate a trigger
1187:Drivers/STM32WBxx_HAL_Driver/Inc/stm32wbxx_ll_exti.h ****   *       condition.
1188:Drivers/STM32WBxx_HAL_Driver/Inc/stm32wbxx_ll_exti.h ****   * @rmtoll FTSR1        FTx           LL_EXTI_EnableFallingTrig_0_31
1189:Drivers/STM32WBxx_HAL_Driver/Inc/stm32wbxx_ll_exti.h ****   * @param  ExtiLine This parameter can be a combination of the following values:
1190:Drivers/STM32WBxx_HAL_Driver/Inc/stm32wbxx_ll_exti.h ****   *         @arg @ref LL_EXTI_LINE_0
1191:Drivers/STM32WBxx_HAL_Driver/Inc/stm32wbxx_ll_exti.h ****   *         @arg @ref LL_EXTI_LINE_1
1192:Drivers/STM32WBxx_HAL_Driver/Inc/stm32wbxx_ll_exti.h ****   *         @arg @ref LL_EXTI_LINE_2
1193:Drivers/STM32WBxx_HAL_Driver/Inc/stm32wbxx_ll_exti.h ****   *         @arg @ref LL_EXTI_LINE_3
1194:Drivers/STM32WBxx_HAL_Driver/Inc/stm32wbxx_ll_exti.h ****   *         @arg @ref LL_EXTI_LINE_4
1195:Drivers/STM32WBxx_HAL_Driver/Inc/stm32wbxx_ll_exti.h ****   *         @arg @ref LL_EXTI_LINE_5
1196:Drivers/STM32WBxx_HAL_Driver/Inc/stm32wbxx_ll_exti.h ****   *         @arg @ref LL_EXTI_LINE_6
1197:Drivers/STM32WBxx_HAL_Driver/Inc/stm32wbxx_ll_exti.h ****   *         @arg @ref LL_EXTI_LINE_7
1198:Drivers/STM32WBxx_HAL_Driver/Inc/stm32wbxx_ll_exti.h ****   *         @arg @ref LL_EXTI_LINE_8
1199:Drivers/STM32WBxx_HAL_Driver/Inc/stm32wbxx_ll_exti.h ****   *         @arg @ref LL_EXTI_LINE_9
1200:Drivers/STM32WBxx_HAL_Driver/Inc/stm32wbxx_ll_exti.h ****   *         @arg @ref LL_EXTI_LINE_10
1201:Drivers/STM32WBxx_HAL_Driver/Inc/stm32wbxx_ll_exti.h ****   *         @arg @ref LL_EXTI_LINE_11
1202:Drivers/STM32WBxx_HAL_Driver/Inc/stm32wbxx_ll_exti.h ****   *         @arg @ref LL_EXTI_LINE_12
1203:Drivers/STM32WBxx_HAL_Driver/Inc/stm32wbxx_ll_exti.h ****   *         @arg @ref LL_EXTI_LINE_13
1204:Drivers/STM32WBxx_HAL_Driver/Inc/stm32wbxx_ll_exti.h ****   *         @arg @ref LL_EXTI_LINE_14
1205:Drivers/STM32WBxx_HAL_Driver/Inc/stm32wbxx_ll_exti.h ****   *         @arg @ref LL_EXTI_LINE_15
1206:Drivers/STM32WBxx_HAL_Driver/Inc/stm32wbxx_ll_exti.h ****   *         @arg @ref LL_EXTI_LINE_16
1207:Drivers/STM32WBxx_HAL_Driver/Inc/stm32wbxx_ll_exti.h ****   *         @arg @ref LL_EXTI_LINE_17
1208:Drivers/STM32WBxx_HAL_Driver/Inc/stm32wbxx_ll_exti.h ****   *         @arg @ref LL_EXTI_LINE_18
1209:Drivers/STM32WBxx_HAL_Driver/Inc/stm32wbxx_ll_exti.h ****   *         @arg @ref LL_EXTI_LINE_19
1210:Drivers/STM32WBxx_HAL_Driver/Inc/stm32wbxx_ll_exti.h ****   *         @arg @ref LL_EXTI_LINE_20 (*)
1211:Drivers/STM32WBxx_HAL_Driver/Inc/stm32wbxx_ll_exti.h ****   *         @arg @ref LL_EXTI_LINE_21 (*)
1212:Drivers/STM32WBxx_HAL_Driver/Inc/stm32wbxx_ll_exti.h ****   *         @arg @ref LL_EXTI_LINE_31 (*)
1213:Drivers/STM32WBxx_HAL_Driver/Inc/stm32wbxx_ll_exti.h ****   *         (*) value not defined in all devices
1214:Drivers/STM32WBxx_HAL_Driver/Inc/stm32wbxx_ll_exti.h ****   * @note   Please check each device line mapping for EXTI Line availability
1215:Drivers/STM32WBxx_HAL_Driver/Inc/stm32wbxx_ll_exti.h ****   * @retval None
1216:Drivers/STM32WBxx_HAL_Driver/Inc/stm32wbxx_ll_exti.h ****   */
1217:Drivers/STM32WBxx_HAL_Driver/Inc/stm32wbxx_ll_exti.h **** __STATIC_INLINE void LL_EXTI_EnableFallingTrig_0_31(uint32_t ExtiLine)
1218:Drivers/STM32WBxx_HAL_Driver/Inc/stm32wbxx_ll_exti.h **** {
1219:Drivers/STM32WBxx_HAL_Driver/Inc/stm32wbxx_ll_exti.h ****   SET_BIT(EXTI->FTSR1, ExtiLine);
1220:Drivers/STM32WBxx_HAL_Driver/Inc/stm32wbxx_ll_exti.h **** }
1221:Drivers/STM32WBxx_HAL_Driver/Inc/stm32wbxx_ll_exti.h **** 
1222:Drivers/STM32WBxx_HAL_Driver/Inc/stm32wbxx_ll_exti.h **** /**
1223:Drivers/STM32WBxx_HAL_Driver/Inc/stm32wbxx_ll_exti.h ****   * @brief  Enable ExtiLine Falling Edge Trigger for Lines in range 32 to 63
1224:Drivers/STM32WBxx_HAL_Driver/Inc/stm32wbxx_ll_exti.h ****   * @note The configurable wakeup lines are edge-triggered. No glitch must be
1225:Drivers/STM32WBxx_HAL_Driver/Inc/stm32wbxx_ll_exti.h ****   *       generated on these lines. If a Falling edge on a configurable interrupt
1226:Drivers/STM32WBxx_HAL_Driver/Inc/stm32wbxx_ll_exti.h ****   *       line occurs during a write operation in the EXTI_FTSR register, the
1227:Drivers/STM32WBxx_HAL_Driver/Inc/stm32wbxx_ll_exti.h ****   *       pending bit is not set.
1228:Drivers/STM32WBxx_HAL_Driver/Inc/stm32wbxx_ll_exti.h ****   *       Rising and falling edge triggers can be set for
1229:Drivers/STM32WBxx_HAL_Driver/Inc/stm32wbxx_ll_exti.h ****   *       the same interrupt line. In this case, both generate a trigger
1230:Drivers/STM32WBxx_HAL_Driver/Inc/stm32wbxx_ll_exti.h ****   *       condition.
1231:Drivers/STM32WBxx_HAL_Driver/Inc/stm32wbxx_ll_exti.h ****   * @rmtoll FTSR2        FTx           LL_EXTI_EnableFallingTrig_32_63
1232:Drivers/STM32WBxx_HAL_Driver/Inc/stm32wbxx_ll_exti.h ****   * @param  ExtiLine This parameter can be a combination of the following values:
1233:Drivers/STM32WBxx_HAL_Driver/Inc/stm32wbxx_ll_exti.h ****   *         @arg @ref LL_EXTI_LINE_33 (*)
1234:Drivers/STM32WBxx_HAL_Driver/Inc/stm32wbxx_ll_exti.h ****   *         @arg @ref LL_EXTI_LINE_40
1235:Drivers/STM32WBxx_HAL_Driver/Inc/stm32wbxx_ll_exti.h ****   *         @arg @ref LL_EXTI_LINE_41
1236:Drivers/STM32WBxx_HAL_Driver/Inc/stm32wbxx_ll_exti.h ****   *         (*) value not defined in all devices
1237:Drivers/STM32WBxx_HAL_Driver/Inc/stm32wbxx_ll_exti.h ****   * @retval None
1238:Drivers/STM32WBxx_HAL_Driver/Inc/stm32wbxx_ll_exti.h ****   */
1239:Drivers/STM32WBxx_HAL_Driver/Inc/stm32wbxx_ll_exti.h **** __STATIC_INLINE void LL_EXTI_EnableFallingTrig_32_63(uint32_t ExtiLine)
1240:Drivers/STM32WBxx_HAL_Driver/Inc/stm32wbxx_ll_exti.h **** {
1241:Drivers/STM32WBxx_HAL_Driver/Inc/stm32wbxx_ll_exti.h ****   SET_BIT(EXTI->FTSR2, ExtiLine);
ARM GAS  C:\Users\Nathan\AppData\Local\Temp\ccvsgOlc.s 			page 95


1242:Drivers/STM32WBxx_HAL_Driver/Inc/stm32wbxx_ll_exti.h **** }
1243:Drivers/STM32WBxx_HAL_Driver/Inc/stm32wbxx_ll_exti.h **** 
1244:Drivers/STM32WBxx_HAL_Driver/Inc/stm32wbxx_ll_exti.h **** /**
1245:Drivers/STM32WBxx_HAL_Driver/Inc/stm32wbxx_ll_exti.h ****   * @brief  Disable ExtiLine Falling Edge Trigger for Lines in range 0 to 31
1246:Drivers/STM32WBxx_HAL_Driver/Inc/stm32wbxx_ll_exti.h ****   * @note The configurable wakeup lines are edge-triggered. No glitch must be
1247:Drivers/STM32WBxx_HAL_Driver/Inc/stm32wbxx_ll_exti.h ****   *       generated on these lines. If a Falling edge on a configurable interrupt
1248:Drivers/STM32WBxx_HAL_Driver/Inc/stm32wbxx_ll_exti.h ****   *       line occurs during a write operation in the EXTI_FTSR register, the
1249:Drivers/STM32WBxx_HAL_Driver/Inc/stm32wbxx_ll_exti.h ****   *       pending bit is not set.
1250:Drivers/STM32WBxx_HAL_Driver/Inc/stm32wbxx_ll_exti.h ****   *       Rising and falling edge triggers can be set for the same interrupt line.
1251:Drivers/STM32WBxx_HAL_Driver/Inc/stm32wbxx_ll_exti.h ****   *       In this case, both generate a trigger condition.
1252:Drivers/STM32WBxx_HAL_Driver/Inc/stm32wbxx_ll_exti.h ****   * @rmtoll FTSR1        FTx           LL_EXTI_DisableFallingTrig_0_31
1253:Drivers/STM32WBxx_HAL_Driver/Inc/stm32wbxx_ll_exti.h ****   * @param  ExtiLine This parameter can be a combination of the following values:
1254:Drivers/STM32WBxx_HAL_Driver/Inc/stm32wbxx_ll_exti.h ****   *         @arg @ref LL_EXTI_LINE_0
1255:Drivers/STM32WBxx_HAL_Driver/Inc/stm32wbxx_ll_exti.h ****   *         @arg @ref LL_EXTI_LINE_1
1256:Drivers/STM32WBxx_HAL_Driver/Inc/stm32wbxx_ll_exti.h ****   *         @arg @ref LL_EXTI_LINE_2
1257:Drivers/STM32WBxx_HAL_Driver/Inc/stm32wbxx_ll_exti.h ****   *         @arg @ref LL_EXTI_LINE_3
1258:Drivers/STM32WBxx_HAL_Driver/Inc/stm32wbxx_ll_exti.h ****   *         @arg @ref LL_EXTI_LINE_4
1259:Drivers/STM32WBxx_HAL_Driver/Inc/stm32wbxx_ll_exti.h ****   *         @arg @ref LL_EXTI_LINE_5
1260:Drivers/STM32WBxx_HAL_Driver/Inc/stm32wbxx_ll_exti.h ****   *         @arg @ref LL_EXTI_LINE_6
1261:Drivers/STM32WBxx_HAL_Driver/Inc/stm32wbxx_ll_exti.h ****   *         @arg @ref LL_EXTI_LINE_7
1262:Drivers/STM32WBxx_HAL_Driver/Inc/stm32wbxx_ll_exti.h ****   *         @arg @ref LL_EXTI_LINE_8
1263:Drivers/STM32WBxx_HAL_Driver/Inc/stm32wbxx_ll_exti.h ****   *         @arg @ref LL_EXTI_LINE_9
1264:Drivers/STM32WBxx_HAL_Driver/Inc/stm32wbxx_ll_exti.h ****   *         @arg @ref LL_EXTI_LINE_10
1265:Drivers/STM32WBxx_HAL_Driver/Inc/stm32wbxx_ll_exti.h ****   *         @arg @ref LL_EXTI_LINE_11
1266:Drivers/STM32WBxx_HAL_Driver/Inc/stm32wbxx_ll_exti.h ****   *         @arg @ref LL_EXTI_LINE_12
1267:Drivers/STM32WBxx_HAL_Driver/Inc/stm32wbxx_ll_exti.h ****   *         @arg @ref LL_EXTI_LINE_13
1268:Drivers/STM32WBxx_HAL_Driver/Inc/stm32wbxx_ll_exti.h ****   *         @arg @ref LL_EXTI_LINE_14
1269:Drivers/STM32WBxx_HAL_Driver/Inc/stm32wbxx_ll_exti.h ****   *         @arg @ref LL_EXTI_LINE_15
1270:Drivers/STM32WBxx_HAL_Driver/Inc/stm32wbxx_ll_exti.h ****   *         @arg @ref LL_EXTI_LINE_16
1271:Drivers/STM32WBxx_HAL_Driver/Inc/stm32wbxx_ll_exti.h ****   *         @arg @ref LL_EXTI_LINE_17
1272:Drivers/STM32WBxx_HAL_Driver/Inc/stm32wbxx_ll_exti.h ****   *         @arg @ref LL_EXTI_LINE_18
1273:Drivers/STM32WBxx_HAL_Driver/Inc/stm32wbxx_ll_exti.h ****   *         @arg @ref LL_EXTI_LINE_19
1274:Drivers/STM32WBxx_HAL_Driver/Inc/stm32wbxx_ll_exti.h ****   *         @arg @ref LL_EXTI_LINE_20 (*)
1275:Drivers/STM32WBxx_HAL_Driver/Inc/stm32wbxx_ll_exti.h ****   *         @arg @ref LL_EXTI_LINE_21 (*)
1276:Drivers/STM32WBxx_HAL_Driver/Inc/stm32wbxx_ll_exti.h ****   *         @arg @ref LL_EXTI_LINE_31 (*)
1277:Drivers/STM32WBxx_HAL_Driver/Inc/stm32wbxx_ll_exti.h ****   *         (*) value not defined in all devices
1278:Drivers/STM32WBxx_HAL_Driver/Inc/stm32wbxx_ll_exti.h ****   * @note   Please check each device line mapping for EXTI Line availability
1279:Drivers/STM32WBxx_HAL_Driver/Inc/stm32wbxx_ll_exti.h ****   * @retval None
1280:Drivers/STM32WBxx_HAL_Driver/Inc/stm32wbxx_ll_exti.h ****   */
1281:Drivers/STM32WBxx_HAL_Driver/Inc/stm32wbxx_ll_exti.h **** __STATIC_INLINE void LL_EXTI_DisableFallingTrig_0_31(uint32_t ExtiLine)
 1724              		.loc 3 1281 22 view .LVU321
 1725              	.LBB75:
1282:Drivers/STM32WBxx_HAL_Driver/Inc/stm32wbxx_ll_exti.h **** {
1283:Drivers/STM32WBxx_HAL_Driver/Inc/stm32wbxx_ll_exti.h ****   CLEAR_BIT(EXTI->FTSR1, ExtiLine);
 1726              		.loc 3 1283 3 view .LVU322
 1727 0028 5A68     		ldr	r2, [r3, #4]
 1728 002a 22F00042 		bic	r2, r2, #-2147483648
 1729 002e 5A60     		str	r2, [r3, #4]
 1730              	.LVL90:
 1731              		.loc 3 1283 3 is_stmt 0 view .LVU323
 1732              	.LBE75:
 1733              	.LBE74:
 782:Drivers/STM32WBxx_HAL_Driver/Src/stm32wbxx_hal_pwr_ex.c ****       __HAL_PWR_PVM1_EXTI_DISABLE_RISING_EDGE();
 1734              		.loc 1 782 7 is_stmt 1 view .LVU324
 1735              	.LBB76:
 1736              	.LBI76:
1093:Drivers/STM32WBxx_HAL_Driver/Inc/stm32wbxx_ll_exti.h **** {
ARM GAS  C:\Users\Nathan\AppData\Local\Temp\ccvsgOlc.s 			page 96


 1737              		.loc 3 1093 22 view .LVU325
 1738              	.LBB77:
1095:Drivers/STM32WBxx_HAL_Driver/Inc/stm32wbxx_ll_exti.h **** 
 1739              		.loc 3 1095 3 view .LVU326
 1740 0030 1A68     		ldr	r2, [r3]
 1741 0032 22F00042 		bic	r2, r2, #-2147483648
 1742 0036 1A60     		str	r2, [r3]
 1743              	.LVL91:
1095:Drivers/STM32WBxx_HAL_Driver/Inc/stm32wbxx_ll_exti.h **** 
 1744              		.loc 3 1095 3 is_stmt 0 view .LVU327
 1745              	.LBE77:
 1746              	.LBE76:
 783:Drivers/STM32WBxx_HAL_Driver/Src/stm32wbxx_hal_pwr_ex.c **** 
 784:Drivers/STM32WBxx_HAL_Driver/Src/stm32wbxx_hal_pwr_ex.c ****       /* Configure interrupt mode */
 785:Drivers/STM32WBxx_HAL_Driver/Src/stm32wbxx_hal_pwr_ex.c ****       if ((sConfigPVM->Mode & PVM_MODE_IT) == PVM_MODE_IT)
 1747              		.loc 1 785 7 is_stmt 1 view .LVU328
 1748              		.loc 1 785 22 is_stmt 0 view .LVU329
 1749 0038 4368     		ldr	r3, [r0, #4]
 1750              		.loc 1 785 10 view .LVU330
 1751 003a 13F4803F 		tst	r3, #65536
 1752 003e 06D0     		beq	.L159
 786:Drivers/STM32WBxx_HAL_Driver/Src/stm32wbxx_hal_pwr_ex.c ****       {
 787:Drivers/STM32WBxx_HAL_Driver/Src/stm32wbxx_hal_pwr_ex.c ****         __HAL_PWR_PVM1_EXTI_ENABLE_IT();
 1753              		.loc 1 787 9 is_stmt 1 view .LVU331
 1754              	.LVL92:
 1755              	.LBB78:
 1756              	.LBI78:
 322:Drivers/STM32WBxx_HAL_Driver/Inc/stm32wbxx_ll_exti.h **** {
 1757              		.loc 3 322 22 view .LVU332
 1758              	.LBB79:
 324:Drivers/STM32WBxx_HAL_Driver/Inc/stm32wbxx_ll_exti.h **** }
 1759              		.loc 3 324 3 view .LVU333
 1760 0040 344A     		ldr	r2, .L167
 1761 0042 D2F88030 		ldr	r3, [r2, #128]
 1762 0046 43F00043 		orr	r3, r3, #-2147483648
 1763 004a C2F88030 		str	r3, [r2, #128]
 1764              	.LVL93:
 1765              	.L159:
 324:Drivers/STM32WBxx_HAL_Driver/Inc/stm32wbxx_ll_exti.h **** }
 1766              		.loc 3 324 3 is_stmt 0 view .LVU334
 1767              	.LBE79:
 1768              	.LBE78:
 788:Drivers/STM32WBxx_HAL_Driver/Src/stm32wbxx_hal_pwr_ex.c ****       }
 789:Drivers/STM32WBxx_HAL_Driver/Src/stm32wbxx_hal_pwr_ex.c **** 
 790:Drivers/STM32WBxx_HAL_Driver/Src/stm32wbxx_hal_pwr_ex.c ****       /* Configure event mode */
 791:Drivers/STM32WBxx_HAL_Driver/Src/stm32wbxx_hal_pwr_ex.c ****       if ((sConfigPVM->Mode & PVM_MODE_EVT) == PVM_MODE_EVT)
 1769              		.loc 1 791 7 is_stmt 1 view .LVU335
 1770              		.loc 1 791 22 is_stmt 0 view .LVU336
 1771 004e 4368     		ldr	r3, [r0, #4]
 1772              		.loc 1 791 10 view .LVU337
 1773 0050 13F4003F 		tst	r3, #131072
 1774 0054 06D0     		beq	.L160
 792:Drivers/STM32WBxx_HAL_Driver/Src/stm32wbxx_hal_pwr_ex.c ****       {
 793:Drivers/STM32WBxx_HAL_Driver/Src/stm32wbxx_hal_pwr_ex.c ****         __HAL_PWR_PVM1_EXTI_ENABLE_EVENT();
 1775              		.loc 1 793 9 is_stmt 1 view .LVU338
 1776              	.LVL94:
 1777              	.LBB80:
ARM GAS  C:\Users\Nathan\AppData\Local\Temp\ccvsgOlc.s 			page 97


 1778              	.LBI80:
 734:Drivers/STM32WBxx_HAL_Driver/Inc/stm32wbxx_ll_exti.h **** {
 1779              		.loc 3 734 22 view .LVU339
 1780              	.LBB81:
 736:Drivers/STM32WBxx_HAL_Driver/Inc/stm32wbxx_ll_exti.h **** }
 1781              		.loc 3 736 3 view .LVU340
 1782 0056 2F4A     		ldr	r2, .L167
 1783 0058 D2F88430 		ldr	r3, [r2, #132]
 1784 005c 43F00043 		orr	r3, r3, #-2147483648
 1785 0060 C2F88430 		str	r3, [r2, #132]
 1786              	.LVL95:
 1787              	.L160:
 736:Drivers/STM32WBxx_HAL_Driver/Inc/stm32wbxx_ll_exti.h **** }
 1788              		.loc 3 736 3 is_stmt 0 view .LVU341
 1789              	.LBE81:
 1790              	.LBE80:
 794:Drivers/STM32WBxx_HAL_Driver/Src/stm32wbxx_hal_pwr_ex.c ****       }
 795:Drivers/STM32WBxx_HAL_Driver/Src/stm32wbxx_hal_pwr_ex.c **** 
 796:Drivers/STM32WBxx_HAL_Driver/Src/stm32wbxx_hal_pwr_ex.c ****       /* Configure the edge */
 797:Drivers/STM32WBxx_HAL_Driver/Src/stm32wbxx_hal_pwr_ex.c ****       if ((sConfigPVM->Mode & PVM_RISING_EDGE) == PVM_RISING_EDGE)
 1791              		.loc 1 797 7 is_stmt 1 view .LVU342
 1792              		.loc 1 797 22 is_stmt 0 view .LVU343
 1793 0064 4368     		ldr	r3, [r0, #4]
 1794              		.loc 1 797 10 view .LVU344
 1795 0066 13F0010F 		tst	r3, #1
 1796 006a 04D0     		beq	.L161
 798:Drivers/STM32WBxx_HAL_Driver/Src/stm32wbxx_hal_pwr_ex.c ****       {
 799:Drivers/STM32WBxx_HAL_Driver/Src/stm32wbxx_hal_pwr_ex.c ****         __HAL_PWR_PVM1_EXTI_ENABLE_RISING_EDGE();
 1797              		.loc 1 799 9 is_stmt 1 view .LVU345
 1798              	.LVL96:
 1799              	.LBB82:
 1800              	.LBI82:
1029:Drivers/STM32WBxx_HAL_Driver/Inc/stm32wbxx_ll_exti.h **** {
 1801              		.loc 3 1029 22 view .LVU346
 1802              	.LBB83:
1031:Drivers/STM32WBxx_HAL_Driver/Inc/stm32wbxx_ll_exti.h **** 
 1803              		.loc 3 1031 3 view .LVU347
 1804 006c 294A     		ldr	r2, .L167
 1805 006e 1368     		ldr	r3, [r2]
 1806 0070 43F00043 		orr	r3, r3, #-2147483648
 1807 0074 1360     		str	r3, [r2]
 1808              	.LVL97:
 1809              	.L161:
1031:Drivers/STM32WBxx_HAL_Driver/Inc/stm32wbxx_ll_exti.h **** 
 1810              		.loc 3 1031 3 is_stmt 0 view .LVU348
 1811              	.LBE83:
 1812              	.LBE82:
 800:Drivers/STM32WBxx_HAL_Driver/Src/stm32wbxx_hal_pwr_ex.c ****       }
 801:Drivers/STM32WBxx_HAL_Driver/Src/stm32wbxx_hal_pwr_ex.c **** 
 802:Drivers/STM32WBxx_HAL_Driver/Src/stm32wbxx_hal_pwr_ex.c ****       if ((sConfigPVM->Mode & PVM_FALLING_EDGE) == PVM_FALLING_EDGE)
 1813              		.loc 1 802 7 is_stmt 1 view .LVU349
 1814              		.loc 1 802 22 is_stmt 0 view .LVU350
 1815 0076 4368     		ldr	r3, [r0, #4]
 1816              		.loc 1 802 10 view .LVU351
 1817 0078 13F0020F 		tst	r3, #2
 1818 007c 45D0     		beq	.L165
 803:Drivers/STM32WBxx_HAL_Driver/Src/stm32wbxx_hal_pwr_ex.c ****       {
ARM GAS  C:\Users\Nathan\AppData\Local\Temp\ccvsgOlc.s 			page 98


 804:Drivers/STM32WBxx_HAL_Driver/Src/stm32wbxx_hal_pwr_ex.c ****         __HAL_PWR_PVM1_EXTI_ENABLE_FALLING_EDGE();
 1819              		.loc 1 804 9 is_stmt 1 view .LVU352
 1820              	.LVL98:
 1821              	.LBB84:
 1822              	.LBI84:
1217:Drivers/STM32WBxx_HAL_Driver/Inc/stm32wbxx_ll_exti.h **** {
 1823              		.loc 3 1217 22 view .LVU353
 1824              	.LBB85:
1219:Drivers/STM32WBxx_HAL_Driver/Inc/stm32wbxx_ll_exti.h **** }
 1825              		.loc 3 1219 3 view .LVU354
 1826 007e 254A     		ldr	r2, .L167
 1827 0080 5368     		ldr	r3, [r2, #4]
 1828 0082 43F00043 		orr	r3, r3, #-2147483648
 1829 0086 5360     		str	r3, [r2, #4]
 1830              	.LVL99:
1219:Drivers/STM32WBxx_HAL_Driver/Inc/stm32wbxx_ll_exti.h **** }
 1831              		.loc 3 1219 3 is_stmt 0 view .LVU355
 1832              	.LBE85:
 1833              	.LBE84:
 765:Drivers/STM32WBxx_HAL_Driver/Src/stm32wbxx_hal_pwr_ex.c **** 
 1834              		.loc 1 765 21 view .LVU356
 1835 0088 0020     		movs	r0, #0
 1836              	.LVL100:
 1837              	.LBB87:
 1838              	.LBB86:
1220:Drivers/STM32WBxx_HAL_Driver/Inc/stm32wbxx_ll_exti.h **** 
 1839              		.loc 3 1220 1 view .LVU357
 1840 008a 7047     		bx	lr
 1841              	.LVL101:
 1842              	.L157:
1220:Drivers/STM32WBxx_HAL_Driver/Inc/stm32wbxx_ll_exti.h **** 
 1843              		.loc 3 1220 1 view .LVU358
 1844              	.LBE86:
 1845              	.LBE87:
 805:Drivers/STM32WBxx_HAL_Driver/Src/stm32wbxx_hal_pwr_ex.c ****       }
 806:Drivers/STM32WBxx_HAL_Driver/Src/stm32wbxx_hal_pwr_ex.c ****       break;
 807:Drivers/STM32WBxx_HAL_Driver/Src/stm32wbxx_hal_pwr_ex.c **** #endif /* PWR_CR2_PVME1 */
 808:Drivers/STM32WBxx_HAL_Driver/Src/stm32wbxx_hal_pwr_ex.c **** 
 809:Drivers/STM32WBxx_HAL_Driver/Src/stm32wbxx_hal_pwr_ex.c ****     case PWR_PVM_3:
 810:Drivers/STM32WBxx_HAL_Driver/Src/stm32wbxx_hal_pwr_ex.c ****       /* Clear any previous config. Keep it clear if no event or IT mode is selected */
 811:Drivers/STM32WBxx_HAL_Driver/Src/stm32wbxx_hal_pwr_ex.c ****       __HAL_PWR_PVM3_EXTI_DISABLE_EVENT();
 1846              		.loc 1 811 7 is_stmt 1 view .LVU359
 1847              	.LBB88:
 1848              	.LBI88:
 872:Drivers/STM32WBxx_HAL_Driver/Inc/stm32wbxx_ll_exti.h **** {
 1849              		.loc 3 872 22 view .LVU360
 1850              	.LBB89:
 874:Drivers/STM32WBxx_HAL_Driver/Inc/stm32wbxx_ll_exti.h **** }
 1851              		.loc 3 874 3 view .LVU361
 1852 008c 214B     		ldr	r3, .L167
 1853 008e D3F89420 		ldr	r2, [r3, #148]
 1854 0092 22F00202 		bic	r2, r2, #2
 1855 0096 C3F89420 		str	r2, [r3, #148]
 1856              	.LVL102:
 874:Drivers/STM32WBxx_HAL_Driver/Inc/stm32wbxx_ll_exti.h **** }
 1857              		.loc 3 874 3 is_stmt 0 view .LVU362
 1858              	.LBE89:
ARM GAS  C:\Users\Nathan\AppData\Local\Temp\ccvsgOlc.s 			page 99


 1859              	.LBE88:
 812:Drivers/STM32WBxx_HAL_Driver/Src/stm32wbxx_hal_pwr_ex.c ****       __HAL_PWR_PVM3_EXTI_DISABLE_IT();
 1860              		.loc 1 812 7 is_stmt 1 view .LVU363
 1861              	.LBB90:
 1862              	.LBI90:
 529:Drivers/STM32WBxx_HAL_Driver/Inc/stm32wbxx_ll_exti.h **** {
 1863              		.loc 3 529 22 view .LVU364
 1864              	.LBB91:
 531:Drivers/STM32WBxx_HAL_Driver/Inc/stm32wbxx_ll_exti.h **** }
 1865              		.loc 3 531 3 view .LVU365
 1866 009a D3F89020 		ldr	r2, [r3, #144]
 1867 009e 22F00202 		bic	r2, r2, #2
 1868 00a2 C3F89020 		str	r2, [r3, #144]
 1869              	.LVL103:
 531:Drivers/STM32WBxx_HAL_Driver/Inc/stm32wbxx_ll_exti.h **** }
 1870              		.loc 3 531 3 is_stmt 0 view .LVU366
 1871              	.LBE91:
 1872              	.LBE90:
 813:Drivers/STM32WBxx_HAL_Driver/Src/stm32wbxx_hal_pwr_ex.c ****       __HAL_PWR_PVM3_EXTI_DISABLE_FALLING_EDGE();
 1873              		.loc 1 813 7 is_stmt 1 view .LVU367
 1874              	.LBB92:
 1875              	.LBI92:
1284:Drivers/STM32WBxx_HAL_Driver/Inc/stm32wbxx_ll_exti.h **** }
1285:Drivers/STM32WBxx_HAL_Driver/Inc/stm32wbxx_ll_exti.h **** 
1286:Drivers/STM32WBxx_HAL_Driver/Inc/stm32wbxx_ll_exti.h **** /**
1287:Drivers/STM32WBxx_HAL_Driver/Inc/stm32wbxx_ll_exti.h ****   * @brief  Disable ExtiLine Falling Edge Trigger for Lines in range 32 to 63
1288:Drivers/STM32WBxx_HAL_Driver/Inc/stm32wbxx_ll_exti.h ****   * @note The configurable wakeup lines are edge-triggered. No glitch must be
1289:Drivers/STM32WBxx_HAL_Driver/Inc/stm32wbxx_ll_exti.h ****   *       generated on these lines. If a Falling edge on a configurable interrupt
1290:Drivers/STM32WBxx_HAL_Driver/Inc/stm32wbxx_ll_exti.h ****   *       line occurs during a write operation in the EXTI_FTSR register, the
1291:Drivers/STM32WBxx_HAL_Driver/Inc/stm32wbxx_ll_exti.h ****   *       pending bit is not set.
1292:Drivers/STM32WBxx_HAL_Driver/Inc/stm32wbxx_ll_exti.h ****   *       Rising and falling edge triggers can be set for the same interrupt line.
1293:Drivers/STM32WBxx_HAL_Driver/Inc/stm32wbxx_ll_exti.h ****   *       In this case, both generate a trigger condition.
1294:Drivers/STM32WBxx_HAL_Driver/Inc/stm32wbxx_ll_exti.h ****   * @rmtoll FTSR2        FTx           LL_EXTI_DisableFallingTrig_32_63
1295:Drivers/STM32WBxx_HAL_Driver/Inc/stm32wbxx_ll_exti.h ****   * @param  ExtiLine This parameter can be a combination of the following values:
1296:Drivers/STM32WBxx_HAL_Driver/Inc/stm32wbxx_ll_exti.h ****   *         @arg @ref LL_EXTI_LINE_33 (*)
1297:Drivers/STM32WBxx_HAL_Driver/Inc/stm32wbxx_ll_exti.h ****   *         @arg @ref LL_EXTI_LINE_40
1298:Drivers/STM32WBxx_HAL_Driver/Inc/stm32wbxx_ll_exti.h ****   *         @arg @ref LL_EXTI_LINE_41
1299:Drivers/STM32WBxx_HAL_Driver/Inc/stm32wbxx_ll_exti.h ****   *         (*) value not defined in all devices
1300:Drivers/STM32WBxx_HAL_Driver/Inc/stm32wbxx_ll_exti.h ****   * @retval None
1301:Drivers/STM32WBxx_HAL_Driver/Inc/stm32wbxx_ll_exti.h ****   */
1302:Drivers/STM32WBxx_HAL_Driver/Inc/stm32wbxx_ll_exti.h **** __STATIC_INLINE void LL_EXTI_DisableFallingTrig_32_63(uint32_t ExtiLine)
 1876              		.loc 3 1302 22 view .LVU368
 1877              	.LBB93:
1303:Drivers/STM32WBxx_HAL_Driver/Inc/stm32wbxx_ll_exti.h **** {
1304:Drivers/STM32WBxx_HAL_Driver/Inc/stm32wbxx_ll_exti.h ****   CLEAR_BIT(EXTI->FTSR2, ExtiLine);
 1878              		.loc 3 1304 3 view .LVU369
 1879 00a6 5A6A     		ldr	r2, [r3, #36]
 1880 00a8 22F00202 		bic	r2, r2, #2
 1881 00ac 5A62     		str	r2, [r3, #36]
 1882              	.LVL104:
 1883              		.loc 3 1304 3 is_stmt 0 view .LVU370
 1884              	.LBE93:
 1885              	.LBE92:
 814:Drivers/STM32WBxx_HAL_Driver/Src/stm32wbxx_hal_pwr_ex.c ****       __HAL_PWR_PVM3_EXTI_DISABLE_RISING_EDGE();
 1886              		.loc 1 814 7 is_stmt 1 view .LVU371
 1887              	.LBB94:
 1888              	.LBI94:
ARM GAS  C:\Users\Nathan\AppData\Local\Temp\ccvsgOlc.s 			page 100


1116:Drivers/STM32WBxx_HAL_Driver/Inc/stm32wbxx_ll_exti.h **** {
 1889              		.loc 3 1116 22 view .LVU372
 1890              	.LBB95:
1118:Drivers/STM32WBxx_HAL_Driver/Inc/stm32wbxx_ll_exti.h **** }
 1891              		.loc 3 1118 3 view .LVU373
 1892 00ae 1A6A     		ldr	r2, [r3, #32]
 1893 00b0 22F00202 		bic	r2, r2, #2
 1894 00b4 1A62     		str	r2, [r3, #32]
 1895              	.LVL105:
1118:Drivers/STM32WBxx_HAL_Driver/Inc/stm32wbxx_ll_exti.h **** }
 1896              		.loc 3 1118 3 is_stmt 0 view .LVU374
 1897              	.LBE95:
 1898              	.LBE94:
 815:Drivers/STM32WBxx_HAL_Driver/Src/stm32wbxx_hal_pwr_ex.c **** 
 816:Drivers/STM32WBxx_HAL_Driver/Src/stm32wbxx_hal_pwr_ex.c ****       /* Configure interrupt mode */
 817:Drivers/STM32WBxx_HAL_Driver/Src/stm32wbxx_hal_pwr_ex.c ****       if ((sConfigPVM->Mode & PVM_MODE_IT) == PVM_MODE_IT)
 1899              		.loc 1 817 7 is_stmt 1 view .LVU375
 1900              		.loc 1 817 22 is_stmt 0 view .LVU376
 1901 00b6 4368     		ldr	r3, [r0, #4]
 1902              		.loc 1 817 10 view .LVU377
 1903 00b8 13F4803F 		tst	r3, #65536
 1904 00bc 06D0     		beq	.L162
 818:Drivers/STM32WBxx_HAL_Driver/Src/stm32wbxx_hal_pwr_ex.c ****       {
 819:Drivers/STM32WBxx_HAL_Driver/Src/stm32wbxx_hal_pwr_ex.c ****         __HAL_PWR_PVM3_EXTI_ENABLE_IT();
 1905              		.loc 1 819 9 is_stmt 1 view .LVU378
 1906              	.LVL106:
 1907              	.LBB96:
 1908              	.LBI96:
 391:Drivers/STM32WBxx_HAL_Driver/Inc/stm32wbxx_ll_exti.h **** {
 1909              		.loc 3 391 22 view .LVU379
 1910              	.LBB97:
 393:Drivers/STM32WBxx_HAL_Driver/Inc/stm32wbxx_ll_exti.h **** }
 1911              		.loc 3 393 3 view .LVU380
 1912 00be 154A     		ldr	r2, .L167
 1913 00c0 D2F89030 		ldr	r3, [r2, #144]
 1914 00c4 43F00203 		orr	r3, r3, #2
 1915 00c8 C2F89030 		str	r3, [r2, #144]
 1916              	.LVL107:
 1917              	.L162:
 393:Drivers/STM32WBxx_HAL_Driver/Inc/stm32wbxx_ll_exti.h **** }
 1918              		.loc 3 393 3 is_stmt 0 view .LVU381
 1919              	.LBE97:
 1920              	.LBE96:
 820:Drivers/STM32WBxx_HAL_Driver/Src/stm32wbxx_hal_pwr_ex.c ****       }
 821:Drivers/STM32WBxx_HAL_Driver/Src/stm32wbxx_hal_pwr_ex.c **** 
 822:Drivers/STM32WBxx_HAL_Driver/Src/stm32wbxx_hal_pwr_ex.c ****       /* Configure event mode */
 823:Drivers/STM32WBxx_HAL_Driver/Src/stm32wbxx_hal_pwr_ex.c ****       if ((sConfigPVM->Mode & PVM_MODE_EVT) == PVM_MODE_EVT)
 1921              		.loc 1 823 7 is_stmt 1 view .LVU382
 1922              		.loc 1 823 22 is_stmt 0 view .LVU383
 1923 00cc 4368     		ldr	r3, [r0, #4]
 1924              		.loc 1 823 10 view .LVU384
 1925 00ce 13F4003F 		tst	r3, #131072
 1926 00d2 06D0     		beq	.L163
 824:Drivers/STM32WBxx_HAL_Driver/Src/stm32wbxx_hal_pwr_ex.c ****       {
 825:Drivers/STM32WBxx_HAL_Driver/Src/stm32wbxx_hal_pwr_ex.c ****         __HAL_PWR_PVM3_EXTI_ENABLE_EVENT();
 1927              		.loc 1 825 9 is_stmt 1 view .LVU385
 1928              	.LVL108:
ARM GAS  C:\Users\Nathan\AppData\Local\Temp\ccvsgOlc.s 			page 101


 1929              	.LBB98:
 1930              	.LBI98:
 780:Drivers/STM32WBxx_HAL_Driver/Inc/stm32wbxx_ll_exti.h **** {
 1931              		.loc 3 780 22 view .LVU386
 1932              	.LBB99:
 782:Drivers/STM32WBxx_HAL_Driver/Inc/stm32wbxx_ll_exti.h **** }
 1933              		.loc 3 782 3 view .LVU387
 1934 00d4 0F4A     		ldr	r2, .L167
 1935 00d6 D2F89430 		ldr	r3, [r2, #148]
 1936 00da 43F00203 		orr	r3, r3, #2
 1937 00de C2F89430 		str	r3, [r2, #148]
 1938              	.LVL109:
 1939              	.L163:
 782:Drivers/STM32WBxx_HAL_Driver/Inc/stm32wbxx_ll_exti.h **** }
 1940              		.loc 3 782 3 is_stmt 0 view .LVU388
 1941              	.LBE99:
 1942              	.LBE98:
 826:Drivers/STM32WBxx_HAL_Driver/Src/stm32wbxx_hal_pwr_ex.c ****       }
 827:Drivers/STM32WBxx_HAL_Driver/Src/stm32wbxx_hal_pwr_ex.c **** 
 828:Drivers/STM32WBxx_HAL_Driver/Src/stm32wbxx_hal_pwr_ex.c ****       /* Configure the edge */
 829:Drivers/STM32WBxx_HAL_Driver/Src/stm32wbxx_hal_pwr_ex.c ****       if ((sConfigPVM->Mode & PVM_RISING_EDGE) == PVM_RISING_EDGE)
 1943              		.loc 1 829 7 is_stmt 1 view .LVU389
 1944              		.loc 1 829 22 is_stmt 0 view .LVU390
 1945 00e2 4368     		ldr	r3, [r0, #4]
 1946              		.loc 1 829 10 view .LVU391
 1947 00e4 13F0010F 		tst	r3, #1
 1948 00e8 04D0     		beq	.L164
 830:Drivers/STM32WBxx_HAL_Driver/Src/stm32wbxx_hal_pwr_ex.c ****       {
 831:Drivers/STM32WBxx_HAL_Driver/Src/stm32wbxx_hal_pwr_ex.c ****         __HAL_PWR_PVM3_EXTI_ENABLE_RISING_EDGE();
 1949              		.loc 1 831 9 is_stmt 1 view .LVU392
 1950              	.LVL110:
 1951              	.LBB100:
 1952              	.LBI100:
1051:Drivers/STM32WBxx_HAL_Driver/Inc/stm32wbxx_ll_exti.h **** {
 1953              		.loc 3 1051 22 view .LVU393
 1954              	.LBB101:
1053:Drivers/STM32WBxx_HAL_Driver/Inc/stm32wbxx_ll_exti.h **** }
 1955              		.loc 3 1053 3 view .LVU394
 1956 00ea 0A4A     		ldr	r2, .L167
 1957 00ec 136A     		ldr	r3, [r2, #32]
 1958 00ee 43F00203 		orr	r3, r3, #2
 1959 00f2 1362     		str	r3, [r2, #32]
 1960              	.LVL111:
 1961              	.L164:
1053:Drivers/STM32WBxx_HAL_Driver/Inc/stm32wbxx_ll_exti.h **** }
 1962              		.loc 3 1053 3 is_stmt 0 view .LVU395
 1963              	.LBE101:
 1964              	.LBE100:
 832:Drivers/STM32WBxx_HAL_Driver/Src/stm32wbxx_hal_pwr_ex.c ****       }
 833:Drivers/STM32WBxx_HAL_Driver/Src/stm32wbxx_hal_pwr_ex.c **** 
 834:Drivers/STM32WBxx_HAL_Driver/Src/stm32wbxx_hal_pwr_ex.c ****       if ((sConfigPVM->Mode & PVM_FALLING_EDGE) == PVM_FALLING_EDGE)
 1965              		.loc 1 834 7 is_stmt 1 view .LVU396
 1966              		.loc 1 834 22 is_stmt 0 view .LVU397
 1967 00f4 4368     		ldr	r3, [r0, #4]
 1968              		.loc 1 834 10 view .LVU398
 1969 00f6 13F0020F 		tst	r3, #2
 1970 00fa 08D0     		beq	.L166
ARM GAS  C:\Users\Nathan\AppData\Local\Temp\ccvsgOlc.s 			page 102


 835:Drivers/STM32WBxx_HAL_Driver/Src/stm32wbxx_hal_pwr_ex.c ****       {
 836:Drivers/STM32WBxx_HAL_Driver/Src/stm32wbxx_hal_pwr_ex.c ****         __HAL_PWR_PVM3_EXTI_ENABLE_FALLING_EDGE();
 1971              		.loc 1 836 9 is_stmt 1 view .LVU399
 1972              	.LVL112:
 1973              	.LBB102:
 1974              	.LBI102:
1239:Drivers/STM32WBxx_HAL_Driver/Inc/stm32wbxx_ll_exti.h **** {
 1975              		.loc 3 1239 22 view .LVU400
 1976              	.LBB103:
1241:Drivers/STM32WBxx_HAL_Driver/Inc/stm32wbxx_ll_exti.h **** }
 1977              		.loc 3 1241 3 view .LVU401
 1978 00fc 054A     		ldr	r2, .L167
 1979 00fe 536A     		ldr	r3, [r2, #36]
 1980 0100 43F00203 		orr	r3, r3, #2
 1981 0104 5362     		str	r3, [r2, #36]
 1982              	.LVL113:
1241:Drivers/STM32WBxx_HAL_Driver/Inc/stm32wbxx_ll_exti.h **** }
 1983              		.loc 3 1241 3 is_stmt 0 view .LVU402
 1984              	.LBE103:
 1985              	.LBE102:
 765:Drivers/STM32WBxx_HAL_Driver/Src/stm32wbxx_hal_pwr_ex.c **** 
 1986              		.loc 1 765 21 view .LVU403
 1987 0106 0020     		movs	r0, #0
 1988              	.LVL114:
 1989              	.LBB105:
 1990              	.LBB104:
1242:Drivers/STM32WBxx_HAL_Driver/Inc/stm32wbxx_ll_exti.h **** 
 1991              		.loc 3 1242 1 view .LVU404
 1992 0108 7047     		bx	lr
 1993              	.LVL115:
 1994              	.L165:
1242:Drivers/STM32WBxx_HAL_Driver/Inc/stm32wbxx_ll_exti.h **** 
 1995              		.loc 3 1242 1 view .LVU405
 1996              	.LBE104:
 1997              	.LBE105:
 765:Drivers/STM32WBxx_HAL_Driver/Src/stm32wbxx_hal_pwr_ex.c **** 
 1998              		.loc 1 765 21 view .LVU406
 1999 010a 0020     		movs	r0, #0
 2000              	.LVL116:
 765:Drivers/STM32WBxx_HAL_Driver/Src/stm32wbxx_hal_pwr_ex.c **** 
 2001              		.loc 1 765 21 view .LVU407
 2002 010c 7047     		bx	lr
 2003              	.LVL117:
 2004              	.L166:
 765:Drivers/STM32WBxx_HAL_Driver/Src/stm32wbxx_hal_pwr_ex.c **** 
 2005              		.loc 1 765 21 view .LVU408
 2006 010e 0020     		movs	r0, #0
 2007              	.LVL118:
 837:Drivers/STM32WBxx_HAL_Driver/Src/stm32wbxx_hal_pwr_ex.c ****       }
 838:Drivers/STM32WBxx_HAL_Driver/Src/stm32wbxx_hal_pwr_ex.c ****       break;
 839:Drivers/STM32WBxx_HAL_Driver/Src/stm32wbxx_hal_pwr_ex.c **** 
 840:Drivers/STM32WBxx_HAL_Driver/Src/stm32wbxx_hal_pwr_ex.c ****     default:
 841:Drivers/STM32WBxx_HAL_Driver/Src/stm32wbxx_hal_pwr_ex.c ****       status = HAL_ERROR;
 842:Drivers/STM32WBxx_HAL_Driver/Src/stm32wbxx_hal_pwr_ex.c ****       break;
 843:Drivers/STM32WBxx_HAL_Driver/Src/stm32wbxx_hal_pwr_ex.c **** 
 844:Drivers/STM32WBxx_HAL_Driver/Src/stm32wbxx_hal_pwr_ex.c ****   }
 845:Drivers/STM32WBxx_HAL_Driver/Src/stm32wbxx_hal_pwr_ex.c **** 
ARM GAS  C:\Users\Nathan\AppData\Local\Temp\ccvsgOlc.s 			page 103


 846:Drivers/STM32WBxx_HAL_Driver/Src/stm32wbxx_hal_pwr_ex.c ****   return status;
 2008              		.loc 1 846 3 is_stmt 1 view .LVU409
 847:Drivers/STM32WBxx_HAL_Driver/Src/stm32wbxx_hal_pwr_ex.c **** }
 2009              		.loc 1 847 1 is_stmt 0 view .LVU410
 2010 0110 7047     		bx	lr
 2011              	.L168:
 2012 0112 00BF     		.align	2
 2013              	.L167:
 2014 0114 00080058 		.word	1476397056
 2015              		.cfi_endproc
 2016              	.LFE1140:
 2018              		.section	.text.HAL_PWREx_ConfigSMPS,"ax",%progbits
 2019              		.align	1
 2020              		.global	HAL_PWREx_ConfigSMPS
 2021              		.syntax unified
 2022              		.thumb
 2023              		.thumb_func
 2025              	HAL_PWREx_ConfigSMPS:
 2026              	.LVL119:
 2027              	.LFB1141:
 848:Drivers/STM32WBxx_HAL_Driver/Src/stm32wbxx_hal_pwr_ex.c **** 
 849:Drivers/STM32WBxx_HAL_Driver/Src/stm32wbxx_hal_pwr_ex.c **** #if defined(PWR_CR5_SMPSEN)
 850:Drivers/STM32WBxx_HAL_Driver/Src/stm32wbxx_hal_pwr_ex.c **** /**
 851:Drivers/STM32WBxx_HAL_Driver/Src/stm32wbxx_hal_pwr_ex.c ****   * @brief Configure the SMPS step down converter.
 852:Drivers/STM32WBxx_HAL_Driver/Src/stm32wbxx_hal_pwr_ex.c ****   * @note   SMPS output voltage is calibrated in production,
 853:Drivers/STM32WBxx_HAL_Driver/Src/stm32wbxx_hal_pwr_ex.c ****   *         calibration parameters are applied to the voltage level parameter
 854:Drivers/STM32WBxx_HAL_Driver/Src/stm32wbxx_hal_pwr_ex.c ****   *         to reach the requested voltage value.
 855:Drivers/STM32WBxx_HAL_Driver/Src/stm32wbxx_hal_pwr_ex.c ****   * @param sConfigSMPS pointer to a PWR_SMPSTypeDef structure that contains the
 856:Drivers/STM32WBxx_HAL_Driver/Src/stm32wbxx_hal_pwr_ex.c ****   *        SMPS configuration information.
 857:Drivers/STM32WBxx_HAL_Driver/Src/stm32wbxx_hal_pwr_ex.c ****   * @note  To set and enable SMPS operating mode, refer to function
 858:Drivers/STM32WBxx_HAL_Driver/Src/stm32wbxx_hal_pwr_ex.c ****   *        "HAL_PWREx_SMPS_SetMode()".
 859:Drivers/STM32WBxx_HAL_Driver/Src/stm32wbxx_hal_pwr_ex.c ****   * @retval HAL status
 860:Drivers/STM32WBxx_HAL_Driver/Src/stm32wbxx_hal_pwr_ex.c ****   */
 861:Drivers/STM32WBxx_HAL_Driver/Src/stm32wbxx_hal_pwr_ex.c **** HAL_StatusTypeDef HAL_PWREx_ConfigSMPS(PWR_SMPSTypeDef *sConfigSMPS)
 862:Drivers/STM32WBxx_HAL_Driver/Src/stm32wbxx_hal_pwr_ex.c **** {
 2028              		.loc 1 862 1 is_stmt 1 view -0
 2029              		.cfi_startproc
 2030              		@ args = 0, pretend = 0, frame = 8
 2031              		@ frame_needed = 0, uses_anonymous_args = 0
 2032              		@ link register save eliminated.
 2033              		.loc 1 862 1 is_stmt 0 view .LVU412
 2034 0000 10B4     		push	{r4}
 2035              		.cfi_def_cfa_offset 4
 2036              		.cfi_offset 4, -4
 2037 0002 83B0     		sub	sp, sp, #12
 2038              		.cfi_def_cfa_offset 16
 2039 0004 0346     		mov	r3, r0
 863:Drivers/STM32WBxx_HAL_Driver/Src/stm32wbxx_hal_pwr_ex.c ****   HAL_StatusTypeDef status = HAL_OK;
 2040              		.loc 1 863 3 is_stmt 1 view .LVU413
 2041              	.LVL120:
 864:Drivers/STM32WBxx_HAL_Driver/Src/stm32wbxx_hal_pwr_ex.c **** 
 865:Drivers/STM32WBxx_HAL_Driver/Src/stm32wbxx_hal_pwr_ex.c ****   /* Check the parameters */
 866:Drivers/STM32WBxx_HAL_Driver/Src/stm32wbxx_hal_pwr_ex.c ****   assert_param(IS_PWR_SMPS_STARTUP_CURRENT(sConfigSMPS->StartupCurrent));
 2042              		.loc 1 866 3 view .LVU414
 867:Drivers/STM32WBxx_HAL_Driver/Src/stm32wbxx_hal_pwr_ex.c ****   assert_param(IS_PWR_SMPS_OUTPUT_VOLTAGE(sConfigSMPS->OutputVoltage));
 2043              		.loc 1 867 3 view .LVU415
 868:Drivers/STM32WBxx_HAL_Driver/Src/stm32wbxx_hal_pwr_ex.c **** 
ARM GAS  C:\Users\Nathan\AppData\Local\Temp\ccvsgOlc.s 			page 104


 869:Drivers/STM32WBxx_HAL_Driver/Src/stm32wbxx_hal_pwr_ex.c ****   __IO const uint32_t OutputVoltageLevel_calibration = (((*SMPS_VOLTAGE_CAL_ADDR) & SMPS_VOLTAGE_CA
 2044              		.loc 1 869 3 view .LVU416
 2045              		.loc 1 869 59 is_stmt 0 view .LVU417
 2046 0006 164A     		ldr	r2, .L176
 2047 0008 D2F85825 		ldr	r2, [r2, #1368]
 2048              		.loc 1 869 103 view .LVU418
 2049 000c C2F30322 		ubfx	r2, r2, #8, #4
 2050              		.loc 1 869 23 view .LVU419
 2051 0010 0192     		str	r2, [sp, #4]
 870:Drivers/STM32WBxx_HAL_Driver/Src/stm32wbxx_hal_pwr_ex.c ****   int32_t TrimmingSteps;                         /* Trimming steps between theoretical output volta
 2052              		.loc 1 870 3 is_stmt 1 view .LVU420
 871:Drivers/STM32WBxx_HAL_Driver/Src/stm32wbxx_hal_pwr_ex.c ****   int32_t OutputVoltageLevelTrimmed;             /* SMPS output voltage level after calibration: tr
 2053              		.loc 1 871 3 view .LVU421
 872:Drivers/STM32WBxx_HAL_Driver/Src/stm32wbxx_hal_pwr_ex.c **** 
 873:Drivers/STM32WBxx_HAL_Driver/Src/stm32wbxx_hal_pwr_ex.c ****   if (OutputVoltageLevel_calibration == 0UL)
 2054              		.loc 1 873 3 view .LVU422
 2055              		.loc 1 873 38 is_stmt 0 view .LVU423
 2056 0012 019A     		ldr	r2, [sp, #4]
 2057              		.loc 1 873 6 view .LVU424
 2058 0014 6AB9     		cbnz	r2, .L170
 874:Drivers/STM32WBxx_HAL_Driver/Src/stm32wbxx_hal_pwr_ex.c ****   {
 875:Drivers/STM32WBxx_HAL_Driver/Src/stm32wbxx_hal_pwr_ex.c ****     /* Device with SMPS output voltage not calibrated in production: Apply output voltage value dir
 876:Drivers/STM32WBxx_HAL_Driver/Src/stm32wbxx_hal_pwr_ex.c **** 
 877:Drivers/STM32WBxx_HAL_Driver/Src/stm32wbxx_hal_pwr_ex.c ****     /* Update register */
 878:Drivers/STM32WBxx_HAL_Driver/Src/stm32wbxx_hal_pwr_ex.c ****     MODIFY_REG(PWR->CR5, PWR_CR5_SMPSVOS, (sConfigSMPS->StartupCurrent | sConfigSMPS->OutputVoltage
 2059              		.loc 1 878 5 is_stmt 1 view .LVU425
 2060 0016 1348     		ldr	r0, .L176+4
 2061              	.LVL121:
 2062              		.loc 1 878 5 is_stmt 0 view .LVU426
 2063 0018 C269     		ldr	r2, [r0, #28]
 2064 001a 22F00F02 		bic	r2, r2, #15
 2065 001e 1968     		ldr	r1, [r3]
 2066 0020 5B68     		ldr	r3, [r3, #4]
 2067              	.LVL122:
 2068              		.loc 1 878 5 view .LVU427
 2069 0022 0B43     		orrs	r3, r3, r1
 2070 0024 1343     		orrs	r3, r3, r2
 2071 0026 C361     		str	r3, [r0, #28]
 863:Drivers/STM32WBxx_HAL_Driver/Src/stm32wbxx_hal_pwr_ex.c **** 
 2072              		.loc 1 863 21 view .LVU428
 2073 0028 0020     		movs	r0, #0
 2074              	.LVL123:
 2075              	.L171:
 879:Drivers/STM32WBxx_HAL_Driver/Src/stm32wbxx_hal_pwr_ex.c ****   }
 880:Drivers/STM32WBxx_HAL_Driver/Src/stm32wbxx_hal_pwr_ex.c ****   else
 881:Drivers/STM32WBxx_HAL_Driver/Src/stm32wbxx_hal_pwr_ex.c ****   {
 882:Drivers/STM32WBxx_HAL_Driver/Src/stm32wbxx_hal_pwr_ex.c ****     /* Device with SMPS output voltage calibrated in production: Apply output voltage value after c
 883:Drivers/STM32WBxx_HAL_Driver/Src/stm32wbxx_hal_pwr_ex.c **** 
 884:Drivers/STM32WBxx_HAL_Driver/Src/stm32wbxx_hal_pwr_ex.c ****     TrimmingSteps = ((int32_t)OutputVoltageLevel_calibration - (int32_t)(LL_PWR_SMPS_OUTPUT_VOLTAGE
 885:Drivers/STM32WBxx_HAL_Driver/Src/stm32wbxx_hal_pwr_ex.c ****     OutputVoltageLevelTrimmed = ((int32_t)((uint32_t)(sConfigSMPS->OutputVoltage >> PWR_CR5_SMPSVOS
 886:Drivers/STM32WBxx_HAL_Driver/Src/stm32wbxx_hal_pwr_ex.c **** 
 887:Drivers/STM32WBxx_HAL_Driver/Src/stm32wbxx_hal_pwr_ex.c ****     /* Clamp value to voltage trimming bitfield range */
 888:Drivers/STM32WBxx_HAL_Driver/Src/stm32wbxx_hal_pwr_ex.c ****     if (OutputVoltageLevelTrimmed < 0)
 889:Drivers/STM32WBxx_HAL_Driver/Src/stm32wbxx_hal_pwr_ex.c ****     {
 890:Drivers/STM32WBxx_HAL_Driver/Src/stm32wbxx_hal_pwr_ex.c ****       OutputVoltageLevelTrimmed = 0;
 891:Drivers/STM32WBxx_HAL_Driver/Src/stm32wbxx_hal_pwr_ex.c ****       status = HAL_ERROR;
 892:Drivers/STM32WBxx_HAL_Driver/Src/stm32wbxx_hal_pwr_ex.c ****     }
ARM GAS  C:\Users\Nathan\AppData\Local\Temp\ccvsgOlc.s 			page 105


 893:Drivers/STM32WBxx_HAL_Driver/Src/stm32wbxx_hal_pwr_ex.c ****     else
 894:Drivers/STM32WBxx_HAL_Driver/Src/stm32wbxx_hal_pwr_ex.c ****     {
 895:Drivers/STM32WBxx_HAL_Driver/Src/stm32wbxx_hal_pwr_ex.c ****       if (OutputVoltageLevelTrimmed > (int32_t)PWR_CR5_SMPSVOS)
 896:Drivers/STM32WBxx_HAL_Driver/Src/stm32wbxx_hal_pwr_ex.c ****       {
 897:Drivers/STM32WBxx_HAL_Driver/Src/stm32wbxx_hal_pwr_ex.c ****         OutputVoltageLevelTrimmed = (int32_t)PWR_CR5_SMPSVOS;
 898:Drivers/STM32WBxx_HAL_Driver/Src/stm32wbxx_hal_pwr_ex.c ****         status = HAL_ERROR;
 899:Drivers/STM32WBxx_HAL_Driver/Src/stm32wbxx_hal_pwr_ex.c ****       }
 900:Drivers/STM32WBxx_HAL_Driver/Src/stm32wbxx_hal_pwr_ex.c ****     }
 901:Drivers/STM32WBxx_HAL_Driver/Src/stm32wbxx_hal_pwr_ex.c **** 
 902:Drivers/STM32WBxx_HAL_Driver/Src/stm32wbxx_hal_pwr_ex.c ****     /* Update register */
 903:Drivers/STM32WBxx_HAL_Driver/Src/stm32wbxx_hal_pwr_ex.c ****     MODIFY_REG(PWR->CR5, (PWR_CR5_SMPSSC | PWR_CR5_SMPSVOS),
 904:Drivers/STM32WBxx_HAL_Driver/Src/stm32wbxx_hal_pwr_ex.c ****                (sConfigSMPS->StartupCurrent | ((uint32_t) OutputVoltageLevelTrimmed)));
 905:Drivers/STM32WBxx_HAL_Driver/Src/stm32wbxx_hal_pwr_ex.c ****   }
 906:Drivers/STM32WBxx_HAL_Driver/Src/stm32wbxx_hal_pwr_ex.c **** 
 907:Drivers/STM32WBxx_HAL_Driver/Src/stm32wbxx_hal_pwr_ex.c ****   return status;
 2076              		.loc 1 907 3 is_stmt 1 view .LVU429
 908:Drivers/STM32WBxx_HAL_Driver/Src/stm32wbxx_hal_pwr_ex.c **** }
 2077              		.loc 1 908 1 is_stmt 0 view .LVU430
 2078 002a 03B0     		add	sp, sp, #12
 2079              		.cfi_remember_state
 2080              		.cfi_def_cfa_offset 4
 2081              		@ sp needed
 2082 002c 5DF8044B 		ldr	r4, [sp], #4
 2083              		.cfi_restore 4
 2084              		.cfi_def_cfa_offset 0
 2085 0030 7047     		bx	lr
 2086              	.LVL124:
 2087              	.L170:
 2088              		.cfi_restore_state
 884:Drivers/STM32WBxx_HAL_Driver/Src/stm32wbxx_hal_pwr_ex.c ****     OutputVoltageLevelTrimmed = ((int32_t)((uint32_t)(sConfigSMPS->OutputVoltage >> PWR_CR5_SMPSVOS
 2089              		.loc 1 884 5 is_stmt 1 view .LVU431
 884:Drivers/STM32WBxx_HAL_Driver/Src/stm32wbxx_hal_pwr_ex.c ****     OutputVoltageLevelTrimmed = ((int32_t)((uint32_t)(sConfigSMPS->OutputVoltage >> PWR_CR5_SMPSVOS
 2090              		.loc 1 884 22 is_stmt 0 view .LVU432
 2091 0032 0199     		ldr	r1, [sp, #4]
 884:Drivers/STM32WBxx_HAL_Driver/Src/stm32wbxx_hal_pwr_ex.c ****     OutputVoltageLevelTrimmed = ((int32_t)((uint32_t)(sConfigSMPS->OutputVoltage >> PWR_CR5_SMPSVOS
 2092              		.loc 1 884 19 view .LVU433
 2093 0034 0639     		subs	r1, r1, #6
 2094              	.LVL125:
 885:Drivers/STM32WBxx_HAL_Driver/Src/stm32wbxx_hal_pwr_ex.c **** 
 2095              		.loc 1 885 5 is_stmt 1 view .LVU434
 885:Drivers/STM32WBxx_HAL_Driver/Src/stm32wbxx_hal_pwr_ex.c **** 
 2096              		.loc 1 885 82 is_stmt 0 view .LVU435
 2097 0036 4268     		ldr	r2, [r0, #4]
 2098              	.LVL126:
 888:Drivers/STM32WBxx_HAL_Driver/Src/stm32wbxx_hal_pwr_ex.c ****     {
 2099              		.loc 1 888 5 is_stmt 1 view .LVU436
 888:Drivers/STM32WBxx_HAL_Driver/Src/stm32wbxx_hal_pwr_ex.c ****     {
 2100              		.loc 1 888 8 is_stmt 0 view .LVU437
 2101 0038 5218     		adds	r2, r2, r1
 2102              	.LVL127:
 888:Drivers/STM32WBxx_HAL_Driver/Src/stm32wbxx_hal_pwr_ex.c ****     {
 2103              		.loc 1 888 8 view .LVU438
 2104 003a 03D4     		bmi	.L173
 895:Drivers/STM32WBxx_HAL_Driver/Src/stm32wbxx_hal_pwr_ex.c ****       {
 2105              		.loc 1 895 7 is_stmt 1 view .LVU439
 895:Drivers/STM32WBxx_HAL_Driver/Src/stm32wbxx_hal_pwr_ex.c ****       {
 2106              		.loc 1 895 10 is_stmt 0 view .LVU440
ARM GAS  C:\Users\Nathan\AppData\Local\Temp\ccvsgOlc.s 			page 106


 2107 003c 0F2A     		cmp	r2, #15
 2108 003e 0CDC     		bgt	.L174
 863:Drivers/STM32WBxx_HAL_Driver/Src/stm32wbxx_hal_pwr_ex.c **** 
 2109              		.loc 1 863 21 view .LVU441
 2110 0040 0020     		movs	r0, #0
 2111              	.LVL128:
 863:Drivers/STM32WBxx_HAL_Driver/Src/stm32wbxx_hal_pwr_ex.c **** 
 2112              		.loc 1 863 21 view .LVU442
 2113 0042 01E0     		b	.L172
 2114              	.LVL129:
 2115              	.L173:
 890:Drivers/STM32WBxx_HAL_Driver/Src/stm32wbxx_hal_pwr_ex.c ****       status = HAL_ERROR;
 2116              		.loc 1 890 33 view .LVU443
 2117 0044 0022     		movs	r2, #0
 2118              	.LVL130:
 891:Drivers/STM32WBxx_HAL_Driver/Src/stm32wbxx_hal_pwr_ex.c ****     }
 2119              		.loc 1 891 14 view .LVU444
 2120 0046 0120     		movs	r0, #1
 2121              	.LVL131:
 2122              	.L172:
 903:Drivers/STM32WBxx_HAL_Driver/Src/stm32wbxx_hal_pwr_ex.c ****                (sConfigSMPS->StartupCurrent | ((uint32_t) OutputVoltageLevelTrimmed)));
 2123              		.loc 1 903 5 is_stmt 1 view .LVU445
 2124 0048 064C     		ldr	r4, .L176+4
 2125 004a E169     		ldr	r1, [r4, #28]
 2126              	.LVL132:
 903:Drivers/STM32WBxx_HAL_Driver/Src/stm32wbxx_hal_pwr_ex.c ****                (sConfigSMPS->StartupCurrent | ((uint32_t) OutputVoltageLevelTrimmed)));
 2127              		.loc 1 903 5 is_stmt 0 view .LVU446
 2128 004c 21F07F01 		bic	r1, r1, #127
 2129 0050 1B68     		ldr	r3, [r3]
 2130              	.LVL133:
 903:Drivers/STM32WBxx_HAL_Driver/Src/stm32wbxx_hal_pwr_ex.c ****                (sConfigSMPS->StartupCurrent | ((uint32_t) OutputVoltageLevelTrimmed)));
 2131              		.loc 1 903 5 view .LVU447
 2132 0052 1343     		orrs	r3, r3, r2
 2133 0054 0B43     		orrs	r3, r3, r1
 2134 0056 E361     		str	r3, [r4, #28]
 2135 0058 E7E7     		b	.L171
 2136              	.LVL134:
 2137              	.L174:
 897:Drivers/STM32WBxx_HAL_Driver/Src/stm32wbxx_hal_pwr_ex.c ****         status = HAL_ERROR;
 2138              		.loc 1 897 35 view .LVU448
 2139 005a 0F22     		movs	r2, #15
 2140              	.LVL135:
 898:Drivers/STM32WBxx_HAL_Driver/Src/stm32wbxx_hal_pwr_ex.c ****       }
 2141              		.loc 1 898 16 view .LVU449
 2142 005c 0120     		movs	r0, #1
 2143              	.LVL136:
 898:Drivers/STM32WBxx_HAL_Driver/Src/stm32wbxx_hal_pwr_ex.c ****       }
 2144              		.loc 1 898 16 view .LVU450
 2145 005e F3E7     		b	.L172
 2146              	.L177:
 2147              		.align	2
 2148              	.L176:
 2149 0060 0070FF1F 		.word	536834048
 2150 0064 00040058 		.word	1476396032
 2151              		.cfi_endproc
 2152              	.LFE1141:
 2154              		.section	.text.HAL_PWREx_SMPS_SetMode,"ax",%progbits
ARM GAS  C:\Users\Nathan\AppData\Local\Temp\ccvsgOlc.s 			page 107


 2155              		.align	1
 2156              		.global	HAL_PWREx_SMPS_SetMode
 2157              		.syntax unified
 2158              		.thumb
 2159              		.thumb_func
 2161              	HAL_PWREx_SMPS_SetMode:
 2162              	.LVL137:
 2163              	.LFB1142:
 909:Drivers/STM32WBxx_HAL_Driver/Src/stm32wbxx_hal_pwr_ex.c **** 
 910:Drivers/STM32WBxx_HAL_Driver/Src/stm32wbxx_hal_pwr_ex.c **** /**
 911:Drivers/STM32WBxx_HAL_Driver/Src/stm32wbxx_hal_pwr_ex.c ****   * @brief Set SMPS operating mode.
 912:Drivers/STM32WBxx_HAL_Driver/Src/stm32wbxx_hal_pwr_ex.c ****   * @param  OperatingMode This parameter can be one of the following values:
 913:Drivers/STM32WBxx_HAL_Driver/Src/stm32wbxx_hal_pwr_ex.c ****   *         @arg @ref PWR_SMPS_BYPASS
 914:Drivers/STM32WBxx_HAL_Driver/Src/stm32wbxx_hal_pwr_ex.c ****   *         @arg @ref PWR_SMPS_STEP_DOWN (1)
 915:Drivers/STM32WBxx_HAL_Driver/Src/stm32wbxx_hal_pwr_ex.c ****   *
 916:Drivers/STM32WBxx_HAL_Driver/Src/stm32wbxx_hal_pwr_ex.c ****   *         (1) SMPS operating mode step down or open depends on system low-power mode:
 917:Drivers/STM32WBxx_HAL_Driver/Src/stm32wbxx_hal_pwr_ex.c ****   *              - step down mode if system low power mode is run, LP run or stop,
 918:Drivers/STM32WBxx_HAL_Driver/Src/stm32wbxx_hal_pwr_ex.c ****   *              - open mode if system low power mode is Stop1, Stop2, Standby or Shutdown
 919:Drivers/STM32WBxx_HAL_Driver/Src/stm32wbxx_hal_pwr_ex.c ****   * @retval None
 920:Drivers/STM32WBxx_HAL_Driver/Src/stm32wbxx_hal_pwr_ex.c ****   */
 921:Drivers/STM32WBxx_HAL_Driver/Src/stm32wbxx_hal_pwr_ex.c **** void HAL_PWREx_SMPS_SetMode(uint32_t OperatingMode)
 922:Drivers/STM32WBxx_HAL_Driver/Src/stm32wbxx_hal_pwr_ex.c **** {
 2164              		.loc 1 922 1 is_stmt 1 view -0
 2165              		.cfi_startproc
 2166              		@ args = 0, pretend = 0, frame = 0
 2167              		@ frame_needed = 0, uses_anonymous_args = 0
 2168              		@ link register save eliminated.
 923:Drivers/STM32WBxx_HAL_Driver/Src/stm32wbxx_hal_pwr_ex.c ****   MODIFY_REG(PWR->CR5, PWR_CR5_SMPSEN, (OperatingMode & PWR_SR2_SMPSF) << (PWR_CR5_SMPSEN_Pos - PWR
 2169              		.loc 1 923 3 view .LVU452
 2170 0000 044A     		ldr	r2, .L179
 2171 0002 D369     		ldr	r3, [r2, #28]
 2172 0004 23F40043 		bic	r3, r3, #32768
 2173 0008 8003     		lsls	r0, r0, #14
 2174              	.LVL138:
 2175              		.loc 1 923 3 is_stmt 0 view .LVU453
 2176 000a 00F40040 		and	r0, r0, #32768
 2177 000e 0343     		orrs	r3, r3, r0
 2178 0010 D361     		str	r3, [r2, #28]
 924:Drivers/STM32WBxx_HAL_Driver/Src/stm32wbxx_hal_pwr_ex.c **** }
 2179              		.loc 1 924 1 view .LVU454
 2180 0012 7047     		bx	lr
 2181              	.L180:
 2182              		.align	2
 2183              	.L179:
 2184 0014 00040058 		.word	1476396032
 2185              		.cfi_endproc
 2186              	.LFE1142:
 2188              		.section	.text.HAL_PWREx_SMPS_GetEffectiveMode,"ax",%progbits
 2189              		.align	1
 2190              		.global	HAL_PWREx_SMPS_GetEffectiveMode
 2191              		.syntax unified
 2192              		.thumb
 2193              		.thumb_func
 2195              	HAL_PWREx_SMPS_GetEffectiveMode:
 2196              	.LFB1143:
 925:Drivers/STM32WBxx_HAL_Driver/Src/stm32wbxx_hal_pwr_ex.c **** 
 926:Drivers/STM32WBxx_HAL_Driver/Src/stm32wbxx_hal_pwr_ex.c **** /**
ARM GAS  C:\Users\Nathan\AppData\Local\Temp\ccvsgOlc.s 			page 108


 927:Drivers/STM32WBxx_HAL_Driver/Src/stm32wbxx_hal_pwr_ex.c ****   * @brief  Get SMPS effective operating mode
 928:Drivers/STM32WBxx_HAL_Driver/Src/stm32wbxx_hal_pwr_ex.c ****   * @note   SMPS operating mode can be changed by hardware, therefore
 929:Drivers/STM32WBxx_HAL_Driver/Src/stm32wbxx_hal_pwr_ex.c ****   *         requested operating mode can differ from effective low power mode.
 930:Drivers/STM32WBxx_HAL_Driver/Src/stm32wbxx_hal_pwr_ex.c ****   *         - dependency on system low-power mode:
 931:Drivers/STM32WBxx_HAL_Driver/Src/stm32wbxx_hal_pwr_ex.c ****   *           - step down mode if system low power mode is run, LP run or stop,
 932:Drivers/STM32WBxx_HAL_Driver/Src/stm32wbxx_hal_pwr_ex.c ****   *           - open mode if system low power mode is Stop1, Stop2, Standby or Shutdown
 933:Drivers/STM32WBxx_HAL_Driver/Src/stm32wbxx_hal_pwr_ex.c ****   *         - dependency on BOR level:
 934:Drivers/STM32WBxx_HAL_Driver/Src/stm32wbxx_hal_pwr_ex.c ****   *           - bypass mode if supply voltage drops below BOR level
 935:Drivers/STM32WBxx_HAL_Driver/Src/stm32wbxx_hal_pwr_ex.c ****   * @note   This functions check flags of SMPS operating modes step down
 936:Drivers/STM32WBxx_HAL_Driver/Src/stm32wbxx_hal_pwr_ex.c ****   *         and bypass. If the SMPS is not among these 2 operating modes,
 937:Drivers/STM32WBxx_HAL_Driver/Src/stm32wbxx_hal_pwr_ex.c ****   *         then it can be in mode off or open.
 938:Drivers/STM32WBxx_HAL_Driver/Src/stm32wbxx_hal_pwr_ex.c ****   * @retval Returned value can be one of the following values:
 939:Drivers/STM32WBxx_HAL_Driver/Src/stm32wbxx_hal_pwr_ex.c ****   *         @arg @ref PWR_SMPS_BYPASS
 940:Drivers/STM32WBxx_HAL_Driver/Src/stm32wbxx_hal_pwr_ex.c ****   *         @arg @ref PWR_SMPS_STEP_DOWN (1)
 941:Drivers/STM32WBxx_HAL_Driver/Src/stm32wbxx_hal_pwr_ex.c ****   *
 942:Drivers/STM32WBxx_HAL_Driver/Src/stm32wbxx_hal_pwr_ex.c ****   *         (1) SMPS operating mode step down or open depends on system low-power mode:
 943:Drivers/STM32WBxx_HAL_Driver/Src/stm32wbxx_hal_pwr_ex.c ****   *              - step down mode if system low power mode is run, LP run or stop,
 944:Drivers/STM32WBxx_HAL_Driver/Src/stm32wbxx_hal_pwr_ex.c ****   *              - open mode if system low power mode is Stop1, Stop2, Standby or Shutdown
 945:Drivers/STM32WBxx_HAL_Driver/Src/stm32wbxx_hal_pwr_ex.c ****   */
 946:Drivers/STM32WBxx_HAL_Driver/Src/stm32wbxx_hal_pwr_ex.c **** uint32_t HAL_PWREx_SMPS_GetEffectiveMode(void)
 947:Drivers/STM32WBxx_HAL_Driver/Src/stm32wbxx_hal_pwr_ex.c **** {
 2197              		.loc 1 947 1 is_stmt 1 view -0
 2198              		.cfi_startproc
 2199              		@ args = 0, pretend = 0, frame = 0
 2200              		@ frame_needed = 0, uses_anonymous_args = 0
 2201              		@ link register save eliminated.
 948:Drivers/STM32WBxx_HAL_Driver/Src/stm32wbxx_hal_pwr_ex.c ****   return (uint32_t)(READ_BIT(PWR->SR2, (PWR_SR2_SMPSF | PWR_SR2_SMPSBF)));
 2202              		.loc 1 948 3 view .LVU456
 2203              		.loc 1 948 21 is_stmt 0 view .LVU457
 2204 0000 024B     		ldr	r3, .L182
 2205 0002 5869     		ldr	r0, [r3, #20]
 949:Drivers/STM32WBxx_HAL_Driver/Src/stm32wbxx_hal_pwr_ex.c **** }
 2206              		.loc 1 949 1 view .LVU458
 2207 0004 00F00300 		and	r0, r0, #3
 2208 0008 7047     		bx	lr
 2209              	.L183:
 2210 000a 00BF     		.align	2
 2211              	.L182:
 2212 000c 00040058 		.word	1476396032
 2213              		.cfi_endproc
 2214              	.LFE1143:
 2216              		.section	.text.HAL_PWREx_EnableWakeUpPin,"ax",%progbits
 2217              		.align	1
 2218              		.global	HAL_PWREx_EnableWakeUpPin
 2219              		.syntax unified
 2220              		.thumb
 2221              		.thumb_func
 2223              	HAL_PWREx_EnableWakeUpPin:
 2224              	.LVL139:
 2225              	.LFB1144:
 950:Drivers/STM32WBxx_HAL_Driver/Src/stm32wbxx_hal_pwr_ex.c **** #endif /* PWR_CR5_SMPSEN */
 951:Drivers/STM32WBxx_HAL_Driver/Src/stm32wbxx_hal_pwr_ex.c **** 
 952:Drivers/STM32WBxx_HAL_Driver/Src/stm32wbxx_hal_pwr_ex.c **** /****************************************************************************/
 953:Drivers/STM32WBxx_HAL_Driver/Src/stm32wbxx_hal_pwr_ex.c **** 
 954:Drivers/STM32WBxx_HAL_Driver/Src/stm32wbxx_hal_pwr_ex.c **** /**
 955:Drivers/STM32WBxx_HAL_Driver/Src/stm32wbxx_hal_pwr_ex.c ****   * @brief Enable the WakeUp PINx functionality.
 956:Drivers/STM32WBxx_HAL_Driver/Src/stm32wbxx_hal_pwr_ex.c ****   * @param WakeUpPinPolarity Specifies which Wake-Up pin to enable.
ARM GAS  C:\Users\Nathan\AppData\Local\Temp\ccvsgOlc.s 			page 109


 957:Drivers/STM32WBxx_HAL_Driver/Src/stm32wbxx_hal_pwr_ex.c ****   *         This parameter can be one of the following legacy values which set the default polarity
 958:Drivers/STM32WBxx_HAL_Driver/Src/stm32wbxx_hal_pwr_ex.c ****   *         i.e. detection on high level (rising edge):
 959:Drivers/STM32WBxx_HAL_Driver/Src/stm32wbxx_hal_pwr_ex.c ****   *           @arg @ref PWR_WAKEUP_PIN1, PWR_WAKEUP_PIN2, PWR_WAKEUP_PIN3, PWR_WAKEUP_PIN4, PWR_WAK
 960:Drivers/STM32WBxx_HAL_Driver/Src/stm32wbxx_hal_pwr_ex.c ****   *
 961:Drivers/STM32WBxx_HAL_Driver/Src/stm32wbxx_hal_pwr_ex.c ****   *         or one of the following value where the user can explicitly specify the enabled pin and
 962:Drivers/STM32WBxx_HAL_Driver/Src/stm32wbxx_hal_pwr_ex.c ****   *         the chosen polarity:
 963:Drivers/STM32WBxx_HAL_Driver/Src/stm32wbxx_hal_pwr_ex.c ****   *           @arg @ref PWR_WAKEUP_PIN1_HIGH or PWR_WAKEUP_PIN1_LOW
 964:Drivers/STM32WBxx_HAL_Driver/Src/stm32wbxx_hal_pwr_ex.c ****   *           @arg @ref PWR_WAKEUP_PIN2_HIGH or PWR_WAKEUP_PIN2_LOW
 965:Drivers/STM32WBxx_HAL_Driver/Src/stm32wbxx_hal_pwr_ex.c ****   *           @arg @ref PWR_WAKEUP_PIN3_HIGH or PWR_WAKEUP_PIN3_LOW
 966:Drivers/STM32WBxx_HAL_Driver/Src/stm32wbxx_hal_pwr_ex.c ****   *           @arg @ref PWR_WAKEUP_PIN4_HIGH or PWR_WAKEUP_PIN4_LOW
 967:Drivers/STM32WBxx_HAL_Driver/Src/stm32wbxx_hal_pwr_ex.c ****   *           @arg @ref PWR_WAKEUP_PIN5_HIGH or PWR_WAKEUP_PIN5_LOW
 968:Drivers/STM32WBxx_HAL_Driver/Src/stm32wbxx_hal_pwr_ex.c ****   * @param wakeupTarget Specifies the wake-up target
 969:Drivers/STM32WBxx_HAL_Driver/Src/stm32wbxx_hal_pwr_ex.c ****   *         @arg @ref PWR_CORE_CPU1
 970:Drivers/STM32WBxx_HAL_Driver/Src/stm32wbxx_hal_pwr_ex.c ****   *         @arg @ref PWR_CORE_CPU2
 971:Drivers/STM32WBxx_HAL_Driver/Src/stm32wbxx_hal_pwr_ex.c ****   * @note  PWR_WAKEUP_PINx and PWR_WAKEUP_PINx_HIGH are equivalent.
 972:Drivers/STM32WBxx_HAL_Driver/Src/stm32wbxx_hal_pwr_ex.c ****   * @retval None
 973:Drivers/STM32WBxx_HAL_Driver/Src/stm32wbxx_hal_pwr_ex.c ****   */
 974:Drivers/STM32WBxx_HAL_Driver/Src/stm32wbxx_hal_pwr_ex.c **** void HAL_PWREx_EnableWakeUpPin(uint32_t WakeUpPinPolarity, uint32_t wakeupTarget)
 975:Drivers/STM32WBxx_HAL_Driver/Src/stm32wbxx_hal_pwr_ex.c **** {
 2226              		.loc 1 975 1 is_stmt 1 view -0
 2227              		.cfi_startproc
 2228              		@ args = 0, pretend = 0, frame = 0
 2229              		@ frame_needed = 0, uses_anonymous_args = 0
 2230              		@ link register save eliminated.
 2231              		.loc 1 975 1 is_stmt 0 view .LVU460
 2232 0000 10B4     		push	{r4}
 2233              		.cfi_def_cfa_offset 4
 2234              		.cfi_offset 4, -4
 976:Drivers/STM32WBxx_HAL_Driver/Src/stm32wbxx_hal_pwr_ex.c ****   assert_param(IS_PWR_WAKEUP_PIN(WakeUpPinPolarity));
 2235              		.loc 1 976 3 is_stmt 1 view .LVU461
 977:Drivers/STM32WBxx_HAL_Driver/Src/stm32wbxx_hal_pwr_ex.c **** 
 978:Drivers/STM32WBxx_HAL_Driver/Src/stm32wbxx_hal_pwr_ex.c ****   /* Specifies the Wake-Up pin polarity for the event detection
 979:Drivers/STM32WBxx_HAL_Driver/Src/stm32wbxx_hal_pwr_ex.c ****     (rising or falling edge) */
 980:Drivers/STM32WBxx_HAL_Driver/Src/stm32wbxx_hal_pwr_ex.c ****   MODIFY_REG(PWR->CR4, (PWR_C2CR3_EWUP & WakeUpPinPolarity), (WakeUpPinPolarity >> PWR_WUP_POLARITY
 2236              		.loc 1 980 3 view .LVU462
 2237 0002 0C4C     		ldr	r4, .L189
 2238 0004 E368     		ldr	r3, [r4, #12]
 2239 0006 00F01F02 		and	r2, r0, #31
 2240 000a 23EA0203 		bic	r3, r3, r2
 2241 000e 43EA5010 		orr	r0, r3, r0, lsr #5
 2242              	.LVL140:
 2243              		.loc 1 980 3 is_stmt 0 view .LVU463
 2244 0012 E060     		str	r0, [r4, #12]
 981:Drivers/STM32WBxx_HAL_Driver/Src/stm32wbxx_hal_pwr_ex.c **** 
 982:Drivers/STM32WBxx_HAL_Driver/Src/stm32wbxx_hal_pwr_ex.c ****   /* Enable wake-up pin */
 983:Drivers/STM32WBxx_HAL_Driver/Src/stm32wbxx_hal_pwr_ex.c ****   if (PWR_CORE_CPU2 == wakeupTarget)
 2245              		.loc 1 983 3 is_stmt 1 view .LVU464
 2246              		.loc 1 983 6 is_stmt 0 view .LVU465
 2247 0014 0129     		cmp	r1, #1
 2248 0016 06D0     		beq	.L188
 984:Drivers/STM32WBxx_HAL_Driver/Src/stm32wbxx_hal_pwr_ex.c ****   {
 985:Drivers/STM32WBxx_HAL_Driver/Src/stm32wbxx_hal_pwr_ex.c ****     SET_BIT(PWR->C2CR3, (PWR_C2CR3_EWUP & WakeUpPinPolarity));
 986:Drivers/STM32WBxx_HAL_Driver/Src/stm32wbxx_hal_pwr_ex.c ****   }
 987:Drivers/STM32WBxx_HAL_Driver/Src/stm32wbxx_hal_pwr_ex.c ****   else
 988:Drivers/STM32WBxx_HAL_Driver/Src/stm32wbxx_hal_pwr_ex.c ****   {
 989:Drivers/STM32WBxx_HAL_Driver/Src/stm32wbxx_hal_pwr_ex.c ****     SET_BIT(PWR->CR3, (PWR_CR3_EWUP & WakeUpPinPolarity));
 2249              		.loc 1 989 5 is_stmt 1 view .LVU466
ARM GAS  C:\Users\Nathan\AppData\Local\Temp\ccvsgOlc.s 			page 110


 2250 0018 064B     		ldr	r3, .L189
 2251 001a 9968     		ldr	r1, [r3, #8]
 2252              	.LVL141:
 2253              		.loc 1 989 5 is_stmt 0 view .LVU467
 2254 001c 0A43     		orrs	r2, r2, r1
 2255 001e 9A60     		str	r2, [r3, #8]
 2256              	.L184:
 990:Drivers/STM32WBxx_HAL_Driver/Src/stm32wbxx_hal_pwr_ex.c ****   }
 991:Drivers/STM32WBxx_HAL_Driver/Src/stm32wbxx_hal_pwr_ex.c **** }
 2257              		.loc 1 991 1 view .LVU468
 2258 0020 5DF8044B 		ldr	r4, [sp], #4
 2259              		.cfi_remember_state
 2260              		.cfi_restore 4
 2261              		.cfi_def_cfa_offset 0
 2262 0024 7047     		bx	lr
 2263              	.LVL142:
 2264              	.L188:
 2265              		.cfi_restore_state
 985:Drivers/STM32WBxx_HAL_Driver/Src/stm32wbxx_hal_pwr_ex.c ****   }
 2266              		.loc 1 985 5 is_stmt 1 view .LVU469
 2267 0026 D4F88410 		ldr	r1, [r4, #132]
 2268              	.LVL143:
 985:Drivers/STM32WBxx_HAL_Driver/Src/stm32wbxx_hal_pwr_ex.c ****   }
 2269              		.loc 1 985 5 is_stmt 0 view .LVU470
 2270 002a 0A43     		orrs	r2, r2, r1
 2271 002c C4F88420 		str	r2, [r4, #132]
 2272 0030 F6E7     		b	.L184
 2273              	.L190:
 2274 0032 00BF     		.align	2
 2275              	.L189:
 2276 0034 00040058 		.word	1476396032
 2277              		.cfi_endproc
 2278              	.LFE1144:
 2280              		.section	.text.HAL_PWREx_GetWakeupFlag,"ax",%progbits
 2281              		.align	1
 2282              		.global	HAL_PWREx_GetWakeupFlag
 2283              		.syntax unified
 2284              		.thumb
 2285              		.thumb_func
 2287              	HAL_PWREx_GetWakeupFlag:
 2288              	.LVL144:
 2289              	.LFB1145:
 992:Drivers/STM32WBxx_HAL_Driver/Src/stm32wbxx_hal_pwr_ex.c **** 
 993:Drivers/STM32WBxx_HAL_Driver/Src/stm32wbxx_hal_pwr_ex.c **** /**
 994:Drivers/STM32WBxx_HAL_Driver/Src/stm32wbxx_hal_pwr_ex.c ****   * @brief  Get the Wake-Up pin flag.
 995:Drivers/STM32WBxx_HAL_Driver/Src/stm32wbxx_hal_pwr_ex.c ****   * @param WakeUpFlag specifies the Wake-Up PIN flag to check.
 996:Drivers/STM32WBxx_HAL_Driver/Src/stm32wbxx_hal_pwr_ex.c ****   *          This parameter can be one of the following values:
 997:Drivers/STM32WBxx_HAL_Driver/Src/stm32wbxx_hal_pwr_ex.c ****   *            @arg PWR_FLAG_WUF1: A wakeup event was received from PA0.
 998:Drivers/STM32WBxx_HAL_Driver/Src/stm32wbxx_hal_pwr_ex.c ****   *            @arg PWR_FLAG_WUF2: A wakeup event was received from PC13.
 999:Drivers/STM32WBxx_HAL_Driver/Src/stm32wbxx_hal_pwr_ex.c ****   *            @arg PWR_FLAG_WUF3: A wakeup event was received from PC12.
1000:Drivers/STM32WBxx_HAL_Driver/Src/stm32wbxx_hal_pwr_ex.c ****   *            @arg PWR_FLAG_WUF4: A wakeup event was received from PA2.
1001:Drivers/STM32WBxx_HAL_Driver/Src/stm32wbxx_hal_pwr_ex.c ****   *            @arg PWR_FLAG_WUF5: A wakeup event was received from PC5.
1002:Drivers/STM32WBxx_HAL_Driver/Src/stm32wbxx_hal_pwr_ex.c ****   * @retval The Wake-Up pin flag.
1003:Drivers/STM32WBxx_HAL_Driver/Src/stm32wbxx_hal_pwr_ex.c ****   */
1004:Drivers/STM32WBxx_HAL_Driver/Src/stm32wbxx_hal_pwr_ex.c **** uint32_t  HAL_PWREx_GetWakeupFlag(uint32_t WakeUpFlag)
1005:Drivers/STM32WBxx_HAL_Driver/Src/stm32wbxx_hal_pwr_ex.c **** {
 2290              		.loc 1 1005 1 is_stmt 1 view -0
ARM GAS  C:\Users\Nathan\AppData\Local\Temp\ccvsgOlc.s 			page 111


 2291              		.cfi_startproc
 2292              		@ args = 0, pretend = 0, frame = 0
 2293              		@ frame_needed = 0, uses_anonymous_args = 0
 2294              		@ link register save eliminated.
1006:Drivers/STM32WBxx_HAL_Driver/Src/stm32wbxx_hal_pwr_ex.c ****   return (PWR->SR1 & (1UL << ((WakeUpFlag) & 31U)));
 2295              		.loc 1 1006 3 view .LVU472
 2296              		.loc 1 1006 14 is_stmt 0 view .LVU473
 2297 0000 044B     		ldr	r3, .L192
 2298 0002 1969     		ldr	r1, [r3, #16]
 2299              		.loc 1 1006 44 view .LVU474
 2300 0004 00F01F02 		and	r2, r0, #31
 2301              		.loc 1 1006 27 view .LVU475
 2302 0008 0123     		movs	r3, #1
 2303 000a 9340     		lsls	r3, r3, r2
1007:Drivers/STM32WBxx_HAL_Driver/Src/stm32wbxx_hal_pwr_ex.c **** }
 2304              		.loc 1 1007 1 view .LVU476
 2305 000c 01EA0300 		and	r0, r1, r3
 2306              	.LVL145:
 2307              		.loc 1 1007 1 view .LVU477
 2308 0010 7047     		bx	lr
 2309              	.L193:
 2310 0012 00BF     		.align	2
 2311              	.L192:
 2312 0014 00040058 		.word	1476396032
 2313              		.cfi_endproc
 2314              	.LFE1145:
 2316              		.section	.text.HAL_PWREx_ClearWakeupFlag,"ax",%progbits
 2317              		.align	1
 2318              		.global	HAL_PWREx_ClearWakeupFlag
 2319              		.syntax unified
 2320              		.thumb
 2321              		.thumb_func
 2323              	HAL_PWREx_ClearWakeupFlag:
 2324              	.LVL146:
 2325              	.LFB1146:
1008:Drivers/STM32WBxx_HAL_Driver/Src/stm32wbxx_hal_pwr_ex.c **** 
1009:Drivers/STM32WBxx_HAL_Driver/Src/stm32wbxx_hal_pwr_ex.c **** /**
1010:Drivers/STM32WBxx_HAL_Driver/Src/stm32wbxx_hal_pwr_ex.c ****   * @brief  Clear the Wake-Up pin flag.
1011:Drivers/STM32WBxx_HAL_Driver/Src/stm32wbxx_hal_pwr_ex.c ****   * @param WakeUpFlag specifies the Wake-Up PIN flag to clear.
1012:Drivers/STM32WBxx_HAL_Driver/Src/stm32wbxx_hal_pwr_ex.c ****   *          This parameter can be one of the following values:
1013:Drivers/STM32WBxx_HAL_Driver/Src/stm32wbxx_hal_pwr_ex.c ****   *            @arg PWR_FLAG_WUF1: A wakeup event was received from PA0.
1014:Drivers/STM32WBxx_HAL_Driver/Src/stm32wbxx_hal_pwr_ex.c ****   *            @arg PWR_FLAG_WUF2: A wakeup event was received from PC13.
1015:Drivers/STM32WBxx_HAL_Driver/Src/stm32wbxx_hal_pwr_ex.c ****   *            @arg PWR_FLAG_WUF3: A wakeup event was received from PC12.
1016:Drivers/STM32WBxx_HAL_Driver/Src/stm32wbxx_hal_pwr_ex.c ****   *            @arg PWR_FLAG_WUF4: A wakeup event was received from PA2.
1017:Drivers/STM32WBxx_HAL_Driver/Src/stm32wbxx_hal_pwr_ex.c ****   *            @arg PWR_FLAG_WUF5: A wakeup event was received from PC5.
1018:Drivers/STM32WBxx_HAL_Driver/Src/stm32wbxx_hal_pwr_ex.c ****   * @retval HAL status.
1019:Drivers/STM32WBxx_HAL_Driver/Src/stm32wbxx_hal_pwr_ex.c ****   */
1020:Drivers/STM32WBxx_HAL_Driver/Src/stm32wbxx_hal_pwr_ex.c **** HAL_StatusTypeDef HAL_PWREx_ClearWakeupFlag(uint32_t WakeUpFlag)
1021:Drivers/STM32WBxx_HAL_Driver/Src/stm32wbxx_hal_pwr_ex.c **** {
 2326              		.loc 1 1021 1 is_stmt 1 view -0
 2327              		.cfi_startproc
 2328              		@ args = 0, pretend = 0, frame = 0
 2329              		@ frame_needed = 0, uses_anonymous_args = 0
 2330              		@ link register save eliminated.
1022:Drivers/STM32WBxx_HAL_Driver/Src/stm32wbxx_hal_pwr_ex.c ****   PWR->SCR = (1UL << ((WakeUpFlag) & 31U));
 2331              		.loc 1 1022 3 view .LVU479
 2332              		.loc 1 1022 36 is_stmt 0 view .LVU480
ARM GAS  C:\Users\Nathan\AppData\Local\Temp\ccvsgOlc.s 			page 112


 2333 0000 00F01F00 		and	r0, r0, #31
 2334              	.LVL147:
 2335              		.loc 1 1022 19 view .LVU481
 2336 0004 0123     		movs	r3, #1
 2337 0006 8340     		lsls	r3, r3, r0
 2338              		.loc 1 1022 12 view .LVU482
 2339 0008 054A     		ldr	r2, .L197
 2340 000a 9361     		str	r3, [r2, #24]
1023:Drivers/STM32WBxx_HAL_Driver/Src/stm32wbxx_hal_pwr_ex.c **** 
1024:Drivers/STM32WBxx_HAL_Driver/Src/stm32wbxx_hal_pwr_ex.c ****   if ((PWR->SR1 & (1UL << ((WakeUpFlag) & 31U))) != 0U)
 2341              		.loc 1 1024 3 is_stmt 1 view .LVU483
 2342              		.loc 1 1024 11 is_stmt 0 view .LVU484
 2343 000c 1369     		ldr	r3, [r2, #16]
 2344              		.loc 1 1024 50 view .LVU485
 2345 000e C340     		lsrs	r3, r3, r0
 2346              		.loc 1 1024 6 view .LVU486
 2347 0010 13F0010F 		tst	r3, #1
 2348 0014 01D1     		bne	.L196
1025:Drivers/STM32WBxx_HAL_Driver/Src/stm32wbxx_hal_pwr_ex.c ****   {
1026:Drivers/STM32WBxx_HAL_Driver/Src/stm32wbxx_hal_pwr_ex.c ****     return HAL_ERROR;
1027:Drivers/STM32WBxx_HAL_Driver/Src/stm32wbxx_hal_pwr_ex.c ****   }
1028:Drivers/STM32WBxx_HAL_Driver/Src/stm32wbxx_hal_pwr_ex.c ****   return HAL_OK;
 2349              		.loc 1 1028 10 view .LVU487
 2350 0016 0020     		movs	r0, #0
 2351 0018 7047     		bx	lr
 2352              	.L196:
1026:Drivers/STM32WBxx_HAL_Driver/Src/stm32wbxx_hal_pwr_ex.c ****   }
 2353              		.loc 1 1026 12 view .LVU488
 2354 001a 0120     		movs	r0, #1
1029:Drivers/STM32WBxx_HAL_Driver/Src/stm32wbxx_hal_pwr_ex.c **** }
 2355              		.loc 1 1029 1 view .LVU489
 2356 001c 7047     		bx	lr
 2357              	.L198:
 2358 001e 00BF     		.align	2
 2359              	.L197:
 2360 0020 00040058 		.word	1476396032
 2361              		.cfi_endproc
 2362              	.LFE1146:
 2364              		.section	.text.HAL_PWREx_EnableLowPowerRunMode,"ax",%progbits
 2365              		.align	1
 2366              		.global	HAL_PWREx_EnableLowPowerRunMode
 2367              		.syntax unified
 2368              		.thumb
 2369              		.thumb_func
 2371              	HAL_PWREx_EnableLowPowerRunMode:
 2372              	.LFB1147:
1030:Drivers/STM32WBxx_HAL_Driver/Src/stm32wbxx_hal_pwr_ex.c **** 
1031:Drivers/STM32WBxx_HAL_Driver/Src/stm32wbxx_hal_pwr_ex.c **** /****************************************************************************/
1032:Drivers/STM32WBxx_HAL_Driver/Src/stm32wbxx_hal_pwr_ex.c **** 
1033:Drivers/STM32WBxx_HAL_Driver/Src/stm32wbxx_hal_pwr_ex.c **** /**
1034:Drivers/STM32WBxx_HAL_Driver/Src/stm32wbxx_hal_pwr_ex.c ****   * @brief Enter Low-power Run mode
1035:Drivers/STM32WBxx_HAL_Driver/Src/stm32wbxx_hal_pwr_ex.c ****   * @note  In Low-power Run mode, all I/O pins keep the same state as in Run mode.
1036:Drivers/STM32WBxx_HAL_Driver/Src/stm32wbxx_hal_pwr_ex.c ****   * @note  When Regulator is set to PWR_LOWPOWERREGULATOR_ON, the user can optionally configure the
1037:Drivers/STM32WBxx_HAL_Driver/Src/stm32wbxx_hal_pwr_ex.c ****   *        Flash in power-down mode in setting the RUN_PD bit in FLASH_ACR register.
1038:Drivers/STM32WBxx_HAL_Driver/Src/stm32wbxx_hal_pwr_ex.c ****   *        Additionally, the clock frequency must be reduced below 2 MHz.
1039:Drivers/STM32WBxx_HAL_Driver/Src/stm32wbxx_hal_pwr_ex.c ****   *        Setting RUN_PD in FLASH_ACR then appropriately reducing the clock frequency must
1040:Drivers/STM32WBxx_HAL_Driver/Src/stm32wbxx_hal_pwr_ex.c ****   *        be done before calling HAL_PWREx_EnableLowPowerRunMode() API.
ARM GAS  C:\Users\Nathan\AppData\Local\Temp\ccvsgOlc.s 			page 113


1041:Drivers/STM32WBxx_HAL_Driver/Src/stm32wbxx_hal_pwr_ex.c ****   * @retval None
1042:Drivers/STM32WBxx_HAL_Driver/Src/stm32wbxx_hal_pwr_ex.c ****   */
1043:Drivers/STM32WBxx_HAL_Driver/Src/stm32wbxx_hal_pwr_ex.c **** void HAL_PWREx_EnableLowPowerRunMode(void)
1044:Drivers/STM32WBxx_HAL_Driver/Src/stm32wbxx_hal_pwr_ex.c **** {
 2373              		.loc 1 1044 1 is_stmt 1 view -0
 2374              		.cfi_startproc
 2375              		@ args = 0, pretend = 0, frame = 0
 2376              		@ frame_needed = 0, uses_anonymous_args = 0
 2377              		@ link register save eliminated.
1045:Drivers/STM32WBxx_HAL_Driver/Src/stm32wbxx_hal_pwr_ex.c ****   /* Set Regulator parameter */
1046:Drivers/STM32WBxx_HAL_Driver/Src/stm32wbxx_hal_pwr_ex.c ****   SET_BIT(PWR->CR1, PWR_CR1_LPR);
 2378              		.loc 1 1046 3 view .LVU491
 2379 0000 024A     		ldr	r2, .L200
 2380 0002 1368     		ldr	r3, [r2]
 2381 0004 43F48043 		orr	r3, r3, #16384
 2382 0008 1360     		str	r3, [r2]
1047:Drivers/STM32WBxx_HAL_Driver/Src/stm32wbxx_hal_pwr_ex.c **** }
 2383              		.loc 1 1047 1 is_stmt 0 view .LVU492
 2384 000a 7047     		bx	lr
 2385              	.L201:
 2386              		.align	2
 2387              	.L200:
 2388 000c 00040058 		.word	1476396032
 2389              		.cfi_endproc
 2390              	.LFE1147:
 2392              		.section	.text.HAL_PWREx_DisableLowPowerRunMode,"ax",%progbits
 2393              		.align	1
 2394              		.global	HAL_PWREx_DisableLowPowerRunMode
 2395              		.syntax unified
 2396              		.thumb
 2397              		.thumb_func
 2399              	HAL_PWREx_DisableLowPowerRunMode:
 2400              	.LFB1148:
1048:Drivers/STM32WBxx_HAL_Driver/Src/stm32wbxx_hal_pwr_ex.c **** 
1049:Drivers/STM32WBxx_HAL_Driver/Src/stm32wbxx_hal_pwr_ex.c **** 
1050:Drivers/STM32WBxx_HAL_Driver/Src/stm32wbxx_hal_pwr_ex.c **** /**
1051:Drivers/STM32WBxx_HAL_Driver/Src/stm32wbxx_hal_pwr_ex.c ****   * @brief Exit Low-power Run mode.
1052:Drivers/STM32WBxx_HAL_Driver/Src/stm32wbxx_hal_pwr_ex.c ****   * @note  Before HAL_PWREx_DisableLowPowerRunMode() completion, the function checks that
1053:Drivers/STM32WBxx_HAL_Driver/Src/stm32wbxx_hal_pwr_ex.c ****   *        REGLPF has been properly reset (otherwise, HAL_PWREx_DisableLowPowerRunMode
1054:Drivers/STM32WBxx_HAL_Driver/Src/stm32wbxx_hal_pwr_ex.c ****   *        returns HAL_TIMEOUT status). The system clock frequency can then be
1055:Drivers/STM32WBxx_HAL_Driver/Src/stm32wbxx_hal_pwr_ex.c ****   *        increased above 2 MHz.
1056:Drivers/STM32WBxx_HAL_Driver/Src/stm32wbxx_hal_pwr_ex.c ****   * @retval HAL Status
1057:Drivers/STM32WBxx_HAL_Driver/Src/stm32wbxx_hal_pwr_ex.c ****   */
1058:Drivers/STM32WBxx_HAL_Driver/Src/stm32wbxx_hal_pwr_ex.c **** HAL_StatusTypeDef HAL_PWREx_DisableLowPowerRunMode(void)
1059:Drivers/STM32WBxx_HAL_Driver/Src/stm32wbxx_hal_pwr_ex.c **** {
 2401              		.loc 1 1059 1 is_stmt 1 view -0
 2402              		.cfi_startproc
 2403              		@ args = 0, pretend = 0, frame = 0
 2404              		@ frame_needed = 0, uses_anonymous_args = 0
 2405              		@ link register save eliminated.
1060:Drivers/STM32WBxx_HAL_Driver/Src/stm32wbxx_hal_pwr_ex.c ****   uint32_t wait_loop_index;
 2406              		.loc 1 1060 3 view .LVU494
1061:Drivers/STM32WBxx_HAL_Driver/Src/stm32wbxx_hal_pwr_ex.c **** 
1062:Drivers/STM32WBxx_HAL_Driver/Src/stm32wbxx_hal_pwr_ex.c ****   /* Clear LPR bit */
1063:Drivers/STM32WBxx_HAL_Driver/Src/stm32wbxx_hal_pwr_ex.c ****   CLEAR_BIT(PWR->CR1, PWR_CR1_LPR);
 2407              		.loc 1 1063 3 view .LVU495
 2408 0000 124A     		ldr	r2, .L208
ARM GAS  C:\Users\Nathan\AppData\Local\Temp\ccvsgOlc.s 			page 114


 2409 0002 1368     		ldr	r3, [r2]
 2410 0004 23F48043 		bic	r3, r3, #16384
 2411 0008 1360     		str	r3, [r2]
1064:Drivers/STM32WBxx_HAL_Driver/Src/stm32wbxx_hal_pwr_ex.c **** 
1065:Drivers/STM32WBxx_HAL_Driver/Src/stm32wbxx_hal_pwr_ex.c ****   /* Wait until REGLPF is reset */
1066:Drivers/STM32WBxx_HAL_Driver/Src/stm32wbxx_hal_pwr_ex.c ****   wait_loop_index = (PWR_FLAG_SETTING_DELAY_US * (SystemCoreClock / 1000000U));
 2412              		.loc 1 1066 3 view .LVU496
 2413              		.loc 1 1066 67 is_stmt 0 view .LVU497
 2414 000a 114B     		ldr	r3, .L208+4
 2415 000c 1B68     		ldr	r3, [r3]
 2416 000e A2F1A752 		sub	r2, r2, #350224384
 2417 0012 A2F58422 		sub	r2, r2, #270336
 2418 0016 A2F27D52 		subw	r2, r2, #1405
 2419 001a A2FB0323 		umull	r2, r3, r2, r3
 2420 001e 9B0C     		lsrs	r3, r3, #18
 2421              		.loc 1 1066 19 view .LVU498
 2422 0020 3222     		movs	r2, #50
 2423 0022 02FB03F3 		mul	r3, r2, r3
 2424              	.LVL148:
1067:Drivers/STM32WBxx_HAL_Driver/Src/stm32wbxx_hal_pwr_ex.c ****   while ((HAL_IS_BIT_SET(PWR->SR2, PWR_SR2_REGLPF)) && (wait_loop_index != 0U))
 2425              		.loc 1 1067 3 is_stmt 1 view .LVU499
 2426              		.loc 1 1067 9 is_stmt 0 view .LVU500
 2427 0026 00E0     		b	.L203
 2428              	.L205:
1068:Drivers/STM32WBxx_HAL_Driver/Src/stm32wbxx_hal_pwr_ex.c ****   {
1069:Drivers/STM32WBxx_HAL_Driver/Src/stm32wbxx_hal_pwr_ex.c ****     wait_loop_index--;
 2429              		.loc 1 1069 5 is_stmt 1 view .LVU501
 2430              		.loc 1 1069 20 is_stmt 0 view .LVU502
 2431 0028 013B     		subs	r3, r3, #1
 2432              	.LVL149:
 2433              	.L203:
1067:Drivers/STM32WBxx_HAL_Driver/Src/stm32wbxx_hal_pwr_ex.c ****   while ((HAL_IS_BIT_SET(PWR->SR2, PWR_SR2_REGLPF)) && (wait_loop_index != 0U))
 2434              		.loc 1 1067 53 is_stmt 1 view .LVU503
1067:Drivers/STM32WBxx_HAL_Driver/Src/stm32wbxx_hal_pwr_ex.c ****   while ((HAL_IS_BIT_SET(PWR->SR2, PWR_SR2_REGLPF)) && (wait_loop_index != 0U))
 2435              		.loc 1 1067 11 is_stmt 0 view .LVU504
 2436 002a 084A     		ldr	r2, .L208
 2437 002c 5269     		ldr	r2, [r2, #20]
1067:Drivers/STM32WBxx_HAL_Driver/Src/stm32wbxx_hal_pwr_ex.c ****   while ((HAL_IS_BIT_SET(PWR->SR2, PWR_SR2_REGLPF)) && (wait_loop_index != 0U))
 2438              		.loc 1 1067 53 view .LVU505
 2439 002e 12F4007F 		tst	r2, #512
 2440 0032 01D0     		beq	.L204
1067:Drivers/STM32WBxx_HAL_Driver/Src/stm32wbxx_hal_pwr_ex.c ****   while ((HAL_IS_BIT_SET(PWR->SR2, PWR_SR2_REGLPF)) && (wait_loop_index != 0U))
 2441              		.loc 1 1067 53 discriminator 1 view .LVU506
 2442 0034 002B     		cmp	r3, #0
 2443 0036 F7D1     		bne	.L205
 2444              	.L204:
1070:Drivers/STM32WBxx_HAL_Driver/Src/stm32wbxx_hal_pwr_ex.c ****   }
1071:Drivers/STM32WBxx_HAL_Driver/Src/stm32wbxx_hal_pwr_ex.c ****   if (HAL_IS_BIT_SET(PWR->SR2, PWR_SR2_REGLPF))
 2445              		.loc 1 1071 3 is_stmt 1 view .LVU507
 2446              		.loc 1 1071 7 is_stmt 0 view .LVU508
 2447 0038 044B     		ldr	r3, .L208
 2448              	.LVL150:
 2449              		.loc 1 1071 7 view .LVU509
 2450 003a 5B69     		ldr	r3, [r3, #20]
 2451              		.loc 1 1071 6 view .LVU510
 2452 003c 13F4007F 		tst	r3, #512
 2453 0040 01D1     		bne	.L207
ARM GAS  C:\Users\Nathan\AppData\Local\Temp\ccvsgOlc.s 			page 115


1072:Drivers/STM32WBxx_HAL_Driver/Src/stm32wbxx_hal_pwr_ex.c ****   {
1073:Drivers/STM32WBxx_HAL_Driver/Src/stm32wbxx_hal_pwr_ex.c ****     return HAL_TIMEOUT;
1074:Drivers/STM32WBxx_HAL_Driver/Src/stm32wbxx_hal_pwr_ex.c ****   }
1075:Drivers/STM32WBxx_HAL_Driver/Src/stm32wbxx_hal_pwr_ex.c **** 
1076:Drivers/STM32WBxx_HAL_Driver/Src/stm32wbxx_hal_pwr_ex.c ****   return HAL_OK;
 2454              		.loc 1 1076 10 view .LVU511
 2455 0042 0020     		movs	r0, #0
 2456 0044 7047     		bx	lr
 2457              	.L207:
1073:Drivers/STM32WBxx_HAL_Driver/Src/stm32wbxx_hal_pwr_ex.c ****   }
 2458              		.loc 1 1073 12 view .LVU512
 2459 0046 0320     		movs	r0, #3
1077:Drivers/STM32WBxx_HAL_Driver/Src/stm32wbxx_hal_pwr_ex.c **** }
 2460              		.loc 1 1077 1 view .LVU513
 2461 0048 7047     		bx	lr
 2462              	.L209:
 2463 004a 00BF     		.align	2
 2464              	.L208:
 2465 004c 00040058 		.word	1476396032
 2466 0050 00000000 		.word	SystemCoreClock
 2467              		.cfi_endproc
 2468              	.LFE1148:
 2470              		.section	.text.HAL_PWREx_EnterSTOP0Mode,"ax",%progbits
 2471              		.align	1
 2472              		.global	HAL_PWREx_EnterSTOP0Mode
 2473              		.syntax unified
 2474              		.thumb
 2475              		.thumb_func
 2477              	HAL_PWREx_EnterSTOP0Mode:
 2478              	.LVL151:
 2479              	.LFB1149:
1078:Drivers/STM32WBxx_HAL_Driver/Src/stm32wbxx_hal_pwr_ex.c **** 
1079:Drivers/STM32WBxx_HAL_Driver/Src/stm32wbxx_hal_pwr_ex.c **** /****************************************************************************/
1080:Drivers/STM32WBxx_HAL_Driver/Src/stm32wbxx_hal_pwr_ex.c **** 
1081:Drivers/STM32WBxx_HAL_Driver/Src/stm32wbxx_hal_pwr_ex.c **** /**
1082:Drivers/STM32WBxx_HAL_Driver/Src/stm32wbxx_hal_pwr_ex.c ****   * @brief Enter Stop 0 mode.
1083:Drivers/STM32WBxx_HAL_Driver/Src/stm32wbxx_hal_pwr_ex.c ****   * @note  In Stop 0 mode, main and low voltage regulators are ON.
1084:Drivers/STM32WBxx_HAL_Driver/Src/stm32wbxx_hal_pwr_ex.c ****   * @note  In Stop 0 mode, all I/O pins keep the same state as in Run mode.
1085:Drivers/STM32WBxx_HAL_Driver/Src/stm32wbxx_hal_pwr_ex.c ****   * @note  All clocks in the VCORE domain are stopped; the PLL, the MSI,
1086:Drivers/STM32WBxx_HAL_Driver/Src/stm32wbxx_hal_pwr_ex.c ****   *        the HSI and the HSE oscillators are disabled. Some peripherals with the wakeup capabilit
1087:Drivers/STM32WBxx_HAL_Driver/Src/stm32wbxx_hal_pwr_ex.c ****   *        (I2Cx, USARTx and LPUART) can switch on the HSI to receive a frame, and switch off the H
1088:Drivers/STM32WBxx_HAL_Driver/Src/stm32wbxx_hal_pwr_ex.c ****   *        after receiving the frame if it is not a wakeup frame. In this case, the HSI clock is pr
1089:Drivers/STM32WBxx_HAL_Driver/Src/stm32wbxx_hal_pwr_ex.c ****   *        only to the peripheral requesting it.
1090:Drivers/STM32WBxx_HAL_Driver/Src/stm32wbxx_hal_pwr_ex.c ****   *        SRAM1, SRAM2 and register contents are preserved.
1091:Drivers/STM32WBxx_HAL_Driver/Src/stm32wbxx_hal_pwr_ex.c ****   *        The BOR is available.
1092:Drivers/STM32WBxx_HAL_Driver/Src/stm32wbxx_hal_pwr_ex.c ****   * @note  When exiting Stop 0 mode by issuing an interrupt or a wakeup event,
1093:Drivers/STM32WBxx_HAL_Driver/Src/stm32wbxx_hal_pwr_ex.c ****   *         the HSI RC oscillator is selected as system clock if STOPWUCK bit in RCC_CFGR register
1094:Drivers/STM32WBxx_HAL_Driver/Src/stm32wbxx_hal_pwr_ex.c ****   *         is set; the MSI oscillator is selected if STOPWUCK is cleared.
1095:Drivers/STM32WBxx_HAL_Driver/Src/stm32wbxx_hal_pwr_ex.c ****   * @note  By keeping the internal regulator ON during Stop 0 mode, the consumption
1096:Drivers/STM32WBxx_HAL_Driver/Src/stm32wbxx_hal_pwr_ex.c ****   *         is higher although the startup time is reduced.
1097:Drivers/STM32WBxx_HAL_Driver/Src/stm32wbxx_hal_pwr_ex.c ****   * @note  Case of Stop0 mode with SMPS: Before entering Stop 0 mode with SMPS Step Down converter 
1098:Drivers/STM32WBxx_HAL_Driver/Src/stm32wbxx_hal_pwr_ex.c ****   *        the HSI16 must be kept on by enabling HSI kernel clock (set HSIKERON register bit).
1099:Drivers/STM32WBxx_HAL_Driver/Src/stm32wbxx_hal_pwr_ex.c ****   * @note  According to system power policy, system entering in Stop mode
1100:Drivers/STM32WBxx_HAL_Driver/Src/stm32wbxx_hal_pwr_ex.c ****   *        is depending on other CPU power mode.
1101:Drivers/STM32WBxx_HAL_Driver/Src/stm32wbxx_hal_pwr_ex.c ****   * @param STOPEntry  specifies if Stop mode in entered with WFI or WFE instruction.
1102:Drivers/STM32WBxx_HAL_Driver/Src/stm32wbxx_hal_pwr_ex.c ****   *          This parameter can be one of the following values:
1103:Drivers/STM32WBxx_HAL_Driver/Src/stm32wbxx_hal_pwr_ex.c ****   *            @arg @ref PWR_STOPENTRY_WFI  Enter Stop mode with WFI instruction
ARM GAS  C:\Users\Nathan\AppData\Local\Temp\ccvsgOlc.s 			page 116


1104:Drivers/STM32WBxx_HAL_Driver/Src/stm32wbxx_hal_pwr_ex.c ****   *            @arg @ref PWR_STOPENTRY_WFE  Enter Stop mode with WFE instruction
1105:Drivers/STM32WBxx_HAL_Driver/Src/stm32wbxx_hal_pwr_ex.c ****   * @retval None
1106:Drivers/STM32WBxx_HAL_Driver/Src/stm32wbxx_hal_pwr_ex.c ****   */
1107:Drivers/STM32WBxx_HAL_Driver/Src/stm32wbxx_hal_pwr_ex.c **** void HAL_PWREx_EnterSTOP0Mode(uint8_t STOPEntry)
1108:Drivers/STM32WBxx_HAL_Driver/Src/stm32wbxx_hal_pwr_ex.c **** {
 2480              		.loc 1 1108 1 is_stmt 1 view -0
 2481              		.cfi_startproc
 2482              		@ args = 0, pretend = 0, frame = 0
 2483              		@ frame_needed = 0, uses_anonymous_args = 0
 2484              		@ link register save eliminated.
1109:Drivers/STM32WBxx_HAL_Driver/Src/stm32wbxx_hal_pwr_ex.c ****   /* Check the parameters */
1110:Drivers/STM32WBxx_HAL_Driver/Src/stm32wbxx_hal_pwr_ex.c ****   assert_param(IS_PWR_STOP_ENTRY(STOPEntry));
 2485              		.loc 1 1110 3 view .LVU515
1111:Drivers/STM32WBxx_HAL_Driver/Src/stm32wbxx_hal_pwr_ex.c **** 
1112:Drivers/STM32WBxx_HAL_Driver/Src/stm32wbxx_hal_pwr_ex.c ****   /* Stop 0 mode with Main Regulator */
1113:Drivers/STM32WBxx_HAL_Driver/Src/stm32wbxx_hal_pwr_ex.c ****   MODIFY_REG(PWR->CR1, PWR_CR1_LPMS, PWR_LOWPOWERMODE_STOP0);
 2486              		.loc 1 1113 3 view .LVU516
 2487 0000 0B4A     		ldr	r2, .L214
 2488 0002 1368     		ldr	r3, [r2]
 2489 0004 23F00703 		bic	r3, r3, #7
 2490 0008 1360     		str	r3, [r2]
1114:Drivers/STM32WBxx_HAL_Driver/Src/stm32wbxx_hal_pwr_ex.c **** 
1115:Drivers/STM32WBxx_HAL_Driver/Src/stm32wbxx_hal_pwr_ex.c **** 
1116:Drivers/STM32WBxx_HAL_Driver/Src/stm32wbxx_hal_pwr_ex.c ****   /* Set SLEEPDEEP bit of Cortex System Control Register */
1117:Drivers/STM32WBxx_HAL_Driver/Src/stm32wbxx_hal_pwr_ex.c ****   SET_BIT(SCB->SCR, ((uint32_t)SCB_SCR_SLEEPDEEP_Msk));
 2491              		.loc 1 1117 3 view .LVU517
 2492 000a 0A4A     		ldr	r2, .L214+4
 2493 000c 1369     		ldr	r3, [r2, #16]
 2494 000e 43F00403 		orr	r3, r3, #4
 2495 0012 1361     		str	r3, [r2, #16]
1118:Drivers/STM32WBxx_HAL_Driver/Src/stm32wbxx_hal_pwr_ex.c **** 
1119:Drivers/STM32WBxx_HAL_Driver/Src/stm32wbxx_hal_pwr_ex.c ****   /* Select Stop mode entry --------------------------------------------------*/
1120:Drivers/STM32WBxx_HAL_Driver/Src/stm32wbxx_hal_pwr_ex.c ****   if (STOPEntry == PWR_STOPENTRY_WFI)
 2496              		.loc 1 1120 3 view .LVU518
 2497              		.loc 1 1120 6 is_stmt 0 view .LVU519
 2498 0014 0128     		cmp	r0, #1
 2499 0016 08D0     		beq	.L213
1121:Drivers/STM32WBxx_HAL_Driver/Src/stm32wbxx_hal_pwr_ex.c ****   {
1122:Drivers/STM32WBxx_HAL_Driver/Src/stm32wbxx_hal_pwr_ex.c ****     /* Request Wait For Interrupt */
1123:Drivers/STM32WBxx_HAL_Driver/Src/stm32wbxx_hal_pwr_ex.c ****     __WFI();
1124:Drivers/STM32WBxx_HAL_Driver/Src/stm32wbxx_hal_pwr_ex.c ****   }
1125:Drivers/STM32WBxx_HAL_Driver/Src/stm32wbxx_hal_pwr_ex.c ****   else
1126:Drivers/STM32WBxx_HAL_Driver/Src/stm32wbxx_hal_pwr_ex.c ****   {
1127:Drivers/STM32WBxx_HAL_Driver/Src/stm32wbxx_hal_pwr_ex.c ****     /* Request Wait For Event */
1128:Drivers/STM32WBxx_HAL_Driver/Src/stm32wbxx_hal_pwr_ex.c ****     __SEV();
 2500              		.loc 1 1128 5 is_stmt 1 view .LVU520
 2501              		.syntax unified
 2502              	@ 1128 "Drivers/STM32WBxx_HAL_Driver/Src/stm32wbxx_hal_pwr_ex.c" 1
 2503 0018 40BF     		sev
 2504              	@ 0 "" 2
1129:Drivers/STM32WBxx_HAL_Driver/Src/stm32wbxx_hal_pwr_ex.c ****     __WFE();
 2505              		.loc 1 1129 5 view .LVU521
 2506              	@ 1129 "Drivers/STM32WBxx_HAL_Driver/Src/stm32wbxx_hal_pwr_ex.c" 1
 2507 001a 20BF     		wfe
 2508              	@ 0 "" 2
1130:Drivers/STM32WBxx_HAL_Driver/Src/stm32wbxx_hal_pwr_ex.c ****     __WFE();
 2509              		.loc 1 1130 5 view .LVU522
ARM GAS  C:\Users\Nathan\AppData\Local\Temp\ccvsgOlc.s 			page 117


 2510              	@ 1130 "Drivers/STM32WBxx_HAL_Driver/Src/stm32wbxx_hal_pwr_ex.c" 1
 2511 001c 20BF     		wfe
 2512              	@ 0 "" 2
 2513              		.thumb
 2514              		.syntax unified
 2515              	.L212:
1131:Drivers/STM32WBxx_HAL_Driver/Src/stm32wbxx_hal_pwr_ex.c ****   }
1132:Drivers/STM32WBxx_HAL_Driver/Src/stm32wbxx_hal_pwr_ex.c **** 
1133:Drivers/STM32WBxx_HAL_Driver/Src/stm32wbxx_hal_pwr_ex.c ****   /* Reset SLEEPDEEP bit of Cortex System Control Register */
1134:Drivers/STM32WBxx_HAL_Driver/Src/stm32wbxx_hal_pwr_ex.c ****   CLEAR_BIT(SCB->SCR, ((uint32_t)SCB_SCR_SLEEPDEEP_Msk));
 2516              		.loc 1 1134 3 view .LVU523
 2517 001e 054A     		ldr	r2, .L214+4
 2518 0020 1369     		ldr	r3, [r2, #16]
 2519 0022 23F00403 		bic	r3, r3, #4
 2520 0026 1361     		str	r3, [r2, #16]
1135:Drivers/STM32WBxx_HAL_Driver/Src/stm32wbxx_hal_pwr_ex.c **** }
 2521              		.loc 1 1135 1 is_stmt 0 view .LVU524
 2522 0028 7047     		bx	lr
 2523              	.L213:
1123:Drivers/STM32WBxx_HAL_Driver/Src/stm32wbxx_hal_pwr_ex.c ****   }
 2524              		.loc 1 1123 5 is_stmt 1 view .LVU525
 2525              		.syntax unified
 2526              	@ 1123 "Drivers/STM32WBxx_HAL_Driver/Src/stm32wbxx_hal_pwr_ex.c" 1
 2527 002a 30BF     		wfi
 2528              	@ 0 "" 2
 2529              		.thumb
 2530              		.syntax unified
 2531 002c F7E7     		b	.L212
 2532              	.L215:
 2533 002e 00BF     		.align	2
 2534              	.L214:
 2535 0030 00040058 		.word	1476396032
 2536 0034 00ED00E0 		.word	-536810240
 2537              		.cfi_endproc
 2538              	.LFE1149:
 2540              		.section	.text.HAL_PWREx_EnterSTOP1Mode,"ax",%progbits
 2541              		.align	1
 2542              		.global	HAL_PWREx_EnterSTOP1Mode
 2543              		.syntax unified
 2544              		.thumb
 2545              		.thumb_func
 2547              	HAL_PWREx_EnterSTOP1Mode:
 2548              	.LVL152:
 2549              	.LFB1150:
1136:Drivers/STM32WBxx_HAL_Driver/Src/stm32wbxx_hal_pwr_ex.c **** 
1137:Drivers/STM32WBxx_HAL_Driver/Src/stm32wbxx_hal_pwr_ex.c **** /**
1138:Drivers/STM32WBxx_HAL_Driver/Src/stm32wbxx_hal_pwr_ex.c ****   * @brief Enter Stop 1 mode.
1139:Drivers/STM32WBxx_HAL_Driver/Src/stm32wbxx_hal_pwr_ex.c ****   * @note  In Stop 1 mode, only low power voltage regulator is ON.
1140:Drivers/STM32WBxx_HAL_Driver/Src/stm32wbxx_hal_pwr_ex.c ****   * @note  In Stop 1 mode, all I/O pins keep the same state as in Run mode.
1141:Drivers/STM32WBxx_HAL_Driver/Src/stm32wbxx_hal_pwr_ex.c ****   * @note  All clocks in the VCORE domain are stopped; the PLL, the MSI,
1142:Drivers/STM32WBxx_HAL_Driver/Src/stm32wbxx_hal_pwr_ex.c ****   *        the HSI and the HSE oscillators are disabled. Some peripherals with the wakeup capabilit
1143:Drivers/STM32WBxx_HAL_Driver/Src/stm32wbxx_hal_pwr_ex.c ****   *        (I2Cx, USARTx and LPUART) can switch on the HSI to receive a frame, and switch off the H
1144:Drivers/STM32WBxx_HAL_Driver/Src/stm32wbxx_hal_pwr_ex.c ****   *        after receiving the frame if it is not a wakeup frame. In this case, the HSI clock is pr
1145:Drivers/STM32WBxx_HAL_Driver/Src/stm32wbxx_hal_pwr_ex.c ****   *        only to the peripheral requesting it.
1146:Drivers/STM32WBxx_HAL_Driver/Src/stm32wbxx_hal_pwr_ex.c ****   *        SRAM1, SRAM2 and register contents are preserved.
1147:Drivers/STM32WBxx_HAL_Driver/Src/stm32wbxx_hal_pwr_ex.c ****   *        The BOR is available.
1148:Drivers/STM32WBxx_HAL_Driver/Src/stm32wbxx_hal_pwr_ex.c ****   * @note  When exiting Stop 1 mode by issuing an interrupt or a wakeup event,
ARM GAS  C:\Users\Nathan\AppData\Local\Temp\ccvsgOlc.s 			page 118


1149:Drivers/STM32WBxx_HAL_Driver/Src/stm32wbxx_hal_pwr_ex.c ****   *         the HSI RC oscillator is selected as system clock if STOPWUCK bit in RCC_CFGR register
1150:Drivers/STM32WBxx_HAL_Driver/Src/stm32wbxx_hal_pwr_ex.c ****   *         is set; the MSI oscillator is selected if STOPWUCK is cleared.
1151:Drivers/STM32WBxx_HAL_Driver/Src/stm32wbxx_hal_pwr_ex.c ****   * @note  Due to low power mode, an additional startup delay is incurred when waking up from Stop 
1152:Drivers/STM32WBxx_HAL_Driver/Src/stm32wbxx_hal_pwr_ex.c ****   * @note  According to system power policy, system entering in Stop mode
1153:Drivers/STM32WBxx_HAL_Driver/Src/stm32wbxx_hal_pwr_ex.c ****   *        is depending on other CPU power mode.
1154:Drivers/STM32WBxx_HAL_Driver/Src/stm32wbxx_hal_pwr_ex.c ****   * @param STOPEntry  specifies if Stop mode in entered with WFI or WFE instruction.
1155:Drivers/STM32WBxx_HAL_Driver/Src/stm32wbxx_hal_pwr_ex.c ****   *          This parameter can be one of the following values:
1156:Drivers/STM32WBxx_HAL_Driver/Src/stm32wbxx_hal_pwr_ex.c ****   *            @arg @ref PWR_STOPENTRY_WFI  Enter Stop mode with WFI instruction
1157:Drivers/STM32WBxx_HAL_Driver/Src/stm32wbxx_hal_pwr_ex.c ****   *            @arg @ref PWR_STOPENTRY_WFE  Enter Stop mode with WFE instruction
1158:Drivers/STM32WBxx_HAL_Driver/Src/stm32wbxx_hal_pwr_ex.c ****   * @retval None
1159:Drivers/STM32WBxx_HAL_Driver/Src/stm32wbxx_hal_pwr_ex.c ****   */
1160:Drivers/STM32WBxx_HAL_Driver/Src/stm32wbxx_hal_pwr_ex.c **** void HAL_PWREx_EnterSTOP1Mode(uint8_t STOPEntry)
1161:Drivers/STM32WBxx_HAL_Driver/Src/stm32wbxx_hal_pwr_ex.c **** {
 2550              		.loc 1 1161 1 view -0
 2551              		.cfi_startproc
 2552              		@ args = 0, pretend = 0, frame = 0
 2553              		@ frame_needed = 0, uses_anonymous_args = 0
 2554              		@ link register save eliminated.
1162:Drivers/STM32WBxx_HAL_Driver/Src/stm32wbxx_hal_pwr_ex.c ****   /* Check the parameters */
1163:Drivers/STM32WBxx_HAL_Driver/Src/stm32wbxx_hal_pwr_ex.c ****   assert_param(IS_PWR_STOP_ENTRY(STOPEntry));
 2555              		.loc 1 1163 3 view .LVU527
1164:Drivers/STM32WBxx_HAL_Driver/Src/stm32wbxx_hal_pwr_ex.c **** 
1165:Drivers/STM32WBxx_HAL_Driver/Src/stm32wbxx_hal_pwr_ex.c ****   /* Stop 1 mode with Low-Power Regulator */
1166:Drivers/STM32WBxx_HAL_Driver/Src/stm32wbxx_hal_pwr_ex.c ****   MODIFY_REG(PWR->CR1, PWR_CR1_LPMS, PWR_LOWPOWERMODE_STOP1);
 2556              		.loc 1 1166 3 view .LVU528
 2557 0000 0C4A     		ldr	r2, .L220
 2558 0002 1368     		ldr	r3, [r2]
 2559 0004 23F00703 		bic	r3, r3, #7
 2560 0008 43F00103 		orr	r3, r3, #1
 2561 000c 1360     		str	r3, [r2]
1167:Drivers/STM32WBxx_HAL_Driver/Src/stm32wbxx_hal_pwr_ex.c **** 
1168:Drivers/STM32WBxx_HAL_Driver/Src/stm32wbxx_hal_pwr_ex.c ****   /* Set SLEEPDEEP bit of Cortex System Control Register */
1169:Drivers/STM32WBxx_HAL_Driver/Src/stm32wbxx_hal_pwr_ex.c ****   SET_BIT(SCB->SCR, ((uint32_t)SCB_SCR_SLEEPDEEP_Msk));
 2562              		.loc 1 1169 3 view .LVU529
 2563 000e 0A4A     		ldr	r2, .L220+4
 2564 0010 1369     		ldr	r3, [r2, #16]
 2565 0012 43F00403 		orr	r3, r3, #4
 2566 0016 1361     		str	r3, [r2, #16]
1170:Drivers/STM32WBxx_HAL_Driver/Src/stm32wbxx_hal_pwr_ex.c **** 
1171:Drivers/STM32WBxx_HAL_Driver/Src/stm32wbxx_hal_pwr_ex.c ****   /* Select Stop mode entry --------------------------------------------------*/
1172:Drivers/STM32WBxx_HAL_Driver/Src/stm32wbxx_hal_pwr_ex.c ****   if (STOPEntry == PWR_STOPENTRY_WFI)
 2567              		.loc 1 1172 3 view .LVU530
 2568              		.loc 1 1172 6 is_stmt 0 view .LVU531
 2569 0018 0128     		cmp	r0, #1
 2570 001a 08D0     		beq	.L219
1173:Drivers/STM32WBxx_HAL_Driver/Src/stm32wbxx_hal_pwr_ex.c ****   {
1174:Drivers/STM32WBxx_HAL_Driver/Src/stm32wbxx_hal_pwr_ex.c ****     /* Request Wait For Interrupt */
1175:Drivers/STM32WBxx_HAL_Driver/Src/stm32wbxx_hal_pwr_ex.c ****     __WFI();
1176:Drivers/STM32WBxx_HAL_Driver/Src/stm32wbxx_hal_pwr_ex.c ****   }
1177:Drivers/STM32WBxx_HAL_Driver/Src/stm32wbxx_hal_pwr_ex.c ****   else
1178:Drivers/STM32WBxx_HAL_Driver/Src/stm32wbxx_hal_pwr_ex.c ****   {
1179:Drivers/STM32WBxx_HAL_Driver/Src/stm32wbxx_hal_pwr_ex.c ****     /* Request Wait For Event */
1180:Drivers/STM32WBxx_HAL_Driver/Src/stm32wbxx_hal_pwr_ex.c ****     __SEV();
 2571              		.loc 1 1180 5 is_stmt 1 view .LVU532
 2572              		.syntax unified
 2573              	@ 1180 "Drivers/STM32WBxx_HAL_Driver/Src/stm32wbxx_hal_pwr_ex.c" 1
 2574 001c 40BF     		sev
ARM GAS  C:\Users\Nathan\AppData\Local\Temp\ccvsgOlc.s 			page 119


 2575              	@ 0 "" 2
1181:Drivers/STM32WBxx_HAL_Driver/Src/stm32wbxx_hal_pwr_ex.c ****     __WFE();
 2576              		.loc 1 1181 5 view .LVU533
 2577              	@ 1181 "Drivers/STM32WBxx_HAL_Driver/Src/stm32wbxx_hal_pwr_ex.c" 1
 2578 001e 20BF     		wfe
 2579              	@ 0 "" 2
1182:Drivers/STM32WBxx_HAL_Driver/Src/stm32wbxx_hal_pwr_ex.c ****     __WFE();
 2580              		.loc 1 1182 5 view .LVU534
 2581              	@ 1182 "Drivers/STM32WBxx_HAL_Driver/Src/stm32wbxx_hal_pwr_ex.c" 1
 2582 0020 20BF     		wfe
 2583              	@ 0 "" 2
 2584              		.thumb
 2585              		.syntax unified
 2586              	.L218:
1183:Drivers/STM32WBxx_HAL_Driver/Src/stm32wbxx_hal_pwr_ex.c ****   }
1184:Drivers/STM32WBxx_HAL_Driver/Src/stm32wbxx_hal_pwr_ex.c **** 
1185:Drivers/STM32WBxx_HAL_Driver/Src/stm32wbxx_hal_pwr_ex.c ****   /* Reset SLEEPDEEP bit of Cortex System Control Register */
1186:Drivers/STM32WBxx_HAL_Driver/Src/stm32wbxx_hal_pwr_ex.c ****   CLEAR_BIT(SCB->SCR, ((uint32_t)SCB_SCR_SLEEPDEEP_Msk));
 2587              		.loc 1 1186 3 view .LVU535
 2588 0022 054A     		ldr	r2, .L220+4
 2589 0024 1369     		ldr	r3, [r2, #16]
 2590 0026 23F00403 		bic	r3, r3, #4
 2591 002a 1361     		str	r3, [r2, #16]
1187:Drivers/STM32WBxx_HAL_Driver/Src/stm32wbxx_hal_pwr_ex.c **** }
 2592              		.loc 1 1187 1 is_stmt 0 view .LVU536
 2593 002c 7047     		bx	lr
 2594              	.L219:
1175:Drivers/STM32WBxx_HAL_Driver/Src/stm32wbxx_hal_pwr_ex.c ****   }
 2595              		.loc 1 1175 5 is_stmt 1 view .LVU537
 2596              		.syntax unified
 2597              	@ 1175 "Drivers/STM32WBxx_HAL_Driver/Src/stm32wbxx_hal_pwr_ex.c" 1
 2598 002e 30BF     		wfi
 2599              	@ 0 "" 2
 2600              		.thumb
 2601              		.syntax unified
 2602 0030 F7E7     		b	.L218
 2603              	.L221:
 2604 0032 00BF     		.align	2
 2605              	.L220:
 2606 0034 00040058 		.word	1476396032
 2607 0038 00ED00E0 		.word	-536810240
 2608              		.cfi_endproc
 2609              	.LFE1150:
 2611              		.section	.text.HAL_PWREx_EnterSTOP2Mode,"ax",%progbits
 2612              		.align	1
 2613              		.global	HAL_PWREx_EnterSTOP2Mode
 2614              		.syntax unified
 2615              		.thumb
 2616              		.thumb_func
 2618              	HAL_PWREx_EnterSTOP2Mode:
 2619              	.LVL153:
 2620              	.LFB1151:
1188:Drivers/STM32WBxx_HAL_Driver/Src/stm32wbxx_hal_pwr_ex.c **** 
1189:Drivers/STM32WBxx_HAL_Driver/Src/stm32wbxx_hal_pwr_ex.c **** #if defined(PWR_SUPPORT_STOP2)
1190:Drivers/STM32WBxx_HAL_Driver/Src/stm32wbxx_hal_pwr_ex.c **** /**
1191:Drivers/STM32WBxx_HAL_Driver/Src/stm32wbxx_hal_pwr_ex.c ****   * @brief Enter Stop 2 mode.
1192:Drivers/STM32WBxx_HAL_Driver/Src/stm32wbxx_hal_pwr_ex.c ****   * @note  In Stop 2 mode, only low power voltage regulator is ON.
ARM GAS  C:\Users\Nathan\AppData\Local\Temp\ccvsgOlc.s 			page 120


1193:Drivers/STM32WBxx_HAL_Driver/Src/stm32wbxx_hal_pwr_ex.c ****   * @note  In Stop 2 mode, all I/O pins keep the same state as in Run mode.
1194:Drivers/STM32WBxx_HAL_Driver/Src/stm32wbxx_hal_pwr_ex.c ****   * @note  All clocks in the VCORE domain are stopped, the PLL, the MSI,
1195:Drivers/STM32WBxx_HAL_Driver/Src/stm32wbxx_hal_pwr_ex.c ****   *        the HSI and the HSE oscillators are disabled. Some peripherals with wakeup capability
1196:Drivers/STM32WBxx_HAL_Driver/Src/stm32wbxx_hal_pwr_ex.c ****   *        (LCD, LPTIM1, I2C3 and LPUART) can switch on the HSI to receive a frame, and switch off 
1197:Drivers/STM32WBxx_HAL_Driver/Src/stm32wbxx_hal_pwr_ex.c ****   *        receiving the frame if it is not a wakeup frame. In this case the HSI clock is propagate
1198:Drivers/STM32WBxx_HAL_Driver/Src/stm32wbxx_hal_pwr_ex.c ****   *        to the peripheral requesting it.
1199:Drivers/STM32WBxx_HAL_Driver/Src/stm32wbxx_hal_pwr_ex.c ****   *        SRAM1, SRAM2 and register contents are preserved.
1200:Drivers/STM32WBxx_HAL_Driver/Src/stm32wbxx_hal_pwr_ex.c ****   *        The BOR is available.
1201:Drivers/STM32WBxx_HAL_Driver/Src/stm32wbxx_hal_pwr_ex.c ****   *        The voltage regulator is set in low-power mode but LPR bit must be cleared to enter stop
1202:Drivers/STM32WBxx_HAL_Driver/Src/stm32wbxx_hal_pwr_ex.c ****   *        Otherwise, Stop 1 mode is entered.
1203:Drivers/STM32WBxx_HAL_Driver/Src/stm32wbxx_hal_pwr_ex.c ****   * @note  When exiting Stop 2 mode by issuing an interrupt or a wakeup event,
1204:Drivers/STM32WBxx_HAL_Driver/Src/stm32wbxx_hal_pwr_ex.c ****   *         the HSI RC oscillator is selected as system clock if STOPWUCK bit in RCC_CFGR register
1205:Drivers/STM32WBxx_HAL_Driver/Src/stm32wbxx_hal_pwr_ex.c ****   *         is set; the MSI oscillator is selected if STOPWUCK is cleared.
1206:Drivers/STM32WBxx_HAL_Driver/Src/stm32wbxx_hal_pwr_ex.c ****   * @note  Case of Stop2 mode and debugger probe attached: a workaround should be applied.
1207:Drivers/STM32WBxx_HAL_Driver/Src/stm32wbxx_hal_pwr_ex.c ****   *        Issue specified in "ES0394 - STM32WB55Cx/Rx/Vx device errata":
1208:Drivers/STM32WBxx_HAL_Driver/Src/stm32wbxx_hal_pwr_ex.c ****   *        2.2.9 Incomplete Stop 2 mode entry after a wakeup from debug upon EXTI line 48 event
1209:Drivers/STM32WBxx_HAL_Driver/Src/stm32wbxx_hal_pwr_ex.c ****   *        "With the JTAG debugger enabled on GPIO pins and after a wakeup from debug triggered by 
1210:Drivers/STM32WBxx_HAL_Driver/Src/stm32wbxx_hal_pwr_ex.c ****   *        line 48 (CDBGPWRUPREQ), the device may enter in a state in which attempts to enter Stop 
1211:Drivers/STM32WBxx_HAL_Driver/Src/stm32wbxx_hal_pwr_ex.c ****   *        effective ..."
1212:Drivers/STM32WBxx_HAL_Driver/Src/stm32wbxx_hal_pwr_ex.c ****   *        Workaround implementation example using LL driver:
1213:Drivers/STM32WBxx_HAL_Driver/Src/stm32wbxx_hal_pwr_ex.c ****   *        LL_EXTI_DisableIT_32_63(LL_EXTI_LINE_48);
1214:Drivers/STM32WBxx_HAL_Driver/Src/stm32wbxx_hal_pwr_ex.c ****   *        LL_C2_EXTI_DisableIT_32_63(LL_EXTI_LINE_48);
1215:Drivers/STM32WBxx_HAL_Driver/Src/stm32wbxx_hal_pwr_ex.c ****   * @note  According to system power policy, system entering in Stop mode
1216:Drivers/STM32WBxx_HAL_Driver/Src/stm32wbxx_hal_pwr_ex.c ****   *        is depending on other CPU power mode.
1217:Drivers/STM32WBxx_HAL_Driver/Src/stm32wbxx_hal_pwr_ex.c ****   * @param STOPEntry  specifies if Stop mode in entered with WFI or WFE instruction.
1218:Drivers/STM32WBxx_HAL_Driver/Src/stm32wbxx_hal_pwr_ex.c ****   *          This parameter can be one of the following values:
1219:Drivers/STM32WBxx_HAL_Driver/Src/stm32wbxx_hal_pwr_ex.c ****   *            @arg @ref PWR_STOPENTRY_WFI  Enter Stop mode with WFI instruction
1220:Drivers/STM32WBxx_HAL_Driver/Src/stm32wbxx_hal_pwr_ex.c ****   *            @arg @ref PWR_STOPENTRY_WFE  Enter Stop mode with WFE instruction
1221:Drivers/STM32WBxx_HAL_Driver/Src/stm32wbxx_hal_pwr_ex.c ****   * @retval None
1222:Drivers/STM32WBxx_HAL_Driver/Src/stm32wbxx_hal_pwr_ex.c ****   */
1223:Drivers/STM32WBxx_HAL_Driver/Src/stm32wbxx_hal_pwr_ex.c **** void HAL_PWREx_EnterSTOP2Mode(uint8_t STOPEntry)
1224:Drivers/STM32WBxx_HAL_Driver/Src/stm32wbxx_hal_pwr_ex.c **** {
 2621              		.loc 1 1224 1 view -0
 2622              		.cfi_startproc
 2623              		@ args = 0, pretend = 0, frame = 0
 2624              		@ frame_needed = 0, uses_anonymous_args = 0
 2625              		@ link register save eliminated.
1225:Drivers/STM32WBxx_HAL_Driver/Src/stm32wbxx_hal_pwr_ex.c ****   /* Check the parameter */
1226:Drivers/STM32WBxx_HAL_Driver/Src/stm32wbxx_hal_pwr_ex.c ****   assert_param(IS_PWR_STOP_ENTRY(STOPEntry));
 2626              		.loc 1 1226 3 view .LVU539
1227:Drivers/STM32WBxx_HAL_Driver/Src/stm32wbxx_hal_pwr_ex.c **** 
1228:Drivers/STM32WBxx_HAL_Driver/Src/stm32wbxx_hal_pwr_ex.c ****   /* Set Stop mode 2 */
1229:Drivers/STM32WBxx_HAL_Driver/Src/stm32wbxx_hal_pwr_ex.c ****   MODIFY_REG(PWR->CR1, PWR_CR1_LPMS, PWR_LOWPOWERMODE_STOP2);
 2627              		.loc 1 1229 3 view .LVU540
 2628 0000 0C4A     		ldr	r2, .L226
 2629 0002 1368     		ldr	r3, [r2]
 2630 0004 23F00703 		bic	r3, r3, #7
 2631 0008 43F00203 		orr	r3, r3, #2
 2632 000c 1360     		str	r3, [r2]
1230:Drivers/STM32WBxx_HAL_Driver/Src/stm32wbxx_hal_pwr_ex.c **** 
1231:Drivers/STM32WBxx_HAL_Driver/Src/stm32wbxx_hal_pwr_ex.c ****   /* Set SLEEPDEEP bit of Cortex System Control Register */
1232:Drivers/STM32WBxx_HAL_Driver/Src/stm32wbxx_hal_pwr_ex.c ****   SET_BIT(SCB->SCR, ((uint32_t)SCB_SCR_SLEEPDEEP_Msk));
 2633              		.loc 1 1232 3 view .LVU541
 2634 000e 0A4A     		ldr	r2, .L226+4
 2635 0010 1369     		ldr	r3, [r2, #16]
 2636 0012 43F00403 		orr	r3, r3, #4
 2637 0016 1361     		str	r3, [r2, #16]
ARM GAS  C:\Users\Nathan\AppData\Local\Temp\ccvsgOlc.s 			page 121


1233:Drivers/STM32WBxx_HAL_Driver/Src/stm32wbxx_hal_pwr_ex.c **** 
1234:Drivers/STM32WBxx_HAL_Driver/Src/stm32wbxx_hal_pwr_ex.c ****   /* Select Stop mode entry --------------------------------------------------*/
1235:Drivers/STM32WBxx_HAL_Driver/Src/stm32wbxx_hal_pwr_ex.c ****   if (STOPEntry == PWR_STOPENTRY_WFI)
 2638              		.loc 1 1235 3 view .LVU542
 2639              		.loc 1 1235 6 is_stmt 0 view .LVU543
 2640 0018 0128     		cmp	r0, #1
 2641 001a 08D0     		beq	.L225
1236:Drivers/STM32WBxx_HAL_Driver/Src/stm32wbxx_hal_pwr_ex.c ****   {
1237:Drivers/STM32WBxx_HAL_Driver/Src/stm32wbxx_hal_pwr_ex.c ****     /* Request Wait For Interrupt */
1238:Drivers/STM32WBxx_HAL_Driver/Src/stm32wbxx_hal_pwr_ex.c ****     __WFI();
1239:Drivers/STM32WBxx_HAL_Driver/Src/stm32wbxx_hal_pwr_ex.c ****   }
1240:Drivers/STM32WBxx_HAL_Driver/Src/stm32wbxx_hal_pwr_ex.c ****   else
1241:Drivers/STM32WBxx_HAL_Driver/Src/stm32wbxx_hal_pwr_ex.c ****   {
1242:Drivers/STM32WBxx_HAL_Driver/Src/stm32wbxx_hal_pwr_ex.c ****     /* Request Wait For Event */
1243:Drivers/STM32WBxx_HAL_Driver/Src/stm32wbxx_hal_pwr_ex.c ****     __SEV();
 2642              		.loc 1 1243 5 is_stmt 1 view .LVU544
 2643              		.syntax unified
 2644              	@ 1243 "Drivers/STM32WBxx_HAL_Driver/Src/stm32wbxx_hal_pwr_ex.c" 1
 2645 001c 40BF     		sev
 2646              	@ 0 "" 2
1244:Drivers/STM32WBxx_HAL_Driver/Src/stm32wbxx_hal_pwr_ex.c ****     __WFE();
 2647              		.loc 1 1244 5 view .LVU545
 2648              	@ 1244 "Drivers/STM32WBxx_HAL_Driver/Src/stm32wbxx_hal_pwr_ex.c" 1
 2649 001e 20BF     		wfe
 2650              	@ 0 "" 2
1245:Drivers/STM32WBxx_HAL_Driver/Src/stm32wbxx_hal_pwr_ex.c ****     __WFE();
 2651              		.loc 1 1245 5 view .LVU546
 2652              	@ 1245 "Drivers/STM32WBxx_HAL_Driver/Src/stm32wbxx_hal_pwr_ex.c" 1
 2653 0020 20BF     		wfe
 2654              	@ 0 "" 2
 2655              		.thumb
 2656              		.syntax unified
 2657              	.L224:
1246:Drivers/STM32WBxx_HAL_Driver/Src/stm32wbxx_hal_pwr_ex.c ****   }
1247:Drivers/STM32WBxx_HAL_Driver/Src/stm32wbxx_hal_pwr_ex.c **** 
1248:Drivers/STM32WBxx_HAL_Driver/Src/stm32wbxx_hal_pwr_ex.c ****   /* Reset SLEEPDEEP bit of Cortex System Control Register */
1249:Drivers/STM32WBxx_HAL_Driver/Src/stm32wbxx_hal_pwr_ex.c ****   CLEAR_BIT(SCB->SCR, ((uint32_t)SCB_SCR_SLEEPDEEP_Msk));
 2658              		.loc 1 1249 3 view .LVU547
 2659 0022 054A     		ldr	r2, .L226+4
 2660 0024 1369     		ldr	r3, [r2, #16]
 2661 0026 23F00403 		bic	r3, r3, #4
 2662 002a 1361     		str	r3, [r2, #16]
1250:Drivers/STM32WBxx_HAL_Driver/Src/stm32wbxx_hal_pwr_ex.c **** }
 2663              		.loc 1 1250 1 is_stmt 0 view .LVU548
 2664 002c 7047     		bx	lr
 2665              	.L225:
1238:Drivers/STM32WBxx_HAL_Driver/Src/stm32wbxx_hal_pwr_ex.c ****   }
 2666              		.loc 1 1238 5 is_stmt 1 view .LVU549
 2667              		.syntax unified
 2668              	@ 1238 "Drivers/STM32WBxx_HAL_Driver/Src/stm32wbxx_hal_pwr_ex.c" 1
 2669 002e 30BF     		wfi
 2670              	@ 0 "" 2
 2671              		.thumb
 2672              		.syntax unified
 2673 0030 F7E7     		b	.L224
 2674              	.L227:
 2675 0032 00BF     		.align	2
ARM GAS  C:\Users\Nathan\AppData\Local\Temp\ccvsgOlc.s 			page 122


 2676              	.L226:
 2677 0034 00040058 		.word	1476396032
 2678 0038 00ED00E0 		.word	-536810240
 2679              		.cfi_endproc
 2680              	.LFE1151:
 2682              		.section	.text.HAL_PWREx_EnterSHUTDOWNMode,"ax",%progbits
 2683              		.align	1
 2684              		.global	HAL_PWREx_EnterSHUTDOWNMode
 2685              		.syntax unified
 2686              		.thumb
 2687              		.thumb_func
 2689              	HAL_PWREx_EnterSHUTDOWNMode:
 2690              	.LFB1152:
1251:Drivers/STM32WBxx_HAL_Driver/Src/stm32wbxx_hal_pwr_ex.c **** #endif /* PWR_SUPPORT_STOP2 */
1252:Drivers/STM32WBxx_HAL_Driver/Src/stm32wbxx_hal_pwr_ex.c **** 
1253:Drivers/STM32WBxx_HAL_Driver/Src/stm32wbxx_hal_pwr_ex.c **** /**
1254:Drivers/STM32WBxx_HAL_Driver/Src/stm32wbxx_hal_pwr_ex.c ****   * @brief Enter Shutdown mode.
1255:Drivers/STM32WBxx_HAL_Driver/Src/stm32wbxx_hal_pwr_ex.c ****   * @note  In Shutdown mode, the PLL, the HSI, the MSI, the LSI and the HSE oscillators are switche
1256:Drivers/STM32WBxx_HAL_Driver/Src/stm32wbxx_hal_pwr_ex.c ****   *        off. The voltage regulator is disabled and Vcore domain is powered off.
1257:Drivers/STM32WBxx_HAL_Driver/Src/stm32wbxx_hal_pwr_ex.c ****   *        SRAM1, SRAM2, BKRAM and registers contents are lost except for registers in the Backup d
1258:Drivers/STM32WBxx_HAL_Driver/Src/stm32wbxx_hal_pwr_ex.c ****   *        The BOR is not available.
1259:Drivers/STM32WBxx_HAL_Driver/Src/stm32wbxx_hal_pwr_ex.c ****   * @note  The I/Os can be configured either with a pull-up or pull-down or can be kept in analog s
1260:Drivers/STM32WBxx_HAL_Driver/Src/stm32wbxx_hal_pwr_ex.c ****   * @note  According to system power policy, system entering in Shutdown mode
1261:Drivers/STM32WBxx_HAL_Driver/Src/stm32wbxx_hal_pwr_ex.c ****   *        is depending on other CPU power mode.
1262:Drivers/STM32WBxx_HAL_Driver/Src/stm32wbxx_hal_pwr_ex.c ****   * @retval None
1263:Drivers/STM32WBxx_HAL_Driver/Src/stm32wbxx_hal_pwr_ex.c ****   */
1264:Drivers/STM32WBxx_HAL_Driver/Src/stm32wbxx_hal_pwr_ex.c **** void HAL_PWREx_EnterSHUTDOWNMode(void)
1265:Drivers/STM32WBxx_HAL_Driver/Src/stm32wbxx_hal_pwr_ex.c **** {
 2691              		.loc 1 1265 1 view -0
 2692              		.cfi_startproc
 2693              		@ args = 0, pretend = 0, frame = 0
 2694              		@ frame_needed = 0, uses_anonymous_args = 0
 2695              		@ link register save eliminated.
1266:Drivers/STM32WBxx_HAL_Driver/Src/stm32wbxx_hal_pwr_ex.c ****   /* Set Shutdown mode */
1267:Drivers/STM32WBxx_HAL_Driver/Src/stm32wbxx_hal_pwr_ex.c ****   MODIFY_REG(PWR->CR1, PWR_CR1_LPMS, PWR_LOWPOWERMODE_SHUTDOWN);
 2696              		.loc 1 1267 3 view .LVU551
 2697 0000 084A     		ldr	r2, .L229
 2698 0002 1368     		ldr	r3, [r2]
 2699 0004 23F00703 		bic	r3, r3, #7
 2700 0008 43F00403 		orr	r3, r3, #4
 2701 000c 1360     		str	r3, [r2]
1268:Drivers/STM32WBxx_HAL_Driver/Src/stm32wbxx_hal_pwr_ex.c **** 
1269:Drivers/STM32WBxx_HAL_Driver/Src/stm32wbxx_hal_pwr_ex.c ****   /* Set SLEEPDEEP bit of Cortex System Control Register */
1270:Drivers/STM32WBxx_HAL_Driver/Src/stm32wbxx_hal_pwr_ex.c ****   SET_BIT(SCB->SCR, ((uint32_t)SCB_SCR_SLEEPDEEP_Msk));
 2702              		.loc 1 1270 3 view .LVU552
 2703 000e 064B     		ldr	r3, .L229+4
 2704 0010 1A69     		ldr	r2, [r3, #16]
 2705 0012 42F00402 		orr	r2, r2, #4
 2706 0016 1A61     		str	r2, [r3, #16]
1271:Drivers/STM32WBxx_HAL_Driver/Src/stm32wbxx_hal_pwr_ex.c **** 
1272:Drivers/STM32WBxx_HAL_Driver/Src/stm32wbxx_hal_pwr_ex.c ****   /* This option is used to ensure that store operations are completed */
1273:Drivers/STM32WBxx_HAL_Driver/Src/stm32wbxx_hal_pwr_ex.c **** #if defined (__CC_ARM)
1274:Drivers/STM32WBxx_HAL_Driver/Src/stm32wbxx_hal_pwr_ex.c ****   __force_stores();
1275:Drivers/STM32WBxx_HAL_Driver/Src/stm32wbxx_hal_pwr_ex.c **** #endif /* __CC_ARM */
1276:Drivers/STM32WBxx_HAL_Driver/Src/stm32wbxx_hal_pwr_ex.c **** 
1277:Drivers/STM32WBxx_HAL_Driver/Src/stm32wbxx_hal_pwr_ex.c ****   /* Request Wait For Interrupt */
1278:Drivers/STM32WBxx_HAL_Driver/Src/stm32wbxx_hal_pwr_ex.c ****   __WFI();
ARM GAS  C:\Users\Nathan\AppData\Local\Temp\ccvsgOlc.s 			page 123


 2707              		.loc 1 1278 3 view .LVU553
 2708              		.syntax unified
 2709              	@ 1278 "Drivers/STM32WBxx_HAL_Driver/Src/stm32wbxx_hal_pwr_ex.c" 1
 2710 0018 30BF     		wfi
 2711              	@ 0 "" 2
1279:Drivers/STM32WBxx_HAL_Driver/Src/stm32wbxx_hal_pwr_ex.c **** 
1280:Drivers/STM32WBxx_HAL_Driver/Src/stm32wbxx_hal_pwr_ex.c ****   /* Following code is executed after wake up if system didn't go to SHUTDOWN
1281:Drivers/STM32WBxx_HAL_Driver/Src/stm32wbxx_hal_pwr_ex.c ****    * or STANDBY mode according to power policy */
1282:Drivers/STM32WBxx_HAL_Driver/Src/stm32wbxx_hal_pwr_ex.c **** 
1283:Drivers/STM32WBxx_HAL_Driver/Src/stm32wbxx_hal_pwr_ex.c ****   /* Reset SLEEPDEEP bit of Cortex System Control Register */
1284:Drivers/STM32WBxx_HAL_Driver/Src/stm32wbxx_hal_pwr_ex.c ****   CLEAR_BIT(SCB->SCR, ((uint32_t)SCB_SCR_SLEEPDEEP_Msk));
 2712              		.loc 1 1284 3 view .LVU554
 2713              		.thumb
 2714              		.syntax unified
 2715 001a 1A69     		ldr	r2, [r3, #16]
 2716 001c 22F00402 		bic	r2, r2, #4
 2717 0020 1A61     		str	r2, [r3, #16]
1285:Drivers/STM32WBxx_HAL_Driver/Src/stm32wbxx_hal_pwr_ex.c **** }
 2718              		.loc 1 1285 1 is_stmt 0 view .LVU555
 2719 0022 7047     		bx	lr
 2720              	.L230:
 2721              		.align	2
 2722              	.L229:
 2723 0024 00040058 		.word	1476396032
 2724 0028 00ED00E0 		.word	-536810240
 2725              		.cfi_endproc
 2726              	.LFE1152:
 2728              		.section	.text.HAL_PWREx_PVM1Callback,"ax",%progbits
 2729              		.align	1
 2730              		.weak	HAL_PWREx_PVM1Callback
 2731              		.syntax unified
 2732              		.thumb
 2733              		.thumb_func
 2735              	HAL_PWREx_PVM1Callback:
 2736              	.LFB1154:
1286:Drivers/STM32WBxx_HAL_Driver/Src/stm32wbxx_hal_pwr_ex.c **** 
1287:Drivers/STM32WBxx_HAL_Driver/Src/stm32wbxx_hal_pwr_ex.c **** 
1288:Drivers/STM32WBxx_HAL_Driver/Src/stm32wbxx_hal_pwr_ex.c **** /**
1289:Drivers/STM32WBxx_HAL_Driver/Src/stm32wbxx_hal_pwr_ex.c ****   * @brief This function handles the PWR PVD/PVMx interrupt request.
1290:Drivers/STM32WBxx_HAL_Driver/Src/stm32wbxx_hal_pwr_ex.c ****   * @note This API should be called under the PVD_PVM_IRQHandler().
1291:Drivers/STM32WBxx_HAL_Driver/Src/stm32wbxx_hal_pwr_ex.c ****   * @retval None
1292:Drivers/STM32WBxx_HAL_Driver/Src/stm32wbxx_hal_pwr_ex.c ****   */
1293:Drivers/STM32WBxx_HAL_Driver/Src/stm32wbxx_hal_pwr_ex.c **** void HAL_PWREx_PVD_PVM_IRQHandler(void)
1294:Drivers/STM32WBxx_HAL_Driver/Src/stm32wbxx_hal_pwr_ex.c **** {
1295:Drivers/STM32WBxx_HAL_Driver/Src/stm32wbxx_hal_pwr_ex.c ****   /* Check PWR exti flag */
1296:Drivers/STM32WBxx_HAL_Driver/Src/stm32wbxx_hal_pwr_ex.c ****   if (__HAL_PWR_PVD_EXTI_GET_FLAG() != 0U)
1297:Drivers/STM32WBxx_HAL_Driver/Src/stm32wbxx_hal_pwr_ex.c ****   {
1298:Drivers/STM32WBxx_HAL_Driver/Src/stm32wbxx_hal_pwr_ex.c ****     /* PWR PVD interrupt user callback */
1299:Drivers/STM32WBxx_HAL_Driver/Src/stm32wbxx_hal_pwr_ex.c ****     HAL_PWR_PVDCallback();
1300:Drivers/STM32WBxx_HAL_Driver/Src/stm32wbxx_hal_pwr_ex.c **** 
1301:Drivers/STM32WBxx_HAL_Driver/Src/stm32wbxx_hal_pwr_ex.c ****     /* Clear PVD exti pending bit */
1302:Drivers/STM32WBxx_HAL_Driver/Src/stm32wbxx_hal_pwr_ex.c ****     __HAL_PWR_PVD_EXTI_CLEAR_FLAG();
1303:Drivers/STM32WBxx_HAL_Driver/Src/stm32wbxx_hal_pwr_ex.c ****   }
1304:Drivers/STM32WBxx_HAL_Driver/Src/stm32wbxx_hal_pwr_ex.c **** 
1305:Drivers/STM32WBxx_HAL_Driver/Src/stm32wbxx_hal_pwr_ex.c **** #if defined(PWR_CR2_PVME1)
1306:Drivers/STM32WBxx_HAL_Driver/Src/stm32wbxx_hal_pwr_ex.c ****   /* Next, successively check PVMx exti flags */
1307:Drivers/STM32WBxx_HAL_Driver/Src/stm32wbxx_hal_pwr_ex.c ****   if (__HAL_PWR_PVM1_EXTI_GET_FLAG() != 0U)
ARM GAS  C:\Users\Nathan\AppData\Local\Temp\ccvsgOlc.s 			page 124


1308:Drivers/STM32WBxx_HAL_Driver/Src/stm32wbxx_hal_pwr_ex.c ****   {
1309:Drivers/STM32WBxx_HAL_Driver/Src/stm32wbxx_hal_pwr_ex.c ****     /* PWR PVM1 interrupt user callback */
1310:Drivers/STM32WBxx_HAL_Driver/Src/stm32wbxx_hal_pwr_ex.c ****     HAL_PWREx_PVM1Callback();
1311:Drivers/STM32WBxx_HAL_Driver/Src/stm32wbxx_hal_pwr_ex.c **** 
1312:Drivers/STM32WBxx_HAL_Driver/Src/stm32wbxx_hal_pwr_ex.c ****     /* Clear PVM1 exti pending bit */
1313:Drivers/STM32WBxx_HAL_Driver/Src/stm32wbxx_hal_pwr_ex.c ****     __HAL_PWR_PVM1_EXTI_CLEAR_FLAG();
1314:Drivers/STM32WBxx_HAL_Driver/Src/stm32wbxx_hal_pwr_ex.c ****   }
1315:Drivers/STM32WBxx_HAL_Driver/Src/stm32wbxx_hal_pwr_ex.c **** #endif /* PWR_CR2_PVME1 */
1316:Drivers/STM32WBxx_HAL_Driver/Src/stm32wbxx_hal_pwr_ex.c **** 
1317:Drivers/STM32WBxx_HAL_Driver/Src/stm32wbxx_hal_pwr_ex.c ****   if (__HAL_PWR_PVM3_EXTI_GET_FLAG() != 0U)
1318:Drivers/STM32WBxx_HAL_Driver/Src/stm32wbxx_hal_pwr_ex.c ****   {
1319:Drivers/STM32WBxx_HAL_Driver/Src/stm32wbxx_hal_pwr_ex.c ****     /* PWR PVM3 interrupt user callback */
1320:Drivers/STM32WBxx_HAL_Driver/Src/stm32wbxx_hal_pwr_ex.c ****     HAL_PWREx_PVM3Callback();
1321:Drivers/STM32WBxx_HAL_Driver/Src/stm32wbxx_hal_pwr_ex.c **** 
1322:Drivers/STM32WBxx_HAL_Driver/Src/stm32wbxx_hal_pwr_ex.c ****     /* Clear PVM3 exti pending bit */
1323:Drivers/STM32WBxx_HAL_Driver/Src/stm32wbxx_hal_pwr_ex.c ****     __HAL_PWR_PVM3_EXTI_CLEAR_FLAG();
1324:Drivers/STM32WBxx_HAL_Driver/Src/stm32wbxx_hal_pwr_ex.c ****   }
1325:Drivers/STM32WBxx_HAL_Driver/Src/stm32wbxx_hal_pwr_ex.c **** }
1326:Drivers/STM32WBxx_HAL_Driver/Src/stm32wbxx_hal_pwr_ex.c **** 
1327:Drivers/STM32WBxx_HAL_Driver/Src/stm32wbxx_hal_pwr_ex.c **** #if defined(PWR_CR2_PVME1)
1328:Drivers/STM32WBxx_HAL_Driver/Src/stm32wbxx_hal_pwr_ex.c **** /**
1329:Drivers/STM32WBxx_HAL_Driver/Src/stm32wbxx_hal_pwr_ex.c ****   * @brief PWR PVM1 interrupt callback
1330:Drivers/STM32WBxx_HAL_Driver/Src/stm32wbxx_hal_pwr_ex.c ****   * @retval None
1331:Drivers/STM32WBxx_HAL_Driver/Src/stm32wbxx_hal_pwr_ex.c ****   */
1332:Drivers/STM32WBxx_HAL_Driver/Src/stm32wbxx_hal_pwr_ex.c **** __weak void HAL_PWREx_PVM1Callback(void)
1333:Drivers/STM32WBxx_HAL_Driver/Src/stm32wbxx_hal_pwr_ex.c **** {
 2737              		.loc 1 1333 1 is_stmt 1 view -0
 2738              		.cfi_startproc
 2739              		@ args = 0, pretend = 0, frame = 0
 2740              		@ frame_needed = 0, uses_anonymous_args = 0
 2741              		@ link register save eliminated.
1334:Drivers/STM32WBxx_HAL_Driver/Src/stm32wbxx_hal_pwr_ex.c ****   /* NOTE : This function should not be modified; when the callback is needed,
1335:Drivers/STM32WBxx_HAL_Driver/Src/stm32wbxx_hal_pwr_ex.c ****             HAL_PWREx_PVM1Callback() API can be implemented in the user file
1336:Drivers/STM32WBxx_HAL_Driver/Src/stm32wbxx_hal_pwr_ex.c ****    */
1337:Drivers/STM32WBxx_HAL_Driver/Src/stm32wbxx_hal_pwr_ex.c **** }
 2742              		.loc 1 1337 1 view .LVU557
 2743 0000 7047     		bx	lr
 2744              		.cfi_endproc
 2745              	.LFE1154:
 2747              		.section	.text.HAL_PWREx_PVM3Callback,"ax",%progbits
 2748              		.align	1
 2749              		.weak	HAL_PWREx_PVM3Callback
 2750              		.syntax unified
 2751              		.thumb
 2752              		.thumb_func
 2754              	HAL_PWREx_PVM3Callback:
 2755              	.LFB1155:
1338:Drivers/STM32WBxx_HAL_Driver/Src/stm32wbxx_hal_pwr_ex.c **** #endif /* PWR_CR2_PVME1 */
1339:Drivers/STM32WBxx_HAL_Driver/Src/stm32wbxx_hal_pwr_ex.c **** 
1340:Drivers/STM32WBxx_HAL_Driver/Src/stm32wbxx_hal_pwr_ex.c **** /**
1341:Drivers/STM32WBxx_HAL_Driver/Src/stm32wbxx_hal_pwr_ex.c ****   * @brief PWR PVM3 interrupt callback
1342:Drivers/STM32WBxx_HAL_Driver/Src/stm32wbxx_hal_pwr_ex.c ****   * @retval None
1343:Drivers/STM32WBxx_HAL_Driver/Src/stm32wbxx_hal_pwr_ex.c ****   */
1344:Drivers/STM32WBxx_HAL_Driver/Src/stm32wbxx_hal_pwr_ex.c **** __weak void HAL_PWREx_PVM3Callback(void)
1345:Drivers/STM32WBxx_HAL_Driver/Src/stm32wbxx_hal_pwr_ex.c **** {
 2756              		.loc 1 1345 1 view -0
 2757              		.cfi_startproc
ARM GAS  C:\Users\Nathan\AppData\Local\Temp\ccvsgOlc.s 			page 125


 2758              		@ args = 0, pretend = 0, frame = 0
 2759              		@ frame_needed = 0, uses_anonymous_args = 0
 2760              		@ link register save eliminated.
1346:Drivers/STM32WBxx_HAL_Driver/Src/stm32wbxx_hal_pwr_ex.c ****   /* NOTE : This function should not be modified; when the callback is needed,
1347:Drivers/STM32WBxx_HAL_Driver/Src/stm32wbxx_hal_pwr_ex.c ****             HAL_PWREx_PVM3Callback() API can be implemented in the user file
1348:Drivers/STM32WBxx_HAL_Driver/Src/stm32wbxx_hal_pwr_ex.c ****    */
1349:Drivers/STM32WBxx_HAL_Driver/Src/stm32wbxx_hal_pwr_ex.c **** }
 2761              		.loc 1 1349 1 view .LVU559
 2762 0000 7047     		bx	lr
 2763              		.cfi_endproc
 2764              	.LFE1155:
 2766              		.section	.text.HAL_PWREx_PVD_PVM_IRQHandler,"ax",%progbits
 2767              		.align	1
 2768              		.global	HAL_PWREx_PVD_PVM_IRQHandler
 2769              		.syntax unified
 2770              		.thumb
 2771              		.thumb_func
 2773              	HAL_PWREx_PVD_PVM_IRQHandler:
 2774              	.LFB1153:
1294:Drivers/STM32WBxx_HAL_Driver/Src/stm32wbxx_hal_pwr_ex.c ****   /* Check PWR exti flag */
 2775              		.loc 1 1294 1 view -0
 2776              		.cfi_startproc
 2777              		@ args = 0, pretend = 0, frame = 0
 2778              		@ frame_needed = 0, uses_anonymous_args = 0
 2779 0000 08B5     		push	{r3, lr}
 2780              		.cfi_def_cfa_offset 8
 2781              		.cfi_offset 3, -8
 2782              		.cfi_offset 14, -4
1296:Drivers/STM32WBxx_HAL_Driver/Src/stm32wbxx_hal_pwr_ex.c ****   {
 2783              		.loc 1 1296 3 view .LVU561
 2784              	.LVL154:
 2785              	.LBB106:
 2786              	.LBI106:
1305:Drivers/STM32WBxx_HAL_Driver/Inc/stm32wbxx_ll_exti.h **** }
1306:Drivers/STM32WBxx_HAL_Driver/Inc/stm32wbxx_ll_exti.h **** 
1307:Drivers/STM32WBxx_HAL_Driver/Inc/stm32wbxx_ll_exti.h **** /**
1308:Drivers/STM32WBxx_HAL_Driver/Inc/stm32wbxx_ll_exti.h ****   * @brief  Check if falling edge trigger is enabled for Lines in range 0 to 31
1309:Drivers/STM32WBxx_HAL_Driver/Inc/stm32wbxx_ll_exti.h ****   * @rmtoll FTSR1        FTx           LL_EXTI_IsEnabledFallingTrig_0_31
1310:Drivers/STM32WBxx_HAL_Driver/Inc/stm32wbxx_ll_exti.h ****   * @param  ExtiLine This parameter can be a combination of the following values:
1311:Drivers/STM32WBxx_HAL_Driver/Inc/stm32wbxx_ll_exti.h ****   *         @arg @ref LL_EXTI_LINE_0
1312:Drivers/STM32WBxx_HAL_Driver/Inc/stm32wbxx_ll_exti.h ****   *         @arg @ref LL_EXTI_LINE_1
1313:Drivers/STM32WBxx_HAL_Driver/Inc/stm32wbxx_ll_exti.h ****   *         @arg @ref LL_EXTI_LINE_2
1314:Drivers/STM32WBxx_HAL_Driver/Inc/stm32wbxx_ll_exti.h ****   *         @arg @ref LL_EXTI_LINE_3
1315:Drivers/STM32WBxx_HAL_Driver/Inc/stm32wbxx_ll_exti.h ****   *         @arg @ref LL_EXTI_LINE_4
1316:Drivers/STM32WBxx_HAL_Driver/Inc/stm32wbxx_ll_exti.h ****   *         @arg @ref LL_EXTI_LINE_5
1317:Drivers/STM32WBxx_HAL_Driver/Inc/stm32wbxx_ll_exti.h ****   *         @arg @ref LL_EXTI_LINE_6
1318:Drivers/STM32WBxx_HAL_Driver/Inc/stm32wbxx_ll_exti.h ****   *         @arg @ref LL_EXTI_LINE_7
1319:Drivers/STM32WBxx_HAL_Driver/Inc/stm32wbxx_ll_exti.h ****   *         @arg @ref LL_EXTI_LINE_8
1320:Drivers/STM32WBxx_HAL_Driver/Inc/stm32wbxx_ll_exti.h ****   *         @arg @ref LL_EXTI_LINE_9
1321:Drivers/STM32WBxx_HAL_Driver/Inc/stm32wbxx_ll_exti.h ****   *         @arg @ref LL_EXTI_LINE_10
1322:Drivers/STM32WBxx_HAL_Driver/Inc/stm32wbxx_ll_exti.h ****   *         @arg @ref LL_EXTI_LINE_11
1323:Drivers/STM32WBxx_HAL_Driver/Inc/stm32wbxx_ll_exti.h ****   *         @arg @ref LL_EXTI_LINE_12
1324:Drivers/STM32WBxx_HAL_Driver/Inc/stm32wbxx_ll_exti.h ****   *         @arg @ref LL_EXTI_LINE_13
1325:Drivers/STM32WBxx_HAL_Driver/Inc/stm32wbxx_ll_exti.h ****   *         @arg @ref LL_EXTI_LINE_14
1326:Drivers/STM32WBxx_HAL_Driver/Inc/stm32wbxx_ll_exti.h ****   *         @arg @ref LL_EXTI_LINE_15
1327:Drivers/STM32WBxx_HAL_Driver/Inc/stm32wbxx_ll_exti.h ****   *         @arg @ref LL_EXTI_LINE_16
1328:Drivers/STM32WBxx_HAL_Driver/Inc/stm32wbxx_ll_exti.h ****   *         @arg @ref LL_EXTI_LINE_17
ARM GAS  C:\Users\Nathan\AppData\Local\Temp\ccvsgOlc.s 			page 126


1329:Drivers/STM32WBxx_HAL_Driver/Inc/stm32wbxx_ll_exti.h ****   *         @arg @ref LL_EXTI_LINE_18
1330:Drivers/STM32WBxx_HAL_Driver/Inc/stm32wbxx_ll_exti.h ****   *         @arg @ref LL_EXTI_LINE_19
1331:Drivers/STM32WBxx_HAL_Driver/Inc/stm32wbxx_ll_exti.h ****   *         @arg @ref LL_EXTI_LINE_20 (*)
1332:Drivers/STM32WBxx_HAL_Driver/Inc/stm32wbxx_ll_exti.h ****   *         @arg @ref LL_EXTI_LINE_21 (*)
1333:Drivers/STM32WBxx_HAL_Driver/Inc/stm32wbxx_ll_exti.h ****   *         @arg @ref LL_EXTI_LINE_31 (*)
1334:Drivers/STM32WBxx_HAL_Driver/Inc/stm32wbxx_ll_exti.h ****   *         (*) value not defined in all devices
1335:Drivers/STM32WBxx_HAL_Driver/Inc/stm32wbxx_ll_exti.h ****   * @note   Please check each device line mapping for EXTI Line availability
1336:Drivers/STM32WBxx_HAL_Driver/Inc/stm32wbxx_ll_exti.h ****   * @retval State of bit (1 or 0).
1337:Drivers/STM32WBxx_HAL_Driver/Inc/stm32wbxx_ll_exti.h ****   */
1338:Drivers/STM32WBxx_HAL_Driver/Inc/stm32wbxx_ll_exti.h **** __STATIC_INLINE uint32_t LL_EXTI_IsEnabledFallingTrig_0_31(uint32_t ExtiLine)
1339:Drivers/STM32WBxx_HAL_Driver/Inc/stm32wbxx_ll_exti.h **** {
1340:Drivers/STM32WBxx_HAL_Driver/Inc/stm32wbxx_ll_exti.h ****   return ((READ_BIT(EXTI->FTSR1, ExtiLine) == (ExtiLine)) ? 1UL : 0UL);
1341:Drivers/STM32WBxx_HAL_Driver/Inc/stm32wbxx_ll_exti.h **** }
1342:Drivers/STM32WBxx_HAL_Driver/Inc/stm32wbxx_ll_exti.h **** 
1343:Drivers/STM32WBxx_HAL_Driver/Inc/stm32wbxx_ll_exti.h **** /**
1344:Drivers/STM32WBxx_HAL_Driver/Inc/stm32wbxx_ll_exti.h ****   * @brief  Check if falling edge trigger is enabled for Lines in range 32 to 63
1345:Drivers/STM32WBxx_HAL_Driver/Inc/stm32wbxx_ll_exti.h ****   * @rmtoll FTSR2        FTx           LL_EXTI_IsEnabledFallingTrig_32_63
1346:Drivers/STM32WBxx_HAL_Driver/Inc/stm32wbxx_ll_exti.h ****   * @param  ExtiLine This parameter can be a combination of the following values:
1347:Drivers/STM32WBxx_HAL_Driver/Inc/stm32wbxx_ll_exti.h ****   *         @arg @ref LL_EXTI_LINE_33 (*)
1348:Drivers/STM32WBxx_HAL_Driver/Inc/stm32wbxx_ll_exti.h ****   *         @arg @ref LL_EXTI_LINE_40
1349:Drivers/STM32WBxx_HAL_Driver/Inc/stm32wbxx_ll_exti.h ****   *         @arg @ref LL_EXTI_LINE_41
1350:Drivers/STM32WBxx_HAL_Driver/Inc/stm32wbxx_ll_exti.h ****   * @retval State of bit (1 or 0).
1351:Drivers/STM32WBxx_HAL_Driver/Inc/stm32wbxx_ll_exti.h ****   */
1352:Drivers/STM32WBxx_HAL_Driver/Inc/stm32wbxx_ll_exti.h **** __STATIC_INLINE uint32_t LL_EXTI_IsEnabledFallingTrig_32_63(uint32_t ExtiLine)
1353:Drivers/STM32WBxx_HAL_Driver/Inc/stm32wbxx_ll_exti.h **** {
1354:Drivers/STM32WBxx_HAL_Driver/Inc/stm32wbxx_ll_exti.h ****   return ((READ_BIT(EXTI->FTSR2, ExtiLine) == (ExtiLine)) ? 1UL : 0UL);
1355:Drivers/STM32WBxx_HAL_Driver/Inc/stm32wbxx_ll_exti.h **** }
1356:Drivers/STM32WBxx_HAL_Driver/Inc/stm32wbxx_ll_exti.h **** 
1357:Drivers/STM32WBxx_HAL_Driver/Inc/stm32wbxx_ll_exti.h **** /**
1358:Drivers/STM32WBxx_HAL_Driver/Inc/stm32wbxx_ll_exti.h ****   * @}
1359:Drivers/STM32WBxx_HAL_Driver/Inc/stm32wbxx_ll_exti.h ****   */
1360:Drivers/STM32WBxx_HAL_Driver/Inc/stm32wbxx_ll_exti.h **** 
1361:Drivers/STM32WBxx_HAL_Driver/Inc/stm32wbxx_ll_exti.h **** /** @defgroup EXTI_LL_EF_Software_Interrupt_Management Software_Interrupt_Management
1362:Drivers/STM32WBxx_HAL_Driver/Inc/stm32wbxx_ll_exti.h ****   * @{
1363:Drivers/STM32WBxx_HAL_Driver/Inc/stm32wbxx_ll_exti.h ****   */
1364:Drivers/STM32WBxx_HAL_Driver/Inc/stm32wbxx_ll_exti.h **** 
1365:Drivers/STM32WBxx_HAL_Driver/Inc/stm32wbxx_ll_exti.h **** /**
1366:Drivers/STM32WBxx_HAL_Driver/Inc/stm32wbxx_ll_exti.h ****   * @brief  Generate a software Interrupt Event for Lines in range 0 to 31
1367:Drivers/STM32WBxx_HAL_Driver/Inc/stm32wbxx_ll_exti.h ****   * @note If the interrupt is enabled on this line in the EXTI_IMR1, writing a 1 to
1368:Drivers/STM32WBxx_HAL_Driver/Inc/stm32wbxx_ll_exti.h ****   *       this bit when it is at '0' sets the corresponding pending bit in EXTI_PR1
1369:Drivers/STM32WBxx_HAL_Driver/Inc/stm32wbxx_ll_exti.h ****   *       resulting in an interrupt request generation.
1370:Drivers/STM32WBxx_HAL_Driver/Inc/stm32wbxx_ll_exti.h ****   *       This bit is cleared by clearing the corresponding bit in the EXTI_PR1
1371:Drivers/STM32WBxx_HAL_Driver/Inc/stm32wbxx_ll_exti.h ****   *       register (by writing a 1 into the bit)
1372:Drivers/STM32WBxx_HAL_Driver/Inc/stm32wbxx_ll_exti.h ****   * @rmtoll SWIER1       SWIx          LL_EXTI_GenerateSWI_0_31
1373:Drivers/STM32WBxx_HAL_Driver/Inc/stm32wbxx_ll_exti.h ****   * @param  ExtiLine This parameter can be a combination of the following values:
1374:Drivers/STM32WBxx_HAL_Driver/Inc/stm32wbxx_ll_exti.h ****   *         @arg @ref LL_EXTI_LINE_0
1375:Drivers/STM32WBxx_HAL_Driver/Inc/stm32wbxx_ll_exti.h ****   *         @arg @ref LL_EXTI_LINE_1
1376:Drivers/STM32WBxx_HAL_Driver/Inc/stm32wbxx_ll_exti.h ****   *         @arg @ref LL_EXTI_LINE_2
1377:Drivers/STM32WBxx_HAL_Driver/Inc/stm32wbxx_ll_exti.h ****   *         @arg @ref LL_EXTI_LINE_3
1378:Drivers/STM32WBxx_HAL_Driver/Inc/stm32wbxx_ll_exti.h ****   *         @arg @ref LL_EXTI_LINE_4
1379:Drivers/STM32WBxx_HAL_Driver/Inc/stm32wbxx_ll_exti.h ****   *         @arg @ref LL_EXTI_LINE_5
1380:Drivers/STM32WBxx_HAL_Driver/Inc/stm32wbxx_ll_exti.h ****   *         @arg @ref LL_EXTI_LINE_6
1381:Drivers/STM32WBxx_HAL_Driver/Inc/stm32wbxx_ll_exti.h ****   *         @arg @ref LL_EXTI_LINE_7
1382:Drivers/STM32WBxx_HAL_Driver/Inc/stm32wbxx_ll_exti.h ****   *         @arg @ref LL_EXTI_LINE_8
1383:Drivers/STM32WBxx_HAL_Driver/Inc/stm32wbxx_ll_exti.h ****   *         @arg @ref LL_EXTI_LINE_9
1384:Drivers/STM32WBxx_HAL_Driver/Inc/stm32wbxx_ll_exti.h ****   *         @arg @ref LL_EXTI_LINE_10
1385:Drivers/STM32WBxx_HAL_Driver/Inc/stm32wbxx_ll_exti.h ****   *         @arg @ref LL_EXTI_LINE_11
ARM GAS  C:\Users\Nathan\AppData\Local\Temp\ccvsgOlc.s 			page 127


1386:Drivers/STM32WBxx_HAL_Driver/Inc/stm32wbxx_ll_exti.h ****   *         @arg @ref LL_EXTI_LINE_12
1387:Drivers/STM32WBxx_HAL_Driver/Inc/stm32wbxx_ll_exti.h ****   *         @arg @ref LL_EXTI_LINE_13
1388:Drivers/STM32WBxx_HAL_Driver/Inc/stm32wbxx_ll_exti.h ****   *         @arg @ref LL_EXTI_LINE_14
1389:Drivers/STM32WBxx_HAL_Driver/Inc/stm32wbxx_ll_exti.h ****   *         @arg @ref LL_EXTI_LINE_15
1390:Drivers/STM32WBxx_HAL_Driver/Inc/stm32wbxx_ll_exti.h ****   *         @arg @ref LL_EXTI_LINE_16
1391:Drivers/STM32WBxx_HAL_Driver/Inc/stm32wbxx_ll_exti.h ****   *         @arg @ref LL_EXTI_LINE_17
1392:Drivers/STM32WBxx_HAL_Driver/Inc/stm32wbxx_ll_exti.h ****   *         @arg @ref LL_EXTI_LINE_18
1393:Drivers/STM32WBxx_HAL_Driver/Inc/stm32wbxx_ll_exti.h ****   *         @arg @ref LL_EXTI_LINE_19
1394:Drivers/STM32WBxx_HAL_Driver/Inc/stm32wbxx_ll_exti.h ****   *         @arg @ref LL_EXTI_LINE_20 (*)
1395:Drivers/STM32WBxx_HAL_Driver/Inc/stm32wbxx_ll_exti.h ****   *         @arg @ref LL_EXTI_LINE_21 (*)
1396:Drivers/STM32WBxx_HAL_Driver/Inc/stm32wbxx_ll_exti.h ****   *         @arg @ref LL_EXTI_LINE_31 (*)
1397:Drivers/STM32WBxx_HAL_Driver/Inc/stm32wbxx_ll_exti.h ****   *         (*) value not defined in all devices
1398:Drivers/STM32WBxx_HAL_Driver/Inc/stm32wbxx_ll_exti.h ****   * @note   Please check each device line mapping for EXTI Line availability
1399:Drivers/STM32WBxx_HAL_Driver/Inc/stm32wbxx_ll_exti.h ****   * @retval None
1400:Drivers/STM32WBxx_HAL_Driver/Inc/stm32wbxx_ll_exti.h ****   */
1401:Drivers/STM32WBxx_HAL_Driver/Inc/stm32wbxx_ll_exti.h **** __STATIC_INLINE void LL_EXTI_GenerateSWI_0_31(uint32_t ExtiLine)
1402:Drivers/STM32WBxx_HAL_Driver/Inc/stm32wbxx_ll_exti.h **** {
1403:Drivers/STM32WBxx_HAL_Driver/Inc/stm32wbxx_ll_exti.h ****   SET_BIT(EXTI->SWIER1, ExtiLine);
1404:Drivers/STM32WBxx_HAL_Driver/Inc/stm32wbxx_ll_exti.h **** }
1405:Drivers/STM32WBxx_HAL_Driver/Inc/stm32wbxx_ll_exti.h **** 
1406:Drivers/STM32WBxx_HAL_Driver/Inc/stm32wbxx_ll_exti.h **** /**
1407:Drivers/STM32WBxx_HAL_Driver/Inc/stm32wbxx_ll_exti.h ****   * @brief  Generate a software Interrupt Event for Lines in range 32 to 63
1408:Drivers/STM32WBxx_HAL_Driver/Inc/stm32wbxx_ll_exti.h ****   * @note If the interrupt is enabled on this line in the EXTI_IMR2, writing a 1 to
1409:Drivers/STM32WBxx_HAL_Driver/Inc/stm32wbxx_ll_exti.h ****   *       this bit when it is at '0' sets the corresponding pending bit in EXTI_PR2
1410:Drivers/STM32WBxx_HAL_Driver/Inc/stm32wbxx_ll_exti.h ****   *       resulting in an interrupt request generation.
1411:Drivers/STM32WBxx_HAL_Driver/Inc/stm32wbxx_ll_exti.h ****   *       This bit is cleared by clearing the corresponding bit in the EXTI_PR2
1412:Drivers/STM32WBxx_HAL_Driver/Inc/stm32wbxx_ll_exti.h ****   *       register (by writing a 1 into the bit)
1413:Drivers/STM32WBxx_HAL_Driver/Inc/stm32wbxx_ll_exti.h ****   * @rmtoll SWIER2       SWIx          LL_EXTI_GenerateSWI_32_63
1414:Drivers/STM32WBxx_HAL_Driver/Inc/stm32wbxx_ll_exti.h ****   * @param  ExtiLine This parameter can be a combination of the following values:
1415:Drivers/STM32WBxx_HAL_Driver/Inc/stm32wbxx_ll_exti.h ****   *         @arg @ref LL_EXTI_LINE_33 (*)
1416:Drivers/STM32WBxx_HAL_Driver/Inc/stm32wbxx_ll_exti.h ****   *         @arg @ref LL_EXTI_LINE_40
1417:Drivers/STM32WBxx_HAL_Driver/Inc/stm32wbxx_ll_exti.h ****   *         @arg @ref LL_EXTI_LINE_41
1418:Drivers/STM32WBxx_HAL_Driver/Inc/stm32wbxx_ll_exti.h ****   *         (*) value not defined in all devices
1419:Drivers/STM32WBxx_HAL_Driver/Inc/stm32wbxx_ll_exti.h ****   * @retval None
1420:Drivers/STM32WBxx_HAL_Driver/Inc/stm32wbxx_ll_exti.h ****   */
1421:Drivers/STM32WBxx_HAL_Driver/Inc/stm32wbxx_ll_exti.h **** __STATIC_INLINE void LL_EXTI_GenerateSWI_32_63(uint32_t ExtiLine)
1422:Drivers/STM32WBxx_HAL_Driver/Inc/stm32wbxx_ll_exti.h **** {
1423:Drivers/STM32WBxx_HAL_Driver/Inc/stm32wbxx_ll_exti.h ****   SET_BIT(EXTI->SWIER2, ExtiLine);
1424:Drivers/STM32WBxx_HAL_Driver/Inc/stm32wbxx_ll_exti.h **** }
1425:Drivers/STM32WBxx_HAL_Driver/Inc/stm32wbxx_ll_exti.h **** 
1426:Drivers/STM32WBxx_HAL_Driver/Inc/stm32wbxx_ll_exti.h **** /**
1427:Drivers/STM32WBxx_HAL_Driver/Inc/stm32wbxx_ll_exti.h ****   * @}
1428:Drivers/STM32WBxx_HAL_Driver/Inc/stm32wbxx_ll_exti.h ****   */
1429:Drivers/STM32WBxx_HAL_Driver/Inc/stm32wbxx_ll_exti.h **** 
1430:Drivers/STM32WBxx_HAL_Driver/Inc/stm32wbxx_ll_exti.h **** /** @defgroup EXTI_LL_EF_Flag_Management Flag_Management
1431:Drivers/STM32WBxx_HAL_Driver/Inc/stm32wbxx_ll_exti.h ****   * @{
1432:Drivers/STM32WBxx_HAL_Driver/Inc/stm32wbxx_ll_exti.h ****   */
1433:Drivers/STM32WBxx_HAL_Driver/Inc/stm32wbxx_ll_exti.h **** 
1434:Drivers/STM32WBxx_HAL_Driver/Inc/stm32wbxx_ll_exti.h **** /**
1435:Drivers/STM32WBxx_HAL_Driver/Inc/stm32wbxx_ll_exti.h ****   * @brief  Check if the ExtLine Flag is set or not for Lines in range 0 to 31
1436:Drivers/STM32WBxx_HAL_Driver/Inc/stm32wbxx_ll_exti.h ****   * @note This bit is set when the selected edge event arrives on the interrupt
1437:Drivers/STM32WBxx_HAL_Driver/Inc/stm32wbxx_ll_exti.h ****   *       line. This bit is cleared by writing a 1 to the bit.
1438:Drivers/STM32WBxx_HAL_Driver/Inc/stm32wbxx_ll_exti.h ****   * @rmtoll PR1          PIFx           LL_EXTI_IsActiveFlag_0_31
1439:Drivers/STM32WBxx_HAL_Driver/Inc/stm32wbxx_ll_exti.h ****   * @param  ExtiLine This parameter can be a combination of the following values:
1440:Drivers/STM32WBxx_HAL_Driver/Inc/stm32wbxx_ll_exti.h ****   *         @arg @ref LL_EXTI_LINE_0
1441:Drivers/STM32WBxx_HAL_Driver/Inc/stm32wbxx_ll_exti.h ****   *         @arg @ref LL_EXTI_LINE_1
1442:Drivers/STM32WBxx_HAL_Driver/Inc/stm32wbxx_ll_exti.h ****   *         @arg @ref LL_EXTI_LINE_2
ARM GAS  C:\Users\Nathan\AppData\Local\Temp\ccvsgOlc.s 			page 128


1443:Drivers/STM32WBxx_HAL_Driver/Inc/stm32wbxx_ll_exti.h ****   *         @arg @ref LL_EXTI_LINE_3
1444:Drivers/STM32WBxx_HAL_Driver/Inc/stm32wbxx_ll_exti.h ****   *         @arg @ref LL_EXTI_LINE_4
1445:Drivers/STM32WBxx_HAL_Driver/Inc/stm32wbxx_ll_exti.h ****   *         @arg @ref LL_EXTI_LINE_5
1446:Drivers/STM32WBxx_HAL_Driver/Inc/stm32wbxx_ll_exti.h ****   *         @arg @ref LL_EXTI_LINE_6
1447:Drivers/STM32WBxx_HAL_Driver/Inc/stm32wbxx_ll_exti.h ****   *         @arg @ref LL_EXTI_LINE_7
1448:Drivers/STM32WBxx_HAL_Driver/Inc/stm32wbxx_ll_exti.h ****   *         @arg @ref LL_EXTI_LINE_8
1449:Drivers/STM32WBxx_HAL_Driver/Inc/stm32wbxx_ll_exti.h ****   *         @arg @ref LL_EXTI_LINE_9
1450:Drivers/STM32WBxx_HAL_Driver/Inc/stm32wbxx_ll_exti.h ****   *         @arg @ref LL_EXTI_LINE_10
1451:Drivers/STM32WBxx_HAL_Driver/Inc/stm32wbxx_ll_exti.h ****   *         @arg @ref LL_EXTI_LINE_11
1452:Drivers/STM32WBxx_HAL_Driver/Inc/stm32wbxx_ll_exti.h ****   *         @arg @ref LL_EXTI_LINE_12
1453:Drivers/STM32WBxx_HAL_Driver/Inc/stm32wbxx_ll_exti.h ****   *         @arg @ref LL_EXTI_LINE_13
1454:Drivers/STM32WBxx_HAL_Driver/Inc/stm32wbxx_ll_exti.h ****   *         @arg @ref LL_EXTI_LINE_14
1455:Drivers/STM32WBxx_HAL_Driver/Inc/stm32wbxx_ll_exti.h ****   *         @arg @ref LL_EXTI_LINE_15
1456:Drivers/STM32WBxx_HAL_Driver/Inc/stm32wbxx_ll_exti.h ****   *         @arg @ref LL_EXTI_LINE_16
1457:Drivers/STM32WBxx_HAL_Driver/Inc/stm32wbxx_ll_exti.h ****   *         @arg @ref LL_EXTI_LINE_17
1458:Drivers/STM32WBxx_HAL_Driver/Inc/stm32wbxx_ll_exti.h ****   *         @arg @ref LL_EXTI_LINE_18
1459:Drivers/STM32WBxx_HAL_Driver/Inc/stm32wbxx_ll_exti.h ****   *         @arg @ref LL_EXTI_LINE_19
1460:Drivers/STM32WBxx_HAL_Driver/Inc/stm32wbxx_ll_exti.h ****   *         @arg @ref LL_EXTI_LINE_20 (*)
1461:Drivers/STM32WBxx_HAL_Driver/Inc/stm32wbxx_ll_exti.h ****   *         @arg @ref LL_EXTI_LINE_21 (*)
1462:Drivers/STM32WBxx_HAL_Driver/Inc/stm32wbxx_ll_exti.h ****   *         @arg @ref LL_EXTI_LINE_31 (*)
1463:Drivers/STM32WBxx_HAL_Driver/Inc/stm32wbxx_ll_exti.h ****   *         (*) value not defined in all devices
1464:Drivers/STM32WBxx_HAL_Driver/Inc/stm32wbxx_ll_exti.h ****   * @retval State of bit (1 or 0).
1465:Drivers/STM32WBxx_HAL_Driver/Inc/stm32wbxx_ll_exti.h ****   */
1466:Drivers/STM32WBxx_HAL_Driver/Inc/stm32wbxx_ll_exti.h **** __STATIC_INLINE uint32_t LL_EXTI_IsActiveFlag_0_31(uint32_t ExtiLine)
1467:Drivers/STM32WBxx_HAL_Driver/Inc/stm32wbxx_ll_exti.h **** {
1468:Drivers/STM32WBxx_HAL_Driver/Inc/stm32wbxx_ll_exti.h ****   return ((READ_BIT(EXTI->PR1, ExtiLine) == (ExtiLine)) ? 1UL : 0UL);
1469:Drivers/STM32WBxx_HAL_Driver/Inc/stm32wbxx_ll_exti.h **** }
1470:Drivers/STM32WBxx_HAL_Driver/Inc/stm32wbxx_ll_exti.h **** 
1471:Drivers/STM32WBxx_HAL_Driver/Inc/stm32wbxx_ll_exti.h **** /**
1472:Drivers/STM32WBxx_HAL_Driver/Inc/stm32wbxx_ll_exti.h ****   * @brief  Check if the ExtLine Flag is set or not for  Lines in range 32 to 63
1473:Drivers/STM32WBxx_HAL_Driver/Inc/stm32wbxx_ll_exti.h ****   * @note This bit is set when the selected edge event arrives on the interrupt
1474:Drivers/STM32WBxx_HAL_Driver/Inc/stm32wbxx_ll_exti.h ****   *       line. This bit is cleared by writing a 1 to the bit.
1475:Drivers/STM32WBxx_HAL_Driver/Inc/stm32wbxx_ll_exti.h ****   * @rmtoll PR2          PIFx           LL_EXTI_IsActiveFlag_32_63
1476:Drivers/STM32WBxx_HAL_Driver/Inc/stm32wbxx_ll_exti.h ****   * @param  ExtiLine This parameter can be a combination of the following values:
1477:Drivers/STM32WBxx_HAL_Driver/Inc/stm32wbxx_ll_exti.h ****   *         @arg @ref LL_EXTI_LINE_33 (*)
1478:Drivers/STM32WBxx_HAL_Driver/Inc/stm32wbxx_ll_exti.h ****   *         @arg @ref LL_EXTI_LINE_40
1479:Drivers/STM32WBxx_HAL_Driver/Inc/stm32wbxx_ll_exti.h ****   *         @arg @ref LL_EXTI_LINE_41
1480:Drivers/STM32WBxx_HAL_Driver/Inc/stm32wbxx_ll_exti.h ****   *         (*) value not defined in all devices
1481:Drivers/STM32WBxx_HAL_Driver/Inc/stm32wbxx_ll_exti.h ****   * @retval State of bit (1 or 0).
1482:Drivers/STM32WBxx_HAL_Driver/Inc/stm32wbxx_ll_exti.h ****   */
1483:Drivers/STM32WBxx_HAL_Driver/Inc/stm32wbxx_ll_exti.h **** __STATIC_INLINE uint32_t LL_EXTI_IsActiveFlag_32_63(uint32_t ExtiLine)
1484:Drivers/STM32WBxx_HAL_Driver/Inc/stm32wbxx_ll_exti.h **** {
1485:Drivers/STM32WBxx_HAL_Driver/Inc/stm32wbxx_ll_exti.h ****   return ((READ_BIT(EXTI->PR2, ExtiLine) == (ExtiLine)) ? 1UL : 0UL);
1486:Drivers/STM32WBxx_HAL_Driver/Inc/stm32wbxx_ll_exti.h **** }
1487:Drivers/STM32WBxx_HAL_Driver/Inc/stm32wbxx_ll_exti.h **** 
1488:Drivers/STM32WBxx_HAL_Driver/Inc/stm32wbxx_ll_exti.h **** /**
1489:Drivers/STM32WBxx_HAL_Driver/Inc/stm32wbxx_ll_exti.h ****   * @brief  Read ExtLine Combination Flag for Lines in range 0 to 31
1490:Drivers/STM32WBxx_HAL_Driver/Inc/stm32wbxx_ll_exti.h ****   * @note This bit is set when the selected edge event arrives on the interrupt
1491:Drivers/STM32WBxx_HAL_Driver/Inc/stm32wbxx_ll_exti.h ****   *       line. This bit is cleared by writing a 1 to the bit.
1492:Drivers/STM32WBxx_HAL_Driver/Inc/stm32wbxx_ll_exti.h ****   * @rmtoll PR1          PIFx           LL_EXTI_ReadFlag_0_31
1493:Drivers/STM32WBxx_HAL_Driver/Inc/stm32wbxx_ll_exti.h ****   * @param  ExtiLine This parameter can be a combination of the following values:
1494:Drivers/STM32WBxx_HAL_Driver/Inc/stm32wbxx_ll_exti.h ****   *         @arg @ref LL_EXTI_LINE_0
1495:Drivers/STM32WBxx_HAL_Driver/Inc/stm32wbxx_ll_exti.h ****   *         @arg @ref LL_EXTI_LINE_1
1496:Drivers/STM32WBxx_HAL_Driver/Inc/stm32wbxx_ll_exti.h ****   *         @arg @ref LL_EXTI_LINE_2
1497:Drivers/STM32WBxx_HAL_Driver/Inc/stm32wbxx_ll_exti.h ****   *         @arg @ref LL_EXTI_LINE_3
1498:Drivers/STM32WBxx_HAL_Driver/Inc/stm32wbxx_ll_exti.h ****   *         @arg @ref LL_EXTI_LINE_4
1499:Drivers/STM32WBxx_HAL_Driver/Inc/stm32wbxx_ll_exti.h ****   *         @arg @ref LL_EXTI_LINE_5
ARM GAS  C:\Users\Nathan\AppData\Local\Temp\ccvsgOlc.s 			page 129


1500:Drivers/STM32WBxx_HAL_Driver/Inc/stm32wbxx_ll_exti.h ****   *         @arg @ref LL_EXTI_LINE_6
1501:Drivers/STM32WBxx_HAL_Driver/Inc/stm32wbxx_ll_exti.h ****   *         @arg @ref LL_EXTI_LINE_7
1502:Drivers/STM32WBxx_HAL_Driver/Inc/stm32wbxx_ll_exti.h ****   *         @arg @ref LL_EXTI_LINE_8
1503:Drivers/STM32WBxx_HAL_Driver/Inc/stm32wbxx_ll_exti.h ****   *         @arg @ref LL_EXTI_LINE_9
1504:Drivers/STM32WBxx_HAL_Driver/Inc/stm32wbxx_ll_exti.h ****   *         @arg @ref LL_EXTI_LINE_10
1505:Drivers/STM32WBxx_HAL_Driver/Inc/stm32wbxx_ll_exti.h ****   *         @arg @ref LL_EXTI_LINE_11
1506:Drivers/STM32WBxx_HAL_Driver/Inc/stm32wbxx_ll_exti.h ****   *         @arg @ref LL_EXTI_LINE_12
1507:Drivers/STM32WBxx_HAL_Driver/Inc/stm32wbxx_ll_exti.h ****   *         @arg @ref LL_EXTI_LINE_13
1508:Drivers/STM32WBxx_HAL_Driver/Inc/stm32wbxx_ll_exti.h ****   *         @arg @ref LL_EXTI_LINE_14
1509:Drivers/STM32WBxx_HAL_Driver/Inc/stm32wbxx_ll_exti.h ****   *         @arg @ref LL_EXTI_LINE_15
1510:Drivers/STM32WBxx_HAL_Driver/Inc/stm32wbxx_ll_exti.h ****   *         @arg @ref LL_EXTI_LINE_16
1511:Drivers/STM32WBxx_HAL_Driver/Inc/stm32wbxx_ll_exti.h ****   *         @arg @ref LL_EXTI_LINE_17
1512:Drivers/STM32WBxx_HAL_Driver/Inc/stm32wbxx_ll_exti.h ****   *         @arg @ref LL_EXTI_LINE_18
1513:Drivers/STM32WBxx_HAL_Driver/Inc/stm32wbxx_ll_exti.h ****   *         @arg @ref LL_EXTI_LINE_19
1514:Drivers/STM32WBxx_HAL_Driver/Inc/stm32wbxx_ll_exti.h ****   *         @arg @ref LL_EXTI_LINE_20 (*)
1515:Drivers/STM32WBxx_HAL_Driver/Inc/stm32wbxx_ll_exti.h ****   *         @arg @ref LL_EXTI_LINE_21 (*)
1516:Drivers/STM32WBxx_HAL_Driver/Inc/stm32wbxx_ll_exti.h ****   *         @arg @ref LL_EXTI_LINE_31 (*)
1517:Drivers/STM32WBxx_HAL_Driver/Inc/stm32wbxx_ll_exti.h ****   *         (*) value not defined in all devices
1518:Drivers/STM32WBxx_HAL_Driver/Inc/stm32wbxx_ll_exti.h ****   * @retval @note This bit is set when the selected edge event arrives on the interrupt
1519:Drivers/STM32WBxx_HAL_Driver/Inc/stm32wbxx_ll_exti.h ****   */
1520:Drivers/STM32WBxx_HAL_Driver/Inc/stm32wbxx_ll_exti.h **** __STATIC_INLINE uint32_t LL_EXTI_ReadFlag_0_31(uint32_t ExtiLine)
 2787              		.loc 3 1520 26 view .LVU562
 2788              	.LBB107:
1521:Drivers/STM32WBxx_HAL_Driver/Inc/stm32wbxx_ll_exti.h **** {
1522:Drivers/STM32WBxx_HAL_Driver/Inc/stm32wbxx_ll_exti.h ****   return (uint32_t)(READ_BIT(EXTI->PR1, ExtiLine));
 2789              		.loc 3 1522 3 view .LVU563
 2790              		.loc 3 1522 21 is_stmt 0 view .LVU564
 2791 0002 114B     		ldr	r3, .L241
 2792 0004 DB68     		ldr	r3, [r3, #12]
 2793              	.LVL155:
 2794              		.loc 3 1522 21 view .LVU565
 2795              	.LBE107:
 2796              	.LBE106:
1296:Drivers/STM32WBxx_HAL_Driver/Src/stm32wbxx_hal_pwr_ex.c ****   {
 2797              		.loc 1 1296 6 discriminator 1 view .LVU566
 2798 0006 13F4803F 		tst	r3, #65536
 2799 000a 09D1     		bne	.L238
 2800              	.L234:
1307:Drivers/STM32WBxx_HAL_Driver/Src/stm32wbxx_hal_pwr_ex.c ****   {
 2801              		.loc 1 1307 3 is_stmt 1 view .LVU567
 2802              	.LVL156:
 2803              	.LBB108:
 2804              	.LBI108:
1520:Drivers/STM32WBxx_HAL_Driver/Inc/stm32wbxx_ll_exti.h **** {
 2805              		.loc 3 1520 26 view .LVU568
 2806              	.LBB109:
 2807              		.loc 3 1522 3 view .LVU569
 2808              		.loc 3 1522 21 is_stmt 0 view .LVU570
 2809 000c 0E4B     		ldr	r3, .L241
 2810 000e DB68     		ldr	r3, [r3, #12]
 2811              	.LVL157:
 2812              		.loc 3 1522 21 view .LVU571
 2813              	.LBE109:
 2814              	.LBE108:
1307:Drivers/STM32WBxx_HAL_Driver/Src/stm32wbxx_hal_pwr_ex.c ****   {
 2815              		.loc 1 1307 6 discriminator 1 view .LVU572
 2816 0010 002B     		cmp	r3, #0
ARM GAS  C:\Users\Nathan\AppData\Local\Temp\ccvsgOlc.s 			page 130


 2817 0012 0CDB     		blt	.L239
 2818              	.L235:
1317:Drivers/STM32WBxx_HAL_Driver/Src/stm32wbxx_hal_pwr_ex.c ****   {
 2819              		.loc 1 1317 3 is_stmt 1 view .LVU573
 2820              	.LVL158:
 2821              	.LBB110:
 2822              	.LBI110:
1523:Drivers/STM32WBxx_HAL_Driver/Inc/stm32wbxx_ll_exti.h **** }
1524:Drivers/STM32WBxx_HAL_Driver/Inc/stm32wbxx_ll_exti.h **** 
1525:Drivers/STM32WBxx_HAL_Driver/Inc/stm32wbxx_ll_exti.h **** /**
1526:Drivers/STM32WBxx_HAL_Driver/Inc/stm32wbxx_ll_exti.h ****   * @brief  Read ExtLine Combination Flag for  Lines in range 32 to 63
1527:Drivers/STM32WBxx_HAL_Driver/Inc/stm32wbxx_ll_exti.h ****   * @note This bit is set when the selected edge event arrives on the interrupt
1528:Drivers/STM32WBxx_HAL_Driver/Inc/stm32wbxx_ll_exti.h ****   *       line. This bit is cleared by writing a 1 to the bit.
1529:Drivers/STM32WBxx_HAL_Driver/Inc/stm32wbxx_ll_exti.h ****   * @rmtoll PR2          PIFx           LL_EXTI_ReadFlag_32_63
1530:Drivers/STM32WBxx_HAL_Driver/Inc/stm32wbxx_ll_exti.h ****   * @param  ExtiLine This parameter can be a combination of the following values:
1531:Drivers/STM32WBxx_HAL_Driver/Inc/stm32wbxx_ll_exti.h ****   *         @arg @ref LL_EXTI_LINE_33 (*)
1532:Drivers/STM32WBxx_HAL_Driver/Inc/stm32wbxx_ll_exti.h ****   *         @arg @ref LL_EXTI_LINE_40
1533:Drivers/STM32WBxx_HAL_Driver/Inc/stm32wbxx_ll_exti.h ****   *         @arg @ref LL_EXTI_LINE_41
1534:Drivers/STM32WBxx_HAL_Driver/Inc/stm32wbxx_ll_exti.h ****   *         (*) value not defined in all devices
1535:Drivers/STM32WBxx_HAL_Driver/Inc/stm32wbxx_ll_exti.h ****   * @retval @note This bit is set when the selected edge event arrives on the interrupt
1536:Drivers/STM32WBxx_HAL_Driver/Inc/stm32wbxx_ll_exti.h ****   */
1537:Drivers/STM32WBxx_HAL_Driver/Inc/stm32wbxx_ll_exti.h **** __STATIC_INLINE uint32_t LL_EXTI_ReadFlag_32_63(uint32_t ExtiLine)
 2823              		.loc 3 1537 26 view .LVU574
 2824              	.LBB111:
1538:Drivers/STM32WBxx_HAL_Driver/Inc/stm32wbxx_ll_exti.h **** {
1539:Drivers/STM32WBxx_HAL_Driver/Inc/stm32wbxx_ll_exti.h ****   return (uint32_t)(READ_BIT(EXTI->PR2, ExtiLine));
 2825              		.loc 3 1539 3 view .LVU575
 2826              		.loc 3 1539 21 is_stmt 0 view .LVU576
 2827 0014 0C4B     		ldr	r3, .L241
 2828 0016 DB6A     		ldr	r3, [r3, #44]
 2829              	.LVL159:
 2830              		.loc 3 1539 21 view .LVU577
 2831              	.LBE111:
 2832              	.LBE110:
1317:Drivers/STM32WBxx_HAL_Driver/Src/stm32wbxx_hal_pwr_ex.c ****   {
 2833              		.loc 1 1317 6 discriminator 1 view .LVU578
 2834 0018 13F0020F 		tst	r3, #2
 2835 001c 0ED1     		bne	.L240
 2836              	.L233:
1325:Drivers/STM32WBxx_HAL_Driver/Src/stm32wbxx_hal_pwr_ex.c **** 
 2837              		.loc 1 1325 1 view .LVU579
 2838 001e 08BD     		pop	{r3, pc}
 2839              	.L238:
1299:Drivers/STM32WBxx_HAL_Driver/Src/stm32wbxx_hal_pwr_ex.c **** 
 2840              		.loc 1 1299 5 is_stmt 1 view .LVU580
 2841 0020 FFF7FEFF 		bl	HAL_PWR_PVDCallback
 2842              	.LVL160:
1302:Drivers/STM32WBxx_HAL_Driver/Src/stm32wbxx_hal_pwr_ex.c ****   }
 2843              		.loc 1 1302 5 view .LVU581
 2844              	.LBB112:
 2845              	.LBI112:
1540:Drivers/STM32WBxx_HAL_Driver/Inc/stm32wbxx_ll_exti.h **** }
1541:Drivers/STM32WBxx_HAL_Driver/Inc/stm32wbxx_ll_exti.h **** 
1542:Drivers/STM32WBxx_HAL_Driver/Inc/stm32wbxx_ll_exti.h **** /**
1543:Drivers/STM32WBxx_HAL_Driver/Inc/stm32wbxx_ll_exti.h ****   * @brief  Clear ExtLine Flags for Lines in range 0 to 31
1544:Drivers/STM32WBxx_HAL_Driver/Inc/stm32wbxx_ll_exti.h ****   * @note This bit is set when the selected edge event arrives on the interrupt
1545:Drivers/STM32WBxx_HAL_Driver/Inc/stm32wbxx_ll_exti.h ****   *       line. This bit is cleared by writing a 1 to the bit.
ARM GAS  C:\Users\Nathan\AppData\Local\Temp\ccvsgOlc.s 			page 131


1546:Drivers/STM32WBxx_HAL_Driver/Inc/stm32wbxx_ll_exti.h ****   * @rmtoll PR1          PIFx           LL_EXTI_ClearFlag_0_31
1547:Drivers/STM32WBxx_HAL_Driver/Inc/stm32wbxx_ll_exti.h ****   * @param  ExtiLine This parameter can be a combination of the following values:
1548:Drivers/STM32WBxx_HAL_Driver/Inc/stm32wbxx_ll_exti.h ****   *         @arg @ref LL_EXTI_LINE_0
1549:Drivers/STM32WBxx_HAL_Driver/Inc/stm32wbxx_ll_exti.h ****   *         @arg @ref LL_EXTI_LINE_1
1550:Drivers/STM32WBxx_HAL_Driver/Inc/stm32wbxx_ll_exti.h ****   *         @arg @ref LL_EXTI_LINE_2
1551:Drivers/STM32WBxx_HAL_Driver/Inc/stm32wbxx_ll_exti.h ****   *         @arg @ref LL_EXTI_LINE_3
1552:Drivers/STM32WBxx_HAL_Driver/Inc/stm32wbxx_ll_exti.h ****   *         @arg @ref LL_EXTI_LINE_4
1553:Drivers/STM32WBxx_HAL_Driver/Inc/stm32wbxx_ll_exti.h ****   *         @arg @ref LL_EXTI_LINE_5
1554:Drivers/STM32WBxx_HAL_Driver/Inc/stm32wbxx_ll_exti.h ****   *         @arg @ref LL_EXTI_LINE_6
1555:Drivers/STM32WBxx_HAL_Driver/Inc/stm32wbxx_ll_exti.h ****   *         @arg @ref LL_EXTI_LINE_7
1556:Drivers/STM32WBxx_HAL_Driver/Inc/stm32wbxx_ll_exti.h ****   *         @arg @ref LL_EXTI_LINE_8
1557:Drivers/STM32WBxx_HAL_Driver/Inc/stm32wbxx_ll_exti.h ****   *         @arg @ref LL_EXTI_LINE_9
1558:Drivers/STM32WBxx_HAL_Driver/Inc/stm32wbxx_ll_exti.h ****   *         @arg @ref LL_EXTI_LINE_10
1559:Drivers/STM32WBxx_HAL_Driver/Inc/stm32wbxx_ll_exti.h ****   *         @arg @ref LL_EXTI_LINE_11
1560:Drivers/STM32WBxx_HAL_Driver/Inc/stm32wbxx_ll_exti.h ****   *         @arg @ref LL_EXTI_LINE_12
1561:Drivers/STM32WBxx_HAL_Driver/Inc/stm32wbxx_ll_exti.h ****   *         @arg @ref LL_EXTI_LINE_13
1562:Drivers/STM32WBxx_HAL_Driver/Inc/stm32wbxx_ll_exti.h ****   *         @arg @ref LL_EXTI_LINE_14
1563:Drivers/STM32WBxx_HAL_Driver/Inc/stm32wbxx_ll_exti.h ****   *         @arg @ref LL_EXTI_LINE_15
1564:Drivers/STM32WBxx_HAL_Driver/Inc/stm32wbxx_ll_exti.h ****   *         @arg @ref LL_EXTI_LINE_16
1565:Drivers/STM32WBxx_HAL_Driver/Inc/stm32wbxx_ll_exti.h ****   *         @arg @ref LL_EXTI_LINE_17
1566:Drivers/STM32WBxx_HAL_Driver/Inc/stm32wbxx_ll_exti.h ****   *         @arg @ref LL_EXTI_LINE_18
1567:Drivers/STM32WBxx_HAL_Driver/Inc/stm32wbxx_ll_exti.h ****   *         @arg @ref LL_EXTI_LINE_19
1568:Drivers/STM32WBxx_HAL_Driver/Inc/stm32wbxx_ll_exti.h ****   *         @arg @ref LL_EXTI_LINE_20 (*)
1569:Drivers/STM32WBxx_HAL_Driver/Inc/stm32wbxx_ll_exti.h ****   *         @arg @ref LL_EXTI_LINE_21 (*)
1570:Drivers/STM32WBxx_HAL_Driver/Inc/stm32wbxx_ll_exti.h ****   *         @arg @ref LL_EXTI_LINE_31 (*)
1571:Drivers/STM32WBxx_HAL_Driver/Inc/stm32wbxx_ll_exti.h ****   *         (*) value not defined in all devices
1572:Drivers/STM32WBxx_HAL_Driver/Inc/stm32wbxx_ll_exti.h ****   * @retval None
1573:Drivers/STM32WBxx_HAL_Driver/Inc/stm32wbxx_ll_exti.h ****   */
1574:Drivers/STM32WBxx_HAL_Driver/Inc/stm32wbxx_ll_exti.h **** __STATIC_INLINE void LL_EXTI_ClearFlag_0_31(uint32_t ExtiLine)
 2846              		.loc 3 1574 22 view .LVU582
 2847              	.LBB113:
1575:Drivers/STM32WBxx_HAL_Driver/Inc/stm32wbxx_ll_exti.h **** {
1576:Drivers/STM32WBxx_HAL_Driver/Inc/stm32wbxx_ll_exti.h ****   WRITE_REG(EXTI->PR1, ExtiLine);
 2848              		.loc 3 1576 3 view .LVU583
 2849 0024 084B     		ldr	r3, .L241
 2850 0026 4FF48032 		mov	r2, #65536
 2851 002a DA60     		str	r2, [r3, #12]
 2852              	.LVL161:
1577:Drivers/STM32WBxx_HAL_Driver/Inc/stm32wbxx_ll_exti.h **** }
 2853              		.loc 3 1577 1 is_stmt 0 view .LVU584
 2854 002c EEE7     		b	.L234
 2855              	.L239:
 2856              	.LBE113:
 2857              	.LBE112:
1310:Drivers/STM32WBxx_HAL_Driver/Src/stm32wbxx_hal_pwr_ex.c **** 
 2858              		.loc 1 1310 5 is_stmt 1 view .LVU585
 2859 002e FFF7FEFF 		bl	HAL_PWREx_PVM1Callback
 2860              	.LVL162:
1313:Drivers/STM32WBxx_HAL_Driver/Src/stm32wbxx_hal_pwr_ex.c ****   }
 2861              		.loc 1 1313 5 view .LVU586
 2862              	.LBB114:
 2863              	.LBI114:
1574:Drivers/STM32WBxx_HAL_Driver/Inc/stm32wbxx_ll_exti.h **** {
 2864              		.loc 3 1574 22 view .LVU587
 2865              	.LBB115:
1576:Drivers/STM32WBxx_HAL_Driver/Inc/stm32wbxx_ll_exti.h **** }
 2866              		.loc 3 1576 3 view .LVU588
ARM GAS  C:\Users\Nathan\AppData\Local\Temp\ccvsgOlc.s 			page 132


 2867 0032 054B     		ldr	r3, .L241
 2868 0034 4FF00042 		mov	r2, #-2147483648
 2869 0038 DA60     		str	r2, [r3, #12]
 2870              	.LVL163:
 2871              		.loc 3 1577 1 is_stmt 0 view .LVU589
 2872 003a EBE7     		b	.L235
 2873              	.L240:
 2874              	.LBE115:
 2875              	.LBE114:
1320:Drivers/STM32WBxx_HAL_Driver/Src/stm32wbxx_hal_pwr_ex.c **** 
 2876              		.loc 1 1320 5 is_stmt 1 view .LVU590
 2877 003c FFF7FEFF 		bl	HAL_PWREx_PVM3Callback
 2878              	.LVL164:
1323:Drivers/STM32WBxx_HAL_Driver/Src/stm32wbxx_hal_pwr_ex.c ****   }
 2879              		.loc 1 1323 5 view .LVU591
 2880              	.LBB116:
 2881              	.LBI116:
1578:Drivers/STM32WBxx_HAL_Driver/Inc/stm32wbxx_ll_exti.h **** 
1579:Drivers/STM32WBxx_HAL_Driver/Inc/stm32wbxx_ll_exti.h **** /**
1580:Drivers/STM32WBxx_HAL_Driver/Inc/stm32wbxx_ll_exti.h ****   * @brief  Clear ExtLine Flags for Lines in range 32 to 63
1581:Drivers/STM32WBxx_HAL_Driver/Inc/stm32wbxx_ll_exti.h ****   * @note This bit is set when the selected edge event arrives on the interrupt
1582:Drivers/STM32WBxx_HAL_Driver/Inc/stm32wbxx_ll_exti.h ****   *       line. This bit is cleared by writing a 1 to the bit.
1583:Drivers/STM32WBxx_HAL_Driver/Inc/stm32wbxx_ll_exti.h ****   * @rmtoll PR2          PIFx           LL_EXTI_ClearFlag_32_63
1584:Drivers/STM32WBxx_HAL_Driver/Inc/stm32wbxx_ll_exti.h ****   * @param  ExtiLine This parameter can be a combination of the following values:
1585:Drivers/STM32WBxx_HAL_Driver/Inc/stm32wbxx_ll_exti.h ****   *         @arg @ref LL_EXTI_LINE_33 (*)
1586:Drivers/STM32WBxx_HAL_Driver/Inc/stm32wbxx_ll_exti.h ****   *         @arg @ref LL_EXTI_LINE_40
1587:Drivers/STM32WBxx_HAL_Driver/Inc/stm32wbxx_ll_exti.h ****   *         @arg @ref LL_EXTI_LINE_41
1588:Drivers/STM32WBxx_HAL_Driver/Inc/stm32wbxx_ll_exti.h ****   *         (*) value not defined in all devices
1589:Drivers/STM32WBxx_HAL_Driver/Inc/stm32wbxx_ll_exti.h ****   * @retval None
1590:Drivers/STM32WBxx_HAL_Driver/Inc/stm32wbxx_ll_exti.h ****   */
1591:Drivers/STM32WBxx_HAL_Driver/Inc/stm32wbxx_ll_exti.h **** __STATIC_INLINE void LL_EXTI_ClearFlag_32_63(uint32_t ExtiLine)
 2882              		.loc 3 1591 22 view .LVU592
 2883              	.LBB117:
1592:Drivers/STM32WBxx_HAL_Driver/Inc/stm32wbxx_ll_exti.h **** {
1593:Drivers/STM32WBxx_HAL_Driver/Inc/stm32wbxx_ll_exti.h ****   WRITE_REG(EXTI->PR2, ExtiLine);
 2884              		.loc 3 1593 3 view .LVU593
 2885 0040 014B     		ldr	r3, .L241
 2886 0042 0222     		movs	r2, #2
 2887 0044 DA62     		str	r2, [r3, #44]
 2888              	.LVL165:
 2889              		.loc 3 1593 3 is_stmt 0 view .LVU594
 2890              	.LBE117:
 2891              	.LBE116:
1325:Drivers/STM32WBxx_HAL_Driver/Src/stm32wbxx_hal_pwr_ex.c **** 
 2892              		.loc 1 1325 1 view .LVU595
 2893 0046 EAE7     		b	.L233
 2894              	.L242:
 2895              		.align	2
 2896              	.L241:
 2897 0048 00080058 		.word	1476397056
 2898              		.cfi_endproc
 2899              	.LFE1153:
 2901              		.text
 2902              	.Letext0:
 2903              		.file 4 "C:/PROGRAM FILES (X86)/ARM GNU TOOLCHAIN ARM-NONE-EABI/13.3 REL1/arm-none-eabi/include/ma
 2904              		.file 5 "C:/PROGRAM FILES (X86)/ARM GNU TOOLCHAIN ARM-NONE-EABI/13.3 REL1/arm-none-eabi/include/sy
 2905              		.file 6 "Drivers/CMSIS/Include/core_cm4.h"
ARM GAS  C:\Users\Nathan\AppData\Local\Temp\ccvsgOlc.s 			page 133


 2906              		.file 7 "Drivers/CMSIS/Device/ST/STM32WBxx/Include/stm32wb55xx.h"
 2907              		.file 8 "Drivers/STM32WBxx_HAL_Driver/Inc/stm32wbxx_hal_def.h"
 2908              		.file 9 "Drivers/STM32WBxx_HAL_Driver/Inc/stm32wbxx_hal_pwr_ex.h"
 2909              		.file 10 "Drivers/CMSIS/Device/ST/STM32WBxx/Include/system_stm32wbxx.h"
 2910              		.file 11 "Drivers/STM32WBxx_HAL_Driver/Inc/stm32wbxx_hal_pwr.h"
ARM GAS  C:\Users\Nathan\AppData\Local\Temp\ccvsgOlc.s 			page 134


DEFINED SYMBOLS
                            *ABS*:00000000 stm32wbxx_hal_pwr_ex.c
C:\Users\Nathan\AppData\Local\Temp\ccvsgOlc.s:21     .text.HAL_PWREx_GetVoltageRange:00000000 $t
C:\Users\Nathan\AppData\Local\Temp\ccvsgOlc.s:27     .text.HAL_PWREx_GetVoltageRange:00000000 HAL_PWREx_GetVoltageRange
C:\Users\Nathan\AppData\Local\Temp\ccvsgOlc.s:44     .text.HAL_PWREx_GetVoltageRange:0000000c $d
C:\Users\Nathan\AppData\Local\Temp\ccvsgOlc.s:49     .text.HAL_PWREx_ControlVoltageScaling:00000000 $t
C:\Users\Nathan\AppData\Local\Temp\ccvsgOlc.s:55     .text.HAL_PWREx_ControlVoltageScaling:00000000 HAL_PWREx_ControlVoltageScaling
C:\Users\Nathan\AppData\Local\Temp\ccvsgOlc.s:175    .text.HAL_PWREx_ControlVoltageScaling:0000008c $d
C:\Users\Nathan\AppData\Local\Temp\ccvsgOlc.s:181    .text.HAL_PWREx_EnableBatteryCharging:00000000 $t
C:\Users\Nathan\AppData\Local\Temp\ccvsgOlc.s:187    .text.HAL_PWREx_EnableBatteryCharging:00000000 HAL_PWREx_EnableBatteryCharging
C:\Users\Nathan\AppData\Local\Temp\ccvsgOlc.s:211    .text.HAL_PWREx_EnableBatteryCharging:00000018 $d
C:\Users\Nathan\AppData\Local\Temp\ccvsgOlc.s:216    .text.HAL_PWREx_DisableBatteryCharging:00000000 $t
C:\Users\Nathan\AppData\Local\Temp\ccvsgOlc.s:222    .text.HAL_PWREx_DisableBatteryCharging:00000000 HAL_PWREx_DisableBatteryCharging
C:\Users\Nathan\AppData\Local\Temp\ccvsgOlc.s:239    .text.HAL_PWREx_DisableBatteryCharging:0000000c $d
C:\Users\Nathan\AppData\Local\Temp\ccvsgOlc.s:244    .text.HAL_PWREx_EnableVddUSB:00000000 $t
C:\Users\Nathan\AppData\Local\Temp\ccvsgOlc.s:250    .text.HAL_PWREx_EnableVddUSB:00000000 HAL_PWREx_EnableVddUSB
C:\Users\Nathan\AppData\Local\Temp\ccvsgOlc.s:267    .text.HAL_PWREx_EnableVddUSB:0000000c $d
C:\Users\Nathan\AppData\Local\Temp\ccvsgOlc.s:272    .text.HAL_PWREx_DisableVddUSB:00000000 $t
C:\Users\Nathan\AppData\Local\Temp\ccvsgOlc.s:278    .text.HAL_PWREx_DisableVddUSB:00000000 HAL_PWREx_DisableVddUSB
C:\Users\Nathan\AppData\Local\Temp\ccvsgOlc.s:295    .text.HAL_PWREx_DisableVddUSB:0000000c $d
C:\Users\Nathan\AppData\Local\Temp\ccvsgOlc.s:300    .text.HAL_PWREx_EnableInternalWakeUpLine:00000000 $t
C:\Users\Nathan\AppData\Local\Temp\ccvsgOlc.s:306    .text.HAL_PWREx_EnableInternalWakeUpLine:00000000 HAL_PWREx_EnableInternalWakeUpLine
C:\Users\Nathan\AppData\Local\Temp\ccvsgOlc.s:323    .text.HAL_PWREx_EnableInternalWakeUpLine:0000000c $d
C:\Users\Nathan\AppData\Local\Temp\ccvsgOlc.s:328    .text.HAL_PWREx_DisableInternalWakeUpLine:00000000 $t
C:\Users\Nathan\AppData\Local\Temp\ccvsgOlc.s:334    .text.HAL_PWREx_DisableInternalWakeUpLine:00000000 HAL_PWREx_DisableInternalWakeUpLine
C:\Users\Nathan\AppData\Local\Temp\ccvsgOlc.s:351    .text.HAL_PWREx_DisableInternalWakeUpLine:0000000c $d
C:\Users\Nathan\AppData\Local\Temp\ccvsgOlc.s:356    .text.HAL_PWREx_EnableBORH_SMPSBypassIT:00000000 $t
C:\Users\Nathan\AppData\Local\Temp\ccvsgOlc.s:362    .text.HAL_PWREx_EnableBORH_SMPSBypassIT:00000000 HAL_PWREx_EnableBORH_SMPSBypassIT
C:\Users\Nathan\AppData\Local\Temp\ccvsgOlc.s:379    .text.HAL_PWREx_EnableBORH_SMPSBypassIT:0000000c $d
C:\Users\Nathan\AppData\Local\Temp\ccvsgOlc.s:384    .text.HAL_PWREx_DisableBORH_SMPSBypassIT:00000000 $t
C:\Users\Nathan\AppData\Local\Temp\ccvsgOlc.s:390    .text.HAL_PWREx_DisableBORH_SMPSBypassIT:00000000 HAL_PWREx_DisableBORH_SMPSBypassIT
C:\Users\Nathan\AppData\Local\Temp\ccvsgOlc.s:407    .text.HAL_PWREx_DisableBORH_SMPSBypassIT:0000000c $d
C:\Users\Nathan\AppData\Local\Temp\ccvsgOlc.s:412    .text.HAL_PWREx_EnableRFPhaseIT:00000000 $t
C:\Users\Nathan\AppData\Local\Temp\ccvsgOlc.s:418    .text.HAL_PWREx_EnableRFPhaseIT:00000000 HAL_PWREx_EnableRFPhaseIT
C:\Users\Nathan\AppData\Local\Temp\ccvsgOlc.s:435    .text.HAL_PWREx_EnableRFPhaseIT:0000000c $d
C:\Users\Nathan\AppData\Local\Temp\ccvsgOlc.s:440    .text.HAL_PWREx_DisableRFPhaseIT:00000000 $t
C:\Users\Nathan\AppData\Local\Temp\ccvsgOlc.s:446    .text.HAL_PWREx_DisableRFPhaseIT:00000000 HAL_PWREx_DisableRFPhaseIT
C:\Users\Nathan\AppData\Local\Temp\ccvsgOlc.s:463    .text.HAL_PWREx_DisableRFPhaseIT:0000000c $d
C:\Users\Nathan\AppData\Local\Temp\ccvsgOlc.s:468    .text.HAL_PWREx_EnableBLEActivityIT:00000000 $t
C:\Users\Nathan\AppData\Local\Temp\ccvsgOlc.s:474    .text.HAL_PWREx_EnableBLEActivityIT:00000000 HAL_PWREx_EnableBLEActivityIT
C:\Users\Nathan\AppData\Local\Temp\ccvsgOlc.s:491    .text.HAL_PWREx_EnableBLEActivityIT:0000000c $d
C:\Users\Nathan\AppData\Local\Temp\ccvsgOlc.s:496    .text.HAL_PWREx_DisableBLEActivityIT:00000000 $t
C:\Users\Nathan\AppData\Local\Temp\ccvsgOlc.s:502    .text.HAL_PWREx_DisableBLEActivityIT:00000000 HAL_PWREx_DisableBLEActivityIT
C:\Users\Nathan\AppData\Local\Temp\ccvsgOlc.s:519    .text.HAL_PWREx_DisableBLEActivityIT:0000000c $d
C:\Users\Nathan\AppData\Local\Temp\ccvsgOlc.s:524    .text.HAL_PWREx_Enable802ActivityIT:00000000 $t
C:\Users\Nathan\AppData\Local\Temp\ccvsgOlc.s:530    .text.HAL_PWREx_Enable802ActivityIT:00000000 HAL_PWREx_Enable802ActivityIT
C:\Users\Nathan\AppData\Local\Temp\ccvsgOlc.s:547    .text.HAL_PWREx_Enable802ActivityIT:0000000c $d
C:\Users\Nathan\AppData\Local\Temp\ccvsgOlc.s:552    .text.HAL_PWREx_Disable802ActivityIT:00000000 $t
C:\Users\Nathan\AppData\Local\Temp\ccvsgOlc.s:558    .text.HAL_PWREx_Disable802ActivityIT:00000000 HAL_PWREx_Disable802ActivityIT
C:\Users\Nathan\AppData\Local\Temp\ccvsgOlc.s:575    .text.HAL_PWREx_Disable802ActivityIT:0000000c $d
C:\Users\Nathan\AppData\Local\Temp\ccvsgOlc.s:580    .text.HAL_PWREx_EnableHOLDC2IT:00000000 $t
C:\Users\Nathan\AppData\Local\Temp\ccvsgOlc.s:586    .text.HAL_PWREx_EnableHOLDC2IT:00000000 HAL_PWREx_EnableHOLDC2IT
C:\Users\Nathan\AppData\Local\Temp\ccvsgOlc.s:603    .text.HAL_PWREx_EnableHOLDC2IT:0000000c $d
C:\Users\Nathan\AppData\Local\Temp\ccvsgOlc.s:608    .text.HAL_PWREx_DisableHOLDC2IT:00000000 $t
C:\Users\Nathan\AppData\Local\Temp\ccvsgOlc.s:614    .text.HAL_PWREx_DisableHOLDC2IT:00000000 HAL_PWREx_DisableHOLDC2IT
C:\Users\Nathan\AppData\Local\Temp\ccvsgOlc.s:631    .text.HAL_PWREx_DisableHOLDC2IT:0000000c $d
C:\Users\Nathan\AppData\Local\Temp\ccvsgOlc.s:636    .text.HAL_PWREx_EnableGPIOPullUp:00000000 $t
ARM GAS  C:\Users\Nathan\AppData\Local\Temp\ccvsgOlc.s 			page 135


C:\Users\Nathan\AppData\Local\Temp\ccvsgOlc.s:642    .text.HAL_PWREx_EnableGPIOPullUp:00000000 HAL_PWREx_EnableGPIOPullUp
C:\Users\Nathan\AppData\Local\Temp\ccvsgOlc.s:658    .text.HAL_PWREx_EnableGPIOPullUp:00000008 $d
C:\Users\Nathan\AppData\Local\Temp\ccvsgOlc.s:666    .text.HAL_PWREx_EnableGPIOPullUp:00000010 $t
C:\Users\Nathan\AppData\Local\Temp\ccvsgOlc.s:785    .text.HAL_PWREx_EnableGPIOPullUp:00000094 $d
C:\Users\Nathan\AppData\Local\Temp\ccvsgOlc.s:790    .text.HAL_PWREx_DisableGPIOPullUp:00000000 $t
C:\Users\Nathan\AppData\Local\Temp\ccvsgOlc.s:796    .text.HAL_PWREx_DisableGPIOPullUp:00000000 HAL_PWREx_DisableGPIOPullUp
C:\Users\Nathan\AppData\Local\Temp\ccvsgOlc.s:812    .text.HAL_PWREx_DisableGPIOPullUp:00000008 $d
C:\Users\Nathan\AppData\Local\Temp\ccvsgOlc.s:820    .text.HAL_PWREx_DisableGPIOPullUp:00000010 $t
C:\Users\Nathan\AppData\Local\Temp\ccvsgOlc.s:915    .text.HAL_PWREx_DisableGPIOPullUp:00000070 $d
C:\Users\Nathan\AppData\Local\Temp\ccvsgOlc.s:920    .text.HAL_PWREx_EnableGPIOPullDown:00000000 $t
C:\Users\Nathan\AppData\Local\Temp\ccvsgOlc.s:926    .text.HAL_PWREx_EnableGPIOPullDown:00000000 HAL_PWREx_EnableGPIOPullDown
C:\Users\Nathan\AppData\Local\Temp\ccvsgOlc.s:942    .text.HAL_PWREx_EnableGPIOPullDown:00000008 $d
C:\Users\Nathan\AppData\Local\Temp\ccvsgOlc.s:950    .text.HAL_PWREx_EnableGPIOPullDown:00000010 $t
C:\Users\Nathan\AppData\Local\Temp\ccvsgOlc.s:1069   .text.HAL_PWREx_EnableGPIOPullDown:00000094 $d
C:\Users\Nathan\AppData\Local\Temp\ccvsgOlc.s:1074   .text.HAL_PWREx_DisableGPIOPullDown:00000000 $t
C:\Users\Nathan\AppData\Local\Temp\ccvsgOlc.s:1080   .text.HAL_PWREx_DisableGPIOPullDown:00000000 HAL_PWREx_DisableGPIOPullDown
C:\Users\Nathan\AppData\Local\Temp\ccvsgOlc.s:1096   .text.HAL_PWREx_DisableGPIOPullDown:00000008 $d
C:\Users\Nathan\AppData\Local\Temp\ccvsgOlc.s:1104   .text.HAL_PWREx_DisableGPIOPullDown:00000010 $t
C:\Users\Nathan\AppData\Local\Temp\ccvsgOlc.s:1199   .text.HAL_PWREx_DisableGPIOPullDown:00000070 $d
C:\Users\Nathan\AppData\Local\Temp\ccvsgOlc.s:1204   .text.HAL_PWREx_EnablePullUpPullDownConfig:00000000 $t
C:\Users\Nathan\AppData\Local\Temp\ccvsgOlc.s:1210   .text.HAL_PWREx_EnablePullUpPullDownConfig:00000000 HAL_PWREx_EnablePullUpPullDownConfig
C:\Users\Nathan\AppData\Local\Temp\ccvsgOlc.s:1227   .text.HAL_PWREx_EnablePullUpPullDownConfig:0000000c $d
C:\Users\Nathan\AppData\Local\Temp\ccvsgOlc.s:1232   .text.HAL_PWREx_DisablePullUpPullDownConfig:00000000 $t
C:\Users\Nathan\AppData\Local\Temp\ccvsgOlc.s:1238   .text.HAL_PWREx_DisablePullUpPullDownConfig:00000000 HAL_PWREx_DisablePullUpPullDownConfig
C:\Users\Nathan\AppData\Local\Temp\ccvsgOlc.s:1255   .text.HAL_PWREx_DisablePullUpPullDownConfig:0000000c $d
C:\Users\Nathan\AppData\Local\Temp\ccvsgOlc.s:1260   .text.HAL_PWREx_SetBORConfig:00000000 $t
C:\Users\Nathan\AppData\Local\Temp\ccvsgOlc.s:1266   .text.HAL_PWREx_SetBORConfig:00000000 HAL_PWREx_SetBORConfig
C:\Users\Nathan\AppData\Local\Temp\ccvsgOlc.s:1297   .text.HAL_PWREx_SetBORConfig:00000010 $d
C:\Users\Nathan\AppData\Local\Temp\ccvsgOlc.s:1302   .text.HAL_PWREx_GetBORConfig:00000000 $t
C:\Users\Nathan\AppData\Local\Temp\ccvsgOlc.s:1308   .text.HAL_PWREx_GetBORConfig:00000000 HAL_PWREx_GetBORConfig
C:\Users\Nathan\AppData\Local\Temp\ccvsgOlc.s:1332   .text.HAL_PWREx_GetBORConfig:0000000c $d
C:\Users\Nathan\AppData\Local\Temp\ccvsgOlc.s:1337   .text.HAL_PWREx_HoldCore:00000000 $t
C:\Users\Nathan\AppData\Local\Temp\ccvsgOlc.s:1343   .text.HAL_PWREx_HoldCore:00000000 HAL_PWREx_HoldCore
C:\Users\Nathan\AppData\Local\Temp\ccvsgOlc.s:1369   .text.HAL_PWREx_HoldCore:0000000c $d
C:\Users\Nathan\AppData\Local\Temp\ccvsgOlc.s:1374   .text.HAL_PWREx_ReleaseCore:00000000 $t
C:\Users\Nathan\AppData\Local\Temp\ccvsgOlc.s:1380   .text.HAL_PWREx_ReleaseCore:00000000 HAL_PWREx_ReleaseCore
C:\Users\Nathan\AppData\Local\Temp\ccvsgOlc.s:1406   .text.HAL_PWREx_ReleaseCore:0000000c $d
C:\Users\Nathan\AppData\Local\Temp\ccvsgOlc.s:1411   .text.HAL_PWREx_EnableSRAMRetention:00000000 $t
C:\Users\Nathan\AppData\Local\Temp\ccvsgOlc.s:1417   .text.HAL_PWREx_EnableSRAMRetention:00000000 HAL_PWREx_EnableSRAMRetention
C:\Users\Nathan\AppData\Local\Temp\ccvsgOlc.s:1441   .text.HAL_PWREx_EnableSRAMRetention:0000000c $d
C:\Users\Nathan\AppData\Local\Temp\ccvsgOlc.s:1446   .text.HAL_PWREx_DisableSRAMRetention:00000000 $t
C:\Users\Nathan\AppData\Local\Temp\ccvsgOlc.s:1452   .text.HAL_PWREx_DisableSRAMRetention:00000000 HAL_PWREx_DisableSRAMRetention
C:\Users\Nathan\AppData\Local\Temp\ccvsgOlc.s:1476   .text.HAL_PWREx_DisableSRAMRetention:0000000c $d
C:\Users\Nathan\AppData\Local\Temp\ccvsgOlc.s:1481   .text.HAL_PWREx_EnableFlashPowerDown:00000000 $t
C:\Users\Nathan\AppData\Local\Temp\ccvsgOlc.s:1487   .text.HAL_PWREx_EnableFlashPowerDown:00000000 HAL_PWREx_EnableFlashPowerDown
C:\Users\Nathan\AppData\Local\Temp\ccvsgOlc.s:1515   .text.HAL_PWREx_EnableFlashPowerDown:00000018 $d
C:\Users\Nathan\AppData\Local\Temp\ccvsgOlc.s:1520   .text.HAL_PWREx_DisableFlashPowerDown:00000000 $t
C:\Users\Nathan\AppData\Local\Temp\ccvsgOlc.s:1526   .text.HAL_PWREx_DisableFlashPowerDown:00000000 HAL_PWREx_DisableFlashPowerDown
C:\Users\Nathan\AppData\Local\Temp\ccvsgOlc.s:1545   .text.HAL_PWREx_DisableFlashPowerDown:0000000c $d
C:\Users\Nathan\AppData\Local\Temp\ccvsgOlc.s:1550   .text.HAL_PWREx_EnablePVM1:00000000 $t
C:\Users\Nathan\AppData\Local\Temp\ccvsgOlc.s:1556   .text.HAL_PWREx_EnablePVM1:00000000 HAL_PWREx_EnablePVM1
C:\Users\Nathan\AppData\Local\Temp\ccvsgOlc.s:1573   .text.HAL_PWREx_EnablePVM1:0000000c $d
C:\Users\Nathan\AppData\Local\Temp\ccvsgOlc.s:1578   .text.HAL_PWREx_DisablePVM1:00000000 $t
C:\Users\Nathan\AppData\Local\Temp\ccvsgOlc.s:1584   .text.HAL_PWREx_DisablePVM1:00000000 HAL_PWREx_DisablePVM1
C:\Users\Nathan\AppData\Local\Temp\ccvsgOlc.s:1601   .text.HAL_PWREx_DisablePVM1:0000000c $d
C:\Users\Nathan\AppData\Local\Temp\ccvsgOlc.s:1606   .text.HAL_PWREx_EnablePVM3:00000000 $t
C:\Users\Nathan\AppData\Local\Temp\ccvsgOlc.s:1612   .text.HAL_PWREx_EnablePVM3:00000000 HAL_PWREx_EnablePVM3
ARM GAS  C:\Users\Nathan\AppData\Local\Temp\ccvsgOlc.s 			page 136


C:\Users\Nathan\AppData\Local\Temp\ccvsgOlc.s:1629   .text.HAL_PWREx_EnablePVM3:0000000c $d
C:\Users\Nathan\AppData\Local\Temp\ccvsgOlc.s:1634   .text.HAL_PWREx_DisablePVM3:00000000 $t
C:\Users\Nathan\AppData\Local\Temp\ccvsgOlc.s:1640   .text.HAL_PWREx_DisablePVM3:00000000 HAL_PWREx_DisablePVM3
C:\Users\Nathan\AppData\Local\Temp\ccvsgOlc.s:1657   .text.HAL_PWREx_DisablePVM3:0000000c $d
C:\Users\Nathan\AppData\Local\Temp\ccvsgOlc.s:1662   .text.HAL_PWREx_ConfigPVM:00000000 $t
C:\Users\Nathan\AppData\Local\Temp\ccvsgOlc.s:1668   .text.HAL_PWREx_ConfigPVM:00000000 HAL_PWREx_ConfigPVM
C:\Users\Nathan\AppData\Local\Temp\ccvsgOlc.s:2014   .text.HAL_PWREx_ConfigPVM:00000114 $d
C:\Users\Nathan\AppData\Local\Temp\ccvsgOlc.s:2019   .text.HAL_PWREx_ConfigSMPS:00000000 $t
C:\Users\Nathan\AppData\Local\Temp\ccvsgOlc.s:2025   .text.HAL_PWREx_ConfigSMPS:00000000 HAL_PWREx_ConfigSMPS
C:\Users\Nathan\AppData\Local\Temp\ccvsgOlc.s:2149   .text.HAL_PWREx_ConfigSMPS:00000060 $d
C:\Users\Nathan\AppData\Local\Temp\ccvsgOlc.s:2155   .text.HAL_PWREx_SMPS_SetMode:00000000 $t
C:\Users\Nathan\AppData\Local\Temp\ccvsgOlc.s:2161   .text.HAL_PWREx_SMPS_SetMode:00000000 HAL_PWREx_SMPS_SetMode
C:\Users\Nathan\AppData\Local\Temp\ccvsgOlc.s:2184   .text.HAL_PWREx_SMPS_SetMode:00000014 $d
C:\Users\Nathan\AppData\Local\Temp\ccvsgOlc.s:2189   .text.HAL_PWREx_SMPS_GetEffectiveMode:00000000 $t
C:\Users\Nathan\AppData\Local\Temp\ccvsgOlc.s:2195   .text.HAL_PWREx_SMPS_GetEffectiveMode:00000000 HAL_PWREx_SMPS_GetEffectiveMode
C:\Users\Nathan\AppData\Local\Temp\ccvsgOlc.s:2212   .text.HAL_PWREx_SMPS_GetEffectiveMode:0000000c $d
C:\Users\Nathan\AppData\Local\Temp\ccvsgOlc.s:2217   .text.HAL_PWREx_EnableWakeUpPin:00000000 $t
C:\Users\Nathan\AppData\Local\Temp\ccvsgOlc.s:2223   .text.HAL_PWREx_EnableWakeUpPin:00000000 HAL_PWREx_EnableWakeUpPin
C:\Users\Nathan\AppData\Local\Temp\ccvsgOlc.s:2276   .text.HAL_PWREx_EnableWakeUpPin:00000034 $d
C:\Users\Nathan\AppData\Local\Temp\ccvsgOlc.s:2281   .text.HAL_PWREx_GetWakeupFlag:00000000 $t
C:\Users\Nathan\AppData\Local\Temp\ccvsgOlc.s:2287   .text.HAL_PWREx_GetWakeupFlag:00000000 HAL_PWREx_GetWakeupFlag
C:\Users\Nathan\AppData\Local\Temp\ccvsgOlc.s:2312   .text.HAL_PWREx_GetWakeupFlag:00000014 $d
C:\Users\Nathan\AppData\Local\Temp\ccvsgOlc.s:2317   .text.HAL_PWREx_ClearWakeupFlag:00000000 $t
C:\Users\Nathan\AppData\Local\Temp\ccvsgOlc.s:2323   .text.HAL_PWREx_ClearWakeupFlag:00000000 HAL_PWREx_ClearWakeupFlag
C:\Users\Nathan\AppData\Local\Temp\ccvsgOlc.s:2360   .text.HAL_PWREx_ClearWakeupFlag:00000020 $d
C:\Users\Nathan\AppData\Local\Temp\ccvsgOlc.s:2365   .text.HAL_PWREx_EnableLowPowerRunMode:00000000 $t
C:\Users\Nathan\AppData\Local\Temp\ccvsgOlc.s:2371   .text.HAL_PWREx_EnableLowPowerRunMode:00000000 HAL_PWREx_EnableLowPowerRunMode
C:\Users\Nathan\AppData\Local\Temp\ccvsgOlc.s:2388   .text.HAL_PWREx_EnableLowPowerRunMode:0000000c $d
C:\Users\Nathan\AppData\Local\Temp\ccvsgOlc.s:2393   .text.HAL_PWREx_DisableLowPowerRunMode:00000000 $t
C:\Users\Nathan\AppData\Local\Temp\ccvsgOlc.s:2399   .text.HAL_PWREx_DisableLowPowerRunMode:00000000 HAL_PWREx_DisableLowPowerRunMode
C:\Users\Nathan\AppData\Local\Temp\ccvsgOlc.s:2465   .text.HAL_PWREx_DisableLowPowerRunMode:0000004c $d
C:\Users\Nathan\AppData\Local\Temp\ccvsgOlc.s:2471   .text.HAL_PWREx_EnterSTOP0Mode:00000000 $t
C:\Users\Nathan\AppData\Local\Temp\ccvsgOlc.s:2477   .text.HAL_PWREx_EnterSTOP0Mode:00000000 HAL_PWREx_EnterSTOP0Mode
C:\Users\Nathan\AppData\Local\Temp\ccvsgOlc.s:2535   .text.HAL_PWREx_EnterSTOP0Mode:00000030 $d
C:\Users\Nathan\AppData\Local\Temp\ccvsgOlc.s:2541   .text.HAL_PWREx_EnterSTOP1Mode:00000000 $t
C:\Users\Nathan\AppData\Local\Temp\ccvsgOlc.s:2547   .text.HAL_PWREx_EnterSTOP1Mode:00000000 HAL_PWREx_EnterSTOP1Mode
C:\Users\Nathan\AppData\Local\Temp\ccvsgOlc.s:2606   .text.HAL_PWREx_EnterSTOP1Mode:00000034 $d
C:\Users\Nathan\AppData\Local\Temp\ccvsgOlc.s:2612   .text.HAL_PWREx_EnterSTOP2Mode:00000000 $t
C:\Users\Nathan\AppData\Local\Temp\ccvsgOlc.s:2618   .text.HAL_PWREx_EnterSTOP2Mode:00000000 HAL_PWREx_EnterSTOP2Mode
C:\Users\Nathan\AppData\Local\Temp\ccvsgOlc.s:2677   .text.HAL_PWREx_EnterSTOP2Mode:00000034 $d
C:\Users\Nathan\AppData\Local\Temp\ccvsgOlc.s:2683   .text.HAL_PWREx_EnterSHUTDOWNMode:00000000 $t
C:\Users\Nathan\AppData\Local\Temp\ccvsgOlc.s:2689   .text.HAL_PWREx_EnterSHUTDOWNMode:00000000 HAL_PWREx_EnterSHUTDOWNMode
C:\Users\Nathan\AppData\Local\Temp\ccvsgOlc.s:2723   .text.HAL_PWREx_EnterSHUTDOWNMode:00000024 $d
C:\Users\Nathan\AppData\Local\Temp\ccvsgOlc.s:2729   .text.HAL_PWREx_PVM1Callback:00000000 $t
C:\Users\Nathan\AppData\Local\Temp\ccvsgOlc.s:2735   .text.HAL_PWREx_PVM1Callback:00000000 HAL_PWREx_PVM1Callback
C:\Users\Nathan\AppData\Local\Temp\ccvsgOlc.s:2748   .text.HAL_PWREx_PVM3Callback:00000000 $t
C:\Users\Nathan\AppData\Local\Temp\ccvsgOlc.s:2754   .text.HAL_PWREx_PVM3Callback:00000000 HAL_PWREx_PVM3Callback
C:\Users\Nathan\AppData\Local\Temp\ccvsgOlc.s:2767   .text.HAL_PWREx_PVD_PVM_IRQHandler:00000000 $t
C:\Users\Nathan\AppData\Local\Temp\ccvsgOlc.s:2773   .text.HAL_PWREx_PVD_PVM_IRQHandler:00000000 HAL_PWREx_PVD_PVM_IRQHandler
C:\Users\Nathan\AppData\Local\Temp\ccvsgOlc.s:2897   .text.HAL_PWREx_PVD_PVM_IRQHandler:00000048 $d

UNDEFINED SYMBOLS
SystemCoreClock
HAL_PWR_PVDCallback
