ARM GAS  C:\Users\Nathan\AppData\Local\Temp\cczpN5Za.s 			page 1


   1              		.cpu cortex-m4
   2              		.arch armv7e-m
   3              		.fpu fpv4-sp-d16
   4              		.eabi_attribute 27, 1
   5              		.eabi_attribute 28, 1
   6              		.eabi_attribute 20, 1
   7              		.eabi_attribute 21, 1
   8              		.eabi_attribute 23, 3
   9              		.eabi_attribute 24, 1
  10              		.eabi_attribute 25, 1
  11              		.eabi_attribute 26, 1
  12              		.eabi_attribute 30, 1
  13              		.eabi_attribute 34, 1
  14              		.eabi_attribute 18, 4
  15              		.file	"stm32wbxx_it.c"
  16              		.text
  17              	.Ltext0:
  18              		.cfi_sections	.debug_frame
  19              		.file 1 "Core/Src/stm32wbxx_it.c"
  20              		.section	.text.NMI_Handler,"ax",%progbits
  21              		.align	1
  22              		.global	NMI_Handler
  23              		.syntax unified
  24              		.thumb
  25              		.thumb_func
  27              	NMI_Handler:
  28              	.LFB1415:
   1:Core/Src/stm32wbxx_it.c **** /* USER CODE BEGIN Header */
   2:Core/Src/stm32wbxx_it.c **** /**
   3:Core/Src/stm32wbxx_it.c ****   ******************************************************************************
   4:Core/Src/stm32wbxx_it.c ****   * @file    stm32wbxx_it.c
   5:Core/Src/stm32wbxx_it.c ****   * @brief   Interrupt Service Routines.
   6:Core/Src/stm32wbxx_it.c ****   ******************************************************************************
   7:Core/Src/stm32wbxx_it.c ****   * @attention
   8:Core/Src/stm32wbxx_it.c ****   *
   9:Core/Src/stm32wbxx_it.c ****   * Copyright (c) 2025 STMicroelectronics.
  10:Core/Src/stm32wbxx_it.c ****   * All rights reserved.
  11:Core/Src/stm32wbxx_it.c ****   *
  12:Core/Src/stm32wbxx_it.c ****   * This software is licensed under terms that can be found in the LICENSE file
  13:Core/Src/stm32wbxx_it.c ****   * in the root directory of this software component.
  14:Core/Src/stm32wbxx_it.c ****   * If no LICENSE file comes with this software, it is provided AS-IS.
  15:Core/Src/stm32wbxx_it.c ****   *
  16:Core/Src/stm32wbxx_it.c ****   ******************************************************************************
  17:Core/Src/stm32wbxx_it.c ****   */
  18:Core/Src/stm32wbxx_it.c **** /* USER CODE END Header */
  19:Core/Src/stm32wbxx_it.c **** 
  20:Core/Src/stm32wbxx_it.c **** /* Includes ------------------------------------------------------------------*/
  21:Core/Src/stm32wbxx_it.c **** #include "main.h"
  22:Core/Src/stm32wbxx_it.c **** #include "stm32wbxx_it.h"
  23:Core/Src/stm32wbxx_it.c **** /* Private includes ----------------------------------------------------------*/
  24:Core/Src/stm32wbxx_it.c **** /* USER CODE BEGIN Includes */
  25:Core/Src/stm32wbxx_it.c **** /* USER CODE END Includes */
  26:Core/Src/stm32wbxx_it.c **** 
  27:Core/Src/stm32wbxx_it.c **** /* Private typedef -----------------------------------------------------------*/
  28:Core/Src/stm32wbxx_it.c **** /* USER CODE BEGIN TD */
  29:Core/Src/stm32wbxx_it.c **** 
  30:Core/Src/stm32wbxx_it.c **** /* USER CODE END TD */
ARM GAS  C:\Users\Nathan\AppData\Local\Temp\cczpN5Za.s 			page 2


  31:Core/Src/stm32wbxx_it.c **** 
  32:Core/Src/stm32wbxx_it.c **** /* Private define ------------------------------------------------------------*/
  33:Core/Src/stm32wbxx_it.c **** /* USER CODE BEGIN PD */
  34:Core/Src/stm32wbxx_it.c **** 
  35:Core/Src/stm32wbxx_it.c **** /* USER CODE END PD */
  36:Core/Src/stm32wbxx_it.c **** 
  37:Core/Src/stm32wbxx_it.c **** /* Private macro -------------------------------------------------------------*/
  38:Core/Src/stm32wbxx_it.c **** /* USER CODE BEGIN PM */
  39:Core/Src/stm32wbxx_it.c **** 
  40:Core/Src/stm32wbxx_it.c **** /* USER CODE END PM */
  41:Core/Src/stm32wbxx_it.c **** 
  42:Core/Src/stm32wbxx_it.c **** /* Private variables ---------------------------------------------------------*/
  43:Core/Src/stm32wbxx_it.c **** /* USER CODE BEGIN PV */
  44:Core/Src/stm32wbxx_it.c **** 
  45:Core/Src/stm32wbxx_it.c **** /* USER CODE END PV */
  46:Core/Src/stm32wbxx_it.c **** 
  47:Core/Src/stm32wbxx_it.c **** /* Private function prototypes -----------------------------------------------*/
  48:Core/Src/stm32wbxx_it.c **** /* USER CODE BEGIN PFP */
  49:Core/Src/stm32wbxx_it.c **** 
  50:Core/Src/stm32wbxx_it.c **** /* USER CODE END PFP */
  51:Core/Src/stm32wbxx_it.c **** 
  52:Core/Src/stm32wbxx_it.c **** /* Private user code ---------------------------------------------------------*/
  53:Core/Src/stm32wbxx_it.c **** /* USER CODE BEGIN 0 */
  54:Core/Src/stm32wbxx_it.c **** 
  55:Core/Src/stm32wbxx_it.c **** /* USER CODE END 0 */
  56:Core/Src/stm32wbxx_it.c **** 
  57:Core/Src/stm32wbxx_it.c **** /* External variables --------------------------------------------------------*/
  58:Core/Src/stm32wbxx_it.c **** extern PCD_HandleTypeDef hpcd_USB_FS;
  59:Core/Src/stm32wbxx_it.c **** extern IPCC_HandleTypeDef hipcc;
  60:Core/Src/stm32wbxx_it.c **** extern RTC_HandleTypeDef hrtc;
  61:Core/Src/stm32wbxx_it.c **** extern TIM_HandleTypeDef htim1;
  62:Core/Src/stm32wbxx_it.c **** extern TIM_HandleTypeDef htim16;
  63:Core/Src/stm32wbxx_it.c **** /* USER CODE BEGIN EV */
  64:Core/Src/stm32wbxx_it.c **** 
  65:Core/Src/stm32wbxx_it.c **** /* USER CODE END EV */
  66:Core/Src/stm32wbxx_it.c **** 
  67:Core/Src/stm32wbxx_it.c **** /******************************************************************************/
  68:Core/Src/stm32wbxx_it.c **** /*           Cortex Processor Interruption and Exception Handlers          */
  69:Core/Src/stm32wbxx_it.c **** /******************************************************************************/
  70:Core/Src/stm32wbxx_it.c **** /**
  71:Core/Src/stm32wbxx_it.c ****   * @brief This function handles Non maskable interrupt.
  72:Core/Src/stm32wbxx_it.c ****   */
  73:Core/Src/stm32wbxx_it.c **** void NMI_Handler(void)
  74:Core/Src/stm32wbxx_it.c **** {
  29              		.loc 1 74 1 view -0
  30              		.cfi_startproc
  31              		@ Volatile: function does not return.
  32              		@ args = 0, pretend = 0, frame = 0
  33              		@ frame_needed = 0, uses_anonymous_args = 0
  34              		@ link register save eliminated.
  35              	.L2:
  75:Core/Src/stm32wbxx_it.c ****   /* USER CODE BEGIN NonMaskableInt_IRQn 0 */
  76:Core/Src/stm32wbxx_it.c **** 
  77:Core/Src/stm32wbxx_it.c ****   /* USER CODE END NonMaskableInt_IRQn 0 */
  78:Core/Src/stm32wbxx_it.c ****   /* USER CODE BEGIN NonMaskableInt_IRQn 1 */
  79:Core/Src/stm32wbxx_it.c ****    while (1)
  36              		.loc 1 79 4 view .LVU1
ARM GAS  C:\Users\Nathan\AppData\Local\Temp\cczpN5Za.s 			page 3


  80:Core/Src/stm32wbxx_it.c ****   {
  81:Core/Src/stm32wbxx_it.c ****   }
  37              		.loc 1 81 3 view .LVU2
  79:Core/Src/stm32wbxx_it.c ****   {
  38              		.loc 1 79 10 view .LVU3
  39 0000 FEE7     		b	.L2
  40              		.cfi_endproc
  41              	.LFE1415:
  43              		.section	.text.HardFault_Handler,"ax",%progbits
  44              		.align	1
  45              		.global	HardFault_Handler
  46              		.syntax unified
  47              		.thumb
  48              		.thumb_func
  50              	HardFault_Handler:
  51              	.LFB1416:
  82:Core/Src/stm32wbxx_it.c ****   /* USER CODE END NonMaskableInt_IRQn 1 */
  83:Core/Src/stm32wbxx_it.c **** }
  84:Core/Src/stm32wbxx_it.c **** 
  85:Core/Src/stm32wbxx_it.c **** /**
  86:Core/Src/stm32wbxx_it.c ****   * @brief This function handles Hard fault interrupt.
  87:Core/Src/stm32wbxx_it.c ****   */
  88:Core/Src/stm32wbxx_it.c **** void HardFault_Handler(void)
  89:Core/Src/stm32wbxx_it.c **** {
  52              		.loc 1 89 1 view -0
  53              		.cfi_startproc
  54              		@ Volatile: function does not return.
  55              		@ args = 0, pretend = 0, frame = 0
  56              		@ frame_needed = 0, uses_anonymous_args = 0
  57              		@ link register save eliminated.
  58              	.L4:
  90:Core/Src/stm32wbxx_it.c ****   /* USER CODE BEGIN HardFault_IRQn 0 */
  91:Core/Src/stm32wbxx_it.c **** 
  92:Core/Src/stm32wbxx_it.c ****   /* USER CODE END HardFault_IRQn 0 */
  93:Core/Src/stm32wbxx_it.c ****   while (1)
  59              		.loc 1 93 3 view .LVU5
  94:Core/Src/stm32wbxx_it.c ****   {
  95:Core/Src/stm32wbxx_it.c ****     /* USER CODE BEGIN W1_HardFault_IRQn 0 */
  96:Core/Src/stm32wbxx_it.c ****     /* USER CODE END W1_HardFault_IRQn 0 */
  97:Core/Src/stm32wbxx_it.c ****   }
  60              		.loc 1 97 3 view .LVU6
  93:Core/Src/stm32wbxx_it.c ****   {
  61              		.loc 1 93 9 view .LVU7
  62 0000 FEE7     		b	.L4
  63              		.cfi_endproc
  64              	.LFE1416:
  66              		.section	.text.MemManage_Handler,"ax",%progbits
  67              		.align	1
  68              		.global	MemManage_Handler
  69              		.syntax unified
  70              		.thumb
  71              		.thumb_func
  73              	MemManage_Handler:
  74              	.LFB1417:
  98:Core/Src/stm32wbxx_it.c **** }
  99:Core/Src/stm32wbxx_it.c **** 
 100:Core/Src/stm32wbxx_it.c **** /**
ARM GAS  C:\Users\Nathan\AppData\Local\Temp\cczpN5Za.s 			page 4


 101:Core/Src/stm32wbxx_it.c ****   * @brief This function handles Memory management fault.
 102:Core/Src/stm32wbxx_it.c ****   */
 103:Core/Src/stm32wbxx_it.c **** void MemManage_Handler(void)
 104:Core/Src/stm32wbxx_it.c **** {
  75              		.loc 1 104 1 view -0
  76              		.cfi_startproc
  77              		@ Volatile: function does not return.
  78              		@ args = 0, pretend = 0, frame = 0
  79              		@ frame_needed = 0, uses_anonymous_args = 0
  80              		@ link register save eliminated.
  81              	.L6:
 105:Core/Src/stm32wbxx_it.c ****   /* USER CODE BEGIN MemoryManagement_IRQn 0 */
 106:Core/Src/stm32wbxx_it.c **** 
 107:Core/Src/stm32wbxx_it.c ****   /* USER CODE END MemoryManagement_IRQn 0 */
 108:Core/Src/stm32wbxx_it.c ****   while (1)
  82              		.loc 1 108 3 view .LVU9
 109:Core/Src/stm32wbxx_it.c ****   {
 110:Core/Src/stm32wbxx_it.c ****     /* USER CODE BEGIN W1_MemoryManagement_IRQn 0 */
 111:Core/Src/stm32wbxx_it.c ****     /* USER CODE END W1_MemoryManagement_IRQn 0 */
 112:Core/Src/stm32wbxx_it.c ****   }
  83              		.loc 1 112 3 view .LVU10
 108:Core/Src/stm32wbxx_it.c ****   {
  84              		.loc 1 108 9 view .LVU11
  85 0000 FEE7     		b	.L6
  86              		.cfi_endproc
  87              	.LFE1417:
  89              		.section	.text.BusFault_Handler,"ax",%progbits
  90              		.align	1
  91              		.global	BusFault_Handler
  92              		.syntax unified
  93              		.thumb
  94              		.thumb_func
  96              	BusFault_Handler:
  97              	.LFB1418:
 113:Core/Src/stm32wbxx_it.c **** }
 114:Core/Src/stm32wbxx_it.c **** 
 115:Core/Src/stm32wbxx_it.c **** /**
 116:Core/Src/stm32wbxx_it.c ****   * @brief This function handles Prefetch fault, memory access fault.
 117:Core/Src/stm32wbxx_it.c ****   */
 118:Core/Src/stm32wbxx_it.c **** void BusFault_Handler(void)
 119:Core/Src/stm32wbxx_it.c **** {
  98              		.loc 1 119 1 view -0
  99              		.cfi_startproc
 100              		@ Volatile: function does not return.
 101              		@ args = 0, pretend = 0, frame = 0
 102              		@ frame_needed = 0, uses_anonymous_args = 0
 103              		@ link register save eliminated.
 104              	.L8:
 120:Core/Src/stm32wbxx_it.c ****   /* USER CODE BEGIN BusFault_IRQn 0 */
 121:Core/Src/stm32wbxx_it.c **** 
 122:Core/Src/stm32wbxx_it.c ****   /* USER CODE END BusFault_IRQn 0 */
 123:Core/Src/stm32wbxx_it.c ****   while (1)
 105              		.loc 1 123 3 view .LVU13
 124:Core/Src/stm32wbxx_it.c ****   {
 125:Core/Src/stm32wbxx_it.c ****     /* USER CODE BEGIN W1_BusFault_IRQn 0 */
 126:Core/Src/stm32wbxx_it.c ****     /* USER CODE END W1_BusFault_IRQn 0 */
 127:Core/Src/stm32wbxx_it.c ****   }
ARM GAS  C:\Users\Nathan\AppData\Local\Temp\cczpN5Za.s 			page 5


 106              		.loc 1 127 3 view .LVU14
 123:Core/Src/stm32wbxx_it.c ****   {
 107              		.loc 1 123 9 view .LVU15
 108 0000 FEE7     		b	.L8
 109              		.cfi_endproc
 110              	.LFE1418:
 112              		.section	.text.UsageFault_Handler,"ax",%progbits
 113              		.align	1
 114              		.global	UsageFault_Handler
 115              		.syntax unified
 116              		.thumb
 117              		.thumb_func
 119              	UsageFault_Handler:
 120              	.LFB1419:
 128:Core/Src/stm32wbxx_it.c **** }
 129:Core/Src/stm32wbxx_it.c **** 
 130:Core/Src/stm32wbxx_it.c **** /**
 131:Core/Src/stm32wbxx_it.c ****   * @brief This function handles Undefined instruction or illegal state.
 132:Core/Src/stm32wbxx_it.c ****   */
 133:Core/Src/stm32wbxx_it.c **** void UsageFault_Handler(void)
 134:Core/Src/stm32wbxx_it.c **** {
 121              		.loc 1 134 1 view -0
 122              		.cfi_startproc
 123              		@ Volatile: function does not return.
 124              		@ args = 0, pretend = 0, frame = 0
 125              		@ frame_needed = 0, uses_anonymous_args = 0
 126              		@ link register save eliminated.
 127              	.L10:
 135:Core/Src/stm32wbxx_it.c ****   /* USER CODE BEGIN UsageFault_IRQn 0 */
 136:Core/Src/stm32wbxx_it.c **** 
 137:Core/Src/stm32wbxx_it.c ****   /* USER CODE END UsageFault_IRQn 0 */
 138:Core/Src/stm32wbxx_it.c ****   while (1)
 128              		.loc 1 138 3 view .LVU17
 139:Core/Src/stm32wbxx_it.c ****   {
 140:Core/Src/stm32wbxx_it.c ****     /* USER CODE BEGIN W1_UsageFault_IRQn 0 */
 141:Core/Src/stm32wbxx_it.c ****     /* USER CODE END W1_UsageFault_IRQn 0 */
 142:Core/Src/stm32wbxx_it.c ****   }
 129              		.loc 1 142 3 view .LVU18
 138:Core/Src/stm32wbxx_it.c ****   {
 130              		.loc 1 138 9 view .LVU19
 131 0000 FEE7     		b	.L10
 132              		.cfi_endproc
 133              	.LFE1419:
 135              		.section	.text.SVC_Handler,"ax",%progbits
 136              		.align	1
 137              		.global	SVC_Handler
 138              		.syntax unified
 139              		.thumb
 140              		.thumb_func
 142              	SVC_Handler:
 143              	.LFB1420:
 143:Core/Src/stm32wbxx_it.c **** }
 144:Core/Src/stm32wbxx_it.c **** 
 145:Core/Src/stm32wbxx_it.c **** /**
 146:Core/Src/stm32wbxx_it.c ****   * @brief This function handles System service call via SWI instruction.
 147:Core/Src/stm32wbxx_it.c ****   */
 148:Core/Src/stm32wbxx_it.c **** void SVC_Handler(void)
ARM GAS  C:\Users\Nathan\AppData\Local\Temp\cczpN5Za.s 			page 6


 149:Core/Src/stm32wbxx_it.c **** {
 144              		.loc 1 149 1 view -0
 145              		.cfi_startproc
 146              		@ args = 0, pretend = 0, frame = 0
 147              		@ frame_needed = 0, uses_anonymous_args = 0
 148              		@ link register save eliminated.
 150:Core/Src/stm32wbxx_it.c ****   /* USER CODE BEGIN SVCall_IRQn 0 */
 151:Core/Src/stm32wbxx_it.c **** 
 152:Core/Src/stm32wbxx_it.c ****   /* USER CODE END SVCall_IRQn 0 */
 153:Core/Src/stm32wbxx_it.c ****   /* USER CODE BEGIN SVCall_IRQn 1 */
 154:Core/Src/stm32wbxx_it.c **** 
 155:Core/Src/stm32wbxx_it.c ****   /* USER CODE END SVCall_IRQn 1 */
 156:Core/Src/stm32wbxx_it.c **** }
 149              		.loc 1 156 1 view .LVU21
 150 0000 7047     		bx	lr
 151              		.cfi_endproc
 152              	.LFE1420:
 154              		.section	.text.DebugMon_Handler,"ax",%progbits
 155              		.align	1
 156              		.global	DebugMon_Handler
 157              		.syntax unified
 158              		.thumb
 159              		.thumb_func
 161              	DebugMon_Handler:
 162              	.LFB1421:
 157:Core/Src/stm32wbxx_it.c **** 
 158:Core/Src/stm32wbxx_it.c **** /**
 159:Core/Src/stm32wbxx_it.c ****   * @brief This function handles Debug monitor.
 160:Core/Src/stm32wbxx_it.c ****   */
 161:Core/Src/stm32wbxx_it.c **** void DebugMon_Handler(void)
 162:Core/Src/stm32wbxx_it.c **** {
 163              		.loc 1 162 1 view -0
 164              		.cfi_startproc
 165              		@ args = 0, pretend = 0, frame = 0
 166              		@ frame_needed = 0, uses_anonymous_args = 0
 167              		@ link register save eliminated.
 163:Core/Src/stm32wbxx_it.c ****   /* USER CODE BEGIN DebugMonitor_IRQn 0 */
 164:Core/Src/stm32wbxx_it.c **** 
 165:Core/Src/stm32wbxx_it.c ****   /* USER CODE END DebugMonitor_IRQn 0 */
 166:Core/Src/stm32wbxx_it.c ****   /* USER CODE BEGIN DebugMonitor_IRQn 1 */
 167:Core/Src/stm32wbxx_it.c **** 
 168:Core/Src/stm32wbxx_it.c ****   /* USER CODE END DebugMonitor_IRQn 1 */
 169:Core/Src/stm32wbxx_it.c **** }
 168              		.loc 1 169 1 view .LVU23
 169 0000 7047     		bx	lr
 170              		.cfi_endproc
 171              	.LFE1421:
 173              		.section	.text.PendSV_Handler,"ax",%progbits
 174              		.align	1
 175              		.global	PendSV_Handler
 176              		.syntax unified
 177              		.thumb
 178              		.thumb_func
 180              	PendSV_Handler:
 181              	.LFB1422:
 170:Core/Src/stm32wbxx_it.c **** 
 171:Core/Src/stm32wbxx_it.c **** /**
ARM GAS  C:\Users\Nathan\AppData\Local\Temp\cczpN5Za.s 			page 7


 172:Core/Src/stm32wbxx_it.c ****   * @brief This function handles Pendable request for system service.
 173:Core/Src/stm32wbxx_it.c ****   */
 174:Core/Src/stm32wbxx_it.c **** void PendSV_Handler(void)
 175:Core/Src/stm32wbxx_it.c **** {
 182              		.loc 1 175 1 view -0
 183              		.cfi_startproc
 184              		@ args = 0, pretend = 0, frame = 0
 185              		@ frame_needed = 0, uses_anonymous_args = 0
 186              		@ link register save eliminated.
 176:Core/Src/stm32wbxx_it.c ****   /* USER CODE BEGIN PendSV_IRQn 0 */
 177:Core/Src/stm32wbxx_it.c **** 
 178:Core/Src/stm32wbxx_it.c ****   /* USER CODE END PendSV_IRQn 0 */
 179:Core/Src/stm32wbxx_it.c ****   /* USER CODE BEGIN PendSV_IRQn 1 */
 180:Core/Src/stm32wbxx_it.c **** 
 181:Core/Src/stm32wbxx_it.c ****   /* USER CODE END PendSV_IRQn 1 */
 182:Core/Src/stm32wbxx_it.c **** }
 187              		.loc 1 182 1 view .LVU25
 188 0000 7047     		bx	lr
 189              		.cfi_endproc
 190              	.LFE1422:
 192              		.section	.text.SysTick_Handler,"ax",%progbits
 193              		.align	1
 194              		.global	SysTick_Handler
 195              		.syntax unified
 196              		.thumb
 197              		.thumb_func
 199              	SysTick_Handler:
 200              	.LFB1423:
 183:Core/Src/stm32wbxx_it.c **** 
 184:Core/Src/stm32wbxx_it.c **** /**
 185:Core/Src/stm32wbxx_it.c ****   * @brief This function handles System tick timer.
 186:Core/Src/stm32wbxx_it.c ****   */
 187:Core/Src/stm32wbxx_it.c **** void SysTick_Handler(void)
 188:Core/Src/stm32wbxx_it.c **** {
 201              		.loc 1 188 1 view -0
 202              		.cfi_startproc
 203              		@ args = 0, pretend = 0, frame = 0
 204              		@ frame_needed = 0, uses_anonymous_args = 0
 205 0000 08B5     		push	{r3, lr}
 206              		.cfi_def_cfa_offset 8
 207              		.cfi_offset 3, -8
 208              		.cfi_offset 14, -4
 189:Core/Src/stm32wbxx_it.c ****   /* USER CODE BEGIN SysTick_IRQn 0 */
 190:Core/Src/stm32wbxx_it.c **** 
 191:Core/Src/stm32wbxx_it.c ****   /* USER CODE END SysTick_IRQn 0 */
 192:Core/Src/stm32wbxx_it.c ****   HAL_IncTick();
 209              		.loc 1 192 3 view .LVU27
 210 0002 FFF7FEFF 		bl	HAL_IncTick
 211              	.LVL0:
 193:Core/Src/stm32wbxx_it.c ****   /* USER CODE BEGIN SysTick_IRQn 1 */
 194:Core/Src/stm32wbxx_it.c **** 
 195:Core/Src/stm32wbxx_it.c ****   /* USER CODE END SysTick_IRQn 1 */
 196:Core/Src/stm32wbxx_it.c **** }
 212              		.loc 1 196 1 is_stmt 0 view .LVU28
 213 0006 08BD     		pop	{r3, pc}
 214              		.cfi_endproc
 215              	.LFE1423:
ARM GAS  C:\Users\Nathan\AppData\Local\Temp\cczpN5Za.s 			page 8


 217              		.section	.text.RTC_WKUP_IRQHandler,"ax",%progbits
 218              		.align	1
 219              		.global	RTC_WKUP_IRQHandler
 220              		.syntax unified
 221              		.thumb
 222              		.thumb_func
 224              	RTC_WKUP_IRQHandler:
 225              	.LFB1424:
 197:Core/Src/stm32wbxx_it.c **** 
 198:Core/Src/stm32wbxx_it.c **** /******************************************************************************/
 199:Core/Src/stm32wbxx_it.c **** /* STM32WBxx Peripheral Interrupt Handlers                                    */
 200:Core/Src/stm32wbxx_it.c **** /* Add here the Interrupt Handlers for the used peripherals.                  */
 201:Core/Src/stm32wbxx_it.c **** /* For the available peripheral interrupt handler names,                      */
 202:Core/Src/stm32wbxx_it.c **** /* please refer to the startup file (startup_stm32wbxx.s).                    */
 203:Core/Src/stm32wbxx_it.c **** /******************************************************************************/
 204:Core/Src/stm32wbxx_it.c **** 
 205:Core/Src/stm32wbxx_it.c **** /**
 206:Core/Src/stm32wbxx_it.c ****   * @brief This function handles RTC wake-up interrupt through EXTI line 19.
 207:Core/Src/stm32wbxx_it.c ****   */
 208:Core/Src/stm32wbxx_it.c **** void RTC_WKUP_IRQHandler(void)
 209:Core/Src/stm32wbxx_it.c **** {
 226              		.loc 1 209 1 is_stmt 1 view -0
 227              		.cfi_startproc
 228              		@ args = 0, pretend = 0, frame = 0
 229              		@ frame_needed = 0, uses_anonymous_args = 0
 230 0000 08B5     		push	{r3, lr}
 231              		.cfi_def_cfa_offset 8
 232              		.cfi_offset 3, -8
 233              		.cfi_offset 14, -4
 210:Core/Src/stm32wbxx_it.c ****   /* USER CODE BEGIN RTC_WKUP_IRQn 0 */
 211:Core/Src/stm32wbxx_it.c **** 
 212:Core/Src/stm32wbxx_it.c ****   /* USER CODE END RTC_WKUP_IRQn 0 */
 213:Core/Src/stm32wbxx_it.c ****   HAL_RTCEx_WakeUpTimerIRQHandler(&hrtc);
 234              		.loc 1 213 3 view .LVU30
 235 0002 FFF7FEFF 		bl	HW_TS_RTC_Wakeup_Handler
 236              	.LVL1:
 214:Core/Src/stm32wbxx_it.c ****   /* USER CODE BEGIN RTC_WKUP_IRQn 1 */
 215:Core/Src/stm32wbxx_it.c **** 
 216:Core/Src/stm32wbxx_it.c ****   /* USER CODE END RTC_WKUP_IRQn 1 */
 217:Core/Src/stm32wbxx_it.c **** }
 237              		.loc 1 217 1 is_stmt 0 view .LVU31
 238 0006 08BD     		pop	{r3, pc}
 239              		.cfi_endproc
 240              	.LFE1424:
 242              		.section	.text.USB_HP_IRQHandler,"ax",%progbits
 243              		.align	1
 244              		.global	USB_HP_IRQHandler
 245              		.syntax unified
 246              		.thumb
 247              		.thumb_func
 249              	USB_HP_IRQHandler:
 250              	.LFB1425:
 218:Core/Src/stm32wbxx_it.c **** 
 219:Core/Src/stm32wbxx_it.c **** /**
 220:Core/Src/stm32wbxx_it.c ****   * @brief This function handles USB high priority interrupt.
 221:Core/Src/stm32wbxx_it.c ****   */
 222:Core/Src/stm32wbxx_it.c **** void USB_HP_IRQHandler(void)
ARM GAS  C:\Users\Nathan\AppData\Local\Temp\cczpN5Za.s 			page 9


 223:Core/Src/stm32wbxx_it.c **** {
 251              		.loc 1 223 1 is_stmt 1 view -0
 252              		.cfi_startproc
 253              		@ args = 0, pretend = 0, frame = 0
 254              		@ frame_needed = 0, uses_anonymous_args = 0
 255 0000 08B5     		push	{r3, lr}
 256              		.cfi_def_cfa_offset 8
 257              		.cfi_offset 3, -8
 258              		.cfi_offset 14, -4
 224:Core/Src/stm32wbxx_it.c ****   /* USER CODE BEGIN USB_HP_IRQn 0 */
 225:Core/Src/stm32wbxx_it.c **** 
 226:Core/Src/stm32wbxx_it.c ****   /* USER CODE END USB_HP_IRQn 0 */
 227:Core/Src/stm32wbxx_it.c ****   HAL_PCD_IRQHandler(&hpcd_USB_FS);
 259              		.loc 1 227 3 view .LVU33
 260 0002 0248     		ldr	r0, .L20
 261 0004 FFF7FEFF 		bl	HAL_PCD_IRQHandler
 262              	.LVL2:
 228:Core/Src/stm32wbxx_it.c ****   /* USER CODE BEGIN USB_HP_IRQn 1 */
 229:Core/Src/stm32wbxx_it.c **** 
 230:Core/Src/stm32wbxx_it.c ****   /* USER CODE END USB_HP_IRQn 1 */
 231:Core/Src/stm32wbxx_it.c **** }
 263              		.loc 1 231 1 is_stmt 0 view .LVU34
 264 0008 08BD     		pop	{r3, pc}
 265              	.L21:
 266 000a 00BF     		.align	2
 267              	.L20:
 268 000c 00000000 		.word	hpcd_USB_FS
 269              		.cfi_endproc
 270              	.LFE1425:
 272              		.section	.text.USB_LP_IRQHandler,"ax",%progbits
 273              		.align	1
 274              		.global	USB_LP_IRQHandler
 275              		.syntax unified
 276              		.thumb
 277              		.thumb_func
 279              	USB_LP_IRQHandler:
 280              	.LFB1426:
 232:Core/Src/stm32wbxx_it.c **** 
 233:Core/Src/stm32wbxx_it.c **** /**
 234:Core/Src/stm32wbxx_it.c ****   * @brief This function handles USB low priority interrupt, USB wake-up interrupt through EXTI lin
 235:Core/Src/stm32wbxx_it.c ****   */
 236:Core/Src/stm32wbxx_it.c **** void USB_LP_IRQHandler(void)
 237:Core/Src/stm32wbxx_it.c **** {
 281              		.loc 1 237 1 is_stmt 1 view -0
 282              		.cfi_startproc
 283              		@ args = 0, pretend = 0, frame = 0
 284              		@ frame_needed = 0, uses_anonymous_args = 0
 285 0000 08B5     		push	{r3, lr}
 286              		.cfi_def_cfa_offset 8
 287              		.cfi_offset 3, -8
 288              		.cfi_offset 14, -4
 238:Core/Src/stm32wbxx_it.c ****   /* USER CODE BEGIN USB_LP_IRQn 0 */
 239:Core/Src/stm32wbxx_it.c **** 
 240:Core/Src/stm32wbxx_it.c ****   /* USER CODE END USB_LP_IRQn 0 */
 241:Core/Src/stm32wbxx_it.c ****   HAL_PCD_IRQHandler(&hpcd_USB_FS);
 289              		.loc 1 241 3 view .LVU36
 290 0002 0248     		ldr	r0, .L24
ARM GAS  C:\Users\Nathan\AppData\Local\Temp\cczpN5Za.s 			page 10


 291 0004 FFF7FEFF 		bl	HAL_PCD_IRQHandler
 292              	.LVL3:
 242:Core/Src/stm32wbxx_it.c ****   /* USER CODE BEGIN USB_LP_IRQn 1 */
 243:Core/Src/stm32wbxx_it.c **** 
 244:Core/Src/stm32wbxx_it.c ****   /* USER CODE END USB_LP_IRQn 1 */
 245:Core/Src/stm32wbxx_it.c **** }
 293              		.loc 1 245 1 is_stmt 0 view .LVU37
 294 0008 08BD     		pop	{r3, pc}
 295              	.L25:
 296 000a 00BF     		.align	2
 297              	.L24:
 298 000c 00000000 		.word	hpcd_USB_FS
 299              		.cfi_endproc
 300              	.LFE1426:
 302              		.section	.text.TIM1_UP_TIM16_IRQHandler,"ax",%progbits
 303              		.align	1
 304              		.global	TIM1_UP_TIM16_IRQHandler
 305              		.syntax unified
 306              		.thumb
 307              		.thumb_func
 309              	TIM1_UP_TIM16_IRQHandler:
 310              	.LFB1427:
 246:Core/Src/stm32wbxx_it.c **** 
 247:Core/Src/stm32wbxx_it.c **** /**
 248:Core/Src/stm32wbxx_it.c ****   * @brief This function handles TIM1 update interrupt and TIM16 global interrupt.
 249:Core/Src/stm32wbxx_it.c ****   */
 250:Core/Src/stm32wbxx_it.c **** void TIM1_UP_TIM16_IRQHandler(void)
 251:Core/Src/stm32wbxx_it.c **** {
 311              		.loc 1 251 1 is_stmt 1 view -0
 312              		.cfi_startproc
 313              		@ args = 0, pretend = 0, frame = 0
 314              		@ frame_needed = 0, uses_anonymous_args = 0
 315 0000 08B5     		push	{r3, lr}
 316              		.cfi_def_cfa_offset 8
 317              		.cfi_offset 3, -8
 318              		.cfi_offset 14, -4
 252:Core/Src/stm32wbxx_it.c ****   /* USER CODE BEGIN TIM1_UP_TIM16_IRQn 0 */
 253:Core/Src/stm32wbxx_it.c **** 
 254:Core/Src/stm32wbxx_it.c ****   /* USER CODE END TIM1_UP_TIM16_IRQn 0 */
 255:Core/Src/stm32wbxx_it.c ****   HAL_TIM_IRQHandler(&htim1);
 319              		.loc 1 255 3 view .LVU39
 320 0002 0348     		ldr	r0, .L28
 321 0004 FFF7FEFF 		bl	HAL_TIM_IRQHandler
 322              	.LVL4:
 256:Core/Src/stm32wbxx_it.c ****   HAL_TIM_IRQHandler(&htim16);
 323              		.loc 1 256 3 view .LVU40
 324 0008 0248     		ldr	r0, .L28+4
 325 000a FFF7FEFF 		bl	HAL_TIM_IRQHandler
 326              	.LVL5:
 257:Core/Src/stm32wbxx_it.c ****   /* USER CODE BEGIN TIM1_UP_TIM16_IRQn 1 */
 258:Core/Src/stm32wbxx_it.c **** 
 259:Core/Src/stm32wbxx_it.c ****   /* USER CODE END TIM1_UP_TIM16_IRQn 1 */
 260:Core/Src/stm32wbxx_it.c **** }
 327              		.loc 1 260 1 is_stmt 0 view .LVU41
 328 000e 08BD     		pop	{r3, pc}
 329              	.L29:
 330              		.align	2
ARM GAS  C:\Users\Nathan\AppData\Local\Temp\cczpN5Za.s 			page 11


 331              	.L28:
 332 0010 00000000 		.word	htim1
 333 0014 00000000 		.word	htim16
 334              		.cfi_endproc
 335              	.LFE1427:
 337              		.section	.text.IPCC_C1_RX_IRQHandler,"ax",%progbits
 338              		.align	1
 339              		.global	IPCC_C1_RX_IRQHandler
 340              		.syntax unified
 341              		.thumb
 342              		.thumb_func
 344              	IPCC_C1_RX_IRQHandler:
 345              	.LFB1428:
 261:Core/Src/stm32wbxx_it.c **** 
 262:Core/Src/stm32wbxx_it.c **** /**
 263:Core/Src/stm32wbxx_it.c ****   * @brief This function handles IPCC RX occupied interrupt.
 264:Core/Src/stm32wbxx_it.c ****   */
 265:Core/Src/stm32wbxx_it.c **** void IPCC_C1_RX_IRQHandler(void)
 266:Core/Src/stm32wbxx_it.c **** {
 346              		.loc 1 266 1 is_stmt 1 view -0
 347              		.cfi_startproc
 348              		@ args = 0, pretend = 0, frame = 0
 349              		@ frame_needed = 0, uses_anonymous_args = 0
 350 0000 08B5     		push	{r3, lr}
 351              		.cfi_def_cfa_offset 8
 352              		.cfi_offset 3, -8
 353              		.cfi_offset 14, -4
 267:Core/Src/stm32wbxx_it.c ****   /* USER CODE BEGIN IPCC_C1_RX_IRQn 0 */
 268:Core/Src/stm32wbxx_it.c **** 
 269:Core/Src/stm32wbxx_it.c ****   /* USER CODE END IPCC_C1_RX_IRQn 0 */
 270:Core/Src/stm32wbxx_it.c ****   HAL_IPCC_RX_IRQHandler(&hipcc);
 354              		.loc 1 270 3 view .LVU43
 355 0002 FFF7FEFF 		bl	HW_IPCC_Rx_Handler
 356              	.LVL6:
 271:Core/Src/stm32wbxx_it.c ****   /* USER CODE BEGIN IPCC_C1_RX_IRQn 1 */
 272:Core/Src/stm32wbxx_it.c **** 
 273:Core/Src/stm32wbxx_it.c ****   /* USER CODE END IPCC_C1_RX_IRQn 1 */
 274:Core/Src/stm32wbxx_it.c **** }
 357              		.loc 1 274 1 is_stmt 0 view .LVU44
 358 0006 08BD     		pop	{r3, pc}
 359              		.cfi_endproc
 360              	.LFE1428:
 362              		.section	.text.IPCC_C1_TX_IRQHandler,"ax",%progbits
 363              		.align	1
 364              		.global	IPCC_C1_TX_IRQHandler
 365              		.syntax unified
 366              		.thumb
 367              		.thumb_func
 369              	IPCC_C1_TX_IRQHandler:
 370              	.LFB1429:
 275:Core/Src/stm32wbxx_it.c **** 
 276:Core/Src/stm32wbxx_it.c **** /**
 277:Core/Src/stm32wbxx_it.c ****   * @brief This function handles IPCC TX free interrupt.
 278:Core/Src/stm32wbxx_it.c ****   */
 279:Core/Src/stm32wbxx_it.c **** void IPCC_C1_TX_IRQHandler(void)
 280:Core/Src/stm32wbxx_it.c **** {
 371              		.loc 1 280 1 is_stmt 1 view -0
ARM GAS  C:\Users\Nathan\AppData\Local\Temp\cczpN5Za.s 			page 12


 372              		.cfi_startproc
 373              		@ args = 0, pretend = 0, frame = 0
 374              		@ frame_needed = 0, uses_anonymous_args = 0
 375 0000 08B5     		push	{r3, lr}
 376              		.cfi_def_cfa_offset 8
 377              		.cfi_offset 3, -8
 378              		.cfi_offset 14, -4
 281:Core/Src/stm32wbxx_it.c ****   /* USER CODE BEGIN IPCC_C1_TX_IRQn 0 */
 282:Core/Src/stm32wbxx_it.c **** 
 283:Core/Src/stm32wbxx_it.c ****   /* USER CODE END IPCC_C1_TX_IRQn 0 */
 284:Core/Src/stm32wbxx_it.c ****   HAL_IPCC_TX_IRQHandler(&hipcc);
 379              		.loc 1 284 3 view .LVU46
 380 0002 FFF7FEFF 		bl	HW_IPCC_Tx_Handler
 381              	.LVL7:
 285:Core/Src/stm32wbxx_it.c ****   /* USER CODE BEGIN IPCC_C1_TX_IRQn 1 */
 286:Core/Src/stm32wbxx_it.c **** 
 287:Core/Src/stm32wbxx_it.c ****   /* USER CODE END IPCC_C1_TX_IRQn 1 */
 288:Core/Src/stm32wbxx_it.c **** }
 382              		.loc 1 288 1 is_stmt 0 view .LVU47
 383 0006 08BD     		pop	{r3, pc}
 384              		.cfi_endproc
 385              	.LFE1429:
 387              		.section	.text.HSEM_IRQHandler,"ax",%progbits
 388              		.align	1
 389              		.global	HSEM_IRQHandler
 390              		.syntax unified
 391              		.thumb
 392              		.thumb_func
 394              	HSEM_IRQHandler:
 395              	.LFB1430:
 289:Core/Src/stm32wbxx_it.c **** 
 290:Core/Src/stm32wbxx_it.c **** /**
 291:Core/Src/stm32wbxx_it.c ****   * @brief This function handles HSEM global interrupt.
 292:Core/Src/stm32wbxx_it.c ****   */
 293:Core/Src/stm32wbxx_it.c **** void HSEM_IRQHandler(void)
 294:Core/Src/stm32wbxx_it.c **** {
 396              		.loc 1 294 1 is_stmt 1 view -0
 397              		.cfi_startproc
 398              		@ args = 0, pretend = 0, frame = 0
 399              		@ frame_needed = 0, uses_anonymous_args = 0
 400 0000 08B5     		push	{r3, lr}
 401              		.cfi_def_cfa_offset 8
 402              		.cfi_offset 3, -8
 403              		.cfi_offset 14, -4
 295:Core/Src/stm32wbxx_it.c ****   /* USER CODE BEGIN HSEM_IRQn 0 */
 296:Core/Src/stm32wbxx_it.c **** 
 297:Core/Src/stm32wbxx_it.c ****   /* USER CODE END HSEM_IRQn 0 */
 298:Core/Src/stm32wbxx_it.c ****   HAL_HSEM_IRQHandler();
 404              		.loc 1 298 3 view .LVU49
 405 0002 FFF7FEFF 		bl	HAL_HSEM_IRQHandler
 406              	.LVL8:
 299:Core/Src/stm32wbxx_it.c ****   /* USER CODE BEGIN HSEM_IRQn 1 */
 300:Core/Src/stm32wbxx_it.c **** 
 301:Core/Src/stm32wbxx_it.c ****   /* USER CODE END HSEM_IRQn 1 */
 302:Core/Src/stm32wbxx_it.c **** }
 407              		.loc 1 302 1 is_stmt 0 view .LVU50
 408 0006 08BD     		pop	{r3, pc}
ARM GAS  C:\Users\Nathan\AppData\Local\Temp\cczpN5Za.s 			page 13


 409              		.cfi_endproc
 410              	.LFE1430:
 412              		.section	.text.USB_LP_CAN_RX0_IRQHandler,"ax",%progbits
 413              		.align	1
 414              		.global	USB_LP_CAN_RX0_IRQHandler
 415              		.syntax unified
 416              		.thumb
 417              		.thumb_func
 419              	USB_LP_CAN_RX0_IRQHandler:
 420              	.LFB1431:
 303:Core/Src/stm32wbxx_it.c **** 
 304:Core/Src/stm32wbxx_it.c **** /* USER CODE BEGIN 1 */
 305:Core/Src/stm32wbxx_it.c **** extern PCD_HandleTypeDef hpcd_USB_FS;
 306:Core/Src/stm32wbxx_it.c **** void USB_LP_CAN_RX0_IRQHandler(void){
 421              		.loc 1 306 37 is_stmt 1 view -0
 422              		.cfi_startproc
 423              		@ args = 0, pretend = 0, frame = 0
 424              		@ frame_needed = 0, uses_anonymous_args = 0
 425 0000 08B5     		push	{r3, lr}
 426              		.cfi_def_cfa_offset 8
 427              		.cfi_offset 3, -8
 428              		.cfi_offset 14, -4
 307:Core/Src/stm32wbxx_it.c ****   HAL_PCD_IRQHandler(&hpcd_USB_FS);
 429              		.loc 1 307 3 view .LVU52
 430 0002 0248     		ldr	r0, .L38
 431 0004 FFF7FEFF 		bl	HAL_PCD_IRQHandler
 432              	.LVL9:
 308:Core/Src/stm32wbxx_it.c **** }
 433              		.loc 1 308 1 is_stmt 0 view .LVU53
 434 0008 08BD     		pop	{r3, pc}
 435              	.L39:
 436 000a 00BF     		.align	2
 437              	.L38:
 438 000c 00000000 		.word	hpcd_USB_FS
 439              		.cfi_endproc
 440              	.LFE1431:
 442              		.section	.text.HAL_UART_RxCpltCallback,"ax",%progbits
 443              		.align	1
 444              		.global	HAL_UART_RxCpltCallback
 445              		.syntax unified
 446              		.thumb
 447              		.thumb_func
 449              	HAL_UART_RxCpltCallback:
 450              	.LVL10:
 451              	.LFB1432:
 309:Core/Src/stm32wbxx_it.c **** 
 310:Core/Src/stm32wbxx_it.c **** extern UART_HandleTypeDef huart1;
 311:Core/Src/stm32wbxx_it.c **** extern TIM_HandleTypeDef htim1;
 312:Core/Src/stm32wbxx_it.c **** float gfreq;
 313:Core/Src/stm32wbxx_it.c **** uint8_t huart1_rxbuffer[256];
 314:Core/Src/stm32wbxx_it.c **** void HAL_UART_RxCpltCallback(UART_HandleTypeDef *huart){
 452              		.loc 1 314 56 is_stmt 1 view -0
 453              		.cfi_startproc
 454              		@ args = 0, pretend = 0, frame = 0
 455              		@ frame_needed = 0, uses_anonymous_args = 0
 456              		.loc 1 314 56 is_stmt 0 view .LVU55
 457 0000 38B5     		push	{r3, r4, r5, lr}
ARM GAS  C:\Users\Nathan\AppData\Local\Temp\cczpN5Za.s 			page 14


 458              		.cfi_def_cfa_offset 16
 459              		.cfi_offset 3, -16
 460              		.cfi_offset 4, -12
 461              		.cfi_offset 5, -8
 462              		.cfi_offset 14, -4
 315:Core/Src/stm32wbxx_it.c ****   if(huart->Instance == USART1){
 463              		.loc 1 315 3 is_stmt 1 view .LVU56
 464              		.loc 1 315 11 is_stmt 0 view .LVU57
 465 0002 0268     		ldr	r2, [r0]
 466              		.loc 1 315 5 view .LVU58
 467 0004 084B     		ldr	r3, .L44
 468 0006 9A42     		cmp	r2, r3
 469 0008 00D0     		beq	.L43
 470              	.LVL11:
 471              	.L40:
 316:Core/Src/stm32wbxx_it.c ****     HAL_UART_Transmit(&huart1, (uint8_t *)huart1_rxbuffer, 1, 100);
 317:Core/Src/stm32wbxx_it.c ****     HAL_UART_Receive_IT(&huart1, (uint8_t *)huart1_rxbuffer, 1);
 318:Core/Src/stm32wbxx_it.c ****   }
 319:Core/Src/stm32wbxx_it.c ****   // A switch of possible inputs
 320:Core/Src/stm32wbxx_it.c ****   switch(huart1_rxbuffer[0]){
 321:Core/Src/stm32wbxx_it.c ****     default:
 322:Core/Src/stm32wbxx_it.c ****       break;
 323:Core/Src/stm32wbxx_it.c ****   }
 324:Core/Src/stm32wbxx_it.c **** }
 472              		.loc 1 324 1 view .LVU59
 473 000a 38BD     		pop	{r3, r4, r5, pc}
 474              	.LVL12:
 475              	.L43:
 316:Core/Src/stm32wbxx_it.c ****     HAL_UART_Transmit(&huart1, (uint8_t *)huart1_rxbuffer, 1, 100);
 476              		.loc 1 316 5 is_stmt 1 view .LVU60
 477 000c 074D     		ldr	r5, .L44+4
 478 000e 084C     		ldr	r4, .L44+8
 479 0010 6423     		movs	r3, #100
 480 0012 0122     		movs	r2, #1
 481 0014 2946     		mov	r1, r5
 482 0016 2046     		mov	r0, r4
 483              	.LVL13:
 316:Core/Src/stm32wbxx_it.c ****     HAL_UART_Transmit(&huart1, (uint8_t *)huart1_rxbuffer, 1, 100);
 484              		.loc 1 316 5 is_stmt 0 view .LVU61
 485 0018 FFF7FEFF 		bl	HAL_UART_Transmit
 486              	.LVL14:
 317:Core/Src/stm32wbxx_it.c ****   }
 487              		.loc 1 317 5 is_stmt 1 view .LVU62
 488 001c 0122     		movs	r2, #1
 489 001e 2946     		mov	r1, r5
 490 0020 2046     		mov	r0, r4
 491 0022 FFF7FEFF 		bl	HAL_UART_Receive_IT
 492              	.LVL15:
 320:Core/Src/stm32wbxx_it.c ****     default:
 493              		.loc 1 320 3 view .LVU63
 322:Core/Src/stm32wbxx_it.c ****   }
 494              		.loc 1 322 7 view .LVU64
 495              		.loc 1 324 1 is_stmt 0 view .LVU65
 496 0026 F0E7     		b	.L40
 497              	.L45:
 498              		.align	2
 499              	.L44:
ARM GAS  C:\Users\Nathan\AppData\Local\Temp\cczpN5Za.s 			page 15


 500 0028 00380140 		.word	1073821696
 501 002c 00000000 		.word	huart1_rxbuffer
 502 0030 00000000 		.word	huart1
 503              		.cfi_endproc
 504              	.LFE1432:
 506              		.global	huart1_rxbuffer
 507              		.section	.bss.huart1_rxbuffer,"aw",%nobits
 508              		.align	2
 511              	huart1_rxbuffer:
 512 0000 00000000 		.space	256
 512      00000000 
 512      00000000 
 512      00000000 
 512      00000000 
 513              		.global	gfreq
 514              		.section	.bss.gfreq,"aw",%nobits
 515              		.align	2
 518              	gfreq:
 519 0000 00000000 		.space	4
 520              		.text
 521              	.Letext0:
 522              		.file 2 "C:/PROGRAM FILES (X86)/ARM GNU TOOLCHAIN ARM-NONE-EABI/13.3 REL1/arm-none-eabi/include/ma
 523              		.file 3 "C:/PROGRAM FILES (X86)/ARM GNU TOOLCHAIN ARM-NONE-EABI/13.3 REL1/arm-none-eabi/include/sy
 524              		.file 4 "Drivers/CMSIS/Device/ST/STM32WBxx/Include/stm32wb55xx.h"
 525              		.file 5 "Drivers/STM32WBxx_HAL_Driver/Inc/stm32wbxx_hal_def.h"
 526              		.file 6 "Drivers/STM32WBxx_HAL_Driver/Inc/stm32wbxx_hal_dma.h"
 527              		.file 7 "Drivers/STM32WBxx_HAL_Driver/Inc/stm32wbxx_ll_usb.h"
 528              		.file 8 "Drivers/STM32WBxx_HAL_Driver/Inc/stm32wbxx_hal_pcd.h"
 529              		.file 9 "Drivers/STM32WBxx_HAL_Driver/Inc/stm32wbxx_hal_tim.h"
 530              		.file 10 "Drivers/STM32WBxx_HAL_Driver/Inc/stm32wbxx_hal_uart.h"
 531              		.file 11 "Core/Inc/app_conf.h"
 532              		.file 12 "Drivers/STM32WBxx_HAL_Driver/Inc/stm32wbxx_hal_hsem.h"
 533              		.file 13 "Middlewares/ST/STM32_WPAN/interface/patterns/ble_thread/hw.h"
 534              		.file 14 "Core/Inc/hw_if.h"
 535              		.file 15 "Drivers/STM32WBxx_HAL_Driver/Inc/stm32wbxx_hal.h"
ARM GAS  C:\Users\Nathan\AppData\Local\Temp\cczpN5Za.s 			page 16

