ARM GAS  C:\Users\Nathan\AppData\Local\Temp\ccoptJjL.s 			page 1


   1              		.cpu cortex-m4
   2              		.arch armv7e-m
   3              		.fpu fpv4-sp-d16
   4              		.eabi_attribute 27, 1
   5              		.eabi_attribute 28, 1
   6              		.eabi_attribute 20, 1
   7              		.eabi_attribute 21, 1
   8              		.eabi_attribute 23, 3
   9              		.eabi_attribute 24, 1
  10              		.eabi_attribute 25, 1
  11              		.eabi_attribute 26, 1
  12              		.eabi_attribute 30, 1
  13              		.eabi_attribute 34, 1
  14              		.eabi_attribute 18, 4
  15              		.file	"tl_mbox.c"
  16              		.text
  17              	.Ltext0:
  18              		.cfi_sections	.debug_frame
  19              		.file 1 "Middlewares/ST/STM32_WPAN/interface/patterns/ble_thread/tl/tl_mbox.c"
  20              		.section	.text.SendFreeBuf,"ax",%progbits
  21              		.align	1
  22              		.syntax unified
  23              		.thumb
  24              		.thumb_func
  26              	SendFreeBuf:
  27              	.LFB1428:
   1:Middlewares/ST/STM32_WPAN/interface/patterns/ble_thread/tl/tl_mbox.c **** /**
   2:Middlewares/ST/STM32_WPAN/interface/patterns/ble_thread/tl/tl_mbox.c ****  ******************************************************************************
   3:Middlewares/ST/STM32_WPAN/interface/patterns/ble_thread/tl/tl_mbox.c ****  * @file    tl_mbox.c
   4:Middlewares/ST/STM32_WPAN/interface/patterns/ble_thread/tl/tl_mbox.c ****  * @author  MCD Application Team
   5:Middlewares/ST/STM32_WPAN/interface/patterns/ble_thread/tl/tl_mbox.c ****  * @brief   Transport layer for the mailbox interface
   6:Middlewares/ST/STM32_WPAN/interface/patterns/ble_thread/tl/tl_mbox.c ****  ******************************************************************************
   7:Middlewares/ST/STM32_WPAN/interface/patterns/ble_thread/tl/tl_mbox.c ****  * @attention
   8:Middlewares/ST/STM32_WPAN/interface/patterns/ble_thread/tl/tl_mbox.c ****  *
   9:Middlewares/ST/STM32_WPAN/interface/patterns/ble_thread/tl/tl_mbox.c ****  * Copyright (c) 2018-2021 STMicroelectronics.
  10:Middlewares/ST/STM32_WPAN/interface/patterns/ble_thread/tl/tl_mbox.c ****  * All rights reserved.
  11:Middlewares/ST/STM32_WPAN/interface/patterns/ble_thread/tl/tl_mbox.c ****  *
  12:Middlewares/ST/STM32_WPAN/interface/patterns/ble_thread/tl/tl_mbox.c ****  * This software is licensed under terms that can be found in the LICENSE file
  13:Middlewares/ST/STM32_WPAN/interface/patterns/ble_thread/tl/tl_mbox.c ****  * in the root directory of this software component.
  14:Middlewares/ST/STM32_WPAN/interface/patterns/ble_thread/tl/tl_mbox.c ****  * If no LICENSE file comes with this software, it is provided AS-IS.
  15:Middlewares/ST/STM32_WPAN/interface/patterns/ble_thread/tl/tl_mbox.c ****  *
  16:Middlewares/ST/STM32_WPAN/interface/patterns/ble_thread/tl/tl_mbox.c ****  ******************************************************************************
  17:Middlewares/ST/STM32_WPAN/interface/patterns/ble_thread/tl/tl_mbox.c ****  */
  18:Middlewares/ST/STM32_WPAN/interface/patterns/ble_thread/tl/tl_mbox.c **** 
  19:Middlewares/ST/STM32_WPAN/interface/patterns/ble_thread/tl/tl_mbox.c **** /* Includes ------------------------------------------------------------------*/
  20:Middlewares/ST/STM32_WPAN/interface/patterns/ble_thread/tl/tl_mbox.c **** #include "stm32_wpan_common.h"
  21:Middlewares/ST/STM32_WPAN/interface/patterns/ble_thread/tl/tl_mbox.c **** #include "hw.h"
  22:Middlewares/ST/STM32_WPAN/interface/patterns/ble_thread/tl/tl_mbox.c **** 
  23:Middlewares/ST/STM32_WPAN/interface/patterns/ble_thread/tl/tl_mbox.c **** #include "stm_list.h"
  24:Middlewares/ST/STM32_WPAN/interface/patterns/ble_thread/tl/tl_mbox.c **** #include "tl.h"
  25:Middlewares/ST/STM32_WPAN/interface/patterns/ble_thread/tl/tl_mbox.c **** #include "mbox_def.h"
  26:Middlewares/ST/STM32_WPAN/interface/patterns/ble_thread/tl/tl_mbox.c **** #include "tl_dbg_conf.h"
  27:Middlewares/ST/STM32_WPAN/interface/patterns/ble_thread/tl/tl_mbox.c **** 
  28:Middlewares/ST/STM32_WPAN/interface/patterns/ble_thread/tl/tl_mbox.c **** /* Private typedef -----------------------------------------------------------*/
  29:Middlewares/ST/STM32_WPAN/interface/patterns/ble_thread/tl/tl_mbox.c **** typedef enum
  30:Middlewares/ST/STM32_WPAN/interface/patterns/ble_thread/tl/tl_mbox.c **** {
  31:Middlewares/ST/STM32_WPAN/interface/patterns/ble_thread/tl/tl_mbox.c ****   TL_MB_MM_RELEASE_BUFFER,
ARM GAS  C:\Users\Nathan\AppData\Local\Temp\ccoptJjL.s 			page 2


  32:Middlewares/ST/STM32_WPAN/interface/patterns/ble_thread/tl/tl_mbox.c ****   TL_MB_BLE_CMD,
  33:Middlewares/ST/STM32_WPAN/interface/patterns/ble_thread/tl/tl_mbox.c ****   TL_MB_BLE_CMD_RSP,
  34:Middlewares/ST/STM32_WPAN/interface/patterns/ble_thread/tl/tl_mbox.c ****   TL_MB_BLE_ASYNCH_EVT,
  35:Middlewares/ST/STM32_WPAN/interface/patterns/ble_thread/tl/tl_mbox.c ****   TL_MB_SYS_CMD,
  36:Middlewares/ST/STM32_WPAN/interface/patterns/ble_thread/tl/tl_mbox.c ****   TL_MB_SYS_CMD_RSP,
  37:Middlewares/ST/STM32_WPAN/interface/patterns/ble_thread/tl/tl_mbox.c ****   TL_MB_SYS_ASYNCH_EVT,
  38:Middlewares/ST/STM32_WPAN/interface/patterns/ble_thread/tl/tl_mbox.c **** } TL_MB_PacketType_t;
  39:Middlewares/ST/STM32_WPAN/interface/patterns/ble_thread/tl/tl_mbox.c **** 
  40:Middlewares/ST/STM32_WPAN/interface/patterns/ble_thread/tl/tl_mbox.c **** /* Private defines -----------------------------------------------------------*/
  41:Middlewares/ST/STM32_WPAN/interface/patterns/ble_thread/tl/tl_mbox.c **** /* Private macros ------------------------------------------------------------*/
  42:Middlewares/ST/STM32_WPAN/interface/patterns/ble_thread/tl/tl_mbox.c **** /* Private variables ---------------------------------------------------------*/
  43:Middlewares/ST/STM32_WPAN/interface/patterns/ble_thread/tl/tl_mbox.c **** 
  44:Middlewares/ST/STM32_WPAN/interface/patterns/ble_thread/tl/tl_mbox.c **** /**< reference table */
  45:Middlewares/ST/STM32_WPAN/interface/patterns/ble_thread/tl/tl_mbox.c **** PLACE_IN_SECTION("MAPPING_TABLE") static volatile MB_RefTable_t TL_RefTable;
  46:Middlewares/ST/STM32_WPAN/interface/patterns/ble_thread/tl/tl_mbox.c **** PLACE_IN_SECTION("MB_MEM1") ALIGN(4) static MB_DeviceInfoTable_t TL_DeviceInfoTable;
  47:Middlewares/ST/STM32_WPAN/interface/patterns/ble_thread/tl/tl_mbox.c **** PLACE_IN_SECTION("MB_MEM1") ALIGN(4) static MB_BleTable_t TL_BleTable;
  48:Middlewares/ST/STM32_WPAN/interface/patterns/ble_thread/tl/tl_mbox.c **** PLACE_IN_SECTION("MB_MEM1") ALIGN(4) static MB_ThreadTable_t TL_ThreadTable;
  49:Middlewares/ST/STM32_WPAN/interface/patterns/ble_thread/tl/tl_mbox.c **** PLACE_IN_SECTION("MB_MEM1") ALIGN(4) static MB_LldTestsTable_t TL_LldTestsTable;
  50:Middlewares/ST/STM32_WPAN/interface/patterns/ble_thread/tl/tl_mbox.c **** PLACE_IN_SECTION("MB_MEM1") ALIGN(4) static MB_BleLldTable_t TL_BleLldTable;
  51:Middlewares/ST/STM32_WPAN/interface/patterns/ble_thread/tl/tl_mbox.c **** PLACE_IN_SECTION("MB_MEM1") ALIGN(4) static MB_SysTable_t TL_SysTable;
  52:Middlewares/ST/STM32_WPAN/interface/patterns/ble_thread/tl/tl_mbox.c **** PLACE_IN_SECTION("MB_MEM1") ALIGN(4) static MB_MemManagerTable_t TL_MemManagerTable;
  53:Middlewares/ST/STM32_WPAN/interface/patterns/ble_thread/tl/tl_mbox.c **** PLACE_IN_SECTION("MB_MEM1") ALIGN(4) static MB_TracesTable_t TL_TracesTable;
  54:Middlewares/ST/STM32_WPAN/interface/patterns/ble_thread/tl/tl_mbox.c **** PLACE_IN_SECTION("MB_MEM1") ALIGN(4) static MB_Mac_802_15_4_t TL_Mac_802_15_4_Table;
  55:Middlewares/ST/STM32_WPAN/interface/patterns/ble_thread/tl/tl_mbox.c **** PLACE_IN_SECTION("MB_MEM1") ALIGN(4) static MB_ZigbeeTable_t TL_Zigbee_Table;
  56:Middlewares/ST/STM32_WPAN/interface/patterns/ble_thread/tl/tl_mbox.c **** 
  57:Middlewares/ST/STM32_WPAN/interface/patterns/ble_thread/tl/tl_mbox.c **** /**< tables */
  58:Middlewares/ST/STM32_WPAN/interface/patterns/ble_thread/tl/tl_mbox.c **** PLACE_IN_SECTION("MB_MEM1") ALIGN(4) static tListNode  FreeBufQueue;
  59:Middlewares/ST/STM32_WPAN/interface/patterns/ble_thread/tl/tl_mbox.c **** PLACE_IN_SECTION("MB_MEM1") ALIGN(4) static tListNode  TracesEvtQueue;
  60:Middlewares/ST/STM32_WPAN/interface/patterns/ble_thread/tl/tl_mbox.c **** PLACE_IN_SECTION("MB_MEM2") ALIGN(4) static uint8_t    CsBuffer[sizeof(TL_PacketHeader_t) + TL_EVT_
  61:Middlewares/ST/STM32_WPAN/interface/patterns/ble_thread/tl/tl_mbox.c **** PLACE_IN_SECTION("MB_MEM1") ALIGN(4) static tListNode  EvtQueue;
  62:Middlewares/ST/STM32_WPAN/interface/patterns/ble_thread/tl/tl_mbox.c **** PLACE_IN_SECTION("MB_MEM1") ALIGN(4) static tListNode  SystemEvtQueue;
  63:Middlewares/ST/STM32_WPAN/interface/patterns/ble_thread/tl/tl_mbox.c **** 
  64:Middlewares/ST/STM32_WPAN/interface/patterns/ble_thread/tl/tl_mbox.c **** 
  65:Middlewares/ST/STM32_WPAN/interface/patterns/ble_thread/tl/tl_mbox.c **** static tListNode  LocalFreeBufQueue;
  66:Middlewares/ST/STM32_WPAN/interface/patterns/ble_thread/tl/tl_mbox.c **** static void (* BLE_IoBusEvtCallBackFunction) (TL_EvtPacket_t *phcievt);
  67:Middlewares/ST/STM32_WPAN/interface/patterns/ble_thread/tl/tl_mbox.c **** static void (* BLE_IoBusAclDataTxAck) ( void );
  68:Middlewares/ST/STM32_WPAN/interface/patterns/ble_thread/tl/tl_mbox.c **** static void (* SYS_CMD_IoBusCallBackFunction) (TL_EvtPacket_t *phcievt);
  69:Middlewares/ST/STM32_WPAN/interface/patterns/ble_thread/tl/tl_mbox.c **** static void (* SYS_EVT_IoBusCallBackFunction) (TL_EvtPacket_t *phcievt);
  70:Middlewares/ST/STM32_WPAN/interface/patterns/ble_thread/tl/tl_mbox.c **** 
  71:Middlewares/ST/STM32_WPAN/interface/patterns/ble_thread/tl/tl_mbox.c **** 
  72:Middlewares/ST/STM32_WPAN/interface/patterns/ble_thread/tl/tl_mbox.c **** /* Global variables ----------------------------------------------------------*/
  73:Middlewares/ST/STM32_WPAN/interface/patterns/ble_thread/tl/tl_mbox.c **** /* Private function prototypes -----------------------------------------------*/
  74:Middlewares/ST/STM32_WPAN/interface/patterns/ble_thread/tl/tl_mbox.c **** static void SendFreeBuf( void );
  75:Middlewares/ST/STM32_WPAN/interface/patterns/ble_thread/tl/tl_mbox.c **** static void OutputDbgTrace(TL_MB_PacketType_t packet_type, uint8_t* buffer);
  76:Middlewares/ST/STM32_WPAN/interface/patterns/ble_thread/tl/tl_mbox.c **** 
  77:Middlewares/ST/STM32_WPAN/interface/patterns/ble_thread/tl/tl_mbox.c **** /* Public Functions Definition ------------------------------------------------------*/
  78:Middlewares/ST/STM32_WPAN/interface/patterns/ble_thread/tl/tl_mbox.c **** 
  79:Middlewares/ST/STM32_WPAN/interface/patterns/ble_thread/tl/tl_mbox.c **** /******************************************************************************
  80:Middlewares/ST/STM32_WPAN/interface/patterns/ble_thread/tl/tl_mbox.c ****  * GENERAL - refer to AN5289 for functions description.
  81:Middlewares/ST/STM32_WPAN/interface/patterns/ble_thread/tl/tl_mbox.c ****  ******************************************************************************/
  82:Middlewares/ST/STM32_WPAN/interface/patterns/ble_thread/tl/tl_mbox.c **** void TL_Enable( void )
  83:Middlewares/ST/STM32_WPAN/interface/patterns/ble_thread/tl/tl_mbox.c **** {
  84:Middlewares/ST/STM32_WPAN/interface/patterns/ble_thread/tl/tl_mbox.c ****   HW_IPCC_Enable();
  85:Middlewares/ST/STM32_WPAN/interface/patterns/ble_thread/tl/tl_mbox.c **** 
  86:Middlewares/ST/STM32_WPAN/interface/patterns/ble_thread/tl/tl_mbox.c ****   return;
  87:Middlewares/ST/STM32_WPAN/interface/patterns/ble_thread/tl/tl_mbox.c **** }
  88:Middlewares/ST/STM32_WPAN/interface/patterns/ble_thread/tl/tl_mbox.c **** 
ARM GAS  C:\Users\Nathan\AppData\Local\Temp\ccoptJjL.s 			page 3


  89:Middlewares/ST/STM32_WPAN/interface/patterns/ble_thread/tl/tl_mbox.c **** 
  90:Middlewares/ST/STM32_WPAN/interface/patterns/ble_thread/tl/tl_mbox.c **** void TL_Init( void )
  91:Middlewares/ST/STM32_WPAN/interface/patterns/ble_thread/tl/tl_mbox.c **** {
  92:Middlewares/ST/STM32_WPAN/interface/patterns/ble_thread/tl/tl_mbox.c ****   TL_RefTable.p_device_info_table = &TL_DeviceInfoTable;
  93:Middlewares/ST/STM32_WPAN/interface/patterns/ble_thread/tl/tl_mbox.c ****   TL_RefTable.p_ble_table = &TL_BleTable;
  94:Middlewares/ST/STM32_WPAN/interface/patterns/ble_thread/tl/tl_mbox.c ****   TL_RefTable.p_thread_table = &TL_ThreadTable;
  95:Middlewares/ST/STM32_WPAN/interface/patterns/ble_thread/tl/tl_mbox.c ****   TL_RefTable.p_lld_tests_table = &TL_LldTestsTable;
  96:Middlewares/ST/STM32_WPAN/interface/patterns/ble_thread/tl/tl_mbox.c ****   TL_RefTable.p_ble_lld_table = &TL_BleLldTable;
  97:Middlewares/ST/STM32_WPAN/interface/patterns/ble_thread/tl/tl_mbox.c ****   TL_RefTable.p_sys_table = &TL_SysTable;
  98:Middlewares/ST/STM32_WPAN/interface/patterns/ble_thread/tl/tl_mbox.c ****   TL_RefTable.p_mem_manager_table = &TL_MemManagerTable;
  99:Middlewares/ST/STM32_WPAN/interface/patterns/ble_thread/tl/tl_mbox.c ****   TL_RefTable.p_traces_table = &TL_TracesTable;
 100:Middlewares/ST/STM32_WPAN/interface/patterns/ble_thread/tl/tl_mbox.c ****   TL_RefTable.p_mac_802_15_4_table = &TL_Mac_802_15_4_Table;
 101:Middlewares/ST/STM32_WPAN/interface/patterns/ble_thread/tl/tl_mbox.c ****   TL_RefTable.p_zigbee_table = &TL_Zigbee_Table;
 102:Middlewares/ST/STM32_WPAN/interface/patterns/ble_thread/tl/tl_mbox.c ****   HW_IPCC_Init();
 103:Middlewares/ST/STM32_WPAN/interface/patterns/ble_thread/tl/tl_mbox.c **** 
 104:Middlewares/ST/STM32_WPAN/interface/patterns/ble_thread/tl/tl_mbox.c ****   return;
 105:Middlewares/ST/STM32_WPAN/interface/patterns/ble_thread/tl/tl_mbox.c **** }
 106:Middlewares/ST/STM32_WPAN/interface/patterns/ble_thread/tl/tl_mbox.c **** 
 107:Middlewares/ST/STM32_WPAN/interface/patterns/ble_thread/tl/tl_mbox.c **** /******************************************************************************
 108:Middlewares/ST/STM32_WPAN/interface/patterns/ble_thread/tl/tl_mbox.c ****  * BLE
 109:Middlewares/ST/STM32_WPAN/interface/patterns/ble_thread/tl/tl_mbox.c ****  ******************************************************************************/
 110:Middlewares/ST/STM32_WPAN/interface/patterns/ble_thread/tl/tl_mbox.c **** int32_t TL_BLE_Init( void* pConf )
 111:Middlewares/ST/STM32_WPAN/interface/patterns/ble_thread/tl/tl_mbox.c **** {
 112:Middlewares/ST/STM32_WPAN/interface/patterns/ble_thread/tl/tl_mbox.c ****   MB_BleTable_t  * p_bletable;
 113:Middlewares/ST/STM32_WPAN/interface/patterns/ble_thread/tl/tl_mbox.c **** 
 114:Middlewares/ST/STM32_WPAN/interface/patterns/ble_thread/tl/tl_mbox.c ****   TL_BLE_InitConf_t *pInitHciConf = (TL_BLE_InitConf_t *) pConf;
 115:Middlewares/ST/STM32_WPAN/interface/patterns/ble_thread/tl/tl_mbox.c **** 
 116:Middlewares/ST/STM32_WPAN/interface/patterns/ble_thread/tl/tl_mbox.c ****   LST_init_head (&EvtQueue);
 117:Middlewares/ST/STM32_WPAN/interface/patterns/ble_thread/tl/tl_mbox.c **** 
 118:Middlewares/ST/STM32_WPAN/interface/patterns/ble_thread/tl/tl_mbox.c ****   p_bletable = TL_RefTable.p_ble_table;
 119:Middlewares/ST/STM32_WPAN/interface/patterns/ble_thread/tl/tl_mbox.c **** 
 120:Middlewares/ST/STM32_WPAN/interface/patterns/ble_thread/tl/tl_mbox.c ****   p_bletable->pcmd_buffer = pInitHciConf->p_cmdbuffer;
 121:Middlewares/ST/STM32_WPAN/interface/patterns/ble_thread/tl/tl_mbox.c ****   p_bletable->phci_acl_data_buffer = pInitHciConf->p_AclDataBuffer;
 122:Middlewares/ST/STM32_WPAN/interface/patterns/ble_thread/tl/tl_mbox.c ****   p_bletable->pcs_buffer  = (uint8_t*)CsBuffer;
 123:Middlewares/ST/STM32_WPAN/interface/patterns/ble_thread/tl/tl_mbox.c ****   p_bletable->pevt_queue  = (uint8_t*)&EvtQueue;
 124:Middlewares/ST/STM32_WPAN/interface/patterns/ble_thread/tl/tl_mbox.c **** 
 125:Middlewares/ST/STM32_WPAN/interface/patterns/ble_thread/tl/tl_mbox.c ****   HW_IPCC_BLE_Init();
 126:Middlewares/ST/STM32_WPAN/interface/patterns/ble_thread/tl/tl_mbox.c **** 
 127:Middlewares/ST/STM32_WPAN/interface/patterns/ble_thread/tl/tl_mbox.c ****   BLE_IoBusEvtCallBackFunction = pInitHciConf->IoBusEvtCallBack;
 128:Middlewares/ST/STM32_WPAN/interface/patterns/ble_thread/tl/tl_mbox.c ****   BLE_IoBusAclDataTxAck = pInitHciConf->IoBusAclDataTxAck;
 129:Middlewares/ST/STM32_WPAN/interface/patterns/ble_thread/tl/tl_mbox.c **** 
 130:Middlewares/ST/STM32_WPAN/interface/patterns/ble_thread/tl/tl_mbox.c ****   return 0;
 131:Middlewares/ST/STM32_WPAN/interface/patterns/ble_thread/tl/tl_mbox.c **** }
 132:Middlewares/ST/STM32_WPAN/interface/patterns/ble_thread/tl/tl_mbox.c **** 
 133:Middlewares/ST/STM32_WPAN/interface/patterns/ble_thread/tl/tl_mbox.c **** int32_t TL_BLE_SendCmd( uint8_t* buffer, uint16_t size )
 134:Middlewares/ST/STM32_WPAN/interface/patterns/ble_thread/tl/tl_mbox.c **** {
 135:Middlewares/ST/STM32_WPAN/interface/patterns/ble_thread/tl/tl_mbox.c ****   (void)(buffer);
 136:Middlewares/ST/STM32_WPAN/interface/patterns/ble_thread/tl/tl_mbox.c ****   (void)(size);
 137:Middlewares/ST/STM32_WPAN/interface/patterns/ble_thread/tl/tl_mbox.c **** 
 138:Middlewares/ST/STM32_WPAN/interface/patterns/ble_thread/tl/tl_mbox.c ****   ((TL_CmdPacket_t*)(TL_RefTable.p_ble_table->pcmd_buffer))->cmdserial.type = TL_BLECMD_PKT_TYPE;
 139:Middlewares/ST/STM32_WPAN/interface/patterns/ble_thread/tl/tl_mbox.c **** 
 140:Middlewares/ST/STM32_WPAN/interface/patterns/ble_thread/tl/tl_mbox.c ****   OutputDbgTrace(TL_MB_BLE_CMD, TL_RefTable.p_ble_table->pcmd_buffer);
 141:Middlewares/ST/STM32_WPAN/interface/patterns/ble_thread/tl/tl_mbox.c **** 
 142:Middlewares/ST/STM32_WPAN/interface/patterns/ble_thread/tl/tl_mbox.c ****   HW_IPCC_BLE_SendCmd();
 143:Middlewares/ST/STM32_WPAN/interface/patterns/ble_thread/tl/tl_mbox.c **** 
 144:Middlewares/ST/STM32_WPAN/interface/patterns/ble_thread/tl/tl_mbox.c ****   return 0;
 145:Middlewares/ST/STM32_WPAN/interface/patterns/ble_thread/tl/tl_mbox.c **** }
ARM GAS  C:\Users\Nathan\AppData\Local\Temp\ccoptJjL.s 			page 4


 146:Middlewares/ST/STM32_WPAN/interface/patterns/ble_thread/tl/tl_mbox.c **** 
 147:Middlewares/ST/STM32_WPAN/interface/patterns/ble_thread/tl/tl_mbox.c **** void HW_IPCC_BLE_RxEvtNot(void)
 148:Middlewares/ST/STM32_WPAN/interface/patterns/ble_thread/tl/tl_mbox.c **** {
 149:Middlewares/ST/STM32_WPAN/interface/patterns/ble_thread/tl/tl_mbox.c ****   TL_EvtPacket_t *phcievt;
 150:Middlewares/ST/STM32_WPAN/interface/patterns/ble_thread/tl/tl_mbox.c **** 
 151:Middlewares/ST/STM32_WPAN/interface/patterns/ble_thread/tl/tl_mbox.c ****   while(LST_is_empty(&EvtQueue) == FALSE)
 152:Middlewares/ST/STM32_WPAN/interface/patterns/ble_thread/tl/tl_mbox.c ****   {
 153:Middlewares/ST/STM32_WPAN/interface/patterns/ble_thread/tl/tl_mbox.c ****     LST_remove_head (&EvtQueue, (tListNode **)&phcievt);
 154:Middlewares/ST/STM32_WPAN/interface/patterns/ble_thread/tl/tl_mbox.c **** 
 155:Middlewares/ST/STM32_WPAN/interface/patterns/ble_thread/tl/tl_mbox.c ****     if ( ((phcievt->evtserial.evt.evtcode) == TL_BLEEVT_CS_OPCODE) || ((phcievt->evtserial.evt.evtc
 156:Middlewares/ST/STM32_WPAN/interface/patterns/ble_thread/tl/tl_mbox.c ****     {
 157:Middlewares/ST/STM32_WPAN/interface/patterns/ble_thread/tl/tl_mbox.c ****       OutputDbgTrace(TL_MB_BLE_CMD_RSP, (uint8_t*)phcievt);
 158:Middlewares/ST/STM32_WPAN/interface/patterns/ble_thread/tl/tl_mbox.c ****     }
 159:Middlewares/ST/STM32_WPAN/interface/patterns/ble_thread/tl/tl_mbox.c ****     else
 160:Middlewares/ST/STM32_WPAN/interface/patterns/ble_thread/tl/tl_mbox.c ****     {
 161:Middlewares/ST/STM32_WPAN/interface/patterns/ble_thread/tl/tl_mbox.c ****       OutputDbgTrace(TL_MB_BLE_ASYNCH_EVT, (uint8_t*)phcievt);
 162:Middlewares/ST/STM32_WPAN/interface/patterns/ble_thread/tl/tl_mbox.c ****     }
 163:Middlewares/ST/STM32_WPAN/interface/patterns/ble_thread/tl/tl_mbox.c **** 
 164:Middlewares/ST/STM32_WPAN/interface/patterns/ble_thread/tl/tl_mbox.c ****     BLE_IoBusEvtCallBackFunction(phcievt);
 165:Middlewares/ST/STM32_WPAN/interface/patterns/ble_thread/tl/tl_mbox.c ****   }
 166:Middlewares/ST/STM32_WPAN/interface/patterns/ble_thread/tl/tl_mbox.c **** 
 167:Middlewares/ST/STM32_WPAN/interface/patterns/ble_thread/tl/tl_mbox.c ****   return;
 168:Middlewares/ST/STM32_WPAN/interface/patterns/ble_thread/tl/tl_mbox.c **** }
 169:Middlewares/ST/STM32_WPAN/interface/patterns/ble_thread/tl/tl_mbox.c **** 
 170:Middlewares/ST/STM32_WPAN/interface/patterns/ble_thread/tl/tl_mbox.c **** int32_t TL_BLE_SendAclData( uint8_t* buffer, uint16_t size )
 171:Middlewares/ST/STM32_WPAN/interface/patterns/ble_thread/tl/tl_mbox.c **** {
 172:Middlewares/ST/STM32_WPAN/interface/patterns/ble_thread/tl/tl_mbox.c ****   (void)(buffer);
 173:Middlewares/ST/STM32_WPAN/interface/patterns/ble_thread/tl/tl_mbox.c ****   (void)(size);
 174:Middlewares/ST/STM32_WPAN/interface/patterns/ble_thread/tl/tl_mbox.c **** 
 175:Middlewares/ST/STM32_WPAN/interface/patterns/ble_thread/tl/tl_mbox.c ****   ((TL_AclDataPacket_t *)(TL_RefTable.p_ble_table->phci_acl_data_buffer))->AclDataSerial.type = TL_
 176:Middlewares/ST/STM32_WPAN/interface/patterns/ble_thread/tl/tl_mbox.c **** 
 177:Middlewares/ST/STM32_WPAN/interface/patterns/ble_thread/tl/tl_mbox.c ****   HW_IPCC_BLE_SendAclData();
 178:Middlewares/ST/STM32_WPAN/interface/patterns/ble_thread/tl/tl_mbox.c **** 
 179:Middlewares/ST/STM32_WPAN/interface/patterns/ble_thread/tl/tl_mbox.c ****   return 0;
 180:Middlewares/ST/STM32_WPAN/interface/patterns/ble_thread/tl/tl_mbox.c **** }
 181:Middlewares/ST/STM32_WPAN/interface/patterns/ble_thread/tl/tl_mbox.c **** 
 182:Middlewares/ST/STM32_WPAN/interface/patterns/ble_thread/tl/tl_mbox.c **** void HW_IPCC_BLE_AclDataAckNot(void)
 183:Middlewares/ST/STM32_WPAN/interface/patterns/ble_thread/tl/tl_mbox.c **** {
 184:Middlewares/ST/STM32_WPAN/interface/patterns/ble_thread/tl/tl_mbox.c ****   BLE_IoBusAclDataTxAck( );
 185:Middlewares/ST/STM32_WPAN/interface/patterns/ble_thread/tl/tl_mbox.c **** 
 186:Middlewares/ST/STM32_WPAN/interface/patterns/ble_thread/tl/tl_mbox.c ****   return;
 187:Middlewares/ST/STM32_WPAN/interface/patterns/ble_thread/tl/tl_mbox.c **** }
 188:Middlewares/ST/STM32_WPAN/interface/patterns/ble_thread/tl/tl_mbox.c **** 
 189:Middlewares/ST/STM32_WPAN/interface/patterns/ble_thread/tl/tl_mbox.c **** /******************************************************************************
 190:Middlewares/ST/STM32_WPAN/interface/patterns/ble_thread/tl/tl_mbox.c ****  * SYSTEM
 191:Middlewares/ST/STM32_WPAN/interface/patterns/ble_thread/tl/tl_mbox.c ****  ******************************************************************************/
 192:Middlewares/ST/STM32_WPAN/interface/patterns/ble_thread/tl/tl_mbox.c **** int32_t TL_SYS_Init( void* pConf  )
 193:Middlewares/ST/STM32_WPAN/interface/patterns/ble_thread/tl/tl_mbox.c **** {
 194:Middlewares/ST/STM32_WPAN/interface/patterns/ble_thread/tl/tl_mbox.c ****   MB_SysTable_t  * p_systable;
 195:Middlewares/ST/STM32_WPAN/interface/patterns/ble_thread/tl/tl_mbox.c **** 
 196:Middlewares/ST/STM32_WPAN/interface/patterns/ble_thread/tl/tl_mbox.c ****   TL_SYS_InitConf_t *pInitHciConf = (TL_SYS_InitConf_t *) pConf;
 197:Middlewares/ST/STM32_WPAN/interface/patterns/ble_thread/tl/tl_mbox.c **** 
 198:Middlewares/ST/STM32_WPAN/interface/patterns/ble_thread/tl/tl_mbox.c ****   LST_init_head (&SystemEvtQueue);
 199:Middlewares/ST/STM32_WPAN/interface/patterns/ble_thread/tl/tl_mbox.c ****   p_systable = TL_RefTable.p_sys_table;
 200:Middlewares/ST/STM32_WPAN/interface/patterns/ble_thread/tl/tl_mbox.c ****   p_systable->pcmd_buffer = pInitHciConf->p_cmdbuffer;
 201:Middlewares/ST/STM32_WPAN/interface/patterns/ble_thread/tl/tl_mbox.c ****   p_systable->sys_queue = (uint8_t*)&SystemEvtQueue;
 202:Middlewares/ST/STM32_WPAN/interface/patterns/ble_thread/tl/tl_mbox.c **** 
ARM GAS  C:\Users\Nathan\AppData\Local\Temp\ccoptJjL.s 			page 5


 203:Middlewares/ST/STM32_WPAN/interface/patterns/ble_thread/tl/tl_mbox.c ****   HW_IPCC_SYS_Init();
 204:Middlewares/ST/STM32_WPAN/interface/patterns/ble_thread/tl/tl_mbox.c **** 
 205:Middlewares/ST/STM32_WPAN/interface/patterns/ble_thread/tl/tl_mbox.c ****   SYS_CMD_IoBusCallBackFunction = pInitHciConf->IoBusCallBackCmdEvt;
 206:Middlewares/ST/STM32_WPAN/interface/patterns/ble_thread/tl/tl_mbox.c ****   SYS_EVT_IoBusCallBackFunction = pInitHciConf->IoBusCallBackUserEvt;
 207:Middlewares/ST/STM32_WPAN/interface/patterns/ble_thread/tl/tl_mbox.c **** 
 208:Middlewares/ST/STM32_WPAN/interface/patterns/ble_thread/tl/tl_mbox.c ****   return 0;
 209:Middlewares/ST/STM32_WPAN/interface/patterns/ble_thread/tl/tl_mbox.c **** }
 210:Middlewares/ST/STM32_WPAN/interface/patterns/ble_thread/tl/tl_mbox.c **** 
 211:Middlewares/ST/STM32_WPAN/interface/patterns/ble_thread/tl/tl_mbox.c **** int32_t TL_SYS_SendCmd( uint8_t* buffer, uint16_t size )
 212:Middlewares/ST/STM32_WPAN/interface/patterns/ble_thread/tl/tl_mbox.c **** {
 213:Middlewares/ST/STM32_WPAN/interface/patterns/ble_thread/tl/tl_mbox.c ****   (void)(buffer);
 214:Middlewares/ST/STM32_WPAN/interface/patterns/ble_thread/tl/tl_mbox.c ****   (void)(size);
 215:Middlewares/ST/STM32_WPAN/interface/patterns/ble_thread/tl/tl_mbox.c **** 
 216:Middlewares/ST/STM32_WPAN/interface/patterns/ble_thread/tl/tl_mbox.c ****   ((TL_CmdPacket_t *)(TL_RefTable.p_sys_table->pcmd_buffer))->cmdserial.type = TL_SYSCMD_PKT_TYPE;
 217:Middlewares/ST/STM32_WPAN/interface/patterns/ble_thread/tl/tl_mbox.c **** 
 218:Middlewares/ST/STM32_WPAN/interface/patterns/ble_thread/tl/tl_mbox.c ****   OutputDbgTrace(TL_MB_SYS_CMD, TL_RefTable.p_sys_table->pcmd_buffer);
 219:Middlewares/ST/STM32_WPAN/interface/patterns/ble_thread/tl/tl_mbox.c **** 
 220:Middlewares/ST/STM32_WPAN/interface/patterns/ble_thread/tl/tl_mbox.c ****   HW_IPCC_SYS_SendCmd();
 221:Middlewares/ST/STM32_WPAN/interface/patterns/ble_thread/tl/tl_mbox.c **** 
 222:Middlewares/ST/STM32_WPAN/interface/patterns/ble_thread/tl/tl_mbox.c ****   return 0;
 223:Middlewares/ST/STM32_WPAN/interface/patterns/ble_thread/tl/tl_mbox.c **** }
 224:Middlewares/ST/STM32_WPAN/interface/patterns/ble_thread/tl/tl_mbox.c **** 
 225:Middlewares/ST/STM32_WPAN/interface/patterns/ble_thread/tl/tl_mbox.c **** void HW_IPCC_SYS_CmdEvtNot(void)
 226:Middlewares/ST/STM32_WPAN/interface/patterns/ble_thread/tl/tl_mbox.c **** {
 227:Middlewares/ST/STM32_WPAN/interface/patterns/ble_thread/tl/tl_mbox.c ****   OutputDbgTrace(TL_MB_SYS_CMD_RSP, (uint8_t*)(TL_RefTable.p_sys_table->pcmd_buffer) );
 228:Middlewares/ST/STM32_WPAN/interface/patterns/ble_thread/tl/tl_mbox.c **** 
 229:Middlewares/ST/STM32_WPAN/interface/patterns/ble_thread/tl/tl_mbox.c ****   SYS_CMD_IoBusCallBackFunction( (TL_EvtPacket_t*)(TL_RefTable.p_sys_table->pcmd_buffer) );
 230:Middlewares/ST/STM32_WPAN/interface/patterns/ble_thread/tl/tl_mbox.c **** 
 231:Middlewares/ST/STM32_WPAN/interface/patterns/ble_thread/tl/tl_mbox.c ****   return;
 232:Middlewares/ST/STM32_WPAN/interface/patterns/ble_thread/tl/tl_mbox.c **** }
 233:Middlewares/ST/STM32_WPAN/interface/patterns/ble_thread/tl/tl_mbox.c **** 
 234:Middlewares/ST/STM32_WPAN/interface/patterns/ble_thread/tl/tl_mbox.c **** void HW_IPCC_SYS_EvtNot( void )
 235:Middlewares/ST/STM32_WPAN/interface/patterns/ble_thread/tl/tl_mbox.c **** {
 236:Middlewares/ST/STM32_WPAN/interface/patterns/ble_thread/tl/tl_mbox.c ****   TL_EvtPacket_t *p_evt;
 237:Middlewares/ST/STM32_WPAN/interface/patterns/ble_thread/tl/tl_mbox.c **** 
 238:Middlewares/ST/STM32_WPAN/interface/patterns/ble_thread/tl/tl_mbox.c ****   while(LST_is_empty(&SystemEvtQueue) == FALSE)
 239:Middlewares/ST/STM32_WPAN/interface/patterns/ble_thread/tl/tl_mbox.c ****   {
 240:Middlewares/ST/STM32_WPAN/interface/patterns/ble_thread/tl/tl_mbox.c ****     LST_remove_head (&SystemEvtQueue, (tListNode **)&p_evt);
 241:Middlewares/ST/STM32_WPAN/interface/patterns/ble_thread/tl/tl_mbox.c **** 
 242:Middlewares/ST/STM32_WPAN/interface/patterns/ble_thread/tl/tl_mbox.c ****     OutputDbgTrace(TL_MB_SYS_ASYNCH_EVT, (uint8_t*)p_evt );
 243:Middlewares/ST/STM32_WPAN/interface/patterns/ble_thread/tl/tl_mbox.c **** 
 244:Middlewares/ST/STM32_WPAN/interface/patterns/ble_thread/tl/tl_mbox.c ****     SYS_EVT_IoBusCallBackFunction( p_evt );
 245:Middlewares/ST/STM32_WPAN/interface/patterns/ble_thread/tl/tl_mbox.c ****   }
 246:Middlewares/ST/STM32_WPAN/interface/patterns/ble_thread/tl/tl_mbox.c **** 
 247:Middlewares/ST/STM32_WPAN/interface/patterns/ble_thread/tl/tl_mbox.c ****   return;
 248:Middlewares/ST/STM32_WPAN/interface/patterns/ble_thread/tl/tl_mbox.c **** }
 249:Middlewares/ST/STM32_WPAN/interface/patterns/ble_thread/tl/tl_mbox.c **** 
 250:Middlewares/ST/STM32_WPAN/interface/patterns/ble_thread/tl/tl_mbox.c **** /******************************************************************************
 251:Middlewares/ST/STM32_WPAN/interface/patterns/ble_thread/tl/tl_mbox.c ****  * THREAD
 252:Middlewares/ST/STM32_WPAN/interface/patterns/ble_thread/tl/tl_mbox.c ****  ******************************************************************************/
 253:Middlewares/ST/STM32_WPAN/interface/patterns/ble_thread/tl/tl_mbox.c **** #ifdef THREAD_WB
 254:Middlewares/ST/STM32_WPAN/interface/patterns/ble_thread/tl/tl_mbox.c **** void TL_THREAD_Init( TL_TH_Config_t *p_Config )
 255:Middlewares/ST/STM32_WPAN/interface/patterns/ble_thread/tl/tl_mbox.c **** {
 256:Middlewares/ST/STM32_WPAN/interface/patterns/ble_thread/tl/tl_mbox.c ****   MB_ThreadTable_t  * p_thread_table;
 257:Middlewares/ST/STM32_WPAN/interface/patterns/ble_thread/tl/tl_mbox.c **** 
 258:Middlewares/ST/STM32_WPAN/interface/patterns/ble_thread/tl/tl_mbox.c ****   p_thread_table = TL_RefTable.p_thread_table;
 259:Middlewares/ST/STM32_WPAN/interface/patterns/ble_thread/tl/tl_mbox.c **** 
ARM GAS  C:\Users\Nathan\AppData\Local\Temp\ccoptJjL.s 			page 6


 260:Middlewares/ST/STM32_WPAN/interface/patterns/ble_thread/tl/tl_mbox.c ****   p_thread_table->clicmdrsp_buffer = p_Config->p_ThreadCliRspBuffer;
 261:Middlewares/ST/STM32_WPAN/interface/patterns/ble_thread/tl/tl_mbox.c ****   p_thread_table->otcmdrsp_buffer = p_Config->p_ThreadOtCmdRspBuffer;
 262:Middlewares/ST/STM32_WPAN/interface/patterns/ble_thread/tl/tl_mbox.c ****   p_thread_table->notack_buffer = p_Config->p_ThreadNotAckBuffer;
 263:Middlewares/ST/STM32_WPAN/interface/patterns/ble_thread/tl/tl_mbox.c ****   p_thread_table->clinot_buffer = p_Config->p_ThreadCliNotBuffer;
 264:Middlewares/ST/STM32_WPAN/interface/patterns/ble_thread/tl/tl_mbox.c **** 
 265:Middlewares/ST/STM32_WPAN/interface/patterns/ble_thread/tl/tl_mbox.c ****   HW_IPCC_THREAD_Init();
 266:Middlewares/ST/STM32_WPAN/interface/patterns/ble_thread/tl/tl_mbox.c **** 
 267:Middlewares/ST/STM32_WPAN/interface/patterns/ble_thread/tl/tl_mbox.c ****   return;
 268:Middlewares/ST/STM32_WPAN/interface/patterns/ble_thread/tl/tl_mbox.c **** }
 269:Middlewares/ST/STM32_WPAN/interface/patterns/ble_thread/tl/tl_mbox.c **** 
 270:Middlewares/ST/STM32_WPAN/interface/patterns/ble_thread/tl/tl_mbox.c **** void TL_OT_SendCmd( void )
 271:Middlewares/ST/STM32_WPAN/interface/patterns/ble_thread/tl/tl_mbox.c **** {
 272:Middlewares/ST/STM32_WPAN/interface/patterns/ble_thread/tl/tl_mbox.c ****   ((TL_CmdPacket_t *)(TL_RefTable.p_thread_table->otcmdrsp_buffer))->cmdserial.type = TL_OTCMD_PKT_
 273:Middlewares/ST/STM32_WPAN/interface/patterns/ble_thread/tl/tl_mbox.c **** 
 274:Middlewares/ST/STM32_WPAN/interface/patterns/ble_thread/tl/tl_mbox.c ****   HW_IPCC_OT_SendCmd();
 275:Middlewares/ST/STM32_WPAN/interface/patterns/ble_thread/tl/tl_mbox.c **** 
 276:Middlewares/ST/STM32_WPAN/interface/patterns/ble_thread/tl/tl_mbox.c ****   return;
 277:Middlewares/ST/STM32_WPAN/interface/patterns/ble_thread/tl/tl_mbox.c **** }
 278:Middlewares/ST/STM32_WPAN/interface/patterns/ble_thread/tl/tl_mbox.c **** 
 279:Middlewares/ST/STM32_WPAN/interface/patterns/ble_thread/tl/tl_mbox.c **** void TL_CLI_SendCmd( void )
 280:Middlewares/ST/STM32_WPAN/interface/patterns/ble_thread/tl/tl_mbox.c **** {
 281:Middlewares/ST/STM32_WPAN/interface/patterns/ble_thread/tl/tl_mbox.c ****   ((TL_CmdPacket_t *)(TL_RefTable.p_thread_table->clicmdrsp_buffer))->cmdserial.type = TL_CLICMD_PK
 282:Middlewares/ST/STM32_WPAN/interface/patterns/ble_thread/tl/tl_mbox.c **** 
 283:Middlewares/ST/STM32_WPAN/interface/patterns/ble_thread/tl/tl_mbox.c ****   HW_IPCC_CLI_SendCmd();
 284:Middlewares/ST/STM32_WPAN/interface/patterns/ble_thread/tl/tl_mbox.c **** 
 285:Middlewares/ST/STM32_WPAN/interface/patterns/ble_thread/tl/tl_mbox.c ****   return;
 286:Middlewares/ST/STM32_WPAN/interface/patterns/ble_thread/tl/tl_mbox.c **** }
 287:Middlewares/ST/STM32_WPAN/interface/patterns/ble_thread/tl/tl_mbox.c **** 
 288:Middlewares/ST/STM32_WPAN/interface/patterns/ble_thread/tl/tl_mbox.c **** void TL_THREAD_SendAck ( void )
 289:Middlewares/ST/STM32_WPAN/interface/patterns/ble_thread/tl/tl_mbox.c **** {
 290:Middlewares/ST/STM32_WPAN/interface/patterns/ble_thread/tl/tl_mbox.c ****   ((TL_CmdPacket_t *)(TL_RefTable.p_thread_table->notack_buffer))->cmdserial.type = TL_OTACK_PKT_TY
 291:Middlewares/ST/STM32_WPAN/interface/patterns/ble_thread/tl/tl_mbox.c **** 
 292:Middlewares/ST/STM32_WPAN/interface/patterns/ble_thread/tl/tl_mbox.c ****   HW_IPCC_THREAD_SendAck();
 293:Middlewares/ST/STM32_WPAN/interface/patterns/ble_thread/tl/tl_mbox.c **** 
 294:Middlewares/ST/STM32_WPAN/interface/patterns/ble_thread/tl/tl_mbox.c ****   return;
 295:Middlewares/ST/STM32_WPAN/interface/patterns/ble_thread/tl/tl_mbox.c **** }
 296:Middlewares/ST/STM32_WPAN/interface/patterns/ble_thread/tl/tl_mbox.c **** 
 297:Middlewares/ST/STM32_WPAN/interface/patterns/ble_thread/tl/tl_mbox.c **** void TL_THREAD_CliSendAck ( void )
 298:Middlewares/ST/STM32_WPAN/interface/patterns/ble_thread/tl/tl_mbox.c **** {
 299:Middlewares/ST/STM32_WPAN/interface/patterns/ble_thread/tl/tl_mbox.c ****   ((TL_CmdPacket_t *)(TL_RefTable.p_thread_table->notack_buffer))->cmdserial.type = TL_OTACK_PKT_TY
 300:Middlewares/ST/STM32_WPAN/interface/patterns/ble_thread/tl/tl_mbox.c **** 
 301:Middlewares/ST/STM32_WPAN/interface/patterns/ble_thread/tl/tl_mbox.c ****   HW_IPCC_THREAD_CliSendAck();
 302:Middlewares/ST/STM32_WPAN/interface/patterns/ble_thread/tl/tl_mbox.c **** 
 303:Middlewares/ST/STM32_WPAN/interface/patterns/ble_thread/tl/tl_mbox.c ****   return;
 304:Middlewares/ST/STM32_WPAN/interface/patterns/ble_thread/tl/tl_mbox.c **** }
 305:Middlewares/ST/STM32_WPAN/interface/patterns/ble_thread/tl/tl_mbox.c **** 
 306:Middlewares/ST/STM32_WPAN/interface/patterns/ble_thread/tl/tl_mbox.c **** void HW_IPCC_OT_CmdEvtNot(void)
 307:Middlewares/ST/STM32_WPAN/interface/patterns/ble_thread/tl/tl_mbox.c **** {
 308:Middlewares/ST/STM32_WPAN/interface/patterns/ble_thread/tl/tl_mbox.c ****   TL_OT_CmdEvtReceived( (TL_EvtPacket_t*)(TL_RefTable.p_thread_table->otcmdrsp_buffer) );
 309:Middlewares/ST/STM32_WPAN/interface/patterns/ble_thread/tl/tl_mbox.c **** 
 310:Middlewares/ST/STM32_WPAN/interface/patterns/ble_thread/tl/tl_mbox.c ****   return;
 311:Middlewares/ST/STM32_WPAN/interface/patterns/ble_thread/tl/tl_mbox.c **** }
 312:Middlewares/ST/STM32_WPAN/interface/patterns/ble_thread/tl/tl_mbox.c **** 
 313:Middlewares/ST/STM32_WPAN/interface/patterns/ble_thread/tl/tl_mbox.c **** void HW_IPCC_THREAD_EvtNot( void )
 314:Middlewares/ST/STM32_WPAN/interface/patterns/ble_thread/tl/tl_mbox.c **** {
 315:Middlewares/ST/STM32_WPAN/interface/patterns/ble_thread/tl/tl_mbox.c ****   TL_THREAD_NotReceived( (TL_EvtPacket_t*)(TL_RefTable.p_thread_table->notack_buffer) );
 316:Middlewares/ST/STM32_WPAN/interface/patterns/ble_thread/tl/tl_mbox.c **** 
ARM GAS  C:\Users\Nathan\AppData\Local\Temp\ccoptJjL.s 			page 7


 317:Middlewares/ST/STM32_WPAN/interface/patterns/ble_thread/tl/tl_mbox.c ****   return;
 318:Middlewares/ST/STM32_WPAN/interface/patterns/ble_thread/tl/tl_mbox.c **** }
 319:Middlewares/ST/STM32_WPAN/interface/patterns/ble_thread/tl/tl_mbox.c **** 
 320:Middlewares/ST/STM32_WPAN/interface/patterns/ble_thread/tl/tl_mbox.c **** void HW_IPCC_THREAD_CliEvtNot( void )
 321:Middlewares/ST/STM32_WPAN/interface/patterns/ble_thread/tl/tl_mbox.c **** {
 322:Middlewares/ST/STM32_WPAN/interface/patterns/ble_thread/tl/tl_mbox.c ****   TL_THREAD_CliNotReceived( (TL_EvtPacket_t*)(TL_RefTable.p_thread_table->clinot_buffer) );
 323:Middlewares/ST/STM32_WPAN/interface/patterns/ble_thread/tl/tl_mbox.c **** 
 324:Middlewares/ST/STM32_WPAN/interface/patterns/ble_thread/tl/tl_mbox.c ****   return;
 325:Middlewares/ST/STM32_WPAN/interface/patterns/ble_thread/tl/tl_mbox.c **** }
 326:Middlewares/ST/STM32_WPAN/interface/patterns/ble_thread/tl/tl_mbox.c **** 
 327:Middlewares/ST/STM32_WPAN/interface/patterns/ble_thread/tl/tl_mbox.c **** __WEAK void TL_OT_CmdEvtReceived( TL_EvtPacket_t * Otbuffer  ){};
 328:Middlewares/ST/STM32_WPAN/interface/patterns/ble_thread/tl/tl_mbox.c **** __WEAK void TL_THREAD_NotReceived( TL_EvtPacket_t * Notbuffer ){};
 329:Middlewares/ST/STM32_WPAN/interface/patterns/ble_thread/tl/tl_mbox.c **** __WEAK void TL_THREAD_CliNotReceived( TL_EvtPacket_t * Notbuffer ){};
 330:Middlewares/ST/STM32_WPAN/interface/patterns/ble_thread/tl/tl_mbox.c **** 
 331:Middlewares/ST/STM32_WPAN/interface/patterns/ble_thread/tl/tl_mbox.c **** #endif /* THREAD_WB */
 332:Middlewares/ST/STM32_WPAN/interface/patterns/ble_thread/tl/tl_mbox.c **** 
 333:Middlewares/ST/STM32_WPAN/interface/patterns/ble_thread/tl/tl_mbox.c **** /******************************************************************************
 334:Middlewares/ST/STM32_WPAN/interface/patterns/ble_thread/tl/tl_mbox.c ****  * LLD TESTS
 335:Middlewares/ST/STM32_WPAN/interface/patterns/ble_thread/tl/tl_mbox.c ****  ******************************************************************************/
 336:Middlewares/ST/STM32_WPAN/interface/patterns/ble_thread/tl/tl_mbox.c **** #ifdef LLD_TESTS_WB
 337:Middlewares/ST/STM32_WPAN/interface/patterns/ble_thread/tl/tl_mbox.c **** void TL_LLDTESTS_Init( TL_LLD_tests_Config_t *p_Config )
 338:Middlewares/ST/STM32_WPAN/interface/patterns/ble_thread/tl/tl_mbox.c **** {
 339:Middlewares/ST/STM32_WPAN/interface/patterns/ble_thread/tl/tl_mbox.c ****   MB_LldTestsTable_t  * p_lld_tests_table;
 340:Middlewares/ST/STM32_WPAN/interface/patterns/ble_thread/tl/tl_mbox.c **** 
 341:Middlewares/ST/STM32_WPAN/interface/patterns/ble_thread/tl/tl_mbox.c ****   p_lld_tests_table = TL_RefTable.p_lld_tests_table;
 342:Middlewares/ST/STM32_WPAN/interface/patterns/ble_thread/tl/tl_mbox.c ****   p_lld_tests_table->clicmdrsp_buffer = p_Config->p_LldTestsCliCmdRspBuffer;
 343:Middlewares/ST/STM32_WPAN/interface/patterns/ble_thread/tl/tl_mbox.c ****   p_lld_tests_table->m0cmd_buffer = p_Config->p_LldTestsM0CmdBuffer;
 344:Middlewares/ST/STM32_WPAN/interface/patterns/ble_thread/tl/tl_mbox.c ****   HW_IPCC_LLDTESTS_Init();
 345:Middlewares/ST/STM32_WPAN/interface/patterns/ble_thread/tl/tl_mbox.c ****   return;
 346:Middlewares/ST/STM32_WPAN/interface/patterns/ble_thread/tl/tl_mbox.c **** }
 347:Middlewares/ST/STM32_WPAN/interface/patterns/ble_thread/tl/tl_mbox.c **** 
 348:Middlewares/ST/STM32_WPAN/interface/patterns/ble_thread/tl/tl_mbox.c **** void TL_LLDTESTS_SendCliCmd( void )
 349:Middlewares/ST/STM32_WPAN/interface/patterns/ble_thread/tl/tl_mbox.c **** {
 350:Middlewares/ST/STM32_WPAN/interface/patterns/ble_thread/tl/tl_mbox.c ****   ((TL_CmdPacket_t *)(TL_RefTable.p_lld_tests_table->clicmdrsp_buffer))->cmdserial.type = TL_CLICMD
 351:Middlewares/ST/STM32_WPAN/interface/patterns/ble_thread/tl/tl_mbox.c ****   HW_IPCC_LLDTESTS_SendCliCmd();
 352:Middlewares/ST/STM32_WPAN/interface/patterns/ble_thread/tl/tl_mbox.c ****   return;
 353:Middlewares/ST/STM32_WPAN/interface/patterns/ble_thread/tl/tl_mbox.c **** }
 354:Middlewares/ST/STM32_WPAN/interface/patterns/ble_thread/tl/tl_mbox.c **** 
 355:Middlewares/ST/STM32_WPAN/interface/patterns/ble_thread/tl/tl_mbox.c **** void HW_IPCC_LLDTESTS_ReceiveCliRsp( void )
 356:Middlewares/ST/STM32_WPAN/interface/patterns/ble_thread/tl/tl_mbox.c **** {
 357:Middlewares/ST/STM32_WPAN/interface/patterns/ble_thread/tl/tl_mbox.c ****   TL_LLDTESTS_ReceiveCliRsp( (TL_CmdPacket_t*)(TL_RefTable.p_lld_tests_table->clicmdrsp_buffer) );
 358:Middlewares/ST/STM32_WPAN/interface/patterns/ble_thread/tl/tl_mbox.c ****   return;
 359:Middlewares/ST/STM32_WPAN/interface/patterns/ble_thread/tl/tl_mbox.c **** }
 360:Middlewares/ST/STM32_WPAN/interface/patterns/ble_thread/tl/tl_mbox.c **** 
 361:Middlewares/ST/STM32_WPAN/interface/patterns/ble_thread/tl/tl_mbox.c **** void TL_LLDTESTS_SendCliRspAck( void )
 362:Middlewares/ST/STM32_WPAN/interface/patterns/ble_thread/tl/tl_mbox.c **** {
 363:Middlewares/ST/STM32_WPAN/interface/patterns/ble_thread/tl/tl_mbox.c ****   HW_IPCC_LLDTESTS_SendCliRspAck();
 364:Middlewares/ST/STM32_WPAN/interface/patterns/ble_thread/tl/tl_mbox.c ****   return;
 365:Middlewares/ST/STM32_WPAN/interface/patterns/ble_thread/tl/tl_mbox.c **** }
 366:Middlewares/ST/STM32_WPAN/interface/patterns/ble_thread/tl/tl_mbox.c **** 
 367:Middlewares/ST/STM32_WPAN/interface/patterns/ble_thread/tl/tl_mbox.c **** void HW_IPCC_LLDTESTS_ReceiveM0Cmd( void )
 368:Middlewares/ST/STM32_WPAN/interface/patterns/ble_thread/tl/tl_mbox.c **** {
 369:Middlewares/ST/STM32_WPAN/interface/patterns/ble_thread/tl/tl_mbox.c ****   TL_LLDTESTS_ReceiveM0Cmd( (TL_CmdPacket_t*)(TL_RefTable.p_lld_tests_table->m0cmd_buffer) );
 370:Middlewares/ST/STM32_WPAN/interface/patterns/ble_thread/tl/tl_mbox.c ****   return;
 371:Middlewares/ST/STM32_WPAN/interface/patterns/ble_thread/tl/tl_mbox.c **** }
 372:Middlewares/ST/STM32_WPAN/interface/patterns/ble_thread/tl/tl_mbox.c **** 
 373:Middlewares/ST/STM32_WPAN/interface/patterns/ble_thread/tl/tl_mbox.c **** 
ARM GAS  C:\Users\Nathan\AppData\Local\Temp\ccoptJjL.s 			page 8


 374:Middlewares/ST/STM32_WPAN/interface/patterns/ble_thread/tl/tl_mbox.c **** void TL_LLDTESTS_SendM0CmdAck( void )
 375:Middlewares/ST/STM32_WPAN/interface/patterns/ble_thread/tl/tl_mbox.c **** {
 376:Middlewares/ST/STM32_WPAN/interface/patterns/ble_thread/tl/tl_mbox.c ****   HW_IPCC_LLDTESTS_SendM0CmdAck();
 377:Middlewares/ST/STM32_WPAN/interface/patterns/ble_thread/tl/tl_mbox.c ****   return;
 378:Middlewares/ST/STM32_WPAN/interface/patterns/ble_thread/tl/tl_mbox.c **** }
 379:Middlewares/ST/STM32_WPAN/interface/patterns/ble_thread/tl/tl_mbox.c **** 
 380:Middlewares/ST/STM32_WPAN/interface/patterns/ble_thread/tl/tl_mbox.c **** __WEAK void TL_LLDTESTS_ReceiveCliRsp( TL_CmdPacket_t * Notbuffer ){};
 381:Middlewares/ST/STM32_WPAN/interface/patterns/ble_thread/tl/tl_mbox.c **** __WEAK void TL_LLDTESTS_ReceiveM0Cmd( TL_CmdPacket_t * Notbuffer ){};
 382:Middlewares/ST/STM32_WPAN/interface/patterns/ble_thread/tl/tl_mbox.c **** #endif /* LLD_TESTS_WB */
 383:Middlewares/ST/STM32_WPAN/interface/patterns/ble_thread/tl/tl_mbox.c **** 
 384:Middlewares/ST/STM32_WPAN/interface/patterns/ble_thread/tl/tl_mbox.c **** /******************************************************************************
 385:Middlewares/ST/STM32_WPAN/interface/patterns/ble_thread/tl/tl_mbox.c ****  * BLE LLD
 386:Middlewares/ST/STM32_WPAN/interface/patterns/ble_thread/tl/tl_mbox.c ****  ******************************************************************************/
 387:Middlewares/ST/STM32_WPAN/interface/patterns/ble_thread/tl/tl_mbox.c **** #ifdef BLE_LLD_WB
 388:Middlewares/ST/STM32_WPAN/interface/patterns/ble_thread/tl/tl_mbox.c **** void TL_BLE_LLD_Init( TL_BLE_LLD_Config_t *p_Config )
 389:Middlewares/ST/STM32_WPAN/interface/patterns/ble_thread/tl/tl_mbox.c **** {
 390:Middlewares/ST/STM32_WPAN/interface/patterns/ble_thread/tl/tl_mbox.c ****   MB_BleLldTable_t  * p_ble_lld_table;
 391:Middlewares/ST/STM32_WPAN/interface/patterns/ble_thread/tl/tl_mbox.c **** 
 392:Middlewares/ST/STM32_WPAN/interface/patterns/ble_thread/tl/tl_mbox.c ****   p_ble_lld_table = TL_RefTable.p_ble_lld_table;
 393:Middlewares/ST/STM32_WPAN/interface/patterns/ble_thread/tl/tl_mbox.c ****   p_ble_lld_table->cmdrsp_buffer = p_Config->p_BleLldCmdRspBuffer;
 394:Middlewares/ST/STM32_WPAN/interface/patterns/ble_thread/tl/tl_mbox.c ****   p_ble_lld_table->m0cmd_buffer = p_Config->p_BleLldM0CmdBuffer;
 395:Middlewares/ST/STM32_WPAN/interface/patterns/ble_thread/tl/tl_mbox.c ****   HW_IPCC_BLE_LLD_Init();
 396:Middlewares/ST/STM32_WPAN/interface/patterns/ble_thread/tl/tl_mbox.c ****   return;
 397:Middlewares/ST/STM32_WPAN/interface/patterns/ble_thread/tl/tl_mbox.c **** }
 398:Middlewares/ST/STM32_WPAN/interface/patterns/ble_thread/tl/tl_mbox.c **** 
 399:Middlewares/ST/STM32_WPAN/interface/patterns/ble_thread/tl/tl_mbox.c **** void TL_BLE_LLD_SendCliCmd( void )
 400:Middlewares/ST/STM32_WPAN/interface/patterns/ble_thread/tl/tl_mbox.c **** {
 401:Middlewares/ST/STM32_WPAN/interface/patterns/ble_thread/tl/tl_mbox.c ****   ((TL_CmdPacket_t *)(TL_RefTable.p_ble_lld_table->cmdrsp_buffer))->cmdserial.type = TL_CLICMD_PKT_
 402:Middlewares/ST/STM32_WPAN/interface/patterns/ble_thread/tl/tl_mbox.c ****   HW_IPCC_BLE_LLD_SendCliCmd();
 403:Middlewares/ST/STM32_WPAN/interface/patterns/ble_thread/tl/tl_mbox.c ****   return;
 404:Middlewares/ST/STM32_WPAN/interface/patterns/ble_thread/tl/tl_mbox.c **** }
 405:Middlewares/ST/STM32_WPAN/interface/patterns/ble_thread/tl/tl_mbox.c **** 
 406:Middlewares/ST/STM32_WPAN/interface/patterns/ble_thread/tl/tl_mbox.c **** void HW_IPCC_BLE_LLD_ReceiveCliRsp( void )
 407:Middlewares/ST/STM32_WPAN/interface/patterns/ble_thread/tl/tl_mbox.c **** {
 408:Middlewares/ST/STM32_WPAN/interface/patterns/ble_thread/tl/tl_mbox.c ****   TL_BLE_LLD_ReceiveCliRsp( (TL_CmdPacket_t*)(TL_RefTable.p_ble_lld_table->cmdrsp_buffer) );
 409:Middlewares/ST/STM32_WPAN/interface/patterns/ble_thread/tl/tl_mbox.c ****   return;
 410:Middlewares/ST/STM32_WPAN/interface/patterns/ble_thread/tl/tl_mbox.c **** }
 411:Middlewares/ST/STM32_WPAN/interface/patterns/ble_thread/tl/tl_mbox.c **** 
 412:Middlewares/ST/STM32_WPAN/interface/patterns/ble_thread/tl/tl_mbox.c **** void TL_BLE_LLD_SendCliRspAck( void )
 413:Middlewares/ST/STM32_WPAN/interface/patterns/ble_thread/tl/tl_mbox.c **** {
 414:Middlewares/ST/STM32_WPAN/interface/patterns/ble_thread/tl/tl_mbox.c ****   HW_IPCC_BLE_LLD_SendCliRspAck();
 415:Middlewares/ST/STM32_WPAN/interface/patterns/ble_thread/tl/tl_mbox.c ****   return;
 416:Middlewares/ST/STM32_WPAN/interface/patterns/ble_thread/tl/tl_mbox.c **** }
 417:Middlewares/ST/STM32_WPAN/interface/patterns/ble_thread/tl/tl_mbox.c **** 
 418:Middlewares/ST/STM32_WPAN/interface/patterns/ble_thread/tl/tl_mbox.c **** void HW_IPCC_BLE_LLD_ReceiveM0Cmd( void )
 419:Middlewares/ST/STM32_WPAN/interface/patterns/ble_thread/tl/tl_mbox.c **** {
 420:Middlewares/ST/STM32_WPAN/interface/patterns/ble_thread/tl/tl_mbox.c ****   TL_BLE_LLD_ReceiveM0Cmd( (TL_CmdPacket_t*)(TL_RefTable.p_ble_lld_table->m0cmd_buffer) );
 421:Middlewares/ST/STM32_WPAN/interface/patterns/ble_thread/tl/tl_mbox.c ****   return;
 422:Middlewares/ST/STM32_WPAN/interface/patterns/ble_thread/tl/tl_mbox.c **** }
 423:Middlewares/ST/STM32_WPAN/interface/patterns/ble_thread/tl/tl_mbox.c **** 
 424:Middlewares/ST/STM32_WPAN/interface/patterns/ble_thread/tl/tl_mbox.c **** 
 425:Middlewares/ST/STM32_WPAN/interface/patterns/ble_thread/tl/tl_mbox.c **** void TL_BLE_LLD_SendM0CmdAck( void )
 426:Middlewares/ST/STM32_WPAN/interface/patterns/ble_thread/tl/tl_mbox.c **** {
 427:Middlewares/ST/STM32_WPAN/interface/patterns/ble_thread/tl/tl_mbox.c ****   HW_IPCC_BLE_LLD_SendM0CmdAck();
 428:Middlewares/ST/STM32_WPAN/interface/patterns/ble_thread/tl/tl_mbox.c ****   return;
 429:Middlewares/ST/STM32_WPAN/interface/patterns/ble_thread/tl/tl_mbox.c **** }
 430:Middlewares/ST/STM32_WPAN/interface/patterns/ble_thread/tl/tl_mbox.c **** 
ARM GAS  C:\Users\Nathan\AppData\Local\Temp\ccoptJjL.s 			page 9


 431:Middlewares/ST/STM32_WPAN/interface/patterns/ble_thread/tl/tl_mbox.c **** __WEAK void TL_BLE_LLD_ReceiveCliRsp( TL_CmdPacket_t * Notbuffer ){};
 432:Middlewares/ST/STM32_WPAN/interface/patterns/ble_thread/tl/tl_mbox.c **** __WEAK void TL_BLE_LLD_ReceiveM0Cmd( TL_CmdPacket_t * Notbuffer ){};
 433:Middlewares/ST/STM32_WPAN/interface/patterns/ble_thread/tl/tl_mbox.c **** 
 434:Middlewares/ST/STM32_WPAN/interface/patterns/ble_thread/tl/tl_mbox.c **** /* Transparent Mode */
 435:Middlewares/ST/STM32_WPAN/interface/patterns/ble_thread/tl/tl_mbox.c **** void TL_BLE_LLD_SendCmd( void )
 436:Middlewares/ST/STM32_WPAN/interface/patterns/ble_thread/tl/tl_mbox.c **** {
 437:Middlewares/ST/STM32_WPAN/interface/patterns/ble_thread/tl/tl_mbox.c ****   ((TL_CmdPacket_t *)(TL_RefTable.p_ble_lld_table->cmdrsp_buffer))->cmdserial.type = TL_CLICMD_PKT_
 438:Middlewares/ST/STM32_WPAN/interface/patterns/ble_thread/tl/tl_mbox.c ****   HW_IPCC_BLE_LLD_SendCmd();
 439:Middlewares/ST/STM32_WPAN/interface/patterns/ble_thread/tl/tl_mbox.c ****   return;
 440:Middlewares/ST/STM32_WPAN/interface/patterns/ble_thread/tl/tl_mbox.c **** }
 441:Middlewares/ST/STM32_WPAN/interface/patterns/ble_thread/tl/tl_mbox.c **** 
 442:Middlewares/ST/STM32_WPAN/interface/patterns/ble_thread/tl/tl_mbox.c **** void HW_IPCC_BLE_LLD_ReceiveRsp( void )
 443:Middlewares/ST/STM32_WPAN/interface/patterns/ble_thread/tl/tl_mbox.c **** {
 444:Middlewares/ST/STM32_WPAN/interface/patterns/ble_thread/tl/tl_mbox.c ****   TL_BLE_LLD_ReceiveRsp( (TL_CmdPacket_t*)(TL_RefTable.p_ble_lld_table->cmdrsp_buffer) );
 445:Middlewares/ST/STM32_WPAN/interface/patterns/ble_thread/tl/tl_mbox.c ****   return;
 446:Middlewares/ST/STM32_WPAN/interface/patterns/ble_thread/tl/tl_mbox.c **** }
 447:Middlewares/ST/STM32_WPAN/interface/patterns/ble_thread/tl/tl_mbox.c **** 
 448:Middlewares/ST/STM32_WPAN/interface/patterns/ble_thread/tl/tl_mbox.c **** void TL_BLE_LLD_SendRspAck( void )
 449:Middlewares/ST/STM32_WPAN/interface/patterns/ble_thread/tl/tl_mbox.c **** {
 450:Middlewares/ST/STM32_WPAN/interface/patterns/ble_thread/tl/tl_mbox.c ****   HW_IPCC_BLE_LLD_SendRspAck();
 451:Middlewares/ST/STM32_WPAN/interface/patterns/ble_thread/tl/tl_mbox.c ****   return;
 452:Middlewares/ST/STM32_WPAN/interface/patterns/ble_thread/tl/tl_mbox.c **** }
 453:Middlewares/ST/STM32_WPAN/interface/patterns/ble_thread/tl/tl_mbox.c **** #endif /* BLE_LLD_WB */
 454:Middlewares/ST/STM32_WPAN/interface/patterns/ble_thread/tl/tl_mbox.c **** 
 455:Middlewares/ST/STM32_WPAN/interface/patterns/ble_thread/tl/tl_mbox.c **** #ifdef MAC_802_15_4_WB
 456:Middlewares/ST/STM32_WPAN/interface/patterns/ble_thread/tl/tl_mbox.c **** /******************************************************************************
 457:Middlewares/ST/STM32_WPAN/interface/patterns/ble_thread/tl/tl_mbox.c ****  * MAC 802.15.4
 458:Middlewares/ST/STM32_WPAN/interface/patterns/ble_thread/tl/tl_mbox.c ****  ******************************************************************************/
 459:Middlewares/ST/STM32_WPAN/interface/patterns/ble_thread/tl/tl_mbox.c **** void TL_MAC_802_15_4_Init( TL_MAC_802_15_4_Config_t *p_Config )
 460:Middlewares/ST/STM32_WPAN/interface/patterns/ble_thread/tl/tl_mbox.c **** {
 461:Middlewares/ST/STM32_WPAN/interface/patterns/ble_thread/tl/tl_mbox.c ****   MB_Mac_802_15_4_t  * p_mac_802_15_4_table;
 462:Middlewares/ST/STM32_WPAN/interface/patterns/ble_thread/tl/tl_mbox.c **** 
 463:Middlewares/ST/STM32_WPAN/interface/patterns/ble_thread/tl/tl_mbox.c ****   p_mac_802_15_4_table = TL_RefTable.p_mac_802_15_4_table;
 464:Middlewares/ST/STM32_WPAN/interface/patterns/ble_thread/tl/tl_mbox.c **** 
 465:Middlewares/ST/STM32_WPAN/interface/patterns/ble_thread/tl/tl_mbox.c ****   p_mac_802_15_4_table->p_cmdrsp_buffer = p_Config->p_Mac_802_15_4_CmdRspBuffer;
 466:Middlewares/ST/STM32_WPAN/interface/patterns/ble_thread/tl/tl_mbox.c ****   p_mac_802_15_4_table->p_notack_buffer = p_Config->p_Mac_802_15_4_NotAckBuffer;
 467:Middlewares/ST/STM32_WPAN/interface/patterns/ble_thread/tl/tl_mbox.c **** 
 468:Middlewares/ST/STM32_WPAN/interface/patterns/ble_thread/tl/tl_mbox.c ****   HW_IPCC_MAC_802_15_4_Init();
 469:Middlewares/ST/STM32_WPAN/interface/patterns/ble_thread/tl/tl_mbox.c **** 
 470:Middlewares/ST/STM32_WPAN/interface/patterns/ble_thread/tl/tl_mbox.c ****   return;
 471:Middlewares/ST/STM32_WPAN/interface/patterns/ble_thread/tl/tl_mbox.c **** }
 472:Middlewares/ST/STM32_WPAN/interface/patterns/ble_thread/tl/tl_mbox.c **** 
 473:Middlewares/ST/STM32_WPAN/interface/patterns/ble_thread/tl/tl_mbox.c **** void TL_MAC_802_15_4_SendCmd( void )
 474:Middlewares/ST/STM32_WPAN/interface/patterns/ble_thread/tl/tl_mbox.c **** {
 475:Middlewares/ST/STM32_WPAN/interface/patterns/ble_thread/tl/tl_mbox.c ****   ((TL_CmdPacket_t *)(TL_RefTable.p_mac_802_15_4_table->p_cmdrsp_buffer))->cmdserial.type = TL_OTCM
 476:Middlewares/ST/STM32_WPAN/interface/patterns/ble_thread/tl/tl_mbox.c **** 
 477:Middlewares/ST/STM32_WPAN/interface/patterns/ble_thread/tl/tl_mbox.c ****   HW_IPCC_MAC_802_15_4_SendCmd();
 478:Middlewares/ST/STM32_WPAN/interface/patterns/ble_thread/tl/tl_mbox.c **** 
 479:Middlewares/ST/STM32_WPAN/interface/patterns/ble_thread/tl/tl_mbox.c ****   return;
 480:Middlewares/ST/STM32_WPAN/interface/patterns/ble_thread/tl/tl_mbox.c **** }
 481:Middlewares/ST/STM32_WPAN/interface/patterns/ble_thread/tl/tl_mbox.c **** 
 482:Middlewares/ST/STM32_WPAN/interface/patterns/ble_thread/tl/tl_mbox.c **** void TL_MAC_802_15_4_SendAck ( void )
 483:Middlewares/ST/STM32_WPAN/interface/patterns/ble_thread/tl/tl_mbox.c **** {
 484:Middlewares/ST/STM32_WPAN/interface/patterns/ble_thread/tl/tl_mbox.c ****   ((TL_CmdPacket_t *)(TL_RefTable.p_mac_802_15_4_table->p_notack_buffer))->cmdserial.type = TL_OTAC
 485:Middlewares/ST/STM32_WPAN/interface/patterns/ble_thread/tl/tl_mbox.c **** 
 486:Middlewares/ST/STM32_WPAN/interface/patterns/ble_thread/tl/tl_mbox.c ****   HW_IPCC_MAC_802_15_4_SendAck();
 487:Middlewares/ST/STM32_WPAN/interface/patterns/ble_thread/tl/tl_mbox.c **** 
ARM GAS  C:\Users\Nathan\AppData\Local\Temp\ccoptJjL.s 			page 10


 488:Middlewares/ST/STM32_WPAN/interface/patterns/ble_thread/tl/tl_mbox.c ****   return;
 489:Middlewares/ST/STM32_WPAN/interface/patterns/ble_thread/tl/tl_mbox.c **** }
 490:Middlewares/ST/STM32_WPAN/interface/patterns/ble_thread/tl/tl_mbox.c **** 
 491:Middlewares/ST/STM32_WPAN/interface/patterns/ble_thread/tl/tl_mbox.c **** void HW_IPCC_MAC_802_15_4_CmdEvtNot(void)
 492:Middlewares/ST/STM32_WPAN/interface/patterns/ble_thread/tl/tl_mbox.c **** {
 493:Middlewares/ST/STM32_WPAN/interface/patterns/ble_thread/tl/tl_mbox.c ****   TL_MAC_802_15_4_CmdEvtReceived( (TL_EvtPacket_t*)(TL_RefTable.p_mac_802_15_4_table->p_cmdrsp_buff
 494:Middlewares/ST/STM32_WPAN/interface/patterns/ble_thread/tl/tl_mbox.c **** 
 495:Middlewares/ST/STM32_WPAN/interface/patterns/ble_thread/tl/tl_mbox.c ****   return;
 496:Middlewares/ST/STM32_WPAN/interface/patterns/ble_thread/tl/tl_mbox.c **** }
 497:Middlewares/ST/STM32_WPAN/interface/patterns/ble_thread/tl/tl_mbox.c **** 
 498:Middlewares/ST/STM32_WPAN/interface/patterns/ble_thread/tl/tl_mbox.c **** void HW_IPCC_MAC_802_15_4_EvtNot( void )
 499:Middlewares/ST/STM32_WPAN/interface/patterns/ble_thread/tl/tl_mbox.c **** {
 500:Middlewares/ST/STM32_WPAN/interface/patterns/ble_thread/tl/tl_mbox.c ****   TL_MAC_802_15_4_NotReceived( (TL_EvtPacket_t*)(TL_RefTable.p_mac_802_15_4_table->p_notack_buffer)
 501:Middlewares/ST/STM32_WPAN/interface/patterns/ble_thread/tl/tl_mbox.c **** 
 502:Middlewares/ST/STM32_WPAN/interface/patterns/ble_thread/tl/tl_mbox.c ****   return;
 503:Middlewares/ST/STM32_WPAN/interface/patterns/ble_thread/tl/tl_mbox.c **** }
 504:Middlewares/ST/STM32_WPAN/interface/patterns/ble_thread/tl/tl_mbox.c **** 
 505:Middlewares/ST/STM32_WPAN/interface/patterns/ble_thread/tl/tl_mbox.c **** __WEAK void TL_MAC_802_15_4_CmdEvtReceived( TL_EvtPacket_t * Otbuffer  ){};
 506:Middlewares/ST/STM32_WPAN/interface/patterns/ble_thread/tl/tl_mbox.c **** __WEAK void TL_MAC_802_15_4_NotReceived( TL_EvtPacket_t * Notbuffer ){};
 507:Middlewares/ST/STM32_WPAN/interface/patterns/ble_thread/tl/tl_mbox.c **** #endif
 508:Middlewares/ST/STM32_WPAN/interface/patterns/ble_thread/tl/tl_mbox.c **** 
 509:Middlewares/ST/STM32_WPAN/interface/patterns/ble_thread/tl/tl_mbox.c **** #ifdef ZIGBEE_WB
 510:Middlewares/ST/STM32_WPAN/interface/patterns/ble_thread/tl/tl_mbox.c **** /******************************************************************************
 511:Middlewares/ST/STM32_WPAN/interface/patterns/ble_thread/tl/tl_mbox.c ****  * ZIGBEE
 512:Middlewares/ST/STM32_WPAN/interface/patterns/ble_thread/tl/tl_mbox.c ****  ******************************************************************************/
 513:Middlewares/ST/STM32_WPAN/interface/patterns/ble_thread/tl/tl_mbox.c **** void TL_ZIGBEE_Init( TL_ZIGBEE_Config_t *p_Config )
 514:Middlewares/ST/STM32_WPAN/interface/patterns/ble_thread/tl/tl_mbox.c **** {
 515:Middlewares/ST/STM32_WPAN/interface/patterns/ble_thread/tl/tl_mbox.c ****   MB_ZigbeeTable_t  * p_zigbee_table;
 516:Middlewares/ST/STM32_WPAN/interface/patterns/ble_thread/tl/tl_mbox.c **** 
 517:Middlewares/ST/STM32_WPAN/interface/patterns/ble_thread/tl/tl_mbox.c ****   p_zigbee_table = TL_RefTable.p_zigbee_table;
 518:Middlewares/ST/STM32_WPAN/interface/patterns/ble_thread/tl/tl_mbox.c ****   p_zigbee_table->appliCmdM4toM0_buffer = p_Config->p_ZigbeeOtCmdRspBuffer;
 519:Middlewares/ST/STM32_WPAN/interface/patterns/ble_thread/tl/tl_mbox.c ****   p_zigbee_table->notifM0toM4_buffer = p_Config->p_ZigbeeNotAckBuffer;
 520:Middlewares/ST/STM32_WPAN/interface/patterns/ble_thread/tl/tl_mbox.c ****   p_zigbee_table->requestM0toM4_buffer = p_Config->p_ZigbeeNotifRequestBuffer;
 521:Middlewares/ST/STM32_WPAN/interface/patterns/ble_thread/tl/tl_mbox.c **** 
 522:Middlewares/ST/STM32_WPAN/interface/patterns/ble_thread/tl/tl_mbox.c ****   HW_IPCC_ZIGBEE_Init();
 523:Middlewares/ST/STM32_WPAN/interface/patterns/ble_thread/tl/tl_mbox.c **** 
 524:Middlewares/ST/STM32_WPAN/interface/patterns/ble_thread/tl/tl_mbox.c ****   return;
 525:Middlewares/ST/STM32_WPAN/interface/patterns/ble_thread/tl/tl_mbox.c **** }
 526:Middlewares/ST/STM32_WPAN/interface/patterns/ble_thread/tl/tl_mbox.c **** 
 527:Middlewares/ST/STM32_WPAN/interface/patterns/ble_thread/tl/tl_mbox.c **** /* Zigbee M4 to M0 Request */
 528:Middlewares/ST/STM32_WPAN/interface/patterns/ble_thread/tl/tl_mbox.c **** void TL_ZIGBEE_SendM4RequestToM0( void )
 529:Middlewares/ST/STM32_WPAN/interface/patterns/ble_thread/tl/tl_mbox.c **** {
 530:Middlewares/ST/STM32_WPAN/interface/patterns/ble_thread/tl/tl_mbox.c ****   ((TL_CmdPacket_t *)(TL_RefTable.p_zigbee_table->appliCmdM4toM0_buffer))->cmdserial.type = TL_OTCM
 531:Middlewares/ST/STM32_WPAN/interface/patterns/ble_thread/tl/tl_mbox.c **** 
 532:Middlewares/ST/STM32_WPAN/interface/patterns/ble_thread/tl/tl_mbox.c ****   HW_IPCC_ZIGBEE_SendM4RequestToM0();
 533:Middlewares/ST/STM32_WPAN/interface/patterns/ble_thread/tl/tl_mbox.c **** 
 534:Middlewares/ST/STM32_WPAN/interface/patterns/ble_thread/tl/tl_mbox.c ****   return;
 535:Middlewares/ST/STM32_WPAN/interface/patterns/ble_thread/tl/tl_mbox.c **** }
 536:Middlewares/ST/STM32_WPAN/interface/patterns/ble_thread/tl/tl_mbox.c **** 
 537:Middlewares/ST/STM32_WPAN/interface/patterns/ble_thread/tl/tl_mbox.c **** /* Used to receive an ACK from the M0 */
 538:Middlewares/ST/STM32_WPAN/interface/patterns/ble_thread/tl/tl_mbox.c **** void HW_IPCC_ZIGBEE_RecvAppliAckFromM0(void)
 539:Middlewares/ST/STM32_WPAN/interface/patterns/ble_thread/tl/tl_mbox.c **** {
 540:Middlewares/ST/STM32_WPAN/interface/patterns/ble_thread/tl/tl_mbox.c ****   TL_ZIGBEE_CmdEvtReceived( (TL_EvtPacket_t*)(TL_RefTable.p_zigbee_table->appliCmdM4toM0_buffer) );
 541:Middlewares/ST/STM32_WPAN/interface/patterns/ble_thread/tl/tl_mbox.c **** 
 542:Middlewares/ST/STM32_WPAN/interface/patterns/ble_thread/tl/tl_mbox.c ****   return;
 543:Middlewares/ST/STM32_WPAN/interface/patterns/ble_thread/tl/tl_mbox.c **** }
 544:Middlewares/ST/STM32_WPAN/interface/patterns/ble_thread/tl/tl_mbox.c **** 
ARM GAS  C:\Users\Nathan\AppData\Local\Temp\ccoptJjL.s 			page 11


 545:Middlewares/ST/STM32_WPAN/interface/patterns/ble_thread/tl/tl_mbox.c **** /* Zigbee notification from M0 to M4 */
 546:Middlewares/ST/STM32_WPAN/interface/patterns/ble_thread/tl/tl_mbox.c **** void HW_IPCC_ZIGBEE_RecvM0NotifyToM4( void )
 547:Middlewares/ST/STM32_WPAN/interface/patterns/ble_thread/tl/tl_mbox.c **** {
 548:Middlewares/ST/STM32_WPAN/interface/patterns/ble_thread/tl/tl_mbox.c ****   TL_ZIGBEE_NotReceived( (TL_EvtPacket_t*)(TL_RefTable.p_zigbee_table->notifM0toM4_buffer) );
 549:Middlewares/ST/STM32_WPAN/interface/patterns/ble_thread/tl/tl_mbox.c **** 
 550:Middlewares/ST/STM32_WPAN/interface/patterns/ble_thread/tl/tl_mbox.c ****   return;
 551:Middlewares/ST/STM32_WPAN/interface/patterns/ble_thread/tl/tl_mbox.c **** }
 552:Middlewares/ST/STM32_WPAN/interface/patterns/ble_thread/tl/tl_mbox.c **** 
 553:Middlewares/ST/STM32_WPAN/interface/patterns/ble_thread/tl/tl_mbox.c **** /* Send an ACK to the M0 for a Notification */
 554:Middlewares/ST/STM32_WPAN/interface/patterns/ble_thread/tl/tl_mbox.c **** void TL_ZIGBEE_SendM4AckToM0Notify ( void )
 555:Middlewares/ST/STM32_WPAN/interface/patterns/ble_thread/tl/tl_mbox.c **** {
 556:Middlewares/ST/STM32_WPAN/interface/patterns/ble_thread/tl/tl_mbox.c ****   ((TL_CmdPacket_t *)(TL_RefTable.p_zigbee_table->notifM0toM4_buffer))->cmdserial.type = TL_OTACK_P
 557:Middlewares/ST/STM32_WPAN/interface/patterns/ble_thread/tl/tl_mbox.c **** 
 558:Middlewares/ST/STM32_WPAN/interface/patterns/ble_thread/tl/tl_mbox.c ****   HW_IPCC_ZIGBEE_SendM4AckToM0Notify();
 559:Middlewares/ST/STM32_WPAN/interface/patterns/ble_thread/tl/tl_mbox.c **** 
 560:Middlewares/ST/STM32_WPAN/interface/patterns/ble_thread/tl/tl_mbox.c ****   return;
 561:Middlewares/ST/STM32_WPAN/interface/patterns/ble_thread/tl/tl_mbox.c **** }
 562:Middlewares/ST/STM32_WPAN/interface/patterns/ble_thread/tl/tl_mbox.c **** 
 563:Middlewares/ST/STM32_WPAN/interface/patterns/ble_thread/tl/tl_mbox.c **** /* Zigbee M0 to M4 Request */
 564:Middlewares/ST/STM32_WPAN/interface/patterns/ble_thread/tl/tl_mbox.c **** void HW_IPCC_ZIGBEE_RecvM0RequestToM4( void )
 565:Middlewares/ST/STM32_WPAN/interface/patterns/ble_thread/tl/tl_mbox.c **** {
 566:Middlewares/ST/STM32_WPAN/interface/patterns/ble_thread/tl/tl_mbox.c ****   TL_ZIGBEE_M0RequestReceived( (TL_EvtPacket_t*)(TL_RefTable.p_zigbee_table->requestM0toM4_buffer) 
 567:Middlewares/ST/STM32_WPAN/interface/patterns/ble_thread/tl/tl_mbox.c **** 
 568:Middlewares/ST/STM32_WPAN/interface/patterns/ble_thread/tl/tl_mbox.c ****   return;
 569:Middlewares/ST/STM32_WPAN/interface/patterns/ble_thread/tl/tl_mbox.c **** }
 570:Middlewares/ST/STM32_WPAN/interface/patterns/ble_thread/tl/tl_mbox.c **** 
 571:Middlewares/ST/STM32_WPAN/interface/patterns/ble_thread/tl/tl_mbox.c **** /* Send an ACK to the M0 for a Request */
 572:Middlewares/ST/STM32_WPAN/interface/patterns/ble_thread/tl/tl_mbox.c **** void TL_ZIGBEE_SendM4AckToM0Request(void)
 573:Middlewares/ST/STM32_WPAN/interface/patterns/ble_thread/tl/tl_mbox.c **** {
 574:Middlewares/ST/STM32_WPAN/interface/patterns/ble_thread/tl/tl_mbox.c ****   ((TL_CmdPacket_t *)(TL_RefTable.p_zigbee_table->requestM0toM4_buffer))->cmdserial.type = TL_OTACK
 575:Middlewares/ST/STM32_WPAN/interface/patterns/ble_thread/tl/tl_mbox.c **** 
 576:Middlewares/ST/STM32_WPAN/interface/patterns/ble_thread/tl/tl_mbox.c ****   HW_IPCC_ZIGBEE_SendM4AckToM0Request();
 577:Middlewares/ST/STM32_WPAN/interface/patterns/ble_thread/tl/tl_mbox.c **** 
 578:Middlewares/ST/STM32_WPAN/interface/patterns/ble_thread/tl/tl_mbox.c ****   return;
 579:Middlewares/ST/STM32_WPAN/interface/patterns/ble_thread/tl/tl_mbox.c **** }
 580:Middlewares/ST/STM32_WPAN/interface/patterns/ble_thread/tl/tl_mbox.c **** 
 581:Middlewares/ST/STM32_WPAN/interface/patterns/ble_thread/tl/tl_mbox.c **** 
 582:Middlewares/ST/STM32_WPAN/interface/patterns/ble_thread/tl/tl_mbox.c **** __WEAK void TL_ZIGBEE_CmdEvtReceived( TL_EvtPacket_t * Otbuffer  ){};
 583:Middlewares/ST/STM32_WPAN/interface/patterns/ble_thread/tl/tl_mbox.c **** __WEAK void TL_ZIGBEE_NotReceived( TL_EvtPacket_t * Notbuffer ){};
 584:Middlewares/ST/STM32_WPAN/interface/patterns/ble_thread/tl/tl_mbox.c **** #endif
 585:Middlewares/ST/STM32_WPAN/interface/patterns/ble_thread/tl/tl_mbox.c **** 
 586:Middlewares/ST/STM32_WPAN/interface/patterns/ble_thread/tl/tl_mbox.c **** 
 587:Middlewares/ST/STM32_WPAN/interface/patterns/ble_thread/tl/tl_mbox.c **** 
 588:Middlewares/ST/STM32_WPAN/interface/patterns/ble_thread/tl/tl_mbox.c **** /******************************************************************************
 589:Middlewares/ST/STM32_WPAN/interface/patterns/ble_thread/tl/tl_mbox.c ****  * MEMORY MANAGER
 590:Middlewares/ST/STM32_WPAN/interface/patterns/ble_thread/tl/tl_mbox.c ****  ******************************************************************************/
 591:Middlewares/ST/STM32_WPAN/interface/patterns/ble_thread/tl/tl_mbox.c **** void TL_MM_Init( TL_MM_Config_t *p_Config )
 592:Middlewares/ST/STM32_WPAN/interface/patterns/ble_thread/tl/tl_mbox.c **** {
 593:Middlewares/ST/STM32_WPAN/interface/patterns/ble_thread/tl/tl_mbox.c ****   static MB_MemManagerTable_t  * p_mem_manager_table;
 594:Middlewares/ST/STM32_WPAN/interface/patterns/ble_thread/tl/tl_mbox.c **** 
 595:Middlewares/ST/STM32_WPAN/interface/patterns/ble_thread/tl/tl_mbox.c ****   LST_init_head (&FreeBufQueue);
 596:Middlewares/ST/STM32_WPAN/interface/patterns/ble_thread/tl/tl_mbox.c ****   LST_init_head (&LocalFreeBufQueue);
 597:Middlewares/ST/STM32_WPAN/interface/patterns/ble_thread/tl/tl_mbox.c **** 
 598:Middlewares/ST/STM32_WPAN/interface/patterns/ble_thread/tl/tl_mbox.c ****   p_mem_manager_table = TL_RefTable.p_mem_manager_table;
 599:Middlewares/ST/STM32_WPAN/interface/patterns/ble_thread/tl/tl_mbox.c **** 
 600:Middlewares/ST/STM32_WPAN/interface/patterns/ble_thread/tl/tl_mbox.c ****   p_mem_manager_table->blepool = p_Config->p_AsynchEvtPool;
 601:Middlewares/ST/STM32_WPAN/interface/patterns/ble_thread/tl/tl_mbox.c ****   p_mem_manager_table->blepoolsize = p_Config->AsynchEvtPoolSize;
ARM GAS  C:\Users\Nathan\AppData\Local\Temp\ccoptJjL.s 			page 12


 602:Middlewares/ST/STM32_WPAN/interface/patterns/ble_thread/tl/tl_mbox.c ****   p_mem_manager_table->pevt_free_buffer_queue = (uint8_t*)&FreeBufQueue;
 603:Middlewares/ST/STM32_WPAN/interface/patterns/ble_thread/tl/tl_mbox.c ****   p_mem_manager_table->spare_ble_buffer = p_Config->p_BleSpareEvtBuffer;
 604:Middlewares/ST/STM32_WPAN/interface/patterns/ble_thread/tl/tl_mbox.c ****   p_mem_manager_table->spare_sys_buffer = p_Config->p_SystemSpareEvtBuffer;
 605:Middlewares/ST/STM32_WPAN/interface/patterns/ble_thread/tl/tl_mbox.c ****   p_mem_manager_table->traces_evt_pool = p_Config->p_TracesEvtPool;
 606:Middlewares/ST/STM32_WPAN/interface/patterns/ble_thread/tl/tl_mbox.c ****   p_mem_manager_table->tracespoolsize = p_Config->TracesEvtPoolSize;
 607:Middlewares/ST/STM32_WPAN/interface/patterns/ble_thread/tl/tl_mbox.c **** 
 608:Middlewares/ST/STM32_WPAN/interface/patterns/ble_thread/tl/tl_mbox.c ****   return;
 609:Middlewares/ST/STM32_WPAN/interface/patterns/ble_thread/tl/tl_mbox.c **** }
 610:Middlewares/ST/STM32_WPAN/interface/patterns/ble_thread/tl/tl_mbox.c **** 
 611:Middlewares/ST/STM32_WPAN/interface/patterns/ble_thread/tl/tl_mbox.c **** void TL_MM_EvtDone(TL_EvtPacket_t * phcievt)
 612:Middlewares/ST/STM32_WPAN/interface/patterns/ble_thread/tl/tl_mbox.c **** {
 613:Middlewares/ST/STM32_WPAN/interface/patterns/ble_thread/tl/tl_mbox.c ****   LST_insert_tail(&LocalFreeBufQueue, (tListNode *)phcievt);
 614:Middlewares/ST/STM32_WPAN/interface/patterns/ble_thread/tl/tl_mbox.c **** 
 615:Middlewares/ST/STM32_WPAN/interface/patterns/ble_thread/tl/tl_mbox.c ****   OutputDbgTrace(TL_MB_MM_RELEASE_BUFFER, (uint8_t*)phcievt);
 616:Middlewares/ST/STM32_WPAN/interface/patterns/ble_thread/tl/tl_mbox.c **** 
 617:Middlewares/ST/STM32_WPAN/interface/patterns/ble_thread/tl/tl_mbox.c ****   HW_IPCC_MM_SendFreeBuf( SendFreeBuf );
 618:Middlewares/ST/STM32_WPAN/interface/patterns/ble_thread/tl/tl_mbox.c **** 
 619:Middlewares/ST/STM32_WPAN/interface/patterns/ble_thread/tl/tl_mbox.c ****   return;
 620:Middlewares/ST/STM32_WPAN/interface/patterns/ble_thread/tl/tl_mbox.c **** }
 621:Middlewares/ST/STM32_WPAN/interface/patterns/ble_thread/tl/tl_mbox.c **** 
 622:Middlewares/ST/STM32_WPAN/interface/patterns/ble_thread/tl/tl_mbox.c **** static void SendFreeBuf( void )
 623:Middlewares/ST/STM32_WPAN/interface/patterns/ble_thread/tl/tl_mbox.c **** {
  28              		.loc 1 623 1 view -0
  29              		.cfi_startproc
  30              		@ args = 0, pretend = 0, frame = 8
  31              		@ frame_needed = 0, uses_anonymous_args = 0
  32 0000 00B5     		push	{lr}
  33              		.cfi_def_cfa_offset 4
  34              		.cfi_offset 14, -4
  35 0002 83B0     		sub	sp, sp, #12
  36              		.cfi_def_cfa_offset 16
 624:Middlewares/ST/STM32_WPAN/interface/patterns/ble_thread/tl/tl_mbox.c ****   tListNode *p_node;
  37              		.loc 1 624 3 view .LVU1
 625:Middlewares/ST/STM32_WPAN/interface/patterns/ble_thread/tl/tl_mbox.c **** 
 626:Middlewares/ST/STM32_WPAN/interface/patterns/ble_thread/tl/tl_mbox.c ****   while ( FALSE == LST_is_empty (&LocalFreeBufQueue) )
  38              		.loc 1 626 3 view .LVU2
  39              		.loc 1 626 9 is_stmt 0 view .LVU3
  40 0004 09E0     		b	.L2
  41              	.L3:
 627:Middlewares/ST/STM32_WPAN/interface/patterns/ble_thread/tl/tl_mbox.c ****   {
 628:Middlewares/ST/STM32_WPAN/interface/patterns/ble_thread/tl/tl_mbox.c ****     LST_remove_head( &LocalFreeBufQueue, (tListNode **)&p_node );
  42              		.loc 1 628 5 is_stmt 1 view .LVU4
  43 0006 01A9     		add	r1, sp, #4
  44 0008 0848     		ldr	r0, .L5
  45 000a FFF7FEFF 		bl	LST_remove_head
  46              	.LVL0:
 629:Middlewares/ST/STM32_WPAN/interface/patterns/ble_thread/tl/tl_mbox.c ****     LST_insert_tail( (tListNode*)(TL_RefTable.p_mem_manager_table->pevt_free_buffer_queue), p_node 
  47              		.loc 1 629 5 view .LVU5
  48              		.loc 1 629 46 is_stmt 0 view .LVU6
  49 000e 084B     		ldr	r3, .L5+4
  50 0010 1B69     		ldr	r3, [r3, #16]
  51              		.loc 1 629 5 view .LVU7
  52 0012 0199     		ldr	r1, [sp, #4]
  53 0014 1869     		ldr	r0, [r3, #16]
  54 0016 FFF7FEFF 		bl	LST_insert_tail
  55              	.LVL1:
  56              	.L2:
ARM GAS  C:\Users\Nathan\AppData\Local\Temp\ccoptJjL.s 			page 13


 626:Middlewares/ST/STM32_WPAN/interface/patterns/ble_thread/tl/tl_mbox.c ****   {
  57              		.loc 1 626 17 is_stmt 1 view .LVU8
 626:Middlewares/ST/STM32_WPAN/interface/patterns/ble_thread/tl/tl_mbox.c ****   {
  58              		.loc 1 626 20 is_stmt 0 view .LVU9
  59 001a 0448     		ldr	r0, .L5
  60 001c FFF7FEFF 		bl	LST_is_empty
  61              	.LVL2:
 626:Middlewares/ST/STM32_WPAN/interface/patterns/ble_thread/tl/tl_mbox.c ****   {
  62              		.loc 1 626 17 discriminator 1 view .LVU10
  63 0020 0028     		cmp	r0, #0
  64 0022 F0D0     		beq	.L3
 630:Middlewares/ST/STM32_WPAN/interface/patterns/ble_thread/tl/tl_mbox.c ****   }
 631:Middlewares/ST/STM32_WPAN/interface/patterns/ble_thread/tl/tl_mbox.c **** 
 632:Middlewares/ST/STM32_WPAN/interface/patterns/ble_thread/tl/tl_mbox.c ****   return;
 633:Middlewares/ST/STM32_WPAN/interface/patterns/ble_thread/tl/tl_mbox.c **** }
  65              		.loc 1 633 1 view .LVU11
  66 0024 03B0     		add	sp, sp, #12
  67              		.cfi_def_cfa_offset 4
  68              		@ sp needed
  69 0026 5DF804FB 		ldr	pc, [sp], #4
  70              	.L6:
  71 002a 00BF     		.align	2
  72              	.L5:
  73 002c 00000000 		.word	LocalFreeBufQueue
  74 0030 00000000 		.word	TL_RefTable
  75              		.cfi_endproc
  76              	.LFE1428:
  78              		.section	.text.TL_Enable,"ax",%progbits
  79              		.align	1
  80              		.global	TL_Enable
  81              		.syntax unified
  82              		.thumb
  83              		.thumb_func
  85              	TL_Enable:
  86              	.LFB1415:
  83:Middlewares/ST/STM32_WPAN/interface/patterns/ble_thread/tl/tl_mbox.c ****   HW_IPCC_Enable();
  87              		.loc 1 83 1 is_stmt 1 view -0
  88              		.cfi_startproc
  89              		@ args = 0, pretend = 0, frame = 0
  90              		@ frame_needed = 0, uses_anonymous_args = 0
  91 0000 08B5     		push	{r3, lr}
  92              		.cfi_def_cfa_offset 8
  93              		.cfi_offset 3, -8
  94              		.cfi_offset 14, -4
  84:Middlewares/ST/STM32_WPAN/interface/patterns/ble_thread/tl/tl_mbox.c **** 
  95              		.loc 1 84 3 view .LVU13
  96 0002 FFF7FEFF 		bl	HW_IPCC_Enable
  97              	.LVL3:
  86:Middlewares/ST/STM32_WPAN/interface/patterns/ble_thread/tl/tl_mbox.c **** }
  98              		.loc 1 86 3 view .LVU14
  87:Middlewares/ST/STM32_WPAN/interface/patterns/ble_thread/tl/tl_mbox.c **** 
  99              		.loc 1 87 1 is_stmt 0 view .LVU15
 100 0006 08BD     		pop	{r3, pc}
 101              		.cfi_endproc
 102              	.LFE1415:
 104              		.section	.text.TL_Init,"ax",%progbits
 105              		.align	1
ARM GAS  C:\Users\Nathan\AppData\Local\Temp\ccoptJjL.s 			page 14


 106              		.global	TL_Init
 107              		.syntax unified
 108              		.thumb
 109              		.thumb_func
 111              	TL_Init:
 112              	.LFB1416:
  91:Middlewares/ST/STM32_WPAN/interface/patterns/ble_thread/tl/tl_mbox.c ****   TL_RefTable.p_device_info_table = &TL_DeviceInfoTable;
 113              		.loc 1 91 1 is_stmt 1 view -0
 114              		.cfi_startproc
 115              		@ args = 0, pretend = 0, frame = 0
 116              		@ frame_needed = 0, uses_anonymous_args = 0
 117 0000 08B5     		push	{r3, lr}
 118              		.cfi_def_cfa_offset 8
 119              		.cfi_offset 3, -8
 120              		.cfi_offset 14, -4
  92:Middlewares/ST/STM32_WPAN/interface/patterns/ble_thread/tl/tl_mbox.c ****   TL_RefTable.p_ble_table = &TL_BleTable;
 121              		.loc 1 92 3 view .LVU17
  92:Middlewares/ST/STM32_WPAN/interface/patterns/ble_thread/tl/tl_mbox.c ****   TL_RefTable.p_ble_table = &TL_BleTable;
 122              		.loc 1 92 35 is_stmt 0 view .LVU18
 123 0002 0C4B     		ldr	r3, .L11
 124 0004 0C4A     		ldr	r2, .L11+4
 125 0006 1A60     		str	r2, [r3]
  93:Middlewares/ST/STM32_WPAN/interface/patterns/ble_thread/tl/tl_mbox.c ****   TL_RefTable.p_thread_table = &TL_ThreadTable;
 126              		.loc 1 93 3 is_stmt 1 view .LVU19
  93:Middlewares/ST/STM32_WPAN/interface/patterns/ble_thread/tl/tl_mbox.c ****   TL_RefTable.p_thread_table = &TL_ThreadTable;
 127              		.loc 1 93 27 is_stmt 0 view .LVU20
 128 0008 0C4A     		ldr	r2, .L11+8
 129 000a 5A60     		str	r2, [r3, #4]
  94:Middlewares/ST/STM32_WPAN/interface/patterns/ble_thread/tl/tl_mbox.c ****   TL_RefTable.p_lld_tests_table = &TL_LldTestsTable;
 130              		.loc 1 94 3 is_stmt 1 view .LVU21
  94:Middlewares/ST/STM32_WPAN/interface/patterns/ble_thread/tl/tl_mbox.c ****   TL_RefTable.p_lld_tests_table = &TL_LldTestsTable;
 131              		.loc 1 94 30 is_stmt 0 view .LVU22
 132 000c 0C4A     		ldr	r2, .L11+12
 133 000e 9A60     		str	r2, [r3, #8]
  95:Middlewares/ST/STM32_WPAN/interface/patterns/ble_thread/tl/tl_mbox.c ****   TL_RefTable.p_ble_lld_table = &TL_BleLldTable;
 134              		.loc 1 95 3 is_stmt 1 view .LVU23
  95:Middlewares/ST/STM32_WPAN/interface/patterns/ble_thread/tl/tl_mbox.c ****   TL_RefTable.p_ble_lld_table = &TL_BleLldTable;
 135              		.loc 1 95 33 is_stmt 0 view .LVU24
 136 0010 0C4A     		ldr	r2, .L11+16
 137 0012 1A62     		str	r2, [r3, #32]
  96:Middlewares/ST/STM32_WPAN/interface/patterns/ble_thread/tl/tl_mbox.c ****   TL_RefTable.p_sys_table = &TL_SysTable;
 138              		.loc 1 96 3 is_stmt 1 view .LVU25
  96:Middlewares/ST/STM32_WPAN/interface/patterns/ble_thread/tl/tl_mbox.c ****   TL_RefTable.p_sys_table = &TL_SysTable;
 139              		.loc 1 96 31 is_stmt 0 view .LVU26
 140 0014 0C4A     		ldr	r2, .L11+20
 141 0016 5A62     		str	r2, [r3, #36]
  97:Middlewares/ST/STM32_WPAN/interface/patterns/ble_thread/tl/tl_mbox.c ****   TL_RefTable.p_mem_manager_table = &TL_MemManagerTable;
 142              		.loc 1 97 3 is_stmt 1 view .LVU27
  97:Middlewares/ST/STM32_WPAN/interface/patterns/ble_thread/tl/tl_mbox.c ****   TL_RefTable.p_mem_manager_table = &TL_MemManagerTable;
 143              		.loc 1 97 27 is_stmt 0 view .LVU28
 144 0018 0C4A     		ldr	r2, .L11+24
 145 001a DA60     		str	r2, [r3, #12]
  98:Middlewares/ST/STM32_WPAN/interface/patterns/ble_thread/tl/tl_mbox.c ****   TL_RefTable.p_traces_table = &TL_TracesTable;
 146              		.loc 1 98 3 is_stmt 1 view .LVU29
  98:Middlewares/ST/STM32_WPAN/interface/patterns/ble_thread/tl/tl_mbox.c ****   TL_RefTable.p_traces_table = &TL_TracesTable;
 147              		.loc 1 98 35 is_stmt 0 view .LVU30
 148 001c 0C4A     		ldr	r2, .L11+28
ARM GAS  C:\Users\Nathan\AppData\Local\Temp\ccoptJjL.s 			page 15


 149 001e 1A61     		str	r2, [r3, #16]
  99:Middlewares/ST/STM32_WPAN/interface/patterns/ble_thread/tl/tl_mbox.c ****   TL_RefTable.p_mac_802_15_4_table = &TL_Mac_802_15_4_Table;
 150              		.loc 1 99 3 is_stmt 1 view .LVU31
  99:Middlewares/ST/STM32_WPAN/interface/patterns/ble_thread/tl/tl_mbox.c ****   TL_RefTable.p_mac_802_15_4_table = &TL_Mac_802_15_4_Table;
 151              		.loc 1 99 30 is_stmt 0 view .LVU32
 152 0020 0C4A     		ldr	r2, .L11+32
 153 0022 5A61     		str	r2, [r3, #20]
 100:Middlewares/ST/STM32_WPAN/interface/patterns/ble_thread/tl/tl_mbox.c ****   TL_RefTable.p_zigbee_table = &TL_Zigbee_Table;
 154              		.loc 1 100 3 is_stmt 1 view .LVU33
 100:Middlewares/ST/STM32_WPAN/interface/patterns/ble_thread/tl/tl_mbox.c ****   TL_RefTable.p_zigbee_table = &TL_Zigbee_Table;
 155              		.loc 1 100 36 is_stmt 0 view .LVU34
 156 0024 0C4A     		ldr	r2, .L11+36
 157 0026 9A61     		str	r2, [r3, #24]
 101:Middlewares/ST/STM32_WPAN/interface/patterns/ble_thread/tl/tl_mbox.c ****   HW_IPCC_Init();
 158              		.loc 1 101 3 is_stmt 1 view .LVU35
 101:Middlewares/ST/STM32_WPAN/interface/patterns/ble_thread/tl/tl_mbox.c ****   HW_IPCC_Init();
 159              		.loc 1 101 30 is_stmt 0 view .LVU36
 160 0028 0C4A     		ldr	r2, .L11+40
 161 002a DA61     		str	r2, [r3, #28]
 102:Middlewares/ST/STM32_WPAN/interface/patterns/ble_thread/tl/tl_mbox.c **** 
 162              		.loc 1 102 3 is_stmt 1 view .LVU37
 163 002c FFF7FEFF 		bl	HW_IPCC_Init
 164              	.LVL4:
 104:Middlewares/ST/STM32_WPAN/interface/patterns/ble_thread/tl/tl_mbox.c **** }
 165              		.loc 1 104 3 view .LVU38
 105:Middlewares/ST/STM32_WPAN/interface/patterns/ble_thread/tl/tl_mbox.c **** 
 166              		.loc 1 105 1 is_stmt 0 view .LVU39
 167 0030 08BD     		pop	{r3, pc}
 168              	.L12:
 169 0032 00BF     		.align	2
 170              	.L11:
 171 0034 00000000 		.word	TL_RefTable
 172 0038 90000000 		.word	TL_DeviceInfoTable
 173 003c 80000000 		.word	TL_BleTable
 174 0040 70000000 		.word	TL_ThreadTable
 175 0044 68000000 		.word	TL_LldTestsTable
 176 0048 60000000 		.word	TL_BleLldTable
 177 004c 58000000 		.word	TL_SysTable
 178 0050 3C000000 		.word	TL_MemManagerTable
 179 0054 38000000 		.word	TL_TracesTable
 180 0058 2C000000 		.word	TL_Mac_802_15_4_Table
 181 005c 20000000 		.word	TL_Zigbee_Table
 182              		.cfi_endproc
 183              	.LFE1416:
 185              		.section	.text.TL_BLE_Init,"ax",%progbits
 186              		.align	1
 187              		.global	TL_BLE_Init
 188              		.syntax unified
 189              		.thumb
 190              		.thumb_func
 192              	TL_BLE_Init:
 193              	.LVL5:
 194              	.LFB1417:
 111:Middlewares/ST/STM32_WPAN/interface/patterns/ble_thread/tl/tl_mbox.c ****   MB_BleTable_t  * p_bletable;
 195              		.loc 1 111 1 is_stmt 1 view -0
 196              		.cfi_startproc
 197              		@ args = 0, pretend = 0, frame = 0
ARM GAS  C:\Users\Nathan\AppData\Local\Temp\ccoptJjL.s 			page 16


 198              		@ frame_needed = 0, uses_anonymous_args = 0
 111:Middlewares/ST/STM32_WPAN/interface/patterns/ble_thread/tl/tl_mbox.c ****   MB_BleTable_t  * p_bletable;
 199              		.loc 1 111 1 is_stmt 0 view .LVU41
 200 0000 38B5     		push	{r3, r4, r5, lr}
 201              		.cfi_def_cfa_offset 16
 202              		.cfi_offset 3, -16
 203              		.cfi_offset 4, -12
 204              		.cfi_offset 5, -8
 205              		.cfi_offset 14, -4
 206 0002 0446     		mov	r4, r0
 112:Middlewares/ST/STM32_WPAN/interface/patterns/ble_thread/tl/tl_mbox.c **** 
 207              		.loc 1 112 3 is_stmt 1 view .LVU42
 114:Middlewares/ST/STM32_WPAN/interface/patterns/ble_thread/tl/tl_mbox.c **** 
 208              		.loc 1 114 3 view .LVU43
 209              	.LVL6:
 116:Middlewares/ST/STM32_WPAN/interface/patterns/ble_thread/tl/tl_mbox.c **** 
 210              		.loc 1 116 3 view .LVU44
 211 0004 0B4D     		ldr	r5, .L15
 212 0006 2846     		mov	r0, r5
 213              	.LVL7:
 116:Middlewares/ST/STM32_WPAN/interface/patterns/ble_thread/tl/tl_mbox.c **** 
 214              		.loc 1 116 3 is_stmt 0 view .LVU45
 215 0008 FFF7FEFF 		bl	LST_init_head
 216              	.LVL8:
 118:Middlewares/ST/STM32_WPAN/interface/patterns/ble_thread/tl/tl_mbox.c **** 
 217              		.loc 1 118 3 is_stmt 1 view .LVU46
 118:Middlewares/ST/STM32_WPAN/interface/patterns/ble_thread/tl/tl_mbox.c **** 
 218              		.loc 1 118 14 is_stmt 0 view .LVU47
 219 000c 0A4B     		ldr	r3, .L15+4
 220 000e 5B68     		ldr	r3, [r3, #4]
 221              	.LVL9:
 120:Middlewares/ST/STM32_WPAN/interface/patterns/ble_thread/tl/tl_mbox.c ****   p_bletable->phci_acl_data_buffer = pInitHciConf->p_AclDataBuffer;
 222              		.loc 1 120 3 is_stmt 1 view .LVU48
 120:Middlewares/ST/STM32_WPAN/interface/patterns/ble_thread/tl/tl_mbox.c ****   p_bletable->phci_acl_data_buffer = pInitHciConf->p_AclDataBuffer;
 223              		.loc 1 120 41 is_stmt 0 view .LVU49
 224 0010 A268     		ldr	r2, [r4, #8]
 120:Middlewares/ST/STM32_WPAN/interface/patterns/ble_thread/tl/tl_mbox.c ****   p_bletable->phci_acl_data_buffer = pInitHciConf->p_AclDataBuffer;
 225              		.loc 1 120 27 view .LVU50
 226 0012 1A60     		str	r2, [r3]
 121:Middlewares/ST/STM32_WPAN/interface/patterns/ble_thread/tl/tl_mbox.c ****   p_bletable->pcs_buffer  = (uint8_t*)CsBuffer;
 227              		.loc 1 121 3 is_stmt 1 view .LVU51
 121:Middlewares/ST/STM32_WPAN/interface/patterns/ble_thread/tl/tl_mbox.c ****   p_bletable->pcs_buffer  = (uint8_t*)CsBuffer;
 228              		.loc 1 121 50 is_stmt 0 view .LVU52
 229 0014 E268     		ldr	r2, [r4, #12]
 121:Middlewares/ST/STM32_WPAN/interface/patterns/ble_thread/tl/tl_mbox.c ****   p_bletable->pcs_buffer  = (uint8_t*)CsBuffer;
 230              		.loc 1 121 36 view .LVU53
 231 0016 DA60     		str	r2, [r3, #12]
 122:Middlewares/ST/STM32_WPAN/interface/patterns/ble_thread/tl/tl_mbox.c ****   p_bletable->pevt_queue  = (uint8_t*)&EvtQueue;
 232              		.loc 1 122 3 is_stmt 1 view .LVU54
 122:Middlewares/ST/STM32_WPAN/interface/patterns/ble_thread/tl/tl_mbox.c ****   p_bletable->pevt_queue  = (uint8_t*)&EvtQueue;
 233              		.loc 1 122 27 is_stmt 0 view .LVU55
 234 0018 084A     		ldr	r2, .L15+8
 235 001a 5A60     		str	r2, [r3, #4]
 123:Middlewares/ST/STM32_WPAN/interface/patterns/ble_thread/tl/tl_mbox.c **** 
 236              		.loc 1 123 3 is_stmt 1 view .LVU56
 123:Middlewares/ST/STM32_WPAN/interface/patterns/ble_thread/tl/tl_mbox.c **** 
 237              		.loc 1 123 27 is_stmt 0 view .LVU57
ARM GAS  C:\Users\Nathan\AppData\Local\Temp\ccoptJjL.s 			page 17


 238 001c 9D60     		str	r5, [r3, #8]
 125:Middlewares/ST/STM32_WPAN/interface/patterns/ble_thread/tl/tl_mbox.c **** 
 239              		.loc 1 125 3 is_stmt 1 view .LVU58
 240 001e FFF7FEFF 		bl	HW_IPCC_BLE_Init
 241              	.LVL10:
 127:Middlewares/ST/STM32_WPAN/interface/patterns/ble_thread/tl/tl_mbox.c ****   BLE_IoBusAclDataTxAck = pInitHciConf->IoBusAclDataTxAck;
 242              		.loc 1 127 3 view .LVU59
 127:Middlewares/ST/STM32_WPAN/interface/patterns/ble_thread/tl/tl_mbox.c ****   BLE_IoBusAclDataTxAck = pInitHciConf->IoBusAclDataTxAck;
 243              		.loc 1 127 46 is_stmt 0 view .LVU60
 244 0022 2268     		ldr	r2, [r4]
 127:Middlewares/ST/STM32_WPAN/interface/patterns/ble_thread/tl/tl_mbox.c ****   BLE_IoBusAclDataTxAck = pInitHciConf->IoBusAclDataTxAck;
 245              		.loc 1 127 32 view .LVU61
 246 0024 064B     		ldr	r3, .L15+12
 247 0026 1A60     		str	r2, [r3]
 128:Middlewares/ST/STM32_WPAN/interface/patterns/ble_thread/tl/tl_mbox.c **** 
 248              		.loc 1 128 3 is_stmt 1 view .LVU62
 128:Middlewares/ST/STM32_WPAN/interface/patterns/ble_thread/tl/tl_mbox.c **** 
 249              		.loc 1 128 39 is_stmt 0 view .LVU63
 250 0028 6268     		ldr	r2, [r4, #4]
 128:Middlewares/ST/STM32_WPAN/interface/patterns/ble_thread/tl/tl_mbox.c **** 
 251              		.loc 1 128 25 view .LVU64
 252 002a 064B     		ldr	r3, .L15+16
 253 002c 1A60     		str	r2, [r3]
 130:Middlewares/ST/STM32_WPAN/interface/patterns/ble_thread/tl/tl_mbox.c **** }
 254              		.loc 1 130 3 is_stmt 1 view .LVU65
 131:Middlewares/ST/STM32_WPAN/interface/patterns/ble_thread/tl/tl_mbox.c **** 
 255              		.loc 1 131 1 is_stmt 0 view .LVU66
 256 002e 0020     		movs	r0, #0
 257 0030 38BD     		pop	{r3, r4, r5, pc}
 258              	.LVL11:
 259              	.L16:
 131:Middlewares/ST/STM32_WPAN/interface/patterns/ble_thread/tl/tl_mbox.c **** 
 260              		.loc 1 131 1 view .LVU67
 261 0032 00BF     		.align	2
 262              	.L15:
 263 0034 08000000 		.word	EvtQueue
 264 0038 00000000 		.word	TL_RefTable
 265 003c 00000000 		.word	CsBuffer
 266 0040 00000000 		.word	BLE_IoBusEvtCallBackFunction
 267 0044 00000000 		.word	BLE_IoBusAclDataTxAck
 268              		.cfi_endproc
 269              	.LFE1417:
 271              		.section	.text.TL_BLE_SendCmd,"ax",%progbits
 272              		.align	1
 273              		.global	TL_BLE_SendCmd
 274              		.syntax unified
 275              		.thumb
 276              		.thumb_func
 278              	TL_BLE_SendCmd:
 279              	.LVL12:
 280              	.LFB1418:
 134:Middlewares/ST/STM32_WPAN/interface/patterns/ble_thread/tl/tl_mbox.c ****   (void)(buffer);
 281              		.loc 1 134 1 is_stmt 1 view -0
 282              		.cfi_startproc
 283              		@ args = 0, pretend = 0, frame = 0
 284              		@ frame_needed = 0, uses_anonymous_args = 0
 134:Middlewares/ST/STM32_WPAN/interface/patterns/ble_thread/tl/tl_mbox.c ****   (void)(buffer);
ARM GAS  C:\Users\Nathan\AppData\Local\Temp\ccoptJjL.s 			page 18


 285              		.loc 1 134 1 is_stmt 0 view .LVU69
 286 0000 08B5     		push	{r3, lr}
 287              		.cfi_def_cfa_offset 8
 288              		.cfi_offset 3, -8
 289              		.cfi_offset 14, -4
 135:Middlewares/ST/STM32_WPAN/interface/patterns/ble_thread/tl/tl_mbox.c ****   (void)(size);
 290              		.loc 1 135 3 is_stmt 1 view .LVU70
 136:Middlewares/ST/STM32_WPAN/interface/patterns/ble_thread/tl/tl_mbox.c **** 
 291              		.loc 1 136 3 view .LVU71
 138:Middlewares/ST/STM32_WPAN/interface/patterns/ble_thread/tl/tl_mbox.c **** 
 292              		.loc 1 138 3 view .LVU72
 138:Middlewares/ST/STM32_WPAN/interface/patterns/ble_thread/tl/tl_mbox.c **** 
 293              		.loc 1 138 33 is_stmt 0 view .LVU73
 294 0002 054B     		ldr	r3, .L19
 295 0004 5A68     		ldr	r2, [r3, #4]
 138:Middlewares/ST/STM32_WPAN/interface/patterns/ble_thread/tl/tl_mbox.c **** 
 296              		.loc 1 138 45 view .LVU74
 297 0006 1268     		ldr	r2, [r2]
 138:Middlewares/ST/STM32_WPAN/interface/patterns/ble_thread/tl/tl_mbox.c **** 
 298              		.loc 1 138 77 view .LVU75
 299 0008 0121     		movs	r1, #1
 300              	.LVL13:
 138:Middlewares/ST/STM32_WPAN/interface/patterns/ble_thread/tl/tl_mbox.c **** 
 301              		.loc 1 138 77 view .LVU76
 302 000a 1172     		strb	r1, [r2, #8]
 140:Middlewares/ST/STM32_WPAN/interface/patterns/ble_thread/tl/tl_mbox.c **** 
 303              		.loc 1 140 3 is_stmt 1 view .LVU77
 140:Middlewares/ST/STM32_WPAN/interface/patterns/ble_thread/tl/tl_mbox.c **** 
 304              		.loc 1 140 44 is_stmt 0 view .LVU78
 305 000c 5B68     		ldr	r3, [r3, #4]
 142:Middlewares/ST/STM32_WPAN/interface/patterns/ble_thread/tl/tl_mbox.c **** 
 306              		.loc 1 142 3 is_stmt 1 view .LVU79
 307 000e FFF7FEFF 		bl	HW_IPCC_BLE_SendCmd
 308              	.LVL14:
 144:Middlewares/ST/STM32_WPAN/interface/patterns/ble_thread/tl/tl_mbox.c **** }
 309              		.loc 1 144 3 view .LVU80
 145:Middlewares/ST/STM32_WPAN/interface/patterns/ble_thread/tl/tl_mbox.c **** 
 310              		.loc 1 145 1 is_stmt 0 view .LVU81
 311 0012 0020     		movs	r0, #0
 312 0014 08BD     		pop	{r3, pc}
 313              	.L20:
 314 0016 00BF     		.align	2
 315              	.L19:
 316 0018 00000000 		.word	TL_RefTable
 317              		.cfi_endproc
 318              	.LFE1418:
 320              		.section	.text.HW_IPCC_BLE_RxEvtNot,"ax",%progbits
 321              		.align	1
 322              		.global	HW_IPCC_BLE_RxEvtNot
 323              		.syntax unified
 324              		.thumb
 325              		.thumb_func
 327              	HW_IPCC_BLE_RxEvtNot:
 328              	.LFB1419:
 148:Middlewares/ST/STM32_WPAN/interface/patterns/ble_thread/tl/tl_mbox.c ****   TL_EvtPacket_t *phcievt;
 329              		.loc 1 148 1 is_stmt 1 view -0
 330              		.cfi_startproc
ARM GAS  C:\Users\Nathan\AppData\Local\Temp\ccoptJjL.s 			page 19


 331              		@ args = 0, pretend = 0, frame = 8
 332              		@ frame_needed = 0, uses_anonymous_args = 0
 333 0000 00B5     		push	{lr}
 334              		.cfi_def_cfa_offset 4
 335              		.cfi_offset 14, -4
 336 0002 83B0     		sub	sp, sp, #12
 337              		.cfi_def_cfa_offset 16
 149:Middlewares/ST/STM32_WPAN/interface/patterns/ble_thread/tl/tl_mbox.c **** 
 338              		.loc 1 149 3 view .LVU83
 151:Middlewares/ST/STM32_WPAN/interface/patterns/ble_thread/tl/tl_mbox.c ****   {
 339              		.loc 1 151 3 view .LVU84
 151:Middlewares/ST/STM32_WPAN/interface/patterns/ble_thread/tl/tl_mbox.c ****   {
 340              		.loc 1 151 8 is_stmt 0 view .LVU85
 341 0004 07E0     		b	.L22
 342              	.L23:
 153:Middlewares/ST/STM32_WPAN/interface/patterns/ble_thread/tl/tl_mbox.c **** 
 343              		.loc 1 153 5 is_stmt 1 view .LVU86
 344 0006 01A9     		add	r1, sp, #4
 345 0008 0748     		ldr	r0, .L25
 346 000a FFF7FEFF 		bl	LST_remove_head
 347              	.LVL15:
 155:Middlewares/ST/STM32_WPAN/interface/patterns/ble_thread/tl/tl_mbox.c ****     {
 348              		.loc 1 155 5 view .LVU87
 161:Middlewares/ST/STM32_WPAN/interface/patterns/ble_thread/tl/tl_mbox.c ****     }
 349              		.loc 1 161 7 view .LVU88
 164:Middlewares/ST/STM32_WPAN/interface/patterns/ble_thread/tl/tl_mbox.c ****   }
 350              		.loc 1 164 5 view .LVU89
 351 000e 074B     		ldr	r3, .L25+4
 352 0010 1B68     		ldr	r3, [r3]
 353 0012 0198     		ldr	r0, [sp, #4]
 354 0014 9847     		blx	r3
 355              	.LVL16:
 356              	.L22:
 151:Middlewares/ST/STM32_WPAN/interface/patterns/ble_thread/tl/tl_mbox.c ****   {
 357              		.loc 1 151 33 view .LVU90
 151:Middlewares/ST/STM32_WPAN/interface/patterns/ble_thread/tl/tl_mbox.c ****   {
 358              		.loc 1 151 9 is_stmt 0 view .LVU91
 359 0016 0448     		ldr	r0, .L25
 360 0018 FFF7FEFF 		bl	LST_is_empty
 361              	.LVL17:
 151:Middlewares/ST/STM32_WPAN/interface/patterns/ble_thread/tl/tl_mbox.c ****   {
 362              		.loc 1 151 33 discriminator 1 view .LVU92
 363 001c 0028     		cmp	r0, #0
 364 001e F2D0     		beq	.L23
 168:Middlewares/ST/STM32_WPAN/interface/patterns/ble_thread/tl/tl_mbox.c **** 
 365              		.loc 1 168 1 view .LVU93
 366 0020 03B0     		add	sp, sp, #12
 367              		.cfi_def_cfa_offset 4
 368              		@ sp needed
 369 0022 5DF804FB 		ldr	pc, [sp], #4
 370              	.L26:
 371 0026 00BF     		.align	2
 372              	.L25:
 373 0028 08000000 		.word	EvtQueue
 374 002c 00000000 		.word	BLE_IoBusEvtCallBackFunction
 375              		.cfi_endproc
 376              	.LFE1419:
ARM GAS  C:\Users\Nathan\AppData\Local\Temp\ccoptJjL.s 			page 20


 378              		.section	.text.TL_BLE_SendAclData,"ax",%progbits
 379              		.align	1
 380              		.global	TL_BLE_SendAclData
 381              		.syntax unified
 382              		.thumb
 383              		.thumb_func
 385              	TL_BLE_SendAclData:
 386              	.LVL18:
 387              	.LFB1420:
 171:Middlewares/ST/STM32_WPAN/interface/patterns/ble_thread/tl/tl_mbox.c ****   (void)(buffer);
 388              		.loc 1 171 1 is_stmt 1 view -0
 389              		.cfi_startproc
 390              		@ args = 0, pretend = 0, frame = 0
 391              		@ frame_needed = 0, uses_anonymous_args = 0
 171:Middlewares/ST/STM32_WPAN/interface/patterns/ble_thread/tl/tl_mbox.c ****   (void)(buffer);
 392              		.loc 1 171 1 is_stmt 0 view .LVU95
 393 0000 08B5     		push	{r3, lr}
 394              		.cfi_def_cfa_offset 8
 395              		.cfi_offset 3, -8
 396              		.cfi_offset 14, -4
 172:Middlewares/ST/STM32_WPAN/interface/patterns/ble_thread/tl/tl_mbox.c ****   (void)(size);
 397              		.loc 1 172 3 is_stmt 1 view .LVU96
 173:Middlewares/ST/STM32_WPAN/interface/patterns/ble_thread/tl/tl_mbox.c **** 
 398              		.loc 1 173 3 view .LVU97
 175:Middlewares/ST/STM32_WPAN/interface/patterns/ble_thread/tl/tl_mbox.c **** 
 399              		.loc 1 175 3 view .LVU98
 175:Middlewares/ST/STM32_WPAN/interface/patterns/ble_thread/tl/tl_mbox.c **** 
 400              		.loc 1 175 38 is_stmt 0 view .LVU99
 401 0002 044B     		ldr	r3, .L29
 402 0004 5B68     		ldr	r3, [r3, #4]
 175:Middlewares/ST/STM32_WPAN/interface/patterns/ble_thread/tl/tl_mbox.c **** 
 403              		.loc 1 175 50 view .LVU100
 404 0006 DB68     		ldr	r3, [r3, #12]
 175:Middlewares/ST/STM32_WPAN/interface/patterns/ble_thread/tl/tl_mbox.c **** 
 405              		.loc 1 175 95 view .LVU101
 406 0008 0222     		movs	r2, #2
 407 000a 1A72     		strb	r2, [r3, #8]
 177:Middlewares/ST/STM32_WPAN/interface/patterns/ble_thread/tl/tl_mbox.c **** 
 408              		.loc 1 177 3 is_stmt 1 view .LVU102
 409 000c FFF7FEFF 		bl	HW_IPCC_BLE_SendAclData
 410              	.LVL19:
 179:Middlewares/ST/STM32_WPAN/interface/patterns/ble_thread/tl/tl_mbox.c **** }
 411              		.loc 1 179 3 view .LVU103
 180:Middlewares/ST/STM32_WPAN/interface/patterns/ble_thread/tl/tl_mbox.c **** 
 412              		.loc 1 180 1 is_stmt 0 view .LVU104
 413 0010 0020     		movs	r0, #0
 414 0012 08BD     		pop	{r3, pc}
 415              	.L30:
 416              		.align	2
 417              	.L29:
 418 0014 00000000 		.word	TL_RefTable
 419              		.cfi_endproc
 420              	.LFE1420:
 422              		.section	.text.HW_IPCC_BLE_AclDataAckNot,"ax",%progbits
 423              		.align	1
 424              		.global	HW_IPCC_BLE_AclDataAckNot
 425              		.syntax unified
ARM GAS  C:\Users\Nathan\AppData\Local\Temp\ccoptJjL.s 			page 21


 426              		.thumb
 427              		.thumb_func
 429              	HW_IPCC_BLE_AclDataAckNot:
 430              	.LFB1421:
 183:Middlewares/ST/STM32_WPAN/interface/patterns/ble_thread/tl/tl_mbox.c ****   BLE_IoBusAclDataTxAck( );
 431              		.loc 1 183 1 is_stmt 1 view -0
 432              		.cfi_startproc
 433              		@ args = 0, pretend = 0, frame = 0
 434              		@ frame_needed = 0, uses_anonymous_args = 0
 435 0000 08B5     		push	{r3, lr}
 436              		.cfi_def_cfa_offset 8
 437              		.cfi_offset 3, -8
 438              		.cfi_offset 14, -4
 184:Middlewares/ST/STM32_WPAN/interface/patterns/ble_thread/tl/tl_mbox.c **** 
 439              		.loc 1 184 3 view .LVU106
 440 0002 024B     		ldr	r3, .L33
 441 0004 1B68     		ldr	r3, [r3]
 442 0006 9847     		blx	r3
 443              	.LVL20:
 186:Middlewares/ST/STM32_WPAN/interface/patterns/ble_thread/tl/tl_mbox.c **** }
 444              		.loc 1 186 3 view .LVU107
 187:Middlewares/ST/STM32_WPAN/interface/patterns/ble_thread/tl/tl_mbox.c **** 
 445              		.loc 1 187 1 is_stmt 0 view .LVU108
 446 0008 08BD     		pop	{r3, pc}
 447              	.L34:
 448 000a 00BF     		.align	2
 449              	.L33:
 450 000c 00000000 		.word	BLE_IoBusAclDataTxAck
 451              		.cfi_endproc
 452              	.LFE1421:
 454              		.section	.text.TL_SYS_Init,"ax",%progbits
 455              		.align	1
 456              		.global	TL_SYS_Init
 457              		.syntax unified
 458              		.thumb
 459              		.thumb_func
 461              	TL_SYS_Init:
 462              	.LVL21:
 463              	.LFB1422:
 193:Middlewares/ST/STM32_WPAN/interface/patterns/ble_thread/tl/tl_mbox.c ****   MB_SysTable_t  * p_systable;
 464              		.loc 1 193 1 is_stmt 1 view -0
 465              		.cfi_startproc
 466              		@ args = 0, pretend = 0, frame = 0
 467              		@ frame_needed = 0, uses_anonymous_args = 0
 193:Middlewares/ST/STM32_WPAN/interface/patterns/ble_thread/tl/tl_mbox.c ****   MB_SysTable_t  * p_systable;
 468              		.loc 1 193 1 is_stmt 0 view .LVU110
 469 0000 38B5     		push	{r3, r4, r5, lr}
 470              		.cfi_def_cfa_offset 16
 471              		.cfi_offset 3, -16
 472              		.cfi_offset 4, -12
 473              		.cfi_offset 5, -8
 474              		.cfi_offset 14, -4
 475 0002 0446     		mov	r4, r0
 194:Middlewares/ST/STM32_WPAN/interface/patterns/ble_thread/tl/tl_mbox.c **** 
 476              		.loc 1 194 3 is_stmt 1 view .LVU111
 196:Middlewares/ST/STM32_WPAN/interface/patterns/ble_thread/tl/tl_mbox.c **** 
 477              		.loc 1 196 3 view .LVU112
ARM GAS  C:\Users\Nathan\AppData\Local\Temp\ccoptJjL.s 			page 22


 478              	.LVL22:
 198:Middlewares/ST/STM32_WPAN/interface/patterns/ble_thread/tl/tl_mbox.c ****   p_systable = TL_RefTable.p_sys_table;
 479              		.loc 1 198 3 view .LVU113
 480 0004 094D     		ldr	r5, .L37
 481 0006 2846     		mov	r0, r5
 482              	.LVL23:
 198:Middlewares/ST/STM32_WPAN/interface/patterns/ble_thread/tl/tl_mbox.c ****   p_systable = TL_RefTable.p_sys_table;
 483              		.loc 1 198 3 is_stmt 0 view .LVU114
 484 0008 FFF7FEFF 		bl	LST_init_head
 485              	.LVL24:
 199:Middlewares/ST/STM32_WPAN/interface/patterns/ble_thread/tl/tl_mbox.c ****   p_systable->pcmd_buffer = pInitHciConf->p_cmdbuffer;
 486              		.loc 1 199 3 is_stmt 1 view .LVU115
 199:Middlewares/ST/STM32_WPAN/interface/patterns/ble_thread/tl/tl_mbox.c ****   p_systable->pcmd_buffer = pInitHciConf->p_cmdbuffer;
 487              		.loc 1 199 14 is_stmt 0 view .LVU116
 488 000c 084B     		ldr	r3, .L37+4
 489 000e DB68     		ldr	r3, [r3, #12]
 490              	.LVL25:
 200:Middlewares/ST/STM32_WPAN/interface/patterns/ble_thread/tl/tl_mbox.c ****   p_systable->sys_queue = (uint8_t*)&SystemEvtQueue;
 491              		.loc 1 200 3 is_stmt 1 view .LVU117
 200:Middlewares/ST/STM32_WPAN/interface/patterns/ble_thread/tl/tl_mbox.c ****   p_systable->sys_queue = (uint8_t*)&SystemEvtQueue;
 492              		.loc 1 200 41 is_stmt 0 view .LVU118
 493 0010 A268     		ldr	r2, [r4, #8]
 200:Middlewares/ST/STM32_WPAN/interface/patterns/ble_thread/tl/tl_mbox.c ****   p_systable->sys_queue = (uint8_t*)&SystemEvtQueue;
 494              		.loc 1 200 27 view .LVU119
 495 0012 1A60     		str	r2, [r3]
 201:Middlewares/ST/STM32_WPAN/interface/patterns/ble_thread/tl/tl_mbox.c **** 
 496              		.loc 1 201 3 is_stmt 1 view .LVU120
 201:Middlewares/ST/STM32_WPAN/interface/patterns/ble_thread/tl/tl_mbox.c **** 
 497              		.loc 1 201 25 is_stmt 0 view .LVU121
 498 0014 5D60     		str	r5, [r3, #4]
 203:Middlewares/ST/STM32_WPAN/interface/patterns/ble_thread/tl/tl_mbox.c **** 
 499              		.loc 1 203 3 is_stmt 1 view .LVU122
 500 0016 FFF7FEFF 		bl	HW_IPCC_SYS_Init
 501              	.LVL26:
 205:Middlewares/ST/STM32_WPAN/interface/patterns/ble_thread/tl/tl_mbox.c ****   SYS_EVT_IoBusCallBackFunction = pInitHciConf->IoBusCallBackUserEvt;
 502              		.loc 1 205 3 view .LVU123
 205:Middlewares/ST/STM32_WPAN/interface/patterns/ble_thread/tl/tl_mbox.c ****   SYS_EVT_IoBusCallBackFunction = pInitHciConf->IoBusCallBackUserEvt;
 503              		.loc 1 205 47 is_stmt 0 view .LVU124
 504 001a 2268     		ldr	r2, [r4]
 205:Middlewares/ST/STM32_WPAN/interface/patterns/ble_thread/tl/tl_mbox.c ****   SYS_EVT_IoBusCallBackFunction = pInitHciConf->IoBusCallBackUserEvt;
 505              		.loc 1 205 33 view .LVU125
 506 001c 054B     		ldr	r3, .L37+8
 507 001e 1A60     		str	r2, [r3]
 206:Middlewares/ST/STM32_WPAN/interface/patterns/ble_thread/tl/tl_mbox.c **** 
 508              		.loc 1 206 3 is_stmt 1 view .LVU126
 206:Middlewares/ST/STM32_WPAN/interface/patterns/ble_thread/tl/tl_mbox.c **** 
 509              		.loc 1 206 47 is_stmt 0 view .LVU127
 510 0020 6268     		ldr	r2, [r4, #4]
 206:Middlewares/ST/STM32_WPAN/interface/patterns/ble_thread/tl/tl_mbox.c **** 
 511              		.loc 1 206 33 view .LVU128
 512 0022 054B     		ldr	r3, .L37+12
 513 0024 1A60     		str	r2, [r3]
 208:Middlewares/ST/STM32_WPAN/interface/patterns/ble_thread/tl/tl_mbox.c **** }
 514              		.loc 1 208 3 is_stmt 1 view .LVU129
 209:Middlewares/ST/STM32_WPAN/interface/patterns/ble_thread/tl/tl_mbox.c **** 
 515              		.loc 1 209 1 is_stmt 0 view .LVU130
 516 0026 0020     		movs	r0, #0
ARM GAS  C:\Users\Nathan\AppData\Local\Temp\ccoptJjL.s 			page 23


 517 0028 38BD     		pop	{r3, r4, r5, pc}
 518              	.LVL27:
 519              	.L38:
 209:Middlewares/ST/STM32_WPAN/interface/patterns/ble_thread/tl/tl_mbox.c **** 
 520              		.loc 1 209 1 view .LVU131
 521 002a 00BF     		.align	2
 522              	.L37:
 523 002c 00000000 		.word	SystemEvtQueue
 524 0030 00000000 		.word	TL_RefTable
 525 0034 00000000 		.word	SYS_CMD_IoBusCallBackFunction
 526 0038 00000000 		.word	SYS_EVT_IoBusCallBackFunction
 527              		.cfi_endproc
 528              	.LFE1422:
 530              		.section	.text.TL_SYS_SendCmd,"ax",%progbits
 531              		.align	1
 532              		.global	TL_SYS_SendCmd
 533              		.syntax unified
 534              		.thumb
 535              		.thumb_func
 537              	TL_SYS_SendCmd:
 538              	.LVL28:
 539              	.LFB1423:
 212:Middlewares/ST/STM32_WPAN/interface/patterns/ble_thread/tl/tl_mbox.c ****   (void)(buffer);
 540              		.loc 1 212 1 is_stmt 1 view -0
 541              		.cfi_startproc
 542              		@ args = 0, pretend = 0, frame = 0
 543              		@ frame_needed = 0, uses_anonymous_args = 0
 212:Middlewares/ST/STM32_WPAN/interface/patterns/ble_thread/tl/tl_mbox.c ****   (void)(buffer);
 544              		.loc 1 212 1 is_stmt 0 view .LVU133
 545 0000 08B5     		push	{r3, lr}
 546              		.cfi_def_cfa_offset 8
 547              		.cfi_offset 3, -8
 548              		.cfi_offset 14, -4
 213:Middlewares/ST/STM32_WPAN/interface/patterns/ble_thread/tl/tl_mbox.c ****   (void)(size);
 549              		.loc 1 213 3 is_stmt 1 view .LVU134
 214:Middlewares/ST/STM32_WPAN/interface/patterns/ble_thread/tl/tl_mbox.c **** 
 550              		.loc 1 214 3 view .LVU135
 216:Middlewares/ST/STM32_WPAN/interface/patterns/ble_thread/tl/tl_mbox.c **** 
 551              		.loc 1 216 3 view .LVU136
 216:Middlewares/ST/STM32_WPAN/interface/patterns/ble_thread/tl/tl_mbox.c **** 
 552              		.loc 1 216 34 is_stmt 0 view .LVU137
 553 0002 054B     		ldr	r3, .L41
 554 0004 DA68     		ldr	r2, [r3, #12]
 216:Middlewares/ST/STM32_WPAN/interface/patterns/ble_thread/tl/tl_mbox.c **** 
 555              		.loc 1 216 46 view .LVU138
 556 0006 1268     		ldr	r2, [r2]
 216:Middlewares/ST/STM32_WPAN/interface/patterns/ble_thread/tl/tl_mbox.c **** 
 557              		.loc 1 216 78 view .LVU139
 558 0008 1021     		movs	r1, #16
 559              	.LVL29:
 216:Middlewares/ST/STM32_WPAN/interface/patterns/ble_thread/tl/tl_mbox.c **** 
 560              		.loc 1 216 78 view .LVU140
 561 000a 1172     		strb	r1, [r2, #8]
 218:Middlewares/ST/STM32_WPAN/interface/patterns/ble_thread/tl/tl_mbox.c **** 
 562              		.loc 1 218 3 is_stmt 1 view .LVU141
 218:Middlewares/ST/STM32_WPAN/interface/patterns/ble_thread/tl/tl_mbox.c **** 
 563              		.loc 1 218 44 is_stmt 0 view .LVU142
ARM GAS  C:\Users\Nathan\AppData\Local\Temp\ccoptJjL.s 			page 24


 564 000c DB68     		ldr	r3, [r3, #12]
 220:Middlewares/ST/STM32_WPAN/interface/patterns/ble_thread/tl/tl_mbox.c **** 
 565              		.loc 1 220 3 is_stmt 1 view .LVU143
 566 000e FFF7FEFF 		bl	HW_IPCC_SYS_SendCmd
 567              	.LVL30:
 222:Middlewares/ST/STM32_WPAN/interface/patterns/ble_thread/tl/tl_mbox.c **** }
 568              		.loc 1 222 3 view .LVU144
 223:Middlewares/ST/STM32_WPAN/interface/patterns/ble_thread/tl/tl_mbox.c **** 
 569              		.loc 1 223 1 is_stmt 0 view .LVU145
 570 0012 0020     		movs	r0, #0
 571 0014 08BD     		pop	{r3, pc}
 572              	.L42:
 573 0016 00BF     		.align	2
 574              	.L41:
 575 0018 00000000 		.word	TL_RefTable
 576              		.cfi_endproc
 577              	.LFE1423:
 579              		.section	.text.HW_IPCC_SYS_CmdEvtNot,"ax",%progbits
 580              		.align	1
 581              		.global	HW_IPCC_SYS_CmdEvtNot
 582              		.syntax unified
 583              		.thumb
 584              		.thumb_func
 586              	HW_IPCC_SYS_CmdEvtNot:
 587              	.LFB1424:
 226:Middlewares/ST/STM32_WPAN/interface/patterns/ble_thread/tl/tl_mbox.c ****   OutputDbgTrace(TL_MB_SYS_CMD_RSP, (uint8_t*)(TL_RefTable.p_sys_table->pcmd_buffer) );
 588              		.loc 1 226 1 is_stmt 1 view -0
 589              		.cfi_startproc
 590              		@ args = 0, pretend = 0, frame = 0
 591              		@ frame_needed = 0, uses_anonymous_args = 0
 592 0000 08B5     		push	{r3, lr}
 593              		.cfi_def_cfa_offset 8
 594              		.cfi_offset 3, -8
 595              		.cfi_offset 14, -4
 227:Middlewares/ST/STM32_WPAN/interface/patterns/ble_thread/tl/tl_mbox.c **** 
 596              		.loc 1 227 3 view .LVU147
 227:Middlewares/ST/STM32_WPAN/interface/patterns/ble_thread/tl/tl_mbox.c **** 
 597              		.loc 1 227 59 is_stmt 0 view .LVU148
 598 0002 044B     		ldr	r3, .L45
 599 0004 DA68     		ldr	r2, [r3, #12]
 229:Middlewares/ST/STM32_WPAN/interface/patterns/ble_thread/tl/tl_mbox.c **** 
 600              		.loc 1 229 3 is_stmt 1 view .LVU149
 229:Middlewares/ST/STM32_WPAN/interface/patterns/ble_thread/tl/tl_mbox.c **** 
 601              		.loc 1 229 63 is_stmt 0 view .LVU150
 602 0006 DA68     		ldr	r2, [r3, #12]
 229:Middlewares/ST/STM32_WPAN/interface/patterns/ble_thread/tl/tl_mbox.c **** 
 603              		.loc 1 229 3 view .LVU151
 604 0008 034B     		ldr	r3, .L45+4
 605 000a 1B68     		ldr	r3, [r3]
 606 000c 1068     		ldr	r0, [r2]
 607 000e 9847     		blx	r3
 608              	.LVL31:
 231:Middlewares/ST/STM32_WPAN/interface/patterns/ble_thread/tl/tl_mbox.c **** }
 609              		.loc 1 231 3 is_stmt 1 view .LVU152
 232:Middlewares/ST/STM32_WPAN/interface/patterns/ble_thread/tl/tl_mbox.c **** 
 610              		.loc 1 232 1 is_stmt 0 view .LVU153
 611 0010 08BD     		pop	{r3, pc}
ARM GAS  C:\Users\Nathan\AppData\Local\Temp\ccoptJjL.s 			page 25


 612              	.L46:
 613 0012 00BF     		.align	2
 614              	.L45:
 615 0014 00000000 		.word	TL_RefTable
 616 0018 00000000 		.word	SYS_CMD_IoBusCallBackFunction
 617              		.cfi_endproc
 618              	.LFE1424:
 620              		.section	.text.HW_IPCC_SYS_EvtNot,"ax",%progbits
 621              		.align	1
 622              		.global	HW_IPCC_SYS_EvtNot
 623              		.syntax unified
 624              		.thumb
 625              		.thumb_func
 627              	HW_IPCC_SYS_EvtNot:
 628              	.LFB1425:
 235:Middlewares/ST/STM32_WPAN/interface/patterns/ble_thread/tl/tl_mbox.c ****   TL_EvtPacket_t *p_evt;
 629              		.loc 1 235 1 is_stmt 1 view -0
 630              		.cfi_startproc
 631              		@ args = 0, pretend = 0, frame = 8
 632              		@ frame_needed = 0, uses_anonymous_args = 0
 633 0000 00B5     		push	{lr}
 634              		.cfi_def_cfa_offset 4
 635              		.cfi_offset 14, -4
 636 0002 83B0     		sub	sp, sp, #12
 637              		.cfi_def_cfa_offset 16
 236:Middlewares/ST/STM32_WPAN/interface/patterns/ble_thread/tl/tl_mbox.c **** 
 638              		.loc 1 236 3 view .LVU155
 238:Middlewares/ST/STM32_WPAN/interface/patterns/ble_thread/tl/tl_mbox.c ****   {
 639              		.loc 1 238 3 view .LVU156
 238:Middlewares/ST/STM32_WPAN/interface/patterns/ble_thread/tl/tl_mbox.c ****   {
 640              		.loc 1 238 8 is_stmt 0 view .LVU157
 641 0004 07E0     		b	.L48
 642              	.L49:
 240:Middlewares/ST/STM32_WPAN/interface/patterns/ble_thread/tl/tl_mbox.c **** 
 643              		.loc 1 240 5 is_stmt 1 view .LVU158
 644 0006 01A9     		add	r1, sp, #4
 645 0008 0748     		ldr	r0, .L51
 646 000a FFF7FEFF 		bl	LST_remove_head
 647              	.LVL32:
 242:Middlewares/ST/STM32_WPAN/interface/patterns/ble_thread/tl/tl_mbox.c **** 
 648              		.loc 1 242 5 view .LVU159
 244:Middlewares/ST/STM32_WPAN/interface/patterns/ble_thread/tl/tl_mbox.c ****   }
 649              		.loc 1 244 5 view .LVU160
 650 000e 074B     		ldr	r3, .L51+4
 651 0010 1B68     		ldr	r3, [r3]
 652 0012 0198     		ldr	r0, [sp, #4]
 653 0014 9847     		blx	r3
 654              	.LVL33:
 655              	.L48:
 238:Middlewares/ST/STM32_WPAN/interface/patterns/ble_thread/tl/tl_mbox.c ****   {
 656              		.loc 1 238 39 view .LVU161
 238:Middlewares/ST/STM32_WPAN/interface/patterns/ble_thread/tl/tl_mbox.c ****   {
 657              		.loc 1 238 9 is_stmt 0 view .LVU162
 658 0016 0448     		ldr	r0, .L51
 659 0018 FFF7FEFF 		bl	LST_is_empty
 660              	.LVL34:
 238:Middlewares/ST/STM32_WPAN/interface/patterns/ble_thread/tl/tl_mbox.c ****   {
ARM GAS  C:\Users\Nathan\AppData\Local\Temp\ccoptJjL.s 			page 26


 661              		.loc 1 238 39 discriminator 1 view .LVU163
 662 001c 0028     		cmp	r0, #0
 663 001e F2D0     		beq	.L49
 248:Middlewares/ST/STM32_WPAN/interface/patterns/ble_thread/tl/tl_mbox.c **** 
 664              		.loc 1 248 1 view .LVU164
 665 0020 03B0     		add	sp, sp, #12
 666              		.cfi_def_cfa_offset 4
 667              		@ sp needed
 668 0022 5DF804FB 		ldr	pc, [sp], #4
 669              	.L52:
 670 0026 00BF     		.align	2
 671              	.L51:
 672 0028 00000000 		.word	SystemEvtQueue
 673 002c 00000000 		.word	SYS_EVT_IoBusCallBackFunction
 674              		.cfi_endproc
 675              	.LFE1425:
 677              		.section	.text.TL_MM_Init,"ax",%progbits
 678              		.align	1
 679              		.global	TL_MM_Init
 680              		.syntax unified
 681              		.thumb
 682              		.thumb_func
 684              	TL_MM_Init:
 685              	.LVL35:
 686              	.LFB1426:
 592:Middlewares/ST/STM32_WPAN/interface/patterns/ble_thread/tl/tl_mbox.c ****   static MB_MemManagerTable_t  * p_mem_manager_table;
 687              		.loc 1 592 1 is_stmt 1 view -0
 688              		.cfi_startproc
 689              		@ args = 0, pretend = 0, frame = 0
 690              		@ frame_needed = 0, uses_anonymous_args = 0
 592:Middlewares/ST/STM32_WPAN/interface/patterns/ble_thread/tl/tl_mbox.c ****   static MB_MemManagerTable_t  * p_mem_manager_table;
 691              		.loc 1 592 1 is_stmt 0 view .LVU166
 692 0000 38B5     		push	{r3, r4, r5, lr}
 693              		.cfi_def_cfa_offset 16
 694              		.cfi_offset 3, -16
 695              		.cfi_offset 4, -12
 696              		.cfi_offset 5, -8
 697              		.cfi_offset 14, -4
 698 0002 0446     		mov	r4, r0
 593:Middlewares/ST/STM32_WPAN/interface/patterns/ble_thread/tl/tl_mbox.c **** 
 699              		.loc 1 593 3 is_stmt 1 view .LVU167
 595:Middlewares/ST/STM32_WPAN/interface/patterns/ble_thread/tl/tl_mbox.c ****   LST_init_head (&LocalFreeBufQueue);
 700              		.loc 1 595 3 view .LVU168
 701 0004 0C4D     		ldr	r5, .L55
 702 0006 2846     		mov	r0, r5
 703              	.LVL36:
 595:Middlewares/ST/STM32_WPAN/interface/patterns/ble_thread/tl/tl_mbox.c ****   LST_init_head (&LocalFreeBufQueue);
 704              		.loc 1 595 3 is_stmt 0 view .LVU169
 705 0008 FFF7FEFF 		bl	LST_init_head
 706              	.LVL37:
 596:Middlewares/ST/STM32_WPAN/interface/patterns/ble_thread/tl/tl_mbox.c **** 
 707              		.loc 1 596 3 is_stmt 1 view .LVU170
 708 000c 0B48     		ldr	r0, .L55+4
 709 000e FFF7FEFF 		bl	LST_init_head
 710              	.LVL38:
 598:Middlewares/ST/STM32_WPAN/interface/patterns/ble_thread/tl/tl_mbox.c **** 
 711              		.loc 1 598 3 view .LVU171
ARM GAS  C:\Users\Nathan\AppData\Local\Temp\ccoptJjL.s 			page 27


 598:Middlewares/ST/STM32_WPAN/interface/patterns/ble_thread/tl/tl_mbox.c **** 
 712              		.loc 1 598 36 is_stmt 0 view .LVU172
 713 0012 0B4B     		ldr	r3, .L55+8
 714 0014 1B69     		ldr	r3, [r3, #16]
 598:Middlewares/ST/STM32_WPAN/interface/patterns/ble_thread/tl/tl_mbox.c **** 
 715              		.loc 1 598 23 view .LVU173
 716 0016 0B4A     		ldr	r2, .L55+12
 717 0018 1360     		str	r3, [r2]
 600:Middlewares/ST/STM32_WPAN/interface/patterns/ble_thread/tl/tl_mbox.c ****   p_mem_manager_table->blepoolsize = p_Config->AsynchEvtPoolSize;
 718              		.loc 1 600 3 is_stmt 1 view .LVU174
 600:Middlewares/ST/STM32_WPAN/interface/patterns/ble_thread/tl/tl_mbox.c ****   p_mem_manager_table->blepoolsize = p_Config->AsynchEvtPoolSize;
 719              		.loc 1 600 42 is_stmt 0 view .LVU175
 720 001a A268     		ldr	r2, [r4, #8]
 600:Middlewares/ST/STM32_WPAN/interface/patterns/ble_thread/tl/tl_mbox.c ****   p_mem_manager_table->blepoolsize = p_Config->AsynchEvtPoolSize;
 721              		.loc 1 600 32 view .LVU176
 722 001c 9A60     		str	r2, [r3, #8]
 601:Middlewares/ST/STM32_WPAN/interface/patterns/ble_thread/tl/tl_mbox.c ****   p_mem_manager_table->pevt_free_buffer_queue = (uint8_t*)&FreeBufQueue;
 723              		.loc 1 601 3 is_stmt 1 view .LVU177
 601:Middlewares/ST/STM32_WPAN/interface/patterns/ble_thread/tl/tl_mbox.c ****   p_mem_manager_table->pevt_free_buffer_queue = (uint8_t*)&FreeBufQueue;
 724              		.loc 1 601 46 is_stmt 0 view .LVU178
 725 001e E268     		ldr	r2, [r4, #12]
 601:Middlewares/ST/STM32_WPAN/interface/patterns/ble_thread/tl/tl_mbox.c ****   p_mem_manager_table->pevt_free_buffer_queue = (uint8_t*)&FreeBufQueue;
 726              		.loc 1 601 36 view .LVU179
 727 0020 DA60     		str	r2, [r3, #12]
 602:Middlewares/ST/STM32_WPAN/interface/patterns/ble_thread/tl/tl_mbox.c ****   p_mem_manager_table->spare_ble_buffer = p_Config->p_BleSpareEvtBuffer;
 728              		.loc 1 602 3 is_stmt 1 view .LVU180
 602:Middlewares/ST/STM32_WPAN/interface/patterns/ble_thread/tl/tl_mbox.c ****   p_mem_manager_table->spare_ble_buffer = p_Config->p_BleSpareEvtBuffer;
 729              		.loc 1 602 47 is_stmt 0 view .LVU181
 730 0022 1D61     		str	r5, [r3, #16]
 603:Middlewares/ST/STM32_WPAN/interface/patterns/ble_thread/tl/tl_mbox.c ****   p_mem_manager_table->spare_sys_buffer = p_Config->p_SystemSpareEvtBuffer;
 731              		.loc 1 603 3 is_stmt 1 view .LVU182
 603:Middlewares/ST/STM32_WPAN/interface/patterns/ble_thread/tl/tl_mbox.c ****   p_mem_manager_table->spare_sys_buffer = p_Config->p_SystemSpareEvtBuffer;
 732              		.loc 1 603 51 is_stmt 0 view .LVU183
 733 0024 2268     		ldr	r2, [r4]
 603:Middlewares/ST/STM32_WPAN/interface/patterns/ble_thread/tl/tl_mbox.c ****   p_mem_manager_table->spare_sys_buffer = p_Config->p_SystemSpareEvtBuffer;
 734              		.loc 1 603 41 view .LVU184
 735 0026 1A60     		str	r2, [r3]
 604:Middlewares/ST/STM32_WPAN/interface/patterns/ble_thread/tl/tl_mbox.c ****   p_mem_manager_table->traces_evt_pool = p_Config->p_TracesEvtPool;
 736              		.loc 1 604 3 is_stmt 1 view .LVU185
 604:Middlewares/ST/STM32_WPAN/interface/patterns/ble_thread/tl/tl_mbox.c ****   p_mem_manager_table->traces_evt_pool = p_Config->p_TracesEvtPool;
 737              		.loc 1 604 51 is_stmt 0 view .LVU186
 738 0028 6268     		ldr	r2, [r4, #4]
 604:Middlewares/ST/STM32_WPAN/interface/patterns/ble_thread/tl/tl_mbox.c ****   p_mem_manager_table->traces_evt_pool = p_Config->p_TracesEvtPool;
 739              		.loc 1 604 41 view .LVU187
 740 002a 5A60     		str	r2, [r3, #4]
 605:Middlewares/ST/STM32_WPAN/interface/patterns/ble_thread/tl/tl_mbox.c ****   p_mem_manager_table->tracespoolsize = p_Config->TracesEvtPoolSize;
 741              		.loc 1 605 3 is_stmt 1 view .LVU188
 605:Middlewares/ST/STM32_WPAN/interface/patterns/ble_thread/tl/tl_mbox.c ****   p_mem_manager_table->tracespoolsize = p_Config->TracesEvtPoolSize;
 742              		.loc 1 605 50 is_stmt 0 view .LVU189
 743 002c 2269     		ldr	r2, [r4, #16]
 605:Middlewares/ST/STM32_WPAN/interface/patterns/ble_thread/tl/tl_mbox.c ****   p_mem_manager_table->tracespoolsize = p_Config->TracesEvtPoolSize;
 744              		.loc 1 605 40 view .LVU190
 745 002e 5A61     		str	r2, [r3, #20]
 606:Middlewares/ST/STM32_WPAN/interface/patterns/ble_thread/tl/tl_mbox.c **** 
 746              		.loc 1 606 3 is_stmt 1 view .LVU191
 606:Middlewares/ST/STM32_WPAN/interface/patterns/ble_thread/tl/tl_mbox.c **** 
 747              		.loc 1 606 49 is_stmt 0 view .LVU192
ARM GAS  C:\Users\Nathan\AppData\Local\Temp\ccoptJjL.s 			page 28


 748 0030 6269     		ldr	r2, [r4, #20]
 606:Middlewares/ST/STM32_WPAN/interface/patterns/ble_thread/tl/tl_mbox.c **** 
 749              		.loc 1 606 39 view .LVU193
 750 0032 9A61     		str	r2, [r3, #24]
 608:Middlewares/ST/STM32_WPAN/interface/patterns/ble_thread/tl/tl_mbox.c **** }
 751              		.loc 1 608 3 is_stmt 1 view .LVU194
 609:Middlewares/ST/STM32_WPAN/interface/patterns/ble_thread/tl/tl_mbox.c **** 
 752              		.loc 1 609 1 is_stmt 0 view .LVU195
 753 0034 38BD     		pop	{r3, r4, r5, pc}
 754              	.LVL39:
 755              	.L56:
 609:Middlewares/ST/STM32_WPAN/interface/patterns/ble_thread/tl/tl_mbox.c **** 
 756              		.loc 1 609 1 view .LVU196
 757 0036 00BF     		.align	2
 758              	.L55:
 759 0038 18000000 		.word	FreeBufQueue
 760 003c 00000000 		.word	LocalFreeBufQueue
 761 0040 00000000 		.word	TL_RefTable
 762 0044 00000000 		.word	p_mem_manager_table.0
 763              		.cfi_endproc
 764              	.LFE1426:
 766              		.section	.text.TL_MM_EvtDone,"ax",%progbits
 767              		.align	1
 768              		.global	TL_MM_EvtDone
 769              		.syntax unified
 770              		.thumb
 771              		.thumb_func
 773              	TL_MM_EvtDone:
 774              	.LVL40:
 775              	.LFB1427:
 612:Middlewares/ST/STM32_WPAN/interface/patterns/ble_thread/tl/tl_mbox.c ****   LST_insert_tail(&LocalFreeBufQueue, (tListNode *)phcievt);
 776              		.loc 1 612 1 is_stmt 1 view -0
 777              		.cfi_startproc
 778              		@ args = 0, pretend = 0, frame = 0
 779              		@ frame_needed = 0, uses_anonymous_args = 0
 612:Middlewares/ST/STM32_WPAN/interface/patterns/ble_thread/tl/tl_mbox.c ****   LST_insert_tail(&LocalFreeBufQueue, (tListNode *)phcievt);
 780              		.loc 1 612 1 is_stmt 0 view .LVU198
 781 0000 08B5     		push	{r3, lr}
 782              		.cfi_def_cfa_offset 8
 783              		.cfi_offset 3, -8
 784              		.cfi_offset 14, -4
 785 0002 0146     		mov	r1, r0
 613:Middlewares/ST/STM32_WPAN/interface/patterns/ble_thread/tl/tl_mbox.c **** 
 786              		.loc 1 613 3 is_stmt 1 view .LVU199
 787 0004 0348     		ldr	r0, .L59
 788              	.LVL41:
 613:Middlewares/ST/STM32_WPAN/interface/patterns/ble_thread/tl/tl_mbox.c **** 
 789              		.loc 1 613 3 is_stmt 0 view .LVU200
 790 0006 FFF7FEFF 		bl	LST_insert_tail
 791              	.LVL42:
 615:Middlewares/ST/STM32_WPAN/interface/patterns/ble_thread/tl/tl_mbox.c **** 
 792              		.loc 1 615 3 is_stmt 1 view .LVU201
 617:Middlewares/ST/STM32_WPAN/interface/patterns/ble_thread/tl/tl_mbox.c **** 
 793              		.loc 1 617 3 view .LVU202
 794 000a 0348     		ldr	r0, .L59+4
 795 000c FFF7FEFF 		bl	HW_IPCC_MM_SendFreeBuf
 796              	.LVL43:
ARM GAS  C:\Users\Nathan\AppData\Local\Temp\ccoptJjL.s 			page 29


 619:Middlewares/ST/STM32_WPAN/interface/patterns/ble_thread/tl/tl_mbox.c **** }
 797              		.loc 1 619 3 view .LVU203
 620:Middlewares/ST/STM32_WPAN/interface/patterns/ble_thread/tl/tl_mbox.c **** 
 798              		.loc 1 620 1 is_stmt 0 view .LVU204
 799 0010 08BD     		pop	{r3, pc}
 800              	.L60:
 801 0012 00BF     		.align	2
 802              	.L59:
 803 0014 00000000 		.word	LocalFreeBufQueue
 804 0018 00000000 		.word	SendFreeBuf
 805              		.cfi_endproc
 806              	.LFE1427:
 808              		.section	.text.TL_TRACES_Init,"ax",%progbits
 809              		.align	1
 810              		.global	TL_TRACES_Init
 811              		.syntax unified
 812              		.thumb
 813              		.thumb_func
 815              	TL_TRACES_Init:
 816              	.LFB1429:
 634:Middlewares/ST/STM32_WPAN/interface/patterns/ble_thread/tl/tl_mbox.c **** 
 635:Middlewares/ST/STM32_WPAN/interface/patterns/ble_thread/tl/tl_mbox.c **** /******************************************************************************
 636:Middlewares/ST/STM32_WPAN/interface/patterns/ble_thread/tl/tl_mbox.c ****  * TRACES
 637:Middlewares/ST/STM32_WPAN/interface/patterns/ble_thread/tl/tl_mbox.c ****  ******************************************************************************/
 638:Middlewares/ST/STM32_WPAN/interface/patterns/ble_thread/tl/tl_mbox.c **** void TL_TRACES_Init( void )
 639:Middlewares/ST/STM32_WPAN/interface/patterns/ble_thread/tl/tl_mbox.c **** {
 817              		.loc 1 639 1 is_stmt 1 view -0
 818              		.cfi_startproc
 819              		@ args = 0, pretend = 0, frame = 0
 820              		@ frame_needed = 0, uses_anonymous_args = 0
 821 0000 10B5     		push	{r4, lr}
 822              		.cfi_def_cfa_offset 8
 823              		.cfi_offset 4, -8
 824              		.cfi_offset 14, -4
 640:Middlewares/ST/STM32_WPAN/interface/patterns/ble_thread/tl/tl_mbox.c ****   LST_init_head (&TracesEvtQueue);
 825              		.loc 1 640 3 view .LVU206
 826 0002 054C     		ldr	r4, .L63
 827 0004 2046     		mov	r0, r4
 828 0006 FFF7FEFF 		bl	LST_init_head
 829              	.LVL44:
 641:Middlewares/ST/STM32_WPAN/interface/patterns/ble_thread/tl/tl_mbox.c **** 
 642:Middlewares/ST/STM32_WPAN/interface/patterns/ble_thread/tl/tl_mbox.c ****   TL_RefTable.p_traces_table->traces_queue = (uint8_t*)&TracesEvtQueue;
 830              		.loc 1 642 3 view .LVU207
 831              		.loc 1 642 14 is_stmt 0 view .LVU208
 832 000a 044B     		ldr	r3, .L63+4
 833 000c 5B69     		ldr	r3, [r3, #20]
 834              		.loc 1 642 44 view .LVU209
 835 000e 1C60     		str	r4, [r3]
 643:Middlewares/ST/STM32_WPAN/interface/patterns/ble_thread/tl/tl_mbox.c **** 
 644:Middlewares/ST/STM32_WPAN/interface/patterns/ble_thread/tl/tl_mbox.c ****   HW_IPCC_TRACES_Init();
 836              		.loc 1 644 3 is_stmt 1 view .LVU210
 837 0010 FFF7FEFF 		bl	HW_IPCC_TRACES_Init
 838              	.LVL45:
 645:Middlewares/ST/STM32_WPAN/interface/patterns/ble_thread/tl/tl_mbox.c **** 
 646:Middlewares/ST/STM32_WPAN/interface/patterns/ble_thread/tl/tl_mbox.c ****   return;
 839              		.loc 1 646 3 view .LVU211
 647:Middlewares/ST/STM32_WPAN/interface/patterns/ble_thread/tl/tl_mbox.c **** }
ARM GAS  C:\Users\Nathan\AppData\Local\Temp\ccoptJjL.s 			page 30


 840              		.loc 1 647 1 is_stmt 0 view .LVU212
 841 0014 10BD     		pop	{r4, pc}
 842              	.L64:
 843 0016 00BF     		.align	2
 844              	.L63:
 845 0018 10000000 		.word	TracesEvtQueue
 846 001c 00000000 		.word	TL_RefTable
 847              		.cfi_endproc
 848              	.LFE1429:
 850              		.section	.text.TL_TRACES_EvtReceived,"ax",%progbits
 851              		.align	1
 852              		.weak	TL_TRACES_EvtReceived
 853              		.syntax unified
 854              		.thumb
 855              		.thumb_func
 857              	TL_TRACES_EvtReceived:
 858              	.LVL46:
 859              	.LFB1431:
 648:Middlewares/ST/STM32_WPAN/interface/patterns/ble_thread/tl/tl_mbox.c **** 
 649:Middlewares/ST/STM32_WPAN/interface/patterns/ble_thread/tl/tl_mbox.c **** void HW_IPCC_TRACES_EvtNot(void)
 650:Middlewares/ST/STM32_WPAN/interface/patterns/ble_thread/tl/tl_mbox.c **** {
 651:Middlewares/ST/STM32_WPAN/interface/patterns/ble_thread/tl/tl_mbox.c ****   TL_EvtPacket_t *phcievt;
 652:Middlewares/ST/STM32_WPAN/interface/patterns/ble_thread/tl/tl_mbox.c **** 
 653:Middlewares/ST/STM32_WPAN/interface/patterns/ble_thread/tl/tl_mbox.c ****   while(LST_is_empty(&TracesEvtQueue) == FALSE)
 654:Middlewares/ST/STM32_WPAN/interface/patterns/ble_thread/tl/tl_mbox.c ****   {
 655:Middlewares/ST/STM32_WPAN/interface/patterns/ble_thread/tl/tl_mbox.c ****     LST_remove_head (&TracesEvtQueue, (tListNode **)&phcievt);
 656:Middlewares/ST/STM32_WPAN/interface/patterns/ble_thread/tl/tl_mbox.c ****     TL_TRACES_EvtReceived( phcievt );
 657:Middlewares/ST/STM32_WPAN/interface/patterns/ble_thread/tl/tl_mbox.c ****   }
 658:Middlewares/ST/STM32_WPAN/interface/patterns/ble_thread/tl/tl_mbox.c **** 
 659:Middlewares/ST/STM32_WPAN/interface/patterns/ble_thread/tl/tl_mbox.c ****   return;
 660:Middlewares/ST/STM32_WPAN/interface/patterns/ble_thread/tl/tl_mbox.c **** }
 661:Middlewares/ST/STM32_WPAN/interface/patterns/ble_thread/tl/tl_mbox.c **** 
 662:Middlewares/ST/STM32_WPAN/interface/patterns/ble_thread/tl/tl_mbox.c **** __WEAK void TL_TRACES_EvtReceived( TL_EvtPacket_t * hcievt )
 663:Middlewares/ST/STM32_WPAN/interface/patterns/ble_thread/tl/tl_mbox.c **** {
 860              		.loc 1 663 1 is_stmt 1 view -0
 861              		.cfi_startproc
 862              		@ args = 0, pretend = 0, frame = 0
 863              		@ frame_needed = 0, uses_anonymous_args = 0
 864              		@ link register save eliminated.
 664:Middlewares/ST/STM32_WPAN/interface/patterns/ble_thread/tl/tl_mbox.c ****   (void)(hcievt);
 865              		.loc 1 664 3 view .LVU214
 665:Middlewares/ST/STM32_WPAN/interface/patterns/ble_thread/tl/tl_mbox.c **** }
 866              		.loc 1 665 1 is_stmt 0 view .LVU215
 867 0000 7047     		bx	lr
 868              		.cfi_endproc
 869              	.LFE1431:
 871              		.section	.text.HW_IPCC_TRACES_EvtNot,"ax",%progbits
 872              		.align	1
 873              		.global	HW_IPCC_TRACES_EvtNot
 874              		.syntax unified
 875              		.thumb
 876              		.thumb_func
 878              	HW_IPCC_TRACES_EvtNot:
 879              	.LFB1430:
 650:Middlewares/ST/STM32_WPAN/interface/patterns/ble_thread/tl/tl_mbox.c ****   TL_EvtPacket_t *phcievt;
 880              		.loc 1 650 1 is_stmt 1 view -0
 881              		.cfi_startproc
ARM GAS  C:\Users\Nathan\AppData\Local\Temp\ccoptJjL.s 			page 31


 882              		@ args = 0, pretend = 0, frame = 8
 883              		@ frame_needed = 0, uses_anonymous_args = 0
 884 0000 00B5     		push	{lr}
 885              		.cfi_def_cfa_offset 4
 886              		.cfi_offset 14, -4
 887 0002 83B0     		sub	sp, sp, #12
 888              		.cfi_def_cfa_offset 16
 651:Middlewares/ST/STM32_WPAN/interface/patterns/ble_thread/tl/tl_mbox.c **** 
 889              		.loc 1 651 3 view .LVU217
 653:Middlewares/ST/STM32_WPAN/interface/patterns/ble_thread/tl/tl_mbox.c ****   {
 890              		.loc 1 653 3 view .LVU218
 653:Middlewares/ST/STM32_WPAN/interface/patterns/ble_thread/tl/tl_mbox.c ****   {
 891              		.loc 1 653 8 is_stmt 0 view .LVU219
 892 0004 06E0     		b	.L67
 893              	.L68:
 655:Middlewares/ST/STM32_WPAN/interface/patterns/ble_thread/tl/tl_mbox.c ****     TL_TRACES_EvtReceived( phcievt );
 894              		.loc 1 655 5 is_stmt 1 view .LVU220
 895 0006 01A9     		add	r1, sp, #4
 896 0008 0648     		ldr	r0, .L70
 897 000a FFF7FEFF 		bl	LST_remove_head
 898              	.LVL47:
 656:Middlewares/ST/STM32_WPAN/interface/patterns/ble_thread/tl/tl_mbox.c ****   }
 899              		.loc 1 656 5 view .LVU221
 900 000e 0198     		ldr	r0, [sp, #4]
 901 0010 FFF7FEFF 		bl	TL_TRACES_EvtReceived
 902              	.LVL48:
 903              	.L67:
 653:Middlewares/ST/STM32_WPAN/interface/patterns/ble_thread/tl/tl_mbox.c ****   {
 904              		.loc 1 653 39 view .LVU222
 653:Middlewares/ST/STM32_WPAN/interface/patterns/ble_thread/tl/tl_mbox.c ****   {
 905              		.loc 1 653 9 is_stmt 0 view .LVU223
 906 0014 0348     		ldr	r0, .L70
 907 0016 FFF7FEFF 		bl	LST_is_empty
 908              	.LVL49:
 653:Middlewares/ST/STM32_WPAN/interface/patterns/ble_thread/tl/tl_mbox.c ****   {
 909              		.loc 1 653 39 discriminator 1 view .LVU224
 910 001a 0028     		cmp	r0, #0
 911 001c F3D0     		beq	.L68
 660:Middlewares/ST/STM32_WPAN/interface/patterns/ble_thread/tl/tl_mbox.c **** 
 912              		.loc 1 660 1 view .LVU225
 913 001e 03B0     		add	sp, sp, #12
 914              		.cfi_def_cfa_offset 4
 915              		@ sp needed
 916 0020 5DF804FB 		ldr	pc, [sp], #4
 917              	.L71:
 918              		.align	2
 919              	.L70:
 920 0024 10000000 		.word	TracesEvtQueue
 921              		.cfi_endproc
 922              	.LFE1430:
 924              		.section	.bss.p_mem_manager_table.0,"aw",%nobits
 925              		.align	2
 928              	p_mem_manager_table.0:
 929 0000 00000000 		.space	4
 930              		.section	.bss.SYS_EVT_IoBusCallBackFunction,"aw",%nobits
 931              		.align	2
 934              	SYS_EVT_IoBusCallBackFunction:
ARM GAS  C:\Users\Nathan\AppData\Local\Temp\ccoptJjL.s 			page 32


 935 0000 00000000 		.space	4
 936              		.section	.bss.SYS_CMD_IoBusCallBackFunction,"aw",%nobits
 937              		.align	2
 940              	SYS_CMD_IoBusCallBackFunction:
 941 0000 00000000 		.space	4
 942              		.section	.bss.BLE_IoBusAclDataTxAck,"aw",%nobits
 943              		.align	2
 946              	BLE_IoBusAclDataTxAck:
 947 0000 00000000 		.space	4
 948              		.section	.bss.BLE_IoBusEvtCallBackFunction,"aw",%nobits
 949              		.align	2
 952              	BLE_IoBusEvtCallBackFunction:
 953 0000 00000000 		.space	4
 954              		.section	.bss.LocalFreeBufQueue,"aw",%nobits
 955              		.align	2
 958              	LocalFreeBufQueue:
 959 0000 00000000 		.space	8
 959      00000000 
 960              		.section	MB_MEM1,"aw"
 961              		.align	2
 964              	SystemEvtQueue:
 965 0000 00000000 		.space	8
 965      00000000 
 966              		.align	2
 969              	EvtQueue:
 970 0008 00000000 		.space	8
 970      00000000 
 971              		.section	MB_MEM2,"aw"
 972              		.align	2
 975              	CsBuffer:
 976 0000 00000000 		.space	15
 976      00000000 
 976      00000000 
 976      000000
 977              		.section	MB_MEM1
 978              		.align	2
 981              	TracesEvtQueue:
 982 0010 00000000 		.space	8
 982      00000000 
 983              		.align	2
 986              	FreeBufQueue:
 987 0018 00000000 		.space	8
 987      00000000 
 988              		.align	2
 991              	TL_Zigbee_Table:
 992 0020 00000000 		.space	12
 992      00000000 
 992      00000000 
 993              		.align	2
 996              	TL_Mac_802_15_4_Table:
 997 002c 00000000 		.space	12
 997      00000000 
 997      00000000 
 998              		.align	2
 1001              	TL_TracesTable:
 1002 0038 00000000 		.space	4
 1003              		.align	2
ARM GAS  C:\Users\Nathan\AppData\Local\Temp\ccoptJjL.s 			page 33


 1006              	TL_MemManagerTable:
 1007 003c 00000000 		.space	28
 1007      00000000 
 1007      00000000 
 1007      00000000 
 1007      00000000 
 1008              		.align	2
 1011              	TL_SysTable:
 1012 0058 00000000 		.space	8
 1012      00000000 
 1013              		.align	2
 1016              	TL_BleLldTable:
 1017 0060 00000000 		.space	8
 1017      00000000 
 1018              		.align	2
 1021              	TL_LldTestsTable:
 1022 0068 00000000 		.space	8
 1022      00000000 
 1023              		.align	2
 1026              	TL_ThreadTable:
 1027 0070 00000000 		.space	16
 1027      00000000 
 1027      00000000 
 1027      00000000 
 1028              		.align	2
 1031              	TL_BleTable:
 1032 0080 00000000 		.space	16
 1032      00000000 
 1032      00000000 
 1032      00000000 
 1033              		.align	2
 1036              	TL_DeviceInfoTable:
 1037 0090 00000000 		.space	32
 1037      00000000 
 1037      00000000 
 1037      00000000 
 1037      00000000 
 1038              		.section	MAPPING_TABLE,"aw"
 1039              		.align	2
 1042              	TL_RefTable:
 1043 0000 00000000 		.space	40
 1043      00000000 
 1043      00000000 
 1043      00000000 
 1043      00000000 
 1044              		.text
 1045              	.Letext0:
 1046              		.file 2 "C:/PROGRAM FILES (X86)/ARM GNU TOOLCHAIN ARM-NONE-EABI/13.3 REL1/arm-none-eabi/include/ma
 1047              		.file 3 "C:/PROGRAM FILES (X86)/ARM GNU TOOLCHAIN ARM-NONE-EABI/13.3 REL1/arm-none-eabi/include/sy
 1048              		.file 4 "Middlewares/ST/STM32_WPAN/utilities/stm_list.h"
 1049              		.file 5 "Middlewares/ST/STM32_WPAN/interface/patterns/ble_thread/tl/tl.h"
 1050              		.file 6 "Middlewares/ST/STM32_WPAN/interface/patterns/ble_thread/tl/mbox_def.h"
 1051              		.file 7 "Core/Inc/app_conf.h"
 1052              		.file 8 "Middlewares/ST/STM32_WPAN/interface/patterns/ble_thread/hw.h"
ARM GAS  C:\Users\Nathan\AppData\Local\Temp\ccoptJjL.s 			page 34

