ARM GAS  C:\Users\Nathan\AppData\Local\Temp\ccbp06cD.s 			page 1


   1              		.cpu cortex-m4
   2              		.arch armv7e-m
   3              		.fpu fpv4-sp-d16
   4              		.eabi_attribute 27, 1
   5              		.eabi_attribute 28, 1
   6              		.eabi_attribute 20, 1
   7              		.eabi_attribute 21, 1
   8              		.eabi_attribute 23, 3
   9              		.eabi_attribute 24, 1
  10              		.eabi_attribute 25, 1
  11              		.eabi_attribute 26, 1
  12              		.eabi_attribute 30, 1
  13              		.eabi_attribute 34, 1
  14              		.eabi_attribute 18, 4
  15              		.file	"usbd_composite.c"
  16              		.text
  17              	.Ltext0:
  18              		.cfi_sections	.debug_frame
  19              		.file 1 "Middlewares/Third_Party/AL94_USB_Composite/COMPOSITE/Class/COMPOSITE/Src/usbd_composite.c
  20              		.section	.text.USBD_COMPOSITE_Init,"ax",%progbits
  21              		.align	1
  22              		.syntax unified
  23              		.thumb
  24              		.thumb_func
  26              	USBD_COMPOSITE_Init:
  27              	.LVL0:
  28              	.LFB1416:
   1:Middlewares/Third_Party/AL94_USB_Composite/COMPOSITE/Class/COMPOSITE/Src/usbd_composite.c **** /**
   2:Middlewares/Third_Party/AL94_USB_Composite/COMPOSITE/Class/COMPOSITE/Src/usbd_composite.c ****   ******************************************************************************
   3:Middlewares/Third_Party/AL94_USB_Composite/COMPOSITE/Class/COMPOSITE/Src/usbd_composite.c ****   * @file    usbd_composite.c
   4:Middlewares/Third_Party/AL94_USB_Composite/COMPOSITE/Class/COMPOSITE/Src/usbd_composite.c ****   * @author  MCD Application Team
   5:Middlewares/Third_Party/AL94_USB_Composite/COMPOSITE/Class/COMPOSITE/Src/usbd_composite.c ****   * @brief   This file provides the HID core functions.
   6:Middlewares/Third_Party/AL94_USB_Composite/COMPOSITE/Class/COMPOSITE/Src/usbd_composite.c ****   *
   7:Middlewares/Third_Party/AL94_USB_Composite/COMPOSITE/Class/COMPOSITE/Src/usbd_composite.c ****   * @verbatim
   8:Middlewares/Third_Party/AL94_USB_Composite/COMPOSITE/Class/COMPOSITE/Src/usbd_composite.c ****   *
   9:Middlewares/Third_Party/AL94_USB_Composite/COMPOSITE/Class/COMPOSITE/Src/usbd_composite.c ****   *          ===================================================================
  10:Middlewares/Third_Party/AL94_USB_Composite/COMPOSITE/Class/COMPOSITE/Src/usbd_composite.c ****   *                                COMPOSITE Class  Description
  11:Middlewares/Third_Party/AL94_USB_Composite/COMPOSITE/Class/COMPOSITE/Src/usbd_composite.c ****   *          ===================================================================
  12:Middlewares/Third_Party/AL94_USB_Composite/COMPOSITE/Class/COMPOSITE/Src/usbd_composite.c ****   *
  13:Middlewares/Third_Party/AL94_USB_Composite/COMPOSITE/Class/COMPOSITE/Src/usbd_composite.c ****   *
  14:Middlewares/Third_Party/AL94_USB_Composite/COMPOSITE/Class/COMPOSITE/Src/usbd_composite.c ****   *
  15:Middlewares/Third_Party/AL94_USB_Composite/COMPOSITE/Class/COMPOSITE/Src/usbd_composite.c ****   *
  16:Middlewares/Third_Party/AL94_USB_Composite/COMPOSITE/Class/COMPOSITE/Src/usbd_composite.c ****   *
  17:Middlewares/Third_Party/AL94_USB_Composite/COMPOSITE/Class/COMPOSITE/Src/usbd_composite.c ****   *
  18:Middlewares/Third_Party/AL94_USB_Composite/COMPOSITE/Class/COMPOSITE/Src/usbd_composite.c ****   * @note     In HS mode and when the DMA is used, all variables and data structures
  19:Middlewares/Third_Party/AL94_USB_Composite/COMPOSITE/Class/COMPOSITE/Src/usbd_composite.c ****   *           dealing with the DMA during the transaction process should be 32-bit aligned.
  20:Middlewares/Third_Party/AL94_USB_Composite/COMPOSITE/Class/COMPOSITE/Src/usbd_composite.c ****   *
  21:Middlewares/Third_Party/AL94_USB_Composite/COMPOSITE/Class/COMPOSITE/Src/usbd_composite.c ****   *
  22:Middlewares/Third_Party/AL94_USB_Composite/COMPOSITE/Class/COMPOSITE/Src/usbd_composite.c ****   *  @endverbatim
  23:Middlewares/Third_Party/AL94_USB_Composite/COMPOSITE/Class/COMPOSITE/Src/usbd_composite.c ****   *
  24:Middlewares/Third_Party/AL94_USB_Composite/COMPOSITE/Class/COMPOSITE/Src/usbd_composite.c ****   ******************************************************************************
  25:Middlewares/Third_Party/AL94_USB_Composite/COMPOSITE/Class/COMPOSITE/Src/usbd_composite.c ****   * @attention
  26:Middlewares/Third_Party/AL94_USB_Composite/COMPOSITE/Class/COMPOSITE/Src/usbd_composite.c ****   *
  27:Middlewares/Third_Party/AL94_USB_Composite/COMPOSITE/Class/COMPOSITE/Src/usbd_composite.c ****   * <h2><center>&copy; Copyright (c) 2015 STMicroelectronics.
  28:Middlewares/Third_Party/AL94_USB_Composite/COMPOSITE/Class/COMPOSITE/Src/usbd_composite.c ****   * All rights reserved.</center></h2>
  29:Middlewares/Third_Party/AL94_USB_Composite/COMPOSITE/Class/COMPOSITE/Src/usbd_composite.c ****   *
  30:Middlewares/Third_Party/AL94_USB_Composite/COMPOSITE/Class/COMPOSITE/Src/usbd_composite.c ****   * This software component is licensed by ST under Ultimate Liberty license
ARM GAS  C:\Users\Nathan\AppData\Local\Temp\ccbp06cD.s 			page 2


  31:Middlewares/Third_Party/AL94_USB_Composite/COMPOSITE/Class/COMPOSITE/Src/usbd_composite.c ****   * SLA0044, the "License"; You may not use this file except in compliance with
  32:Middlewares/Third_Party/AL94_USB_Composite/COMPOSITE/Class/COMPOSITE/Src/usbd_composite.c ****   * the License. You may obtain a copy of the License at:
  33:Middlewares/Third_Party/AL94_USB_Composite/COMPOSITE/Class/COMPOSITE/Src/usbd_composite.c ****   *                      www.st.com/SLA0044
  34:Middlewares/Third_Party/AL94_USB_Composite/COMPOSITE/Class/COMPOSITE/Src/usbd_composite.c ****   *
  35:Middlewares/Third_Party/AL94_USB_Composite/COMPOSITE/Class/COMPOSITE/Src/usbd_composite.c ****   ******************************************************************************
  36:Middlewares/Third_Party/AL94_USB_Composite/COMPOSITE/Class/COMPOSITE/Src/usbd_composite.c ****   */
  37:Middlewares/Third_Party/AL94_USB_Composite/COMPOSITE/Class/COMPOSITE/Src/usbd_composite.c **** 
  38:Middlewares/Third_Party/AL94_USB_Composite/COMPOSITE/Class/COMPOSITE/Src/usbd_composite.c **** /* Includes ------------------------------------------------------------------*/
  39:Middlewares/Third_Party/AL94_USB_Composite/COMPOSITE/Class/COMPOSITE/Src/usbd_composite.c **** #include "usbd_composite.h"
  40:Middlewares/Third_Party/AL94_USB_Composite/COMPOSITE/Class/COMPOSITE/Src/usbd_composite.c **** #include "usbd_ctlreq.h"
  41:Middlewares/Third_Party/AL94_USB_Composite/COMPOSITE/Class/COMPOSITE/Src/usbd_composite.c **** 
  42:Middlewares/Third_Party/AL94_USB_Composite/COMPOSITE/Class/COMPOSITE/Src/usbd_composite.c **** /** @addtogroup STM32_USB_DEVICE_LIBRARY
  43:Middlewares/Third_Party/AL94_USB_Composite/COMPOSITE/Class/COMPOSITE/Src/usbd_composite.c ****   * @{
  44:Middlewares/Third_Party/AL94_USB_Composite/COMPOSITE/Class/COMPOSITE/Src/usbd_composite.c ****   */
  45:Middlewares/Third_Party/AL94_USB_Composite/COMPOSITE/Class/COMPOSITE/Src/usbd_composite.c **** 
  46:Middlewares/Third_Party/AL94_USB_Composite/COMPOSITE/Class/COMPOSITE/Src/usbd_composite.c **** /** @defgroup USBD_COMPOSITE
  47:Middlewares/Third_Party/AL94_USB_Composite/COMPOSITE/Class/COMPOSITE/Src/usbd_composite.c ****   * @brief usbd core module
  48:Middlewares/Third_Party/AL94_USB_Composite/COMPOSITE/Class/COMPOSITE/Src/usbd_composite.c ****   * @{
  49:Middlewares/Third_Party/AL94_USB_Composite/COMPOSITE/Class/COMPOSITE/Src/usbd_composite.c ****   */
  50:Middlewares/Third_Party/AL94_USB_Composite/COMPOSITE/Class/COMPOSITE/Src/usbd_composite.c **** 
  51:Middlewares/Third_Party/AL94_USB_Composite/COMPOSITE/Class/COMPOSITE/Src/usbd_composite.c **** /** @defgroup USBD_COMPOSITE_Private_TypesDefinitions
  52:Middlewares/Third_Party/AL94_USB_Composite/COMPOSITE/Class/COMPOSITE/Src/usbd_composite.c ****   * @{
  53:Middlewares/Third_Party/AL94_USB_Composite/COMPOSITE/Class/COMPOSITE/Src/usbd_composite.c ****   */
  54:Middlewares/Third_Party/AL94_USB_Composite/COMPOSITE/Class/COMPOSITE/Src/usbd_composite.c **** /**
  55:Middlewares/Third_Party/AL94_USB_Composite/COMPOSITE/Class/COMPOSITE/Src/usbd_composite.c ****   * @}
  56:Middlewares/Third_Party/AL94_USB_Composite/COMPOSITE/Class/COMPOSITE/Src/usbd_composite.c ****   */
  57:Middlewares/Third_Party/AL94_USB_Composite/COMPOSITE/Class/COMPOSITE/Src/usbd_composite.c **** 
  58:Middlewares/Third_Party/AL94_USB_Composite/COMPOSITE/Class/COMPOSITE/Src/usbd_composite.c **** /** @defgroup USBD_COMPOSITE_Private_Defines
  59:Middlewares/Third_Party/AL94_USB_Composite/COMPOSITE/Class/COMPOSITE/Src/usbd_composite.c ****   * @{
  60:Middlewares/Third_Party/AL94_USB_Composite/COMPOSITE/Class/COMPOSITE/Src/usbd_composite.c ****   */
  61:Middlewares/Third_Party/AL94_USB_Composite/COMPOSITE/Class/COMPOSITE/Src/usbd_composite.c **** 
  62:Middlewares/Third_Party/AL94_USB_Composite/COMPOSITE/Class/COMPOSITE/Src/usbd_composite.c **** /**
  63:Middlewares/Third_Party/AL94_USB_Composite/COMPOSITE/Class/COMPOSITE/Src/usbd_composite.c ****   * @}
  64:Middlewares/Third_Party/AL94_USB_Composite/COMPOSITE/Class/COMPOSITE/Src/usbd_composite.c ****   */
  65:Middlewares/Third_Party/AL94_USB_Composite/COMPOSITE/Class/COMPOSITE/Src/usbd_composite.c **** 
  66:Middlewares/Third_Party/AL94_USB_Composite/COMPOSITE/Class/COMPOSITE/Src/usbd_composite.c **** /** @defgroup USBD_COMPOSITE_Private_Macros
  67:Middlewares/Third_Party/AL94_USB_Composite/COMPOSITE/Class/COMPOSITE/Src/usbd_composite.c ****   * @{
  68:Middlewares/Third_Party/AL94_USB_Composite/COMPOSITE/Class/COMPOSITE/Src/usbd_composite.c ****   */
  69:Middlewares/Third_Party/AL94_USB_Composite/COMPOSITE/Class/COMPOSITE/Src/usbd_composite.c **** 
  70:Middlewares/Third_Party/AL94_USB_Composite/COMPOSITE/Class/COMPOSITE/Src/usbd_composite.c **** /**
  71:Middlewares/Third_Party/AL94_USB_Composite/COMPOSITE/Class/COMPOSITE/Src/usbd_composite.c ****   * @}
  72:Middlewares/Third_Party/AL94_USB_Composite/COMPOSITE/Class/COMPOSITE/Src/usbd_composite.c ****   */
  73:Middlewares/Third_Party/AL94_USB_Composite/COMPOSITE/Class/COMPOSITE/Src/usbd_composite.c **** 
  74:Middlewares/Third_Party/AL94_USB_Composite/COMPOSITE/Class/COMPOSITE/Src/usbd_composite.c **** /** @defgroup USBD_COMPOSITE_Private_FunctionPrototypes
  75:Middlewares/Third_Party/AL94_USB_Composite/COMPOSITE/Class/COMPOSITE/Src/usbd_composite.c ****   * @{
  76:Middlewares/Third_Party/AL94_USB_Composite/COMPOSITE/Class/COMPOSITE/Src/usbd_composite.c ****   */
  77:Middlewares/Third_Party/AL94_USB_Composite/COMPOSITE/Class/COMPOSITE/Src/usbd_composite.c **** 
  78:Middlewares/Third_Party/AL94_USB_Composite/COMPOSITE/Class/COMPOSITE/Src/usbd_composite.c **** static uint8_t USBD_COMPOSITE_Init(USBD_HandleTypeDef *pdev, uint8_t cfgidx);
  79:Middlewares/Third_Party/AL94_USB_Composite/COMPOSITE/Class/COMPOSITE/Src/usbd_composite.c **** static uint8_t USBD_COMPOSITE_DeInit(USBD_HandleTypeDef *pdev, uint8_t cfgidx);
  80:Middlewares/Third_Party/AL94_USB_Composite/COMPOSITE/Class/COMPOSITE/Src/usbd_composite.c **** static uint8_t USBD_COMPOSITE_Setup(USBD_HandleTypeDef *pdev, USBD_SetupReqTypedef *req);
  81:Middlewares/Third_Party/AL94_USB_Composite/COMPOSITE/Class/COMPOSITE/Src/usbd_composite.c **** static uint8_t USBD_COMPOSITE_DataIn(USBD_HandleTypeDef *pdev, uint8_t epnum);
  82:Middlewares/Third_Party/AL94_USB_Composite/COMPOSITE/Class/COMPOSITE/Src/usbd_composite.c **** static uint8_t USBD_COMPOSITE_DataOut(USBD_HandleTypeDef *pdev, uint8_t epnum);
  83:Middlewares/Third_Party/AL94_USB_Composite/COMPOSITE/Class/COMPOSITE/Src/usbd_composite.c **** static uint8_t USBD_COMPOSITE_EP0_RxReady(USBD_HandleTypeDef *pdev);
  84:Middlewares/Third_Party/AL94_USB_Composite/COMPOSITE/Class/COMPOSITE/Src/usbd_composite.c **** static uint8_t USBD_COMPOSITE_EP0_TxReady(USBD_HandleTypeDef *pdev);
  85:Middlewares/Third_Party/AL94_USB_Composite/COMPOSITE/Class/COMPOSITE/Src/usbd_composite.c **** static uint8_t USBD_COMPOSITE_SOF(USBD_HandleTypeDef *pdev);
  86:Middlewares/Third_Party/AL94_USB_Composite/COMPOSITE/Class/COMPOSITE/Src/usbd_composite.c **** static uint8_t USBD_COMPOSITE_IsoINIncomplete(USBD_HandleTypeDef *pdev, uint8_t epnum);
  87:Middlewares/Third_Party/AL94_USB_Composite/COMPOSITE/Class/COMPOSITE/Src/usbd_composite.c **** static uint8_t USBD_COMPOSITE_IsoOutIncomplete(USBD_HandleTypeDef *pdev, uint8_t epnum);
ARM GAS  C:\Users\Nathan\AppData\Local\Temp\ccbp06cD.s 			page 3


  88:Middlewares/Third_Party/AL94_USB_Composite/COMPOSITE/Class/COMPOSITE/Src/usbd_composite.c **** 
  89:Middlewares/Third_Party/AL94_USB_Composite/COMPOSITE/Class/COMPOSITE/Src/usbd_composite.c **** static uint8_t *USBD_COMPOSITE_GetHSCfgDesc(uint16_t *length);
  90:Middlewares/Third_Party/AL94_USB_Composite/COMPOSITE/Class/COMPOSITE/Src/usbd_composite.c **** static uint8_t *USBD_COMPOSITE_GetFSCfgDesc(uint16_t *length);
  91:Middlewares/Third_Party/AL94_USB_Composite/COMPOSITE/Class/COMPOSITE/Src/usbd_composite.c **** static uint8_t *USBD_COMPOSITE_GetOtherSpeedCfgDesc(uint16_t *length);
  92:Middlewares/Third_Party/AL94_USB_Composite/COMPOSITE/Class/COMPOSITE/Src/usbd_composite.c **** static uint8_t *USBD_COMPOSITE_GetDeviceQualifierDesc(uint16_t *length);
  93:Middlewares/Third_Party/AL94_USB_Composite/COMPOSITE/Class/COMPOSITE/Src/usbd_composite.c **** static uint8_t *USBD_COMPOSITE_GetUsrStringDesc(USBD_HandleTypeDef *pdev, uint8_t index, uint16_t *
  94:Middlewares/Third_Party/AL94_USB_Composite/COMPOSITE/Class/COMPOSITE/Src/usbd_composite.c **** 
  95:Middlewares/Third_Party/AL94_USB_Composite/COMPOSITE/Class/COMPOSITE/Src/usbd_composite.c **** /**
  96:Middlewares/Third_Party/AL94_USB_Composite/COMPOSITE/Class/COMPOSITE/Src/usbd_composite.c ****   * @}
  97:Middlewares/Third_Party/AL94_USB_Composite/COMPOSITE/Class/COMPOSITE/Src/usbd_composite.c ****   */
  98:Middlewares/Third_Party/AL94_USB_Composite/COMPOSITE/Class/COMPOSITE/Src/usbd_composite.c **** 
  99:Middlewares/Third_Party/AL94_USB_Composite/COMPOSITE/Class/COMPOSITE/Src/usbd_composite.c **** /** @defgroup USBD_COMPOSITE_Private_Variables
 100:Middlewares/Third_Party/AL94_USB_Composite/COMPOSITE/Class/COMPOSITE/Src/usbd_composite.c ****   * @{
 101:Middlewares/Third_Party/AL94_USB_Composite/COMPOSITE/Class/COMPOSITE/Src/usbd_composite.c ****   */
 102:Middlewares/Third_Party/AL94_USB_Composite/COMPOSITE/Class/COMPOSITE/Src/usbd_composite.c **** 
 103:Middlewares/Third_Party/AL94_USB_Composite/COMPOSITE/Class/COMPOSITE/Src/usbd_composite.c **** USBD_ClassTypeDef USBD_COMPOSITE =
 104:Middlewares/Third_Party/AL94_USB_Composite/COMPOSITE/Class/COMPOSITE/Src/usbd_composite.c ****     {
 105:Middlewares/Third_Party/AL94_USB_Composite/COMPOSITE/Class/COMPOSITE/Src/usbd_composite.c ****         USBD_COMPOSITE_Init,
 106:Middlewares/Third_Party/AL94_USB_Composite/COMPOSITE/Class/COMPOSITE/Src/usbd_composite.c ****         USBD_COMPOSITE_DeInit,
 107:Middlewares/Third_Party/AL94_USB_Composite/COMPOSITE/Class/COMPOSITE/Src/usbd_composite.c ****         USBD_COMPOSITE_Setup,
 108:Middlewares/Third_Party/AL94_USB_Composite/COMPOSITE/Class/COMPOSITE/Src/usbd_composite.c ****         USBD_COMPOSITE_EP0_TxReady,
 109:Middlewares/Third_Party/AL94_USB_Composite/COMPOSITE/Class/COMPOSITE/Src/usbd_composite.c ****         USBD_COMPOSITE_EP0_RxReady,
 110:Middlewares/Third_Party/AL94_USB_Composite/COMPOSITE/Class/COMPOSITE/Src/usbd_composite.c ****         USBD_COMPOSITE_DataIn,
 111:Middlewares/Third_Party/AL94_USB_Composite/COMPOSITE/Class/COMPOSITE/Src/usbd_composite.c ****         USBD_COMPOSITE_DataOut,
 112:Middlewares/Third_Party/AL94_USB_Composite/COMPOSITE/Class/COMPOSITE/Src/usbd_composite.c ****         USBD_COMPOSITE_SOF,
 113:Middlewares/Third_Party/AL94_USB_Composite/COMPOSITE/Class/COMPOSITE/Src/usbd_composite.c ****         USBD_COMPOSITE_IsoINIncomplete,
 114:Middlewares/Third_Party/AL94_USB_Composite/COMPOSITE/Class/COMPOSITE/Src/usbd_composite.c ****         USBD_COMPOSITE_IsoOutIncomplete,
 115:Middlewares/Third_Party/AL94_USB_Composite/COMPOSITE/Class/COMPOSITE/Src/usbd_composite.c ****         USBD_COMPOSITE_GetHSCfgDesc,
 116:Middlewares/Third_Party/AL94_USB_Composite/COMPOSITE/Class/COMPOSITE/Src/usbd_composite.c ****         USBD_COMPOSITE_GetFSCfgDesc,
 117:Middlewares/Third_Party/AL94_USB_Composite/COMPOSITE/Class/COMPOSITE/Src/usbd_composite.c ****         USBD_COMPOSITE_GetOtherSpeedCfgDesc,
 118:Middlewares/Third_Party/AL94_USB_Composite/COMPOSITE/Class/COMPOSITE/Src/usbd_composite.c ****         USBD_COMPOSITE_GetDeviceQualifierDesc,
 119:Middlewares/Third_Party/AL94_USB_Composite/COMPOSITE/Class/COMPOSITE/Src/usbd_composite.c ****         USBD_COMPOSITE_GetUsrStringDesc};
 120:Middlewares/Third_Party/AL94_USB_Composite/COMPOSITE/Class/COMPOSITE/Src/usbd_composite.c **** 
 121:Middlewares/Third_Party/AL94_USB_Composite/COMPOSITE/Class/COMPOSITE/Src/usbd_composite.c **** typedef struct USBD_COMPOSITE_CFG_DESC_t
 122:Middlewares/Third_Party/AL94_USB_Composite/COMPOSITE/Class/COMPOSITE/Src/usbd_composite.c **** {
 123:Middlewares/Third_Party/AL94_USB_Composite/COMPOSITE/Class/COMPOSITE/Src/usbd_composite.c ****   uint8_t CONFIG_DESC[USB_CONF_DESC_SIZE];
 124:Middlewares/Third_Party/AL94_USB_Composite/COMPOSITE/Class/COMPOSITE/Src/usbd_composite.c **** #if (USBD_USE_CDC_RNDIS == 1)
 125:Middlewares/Third_Party/AL94_USB_Composite/COMPOSITE/Class/COMPOSITE/Src/usbd_composite.c ****   uint8_t USBD_CDC_RNDIS_DESC[CDC_RNDIS_CONFIG_DESC_SIZE - 0x09];
 126:Middlewares/Third_Party/AL94_USB_Composite/COMPOSITE/Class/COMPOSITE/Src/usbd_composite.c **** #endif
 127:Middlewares/Third_Party/AL94_USB_Composite/COMPOSITE/Class/COMPOSITE/Src/usbd_composite.c **** #if (USBD_USE_CDC_ECM == 1)
 128:Middlewares/Third_Party/AL94_USB_Composite/COMPOSITE/Class/COMPOSITE/Src/usbd_composite.c ****   uint8_t USBD_CDC_ECM_DESC[CDC_ECM_CONFIG_DESC_SIZE - 0x09];
 129:Middlewares/Third_Party/AL94_USB_Composite/COMPOSITE/Class/COMPOSITE/Src/usbd_composite.c **** #endif
 130:Middlewares/Third_Party/AL94_USB_Composite/COMPOSITE/Class/COMPOSITE/Src/usbd_composite.c **** #if (USBD_USE_HID_MOUSE == 1)
 131:Middlewares/Third_Party/AL94_USB_Composite/COMPOSITE/Class/COMPOSITE/Src/usbd_composite.c ****   uint8_t USBD_HID_MOUSE_DESC[USB_HID_CONFIG_DESC_SIZ - 0x09];
 132:Middlewares/Third_Party/AL94_USB_Composite/COMPOSITE/Class/COMPOSITE/Src/usbd_composite.c **** #endif
 133:Middlewares/Third_Party/AL94_USB_Composite/COMPOSITE/Class/COMPOSITE/Src/usbd_composite.c **** #if (USBD_USE_HID_KEYBOARD == 1)
 134:Middlewares/Third_Party/AL94_USB_Composite/COMPOSITE/Class/COMPOSITE/Src/usbd_composite.c ****   uint8_t USBD_HID_KEYBOARD_DESC[HID_KEYBOARD_CONFIG_DESC_SIZE - 0x09];
 135:Middlewares/Third_Party/AL94_USB_Composite/COMPOSITE/Class/COMPOSITE/Src/usbd_composite.c **** #endif
 136:Middlewares/Third_Party/AL94_USB_Composite/COMPOSITE/Class/COMPOSITE/Src/usbd_composite.c **** #if (USBD_USE_HID_CUSTOM == 1)
 137:Middlewares/Third_Party/AL94_USB_Composite/COMPOSITE/Class/COMPOSITE/Src/usbd_composite.c ****   uint8_t USBD_HID_CUSTOM_DESC[USB_CUSTOM_HID_CONFIG_DESC_SIZ - 0x09];
 138:Middlewares/Third_Party/AL94_USB_Composite/COMPOSITE/Class/COMPOSITE/Src/usbd_composite.c **** #endif
 139:Middlewares/Third_Party/AL94_USB_Composite/COMPOSITE/Class/COMPOSITE/Src/usbd_composite.c **** #if (USBD_USE_UAC_MIC == 1)
 140:Middlewares/Third_Party/AL94_USB_Composite/COMPOSITE/Class/COMPOSITE/Src/usbd_composite.c ****   uint8_t USBD_UAC_MIC_DESC[USBD_AUDIO_MIC_CONFIG_DESC_SIZE - 0x09];
 141:Middlewares/Third_Party/AL94_USB_Composite/COMPOSITE/Class/COMPOSITE/Src/usbd_composite.c **** #endif
 142:Middlewares/Third_Party/AL94_USB_Composite/COMPOSITE/Class/COMPOSITE/Src/usbd_composite.c **** #if (USBD_USE_UAC_SPKR == 1)
 143:Middlewares/Third_Party/AL94_USB_Composite/COMPOSITE/Class/COMPOSITE/Src/usbd_composite.c ****   uint8_t USBD_AUDIO_SPKR_DESC[USBD_AUDIO_SPKR_CONFIG_DESC_SIZE - 0x09];
 144:Middlewares/Third_Party/AL94_USB_Composite/COMPOSITE/Class/COMPOSITE/Src/usbd_composite.c **** #endif
ARM GAS  C:\Users\Nathan\AppData\Local\Temp\ccbp06cD.s 			page 4


 145:Middlewares/Third_Party/AL94_USB_Composite/COMPOSITE/Class/COMPOSITE/Src/usbd_composite.c **** #if (USBD_USE_UVC == 1)
 146:Middlewares/Third_Party/AL94_USB_Composite/COMPOSITE/Class/COMPOSITE/Src/usbd_composite.c ****   uint8_t USBD_UVC_DESC[UVC_CONFIG_DESC_SIZE - 0x09];
 147:Middlewares/Third_Party/AL94_USB_Composite/COMPOSITE/Class/COMPOSITE/Src/usbd_composite.c **** #endif
 148:Middlewares/Third_Party/AL94_USB_Composite/COMPOSITE/Class/COMPOSITE/Src/usbd_composite.c **** #if (USBD_USE_MSC == 1)
 149:Middlewares/Third_Party/AL94_USB_Composite/COMPOSITE/Class/COMPOSITE/Src/usbd_composite.c ****   uint8_t USBD_MSC_DESC[USB_MSC_CONFIG_DESC_SIZ - 0x09];
 150:Middlewares/Third_Party/AL94_USB_Composite/COMPOSITE/Class/COMPOSITE/Src/usbd_composite.c **** #endif
 151:Middlewares/Third_Party/AL94_USB_Composite/COMPOSITE/Class/COMPOSITE/Src/usbd_composite.c **** #if (USBD_USE_DFU == 1)
 152:Middlewares/Third_Party/AL94_USB_Composite/COMPOSITE/Class/COMPOSITE/Src/usbd_composite.c ****   uint8_t USBD_DFU_DESC[USB_DFU_CONFIG_DESC_SIZ - 0x09];
 153:Middlewares/Third_Party/AL94_USB_Composite/COMPOSITE/Class/COMPOSITE/Src/usbd_composite.c **** #endif
 154:Middlewares/Third_Party/AL94_USB_Composite/COMPOSITE/Class/COMPOSITE/Src/usbd_composite.c **** #if (USBD_USE_PRNTR == 1)
 155:Middlewares/Third_Party/AL94_USB_Composite/COMPOSITE/Class/COMPOSITE/Src/usbd_composite.c ****   uint8_t USBD_PRNTR_DESC[USB_PRNT_CONFIG_DESC_SIZE - 0x09];
 156:Middlewares/Third_Party/AL94_USB_Composite/COMPOSITE/Class/COMPOSITE/Src/usbd_composite.c **** #endif
 157:Middlewares/Third_Party/AL94_USB_Composite/COMPOSITE/Class/COMPOSITE/Src/usbd_composite.c **** #if (USBD_USE_CDC_ACM == 1)
 158:Middlewares/Third_Party/AL94_USB_Composite/COMPOSITE/Class/COMPOSITE/Src/usbd_composite.c ****   uint8_t USBD_CDC_ACM_DESC[USB_CDC_CONFIG_DESC_SIZ - 0x09];
 159:Middlewares/Third_Party/AL94_USB_Composite/COMPOSITE/Class/COMPOSITE/Src/usbd_composite.c **** #endif
 160:Middlewares/Third_Party/AL94_USB_Composite/COMPOSITE/Class/COMPOSITE/Src/usbd_composite.c **** 
 161:Middlewares/Third_Party/AL94_USB_Composite/COMPOSITE/Class/COMPOSITE/Src/usbd_composite.c **** } __PACKED USBD_COMPOSITE_CFG_DESC_t;
 162:Middlewares/Third_Party/AL94_USB_Composite/COMPOSITE/Class/COMPOSITE/Src/usbd_composite.c **** 
 163:Middlewares/Third_Party/AL94_USB_Composite/COMPOSITE/Class/COMPOSITE/Src/usbd_composite.c **** #if defined(__ICCARM__) /*!< IAR Compiler */
 164:Middlewares/Third_Party/AL94_USB_Composite/COMPOSITE/Class/COMPOSITE/Src/usbd_composite.c **** #pragma data_alignment = 4
 165:Middlewares/Third_Party/AL94_USB_Composite/COMPOSITE/Class/COMPOSITE/Src/usbd_composite.c **** #endif
 166:Middlewares/Third_Party/AL94_USB_Composite/COMPOSITE/Class/COMPOSITE/Src/usbd_composite.c **** __ALIGN_BEGIN USBD_COMPOSITE_CFG_DESC_t USBD_COMPOSITE_FSCfgDesc, USBD_COMPOSITE_HSCfgDesc __ALIGN_
 167:Middlewares/Third_Party/AL94_USB_Composite/COMPOSITE/Class/COMPOSITE/Src/usbd_composite.c **** uint8_t USBD_Track_String_Index = (USBD_IDX_INTERFACE_STR + 1);
 168:Middlewares/Third_Party/AL94_USB_Composite/COMPOSITE/Class/COMPOSITE/Src/usbd_composite.c **** 
 169:Middlewares/Third_Party/AL94_USB_Composite/COMPOSITE/Class/COMPOSITE/Src/usbd_composite.c **** #if defined(__ICCARM__) /*!< IAR Compiler */
 170:Middlewares/Third_Party/AL94_USB_Composite/COMPOSITE/Class/COMPOSITE/Src/usbd_composite.c **** #pragma data_alignment = 4
 171:Middlewares/Third_Party/AL94_USB_Composite/COMPOSITE/Class/COMPOSITE/Src/usbd_composite.c **** #endif
 172:Middlewares/Third_Party/AL94_USB_Composite/COMPOSITE/Class/COMPOSITE/Src/usbd_composite.c **** /* USB Standard Device Descriptor */
 173:Middlewares/Third_Party/AL94_USB_Composite/COMPOSITE/Class/COMPOSITE/Src/usbd_composite.c **** __ALIGN_BEGIN static uint8_t USBD_COMPOSITE_DeviceQualifierDesc[USB_LEN_DEV_QUALIFIER_DESC] __ALIGN
 174:Middlewares/Third_Party/AL94_USB_Composite/COMPOSITE/Class/COMPOSITE/Src/usbd_composite.c ****     {
 175:Middlewares/Third_Party/AL94_USB_Composite/COMPOSITE/Class/COMPOSITE/Src/usbd_composite.c ****         USB_LEN_DEV_QUALIFIER_DESC,
 176:Middlewares/Third_Party/AL94_USB_Composite/COMPOSITE/Class/COMPOSITE/Src/usbd_composite.c ****         USB_DESC_TYPE_DEVICE_QUALIFIER,
 177:Middlewares/Third_Party/AL94_USB_Composite/COMPOSITE/Class/COMPOSITE/Src/usbd_composite.c ****         0x00,
 178:Middlewares/Third_Party/AL94_USB_Composite/COMPOSITE/Class/COMPOSITE/Src/usbd_composite.c ****         0x02,
 179:Middlewares/Third_Party/AL94_USB_Composite/COMPOSITE/Class/COMPOSITE/Src/usbd_composite.c ****         0xEF,
 180:Middlewares/Third_Party/AL94_USB_Composite/COMPOSITE/Class/COMPOSITE/Src/usbd_composite.c ****         0x02,
 181:Middlewares/Third_Party/AL94_USB_Composite/COMPOSITE/Class/COMPOSITE/Src/usbd_composite.c ****         0x01,
 182:Middlewares/Third_Party/AL94_USB_Composite/COMPOSITE/Class/COMPOSITE/Src/usbd_composite.c ****         0x40,
 183:Middlewares/Third_Party/AL94_USB_Composite/COMPOSITE/Class/COMPOSITE/Src/usbd_composite.c ****         0x01,
 184:Middlewares/Third_Party/AL94_USB_Composite/COMPOSITE/Class/COMPOSITE/Src/usbd_composite.c ****         0x00,
 185:Middlewares/Third_Party/AL94_USB_Composite/COMPOSITE/Class/COMPOSITE/Src/usbd_composite.c **** };
 186:Middlewares/Third_Party/AL94_USB_Composite/COMPOSITE/Class/COMPOSITE/Src/usbd_composite.c **** 
 187:Middlewares/Third_Party/AL94_USB_Composite/COMPOSITE/Class/COMPOSITE/Src/usbd_composite.c **** /**
 188:Middlewares/Third_Party/AL94_USB_Composite/COMPOSITE/Class/COMPOSITE/Src/usbd_composite.c ****   * @}
 189:Middlewares/Third_Party/AL94_USB_Composite/COMPOSITE/Class/COMPOSITE/Src/usbd_composite.c ****   */
 190:Middlewares/Third_Party/AL94_USB_Composite/COMPOSITE/Class/COMPOSITE/Src/usbd_composite.c **** 
 191:Middlewares/Third_Party/AL94_USB_Composite/COMPOSITE/Class/COMPOSITE/Src/usbd_composite.c **** /** @defgroup USBD_COMPOSITE_Private_Functions
 192:Middlewares/Third_Party/AL94_USB_Composite/COMPOSITE/Class/COMPOSITE/Src/usbd_composite.c ****   * @{
 193:Middlewares/Third_Party/AL94_USB_Composite/COMPOSITE/Class/COMPOSITE/Src/usbd_composite.c ****   */
 194:Middlewares/Third_Party/AL94_USB_Composite/COMPOSITE/Class/COMPOSITE/Src/usbd_composite.c **** 
 195:Middlewares/Third_Party/AL94_USB_Composite/COMPOSITE/Class/COMPOSITE/Src/usbd_composite.c **** /**
 196:Middlewares/Third_Party/AL94_USB_Composite/COMPOSITE/Class/COMPOSITE/Src/usbd_composite.c ****   * @brief  USBD_COMPOSITE_Init
 197:Middlewares/Third_Party/AL94_USB_Composite/COMPOSITE/Class/COMPOSITE/Src/usbd_composite.c ****   *         Initialize the COMPOSITE interface
 198:Middlewares/Third_Party/AL94_USB_Composite/COMPOSITE/Class/COMPOSITE/Src/usbd_composite.c ****   * @param  pdev: device instance
 199:Middlewares/Third_Party/AL94_USB_Composite/COMPOSITE/Class/COMPOSITE/Src/usbd_composite.c ****   * @param  cfgidx: Configuration index
 200:Middlewares/Third_Party/AL94_USB_Composite/COMPOSITE/Class/COMPOSITE/Src/usbd_composite.c ****   * @retval status
 201:Middlewares/Third_Party/AL94_USB_Composite/COMPOSITE/Class/COMPOSITE/Src/usbd_composite.c ****   */
ARM GAS  C:\Users\Nathan\AppData\Local\Temp\ccbp06cD.s 			page 5


 202:Middlewares/Third_Party/AL94_USB_Composite/COMPOSITE/Class/COMPOSITE/Src/usbd_composite.c **** static uint8_t USBD_COMPOSITE_Init(USBD_HandleTypeDef *pdev, uint8_t cfgidx)
 203:Middlewares/Third_Party/AL94_USB_Composite/COMPOSITE/Class/COMPOSITE/Src/usbd_composite.c **** {
  29              		.loc 1 203 1 view -0
  30              		.cfi_startproc
  31              		@ args = 0, pretend = 0, frame = 0
  32              		@ frame_needed = 0, uses_anonymous_args = 0
  33              		.loc 1 203 1 is_stmt 0 view .LVU1
  34 0000 38B5     		push	{r3, r4, r5, lr}
  35              		.cfi_def_cfa_offset 16
  36              		.cfi_offset 3, -16
  37              		.cfi_offset 4, -12
  38              		.cfi_offset 5, -8
  39              		.cfi_offset 14, -4
  40 0002 0446     		mov	r4, r0
  41 0004 0D46     		mov	r5, r1
 204:Middlewares/Third_Party/AL94_USB_Composite/COMPOSITE/Class/COMPOSITE/Src/usbd_composite.c **** #if (USBD_USE_CDC_ACM == 1)
 205:Middlewares/Third_Party/AL94_USB_Composite/COMPOSITE/Class/COMPOSITE/Src/usbd_composite.c ****   USBD_CDC_ACM.Init(pdev, cfgidx);
  42              		.loc 1 205 3 is_stmt 1 view .LVU2
  43              		.loc 1 205 15 is_stmt 0 view .LVU3
  44 0006 074B     		ldr	r3, .L3
  45 0008 1B68     		ldr	r3, [r3]
  46              		.loc 1 205 3 view .LVU4
  47 000a 9847     		blx	r3
  48              	.LVL1:
 206:Middlewares/Third_Party/AL94_USB_Composite/COMPOSITE/Class/COMPOSITE/Src/usbd_composite.c **** #endif
 207:Middlewares/Third_Party/AL94_USB_Composite/COMPOSITE/Class/COMPOSITE/Src/usbd_composite.c **** #if (USBD_USE_CDC_ECM == 1)
 208:Middlewares/Third_Party/AL94_USB_Composite/COMPOSITE/Class/COMPOSITE/Src/usbd_composite.c ****   USBD_CDC_ECM.Init(pdev, cfgidx);
 209:Middlewares/Third_Party/AL94_USB_Composite/COMPOSITE/Class/COMPOSITE/Src/usbd_composite.c **** #endif
 210:Middlewares/Third_Party/AL94_USB_Composite/COMPOSITE/Class/COMPOSITE/Src/usbd_composite.c **** #if (USBD_USE_CDC_RNDIS == 1)
 211:Middlewares/Third_Party/AL94_USB_Composite/COMPOSITE/Class/COMPOSITE/Src/usbd_composite.c ****   USBD_CDC_RNDIS.Init(pdev, cfgidx);
 212:Middlewares/Third_Party/AL94_USB_Composite/COMPOSITE/Class/COMPOSITE/Src/usbd_composite.c **** #endif
 213:Middlewares/Third_Party/AL94_USB_Composite/COMPOSITE/Class/COMPOSITE/Src/usbd_composite.c **** #if (USBD_USE_HID_MOUSE == 1)
 214:Middlewares/Third_Party/AL94_USB_Composite/COMPOSITE/Class/COMPOSITE/Src/usbd_composite.c ****   USBD_HID_MOUSE.Init(pdev, cfgidx);
 215:Middlewares/Third_Party/AL94_USB_Composite/COMPOSITE/Class/COMPOSITE/Src/usbd_composite.c **** #endif
 216:Middlewares/Third_Party/AL94_USB_Composite/COMPOSITE/Class/COMPOSITE/Src/usbd_composite.c **** #if (USBD_USE_HID_KEYBOARD == 1)
 217:Middlewares/Third_Party/AL94_USB_Composite/COMPOSITE/Class/COMPOSITE/Src/usbd_composite.c ****   USBD_HID_KEYBOARD.Init(pdev, cfgidx);
  49              		.loc 1 217 3 is_stmt 1 view .LVU5
  50              		.loc 1 217 20 is_stmt 0 view .LVU6
  51 000c 064B     		ldr	r3, .L3+4
  52 000e 1B68     		ldr	r3, [r3]
  53              		.loc 1 217 3 view .LVU7
  54 0010 2946     		mov	r1, r5
  55 0012 2046     		mov	r0, r4
  56 0014 9847     		blx	r3
  57              	.LVL2:
 218:Middlewares/Third_Party/AL94_USB_Composite/COMPOSITE/Class/COMPOSITE/Src/usbd_composite.c **** #endif
 219:Middlewares/Third_Party/AL94_USB_Composite/COMPOSITE/Class/COMPOSITE/Src/usbd_composite.c **** #if (USBD_USE_HID_CUSTOM == 1)
 220:Middlewares/Third_Party/AL94_USB_Composite/COMPOSITE/Class/COMPOSITE/Src/usbd_composite.c ****   USBD_HID_CUSTOM.Init(pdev, cfgidx);
  58              		.loc 1 220 3 is_stmt 1 view .LVU8
  59              		.loc 1 220 18 is_stmt 0 view .LVU9
  60 0016 054B     		ldr	r3, .L3+8
  61 0018 1B68     		ldr	r3, [r3]
  62              		.loc 1 220 3 view .LVU10
  63 001a 2946     		mov	r1, r5
  64 001c 2046     		mov	r0, r4
  65 001e 9847     		blx	r3
  66              	.LVL3:
ARM GAS  C:\Users\Nathan\AppData\Local\Temp\ccbp06cD.s 			page 6


 221:Middlewares/Third_Party/AL94_USB_Composite/COMPOSITE/Class/COMPOSITE/Src/usbd_composite.c **** #endif
 222:Middlewares/Third_Party/AL94_USB_Composite/COMPOSITE/Class/COMPOSITE/Src/usbd_composite.c **** #if (USBD_USE_UAC_MIC == 1)
 223:Middlewares/Third_Party/AL94_USB_Composite/COMPOSITE/Class/COMPOSITE/Src/usbd_composite.c ****   USBD_AUDIO_MIC.Init(pdev, cfgidx);
 224:Middlewares/Third_Party/AL94_USB_Composite/COMPOSITE/Class/COMPOSITE/Src/usbd_composite.c **** #endif
 225:Middlewares/Third_Party/AL94_USB_Composite/COMPOSITE/Class/COMPOSITE/Src/usbd_composite.c **** #if (USBD_USE_UAC_SPKR == 1)
 226:Middlewares/Third_Party/AL94_USB_Composite/COMPOSITE/Class/COMPOSITE/Src/usbd_composite.c ****   USBD_AUDIO_SPKR.Init(pdev, cfgidx);
 227:Middlewares/Third_Party/AL94_USB_Composite/COMPOSITE/Class/COMPOSITE/Src/usbd_composite.c **** #endif
 228:Middlewares/Third_Party/AL94_USB_Composite/COMPOSITE/Class/COMPOSITE/Src/usbd_composite.c **** #if (USBD_USE_UVC == 1)
 229:Middlewares/Third_Party/AL94_USB_Composite/COMPOSITE/Class/COMPOSITE/Src/usbd_composite.c ****   USBD_VIDEO.Init(pdev, cfgidx);
 230:Middlewares/Third_Party/AL94_USB_Composite/COMPOSITE/Class/COMPOSITE/Src/usbd_composite.c **** #endif
 231:Middlewares/Third_Party/AL94_USB_Composite/COMPOSITE/Class/COMPOSITE/Src/usbd_composite.c **** #if (USBD_USE_MSC == 1)
 232:Middlewares/Third_Party/AL94_USB_Composite/COMPOSITE/Class/COMPOSITE/Src/usbd_composite.c ****   USBD_MSC.Init(pdev, cfgidx);
 233:Middlewares/Third_Party/AL94_USB_Composite/COMPOSITE/Class/COMPOSITE/Src/usbd_composite.c **** #endif
 234:Middlewares/Third_Party/AL94_USB_Composite/COMPOSITE/Class/COMPOSITE/Src/usbd_composite.c **** #if (USBD_USE_DFU == 1)
 235:Middlewares/Third_Party/AL94_USB_Composite/COMPOSITE/Class/COMPOSITE/Src/usbd_composite.c ****   USBD_DFU.Init(pdev, cfgidx);
 236:Middlewares/Third_Party/AL94_USB_Composite/COMPOSITE/Class/COMPOSITE/Src/usbd_composite.c **** #endif
 237:Middlewares/Third_Party/AL94_USB_Composite/COMPOSITE/Class/COMPOSITE/Src/usbd_composite.c **** #if (USBD_USE_PRNTR == 1)
 238:Middlewares/Third_Party/AL94_USB_Composite/COMPOSITE/Class/COMPOSITE/Src/usbd_composite.c ****   USBD_PRNT.Init(pdev, cfgidx);
 239:Middlewares/Third_Party/AL94_USB_Composite/COMPOSITE/Class/COMPOSITE/Src/usbd_composite.c **** #endif
 240:Middlewares/Third_Party/AL94_USB_Composite/COMPOSITE/Class/COMPOSITE/Src/usbd_composite.c **** 
 241:Middlewares/Third_Party/AL94_USB_Composite/COMPOSITE/Class/COMPOSITE/Src/usbd_composite.c ****   return (uint8_t)USBD_OK;
  67              		.loc 1 241 3 is_stmt 1 view .LVU11
 242:Middlewares/Third_Party/AL94_USB_Composite/COMPOSITE/Class/COMPOSITE/Src/usbd_composite.c **** }
  68              		.loc 1 242 1 is_stmt 0 view .LVU12
  69 0020 0020     		movs	r0, #0
  70 0022 38BD     		pop	{r3, r4, r5, pc}
  71              	.LVL4:
  72              	.L4:
  73              		.loc 1 242 1 view .LVU13
  74              		.align	2
  75              	.L3:
  76 0024 00000000 		.word	USBD_CDC_ACM
  77 0028 00000000 		.word	USBD_HID_KEYBOARD
  78 002c 00000000 		.word	USBD_HID_CUSTOM
  79              		.cfi_endproc
  80              	.LFE1416:
  82              		.section	.text.USBD_COMPOSITE_DeInit,"ax",%progbits
  83              		.align	1
  84              		.syntax unified
  85              		.thumb
  86              		.thumb_func
  88              	USBD_COMPOSITE_DeInit:
  89              	.LVL5:
  90              	.LFB1417:
 243:Middlewares/Third_Party/AL94_USB_Composite/COMPOSITE/Class/COMPOSITE/Src/usbd_composite.c **** 
 244:Middlewares/Third_Party/AL94_USB_Composite/COMPOSITE/Class/COMPOSITE/Src/usbd_composite.c **** /**
 245:Middlewares/Third_Party/AL94_USB_Composite/COMPOSITE/Class/COMPOSITE/Src/usbd_composite.c ****   * @brief  USBD_COMPOSITE_Init
 246:Middlewares/Third_Party/AL94_USB_Composite/COMPOSITE/Class/COMPOSITE/Src/usbd_composite.c ****   *         DeInitialize the COMPOSITE layer
 247:Middlewares/Third_Party/AL94_USB_Composite/COMPOSITE/Class/COMPOSITE/Src/usbd_composite.c ****   * @param  pdev: device instance
 248:Middlewares/Third_Party/AL94_USB_Composite/COMPOSITE/Class/COMPOSITE/Src/usbd_composite.c ****   * @param  cfgidx: Configuration index
 249:Middlewares/Third_Party/AL94_USB_Composite/COMPOSITE/Class/COMPOSITE/Src/usbd_composite.c ****   * @retval status
 250:Middlewares/Third_Party/AL94_USB_Composite/COMPOSITE/Class/COMPOSITE/Src/usbd_composite.c ****   */
 251:Middlewares/Third_Party/AL94_USB_Composite/COMPOSITE/Class/COMPOSITE/Src/usbd_composite.c **** static uint8_t USBD_COMPOSITE_DeInit(USBD_HandleTypeDef *pdev, uint8_t cfgidx)
 252:Middlewares/Third_Party/AL94_USB_Composite/COMPOSITE/Class/COMPOSITE/Src/usbd_composite.c **** {
  91              		.loc 1 252 1 is_stmt 1 view -0
  92              		.cfi_startproc
  93              		@ args = 0, pretend = 0, frame = 0
ARM GAS  C:\Users\Nathan\AppData\Local\Temp\ccbp06cD.s 			page 7


  94              		@ frame_needed = 0, uses_anonymous_args = 0
  95              		.loc 1 252 1 is_stmt 0 view .LVU15
  96 0000 38B5     		push	{r3, r4, r5, lr}
  97              		.cfi_def_cfa_offset 16
  98              		.cfi_offset 3, -16
  99              		.cfi_offset 4, -12
 100              		.cfi_offset 5, -8
 101              		.cfi_offset 14, -4
 102 0002 0446     		mov	r4, r0
 103 0004 0D46     		mov	r5, r1
 253:Middlewares/Third_Party/AL94_USB_Composite/COMPOSITE/Class/COMPOSITE/Src/usbd_composite.c **** #if (USBD_USE_CDC_ACM == 1)
 254:Middlewares/Third_Party/AL94_USB_Composite/COMPOSITE/Class/COMPOSITE/Src/usbd_composite.c ****   USBD_CDC_ACM.DeInit(pdev, cfgidx);
 104              		.loc 1 254 3 is_stmt 1 view .LVU16
 105              		.loc 1 254 15 is_stmt 0 view .LVU17
 106 0006 074B     		ldr	r3, .L7
 107 0008 5B68     		ldr	r3, [r3, #4]
 108              		.loc 1 254 3 view .LVU18
 109 000a 9847     		blx	r3
 110              	.LVL6:
 255:Middlewares/Third_Party/AL94_USB_Composite/COMPOSITE/Class/COMPOSITE/Src/usbd_composite.c **** #endif
 256:Middlewares/Third_Party/AL94_USB_Composite/COMPOSITE/Class/COMPOSITE/Src/usbd_composite.c **** #if (USBD_USE_CDC_ECM == 1)
 257:Middlewares/Third_Party/AL94_USB_Composite/COMPOSITE/Class/COMPOSITE/Src/usbd_composite.c ****   USBD_CDC_ECM.DeInit(pdev, cfgidx);
 258:Middlewares/Third_Party/AL94_USB_Composite/COMPOSITE/Class/COMPOSITE/Src/usbd_composite.c **** #endif
 259:Middlewares/Third_Party/AL94_USB_Composite/COMPOSITE/Class/COMPOSITE/Src/usbd_composite.c **** #if (USBD_USE_CDC_RNDIS == 1)
 260:Middlewares/Third_Party/AL94_USB_Composite/COMPOSITE/Class/COMPOSITE/Src/usbd_composite.c ****   USBD_CDC_RNDIS.DeInit(pdev, cfgidx);
 261:Middlewares/Third_Party/AL94_USB_Composite/COMPOSITE/Class/COMPOSITE/Src/usbd_composite.c **** #endif
 262:Middlewares/Third_Party/AL94_USB_Composite/COMPOSITE/Class/COMPOSITE/Src/usbd_composite.c **** #if (USBD_USE_HID_MOUSE == 1)
 263:Middlewares/Third_Party/AL94_USB_Composite/COMPOSITE/Class/COMPOSITE/Src/usbd_composite.c ****   USBD_HID_MOUSE.DeInit(pdev, cfgidx);
 264:Middlewares/Third_Party/AL94_USB_Composite/COMPOSITE/Class/COMPOSITE/Src/usbd_composite.c **** #endif
 265:Middlewares/Third_Party/AL94_USB_Composite/COMPOSITE/Class/COMPOSITE/Src/usbd_composite.c **** #if (USBD_USE_HID_KEYBOARD == 1)
 266:Middlewares/Third_Party/AL94_USB_Composite/COMPOSITE/Class/COMPOSITE/Src/usbd_composite.c ****   USBD_HID_KEYBOARD.DeInit(pdev, cfgidx);
 111              		.loc 1 266 3 is_stmt 1 view .LVU19
 112              		.loc 1 266 20 is_stmt 0 view .LVU20
 113 000c 064B     		ldr	r3, .L7+4
 114 000e 5B68     		ldr	r3, [r3, #4]
 115              		.loc 1 266 3 view .LVU21
 116 0010 2946     		mov	r1, r5
 117 0012 2046     		mov	r0, r4
 118 0014 9847     		blx	r3
 119              	.LVL7:
 267:Middlewares/Third_Party/AL94_USB_Composite/COMPOSITE/Class/COMPOSITE/Src/usbd_composite.c **** #endif
 268:Middlewares/Third_Party/AL94_USB_Composite/COMPOSITE/Class/COMPOSITE/Src/usbd_composite.c **** #if (USBD_USE_HID_CUSTOM == 1)
 269:Middlewares/Third_Party/AL94_USB_Composite/COMPOSITE/Class/COMPOSITE/Src/usbd_composite.c ****   USBD_HID_CUSTOM.DeInit(pdev, cfgidx);
 120              		.loc 1 269 3 is_stmt 1 view .LVU22
 121              		.loc 1 269 18 is_stmt 0 view .LVU23
 122 0016 054B     		ldr	r3, .L7+8
 123 0018 5B68     		ldr	r3, [r3, #4]
 124              		.loc 1 269 3 view .LVU24
 125 001a 2946     		mov	r1, r5
 126 001c 2046     		mov	r0, r4
 127 001e 9847     		blx	r3
 128              	.LVL8:
 270:Middlewares/Third_Party/AL94_USB_Composite/COMPOSITE/Class/COMPOSITE/Src/usbd_composite.c **** #endif
 271:Middlewares/Third_Party/AL94_USB_Composite/COMPOSITE/Class/COMPOSITE/Src/usbd_composite.c **** #if (USBD_USE_UAC_MIC == 1)
 272:Middlewares/Third_Party/AL94_USB_Composite/COMPOSITE/Class/COMPOSITE/Src/usbd_composite.c ****   USBD_AUDIO_MIC.DeInit(pdev, cfgidx);
 273:Middlewares/Third_Party/AL94_USB_Composite/COMPOSITE/Class/COMPOSITE/Src/usbd_composite.c **** #endif
 274:Middlewares/Third_Party/AL94_USB_Composite/COMPOSITE/Class/COMPOSITE/Src/usbd_composite.c **** #if (USBD_USE_UAC_SPKR == 1)
ARM GAS  C:\Users\Nathan\AppData\Local\Temp\ccbp06cD.s 			page 8


 275:Middlewares/Third_Party/AL94_USB_Composite/COMPOSITE/Class/COMPOSITE/Src/usbd_composite.c ****   USBD_AUDIO_SPKR.DeInit(pdev, cfgidx);
 276:Middlewares/Third_Party/AL94_USB_Composite/COMPOSITE/Class/COMPOSITE/Src/usbd_composite.c **** #endif
 277:Middlewares/Third_Party/AL94_USB_Composite/COMPOSITE/Class/COMPOSITE/Src/usbd_composite.c **** #if (USBD_USE_UVC == 1)
 278:Middlewares/Third_Party/AL94_USB_Composite/COMPOSITE/Class/COMPOSITE/Src/usbd_composite.c ****   USBD_VIDEO.DeInit(pdev, cfgidx);
 279:Middlewares/Third_Party/AL94_USB_Composite/COMPOSITE/Class/COMPOSITE/Src/usbd_composite.c **** #endif
 280:Middlewares/Third_Party/AL94_USB_Composite/COMPOSITE/Class/COMPOSITE/Src/usbd_composite.c **** #if (USBD_USE_MSC == 1)
 281:Middlewares/Third_Party/AL94_USB_Composite/COMPOSITE/Class/COMPOSITE/Src/usbd_composite.c ****   USBD_MSC.DeInit(pdev, cfgidx);
 282:Middlewares/Third_Party/AL94_USB_Composite/COMPOSITE/Class/COMPOSITE/Src/usbd_composite.c **** #endif
 283:Middlewares/Third_Party/AL94_USB_Composite/COMPOSITE/Class/COMPOSITE/Src/usbd_composite.c **** #if (USBD_USE_DFU == 1)
 284:Middlewares/Third_Party/AL94_USB_Composite/COMPOSITE/Class/COMPOSITE/Src/usbd_composite.c ****   USBD_DFU.DeInit(pdev, cfgidx);
 285:Middlewares/Third_Party/AL94_USB_Composite/COMPOSITE/Class/COMPOSITE/Src/usbd_composite.c **** #endif
 286:Middlewares/Third_Party/AL94_USB_Composite/COMPOSITE/Class/COMPOSITE/Src/usbd_composite.c **** #if (USBD_USE_PRNTR == 1)
 287:Middlewares/Third_Party/AL94_USB_Composite/COMPOSITE/Class/COMPOSITE/Src/usbd_composite.c ****   USBD_PRNT.DeInit(pdev, cfgidx);
 288:Middlewares/Third_Party/AL94_USB_Composite/COMPOSITE/Class/COMPOSITE/Src/usbd_composite.c **** #endif
 289:Middlewares/Third_Party/AL94_USB_Composite/COMPOSITE/Class/COMPOSITE/Src/usbd_composite.c **** 
 290:Middlewares/Third_Party/AL94_USB_Composite/COMPOSITE/Class/COMPOSITE/Src/usbd_composite.c ****   return (uint8_t)USBD_OK;
 129              		.loc 1 290 3 is_stmt 1 view .LVU25
 291:Middlewares/Third_Party/AL94_USB_Composite/COMPOSITE/Class/COMPOSITE/Src/usbd_composite.c **** }
 130              		.loc 1 291 1 is_stmt 0 view .LVU26
 131 0020 0020     		movs	r0, #0
 132 0022 38BD     		pop	{r3, r4, r5, pc}
 133              	.LVL9:
 134              	.L8:
 135              		.loc 1 291 1 view .LVU27
 136              		.align	2
 137              	.L7:
 138 0024 00000000 		.word	USBD_CDC_ACM
 139 0028 00000000 		.word	USBD_HID_KEYBOARD
 140 002c 00000000 		.word	USBD_HID_CUSTOM
 141              		.cfi_endproc
 142              	.LFE1417:
 144              		.section	.text.USBD_COMPOSITE_Setup,"ax",%progbits
 145              		.align	1
 146              		.syntax unified
 147              		.thumb
 148              		.thumb_func
 150              	USBD_COMPOSITE_Setup:
 151              	.LVL10:
 152              	.LFB1418:
 292:Middlewares/Third_Party/AL94_USB_Composite/COMPOSITE/Class/COMPOSITE/Src/usbd_composite.c **** 
 293:Middlewares/Third_Party/AL94_USB_Composite/COMPOSITE/Class/COMPOSITE/Src/usbd_composite.c **** /**
 294:Middlewares/Third_Party/AL94_USB_Composite/COMPOSITE/Class/COMPOSITE/Src/usbd_composite.c ****   * @brief  USBD_COMPOSITE_Setup
 295:Middlewares/Third_Party/AL94_USB_Composite/COMPOSITE/Class/COMPOSITE/Src/usbd_composite.c ****   *         Handle the COMPOSITE specific requests
 296:Middlewares/Third_Party/AL94_USB_Composite/COMPOSITE/Class/COMPOSITE/Src/usbd_composite.c ****   * @param  pdev: instance
 297:Middlewares/Third_Party/AL94_USB_Composite/COMPOSITE/Class/COMPOSITE/Src/usbd_composite.c ****   * @param  req: usb requests
 298:Middlewares/Third_Party/AL94_USB_Composite/COMPOSITE/Class/COMPOSITE/Src/usbd_composite.c ****   * @retval status
 299:Middlewares/Third_Party/AL94_USB_Composite/COMPOSITE/Class/COMPOSITE/Src/usbd_composite.c ****   */
 300:Middlewares/Third_Party/AL94_USB_Composite/COMPOSITE/Class/COMPOSITE/Src/usbd_composite.c **** static uint8_t USBD_COMPOSITE_Setup(USBD_HandleTypeDef *pdev,
 301:Middlewares/Third_Party/AL94_USB_Composite/COMPOSITE/Class/COMPOSITE/Src/usbd_composite.c ****                                     USBD_SetupReqTypedef *req)
 302:Middlewares/Third_Party/AL94_USB_Composite/COMPOSITE/Class/COMPOSITE/Src/usbd_composite.c **** {
 153              		.loc 1 302 1 is_stmt 1 view -0
 154              		.cfi_startproc
 155              		@ args = 0, pretend = 0, frame = 0
 156              		@ frame_needed = 0, uses_anonymous_args = 0
 157              		.loc 1 302 1 is_stmt 0 view .LVU29
 158 0000 10B5     		push	{r4, lr}
 159              		.cfi_def_cfa_offset 8
ARM GAS  C:\Users\Nathan\AppData\Local\Temp\ccbp06cD.s 			page 9


 160              		.cfi_offset 4, -8
 161              		.cfi_offset 14, -4
 303:Middlewares/Third_Party/AL94_USB_Composite/COMPOSITE/Class/COMPOSITE/Src/usbd_composite.c **** #if (USBD_USE_CDC_ACM == 1)
 304:Middlewares/Third_Party/AL94_USB_Composite/COMPOSITE/Class/COMPOSITE/Src/usbd_composite.c ****   for (uint8_t i = 0; i < USBD_CDC_ACM_COUNT; i++)
 162              		.loc 1 304 3 is_stmt 1 view .LVU30
 163              	.LBB2:
 164              		.loc 1 304 8 view .LVU31
 165              	.LVL11:
 166              		.loc 1 304 16 is_stmt 0 view .LVU32
 167 0002 0023     		movs	r3, #0
 168              	.LVL12:
 169              	.L10:
 170              		.loc 1 304 25 is_stmt 1 discriminator 1 view .LVU33
 171 0004 012B     		cmp	r3, #1
 172 0006 10D8     		bhi	.L18
 305:Middlewares/Third_Party/AL94_USB_Composite/COMPOSITE/Class/COMPOSITE/Src/usbd_composite.c ****   {
 306:Middlewares/Third_Party/AL94_USB_Composite/COMPOSITE/Class/COMPOSITE/Src/usbd_composite.c ****     if (LOBYTE(req->wIndex) == CDC_CMD_ITF_NBR[i] || LOBYTE(req->wIndex) == CDC_COM_ITF_NBR[i])
 173              		.loc 1 306 5 view .LVU34
 174              		.loc 1 306 9 is_stmt 0 view .LVU35
 175 0008 0A79     		ldrb	r2, [r1, #4]	@ zero_extendqisi2
 176              		.loc 1 306 47 view .LVU36
 177 000a 114C     		ldr	r4, .L21
 178 000c 14F803C0 		ldrb	ip, [r4, r3]	@ zero_extendqisi2
 179              		.loc 1 306 8 view .LVU37
 180 0010 6245     		cmp	r2, ip
 181 0012 06D0     		beq	.L11
 182              		.loc 1 306 92 discriminator 1 view .LVU38
 183 0014 0F4C     		ldr	r4, .L21+4
 184 0016 E45C     		ldrb	r4, [r4, r3]	@ zero_extendqisi2
 185              		.loc 1 306 51 discriminator 1 view .LVU39
 186 0018 A242     		cmp	r2, r4
 187 001a 02D0     		beq	.L11
 304:Middlewares/Third_Party/AL94_USB_Composite/COMPOSITE/Class/COMPOSITE/Src/usbd_composite.c ****   {
 188              		.loc 1 304 48 is_stmt 1 discriminator 2 view .LVU40
 189 001c 0133     		adds	r3, r3, #1
 190              	.LVL13:
 304:Middlewares/Third_Party/AL94_USB_Composite/COMPOSITE/Class/COMPOSITE/Src/usbd_composite.c ****   {
 191              		.loc 1 304 48 is_stmt 0 discriminator 2 view .LVU41
 192 001e DBB2     		uxtb	r3, r3
 193              	.LVL14:
 304:Middlewares/Third_Party/AL94_USB_Composite/COMPOSITE/Class/COMPOSITE/Src/usbd_composite.c ****   {
 194              		.loc 1 304 48 discriminator 2 view .LVU42
 195 0020 F0E7     		b	.L10
 196              	.L11:
 307:Middlewares/Third_Party/AL94_USB_Composite/COMPOSITE/Class/COMPOSITE/Src/usbd_composite.c ****     {
 308:Middlewares/Third_Party/AL94_USB_Composite/COMPOSITE/Class/COMPOSITE/Src/usbd_composite.c ****       return USBD_CDC_ACM.Setup(pdev, req);
 197              		.loc 1 308 7 is_stmt 1 view .LVU43
 198              		.loc 1 308 26 is_stmt 0 view .LVU44
 199 0022 0D4B     		ldr	r3, .L21+8
 200              	.LVL15:
 201              		.loc 1 308 26 view .LVU45
 202 0024 9B68     		ldr	r3, [r3, #8]
 203              		.loc 1 308 14 view .LVU46
 204 0026 9847     		blx	r3
 205              	.LVL16:
 206              		.loc 1 308 14 view .LVU47
 207 0028 09E0     		b	.L13
ARM GAS  C:\Users\Nathan\AppData\Local\Temp\ccbp06cD.s 			page 10


 208              	.LVL17:
 209              	.L18:
 210              		.loc 1 308 14 view .LVU48
 211              	.LBE2:
 309:Middlewares/Third_Party/AL94_USB_Composite/COMPOSITE/Class/COMPOSITE/Src/usbd_composite.c ****     }
 310:Middlewares/Third_Party/AL94_USB_Composite/COMPOSITE/Class/COMPOSITE/Src/usbd_composite.c ****   }
 311:Middlewares/Third_Party/AL94_USB_Composite/COMPOSITE/Class/COMPOSITE/Src/usbd_composite.c **** #endif
 312:Middlewares/Third_Party/AL94_USB_Composite/COMPOSITE/Class/COMPOSITE/Src/usbd_composite.c **** #if (USBD_USE_CDC_ECM == 1)
 313:Middlewares/Third_Party/AL94_USB_Composite/COMPOSITE/Class/COMPOSITE/Src/usbd_composite.c ****   if (LOBYTE(req->wIndex) == CDC_ECM_CMD_ITF_NBR || LOBYTE(req->wIndex) == CDC_ECM_COM_ITF_NBR)
 314:Middlewares/Third_Party/AL94_USB_Composite/COMPOSITE/Class/COMPOSITE/Src/usbd_composite.c ****   {
 315:Middlewares/Third_Party/AL94_USB_Composite/COMPOSITE/Class/COMPOSITE/Src/usbd_composite.c ****     return USBD_CDC_ECM.Setup(pdev, req);
 316:Middlewares/Third_Party/AL94_USB_Composite/COMPOSITE/Class/COMPOSITE/Src/usbd_composite.c ****   }
 317:Middlewares/Third_Party/AL94_USB_Composite/COMPOSITE/Class/COMPOSITE/Src/usbd_composite.c **** #endif
 318:Middlewares/Third_Party/AL94_USB_Composite/COMPOSITE/Class/COMPOSITE/Src/usbd_composite.c **** #if (USBD_USE_CDC_RNDIS == 1)
 319:Middlewares/Third_Party/AL94_USB_Composite/COMPOSITE/Class/COMPOSITE/Src/usbd_composite.c ****   if (LOBYTE(req->wIndex) == CDC_RNDIS_CMD_ITF_NBR || LOBYTE(req->wIndex) == CDC_RNDIS_COM_ITF_NBR)
 320:Middlewares/Third_Party/AL94_USB_Composite/COMPOSITE/Class/COMPOSITE/Src/usbd_composite.c ****   {
 321:Middlewares/Third_Party/AL94_USB_Composite/COMPOSITE/Class/COMPOSITE/Src/usbd_composite.c ****     return USBD_CDC_RNDIS.Setup(pdev, req);
 322:Middlewares/Third_Party/AL94_USB_Composite/COMPOSITE/Class/COMPOSITE/Src/usbd_composite.c ****   }
 323:Middlewares/Third_Party/AL94_USB_Composite/COMPOSITE/Class/COMPOSITE/Src/usbd_composite.c **** #endif
 324:Middlewares/Third_Party/AL94_USB_Composite/COMPOSITE/Class/COMPOSITE/Src/usbd_composite.c **** #if (USBD_USE_HID_MOUSE == 1)
 325:Middlewares/Third_Party/AL94_USB_Composite/COMPOSITE/Class/COMPOSITE/Src/usbd_composite.c ****   if (LOBYTE(req->wIndex) == HID_MOUSE_ITF_NBR)
 326:Middlewares/Third_Party/AL94_USB_Composite/COMPOSITE/Class/COMPOSITE/Src/usbd_composite.c ****   {
 327:Middlewares/Third_Party/AL94_USB_Composite/COMPOSITE/Class/COMPOSITE/Src/usbd_composite.c ****     return USBD_HID_MOUSE.Setup(pdev, req);
 328:Middlewares/Third_Party/AL94_USB_Composite/COMPOSITE/Class/COMPOSITE/Src/usbd_composite.c ****   }
 329:Middlewares/Third_Party/AL94_USB_Composite/COMPOSITE/Class/COMPOSITE/Src/usbd_composite.c **** #endif
 330:Middlewares/Third_Party/AL94_USB_Composite/COMPOSITE/Class/COMPOSITE/Src/usbd_composite.c **** #if (USBD_USE_HID_KEYBOARD == 1)
 331:Middlewares/Third_Party/AL94_USB_Composite/COMPOSITE/Class/COMPOSITE/Src/usbd_composite.c ****   if (LOBYTE(req->wIndex) == HID_KEYBOARD_ITF_NBR)
 212              		.loc 1 331 3 is_stmt 1 view .LVU49
 213              		.loc 1 331 7 is_stmt 0 view .LVU50
 214 002a 0B79     		ldrb	r3, [r1, #4]	@ zero_extendqisi2
 215              	.LVL18:
 216              		.loc 1 331 27 view .LVU51
 217 002c 0B4A     		ldr	r2, .L21+12
 218 002e 1278     		ldrb	r2, [r2]	@ zero_extendqisi2
 219              		.loc 1 331 6 view .LVU52
 220 0030 9342     		cmp	r3, r2
 221 0032 05D0     		beq	.L19
 332:Middlewares/Third_Party/AL94_USB_Composite/COMPOSITE/Class/COMPOSITE/Src/usbd_composite.c ****   {
 333:Middlewares/Third_Party/AL94_USB_Composite/COMPOSITE/Class/COMPOSITE/Src/usbd_composite.c ****     return USBD_HID_KEYBOARD.Setup(pdev, req);
 334:Middlewares/Third_Party/AL94_USB_Composite/COMPOSITE/Class/COMPOSITE/Src/usbd_composite.c ****   }
 335:Middlewares/Third_Party/AL94_USB_Composite/COMPOSITE/Class/COMPOSITE/Src/usbd_composite.c **** #endif
 336:Middlewares/Third_Party/AL94_USB_Composite/COMPOSITE/Class/COMPOSITE/Src/usbd_composite.c **** #if (USBD_USE_HID_CUSTOM == 1)
 337:Middlewares/Third_Party/AL94_USB_Composite/COMPOSITE/Class/COMPOSITE/Src/usbd_composite.c ****   if (LOBYTE(req->wIndex) == CUSTOM_HID_ITF_NBR)
 222              		.loc 1 337 3 is_stmt 1 view .LVU53
 223              		.loc 1 337 27 is_stmt 0 view .LVU54
 224 0034 0A4A     		ldr	r2, .L21+16
 225 0036 1278     		ldrb	r2, [r2]	@ zero_extendqisi2
 226              		.loc 1 337 6 view .LVU55
 227 0038 9342     		cmp	r3, r2
 228 003a 05D0     		beq	.L20
 338:Middlewares/Third_Party/AL94_USB_Composite/COMPOSITE/Class/COMPOSITE/Src/usbd_composite.c ****   {
 339:Middlewares/Third_Party/AL94_USB_Composite/COMPOSITE/Class/COMPOSITE/Src/usbd_composite.c ****     return USBD_HID_CUSTOM.Setup(pdev, req);
 340:Middlewares/Third_Party/AL94_USB_Composite/COMPOSITE/Class/COMPOSITE/Src/usbd_composite.c ****   }
 341:Middlewares/Third_Party/AL94_USB_Composite/COMPOSITE/Class/COMPOSITE/Src/usbd_composite.c **** #endif
 342:Middlewares/Third_Party/AL94_USB_Composite/COMPOSITE/Class/COMPOSITE/Src/usbd_composite.c **** #if (USBD_USE_UAC_MIC == 1)
 343:Middlewares/Third_Party/AL94_USB_Composite/COMPOSITE/Class/COMPOSITE/Src/usbd_composite.c ****   if (LOBYTE(req->wIndex) == AUDIO_MIC_AC_ITF_NBR || LOBYTE(req->wIndex) == AUDIO_MIC_AS_ITF_NBR)
 344:Middlewares/Third_Party/AL94_USB_Composite/COMPOSITE/Class/COMPOSITE/Src/usbd_composite.c ****   {
ARM GAS  C:\Users\Nathan\AppData\Local\Temp\ccbp06cD.s 			page 11


 345:Middlewares/Third_Party/AL94_USB_Composite/COMPOSITE/Class/COMPOSITE/Src/usbd_composite.c ****     return USBD_AUDIO_MIC.Setup(pdev, req);
 346:Middlewares/Third_Party/AL94_USB_Composite/COMPOSITE/Class/COMPOSITE/Src/usbd_composite.c ****   }
 347:Middlewares/Third_Party/AL94_USB_Composite/COMPOSITE/Class/COMPOSITE/Src/usbd_composite.c **** #endif
 348:Middlewares/Third_Party/AL94_USB_Composite/COMPOSITE/Class/COMPOSITE/Src/usbd_composite.c **** #if (USBD_USE_UAC_SPKR == 1)
 349:Middlewares/Third_Party/AL94_USB_Composite/COMPOSITE/Class/COMPOSITE/Src/usbd_composite.c ****   if (LOBYTE(req->wIndex) == AUDIO_SPKR_AC_ITF_NBR || LOBYTE(req->wIndex) == AUDIO_SPKR_AS_ITF_NBR)
 350:Middlewares/Third_Party/AL94_USB_Composite/COMPOSITE/Class/COMPOSITE/Src/usbd_composite.c ****   {
 351:Middlewares/Third_Party/AL94_USB_Composite/COMPOSITE/Class/COMPOSITE/Src/usbd_composite.c ****     return USBD_AUDIO_SPKR.Setup(pdev, req);
 352:Middlewares/Third_Party/AL94_USB_Composite/COMPOSITE/Class/COMPOSITE/Src/usbd_composite.c ****   }
 353:Middlewares/Third_Party/AL94_USB_Composite/COMPOSITE/Class/COMPOSITE/Src/usbd_composite.c **** #endif
 354:Middlewares/Third_Party/AL94_USB_Composite/COMPOSITE/Class/COMPOSITE/Src/usbd_composite.c **** #if (USBD_USE_UVC == 1)
 355:Middlewares/Third_Party/AL94_USB_Composite/COMPOSITE/Class/COMPOSITE/Src/usbd_composite.c ****   if (LOBYTE(req->wIndex) == UVC_VC_IF_NUM || LOBYTE(req->wIndex) == UVC_VS_IF_NUM)
 356:Middlewares/Third_Party/AL94_USB_Composite/COMPOSITE/Class/COMPOSITE/Src/usbd_composite.c ****   {
 357:Middlewares/Third_Party/AL94_USB_Composite/COMPOSITE/Class/COMPOSITE/Src/usbd_composite.c ****     return USBD_VIDEO.Setup(pdev, req);
 358:Middlewares/Third_Party/AL94_USB_Composite/COMPOSITE/Class/COMPOSITE/Src/usbd_composite.c ****   }
 359:Middlewares/Third_Party/AL94_USB_Composite/COMPOSITE/Class/COMPOSITE/Src/usbd_composite.c **** #endif
 360:Middlewares/Third_Party/AL94_USB_Composite/COMPOSITE/Class/COMPOSITE/Src/usbd_composite.c **** #if (USBD_USE_MSC == 1)
 361:Middlewares/Third_Party/AL94_USB_Composite/COMPOSITE/Class/COMPOSITE/Src/usbd_composite.c ****   if (LOBYTE(req->wIndex) == MSC_ITF_NBR)
 362:Middlewares/Third_Party/AL94_USB_Composite/COMPOSITE/Class/COMPOSITE/Src/usbd_composite.c ****   {
 363:Middlewares/Third_Party/AL94_USB_Composite/COMPOSITE/Class/COMPOSITE/Src/usbd_composite.c ****     return USBD_MSC.Setup(pdev, req);
 364:Middlewares/Third_Party/AL94_USB_Composite/COMPOSITE/Class/COMPOSITE/Src/usbd_composite.c ****   }
 365:Middlewares/Third_Party/AL94_USB_Composite/COMPOSITE/Class/COMPOSITE/Src/usbd_composite.c **** #endif
 366:Middlewares/Third_Party/AL94_USB_Composite/COMPOSITE/Class/COMPOSITE/Src/usbd_composite.c **** #if (USBD_USE_DFU == 1)
 367:Middlewares/Third_Party/AL94_USB_Composite/COMPOSITE/Class/COMPOSITE/Src/usbd_composite.c ****   if (LOBYTE(req->wIndex) == DFU_ITF_NBR)
 368:Middlewares/Third_Party/AL94_USB_Composite/COMPOSITE/Class/COMPOSITE/Src/usbd_composite.c ****   {
 369:Middlewares/Third_Party/AL94_USB_Composite/COMPOSITE/Class/COMPOSITE/Src/usbd_composite.c ****     return USBD_DFU.Setup(pdev, req);
 370:Middlewares/Third_Party/AL94_USB_Composite/COMPOSITE/Class/COMPOSITE/Src/usbd_composite.c ****   }
 371:Middlewares/Third_Party/AL94_USB_Composite/COMPOSITE/Class/COMPOSITE/Src/usbd_composite.c **** #endif
 372:Middlewares/Third_Party/AL94_USB_Composite/COMPOSITE/Class/COMPOSITE/Src/usbd_composite.c **** #if (USBD_USE_PRNTR == 1)
 373:Middlewares/Third_Party/AL94_USB_Composite/COMPOSITE/Class/COMPOSITE/Src/usbd_composite.c ****   if (LOBYTE(req->wIndex) == PRNT_ITF_NBR)
 374:Middlewares/Third_Party/AL94_USB_Composite/COMPOSITE/Class/COMPOSITE/Src/usbd_composite.c ****   {
 375:Middlewares/Third_Party/AL94_USB_Composite/COMPOSITE/Class/COMPOSITE/Src/usbd_composite.c ****     USBD_PRNT.Setup(pdev, req);
 376:Middlewares/Third_Party/AL94_USB_Composite/COMPOSITE/Class/COMPOSITE/Src/usbd_composite.c ****   }
 377:Middlewares/Third_Party/AL94_USB_Composite/COMPOSITE/Class/COMPOSITE/Src/usbd_composite.c **** #endif
 378:Middlewares/Third_Party/AL94_USB_Composite/COMPOSITE/Class/COMPOSITE/Src/usbd_composite.c **** 
 379:Middlewares/Third_Party/AL94_USB_Composite/COMPOSITE/Class/COMPOSITE/Src/usbd_composite.c ****   return USBD_FAIL;
 229              		.loc 1 379 10 view .LVU56
 230 003c 0320     		movs	r0, #3
 231              	.LVL19:
 232              	.L13:
 380:Middlewares/Third_Party/AL94_USB_Composite/COMPOSITE/Class/COMPOSITE/Src/usbd_composite.c **** }
 233              		.loc 1 380 1 view .LVU57
 234 003e 10BD     		pop	{r4, pc}
 235              	.LVL20:
 236              	.L19:
 333:Middlewares/Third_Party/AL94_USB_Composite/COMPOSITE/Class/COMPOSITE/Src/usbd_composite.c ****   }
 237              		.loc 1 333 5 is_stmt 1 view .LVU58
 333:Middlewares/Third_Party/AL94_USB_Composite/COMPOSITE/Class/COMPOSITE/Src/usbd_composite.c ****   }
 238              		.loc 1 333 29 is_stmt 0 view .LVU59
 239 0040 084B     		ldr	r3, .L21+20
 240 0042 9B68     		ldr	r3, [r3, #8]
 333:Middlewares/Third_Party/AL94_USB_Composite/COMPOSITE/Class/COMPOSITE/Src/usbd_composite.c ****   }
 241              		.loc 1 333 12 view .LVU60
 242 0044 9847     		blx	r3
 243              	.LVL21:
 333:Middlewares/Third_Party/AL94_USB_Composite/COMPOSITE/Class/COMPOSITE/Src/usbd_composite.c ****   }
 244              		.loc 1 333 12 view .LVU61
 245 0046 FAE7     		b	.L13
ARM GAS  C:\Users\Nathan\AppData\Local\Temp\ccbp06cD.s 			page 12


 246              	.LVL22:
 247              	.L20:
 339:Middlewares/Third_Party/AL94_USB_Composite/COMPOSITE/Class/COMPOSITE/Src/usbd_composite.c ****   }
 248              		.loc 1 339 5 is_stmt 1 view .LVU62
 339:Middlewares/Third_Party/AL94_USB_Composite/COMPOSITE/Class/COMPOSITE/Src/usbd_composite.c ****   }
 249              		.loc 1 339 27 is_stmt 0 view .LVU63
 250 0048 074B     		ldr	r3, .L21+24
 251 004a 9B68     		ldr	r3, [r3, #8]
 339:Middlewares/Third_Party/AL94_USB_Composite/COMPOSITE/Class/COMPOSITE/Src/usbd_composite.c ****   }
 252              		.loc 1 339 12 view .LVU64
 253 004c 9847     		blx	r3
 254              	.LVL23:
 339:Middlewares/Third_Party/AL94_USB_Composite/COMPOSITE/Class/COMPOSITE/Src/usbd_composite.c ****   }
 255              		.loc 1 339 12 view .LVU65
 256 004e F6E7     		b	.L13
 257              	.L22:
 258              		.align	2
 259              	.L21:
 260 0050 00000000 		.word	CDC_CMD_ITF_NBR
 261 0054 00000000 		.word	CDC_COM_ITF_NBR
 262 0058 00000000 		.word	USBD_CDC_ACM
 263 005c 00000000 		.word	HID_KEYBOARD_ITF_NBR
 264 0060 00000000 		.word	CUSTOM_HID_ITF_NBR
 265 0064 00000000 		.word	USBD_HID_KEYBOARD
 266 0068 00000000 		.word	USBD_HID_CUSTOM
 267              		.cfi_endproc
 268              	.LFE1418:
 270              		.section	.text.USBD_COMPOSITE_DataIn,"ax",%progbits
 271              		.align	1
 272              		.syntax unified
 273              		.thumb
 274              		.thumb_func
 276              	USBD_COMPOSITE_DataIn:
 277              	.LVL24:
 278              	.LFB1419:
 381:Middlewares/Third_Party/AL94_USB_Composite/COMPOSITE/Class/COMPOSITE/Src/usbd_composite.c **** 
 382:Middlewares/Third_Party/AL94_USB_Composite/COMPOSITE/Class/COMPOSITE/Src/usbd_composite.c **** /**
 383:Middlewares/Third_Party/AL94_USB_Composite/COMPOSITE/Class/COMPOSITE/Src/usbd_composite.c ****   * @brief  USBD_COMPOSITE_DataIn
 384:Middlewares/Third_Party/AL94_USB_Composite/COMPOSITE/Class/COMPOSITE/Src/usbd_composite.c ****   *         handle data IN Stage
 385:Middlewares/Third_Party/AL94_USB_Composite/COMPOSITE/Class/COMPOSITE/Src/usbd_composite.c ****   * @param  pdev: device instance
 386:Middlewares/Third_Party/AL94_USB_Composite/COMPOSITE/Class/COMPOSITE/Src/usbd_composite.c ****   * @param  epnum: endpoint index
 387:Middlewares/Third_Party/AL94_USB_Composite/COMPOSITE/Class/COMPOSITE/Src/usbd_composite.c ****   * @retval status
 388:Middlewares/Third_Party/AL94_USB_Composite/COMPOSITE/Class/COMPOSITE/Src/usbd_composite.c ****   */
 389:Middlewares/Third_Party/AL94_USB_Composite/COMPOSITE/Class/COMPOSITE/Src/usbd_composite.c **** static uint8_t USBD_COMPOSITE_DataIn(USBD_HandleTypeDef *pdev, uint8_t epnum)
 390:Middlewares/Third_Party/AL94_USB_Composite/COMPOSITE/Class/COMPOSITE/Src/usbd_composite.c **** {
 279              		.loc 1 390 1 is_stmt 1 view -0
 280              		.cfi_startproc
 281              		@ args = 0, pretend = 0, frame = 0
 282              		@ frame_needed = 0, uses_anonymous_args = 0
 283              		.loc 1 390 1 is_stmt 0 view .LVU67
 284 0000 08B5     		push	{r3, lr}
 285              		.cfi_def_cfa_offset 8
 286              		.cfi_offset 3, -8
 287              		.cfi_offset 14, -4
 391:Middlewares/Third_Party/AL94_USB_Composite/COMPOSITE/Class/COMPOSITE/Src/usbd_composite.c **** #if (USBD_USE_CDC_ACM == 1)
 392:Middlewares/Third_Party/AL94_USB_Composite/COMPOSITE/Class/COMPOSITE/Src/usbd_composite.c ****   for (uint8_t i = 0; i < USBD_CDC_ACM_COUNT; i++)
 288              		.loc 1 392 3 is_stmt 1 view .LVU68
ARM GAS  C:\Users\Nathan\AppData\Local\Temp\ccbp06cD.s 			page 13


 289              	.LBB3:
 290              		.loc 1 392 8 view .LVU69
 291              	.LVL25:
 292              		.loc 1 392 16 is_stmt 0 view .LVU70
 293 0002 0023     		movs	r3, #0
 294              	.LVL26:
 295              	.L24:
 296              		.loc 1 392 25 is_stmt 1 discriminator 1 view .LVU71
 297 0004 012B     		cmp	r3, #1
 298 0006 12D8     		bhi	.L32
 393:Middlewares/Third_Party/AL94_USB_Composite/COMPOSITE/Class/COMPOSITE/Src/usbd_composite.c ****   {
 394:Middlewares/Third_Party/AL94_USB_Composite/COMPOSITE/Class/COMPOSITE/Src/usbd_composite.c ****     if (epnum == (CDC_IN_EP[i] & 0x7F) || epnum == (CDC_CMD_EP[i] & 0x7F))
 299              		.loc 1 394 5 view .LVU72
 300              		.loc 1 394 28 is_stmt 0 view .LVU73
 301 0008 144A     		ldr	r2, .L35
 302 000a D25C     		ldrb	r2, [r2, r3]	@ zero_extendqisi2
 303              		.loc 1 394 8 view .LVU74
 304 000c 02F07F02 		and	r2, r2, #127
 305 0010 9142     		cmp	r1, r2
 306 0012 08D0     		beq	.L25
 307              		.loc 1 394 63 discriminator 1 view .LVU75
 308 0014 124A     		ldr	r2, .L35+4
 309 0016 D25C     		ldrb	r2, [r2, r3]	@ zero_extendqisi2
 310              		.loc 1 394 40 discriminator 1 view .LVU76
 311 0018 02F07F02 		and	r2, r2, #127
 312 001c 9142     		cmp	r1, r2
 313 001e 02D0     		beq	.L25
 392:Middlewares/Third_Party/AL94_USB_Composite/COMPOSITE/Class/COMPOSITE/Src/usbd_composite.c ****   {
 314              		.loc 1 392 48 is_stmt 1 discriminator 2 view .LVU77
 315 0020 0133     		adds	r3, r3, #1
 316              	.LVL27:
 392:Middlewares/Third_Party/AL94_USB_Composite/COMPOSITE/Class/COMPOSITE/Src/usbd_composite.c ****   {
 317              		.loc 1 392 48 is_stmt 0 discriminator 2 view .LVU78
 318 0022 DBB2     		uxtb	r3, r3
 319              	.LVL28:
 392:Middlewares/Third_Party/AL94_USB_Composite/COMPOSITE/Class/COMPOSITE/Src/usbd_composite.c ****   {
 320              		.loc 1 392 48 discriminator 2 view .LVU79
 321 0024 EEE7     		b	.L24
 322              	.L25:
 395:Middlewares/Third_Party/AL94_USB_Composite/COMPOSITE/Class/COMPOSITE/Src/usbd_composite.c ****     {
 396:Middlewares/Third_Party/AL94_USB_Composite/COMPOSITE/Class/COMPOSITE/Src/usbd_composite.c ****       return USBD_CDC_ACM.DataIn(pdev, epnum);
 323              		.loc 1 396 7 is_stmt 1 view .LVU80
 324              		.loc 1 396 26 is_stmt 0 view .LVU81
 325 0026 0F4B     		ldr	r3, .L35+8
 326              	.LVL29:
 327              		.loc 1 396 26 view .LVU82
 328 0028 5B69     		ldr	r3, [r3, #20]
 329              		.loc 1 396 14 view .LVU83
 330 002a 9847     		blx	r3
 331              	.LVL30:
 332              		.loc 1 396 14 view .LVU84
 333 002c 0CE0     		b	.L27
 334              	.LVL31:
 335              	.L32:
 336              		.loc 1 396 14 view .LVU85
 337              	.LBE3:
 397:Middlewares/Third_Party/AL94_USB_Composite/COMPOSITE/Class/COMPOSITE/Src/usbd_composite.c ****     }
ARM GAS  C:\Users\Nathan\AppData\Local\Temp\ccbp06cD.s 			page 14


 398:Middlewares/Third_Party/AL94_USB_Composite/COMPOSITE/Class/COMPOSITE/Src/usbd_composite.c ****   }
 399:Middlewares/Third_Party/AL94_USB_Composite/COMPOSITE/Class/COMPOSITE/Src/usbd_composite.c **** #endif
 400:Middlewares/Third_Party/AL94_USB_Composite/COMPOSITE/Class/COMPOSITE/Src/usbd_composite.c **** #if (USBD_USE_CDC_ECM == 1)
 401:Middlewares/Third_Party/AL94_USB_Composite/COMPOSITE/Class/COMPOSITE/Src/usbd_composite.c ****   if (epnum == (CDC_ECM_IN_EP & 0x7F) || epnum == (CDC_ECM_CMD_EP & 0x7F))
 402:Middlewares/Third_Party/AL94_USB_Composite/COMPOSITE/Class/COMPOSITE/Src/usbd_composite.c ****   {
 403:Middlewares/Third_Party/AL94_USB_Composite/COMPOSITE/Class/COMPOSITE/Src/usbd_composite.c ****     return USBD_CDC_ECM.DataIn(pdev, epnum);
 404:Middlewares/Third_Party/AL94_USB_Composite/COMPOSITE/Class/COMPOSITE/Src/usbd_composite.c ****   }
 405:Middlewares/Third_Party/AL94_USB_Composite/COMPOSITE/Class/COMPOSITE/Src/usbd_composite.c **** #endif
 406:Middlewares/Third_Party/AL94_USB_Composite/COMPOSITE/Class/COMPOSITE/Src/usbd_composite.c **** #if (USBD_USE_CDC_RNDIS == 1)
 407:Middlewares/Third_Party/AL94_USB_Composite/COMPOSITE/Class/COMPOSITE/Src/usbd_composite.c ****   if (epnum == (CDC_RNDIS_IN_EP & 0x7F) || epnum == (CDC_RNDIS_CMD_EP & 0x7F))
 408:Middlewares/Third_Party/AL94_USB_Composite/COMPOSITE/Class/COMPOSITE/Src/usbd_composite.c ****   {
 409:Middlewares/Third_Party/AL94_USB_Composite/COMPOSITE/Class/COMPOSITE/Src/usbd_composite.c ****     return USBD_CDC_RNDIS.DataIn(pdev, epnum);
 410:Middlewares/Third_Party/AL94_USB_Composite/COMPOSITE/Class/COMPOSITE/Src/usbd_composite.c ****   }
 411:Middlewares/Third_Party/AL94_USB_Composite/COMPOSITE/Class/COMPOSITE/Src/usbd_composite.c **** #endif
 412:Middlewares/Third_Party/AL94_USB_Composite/COMPOSITE/Class/COMPOSITE/Src/usbd_composite.c **** #if (USBD_USE_HID_MOUSE == 1)
 413:Middlewares/Third_Party/AL94_USB_Composite/COMPOSITE/Class/COMPOSITE/Src/usbd_composite.c ****   if (epnum == (HID_MOUSE_IN_EP & 0x7F))
 414:Middlewares/Third_Party/AL94_USB_Composite/COMPOSITE/Class/COMPOSITE/Src/usbd_composite.c ****   {
 415:Middlewares/Third_Party/AL94_USB_Composite/COMPOSITE/Class/COMPOSITE/Src/usbd_composite.c ****     return USBD_HID_MOUSE.DataIn(pdev, epnum);
 416:Middlewares/Third_Party/AL94_USB_Composite/COMPOSITE/Class/COMPOSITE/Src/usbd_composite.c ****   }
 417:Middlewares/Third_Party/AL94_USB_Composite/COMPOSITE/Class/COMPOSITE/Src/usbd_composite.c **** #endif
 418:Middlewares/Third_Party/AL94_USB_Composite/COMPOSITE/Class/COMPOSITE/Src/usbd_composite.c **** #if (USBD_USE_HID_KEYBOARD == 1)
 419:Middlewares/Third_Party/AL94_USB_Composite/COMPOSITE/Class/COMPOSITE/Src/usbd_composite.c ****   if (epnum == (HID_KEYBOARD_IN_EP & 0x7F))
 338              		.loc 1 419 3 is_stmt 1 view .LVU86
 339              		.loc 1 419 36 is_stmt 0 view .LVU87
 340 002e 0E4B     		ldr	r3, .L35+12
 341              	.LVL32:
 342              		.loc 1 419 36 view .LVU88
 343 0030 1B78     		ldrb	r3, [r3]	@ zero_extendqisi2
 344              		.loc 1 419 6 view .LVU89
 345 0032 03F07F03 		and	r3, r3, #127
 346 0036 8B42     		cmp	r3, r1
 347 0038 07D0     		beq	.L33
 420:Middlewares/Third_Party/AL94_USB_Composite/COMPOSITE/Class/COMPOSITE/Src/usbd_composite.c ****   {
 421:Middlewares/Third_Party/AL94_USB_Composite/COMPOSITE/Class/COMPOSITE/Src/usbd_composite.c ****     return USBD_HID_KEYBOARD.DataIn(pdev, epnum);
 422:Middlewares/Third_Party/AL94_USB_Composite/COMPOSITE/Class/COMPOSITE/Src/usbd_composite.c ****   }
 423:Middlewares/Third_Party/AL94_USB_Composite/COMPOSITE/Class/COMPOSITE/Src/usbd_composite.c **** #endif
 424:Middlewares/Third_Party/AL94_USB_Composite/COMPOSITE/Class/COMPOSITE/Src/usbd_composite.c **** #if (USBD_USE_HID_CUSTOM == 1)
 425:Middlewares/Third_Party/AL94_USB_Composite/COMPOSITE/Class/COMPOSITE/Src/usbd_composite.c ****   if (epnum == (CUSTOM_HID_IN_EP & 0x7F))
 348              		.loc 1 425 3 is_stmt 1 view .LVU90
 349              		.loc 1 425 34 is_stmt 0 view .LVU91
 350 003a 0C4B     		ldr	r3, .L35+16
 351 003c 1B78     		ldrb	r3, [r3]	@ zero_extendqisi2
 352              		.loc 1 425 6 view .LVU92
 353 003e 03F07F03 		and	r3, r3, #127
 354 0042 9942     		cmp	r1, r3
 355 0044 05D0     		beq	.L34
 426:Middlewares/Third_Party/AL94_USB_Composite/COMPOSITE/Class/COMPOSITE/Src/usbd_composite.c ****   {
 427:Middlewares/Third_Party/AL94_USB_Composite/COMPOSITE/Class/COMPOSITE/Src/usbd_composite.c ****     return USBD_HID_CUSTOM.DataIn(pdev, epnum);
 428:Middlewares/Third_Party/AL94_USB_Composite/COMPOSITE/Class/COMPOSITE/Src/usbd_composite.c ****   }
 429:Middlewares/Third_Party/AL94_USB_Composite/COMPOSITE/Class/COMPOSITE/Src/usbd_composite.c **** #endif
 430:Middlewares/Third_Party/AL94_USB_Composite/COMPOSITE/Class/COMPOSITE/Src/usbd_composite.c **** #if (USBD_USE_UAC_MIC == 1)
 431:Middlewares/Third_Party/AL94_USB_Composite/COMPOSITE/Class/COMPOSITE/Src/usbd_composite.c ****   if (epnum == (AUDIO_MIC_EP & 0x7F))
 432:Middlewares/Third_Party/AL94_USB_Composite/COMPOSITE/Class/COMPOSITE/Src/usbd_composite.c ****   {
 433:Middlewares/Third_Party/AL94_USB_Composite/COMPOSITE/Class/COMPOSITE/Src/usbd_composite.c ****     return USBD_AUDIO_MIC.DataIn(pdev, epnum);
 434:Middlewares/Third_Party/AL94_USB_Composite/COMPOSITE/Class/COMPOSITE/Src/usbd_composite.c ****   }
 435:Middlewares/Third_Party/AL94_USB_Composite/COMPOSITE/Class/COMPOSITE/Src/usbd_composite.c **** #endif
 436:Middlewares/Third_Party/AL94_USB_Composite/COMPOSITE/Class/COMPOSITE/Src/usbd_composite.c **** #if (USBD_USE_UAC_SPKR == 1)
ARM GAS  C:\Users\Nathan\AppData\Local\Temp\ccbp06cD.s 			page 15


 437:Middlewares/Third_Party/AL94_USB_Composite/COMPOSITE/Class/COMPOSITE/Src/usbd_composite.c **** #endif
 438:Middlewares/Third_Party/AL94_USB_Composite/COMPOSITE/Class/COMPOSITE/Src/usbd_composite.c **** #if (USBD_USE_UVC == 1)
 439:Middlewares/Third_Party/AL94_USB_Composite/COMPOSITE/Class/COMPOSITE/Src/usbd_composite.c ****   if (epnum == (UVC_IN_EP & 0x7F))
 440:Middlewares/Third_Party/AL94_USB_Composite/COMPOSITE/Class/COMPOSITE/Src/usbd_composite.c ****   {
 441:Middlewares/Third_Party/AL94_USB_Composite/COMPOSITE/Class/COMPOSITE/Src/usbd_composite.c ****     return USBD_VIDEO.DataIn(pdev, epnum);
 442:Middlewares/Third_Party/AL94_USB_Composite/COMPOSITE/Class/COMPOSITE/Src/usbd_composite.c ****   }
 443:Middlewares/Third_Party/AL94_USB_Composite/COMPOSITE/Class/COMPOSITE/Src/usbd_composite.c **** #endif
 444:Middlewares/Third_Party/AL94_USB_Composite/COMPOSITE/Class/COMPOSITE/Src/usbd_composite.c **** #if (USBD_USE_MSC == 1)
 445:Middlewares/Third_Party/AL94_USB_Composite/COMPOSITE/Class/COMPOSITE/Src/usbd_composite.c ****   if (epnum == (MSC_IN_EP & 0x7F))
 446:Middlewares/Third_Party/AL94_USB_Composite/COMPOSITE/Class/COMPOSITE/Src/usbd_composite.c ****   {
 447:Middlewares/Third_Party/AL94_USB_Composite/COMPOSITE/Class/COMPOSITE/Src/usbd_composite.c ****     return USBD_MSC.DataIn(pdev, epnum);
 448:Middlewares/Third_Party/AL94_USB_Composite/COMPOSITE/Class/COMPOSITE/Src/usbd_composite.c ****   }
 449:Middlewares/Third_Party/AL94_USB_Composite/COMPOSITE/Class/COMPOSITE/Src/usbd_composite.c **** #endif
 450:Middlewares/Third_Party/AL94_USB_Composite/COMPOSITE/Class/COMPOSITE/Src/usbd_composite.c **** #if (USBD_USE_DFU == 1)
 451:Middlewares/Third_Party/AL94_USB_Composite/COMPOSITE/Class/COMPOSITE/Src/usbd_composite.c **** #endif
 452:Middlewares/Third_Party/AL94_USB_Composite/COMPOSITE/Class/COMPOSITE/Src/usbd_composite.c **** #if (USBD_USE_PRNTR == 1)
 453:Middlewares/Third_Party/AL94_USB_Composite/COMPOSITE/Class/COMPOSITE/Src/usbd_composite.c ****   if (epnum == (PRNT_IN_EP & 0x7F))
 454:Middlewares/Third_Party/AL94_USB_Composite/COMPOSITE/Class/COMPOSITE/Src/usbd_composite.c ****   {
 455:Middlewares/Third_Party/AL94_USB_Composite/COMPOSITE/Class/COMPOSITE/Src/usbd_composite.c ****     USBD_PRNT.DataIn(pdev, epnum);
 456:Middlewares/Third_Party/AL94_USB_Composite/COMPOSITE/Class/COMPOSITE/Src/usbd_composite.c ****   }
 457:Middlewares/Third_Party/AL94_USB_Composite/COMPOSITE/Class/COMPOSITE/Src/usbd_composite.c **** #endif
 458:Middlewares/Third_Party/AL94_USB_Composite/COMPOSITE/Class/COMPOSITE/Src/usbd_composite.c **** 
 459:Middlewares/Third_Party/AL94_USB_Composite/COMPOSITE/Class/COMPOSITE/Src/usbd_composite.c ****   return USBD_FAIL;
 356              		.loc 1 459 10 view .LVU93
 357 0046 0320     		movs	r0, #3
 358              	.LVL33:
 359              	.L27:
 460:Middlewares/Third_Party/AL94_USB_Composite/COMPOSITE/Class/COMPOSITE/Src/usbd_composite.c **** }
 360              		.loc 1 460 1 view .LVU94
 361 0048 08BD     		pop	{r3, pc}
 362              	.LVL34:
 363              	.L33:
 421:Middlewares/Third_Party/AL94_USB_Composite/COMPOSITE/Class/COMPOSITE/Src/usbd_composite.c ****   }
 364              		.loc 1 421 5 is_stmt 1 view .LVU95
 421:Middlewares/Third_Party/AL94_USB_Composite/COMPOSITE/Class/COMPOSITE/Src/usbd_composite.c ****   }
 365              		.loc 1 421 29 is_stmt 0 view .LVU96
 366 004a 094B     		ldr	r3, .L35+20
 367 004c 5B69     		ldr	r3, [r3, #20]
 421:Middlewares/Third_Party/AL94_USB_Composite/COMPOSITE/Class/COMPOSITE/Src/usbd_composite.c ****   }
 368              		.loc 1 421 12 view .LVU97
 369 004e 9847     		blx	r3
 370              	.LVL35:
 421:Middlewares/Third_Party/AL94_USB_Composite/COMPOSITE/Class/COMPOSITE/Src/usbd_composite.c ****   }
 371              		.loc 1 421 12 view .LVU98
 372 0050 FAE7     		b	.L27
 373              	.LVL36:
 374              	.L34:
 427:Middlewares/Third_Party/AL94_USB_Composite/COMPOSITE/Class/COMPOSITE/Src/usbd_composite.c ****   }
 375              		.loc 1 427 5 is_stmt 1 view .LVU99
 427:Middlewares/Third_Party/AL94_USB_Composite/COMPOSITE/Class/COMPOSITE/Src/usbd_composite.c ****   }
 376              		.loc 1 427 27 is_stmt 0 view .LVU100
 377 0052 084B     		ldr	r3, .L35+24
 378 0054 5B69     		ldr	r3, [r3, #20]
 427:Middlewares/Third_Party/AL94_USB_Composite/COMPOSITE/Class/COMPOSITE/Src/usbd_composite.c ****   }
 379              		.loc 1 427 12 view .LVU101
 380 0056 9847     		blx	r3
 381              	.LVL37:
ARM GAS  C:\Users\Nathan\AppData\Local\Temp\ccbp06cD.s 			page 16


 427:Middlewares/Third_Party/AL94_USB_Composite/COMPOSITE/Class/COMPOSITE/Src/usbd_composite.c ****   }
 382              		.loc 1 427 12 view .LVU102
 383 0058 F6E7     		b	.L27
 384              	.L36:
 385 005a 00BF     		.align	2
 386              	.L35:
 387 005c 00000000 		.word	CDC_IN_EP
 388 0060 00000000 		.word	CDC_CMD_EP
 389 0064 00000000 		.word	USBD_CDC_ACM
 390 0068 00000000 		.word	HID_KEYBOARD_IN_EP
 391 006c 00000000 		.word	CUSTOM_HID_IN_EP
 392 0070 00000000 		.word	USBD_HID_KEYBOARD
 393 0074 00000000 		.word	USBD_HID_CUSTOM
 394              		.cfi_endproc
 395              	.LFE1419:
 397              		.section	.text.USBD_COMPOSITE_EP0_RxReady,"ax",%progbits
 398              		.align	1
 399              		.syntax unified
 400              		.thumb
 401              		.thumb_func
 403              	USBD_COMPOSITE_EP0_RxReady:
 404              	.LVL38:
 405              	.LFB1420:
 461:Middlewares/Third_Party/AL94_USB_Composite/COMPOSITE/Class/COMPOSITE/Src/usbd_composite.c **** 
 462:Middlewares/Third_Party/AL94_USB_Composite/COMPOSITE/Class/COMPOSITE/Src/usbd_composite.c **** /**
 463:Middlewares/Third_Party/AL94_USB_Composite/COMPOSITE/Class/COMPOSITE/Src/usbd_composite.c ****   * @brief  USBD_COMPOSITE_EP0_RxReady
 464:Middlewares/Third_Party/AL94_USB_Composite/COMPOSITE/Class/COMPOSITE/Src/usbd_composite.c ****   *         handle EP0 Rx Ready event
 465:Middlewares/Third_Party/AL94_USB_Composite/COMPOSITE/Class/COMPOSITE/Src/usbd_composite.c ****   * @param  pdev: device instance
 466:Middlewares/Third_Party/AL94_USB_Composite/COMPOSITE/Class/COMPOSITE/Src/usbd_composite.c ****   * @retval status
 467:Middlewares/Third_Party/AL94_USB_Composite/COMPOSITE/Class/COMPOSITE/Src/usbd_composite.c ****   */
 468:Middlewares/Third_Party/AL94_USB_Composite/COMPOSITE/Class/COMPOSITE/Src/usbd_composite.c **** static uint8_t USBD_COMPOSITE_EP0_RxReady(USBD_HandleTypeDef *pdev)
 469:Middlewares/Third_Party/AL94_USB_Composite/COMPOSITE/Class/COMPOSITE/Src/usbd_composite.c **** {
 406              		.loc 1 469 1 is_stmt 1 view -0
 407              		.cfi_startproc
 408              		@ args = 0, pretend = 0, frame = 0
 409              		@ frame_needed = 0, uses_anonymous_args = 0
 410              		.loc 1 469 1 is_stmt 0 view .LVU104
 411 0000 10B5     		push	{r4, lr}
 412              		.cfi_def_cfa_offset 8
 413              		.cfi_offset 4, -8
 414              		.cfi_offset 14, -4
 415 0002 0446     		mov	r4, r0
 470:Middlewares/Third_Party/AL94_USB_Composite/COMPOSITE/Class/COMPOSITE/Src/usbd_composite.c **** #if (USBD_USE_CDC_ACM == 1)
 471:Middlewares/Third_Party/AL94_USB_Composite/COMPOSITE/Class/COMPOSITE/Src/usbd_composite.c ****   USBD_CDC_ACM.EP0_RxReady(pdev);
 416              		.loc 1 471 3 is_stmt 1 view .LVU105
 417              		.loc 1 471 15 is_stmt 0 view .LVU106
 418 0004 044B     		ldr	r3, .L39
 419 0006 1B69     		ldr	r3, [r3, #16]
 420              		.loc 1 471 3 view .LVU107
 421 0008 9847     		blx	r3
 422              	.LVL39:
 472:Middlewares/Third_Party/AL94_USB_Composite/COMPOSITE/Class/COMPOSITE/Src/usbd_composite.c **** #endif
 473:Middlewares/Third_Party/AL94_USB_Composite/COMPOSITE/Class/COMPOSITE/Src/usbd_composite.c **** #if (USBD_USE_CDC_ECM == 1)
 474:Middlewares/Third_Party/AL94_USB_Composite/COMPOSITE/Class/COMPOSITE/Src/usbd_composite.c ****   USBD_CDC_ECM.EP0_RxReady(pdev);
 475:Middlewares/Third_Party/AL94_USB_Composite/COMPOSITE/Class/COMPOSITE/Src/usbd_composite.c **** #endif
 476:Middlewares/Third_Party/AL94_USB_Composite/COMPOSITE/Class/COMPOSITE/Src/usbd_composite.c **** #if (USBD_USE_CDC_RNDIS == 1)
 477:Middlewares/Third_Party/AL94_USB_Composite/COMPOSITE/Class/COMPOSITE/Src/usbd_composite.c ****   USBD_CDC_RNDIS.EP0_RxReady(pdev);
ARM GAS  C:\Users\Nathan\AppData\Local\Temp\ccbp06cD.s 			page 17


 478:Middlewares/Third_Party/AL94_USB_Composite/COMPOSITE/Class/COMPOSITE/Src/usbd_composite.c **** #endif
 479:Middlewares/Third_Party/AL94_USB_Composite/COMPOSITE/Class/COMPOSITE/Src/usbd_composite.c **** #if (USBD_USE_HID_MOUSE == 1)
 480:Middlewares/Third_Party/AL94_USB_Composite/COMPOSITE/Class/COMPOSITE/Src/usbd_composite.c **** #endif
 481:Middlewares/Third_Party/AL94_USB_Composite/COMPOSITE/Class/COMPOSITE/Src/usbd_composite.c **** #if (USBD_USE_HID_KEYBOARD == 1)
 482:Middlewares/Third_Party/AL94_USB_Composite/COMPOSITE/Class/COMPOSITE/Src/usbd_composite.c **** #endif
 483:Middlewares/Third_Party/AL94_USB_Composite/COMPOSITE/Class/COMPOSITE/Src/usbd_composite.c **** #if (USBD_USE_HID_CUSTOM == 1)
 484:Middlewares/Third_Party/AL94_USB_Composite/COMPOSITE/Class/COMPOSITE/Src/usbd_composite.c ****   USBD_HID_CUSTOM.EP0_RxReady(pdev);
 423              		.loc 1 484 3 is_stmt 1 view .LVU108
 424              		.loc 1 484 18 is_stmt 0 view .LVU109
 425 000a 044B     		ldr	r3, .L39+4
 426 000c 1B69     		ldr	r3, [r3, #16]
 427              		.loc 1 484 3 view .LVU110
 428 000e 2046     		mov	r0, r4
 429 0010 9847     		blx	r3
 430              	.LVL40:
 485:Middlewares/Third_Party/AL94_USB_Composite/COMPOSITE/Class/COMPOSITE/Src/usbd_composite.c **** #endif
 486:Middlewares/Third_Party/AL94_USB_Composite/COMPOSITE/Class/COMPOSITE/Src/usbd_composite.c **** #if (USBD_USE_UAC_MIC == 1)
 487:Middlewares/Third_Party/AL94_USB_Composite/COMPOSITE/Class/COMPOSITE/Src/usbd_composite.c ****   USBD_AUDIO_MIC.EP0_RxReady(pdev);
 488:Middlewares/Third_Party/AL94_USB_Composite/COMPOSITE/Class/COMPOSITE/Src/usbd_composite.c **** #endif
 489:Middlewares/Third_Party/AL94_USB_Composite/COMPOSITE/Class/COMPOSITE/Src/usbd_composite.c **** #if (USBD_USE_UAC_SPKR == 1)
 490:Middlewares/Third_Party/AL94_USB_Composite/COMPOSITE/Class/COMPOSITE/Src/usbd_composite.c ****   USBD_AUDIO_SPKR.EP0_RxReady(pdev);
 491:Middlewares/Third_Party/AL94_USB_Composite/COMPOSITE/Class/COMPOSITE/Src/usbd_composite.c **** #endif
 492:Middlewares/Third_Party/AL94_USB_Composite/COMPOSITE/Class/COMPOSITE/Src/usbd_composite.c **** #if (USBD_USE_UVC == 1)
 493:Middlewares/Third_Party/AL94_USB_Composite/COMPOSITE/Class/COMPOSITE/Src/usbd_composite.c **** #endif
 494:Middlewares/Third_Party/AL94_USB_Composite/COMPOSITE/Class/COMPOSITE/Src/usbd_composite.c **** #if (USBD_USE_MSC == 1)
 495:Middlewares/Third_Party/AL94_USB_Composite/COMPOSITE/Class/COMPOSITE/Src/usbd_composite.c **** #endif
 496:Middlewares/Third_Party/AL94_USB_Composite/COMPOSITE/Class/COMPOSITE/Src/usbd_composite.c **** #if (USBD_USE_DFU == 1)
 497:Middlewares/Third_Party/AL94_USB_Composite/COMPOSITE/Class/COMPOSITE/Src/usbd_composite.c ****   USBD_DFU.EP0_RxReady(pdev);
 498:Middlewares/Third_Party/AL94_USB_Composite/COMPOSITE/Class/COMPOSITE/Src/usbd_composite.c **** #endif
 499:Middlewares/Third_Party/AL94_USB_Composite/COMPOSITE/Class/COMPOSITE/Src/usbd_composite.c **** #if (USBD_USE_PRNTR == 1)
 500:Middlewares/Third_Party/AL94_USB_Composite/COMPOSITE/Class/COMPOSITE/Src/usbd_composite.c **** #endif
 501:Middlewares/Third_Party/AL94_USB_Composite/COMPOSITE/Class/COMPOSITE/Src/usbd_composite.c **** 
 502:Middlewares/Third_Party/AL94_USB_Composite/COMPOSITE/Class/COMPOSITE/Src/usbd_composite.c ****   return (uint8_t)USBD_OK;
 431              		.loc 1 502 3 is_stmt 1 view .LVU111
 503:Middlewares/Third_Party/AL94_USB_Composite/COMPOSITE/Class/COMPOSITE/Src/usbd_composite.c **** }
 432              		.loc 1 503 1 is_stmt 0 view .LVU112
 433 0012 0020     		movs	r0, #0
 434 0014 10BD     		pop	{r4, pc}
 435              	.LVL41:
 436              	.L40:
 437              		.loc 1 503 1 view .LVU113
 438 0016 00BF     		.align	2
 439              	.L39:
 440 0018 00000000 		.word	USBD_CDC_ACM
 441 001c 00000000 		.word	USBD_HID_CUSTOM
 442              		.cfi_endproc
 443              	.LFE1420:
 445              		.section	.text.USBD_COMPOSITE_EP0_TxReady,"ax",%progbits
 446              		.align	1
 447              		.syntax unified
 448              		.thumb
 449              		.thumb_func
 451              	USBD_COMPOSITE_EP0_TxReady:
 452              	.LVL42:
 453              	.LFB1421:
 504:Middlewares/Third_Party/AL94_USB_Composite/COMPOSITE/Class/COMPOSITE/Src/usbd_composite.c **** 
 505:Middlewares/Third_Party/AL94_USB_Composite/COMPOSITE/Class/COMPOSITE/Src/usbd_composite.c **** /**
ARM GAS  C:\Users\Nathan\AppData\Local\Temp\ccbp06cD.s 			page 18


 506:Middlewares/Third_Party/AL94_USB_Composite/COMPOSITE/Class/COMPOSITE/Src/usbd_composite.c ****   * @brief  USBD_COMPOSITE_EP0_TxReady
 507:Middlewares/Third_Party/AL94_USB_Composite/COMPOSITE/Class/COMPOSITE/Src/usbd_composite.c ****   *         handle EP0 TRx Ready event
 508:Middlewares/Third_Party/AL94_USB_Composite/COMPOSITE/Class/COMPOSITE/Src/usbd_composite.c ****   * @param  pdev: device instance
 509:Middlewares/Third_Party/AL94_USB_Composite/COMPOSITE/Class/COMPOSITE/Src/usbd_composite.c ****   * @retval status
 510:Middlewares/Third_Party/AL94_USB_Composite/COMPOSITE/Class/COMPOSITE/Src/usbd_composite.c ****   */
 511:Middlewares/Third_Party/AL94_USB_Composite/COMPOSITE/Class/COMPOSITE/Src/usbd_composite.c **** static uint8_t USBD_COMPOSITE_EP0_TxReady(USBD_HandleTypeDef *pdev)
 512:Middlewares/Third_Party/AL94_USB_Composite/COMPOSITE/Class/COMPOSITE/Src/usbd_composite.c **** {
 454              		.loc 1 512 1 is_stmt 1 view -0
 455              		.cfi_startproc
 456              		@ args = 0, pretend = 0, frame = 0
 457              		@ frame_needed = 0, uses_anonymous_args = 0
 458              		@ link register save eliminated.
 513:Middlewares/Third_Party/AL94_USB_Composite/COMPOSITE/Class/COMPOSITE/Src/usbd_composite.c **** #if (USBD_USE_CDC_ACM == 1)
 514:Middlewares/Third_Party/AL94_USB_Composite/COMPOSITE/Class/COMPOSITE/Src/usbd_composite.c **** #endif
 515:Middlewares/Third_Party/AL94_USB_Composite/COMPOSITE/Class/COMPOSITE/Src/usbd_composite.c **** #if (USBD_USE_CDC_ECM == 1)
 516:Middlewares/Third_Party/AL94_USB_Composite/COMPOSITE/Class/COMPOSITE/Src/usbd_composite.c **** #endif
 517:Middlewares/Third_Party/AL94_USB_Composite/COMPOSITE/Class/COMPOSITE/Src/usbd_composite.c **** #if (USBD_USE_CDC_RNDIS == 1)
 518:Middlewares/Third_Party/AL94_USB_Composite/COMPOSITE/Class/COMPOSITE/Src/usbd_composite.c **** #endif
 519:Middlewares/Third_Party/AL94_USB_Composite/COMPOSITE/Class/COMPOSITE/Src/usbd_composite.c **** #if (USBD_USE_HID_MOUSE == 1)
 520:Middlewares/Third_Party/AL94_USB_Composite/COMPOSITE/Class/COMPOSITE/Src/usbd_composite.c **** #endif
 521:Middlewares/Third_Party/AL94_USB_Composite/COMPOSITE/Class/COMPOSITE/Src/usbd_composite.c **** #if (USBD_USE_HID_KEYBOARD == 1)
 522:Middlewares/Third_Party/AL94_USB_Composite/COMPOSITE/Class/COMPOSITE/Src/usbd_composite.c **** #endif
 523:Middlewares/Third_Party/AL94_USB_Composite/COMPOSITE/Class/COMPOSITE/Src/usbd_composite.c **** #if (USBD_USE_HID_CUSTOM == 1)
 524:Middlewares/Third_Party/AL94_USB_Composite/COMPOSITE/Class/COMPOSITE/Src/usbd_composite.c **** #endif
 525:Middlewares/Third_Party/AL94_USB_Composite/COMPOSITE/Class/COMPOSITE/Src/usbd_composite.c **** #if (USBD_USE_UAC_MIC == 1)
 526:Middlewares/Third_Party/AL94_USB_Composite/COMPOSITE/Class/COMPOSITE/Src/usbd_composite.c ****   USBD_AUDIO_MIC.EP0_TxSent(pdev);
 527:Middlewares/Third_Party/AL94_USB_Composite/COMPOSITE/Class/COMPOSITE/Src/usbd_composite.c **** #endif
 528:Middlewares/Third_Party/AL94_USB_Composite/COMPOSITE/Class/COMPOSITE/Src/usbd_composite.c **** #if (USBD_USE_UAC_SPKR == 1)
 529:Middlewares/Third_Party/AL94_USB_Composite/COMPOSITE/Class/COMPOSITE/Src/usbd_composite.c ****   USBD_AUDIO_SPKR.EP0_TxSent(pdev);
 530:Middlewares/Third_Party/AL94_USB_Composite/COMPOSITE/Class/COMPOSITE/Src/usbd_composite.c **** #endif
 531:Middlewares/Third_Party/AL94_USB_Composite/COMPOSITE/Class/COMPOSITE/Src/usbd_composite.c **** #if (USBD_USE_UVC == 1)
 532:Middlewares/Third_Party/AL94_USB_Composite/COMPOSITE/Class/COMPOSITE/Src/usbd_composite.c **** #endif
 533:Middlewares/Third_Party/AL94_USB_Composite/COMPOSITE/Class/COMPOSITE/Src/usbd_composite.c **** #if (USBD_USE_MSC == 1)
 534:Middlewares/Third_Party/AL94_USB_Composite/COMPOSITE/Class/COMPOSITE/Src/usbd_composite.c **** #endif
 535:Middlewares/Third_Party/AL94_USB_Composite/COMPOSITE/Class/COMPOSITE/Src/usbd_composite.c **** #if (USBD_USE_DFU == 1)
 536:Middlewares/Third_Party/AL94_USB_Composite/COMPOSITE/Class/COMPOSITE/Src/usbd_composite.c ****   USBD_DFU.EP0_TxSent(pdev);
 537:Middlewares/Third_Party/AL94_USB_Composite/COMPOSITE/Class/COMPOSITE/Src/usbd_composite.c **** #endif
 538:Middlewares/Third_Party/AL94_USB_Composite/COMPOSITE/Class/COMPOSITE/Src/usbd_composite.c **** #if (USBD_USE_PRNTR == 1)
 539:Middlewares/Third_Party/AL94_USB_Composite/COMPOSITE/Class/COMPOSITE/Src/usbd_composite.c **** #endif
 540:Middlewares/Third_Party/AL94_USB_Composite/COMPOSITE/Class/COMPOSITE/Src/usbd_composite.c **** 
 541:Middlewares/Third_Party/AL94_USB_Composite/COMPOSITE/Class/COMPOSITE/Src/usbd_composite.c ****   return (uint8_t)USBD_OK;
 459              		.loc 1 541 3 view .LVU115
 542:Middlewares/Third_Party/AL94_USB_Composite/COMPOSITE/Class/COMPOSITE/Src/usbd_composite.c **** }
 460              		.loc 1 542 1 is_stmt 0 view .LVU116
 461 0000 0020     		movs	r0, #0
 462              	.LVL43:
 463              		.loc 1 542 1 view .LVU117
 464 0002 7047     		bx	lr
 465              		.cfi_endproc
 466              	.LFE1421:
 468              		.section	.text.USBD_COMPOSITE_SOF,"ax",%progbits
 469              		.align	1
 470              		.syntax unified
 471              		.thumb
 472              		.thumb_func
 474              	USBD_COMPOSITE_SOF:
 475              	.LVL44:
ARM GAS  C:\Users\Nathan\AppData\Local\Temp\ccbp06cD.s 			page 19


 476              	.LFB1422:
 543:Middlewares/Third_Party/AL94_USB_Composite/COMPOSITE/Class/COMPOSITE/Src/usbd_composite.c **** 
 544:Middlewares/Third_Party/AL94_USB_Composite/COMPOSITE/Class/COMPOSITE/Src/usbd_composite.c **** /**
 545:Middlewares/Third_Party/AL94_USB_Composite/COMPOSITE/Class/COMPOSITE/Src/usbd_composite.c ****   * @brief  USBD_COMPOSITE_SOF
 546:Middlewares/Third_Party/AL94_USB_Composite/COMPOSITE/Class/COMPOSITE/Src/usbd_composite.c ****   *         handle SOF event
 547:Middlewares/Third_Party/AL94_USB_Composite/COMPOSITE/Class/COMPOSITE/Src/usbd_composite.c ****   * @param  pdev: device instance
 548:Middlewares/Third_Party/AL94_USB_Composite/COMPOSITE/Class/COMPOSITE/Src/usbd_composite.c ****   * @retval status
 549:Middlewares/Third_Party/AL94_USB_Composite/COMPOSITE/Class/COMPOSITE/Src/usbd_composite.c ****   */
 550:Middlewares/Third_Party/AL94_USB_Composite/COMPOSITE/Class/COMPOSITE/Src/usbd_composite.c **** static uint8_t USBD_COMPOSITE_SOF(USBD_HandleTypeDef *pdev)
 551:Middlewares/Third_Party/AL94_USB_Composite/COMPOSITE/Class/COMPOSITE/Src/usbd_composite.c **** {
 477              		.loc 1 551 1 is_stmt 1 view -0
 478              		.cfi_startproc
 479              		@ args = 0, pretend = 0, frame = 0
 480              		@ frame_needed = 0, uses_anonymous_args = 0
 481              		@ link register save eliminated.
 552:Middlewares/Third_Party/AL94_USB_Composite/COMPOSITE/Class/COMPOSITE/Src/usbd_composite.c **** #if (USBD_USE_CDC_ACM == 1)
 553:Middlewares/Third_Party/AL94_USB_Composite/COMPOSITE/Class/COMPOSITE/Src/usbd_composite.c **** #endif
 554:Middlewares/Third_Party/AL94_USB_Composite/COMPOSITE/Class/COMPOSITE/Src/usbd_composite.c **** #if (USBD_USE_CDC_ECM == 1)
 555:Middlewares/Third_Party/AL94_USB_Composite/COMPOSITE/Class/COMPOSITE/Src/usbd_composite.c **** #endif
 556:Middlewares/Third_Party/AL94_USB_Composite/COMPOSITE/Class/COMPOSITE/Src/usbd_composite.c **** #if (USBD_USE_CDC_RNDIS == 1)
 557:Middlewares/Third_Party/AL94_USB_Composite/COMPOSITE/Class/COMPOSITE/Src/usbd_composite.c **** #endif
 558:Middlewares/Third_Party/AL94_USB_Composite/COMPOSITE/Class/COMPOSITE/Src/usbd_composite.c **** #if (USBD_USE_HID_MOUSE == 1)
 559:Middlewares/Third_Party/AL94_USB_Composite/COMPOSITE/Class/COMPOSITE/Src/usbd_composite.c **** #endif
 560:Middlewares/Third_Party/AL94_USB_Composite/COMPOSITE/Class/COMPOSITE/Src/usbd_composite.c **** #if (USBD_USE_HID_KEYBOARD == 1)
 561:Middlewares/Third_Party/AL94_USB_Composite/COMPOSITE/Class/COMPOSITE/Src/usbd_composite.c **** #endif
 562:Middlewares/Third_Party/AL94_USB_Composite/COMPOSITE/Class/COMPOSITE/Src/usbd_composite.c **** #if (USBD_USE_HID_CUSTOM == 1)
 563:Middlewares/Third_Party/AL94_USB_Composite/COMPOSITE/Class/COMPOSITE/Src/usbd_composite.c **** #endif
 564:Middlewares/Third_Party/AL94_USB_Composite/COMPOSITE/Class/COMPOSITE/Src/usbd_composite.c **** #if (USBD_USE_UAC_MIC == 1)
 565:Middlewares/Third_Party/AL94_USB_Composite/COMPOSITE/Class/COMPOSITE/Src/usbd_composite.c ****   USBD_AUDIO_MIC.SOF(pdev);
 566:Middlewares/Third_Party/AL94_USB_Composite/COMPOSITE/Class/COMPOSITE/Src/usbd_composite.c **** #endif
 567:Middlewares/Third_Party/AL94_USB_Composite/COMPOSITE/Class/COMPOSITE/Src/usbd_composite.c **** #if (USBD_USE_UAC_SPKR == 1)
 568:Middlewares/Third_Party/AL94_USB_Composite/COMPOSITE/Class/COMPOSITE/Src/usbd_composite.c ****   USBD_AUDIO_SPKR.SOF(pdev);
 569:Middlewares/Third_Party/AL94_USB_Composite/COMPOSITE/Class/COMPOSITE/Src/usbd_composite.c **** #endif
 570:Middlewares/Third_Party/AL94_USB_Composite/COMPOSITE/Class/COMPOSITE/Src/usbd_composite.c **** #if (USBD_USE_UVC == 1)
 571:Middlewares/Third_Party/AL94_USB_Composite/COMPOSITE/Class/COMPOSITE/Src/usbd_composite.c ****   USBD_VIDEO.SOF(pdev);
 572:Middlewares/Third_Party/AL94_USB_Composite/COMPOSITE/Class/COMPOSITE/Src/usbd_composite.c **** #endif
 573:Middlewares/Third_Party/AL94_USB_Composite/COMPOSITE/Class/COMPOSITE/Src/usbd_composite.c **** #if (USBD_USE_MSC == 1)
 574:Middlewares/Third_Party/AL94_USB_Composite/COMPOSITE/Class/COMPOSITE/Src/usbd_composite.c **** #endif
 575:Middlewares/Third_Party/AL94_USB_Composite/COMPOSITE/Class/COMPOSITE/Src/usbd_composite.c **** #if (USBD_USE_DFU == 1)
 576:Middlewares/Third_Party/AL94_USB_Composite/COMPOSITE/Class/COMPOSITE/Src/usbd_composite.c ****   USBD_DFU.SOF(pdev);
 577:Middlewares/Third_Party/AL94_USB_Composite/COMPOSITE/Class/COMPOSITE/Src/usbd_composite.c **** #endif
 578:Middlewares/Third_Party/AL94_USB_Composite/COMPOSITE/Class/COMPOSITE/Src/usbd_composite.c **** #if (USBD_USE_PRNTR == 1)
 579:Middlewares/Third_Party/AL94_USB_Composite/COMPOSITE/Class/COMPOSITE/Src/usbd_composite.c **** #endif
 580:Middlewares/Third_Party/AL94_USB_Composite/COMPOSITE/Class/COMPOSITE/Src/usbd_composite.c **** 
 581:Middlewares/Third_Party/AL94_USB_Composite/COMPOSITE/Class/COMPOSITE/Src/usbd_composite.c ****   return (uint8_t)USBD_OK;
 482              		.loc 1 581 3 view .LVU119
 582:Middlewares/Third_Party/AL94_USB_Composite/COMPOSITE/Class/COMPOSITE/Src/usbd_composite.c **** }
 483              		.loc 1 582 1 is_stmt 0 view .LVU120
 484 0000 0020     		movs	r0, #0
 485              	.LVL45:
 486              		.loc 1 582 1 view .LVU121
 487 0002 7047     		bx	lr
 488              		.cfi_endproc
 489              	.LFE1422:
 491              		.section	.text.USBD_COMPOSITE_IsoINIncomplete,"ax",%progbits
 492              		.align	1
 493              		.syntax unified
ARM GAS  C:\Users\Nathan\AppData\Local\Temp\ccbp06cD.s 			page 20


 494              		.thumb
 495              		.thumb_func
 497              	USBD_COMPOSITE_IsoINIncomplete:
 498              	.LVL46:
 499              	.LFB1423:
 583:Middlewares/Third_Party/AL94_USB_Composite/COMPOSITE/Class/COMPOSITE/Src/usbd_composite.c **** 
 584:Middlewares/Third_Party/AL94_USB_Composite/COMPOSITE/Class/COMPOSITE/Src/usbd_composite.c **** /**
 585:Middlewares/Third_Party/AL94_USB_Composite/COMPOSITE/Class/COMPOSITE/Src/usbd_composite.c ****   * @brief  USBD_COMPOSITE_IsoINIncomplete
 586:Middlewares/Third_Party/AL94_USB_Composite/COMPOSITE/Class/COMPOSITE/Src/usbd_composite.c ****   *         handle data ISO IN Incomplete event
 587:Middlewares/Third_Party/AL94_USB_Composite/COMPOSITE/Class/COMPOSITE/Src/usbd_composite.c ****   * @param  pdev: device instance
 588:Middlewares/Third_Party/AL94_USB_Composite/COMPOSITE/Class/COMPOSITE/Src/usbd_composite.c ****   * @param  epnum: endpoint index
 589:Middlewares/Third_Party/AL94_USB_Composite/COMPOSITE/Class/COMPOSITE/Src/usbd_composite.c ****   * @retval status
 590:Middlewares/Third_Party/AL94_USB_Composite/COMPOSITE/Class/COMPOSITE/Src/usbd_composite.c ****   */
 591:Middlewares/Third_Party/AL94_USB_Composite/COMPOSITE/Class/COMPOSITE/Src/usbd_composite.c **** static uint8_t USBD_COMPOSITE_IsoINIncomplete(USBD_HandleTypeDef *pdev, uint8_t epnum)
 592:Middlewares/Third_Party/AL94_USB_Composite/COMPOSITE/Class/COMPOSITE/Src/usbd_composite.c **** {
 500              		.loc 1 592 1 is_stmt 1 view -0
 501              		.cfi_startproc
 502              		@ args = 0, pretend = 0, frame = 0
 503              		@ frame_needed = 0, uses_anonymous_args = 0
 504              		@ link register save eliminated.
 593:Middlewares/Third_Party/AL94_USB_Composite/COMPOSITE/Class/COMPOSITE/Src/usbd_composite.c **** #if (USBD_USE_CDC_ACM == 1)
 594:Middlewares/Third_Party/AL94_USB_Composite/COMPOSITE/Class/COMPOSITE/Src/usbd_composite.c **** #endif
 595:Middlewares/Third_Party/AL94_USB_Composite/COMPOSITE/Class/COMPOSITE/Src/usbd_composite.c **** #if (USBD_USE_CDC_ECM == 1)
 596:Middlewares/Third_Party/AL94_USB_Composite/COMPOSITE/Class/COMPOSITE/Src/usbd_composite.c **** #endif
 597:Middlewares/Third_Party/AL94_USB_Composite/COMPOSITE/Class/COMPOSITE/Src/usbd_composite.c **** #if (USBD_USE_CDC_RNDIS == 1)
 598:Middlewares/Third_Party/AL94_USB_Composite/COMPOSITE/Class/COMPOSITE/Src/usbd_composite.c **** #endif
 599:Middlewares/Third_Party/AL94_USB_Composite/COMPOSITE/Class/COMPOSITE/Src/usbd_composite.c **** #if (USBD_USE_HID_MOUSE == 1)
 600:Middlewares/Third_Party/AL94_USB_Composite/COMPOSITE/Class/COMPOSITE/Src/usbd_composite.c **** #endif
 601:Middlewares/Third_Party/AL94_USB_Composite/COMPOSITE/Class/COMPOSITE/Src/usbd_composite.c **** #if (USBD_USE_HID_KEYBOARD == 1)
 602:Middlewares/Third_Party/AL94_USB_Composite/COMPOSITE/Class/COMPOSITE/Src/usbd_composite.c **** #endif
 603:Middlewares/Third_Party/AL94_USB_Composite/COMPOSITE/Class/COMPOSITE/Src/usbd_composite.c **** #if (USBD_USE_HID_CUSTOM == 1)
 604:Middlewares/Third_Party/AL94_USB_Composite/COMPOSITE/Class/COMPOSITE/Src/usbd_composite.c **** #endif
 605:Middlewares/Third_Party/AL94_USB_Composite/COMPOSITE/Class/COMPOSITE/Src/usbd_composite.c **** #if (USBD_USE_UAC_MIC == 1)
 606:Middlewares/Third_Party/AL94_USB_Composite/COMPOSITE/Class/COMPOSITE/Src/usbd_composite.c ****   if (epnum == (AUDIO_MIC_EP & 0x7F))
 607:Middlewares/Third_Party/AL94_USB_Composite/COMPOSITE/Class/COMPOSITE/Src/usbd_composite.c ****   {
 608:Middlewares/Third_Party/AL94_USB_Composite/COMPOSITE/Class/COMPOSITE/Src/usbd_composite.c ****     USBD_AUDIO_MIC.IsoINIncomplete(pdev, epnum);
 609:Middlewares/Third_Party/AL94_USB_Composite/COMPOSITE/Class/COMPOSITE/Src/usbd_composite.c ****   }
 610:Middlewares/Third_Party/AL94_USB_Composite/COMPOSITE/Class/COMPOSITE/Src/usbd_composite.c **** #endif
 611:Middlewares/Third_Party/AL94_USB_Composite/COMPOSITE/Class/COMPOSITE/Src/usbd_composite.c **** #if (USBD_USE_UAC_SPKR == 1)
 612:Middlewares/Third_Party/AL94_USB_Composite/COMPOSITE/Class/COMPOSITE/Src/usbd_composite.c **** #endif
 613:Middlewares/Third_Party/AL94_USB_Composite/COMPOSITE/Class/COMPOSITE/Src/usbd_composite.c **** #if (USBD_USE_UVC == 1)
 614:Middlewares/Third_Party/AL94_USB_Composite/COMPOSITE/Class/COMPOSITE/Src/usbd_composite.c ****   if (epnum == (UVC_IN_EP & 0x7F))
 615:Middlewares/Third_Party/AL94_USB_Composite/COMPOSITE/Class/COMPOSITE/Src/usbd_composite.c ****   {
 616:Middlewares/Third_Party/AL94_USB_Composite/COMPOSITE/Class/COMPOSITE/Src/usbd_composite.c ****     USBD_VIDEO.IsoINIncomplete(pdev, epnum);
 617:Middlewares/Third_Party/AL94_USB_Composite/COMPOSITE/Class/COMPOSITE/Src/usbd_composite.c ****   }
 618:Middlewares/Third_Party/AL94_USB_Composite/COMPOSITE/Class/COMPOSITE/Src/usbd_composite.c **** #endif
 619:Middlewares/Third_Party/AL94_USB_Composite/COMPOSITE/Class/COMPOSITE/Src/usbd_composite.c **** #if (USBD_USE_MSC == 1)
 620:Middlewares/Third_Party/AL94_USB_Composite/COMPOSITE/Class/COMPOSITE/Src/usbd_composite.c **** #endif
 621:Middlewares/Third_Party/AL94_USB_Composite/COMPOSITE/Class/COMPOSITE/Src/usbd_composite.c **** #if (USBD_USE_DFU == 1)
 622:Middlewares/Third_Party/AL94_USB_Composite/COMPOSITE/Class/COMPOSITE/Src/usbd_composite.c **** #endif
 623:Middlewares/Third_Party/AL94_USB_Composite/COMPOSITE/Class/COMPOSITE/Src/usbd_composite.c **** #if (USBD_USE_PRNTR == 1)
 624:Middlewares/Third_Party/AL94_USB_Composite/COMPOSITE/Class/COMPOSITE/Src/usbd_composite.c **** #endif
 625:Middlewares/Third_Party/AL94_USB_Composite/COMPOSITE/Class/COMPOSITE/Src/usbd_composite.c **** 
 626:Middlewares/Third_Party/AL94_USB_Composite/COMPOSITE/Class/COMPOSITE/Src/usbd_composite.c ****   return (uint8_t)USBD_OK;
 505              		.loc 1 626 3 view .LVU123
 627:Middlewares/Third_Party/AL94_USB_Composite/COMPOSITE/Class/COMPOSITE/Src/usbd_composite.c **** }
 506              		.loc 1 627 1 is_stmt 0 view .LVU124
ARM GAS  C:\Users\Nathan\AppData\Local\Temp\ccbp06cD.s 			page 21


 507 0000 0020     		movs	r0, #0
 508              	.LVL47:
 509              		.loc 1 627 1 view .LVU125
 510 0002 7047     		bx	lr
 511              		.cfi_endproc
 512              	.LFE1423:
 514              		.section	.text.USBD_COMPOSITE_IsoOutIncomplete,"ax",%progbits
 515              		.align	1
 516              		.syntax unified
 517              		.thumb
 518              		.thumb_func
 520              	USBD_COMPOSITE_IsoOutIncomplete:
 521              	.LVL48:
 522              	.LFB1424:
 628:Middlewares/Third_Party/AL94_USB_Composite/COMPOSITE/Class/COMPOSITE/Src/usbd_composite.c **** 
 629:Middlewares/Third_Party/AL94_USB_Composite/COMPOSITE/Class/COMPOSITE/Src/usbd_composite.c **** /**
 630:Middlewares/Third_Party/AL94_USB_Composite/COMPOSITE/Class/COMPOSITE/Src/usbd_composite.c ****   * @brief  USBD_COMPOSITE_IsoOutIncomplete
 631:Middlewares/Third_Party/AL94_USB_Composite/COMPOSITE/Class/COMPOSITE/Src/usbd_composite.c ****   *         handle data ISO OUT Incomplete event
 632:Middlewares/Third_Party/AL94_USB_Composite/COMPOSITE/Class/COMPOSITE/Src/usbd_composite.c ****   * @param  pdev: device instance
 633:Middlewares/Third_Party/AL94_USB_Composite/COMPOSITE/Class/COMPOSITE/Src/usbd_composite.c ****   * @param  epnum: endpoint index
 634:Middlewares/Third_Party/AL94_USB_Composite/COMPOSITE/Class/COMPOSITE/Src/usbd_composite.c ****   * @retval status
 635:Middlewares/Third_Party/AL94_USB_Composite/COMPOSITE/Class/COMPOSITE/Src/usbd_composite.c ****   */
 636:Middlewares/Third_Party/AL94_USB_Composite/COMPOSITE/Class/COMPOSITE/Src/usbd_composite.c **** static uint8_t USBD_COMPOSITE_IsoOutIncomplete(USBD_HandleTypeDef *pdev, uint8_t epnum)
 637:Middlewares/Third_Party/AL94_USB_Composite/COMPOSITE/Class/COMPOSITE/Src/usbd_composite.c **** {
 523              		.loc 1 637 1 is_stmt 1 view -0
 524              		.cfi_startproc
 525              		@ args = 0, pretend = 0, frame = 0
 526              		@ frame_needed = 0, uses_anonymous_args = 0
 527              		@ link register save eliminated.
 638:Middlewares/Third_Party/AL94_USB_Composite/COMPOSITE/Class/COMPOSITE/Src/usbd_composite.c **** #if (USBD_USE_CDC_ACM == 1)
 639:Middlewares/Third_Party/AL94_USB_Composite/COMPOSITE/Class/COMPOSITE/Src/usbd_composite.c **** #endif
 640:Middlewares/Third_Party/AL94_USB_Composite/COMPOSITE/Class/COMPOSITE/Src/usbd_composite.c **** #if (USBD_USE_CDC_ECM == 1)
 641:Middlewares/Third_Party/AL94_USB_Composite/COMPOSITE/Class/COMPOSITE/Src/usbd_composite.c **** #endif
 642:Middlewares/Third_Party/AL94_USB_Composite/COMPOSITE/Class/COMPOSITE/Src/usbd_composite.c **** #if (USBD_USE_CDC_RNDIS == 1)
 643:Middlewares/Third_Party/AL94_USB_Composite/COMPOSITE/Class/COMPOSITE/Src/usbd_composite.c **** #endif
 644:Middlewares/Third_Party/AL94_USB_Composite/COMPOSITE/Class/COMPOSITE/Src/usbd_composite.c **** #if (USBD_USE_HID_MOUSE == 1)
 645:Middlewares/Third_Party/AL94_USB_Composite/COMPOSITE/Class/COMPOSITE/Src/usbd_composite.c **** #endif
 646:Middlewares/Third_Party/AL94_USB_Composite/COMPOSITE/Class/COMPOSITE/Src/usbd_composite.c **** #if (USBD_USE_HID_KEYBOARD == 1)
 647:Middlewares/Third_Party/AL94_USB_Composite/COMPOSITE/Class/COMPOSITE/Src/usbd_composite.c **** #endif
 648:Middlewares/Third_Party/AL94_USB_Composite/COMPOSITE/Class/COMPOSITE/Src/usbd_composite.c **** #if (USBD_USE_HID_CUSTOM == 1)
 649:Middlewares/Third_Party/AL94_USB_Composite/COMPOSITE/Class/COMPOSITE/Src/usbd_composite.c **** #endif
 650:Middlewares/Third_Party/AL94_USB_Composite/COMPOSITE/Class/COMPOSITE/Src/usbd_composite.c **** #if (USBD_USE_UAC_MIC == 1)
 651:Middlewares/Third_Party/AL94_USB_Composite/COMPOSITE/Class/COMPOSITE/Src/usbd_composite.c **** #endif
 652:Middlewares/Third_Party/AL94_USB_Composite/COMPOSITE/Class/COMPOSITE/Src/usbd_composite.c **** #if (USBD_USE_UAC_SPKR == 1)
 653:Middlewares/Third_Party/AL94_USB_Composite/COMPOSITE/Class/COMPOSITE/Src/usbd_composite.c ****   if (epnum == AUDIO_SPKR_EP)
 654:Middlewares/Third_Party/AL94_USB_Composite/COMPOSITE/Class/COMPOSITE/Src/usbd_composite.c ****   {
 655:Middlewares/Third_Party/AL94_USB_Composite/COMPOSITE/Class/COMPOSITE/Src/usbd_composite.c ****     USBD_AUDIO_SPKR.IsoOUTIncomplete(pdev, epnum);
 656:Middlewares/Third_Party/AL94_USB_Composite/COMPOSITE/Class/COMPOSITE/Src/usbd_composite.c ****   }
 657:Middlewares/Third_Party/AL94_USB_Composite/COMPOSITE/Class/COMPOSITE/Src/usbd_composite.c **** #endif
 658:Middlewares/Third_Party/AL94_USB_Composite/COMPOSITE/Class/COMPOSITE/Src/usbd_composite.c **** #if (USBD_USE_UVC == 1)
 659:Middlewares/Third_Party/AL94_USB_Composite/COMPOSITE/Class/COMPOSITE/Src/usbd_composite.c **** #endif
 660:Middlewares/Third_Party/AL94_USB_Composite/COMPOSITE/Class/COMPOSITE/Src/usbd_composite.c **** #if (USBD_USE_MSC == 1)
 661:Middlewares/Third_Party/AL94_USB_Composite/COMPOSITE/Class/COMPOSITE/Src/usbd_composite.c **** #endif
 662:Middlewares/Third_Party/AL94_USB_Composite/COMPOSITE/Class/COMPOSITE/Src/usbd_composite.c **** #if (USBD_USE_DFU == 1)
 663:Middlewares/Third_Party/AL94_USB_Composite/COMPOSITE/Class/COMPOSITE/Src/usbd_composite.c **** #endif
 664:Middlewares/Third_Party/AL94_USB_Composite/COMPOSITE/Class/COMPOSITE/Src/usbd_composite.c **** #if (USBD_USE_PRNTR == 1)
 665:Middlewares/Third_Party/AL94_USB_Composite/COMPOSITE/Class/COMPOSITE/Src/usbd_composite.c **** #endif
ARM GAS  C:\Users\Nathan\AppData\Local\Temp\ccbp06cD.s 			page 22


 666:Middlewares/Third_Party/AL94_USB_Composite/COMPOSITE/Class/COMPOSITE/Src/usbd_composite.c **** 
 667:Middlewares/Third_Party/AL94_USB_Composite/COMPOSITE/Class/COMPOSITE/Src/usbd_composite.c ****   return (uint8_t)USBD_OK;
 528              		.loc 1 667 3 view .LVU127
 668:Middlewares/Third_Party/AL94_USB_Composite/COMPOSITE/Class/COMPOSITE/Src/usbd_composite.c **** }
 529              		.loc 1 668 1 is_stmt 0 view .LVU128
 530 0000 0020     		movs	r0, #0
 531              	.LVL49:
 532              		.loc 1 668 1 view .LVU129
 533 0002 7047     		bx	lr
 534              		.cfi_endproc
 535              	.LFE1424:
 537              		.section	.text.USBD_COMPOSITE_DataOut,"ax",%progbits
 538              		.align	1
 539              		.syntax unified
 540              		.thumb
 541              		.thumb_func
 543              	USBD_COMPOSITE_DataOut:
 544              	.LVL50:
 545              	.LFB1425:
 669:Middlewares/Third_Party/AL94_USB_Composite/COMPOSITE/Class/COMPOSITE/Src/usbd_composite.c **** /**
 670:Middlewares/Third_Party/AL94_USB_Composite/COMPOSITE/Class/COMPOSITE/Src/usbd_composite.c ****   * @brief  USBD_COMPOSITE_DataOut
 671:Middlewares/Third_Party/AL94_USB_Composite/COMPOSITE/Class/COMPOSITE/Src/usbd_composite.c ****   *         handle data OUT Stage
 672:Middlewares/Third_Party/AL94_USB_Composite/COMPOSITE/Class/COMPOSITE/Src/usbd_composite.c ****   * @param  pdev: device instance
 673:Middlewares/Third_Party/AL94_USB_Composite/COMPOSITE/Class/COMPOSITE/Src/usbd_composite.c ****   * @param  epnum: endpoint index
 674:Middlewares/Third_Party/AL94_USB_Composite/COMPOSITE/Class/COMPOSITE/Src/usbd_composite.c ****   * @retval status
 675:Middlewares/Third_Party/AL94_USB_Composite/COMPOSITE/Class/COMPOSITE/Src/usbd_composite.c ****   */
 676:Middlewares/Third_Party/AL94_USB_Composite/COMPOSITE/Class/COMPOSITE/Src/usbd_composite.c **** static uint8_t USBD_COMPOSITE_DataOut(USBD_HandleTypeDef *pdev, uint8_t epnum)
 677:Middlewares/Third_Party/AL94_USB_Composite/COMPOSITE/Class/COMPOSITE/Src/usbd_composite.c **** {
 546              		.loc 1 677 1 is_stmt 1 view -0
 547              		.cfi_startproc
 548              		@ args = 0, pretend = 0, frame = 0
 549              		@ frame_needed = 0, uses_anonymous_args = 0
 550              		.loc 1 677 1 is_stmt 0 view .LVU131
 551 0000 08B5     		push	{r3, lr}
 552              		.cfi_def_cfa_offset 8
 553              		.cfi_offset 3, -8
 554              		.cfi_offset 14, -4
 678:Middlewares/Third_Party/AL94_USB_Composite/COMPOSITE/Class/COMPOSITE/Src/usbd_composite.c **** #if (USBD_USE_CDC_ACM == 1)
 679:Middlewares/Third_Party/AL94_USB_Composite/COMPOSITE/Class/COMPOSITE/Src/usbd_composite.c ****   for (uint8_t i = 0; i < USBD_CDC_ACM_COUNT; i++)
 555              		.loc 1 679 3 is_stmt 1 view .LVU132
 556              	.LBB4:
 557              		.loc 1 679 8 view .LVU133
 558              	.LVL51:
 559              		.loc 1 679 16 is_stmt 0 view .LVU134
 560 0002 0023     		movs	r3, #0
 561              	.LVL52:
 562              	.L46:
 563              		.loc 1 679 25 is_stmt 1 discriminator 1 view .LVU135
 564 0004 012B     		cmp	r3, #1
 565 0006 0AD8     		bhi	.L52
 680:Middlewares/Third_Party/AL94_USB_Composite/COMPOSITE/Class/COMPOSITE/Src/usbd_composite.c ****   {
 681:Middlewares/Third_Party/AL94_USB_Composite/COMPOSITE/Class/COMPOSITE/Src/usbd_composite.c ****     if (epnum == CDC_OUT_EP[i])
 566              		.loc 1 681 5 view .LVU136
 567              		.loc 1 681 28 is_stmt 0 view .LVU137
 568 0008 0A4A     		ldr	r2, .L55
 569 000a D25C     		ldrb	r2, [r2, r3]	@ zero_extendqisi2
 570              		.loc 1 681 8 view .LVU138
ARM GAS  C:\Users\Nathan\AppData\Local\Temp\ccbp06cD.s 			page 23


 571 000c 8A42     		cmp	r2, r1
 572 000e 02D0     		beq	.L53
 679:Middlewares/Third_Party/AL94_USB_Composite/COMPOSITE/Class/COMPOSITE/Src/usbd_composite.c ****   {
 573              		.loc 1 679 48 is_stmt 1 discriminator 2 view .LVU139
 574 0010 0133     		adds	r3, r3, #1
 575              	.LVL53:
 679:Middlewares/Third_Party/AL94_USB_Composite/COMPOSITE/Class/COMPOSITE/Src/usbd_composite.c ****   {
 576              		.loc 1 679 48 is_stmt 0 discriminator 2 view .LVU140
 577 0012 DBB2     		uxtb	r3, r3
 578              	.LVL54:
 679:Middlewares/Third_Party/AL94_USB_Composite/COMPOSITE/Class/COMPOSITE/Src/usbd_composite.c ****   {
 579              		.loc 1 679 48 discriminator 2 view .LVU141
 580 0014 F6E7     		b	.L46
 581              	.L53:
 682:Middlewares/Third_Party/AL94_USB_Composite/COMPOSITE/Class/COMPOSITE/Src/usbd_composite.c ****     {
 683:Middlewares/Third_Party/AL94_USB_Composite/COMPOSITE/Class/COMPOSITE/Src/usbd_composite.c ****       return USBD_CDC_ACM.DataOut(pdev, epnum);
 582              		.loc 1 683 7 is_stmt 1 view .LVU142
 583              		.loc 1 683 26 is_stmt 0 view .LVU143
 584 0016 084B     		ldr	r3, .L55+4
 585              	.LVL55:
 586              		.loc 1 683 26 view .LVU144
 587 0018 9B69     		ldr	r3, [r3, #24]
 588              		.loc 1 683 14 view .LVU145
 589 001a 9847     		blx	r3
 590              	.LVL56:
 591              		.loc 1 683 14 view .LVU146
 592 001c 04E0     		b	.L48
 593              	.LVL57:
 594              	.L52:
 595              		.loc 1 683 14 view .LVU147
 596              	.LBE4:
 684:Middlewares/Third_Party/AL94_USB_Composite/COMPOSITE/Class/COMPOSITE/Src/usbd_composite.c ****     }
 685:Middlewares/Third_Party/AL94_USB_Composite/COMPOSITE/Class/COMPOSITE/Src/usbd_composite.c ****   }
 686:Middlewares/Third_Party/AL94_USB_Composite/COMPOSITE/Class/COMPOSITE/Src/usbd_composite.c **** #endif
 687:Middlewares/Third_Party/AL94_USB_Composite/COMPOSITE/Class/COMPOSITE/Src/usbd_composite.c **** #if (USBD_USE_CDC_ECM == 1)
 688:Middlewares/Third_Party/AL94_USB_Composite/COMPOSITE/Class/COMPOSITE/Src/usbd_composite.c ****   if (epnum == CDC_ECM_OUT_EP)
 689:Middlewares/Third_Party/AL94_USB_Composite/COMPOSITE/Class/COMPOSITE/Src/usbd_composite.c ****   {
 690:Middlewares/Third_Party/AL94_USB_Composite/COMPOSITE/Class/COMPOSITE/Src/usbd_composite.c ****     return USBD_CDC_ECM.DataOut(pdev, epnum);
 691:Middlewares/Third_Party/AL94_USB_Composite/COMPOSITE/Class/COMPOSITE/Src/usbd_composite.c ****   }
 692:Middlewares/Third_Party/AL94_USB_Composite/COMPOSITE/Class/COMPOSITE/Src/usbd_composite.c **** #endif
 693:Middlewares/Third_Party/AL94_USB_Composite/COMPOSITE/Class/COMPOSITE/Src/usbd_composite.c **** #if (USBD_USE_CDC_RNDIS == 1)
 694:Middlewares/Third_Party/AL94_USB_Composite/COMPOSITE/Class/COMPOSITE/Src/usbd_composite.c ****   if (epnum == CDC_RNDIS_OUT_EP)
 695:Middlewares/Third_Party/AL94_USB_Composite/COMPOSITE/Class/COMPOSITE/Src/usbd_composite.c ****   {
 696:Middlewares/Third_Party/AL94_USB_Composite/COMPOSITE/Class/COMPOSITE/Src/usbd_composite.c ****     return USBD_CDC_RNDIS.DataOut(pdev, epnum);
 697:Middlewares/Third_Party/AL94_USB_Composite/COMPOSITE/Class/COMPOSITE/Src/usbd_composite.c ****   }
 698:Middlewares/Third_Party/AL94_USB_Composite/COMPOSITE/Class/COMPOSITE/Src/usbd_composite.c **** #endif
 699:Middlewares/Third_Party/AL94_USB_Composite/COMPOSITE/Class/COMPOSITE/Src/usbd_composite.c **** #if (USBD_USE_HID_MOUSE == 1)
 700:Middlewares/Third_Party/AL94_USB_Composite/COMPOSITE/Class/COMPOSITE/Src/usbd_composite.c **** #endif
 701:Middlewares/Third_Party/AL94_USB_Composite/COMPOSITE/Class/COMPOSITE/Src/usbd_composite.c **** #if (USBD_USE_HID_KEYBOARD == 1)
 702:Middlewares/Third_Party/AL94_USB_Composite/COMPOSITE/Class/COMPOSITE/Src/usbd_composite.c **** #endif
 703:Middlewares/Third_Party/AL94_USB_Composite/COMPOSITE/Class/COMPOSITE/Src/usbd_composite.c **** #if (USBD_USE_HID_CUSTOM == 1)
 704:Middlewares/Third_Party/AL94_USB_Composite/COMPOSITE/Class/COMPOSITE/Src/usbd_composite.c ****   if (epnum == CUSTOM_HID_OUT_EP)
 597              		.loc 1 704 3 is_stmt 1 view .LVU148
 598              		.loc 1 704 13 is_stmt 0 view .LVU149
 599 001e 074B     		ldr	r3, .L55+8
 600              	.LVL58:
 601              		.loc 1 704 13 view .LVU150
ARM GAS  C:\Users\Nathan\AppData\Local\Temp\ccbp06cD.s 			page 24


 602 0020 1B78     		ldrb	r3, [r3]	@ zero_extendqisi2
 603              		.loc 1 704 6 view .LVU151
 604 0022 8B42     		cmp	r3, r1
 605 0024 01D0     		beq	.L54
 705:Middlewares/Third_Party/AL94_USB_Composite/COMPOSITE/Class/COMPOSITE/Src/usbd_composite.c ****   {
 706:Middlewares/Third_Party/AL94_USB_Composite/COMPOSITE/Class/COMPOSITE/Src/usbd_composite.c ****     return USBD_HID_CUSTOM.DataOut(pdev, epnum);
 707:Middlewares/Third_Party/AL94_USB_Composite/COMPOSITE/Class/COMPOSITE/Src/usbd_composite.c ****   }
 708:Middlewares/Third_Party/AL94_USB_Composite/COMPOSITE/Class/COMPOSITE/Src/usbd_composite.c **** #endif
 709:Middlewares/Third_Party/AL94_USB_Composite/COMPOSITE/Class/COMPOSITE/Src/usbd_composite.c **** #if (USBD_USE_UAC_MIC == 1)
 710:Middlewares/Third_Party/AL94_USB_Composite/COMPOSITE/Class/COMPOSITE/Src/usbd_composite.c **** #endif
 711:Middlewares/Third_Party/AL94_USB_Composite/COMPOSITE/Class/COMPOSITE/Src/usbd_composite.c **** #if (USBD_USE_UAC_SPKR == 1)
 712:Middlewares/Third_Party/AL94_USB_Composite/COMPOSITE/Class/COMPOSITE/Src/usbd_composite.c ****   if (epnum == AUDIO_SPKR_EP)
 713:Middlewares/Third_Party/AL94_USB_Composite/COMPOSITE/Class/COMPOSITE/Src/usbd_composite.c ****   {
 714:Middlewares/Third_Party/AL94_USB_Composite/COMPOSITE/Class/COMPOSITE/Src/usbd_composite.c ****     return USBD_AUDIO_SPKR.DataOut(pdev, epnum);
 715:Middlewares/Third_Party/AL94_USB_Composite/COMPOSITE/Class/COMPOSITE/Src/usbd_composite.c ****   }
 716:Middlewares/Third_Party/AL94_USB_Composite/COMPOSITE/Class/COMPOSITE/Src/usbd_composite.c **** #endif
 717:Middlewares/Third_Party/AL94_USB_Composite/COMPOSITE/Class/COMPOSITE/Src/usbd_composite.c **** #if (USBD_USE_UVC == 1)
 718:Middlewares/Third_Party/AL94_USB_Composite/COMPOSITE/Class/COMPOSITE/Src/usbd_composite.c **** #endif
 719:Middlewares/Third_Party/AL94_USB_Composite/COMPOSITE/Class/COMPOSITE/Src/usbd_composite.c **** #if (USBD_USE_MSC == 1)
 720:Middlewares/Third_Party/AL94_USB_Composite/COMPOSITE/Class/COMPOSITE/Src/usbd_composite.c ****   if (epnum == MSC_OUT_EP)
 721:Middlewares/Third_Party/AL94_USB_Composite/COMPOSITE/Class/COMPOSITE/Src/usbd_composite.c ****   {
 722:Middlewares/Third_Party/AL94_USB_Composite/COMPOSITE/Class/COMPOSITE/Src/usbd_composite.c ****     return USBD_MSC.DataOut(pdev, epnum);
 723:Middlewares/Third_Party/AL94_USB_Composite/COMPOSITE/Class/COMPOSITE/Src/usbd_composite.c ****   }
 724:Middlewares/Third_Party/AL94_USB_Composite/COMPOSITE/Class/COMPOSITE/Src/usbd_composite.c **** #endif
 725:Middlewares/Third_Party/AL94_USB_Composite/COMPOSITE/Class/COMPOSITE/Src/usbd_composite.c **** #if (USBD_USE_DFU == 1)
 726:Middlewares/Third_Party/AL94_USB_Composite/COMPOSITE/Class/COMPOSITE/Src/usbd_composite.c **** #endif
 727:Middlewares/Third_Party/AL94_USB_Composite/COMPOSITE/Class/COMPOSITE/Src/usbd_composite.c **** #if (USBD_USE_PRNTR == 1)
 728:Middlewares/Third_Party/AL94_USB_Composite/COMPOSITE/Class/COMPOSITE/Src/usbd_composite.c ****   if (epnum == PRNT_OUT_EP)
 729:Middlewares/Third_Party/AL94_USB_Composite/COMPOSITE/Class/COMPOSITE/Src/usbd_composite.c ****   {
 730:Middlewares/Third_Party/AL94_USB_Composite/COMPOSITE/Class/COMPOSITE/Src/usbd_composite.c ****     USBD_PRNT.DataOut(pdev, epnum);
 731:Middlewares/Third_Party/AL94_USB_Composite/COMPOSITE/Class/COMPOSITE/Src/usbd_composite.c ****   }
 732:Middlewares/Third_Party/AL94_USB_Composite/COMPOSITE/Class/COMPOSITE/Src/usbd_composite.c **** #endif
 733:Middlewares/Third_Party/AL94_USB_Composite/COMPOSITE/Class/COMPOSITE/Src/usbd_composite.c **** 
 734:Middlewares/Third_Party/AL94_USB_Composite/COMPOSITE/Class/COMPOSITE/Src/usbd_composite.c ****   return USBD_FAIL;
 606              		.loc 1 734 10 view .LVU152
 607 0026 0320     		movs	r0, #3
 608              	.LVL59:
 609              	.L48:
 735:Middlewares/Third_Party/AL94_USB_Composite/COMPOSITE/Class/COMPOSITE/Src/usbd_composite.c **** }
 610              		.loc 1 735 1 view .LVU153
 611 0028 08BD     		pop	{r3, pc}
 612              	.LVL60:
 613              	.L54:
 706:Middlewares/Third_Party/AL94_USB_Composite/COMPOSITE/Class/COMPOSITE/Src/usbd_composite.c ****   }
 614              		.loc 1 706 5 is_stmt 1 view .LVU154
 706:Middlewares/Third_Party/AL94_USB_Composite/COMPOSITE/Class/COMPOSITE/Src/usbd_composite.c ****   }
 615              		.loc 1 706 27 is_stmt 0 view .LVU155
 616 002a 054B     		ldr	r3, .L55+12
 617 002c 9B69     		ldr	r3, [r3, #24]
 706:Middlewares/Third_Party/AL94_USB_Composite/COMPOSITE/Class/COMPOSITE/Src/usbd_composite.c ****   }
 618              		.loc 1 706 12 view .LVU156
 619 002e 9847     		blx	r3
 620              	.LVL61:
 706:Middlewares/Third_Party/AL94_USB_Composite/COMPOSITE/Class/COMPOSITE/Src/usbd_composite.c ****   }
 621              		.loc 1 706 12 view .LVU157
 622 0030 FAE7     		b	.L48
 623              	.L56:
ARM GAS  C:\Users\Nathan\AppData\Local\Temp\ccbp06cD.s 			page 25


 624 0032 00BF     		.align	2
 625              	.L55:
 626 0034 00000000 		.word	CDC_OUT_EP
 627 0038 00000000 		.word	USBD_CDC_ACM
 628 003c 00000000 		.word	CUSTOM_HID_OUT_EP
 629 0040 00000000 		.word	USBD_HID_CUSTOM
 630              		.cfi_endproc
 631              	.LFE1425:
 633              		.section	.text.USBD_COMPOSITE_GetHSCfgDesc,"ax",%progbits
 634              		.align	1
 635              		.syntax unified
 636              		.thumb
 637              		.thumb_func
 639              	USBD_COMPOSITE_GetHSCfgDesc:
 640              	.LVL62:
 641              	.LFB1426:
 736:Middlewares/Third_Party/AL94_USB_Composite/COMPOSITE/Class/COMPOSITE/Src/usbd_composite.c **** 
 737:Middlewares/Third_Party/AL94_USB_Composite/COMPOSITE/Class/COMPOSITE/Src/usbd_composite.c **** /**
 738:Middlewares/Third_Party/AL94_USB_Composite/COMPOSITE/Class/COMPOSITE/Src/usbd_composite.c ****   * @brief  USBD_COMPOSITE_GetHSCfgDesc
 739:Middlewares/Third_Party/AL94_USB_Composite/COMPOSITE/Class/COMPOSITE/Src/usbd_composite.c ****   *         return configuration descriptor
 740:Middlewares/Third_Party/AL94_USB_Composite/COMPOSITE/Class/COMPOSITE/Src/usbd_composite.c ****   * @param  length : pointer data length
 741:Middlewares/Third_Party/AL94_USB_Composite/COMPOSITE/Class/COMPOSITE/Src/usbd_composite.c ****   * @retval pointer to descriptor buffer
 742:Middlewares/Third_Party/AL94_USB_Composite/COMPOSITE/Class/COMPOSITE/Src/usbd_composite.c ****   */
 743:Middlewares/Third_Party/AL94_USB_Composite/COMPOSITE/Class/COMPOSITE/Src/usbd_composite.c **** static uint8_t *USBD_COMPOSITE_GetHSCfgDesc(uint16_t *length)
 744:Middlewares/Third_Party/AL94_USB_Composite/COMPOSITE/Class/COMPOSITE/Src/usbd_composite.c **** {
 642              		.loc 1 744 1 is_stmt 1 view -0
 643              		.cfi_startproc
 644              		@ args = 0, pretend = 0, frame = 0
 645              		@ frame_needed = 0, uses_anonymous_args = 0
 646              		@ link register save eliminated.
 745:Middlewares/Third_Party/AL94_USB_Composite/COMPOSITE/Class/COMPOSITE/Src/usbd_composite.c ****   *length = (uint16_t)sizeof(USBD_COMPOSITE_HSCfgDesc);
 647              		.loc 1 745 3 view .LVU159
 648              		.loc 1 745 11 is_stmt 0 view .LVU160
 649 0000 C623     		movs	r3, #198
 650 0002 0380     		strh	r3, [r0]	@ movhi
 746:Middlewares/Third_Party/AL94_USB_Composite/COMPOSITE/Class/COMPOSITE/Src/usbd_composite.c ****   return (uint8_t *)&USBD_COMPOSITE_HSCfgDesc;
 651              		.loc 1 746 3 is_stmt 1 view .LVU161
 747:Middlewares/Third_Party/AL94_USB_Composite/COMPOSITE/Class/COMPOSITE/Src/usbd_composite.c **** }
 652              		.loc 1 747 1 is_stmt 0 view .LVU162
 653 0004 0048     		ldr	r0, .L58
 654              	.LVL63:
 655              		.loc 1 747 1 view .LVU163
 656 0006 7047     		bx	lr
 657              	.L59:
 658              		.align	2
 659              	.L58:
 660 0008 00000000 		.word	USBD_COMPOSITE_HSCfgDesc
 661              		.cfi_endproc
 662              	.LFE1426:
 664              		.section	.text.USBD_COMPOSITE_GetFSCfgDesc,"ax",%progbits
 665              		.align	1
 666              		.syntax unified
 667              		.thumb
 668              		.thumb_func
 670              	USBD_COMPOSITE_GetFSCfgDesc:
 671              	.LVL64:
 672              	.LFB1427:
ARM GAS  C:\Users\Nathan\AppData\Local\Temp\ccbp06cD.s 			page 26


 748:Middlewares/Third_Party/AL94_USB_Composite/COMPOSITE/Class/COMPOSITE/Src/usbd_composite.c **** 
 749:Middlewares/Third_Party/AL94_USB_Composite/COMPOSITE/Class/COMPOSITE/Src/usbd_composite.c **** /**
 750:Middlewares/Third_Party/AL94_USB_Composite/COMPOSITE/Class/COMPOSITE/Src/usbd_composite.c ****   * @brief  USBD_COMPOSITE_GetFSCfgDesc
 751:Middlewares/Third_Party/AL94_USB_Composite/COMPOSITE/Class/COMPOSITE/Src/usbd_composite.c ****   *         return configuration descriptor
 752:Middlewares/Third_Party/AL94_USB_Composite/COMPOSITE/Class/COMPOSITE/Src/usbd_composite.c ****   * @param  length : pointer data length
 753:Middlewares/Third_Party/AL94_USB_Composite/COMPOSITE/Class/COMPOSITE/Src/usbd_composite.c ****   * @retval pointer to descriptor buffer
 754:Middlewares/Third_Party/AL94_USB_Composite/COMPOSITE/Class/COMPOSITE/Src/usbd_composite.c ****   */
 755:Middlewares/Third_Party/AL94_USB_Composite/COMPOSITE/Class/COMPOSITE/Src/usbd_composite.c **** static uint8_t *USBD_COMPOSITE_GetFSCfgDesc(uint16_t *length)
 756:Middlewares/Third_Party/AL94_USB_Composite/COMPOSITE/Class/COMPOSITE/Src/usbd_composite.c **** {
 673              		.loc 1 756 1 is_stmt 1 view -0
 674              		.cfi_startproc
 675              		@ args = 0, pretend = 0, frame = 0
 676              		@ frame_needed = 0, uses_anonymous_args = 0
 677              		@ link register save eliminated.
 757:Middlewares/Third_Party/AL94_USB_Composite/COMPOSITE/Class/COMPOSITE/Src/usbd_composite.c ****   *length = (uint16_t)sizeof(USBD_COMPOSITE_FSCfgDesc);
 678              		.loc 1 757 3 view .LVU165
 679              		.loc 1 757 11 is_stmt 0 view .LVU166
 680 0000 C623     		movs	r3, #198
 681 0002 0380     		strh	r3, [r0]	@ movhi
 758:Middlewares/Third_Party/AL94_USB_Composite/COMPOSITE/Class/COMPOSITE/Src/usbd_composite.c ****   return (uint8_t *)&USBD_COMPOSITE_FSCfgDesc;
 682              		.loc 1 758 3 is_stmt 1 view .LVU167
 759:Middlewares/Third_Party/AL94_USB_Composite/COMPOSITE/Class/COMPOSITE/Src/usbd_composite.c **** }
 683              		.loc 1 759 1 is_stmt 0 view .LVU168
 684 0004 0048     		ldr	r0, .L61
 685              	.LVL65:
 686              		.loc 1 759 1 view .LVU169
 687 0006 7047     		bx	lr
 688              	.L62:
 689              		.align	2
 690              	.L61:
 691 0008 00000000 		.word	USBD_COMPOSITE_FSCfgDesc
 692              		.cfi_endproc
 693              	.LFE1427:
 695              		.section	.text.USBD_COMPOSITE_GetOtherSpeedCfgDesc,"ax",%progbits
 696              		.align	1
 697              		.syntax unified
 698              		.thumb
 699              		.thumb_func
 701              	USBD_COMPOSITE_GetOtherSpeedCfgDesc:
 702              	.LVL66:
 703              	.LFB1428:
 760:Middlewares/Third_Party/AL94_USB_Composite/COMPOSITE/Class/COMPOSITE/Src/usbd_composite.c **** 
 761:Middlewares/Third_Party/AL94_USB_Composite/COMPOSITE/Class/COMPOSITE/Src/usbd_composite.c **** /**
 762:Middlewares/Third_Party/AL94_USB_Composite/COMPOSITE/Class/COMPOSITE/Src/usbd_composite.c ****   * @brief  USBD_COMPOSITE_GetOtherSpeedCfgDesc
 763:Middlewares/Third_Party/AL94_USB_Composite/COMPOSITE/Class/COMPOSITE/Src/usbd_composite.c ****   *         return configuration descriptor
 764:Middlewares/Third_Party/AL94_USB_Composite/COMPOSITE/Class/COMPOSITE/Src/usbd_composite.c ****   * @param  length : pointer data length
 765:Middlewares/Third_Party/AL94_USB_Composite/COMPOSITE/Class/COMPOSITE/Src/usbd_composite.c ****   * @retval pointer to descriptor buffer
 766:Middlewares/Third_Party/AL94_USB_Composite/COMPOSITE/Class/COMPOSITE/Src/usbd_composite.c ****   */
 767:Middlewares/Third_Party/AL94_USB_Composite/COMPOSITE/Class/COMPOSITE/Src/usbd_composite.c **** static uint8_t *USBD_COMPOSITE_GetOtherSpeedCfgDesc(uint16_t *length)
 768:Middlewares/Third_Party/AL94_USB_Composite/COMPOSITE/Class/COMPOSITE/Src/usbd_composite.c **** {
 704              		.loc 1 768 1 is_stmt 1 view -0
 705              		.cfi_startproc
 706              		@ args = 0, pretend = 0, frame = 0
 707              		@ frame_needed = 0, uses_anonymous_args = 0
 708              		@ link register save eliminated.
 769:Middlewares/Third_Party/AL94_USB_Composite/COMPOSITE/Class/COMPOSITE/Src/usbd_composite.c **** #if (USBD_USE_HS == 1)
 770:Middlewares/Third_Party/AL94_USB_Composite/COMPOSITE/Class/COMPOSITE/Src/usbd_composite.c ****   *length = (uint16_t)sizeof(USBD_COMPOSITE_FSCfgDesc);
ARM GAS  C:\Users\Nathan\AppData\Local\Temp\ccbp06cD.s 			page 27


 771:Middlewares/Third_Party/AL94_USB_Composite/COMPOSITE/Class/COMPOSITE/Src/usbd_composite.c ****   return (uint8_t *)&USBD_COMPOSITE_FSCfgDesc;
 772:Middlewares/Third_Party/AL94_USB_Composite/COMPOSITE/Class/COMPOSITE/Src/usbd_composite.c **** #else
 773:Middlewares/Third_Party/AL94_USB_Composite/COMPOSITE/Class/COMPOSITE/Src/usbd_composite.c ****   *length = (uint16_t)sizeof(USBD_COMPOSITE_HSCfgDesc);
 709              		.loc 1 773 3 view .LVU171
 710              		.loc 1 773 11 is_stmt 0 view .LVU172
 711 0000 C623     		movs	r3, #198
 712 0002 0380     		strh	r3, [r0]	@ movhi
 774:Middlewares/Third_Party/AL94_USB_Composite/COMPOSITE/Class/COMPOSITE/Src/usbd_composite.c ****   return (uint8_t *)&USBD_COMPOSITE_HSCfgDesc;
 713              		.loc 1 774 3 is_stmt 1 view .LVU173
 775:Middlewares/Third_Party/AL94_USB_Composite/COMPOSITE/Class/COMPOSITE/Src/usbd_composite.c **** #endif
 776:Middlewares/Third_Party/AL94_USB_Composite/COMPOSITE/Class/COMPOSITE/Src/usbd_composite.c **** }
 714              		.loc 1 776 1 is_stmt 0 view .LVU174
 715 0004 0048     		ldr	r0, .L64
 716              	.LVL67:
 717              		.loc 1 776 1 view .LVU175
 718 0006 7047     		bx	lr
 719              	.L65:
 720              		.align	2
 721              	.L64:
 722 0008 00000000 		.word	USBD_COMPOSITE_HSCfgDesc
 723              		.cfi_endproc
 724              	.LFE1428:
 726              		.section	.text.USBD_COMPOSITE_GetDeviceQualifierDesc,"ax",%progbits
 727              		.align	1
 728              		.syntax unified
 729              		.thumb
 730              		.thumb_func
 732              	USBD_COMPOSITE_GetDeviceQualifierDesc:
 733              	.LVL68:
 734              	.LFB1429:
 777:Middlewares/Third_Party/AL94_USB_Composite/COMPOSITE/Class/COMPOSITE/Src/usbd_composite.c **** 
 778:Middlewares/Third_Party/AL94_USB_Composite/COMPOSITE/Class/COMPOSITE/Src/usbd_composite.c **** /**
 779:Middlewares/Third_Party/AL94_USB_Composite/COMPOSITE/Class/COMPOSITE/Src/usbd_composite.c ****   * @brief  DeviceQualifierDescriptor
 780:Middlewares/Third_Party/AL94_USB_Composite/COMPOSITE/Class/COMPOSITE/Src/usbd_composite.c ****   *         return Device Qualifier descriptor
 781:Middlewares/Third_Party/AL94_USB_Composite/COMPOSITE/Class/COMPOSITE/Src/usbd_composite.c ****   * @param  length : pointer data length
 782:Middlewares/Third_Party/AL94_USB_Composite/COMPOSITE/Class/COMPOSITE/Src/usbd_composite.c ****   * @retval pointer to descriptor buffer
 783:Middlewares/Third_Party/AL94_USB_Composite/COMPOSITE/Class/COMPOSITE/Src/usbd_composite.c ****   */
 784:Middlewares/Third_Party/AL94_USB_Composite/COMPOSITE/Class/COMPOSITE/Src/usbd_composite.c **** uint8_t *USBD_COMPOSITE_GetDeviceQualifierDesc(uint16_t *length)
 785:Middlewares/Third_Party/AL94_USB_Composite/COMPOSITE/Class/COMPOSITE/Src/usbd_composite.c **** {
 735              		.loc 1 785 1 is_stmt 1 view -0
 736              		.cfi_startproc
 737              		@ args = 0, pretend = 0, frame = 0
 738              		@ frame_needed = 0, uses_anonymous_args = 0
 739              		@ link register save eliminated.
 786:Middlewares/Third_Party/AL94_USB_Composite/COMPOSITE/Class/COMPOSITE/Src/usbd_composite.c ****   *length = (uint16_t)sizeof(USBD_COMPOSITE_DeviceQualifierDesc);
 740              		.loc 1 786 3 view .LVU177
 741              		.loc 1 786 11 is_stmt 0 view .LVU178
 742 0000 0A23     		movs	r3, #10
 743 0002 0380     		strh	r3, [r0]	@ movhi
 787:Middlewares/Third_Party/AL94_USB_Composite/COMPOSITE/Class/COMPOSITE/Src/usbd_composite.c ****   return USBD_COMPOSITE_DeviceQualifierDesc;
 744              		.loc 1 787 3 is_stmt 1 view .LVU179
 788:Middlewares/Third_Party/AL94_USB_Composite/COMPOSITE/Class/COMPOSITE/Src/usbd_composite.c **** }
 745              		.loc 1 788 1 is_stmt 0 view .LVU180
 746 0004 0048     		ldr	r0, .L67
 747              	.LVL69:
 748              		.loc 1 788 1 view .LVU181
 749 0006 7047     		bx	lr
ARM GAS  C:\Users\Nathan\AppData\Local\Temp\ccbp06cD.s 			page 28


 750              	.L68:
 751              		.align	2
 752              	.L67:
 753 0008 00000000 		.word	USBD_COMPOSITE_DeviceQualifierDesc
 754              		.cfi_endproc
 755              	.LFE1429:
 757              		.section	.rodata.USBD_COMPOSITE_GetUsrStringDesc.str1.4,"aMS",%progbits,1
 758              		.align	2
 759              	.LC0:
 760 0000 53544D33 		.ascii	"STM32 CDC ACM%d\000"
 760      32204344 
 760      43204143 
 760      4D256400 
 761              		.align	2
 762              	.LC1:
 763 0010 53544D33 		.ascii	"STM32 USB KEYBOARD\000"
 763      32205553 
 763      42204B45 
 763      59424F41 
 763      524400
 764 0023 00       		.align	2
 765              	.LC2:
 766 0024 53544D33 		.ascii	"STM32 HID CUSTOM\000"
 766      32204849 
 766      44204355 
 766      53544F4D 
 766      00
 767              		.section	.text.USBD_COMPOSITE_GetUsrStringDesc,"ax",%progbits
 768              		.align	1
 769              		.syntax unified
 770              		.thumb
 771              		.thumb_func
 773              	USBD_COMPOSITE_GetUsrStringDesc:
 774              	.LVL70:
 775              	.LFB1430:
 789:Middlewares/Third_Party/AL94_USB_Composite/COMPOSITE/Class/COMPOSITE/Src/usbd_composite.c **** 
 790:Middlewares/Third_Party/AL94_USB_Composite/COMPOSITE/Class/COMPOSITE/Src/usbd_composite.c **** /**
 791:Middlewares/Third_Party/AL94_USB_Composite/COMPOSITE/Class/COMPOSITE/Src/usbd_composite.c ****   * @brief  USBD_COMPOSITE_GetUsrStringDesc
 792:Middlewares/Third_Party/AL94_USB_Composite/COMPOSITE/Class/COMPOSITE/Src/usbd_composite.c ****   *         Manages the transfer of memory interfaces string descriptors.
 793:Middlewares/Third_Party/AL94_USB_Composite/COMPOSITE/Class/COMPOSITE/Src/usbd_composite.c ****   * @param  speed : current device speed
 794:Middlewares/Third_Party/AL94_USB_Composite/COMPOSITE/Class/COMPOSITE/Src/usbd_composite.c ****   * @param  index: descriptor index
 795:Middlewares/Third_Party/AL94_USB_Composite/COMPOSITE/Class/COMPOSITE/Src/usbd_composite.c ****   * @param  length : pointer data length
 796:Middlewares/Third_Party/AL94_USB_Composite/COMPOSITE/Class/COMPOSITE/Src/usbd_composite.c ****   * @retval pointer to the descriptor table or NULL if the descriptor is not supported.
 797:Middlewares/Third_Party/AL94_USB_Composite/COMPOSITE/Class/COMPOSITE/Src/usbd_composite.c ****   */
 798:Middlewares/Third_Party/AL94_USB_Composite/COMPOSITE/Class/COMPOSITE/Src/usbd_composite.c **** #if (USBD_SUPPORT_USER_STRING_DESC == 1U)
 799:Middlewares/Third_Party/AL94_USB_Composite/COMPOSITE/Class/COMPOSITE/Src/usbd_composite.c **** static uint8_t *USBD_COMPOSITE_GetUsrStringDesc(USBD_HandleTypeDef *pdev, uint8_t index, uint16_t *
 800:Middlewares/Third_Party/AL94_USB_Composite/COMPOSITE/Class/COMPOSITE/Src/usbd_composite.c **** {
 776              		.loc 1 800 1 is_stmt 1 view -0
 777              		.cfi_startproc
 778              		@ args = 0, pretend = 0, frame = 16
 779              		@ frame_needed = 0, uses_anonymous_args = 0
 801:Middlewares/Third_Party/AL94_USB_Composite/COMPOSITE/Class/COMPOSITE/Src/usbd_composite.c ****   static uint8_t USBD_StrDesc[64];
 780              		.loc 1 801 3 view .LVU183
 802:Middlewares/Third_Party/AL94_USB_Composite/COMPOSITE/Class/COMPOSITE/Src/usbd_composite.c **** 
 803:Middlewares/Third_Party/AL94_USB_Composite/COMPOSITE/Class/COMPOSITE/Src/usbd_composite.c ****   /* Check if the requested string interface is supported */
 804:Middlewares/Third_Party/AL94_USB_Composite/COMPOSITE/Class/COMPOSITE/Src/usbd_composite.c ****   if (index <= USBD_Track_String_Index)
 781              		.loc 1 804 3 view .LVU184
ARM GAS  C:\Users\Nathan\AppData\Local\Temp\ccbp06cD.s 			page 29


 782              		.loc 1 804 13 is_stmt 0 view .LVU185
 783 0000 1D4B     		ldr	r3, .L84
 784 0002 1B78     		ldrb	r3, [r3]	@ zero_extendqisi2
 785              		.loc 1 804 6 view .LVU186
 786 0004 8B42     		cmp	r3, r1
 787 0006 34D3     		bcc	.L76
 800:Middlewares/Third_Party/AL94_USB_Composite/COMPOSITE/Class/COMPOSITE/Src/usbd_composite.c ****   static uint8_t USBD_StrDesc[64];
 788              		.loc 1 800 1 view .LVU187
 789 0008 70B5     		push	{r4, r5, r6, lr}
 790              		.cfi_def_cfa_offset 16
 791              		.cfi_offset 4, -16
 792              		.cfi_offset 5, -12
 793              		.cfi_offset 6, -8
 794              		.cfi_offset 14, -4
 795 000a 84B0     		sub	sp, sp, #16
 796              		.cfi_def_cfa_offset 32
 797 000c 0D46     		mov	r5, r1
 798 000e 1646     		mov	r6, r2
 799              	.LBB5:
 805:Middlewares/Third_Party/AL94_USB_Composite/COMPOSITE/Class/COMPOSITE/Src/usbd_composite.c ****   {
 806:Middlewares/Third_Party/AL94_USB_Composite/COMPOSITE/Class/COMPOSITE/Src/usbd_composite.c **** #if (USBD_USE_CDC_ACM == 1)
 807:Middlewares/Third_Party/AL94_USB_Composite/COMPOSITE/Class/COMPOSITE/Src/usbd_composite.c ****     char str_buffer[16] = "";
 800              		.loc 1 807 5 is_stmt 1 view .LVU188
 801              		.loc 1 807 10 is_stmt 0 view .LVU189
 802 0010 0024     		movs	r4, #0
 803 0012 0094     		str	r4, [sp]
 804 0014 0194     		str	r4, [sp, #4]
 805 0016 0294     		str	r4, [sp, #8]
 806 0018 0394     		str	r4, [sp, #12]
 808:Middlewares/Third_Party/AL94_USB_Composite/COMPOSITE/Class/COMPOSITE/Src/usbd_composite.c ****     for (uint8_t i = 0; i < USBD_CDC_ACM_COUNT; i++)
 807              		.loc 1 808 5 is_stmt 1 view .LVU190
 808              	.LBB6:
 809              		.loc 1 808 10 view .LVU191
 810              	.LVL71:
 811              		.loc 1 808 5 is_stmt 0 view .LVU192
 812 001a 01E0     		b	.L71
 813              	.LVL72:
 814              	.L72:
 815              		.loc 1 808 50 is_stmt 1 discriminator 2 view .LVU193
 816 001c 0134     		adds	r4, r4, #1
 817              	.LVL73:
 818              		.loc 1 808 50 is_stmt 0 discriminator 2 view .LVU194
 819 001e E4B2     		uxtb	r4, r4
 820              	.LVL74:
 821              	.L71:
 822              		.loc 1 808 27 is_stmt 1 discriminator 1 view .LVU195
 823 0020 012C     		cmp	r4, #1
 824 0022 0FD8     		bhi	.L81
 809:Middlewares/Third_Party/AL94_USB_Composite/COMPOSITE/Class/COMPOSITE/Src/usbd_composite.c ****     {
 810:Middlewares/Third_Party/AL94_USB_Composite/COMPOSITE/Class/COMPOSITE/Src/usbd_composite.c ****       if (index == CDC_STR_DESC_IDX[i])
 825              		.loc 1 810 7 view .LVU196
 826              		.loc 1 810 36 is_stmt 0 view .LVU197
 827 0024 154B     		ldr	r3, .L84+4
 828 0026 1B5D     		ldrb	r3, [r3, r4]	@ zero_extendqisi2
 829              		.loc 1 810 10 view .LVU198
 830 0028 AB42     		cmp	r3, r5
 831 002a F7D1     		bne	.L72
ARM GAS  C:\Users\Nathan\AppData\Local\Temp\ccbp06cD.s 			page 30


 811:Middlewares/Third_Party/AL94_USB_Composite/COMPOSITE/Class/COMPOSITE/Src/usbd_composite.c ****       {
 812:Middlewares/Third_Party/AL94_USB_Composite/COMPOSITE/Class/COMPOSITE/Src/usbd_composite.c ****         snprintf(str_buffer, sizeof(str_buffer), CDC_ACM_STR_DESC, i);
 832              		.loc 1 812 9 is_stmt 1 view .LVU199
 833 002c 2346     		mov	r3, r4
 834 002e 144A     		ldr	r2, .L84+8
 835 0030 1021     		movs	r1, #16
 836 0032 6846     		mov	r0, sp
 837 0034 FFF7FEFF 		bl	snprintf
 838              	.LVL75:
 813:Middlewares/Third_Party/AL94_USB_Composite/COMPOSITE/Class/COMPOSITE/Src/usbd_composite.c ****         USBD_GetString((uint8_t *)str_buffer, USBD_StrDesc, length);
 839              		.loc 1 813 9 view .LVU200
 840 0038 3246     		mov	r2, r6
 841 003a 1249     		ldr	r1, .L84+12
 842 003c 6846     		mov	r0, sp
 843 003e FFF7FEFF 		bl	USBD_GetString
 844              	.LVL76:
 845 0042 EBE7     		b	.L72
 846              	.L81:
 847              		.loc 1 813 9 is_stmt 0 view .LVU201
 848              	.LBE6:
 814:Middlewares/Third_Party/AL94_USB_Composite/COMPOSITE/Class/COMPOSITE/Src/usbd_composite.c ****       }
 815:Middlewares/Third_Party/AL94_USB_Composite/COMPOSITE/Class/COMPOSITE/Src/usbd_composite.c ****     }
 816:Middlewares/Third_Party/AL94_USB_Composite/COMPOSITE/Class/COMPOSITE/Src/usbd_composite.c **** #endif
 817:Middlewares/Third_Party/AL94_USB_Composite/COMPOSITE/Class/COMPOSITE/Src/usbd_composite.c **** #if (USBD_USE_CDC_ECM == 1)
 818:Middlewares/Third_Party/AL94_USB_Composite/COMPOSITE/Class/COMPOSITE/Src/usbd_composite.c ****     if (index == CDC_ECM_STR_DESC_IDX)
 819:Middlewares/Third_Party/AL94_USB_Composite/COMPOSITE/Class/COMPOSITE/Src/usbd_composite.c ****     {
 820:Middlewares/Third_Party/AL94_USB_Composite/COMPOSITE/Class/COMPOSITE/Src/usbd_composite.c ****       USBD_GetString((uint8_t *)CDC_ECM_STR_DESC, USBD_StrDesc, length);
 821:Middlewares/Third_Party/AL94_USB_Composite/COMPOSITE/Class/COMPOSITE/Src/usbd_composite.c ****     }
 822:Middlewares/Third_Party/AL94_USB_Composite/COMPOSITE/Class/COMPOSITE/Src/usbd_composite.c **** #endif
 823:Middlewares/Third_Party/AL94_USB_Composite/COMPOSITE/Class/COMPOSITE/Src/usbd_composite.c **** #if (USBD_USE_CDC_RNDIS == 1)
 824:Middlewares/Third_Party/AL94_USB_Composite/COMPOSITE/Class/COMPOSITE/Src/usbd_composite.c ****     if (index == CDC_RNDIS_STR_DESC_IDX)
 825:Middlewares/Third_Party/AL94_USB_Composite/COMPOSITE/Class/COMPOSITE/Src/usbd_composite.c ****     {
 826:Middlewares/Third_Party/AL94_USB_Composite/COMPOSITE/Class/COMPOSITE/Src/usbd_composite.c ****       USBD_GetString((uint8_t *)CDC_RNDIS_STR_DESC, USBD_StrDesc, length);
 827:Middlewares/Third_Party/AL94_USB_Composite/COMPOSITE/Class/COMPOSITE/Src/usbd_composite.c ****     }
 828:Middlewares/Third_Party/AL94_USB_Composite/COMPOSITE/Class/COMPOSITE/Src/usbd_composite.c **** #endif
 829:Middlewares/Third_Party/AL94_USB_Composite/COMPOSITE/Class/COMPOSITE/Src/usbd_composite.c **** #if (USBD_USE_HID_MOUSE == 1)
 830:Middlewares/Third_Party/AL94_USB_Composite/COMPOSITE/Class/COMPOSITE/Src/usbd_composite.c ****     if (index == HID_MOUSE_STR_DESC_IDX)
 831:Middlewares/Third_Party/AL94_USB_Composite/COMPOSITE/Class/COMPOSITE/Src/usbd_composite.c ****     {
 832:Middlewares/Third_Party/AL94_USB_Composite/COMPOSITE/Class/COMPOSITE/Src/usbd_composite.c ****       USBD_GetString((uint8_t *)HID_MOUSE_STR_DESC, USBD_StrDesc, length);
 833:Middlewares/Third_Party/AL94_USB_Composite/COMPOSITE/Class/COMPOSITE/Src/usbd_composite.c ****     }
 834:Middlewares/Third_Party/AL94_USB_Composite/COMPOSITE/Class/COMPOSITE/Src/usbd_composite.c **** #endif
 835:Middlewares/Third_Party/AL94_USB_Composite/COMPOSITE/Class/COMPOSITE/Src/usbd_composite.c **** #if (USBD_USE_HID_KEYBOARD == 1)
 836:Middlewares/Third_Party/AL94_USB_Composite/COMPOSITE/Class/COMPOSITE/Src/usbd_composite.c ****     if (index == HID_KEYBOARD_STR_DESC_IDX)
 849              		.loc 1 836 5 is_stmt 1 view .LVU202
 850              		.loc 1 836 15 is_stmt 0 view .LVU203
 851 0044 104B     		ldr	r3, .L84+16
 852 0046 1B78     		ldrb	r3, [r3]	@ zero_extendqisi2
 853              		.loc 1 836 8 view .LVU204
 854 0048 AB42     		cmp	r3, r5
 855 004a 06D0     		beq	.L82
 856              	.L74:
 837:Middlewares/Third_Party/AL94_USB_Composite/COMPOSITE/Class/COMPOSITE/Src/usbd_composite.c ****     {
 838:Middlewares/Third_Party/AL94_USB_Composite/COMPOSITE/Class/COMPOSITE/Src/usbd_composite.c ****       USBD_GetString((uint8_t *)HID_KEYBOARD_STR_DESC, USBD_StrDesc, length);
 839:Middlewares/Third_Party/AL94_USB_Composite/COMPOSITE/Class/COMPOSITE/Src/usbd_composite.c ****     }
 840:Middlewares/Third_Party/AL94_USB_Composite/COMPOSITE/Class/COMPOSITE/Src/usbd_composite.c **** #endif
 841:Middlewares/Third_Party/AL94_USB_Composite/COMPOSITE/Class/COMPOSITE/Src/usbd_composite.c **** #if (USBD_USE_HID_CUSTOM == 1)
 842:Middlewares/Third_Party/AL94_USB_Composite/COMPOSITE/Class/COMPOSITE/Src/usbd_composite.c ****     if (index == CUSTOM_HID_STR_DESC_IDX)
ARM GAS  C:\Users\Nathan\AppData\Local\Temp\ccbp06cD.s 			page 31


 857              		.loc 1 842 5 is_stmt 1 view .LVU205
 858              		.loc 1 842 15 is_stmt 0 view .LVU206
 859 004c 0F4B     		ldr	r3, .L84+20
 860 004e 1B78     		ldrb	r3, [r3]	@ zero_extendqisi2
 861              		.loc 1 842 8 view .LVU207
 862 0050 AB42     		cmp	r3, r5
 863 0052 08D0     		beq	.L83
 864              	.L75:
 843:Middlewares/Third_Party/AL94_USB_Composite/COMPOSITE/Class/COMPOSITE/Src/usbd_composite.c ****     {
 844:Middlewares/Third_Party/AL94_USB_Composite/COMPOSITE/Class/COMPOSITE/Src/usbd_composite.c ****       USBD_GetString((uint8_t *)CUSTOM_HID_STR_DESC, USBD_StrDesc, length);
 845:Middlewares/Third_Party/AL94_USB_Composite/COMPOSITE/Class/COMPOSITE/Src/usbd_composite.c ****     }
 846:Middlewares/Third_Party/AL94_USB_Composite/COMPOSITE/Class/COMPOSITE/Src/usbd_composite.c **** #endif
 847:Middlewares/Third_Party/AL94_USB_Composite/COMPOSITE/Class/COMPOSITE/Src/usbd_composite.c **** #if (USBD_USE_UAC_MIC == 1)
 848:Middlewares/Third_Party/AL94_USB_Composite/COMPOSITE/Class/COMPOSITE/Src/usbd_composite.c ****     if (index == AUDIO_MIC_STR_DESC_IDX)
 849:Middlewares/Third_Party/AL94_USB_Composite/COMPOSITE/Class/COMPOSITE/Src/usbd_composite.c ****     {
 850:Middlewares/Third_Party/AL94_USB_Composite/COMPOSITE/Class/COMPOSITE/Src/usbd_composite.c ****       USBD_GetString((uint8_t *)AUDIO_MIC_STR_DESC, USBD_StrDesc, length);
 851:Middlewares/Third_Party/AL94_USB_Composite/COMPOSITE/Class/COMPOSITE/Src/usbd_composite.c ****     }
 852:Middlewares/Third_Party/AL94_USB_Composite/COMPOSITE/Class/COMPOSITE/Src/usbd_composite.c **** #endif
 853:Middlewares/Third_Party/AL94_USB_Composite/COMPOSITE/Class/COMPOSITE/Src/usbd_composite.c **** #if (USBD_USE_UAC_SPKR == 1)
 854:Middlewares/Third_Party/AL94_USB_Composite/COMPOSITE/Class/COMPOSITE/Src/usbd_composite.c ****     if (index == AUDIO_SPKR_STR_DESC_IDX)
 855:Middlewares/Third_Party/AL94_USB_Composite/COMPOSITE/Class/COMPOSITE/Src/usbd_composite.c ****     {
 856:Middlewares/Third_Party/AL94_USB_Composite/COMPOSITE/Class/COMPOSITE/Src/usbd_composite.c ****       USBD_GetString((uint8_t *)AUDIO_SPKR_STR_DESC, USBD_StrDesc, length);
 857:Middlewares/Third_Party/AL94_USB_Composite/COMPOSITE/Class/COMPOSITE/Src/usbd_composite.c ****     }
 858:Middlewares/Third_Party/AL94_USB_Composite/COMPOSITE/Class/COMPOSITE/Src/usbd_composite.c **** #endif
 859:Middlewares/Third_Party/AL94_USB_Composite/COMPOSITE/Class/COMPOSITE/Src/usbd_composite.c **** #if (USBD_USE_UVC == 1)
 860:Middlewares/Third_Party/AL94_USB_Composite/COMPOSITE/Class/COMPOSITE/Src/usbd_composite.c ****     if (index == UVC_STR_DESC_IDX)
 861:Middlewares/Third_Party/AL94_USB_Composite/COMPOSITE/Class/COMPOSITE/Src/usbd_composite.c ****     {
 862:Middlewares/Third_Party/AL94_USB_Composite/COMPOSITE/Class/COMPOSITE/Src/usbd_composite.c ****       USBD_GetString((uint8_t *)UVC_STR_DESC, USBD_StrDesc, length);
 863:Middlewares/Third_Party/AL94_USB_Composite/COMPOSITE/Class/COMPOSITE/Src/usbd_composite.c ****     }
 864:Middlewares/Third_Party/AL94_USB_Composite/COMPOSITE/Class/COMPOSITE/Src/usbd_composite.c **** #endif
 865:Middlewares/Third_Party/AL94_USB_Composite/COMPOSITE/Class/COMPOSITE/Src/usbd_composite.c **** #if (USBD_USE_MSC == 1)
 866:Middlewares/Third_Party/AL94_USB_Composite/COMPOSITE/Class/COMPOSITE/Src/usbd_composite.c ****     if (index == MSC_BOT_STR_DESC_IDX)
 867:Middlewares/Third_Party/AL94_USB_Composite/COMPOSITE/Class/COMPOSITE/Src/usbd_composite.c ****     {
 868:Middlewares/Third_Party/AL94_USB_Composite/COMPOSITE/Class/COMPOSITE/Src/usbd_composite.c ****       USBD_GetString((uint8_t *)MSC_BOT_STR_DESC, USBD_StrDesc, length);
 869:Middlewares/Third_Party/AL94_USB_Composite/COMPOSITE/Class/COMPOSITE/Src/usbd_composite.c ****     }
 870:Middlewares/Third_Party/AL94_USB_Composite/COMPOSITE/Class/COMPOSITE/Src/usbd_composite.c **** #endif
 871:Middlewares/Third_Party/AL94_USB_Composite/COMPOSITE/Class/COMPOSITE/Src/usbd_composite.c **** #if (USBD_USE_DFU == 1)
 872:Middlewares/Third_Party/AL94_USB_Composite/COMPOSITE/Class/COMPOSITE/Src/usbd_composite.c ****     if (index == DFU_STR_DESC_IDX)
 873:Middlewares/Third_Party/AL94_USB_Composite/COMPOSITE/Class/COMPOSITE/Src/usbd_composite.c ****     {
 874:Middlewares/Third_Party/AL94_USB_Composite/COMPOSITE/Class/COMPOSITE/Src/usbd_composite.c ****       USBD_GetString((uint8_t *)DFU_STR_DESC, USBD_StrDesc, length);
 875:Middlewares/Third_Party/AL94_USB_Composite/COMPOSITE/Class/COMPOSITE/Src/usbd_composite.c ****     }
 876:Middlewares/Third_Party/AL94_USB_Composite/COMPOSITE/Class/COMPOSITE/Src/usbd_composite.c **** #endif
 877:Middlewares/Third_Party/AL94_USB_Composite/COMPOSITE/Class/COMPOSITE/Src/usbd_composite.c **** #if (USBD_USE_PRNTR == 1)
 878:Middlewares/Third_Party/AL94_USB_Composite/COMPOSITE/Class/COMPOSITE/Src/usbd_composite.c ****     if (index == PRINTER_STR_DESC_IDX)
 879:Middlewares/Third_Party/AL94_USB_Composite/COMPOSITE/Class/COMPOSITE/Src/usbd_composite.c ****     {
 880:Middlewares/Third_Party/AL94_USB_Composite/COMPOSITE/Class/COMPOSITE/Src/usbd_composite.c ****       USBD_GetString((uint8_t *)PRNT_STR_DESC, USBD_StrDesc, length);
 881:Middlewares/Third_Party/AL94_USB_Composite/COMPOSITE/Class/COMPOSITE/Src/usbd_composite.c ****     }
 882:Middlewares/Third_Party/AL94_USB_Composite/COMPOSITE/Class/COMPOSITE/Src/usbd_composite.c **** #endif
 883:Middlewares/Third_Party/AL94_USB_Composite/COMPOSITE/Class/COMPOSITE/Src/usbd_composite.c ****     return USBD_StrDesc;
 865              		.loc 1 883 5 is_stmt 1 view .LVU208
 866              		.loc 1 883 12 is_stmt 0 view .LVU209
 867 0054 0B48     		ldr	r0, .L84+12
 868              	.LBE5:
 884:Middlewares/Third_Party/AL94_USB_Composite/COMPOSITE/Class/COMPOSITE/Src/usbd_composite.c ****   }
 885:Middlewares/Third_Party/AL94_USB_Composite/COMPOSITE/Class/COMPOSITE/Src/usbd_composite.c ****   else
 886:Middlewares/Third_Party/AL94_USB_Composite/COMPOSITE/Class/COMPOSITE/Src/usbd_composite.c ****   {
 887:Middlewares/Third_Party/AL94_USB_Composite/COMPOSITE/Class/COMPOSITE/Src/usbd_composite.c ****     /* Not supported Interface Descriptor index */
ARM GAS  C:\Users\Nathan\AppData\Local\Temp\ccbp06cD.s 			page 32


 888:Middlewares/Third_Party/AL94_USB_Composite/COMPOSITE/Class/COMPOSITE/Src/usbd_composite.c ****     return NULL;
 889:Middlewares/Third_Party/AL94_USB_Composite/COMPOSITE/Class/COMPOSITE/Src/usbd_composite.c ****   }
 890:Middlewares/Third_Party/AL94_USB_Composite/COMPOSITE/Class/COMPOSITE/Src/usbd_composite.c **** }
 869              		.loc 1 890 1 view .LVU210
 870 0056 04B0     		add	sp, sp, #16
 871              		.cfi_remember_state
 872              		.cfi_def_cfa_offset 16
 873              		@ sp needed
 874 0058 70BD     		pop	{r4, r5, r6, pc}
 875              	.LVL77:
 876              	.L82:
 877              		.cfi_restore_state
 878              	.LBB7:
 838:Middlewares/Third_Party/AL94_USB_Composite/COMPOSITE/Class/COMPOSITE/Src/usbd_composite.c ****     }
 879              		.loc 1 838 7 is_stmt 1 view .LVU211
 880 005a 3246     		mov	r2, r6
 881 005c 0949     		ldr	r1, .L84+12
 882 005e 0C48     		ldr	r0, .L84+24
 883 0060 FFF7FEFF 		bl	USBD_GetString
 884              	.LVL78:
 885 0064 F2E7     		b	.L74
 886              	.L83:
 844:Middlewares/Third_Party/AL94_USB_Composite/COMPOSITE/Class/COMPOSITE/Src/usbd_composite.c ****     }
 887              		.loc 1 844 7 view .LVU212
 888 0066 3246     		mov	r2, r6
 889 0068 0649     		ldr	r1, .L84+12
 890 006a 0A48     		ldr	r0, .L84+28
 891 006c FFF7FEFF 		bl	USBD_GetString
 892              	.LVL79:
 893 0070 F0E7     		b	.L75
 894              	.LVL80:
 895              	.L76:
 896              		.cfi_def_cfa_offset 0
 897              		.cfi_restore 4
 898              		.cfi_restore 5
 899              		.cfi_restore 6
 900              		.cfi_restore 14
 844:Middlewares/Third_Party/AL94_USB_Composite/COMPOSITE/Class/COMPOSITE/Src/usbd_composite.c ****     }
 901              		.loc 1 844 7 is_stmt 0 view .LVU213
 902              	.LBE7:
 888:Middlewares/Third_Party/AL94_USB_Composite/COMPOSITE/Class/COMPOSITE/Src/usbd_composite.c ****   }
 903              		.loc 1 888 12 view .LVU214
 904 0072 0020     		movs	r0, #0
 905              	.LVL81:
 906              		.loc 1 890 1 view .LVU215
 907 0074 7047     		bx	lr
 908              	.L85:
 909 0076 00BF     		.align	2
 910              	.L84:
 911 0078 00000000 		.word	USBD_Track_String_Index
 912 007c 00000000 		.word	CDC_STR_DESC_IDX
 913 0080 00000000 		.word	.LC0
 914 0084 00000000 		.word	USBD_StrDesc.0
 915 0088 00000000 		.word	HID_KEYBOARD_STR_DESC_IDX
 916 008c 00000000 		.word	CUSTOM_HID_STR_DESC_IDX
 917 0090 10000000 		.word	.LC1
 918 0094 24000000 		.word	.LC2
ARM GAS  C:\Users\Nathan\AppData\Local\Temp\ccbp06cD.s 			page 33


 919              		.cfi_endproc
 920              	.LFE1430:
 922              		.section	.text.USBD_COMPOSITE_Mount_Class,"ax",%progbits
 923              		.align	1
 924              		.global	USBD_COMPOSITE_Mount_Class
 925              		.syntax unified
 926              		.thumb
 927              		.thumb_func
 929              	USBD_COMPOSITE_Mount_Class:
 930              	.LFB1431:
 891:Middlewares/Third_Party/AL94_USB_Composite/COMPOSITE/Class/COMPOSITE/Src/usbd_composite.c **** #endif
 892:Middlewares/Third_Party/AL94_USB_Composite/COMPOSITE/Class/COMPOSITE/Src/usbd_composite.c **** 
 893:Middlewares/Third_Party/AL94_USB_Composite/COMPOSITE/Class/COMPOSITE/Src/usbd_composite.c **** void USBD_COMPOSITE_Mount_Class(void)
 894:Middlewares/Third_Party/AL94_USB_Composite/COMPOSITE/Class/COMPOSITE/Src/usbd_composite.c **** {
 931              		.loc 1 894 1 is_stmt 1 view -0
 932              		.cfi_startproc
 933              		@ args = 0, pretend = 0, frame = 8
 934              		@ frame_needed = 0, uses_anonymous_args = 0
 935 0000 2DE9F04F 		push	{r4, r5, r6, r7, r8, r9, r10, fp, lr}
 936              		.cfi_def_cfa_offset 36
 937              		.cfi_offset 4, -36
 938              		.cfi_offset 5, -32
 939              		.cfi_offset 6, -28
 940              		.cfi_offset 7, -24
 941              		.cfi_offset 8, -20
 942              		.cfi_offset 9, -16
 943              		.cfi_offset 10, -12
 944              		.cfi_offset 11, -8
 945              		.cfi_offset 14, -4
 946 0004 87B0     		sub	sp, sp, #28
 947              		.cfi_def_cfa_offset 64
 895:Middlewares/Third_Party/AL94_USB_Composite/COMPOSITE/Class/COMPOSITE/Src/usbd_composite.c ****   uint16_t len = 0;
 948              		.loc 1 895 3 view .LVU217
 949              		.loc 1 895 12 is_stmt 0 view .LVU218
 950 0006 0025     		movs	r5, #0
 951 0008 ADF81650 		strh	r5, [sp, #22]	@ movhi
 896:Middlewares/Third_Party/AL94_USB_Composite/COMPOSITE/Class/COMPOSITE/Src/usbd_composite.c ****   uint8_t *ptr = NULL;
 952              		.loc 1 896 3 is_stmt 1 view .LVU219
 953              	.LVL82:
 897:Middlewares/Third_Party/AL94_USB_Composite/COMPOSITE/Class/COMPOSITE/Src/usbd_composite.c **** 
 898:Middlewares/Third_Party/AL94_USB_Composite/COMPOSITE/Class/COMPOSITE/Src/usbd_composite.c ****   uint8_t in_ep_track = 0x81;
 954              		.loc 1 898 3 view .LVU220
 899:Middlewares/Third_Party/AL94_USB_Composite/COMPOSITE/Class/COMPOSITE/Src/usbd_composite.c ****   uint8_t out_ep_track = 0x01;
 955              		.loc 1 899 3 view .LVU221
 900:Middlewares/Third_Party/AL94_USB_Composite/COMPOSITE/Class/COMPOSITE/Src/usbd_composite.c ****   uint8_t interface_no_track = 0x00;
 956              		.loc 1 900 3 view .LVU222
 901:Middlewares/Third_Party/AL94_USB_Composite/COMPOSITE/Class/COMPOSITE/Src/usbd_composite.c **** 
 902:Middlewares/Third_Party/AL94_USB_Composite/COMPOSITE/Class/COMPOSITE/Src/usbd_composite.c **** #if (USBD_USE_CDC_RNDIS == 1)
 903:Middlewares/Third_Party/AL94_USB_Composite/COMPOSITE/Class/COMPOSITE/Src/usbd_composite.c ****   ptr = USBD_CDC_RNDIS.GetFSConfigDescriptor(&len);
 904:Middlewares/Third_Party/AL94_USB_Composite/COMPOSITE/Class/COMPOSITE/Src/usbd_composite.c ****   USBD_Update_CDC_RNDIS_DESC(ptr,
 905:Middlewares/Third_Party/AL94_USB_Composite/COMPOSITE/Class/COMPOSITE/Src/usbd_composite.c ****                              interface_no_track,
 906:Middlewares/Third_Party/AL94_USB_Composite/COMPOSITE/Class/COMPOSITE/Src/usbd_composite.c ****                              interface_no_track + 1,
 907:Middlewares/Third_Party/AL94_USB_Composite/COMPOSITE/Class/COMPOSITE/Src/usbd_composite.c ****                              in_ep_track,
 908:Middlewares/Third_Party/AL94_USB_Composite/COMPOSITE/Class/COMPOSITE/Src/usbd_composite.c ****                              in_ep_track + 1,
 909:Middlewares/Third_Party/AL94_USB_Composite/COMPOSITE/Class/COMPOSITE/Src/usbd_composite.c ****                              out_ep_track,
 910:Middlewares/Third_Party/AL94_USB_Composite/COMPOSITE/Class/COMPOSITE/Src/usbd_composite.c ****                              USBD_Track_String_Index);
 911:Middlewares/Third_Party/AL94_USB_Composite/COMPOSITE/Class/COMPOSITE/Src/usbd_composite.c ****   memcpy(USBD_COMPOSITE_FSCfgDesc.USBD_CDC_RNDIS_DESC, ptr + 0x09, len - 0x09);
ARM GAS  C:\Users\Nathan\AppData\Local\Temp\ccbp06cD.s 			page 34


 912:Middlewares/Third_Party/AL94_USB_Composite/COMPOSITE/Class/COMPOSITE/Src/usbd_composite.c **** 
 913:Middlewares/Third_Party/AL94_USB_Composite/COMPOSITE/Class/COMPOSITE/Src/usbd_composite.c ****   ptr = USBD_CDC_RNDIS.GetHSConfigDescriptor(&len);
 914:Middlewares/Third_Party/AL94_USB_Composite/COMPOSITE/Class/COMPOSITE/Src/usbd_composite.c ****   USBD_Update_CDC_RNDIS_DESC(ptr,
 915:Middlewares/Third_Party/AL94_USB_Composite/COMPOSITE/Class/COMPOSITE/Src/usbd_composite.c ****                              interface_no_track,
 916:Middlewares/Third_Party/AL94_USB_Composite/COMPOSITE/Class/COMPOSITE/Src/usbd_composite.c ****                              interface_no_track + 1,
 917:Middlewares/Third_Party/AL94_USB_Composite/COMPOSITE/Class/COMPOSITE/Src/usbd_composite.c ****                              in_ep_track,
 918:Middlewares/Third_Party/AL94_USB_Composite/COMPOSITE/Class/COMPOSITE/Src/usbd_composite.c ****                              in_ep_track + 1,
 919:Middlewares/Third_Party/AL94_USB_Composite/COMPOSITE/Class/COMPOSITE/Src/usbd_composite.c ****                              out_ep_track,
 920:Middlewares/Third_Party/AL94_USB_Composite/COMPOSITE/Class/COMPOSITE/Src/usbd_composite.c ****                              USBD_Track_String_Index);
 921:Middlewares/Third_Party/AL94_USB_Composite/COMPOSITE/Class/COMPOSITE/Src/usbd_composite.c ****   memcpy(USBD_COMPOSITE_HSCfgDesc.USBD_CDC_RNDIS_DESC, ptr + 0x09, len - 0x09);
 922:Middlewares/Third_Party/AL94_USB_Composite/COMPOSITE/Class/COMPOSITE/Src/usbd_composite.c **** 
 923:Middlewares/Third_Party/AL94_USB_Composite/COMPOSITE/Class/COMPOSITE/Src/usbd_composite.c ****   in_ep_track += 2;
 924:Middlewares/Third_Party/AL94_USB_Composite/COMPOSITE/Class/COMPOSITE/Src/usbd_composite.c ****   out_ep_track += 1;
 925:Middlewares/Third_Party/AL94_USB_Composite/COMPOSITE/Class/COMPOSITE/Src/usbd_composite.c ****   interface_no_track += 2;
 926:Middlewares/Third_Party/AL94_USB_Composite/COMPOSITE/Class/COMPOSITE/Src/usbd_composite.c ****   USBD_Track_String_Index += 1;
 927:Middlewares/Third_Party/AL94_USB_Composite/COMPOSITE/Class/COMPOSITE/Src/usbd_composite.c **** #endif
 928:Middlewares/Third_Party/AL94_USB_Composite/COMPOSITE/Class/COMPOSITE/Src/usbd_composite.c **** 
 929:Middlewares/Third_Party/AL94_USB_Composite/COMPOSITE/Class/COMPOSITE/Src/usbd_composite.c **** #if (USBD_USE_CDC_ECM == 1)
 930:Middlewares/Third_Party/AL94_USB_Composite/COMPOSITE/Class/COMPOSITE/Src/usbd_composite.c ****   ptr = USBD_CDC_ECM.GetFSConfigDescriptor(&len);
 931:Middlewares/Third_Party/AL94_USB_Composite/COMPOSITE/Class/COMPOSITE/Src/usbd_composite.c ****   USBD_Update_CDC_ECM_DESC(ptr,
 932:Middlewares/Third_Party/AL94_USB_Composite/COMPOSITE/Class/COMPOSITE/Src/usbd_composite.c ****                            interface_no_track,
 933:Middlewares/Third_Party/AL94_USB_Composite/COMPOSITE/Class/COMPOSITE/Src/usbd_composite.c ****                            interface_no_track + 1,
 934:Middlewares/Third_Party/AL94_USB_Composite/COMPOSITE/Class/COMPOSITE/Src/usbd_composite.c ****                            in_ep_track,
 935:Middlewares/Third_Party/AL94_USB_Composite/COMPOSITE/Class/COMPOSITE/Src/usbd_composite.c ****                            in_ep_track + 1,
 936:Middlewares/Third_Party/AL94_USB_Composite/COMPOSITE/Class/COMPOSITE/Src/usbd_composite.c ****                            out_ep_track,
 937:Middlewares/Third_Party/AL94_USB_Composite/COMPOSITE/Class/COMPOSITE/Src/usbd_composite.c ****                            USBD_Track_String_Index);
 938:Middlewares/Third_Party/AL94_USB_Composite/COMPOSITE/Class/COMPOSITE/Src/usbd_composite.c ****   memcpy(USBD_COMPOSITE_FSCfgDesc.USBD_CDC_ECM_DESC, ptr + 0x09, len - 0x09);
 939:Middlewares/Third_Party/AL94_USB_Composite/COMPOSITE/Class/COMPOSITE/Src/usbd_composite.c **** 
 940:Middlewares/Third_Party/AL94_USB_Composite/COMPOSITE/Class/COMPOSITE/Src/usbd_composite.c ****   ptr = USBD_CDC_ECM.GetHSConfigDescriptor(&len);
 941:Middlewares/Third_Party/AL94_USB_Composite/COMPOSITE/Class/COMPOSITE/Src/usbd_composite.c ****   USBD_Update_CDC_ECM_DESC(ptr,
 942:Middlewares/Third_Party/AL94_USB_Composite/COMPOSITE/Class/COMPOSITE/Src/usbd_composite.c ****                            interface_no_track,
 943:Middlewares/Third_Party/AL94_USB_Composite/COMPOSITE/Class/COMPOSITE/Src/usbd_composite.c ****                            interface_no_track + 1,
 944:Middlewares/Third_Party/AL94_USB_Composite/COMPOSITE/Class/COMPOSITE/Src/usbd_composite.c ****                            in_ep_track,
 945:Middlewares/Third_Party/AL94_USB_Composite/COMPOSITE/Class/COMPOSITE/Src/usbd_composite.c ****                            in_ep_track + 1,
 946:Middlewares/Third_Party/AL94_USB_Composite/COMPOSITE/Class/COMPOSITE/Src/usbd_composite.c ****                            out_ep_track,
 947:Middlewares/Third_Party/AL94_USB_Composite/COMPOSITE/Class/COMPOSITE/Src/usbd_composite.c ****                            USBD_Track_String_Index);
 948:Middlewares/Third_Party/AL94_USB_Composite/COMPOSITE/Class/COMPOSITE/Src/usbd_composite.c ****   memcpy(USBD_COMPOSITE_HSCfgDesc.USBD_CDC_ECM_DESC, ptr + 0x09, len - 0x09);
 949:Middlewares/Third_Party/AL94_USB_Composite/COMPOSITE/Class/COMPOSITE/Src/usbd_composite.c **** 
 950:Middlewares/Third_Party/AL94_USB_Composite/COMPOSITE/Class/COMPOSITE/Src/usbd_composite.c ****   in_ep_track += 2;
 951:Middlewares/Third_Party/AL94_USB_Composite/COMPOSITE/Class/COMPOSITE/Src/usbd_composite.c ****   out_ep_track += 1;
 952:Middlewares/Third_Party/AL94_USB_Composite/COMPOSITE/Class/COMPOSITE/Src/usbd_composite.c ****   interface_no_track += 2;
 953:Middlewares/Third_Party/AL94_USB_Composite/COMPOSITE/Class/COMPOSITE/Src/usbd_composite.c ****   USBD_Track_String_Index += 1;
 954:Middlewares/Third_Party/AL94_USB_Composite/COMPOSITE/Class/COMPOSITE/Src/usbd_composite.c **** #endif
 955:Middlewares/Third_Party/AL94_USB_Composite/COMPOSITE/Class/COMPOSITE/Src/usbd_composite.c **** 
 956:Middlewares/Third_Party/AL94_USB_Composite/COMPOSITE/Class/COMPOSITE/Src/usbd_composite.c **** #if (USBD_USE_HID_MOUSE == 1)
 957:Middlewares/Third_Party/AL94_USB_Composite/COMPOSITE/Class/COMPOSITE/Src/usbd_composite.c ****   ptr = USBD_HID_MOUSE.GetFSConfigDescriptor(&len);
 958:Middlewares/Third_Party/AL94_USB_Composite/COMPOSITE/Class/COMPOSITE/Src/usbd_composite.c ****   USBD_Update_HID_Mouse_DESC(ptr, interface_no_track, in_ep_track, USBD_Track_String_Index);
 959:Middlewares/Third_Party/AL94_USB_Composite/COMPOSITE/Class/COMPOSITE/Src/usbd_composite.c ****   memcpy(USBD_COMPOSITE_FSCfgDesc.USBD_HID_MOUSE_DESC, ptr + 0x09, len - 0x09);
 960:Middlewares/Third_Party/AL94_USB_Composite/COMPOSITE/Class/COMPOSITE/Src/usbd_composite.c **** 
 961:Middlewares/Third_Party/AL94_USB_Composite/COMPOSITE/Class/COMPOSITE/Src/usbd_composite.c ****   ptr = USBD_HID_MOUSE.GetHSConfigDescriptor(&len);
 962:Middlewares/Third_Party/AL94_USB_Composite/COMPOSITE/Class/COMPOSITE/Src/usbd_composite.c ****   USBD_Update_HID_Mouse_DESC(ptr, interface_no_track, in_ep_track, USBD_Track_String_Index);
 963:Middlewares/Third_Party/AL94_USB_Composite/COMPOSITE/Class/COMPOSITE/Src/usbd_composite.c ****   memcpy(USBD_COMPOSITE_HSCfgDesc.USBD_HID_MOUSE_DESC, ptr + 0x09, len - 0x09);
 964:Middlewares/Third_Party/AL94_USB_Composite/COMPOSITE/Class/COMPOSITE/Src/usbd_composite.c **** 
 965:Middlewares/Third_Party/AL94_USB_Composite/COMPOSITE/Class/COMPOSITE/Src/usbd_composite.c ****   in_ep_track += 1;
 966:Middlewares/Third_Party/AL94_USB_Composite/COMPOSITE/Class/COMPOSITE/Src/usbd_composite.c ****   interface_no_track += 1;
 967:Middlewares/Third_Party/AL94_USB_Composite/COMPOSITE/Class/COMPOSITE/Src/usbd_composite.c ****   USBD_Track_String_Index += 1;
 968:Middlewares/Third_Party/AL94_USB_Composite/COMPOSITE/Class/COMPOSITE/Src/usbd_composite.c **** #endif
ARM GAS  C:\Users\Nathan\AppData\Local\Temp\ccbp06cD.s 			page 35


 969:Middlewares/Third_Party/AL94_USB_Composite/COMPOSITE/Class/COMPOSITE/Src/usbd_composite.c **** 
 970:Middlewares/Third_Party/AL94_USB_Composite/COMPOSITE/Class/COMPOSITE/Src/usbd_composite.c **** #if (USBD_USE_HID_KEYBOARD == 1)
 971:Middlewares/Third_Party/AL94_USB_Composite/COMPOSITE/Class/COMPOSITE/Src/usbd_composite.c ****   ptr = USBD_HID_KEYBOARD.GetFSConfigDescriptor(&len);
 957              		.loc 1 971 3 view .LVU223
 958              		.loc 1 971 26 is_stmt 0 view .LVU224
 959 000c DFF89881 		ldr	r8, .L88+8
 960 0010 D8F82C30 		ldr	r3, [r8, #44]
 961              		.loc 1 971 9 view .LVU225
 962 0014 0DF11600 		add	r0, sp, #22
 963 0018 9847     		blx	r3
 964              	.LVL83:
 965 001a 0646     		mov	r6, r0
 966              	.LVL84:
 972:Middlewares/Third_Party/AL94_USB_Composite/COMPOSITE/Class/COMPOSITE/Src/usbd_composite.c ****   USBD_Update_HID_KBD_DESC(ptr, interface_no_track, in_ep_track, USBD_Track_String_Index);
 967              		.loc 1 972 3 is_stmt 1 view .LVU226
 968 001c 604C     		ldr	r4, .L88
 969 001e 2378     		ldrb	r3, [r4]	@ zero_extendqisi2
 970 0020 8122     		movs	r2, #129
 971 0022 2946     		mov	r1, r5
 972 0024 FFF7FEFF 		bl	USBD_Update_HID_KBD_DESC
 973              	.LVL85:
 973:Middlewares/Third_Party/AL94_USB_Composite/COMPOSITE/Class/COMPOSITE/Src/usbd_composite.c ****   memcpy(USBD_COMPOSITE_FSCfgDesc.USBD_HID_KEYBOARD_DESC, ptr + 0x09, len - 0x09);
 974              		.loc 1 973 3 view .LVU227
 975              		.loc 1 973 75 is_stmt 0 view .LVU228
 976 0028 BDF81620 		ldrh	r2, [sp, #22]
 977              		.loc 1 973 3 view .LVU229
 978 002c 5D4F     		ldr	r7, .L88+4
 979 002e 093A     		subs	r2, r2, #9
 980 0030 06F10901 		add	r1, r6, #9
 981 0034 3846     		mov	r0, r7
 982 0036 FFF7FEFF 		bl	memcpy
 983              	.LVL86:
 974:Middlewares/Third_Party/AL94_USB_Composite/COMPOSITE/Class/COMPOSITE/Src/usbd_composite.c **** 
 975:Middlewares/Third_Party/AL94_USB_Composite/COMPOSITE/Class/COMPOSITE/Src/usbd_composite.c ****   ptr = USBD_HID_KEYBOARD.GetHSConfigDescriptor(&len);
 984              		.loc 1 975 3 is_stmt 1 view .LVU230
 985              		.loc 1 975 26 is_stmt 0 view .LVU231
 986 003a D8F82830 		ldr	r3, [r8, #40]
 987              		.loc 1 975 9 view .LVU232
 988 003e 0DF11600 		add	r0, sp, #22
 989 0042 9847     		blx	r3
 990              	.LVL87:
 991 0044 0646     		mov	r6, r0
 992              	.LVL88:
 976:Middlewares/Third_Party/AL94_USB_Composite/COMPOSITE/Class/COMPOSITE/Src/usbd_composite.c ****   USBD_Update_HID_KBD_DESC(ptr, interface_no_track, in_ep_track, USBD_Track_String_Index);
 993              		.loc 1 976 3 is_stmt 1 view .LVU233
 994 0046 2378     		ldrb	r3, [r4]	@ zero_extendqisi2
 995 0048 8122     		movs	r2, #129
 996 004a 2946     		mov	r1, r5
 997 004c FFF7FEFF 		bl	USBD_Update_HID_KBD_DESC
 998              	.LVL89:
 977:Middlewares/Third_Party/AL94_USB_Composite/COMPOSITE/Class/COMPOSITE/Src/usbd_composite.c ****   memcpy(USBD_COMPOSITE_HSCfgDesc.USBD_HID_KEYBOARD_DESC, ptr + 0x09, len - 0x09);
 999              		.loc 1 977 3 view .LVU234
 1000              		.loc 1 977 75 is_stmt 0 view .LVU235
 1001 0050 BDF81620 		ldrh	r2, [sp, #22]
 1002              		.loc 1 977 3 view .LVU236
 1003 0054 DFF85481 		ldr	r8, .L88+12
 1004 0058 093A     		subs	r2, r2, #9
ARM GAS  C:\Users\Nathan\AppData\Local\Temp\ccbp06cD.s 			page 36


 1005 005a 06F10901 		add	r1, r6, #9
 1006 005e 4046     		mov	r0, r8
 1007 0060 FFF7FEFF 		bl	memcpy
 1008              	.LVL90:
 978:Middlewares/Third_Party/AL94_USB_Composite/COMPOSITE/Class/COMPOSITE/Src/usbd_composite.c **** 
 979:Middlewares/Third_Party/AL94_USB_Composite/COMPOSITE/Class/COMPOSITE/Src/usbd_composite.c ****   in_ep_track += 1;
 1009              		.loc 1 979 3 is_stmt 1 view .LVU237
 980:Middlewares/Third_Party/AL94_USB_Composite/COMPOSITE/Class/COMPOSITE/Src/usbd_composite.c ****   interface_no_track += 1;
 1010              		.loc 1 980 3 view .LVU238
 981:Middlewares/Third_Party/AL94_USB_Composite/COMPOSITE/Class/COMPOSITE/Src/usbd_composite.c ****   USBD_Track_String_Index += 1;
 1011              		.loc 1 981 3 view .LVU239
 1012              		.loc 1 981 27 is_stmt 0 view .LVU240
 1013 0064 2378     		ldrb	r3, [r4]	@ zero_extendqisi2
 1014 0066 0133     		adds	r3, r3, #1
 1015 0068 2370     		strb	r3, [r4]
 982:Middlewares/Third_Party/AL94_USB_Composite/COMPOSITE/Class/COMPOSITE/Src/usbd_composite.c **** #endif
 983:Middlewares/Third_Party/AL94_USB_Composite/COMPOSITE/Class/COMPOSITE/Src/usbd_composite.c **** 
 984:Middlewares/Third_Party/AL94_USB_Composite/COMPOSITE/Class/COMPOSITE/Src/usbd_composite.c **** #if (USBD_USE_HID_CUSTOM == 1)
 985:Middlewares/Third_Party/AL94_USB_Composite/COMPOSITE/Class/COMPOSITE/Src/usbd_composite.c ****   ptr = USBD_HID_CUSTOM.GetFSConfigDescriptor(&len);
 1016              		.loc 1 985 3 is_stmt 1 view .LVU241
 1017              		.loc 1 985 24 is_stmt 0 view .LVU242
 1018 006a DFF84491 		ldr	r9, .L88+16
 1019 006e D9F82C30 		ldr	r3, [r9, #44]
 1020              		.loc 1 985 9 view .LVU243
 1021 0072 0DF11600 		add	r0, sp, #22
 1022 0076 9847     		blx	r3
 1023              	.LVL91:
 1024 0078 0646     		mov	r6, r0
 1025              	.LVL92:
 986:Middlewares/Third_Party/AL94_USB_Composite/COMPOSITE/Class/COMPOSITE/Src/usbd_composite.c ****   USBD_Update_HID_Custom_DESC(ptr, interface_no_track, in_ep_track, out_ep_track, USBD_Track_String
 1026              		.loc 1 986 3 is_stmt 1 view .LVU244
 1027 007a 2378     		ldrb	r3, [r4]	@ zero_extendqisi2
 1028 007c 0093     		str	r3, [sp]
 1029 007e 0123     		movs	r3, #1
 1030 0080 8222     		movs	r2, #130
 1031 0082 1946     		mov	r1, r3
 1032 0084 FFF7FEFF 		bl	USBD_Update_HID_Custom_DESC
 1033              	.LVL93:
 987:Middlewares/Third_Party/AL94_USB_Composite/COMPOSITE/Class/COMPOSITE/Src/usbd_composite.c ****   memcpy(USBD_COMPOSITE_FSCfgDesc.USBD_HID_CUSTOM_DESC, ptr + 0x09, len - 0x09);
 1034              		.loc 1 987 3 view .LVU245
 1035              		.loc 1 987 73 is_stmt 0 view .LVU246
 1036 0088 BDF81620 		ldrh	r2, [sp, #22]
 1037              		.loc 1 987 3 view .LVU247
 1038 008c 093A     		subs	r2, r2, #9
 1039 008e 06F10901 		add	r1, r6, #9
 1040 0092 07F11900 		add	r0, r7, #25
 1041 0096 FFF7FEFF 		bl	memcpy
 1042              	.LVL94:
 988:Middlewares/Third_Party/AL94_USB_Composite/COMPOSITE/Class/COMPOSITE/Src/usbd_composite.c **** 
 989:Middlewares/Third_Party/AL94_USB_Composite/COMPOSITE/Class/COMPOSITE/Src/usbd_composite.c ****   ptr = USBD_HID_CUSTOM.GetHSConfigDescriptor(&len);
 1043              		.loc 1 989 3 is_stmt 1 view .LVU248
 1044              		.loc 1 989 24 is_stmt 0 view .LVU249
 1045 009a D9F82830 		ldr	r3, [r9, #40]
 1046              		.loc 1 989 9 view .LVU250
 1047 009e 0DF11600 		add	r0, sp, #22
 1048 00a2 9847     		blx	r3
 1049              	.LVL95:
ARM GAS  C:\Users\Nathan\AppData\Local\Temp\ccbp06cD.s 			page 37


 1050 00a4 0646     		mov	r6, r0
 1051              	.LVL96:
 990:Middlewares/Third_Party/AL94_USB_Composite/COMPOSITE/Class/COMPOSITE/Src/usbd_composite.c ****   USBD_Update_HID_Custom_DESC(ptr, interface_no_track, in_ep_track, out_ep_track, USBD_Track_String
 1052              		.loc 1 990 3 is_stmt 1 view .LVU251
 1053 00a6 2378     		ldrb	r3, [r4]	@ zero_extendqisi2
 1054 00a8 0093     		str	r3, [sp]
 1055 00aa 0123     		movs	r3, #1
 1056 00ac 8222     		movs	r2, #130
 1057 00ae 1946     		mov	r1, r3
 1058 00b0 FFF7FEFF 		bl	USBD_Update_HID_Custom_DESC
 1059              	.LVL97:
 991:Middlewares/Third_Party/AL94_USB_Composite/COMPOSITE/Class/COMPOSITE/Src/usbd_composite.c ****   memcpy(USBD_COMPOSITE_HSCfgDesc.USBD_HID_CUSTOM_DESC, ptr + 0x09, len - 0x09);
 1060              		.loc 1 991 3 view .LVU252
 1061              		.loc 1 991 73 is_stmt 0 view .LVU253
 1062 00b4 BDF81620 		ldrh	r2, [sp, #22]
 1063              		.loc 1 991 3 view .LVU254
 1064 00b8 093A     		subs	r2, r2, #9
 1065 00ba 06F10901 		add	r1, r6, #9
 1066 00be 08F11900 		add	r0, r8, #25
 1067 00c2 FFF7FEFF 		bl	memcpy
 1068              	.LVL98:
 992:Middlewares/Third_Party/AL94_USB_Composite/COMPOSITE/Class/COMPOSITE/Src/usbd_composite.c **** 
 993:Middlewares/Third_Party/AL94_USB_Composite/COMPOSITE/Class/COMPOSITE/Src/usbd_composite.c ****   in_ep_track += 1;
 1069              		.loc 1 993 3 is_stmt 1 view .LVU255
 994:Middlewares/Third_Party/AL94_USB_Composite/COMPOSITE/Class/COMPOSITE/Src/usbd_composite.c ****   out_ep_track += 1;
 1070              		.loc 1 994 3 view .LVU256
 995:Middlewares/Third_Party/AL94_USB_Composite/COMPOSITE/Class/COMPOSITE/Src/usbd_composite.c ****   interface_no_track += 1;
 1071              		.loc 1 995 3 view .LVU257
 996:Middlewares/Third_Party/AL94_USB_Composite/COMPOSITE/Class/COMPOSITE/Src/usbd_composite.c ****   USBD_Track_String_Index += 1;
 1072              		.loc 1 996 3 view .LVU258
 1073              		.loc 1 996 27 is_stmt 0 view .LVU259
 1074 00c6 2378     		ldrb	r3, [r4]	@ zero_extendqisi2
 1075 00c8 0133     		adds	r3, r3, #1
 1076 00ca 2370     		strb	r3, [r4]
 997:Middlewares/Third_Party/AL94_USB_Composite/COMPOSITE/Class/COMPOSITE/Src/usbd_composite.c **** #endif
 998:Middlewares/Third_Party/AL94_USB_Composite/COMPOSITE/Class/COMPOSITE/Src/usbd_composite.c **** 
 999:Middlewares/Third_Party/AL94_USB_Composite/COMPOSITE/Class/COMPOSITE/Src/usbd_composite.c **** #if (USBD_USE_UAC_MIC == 1)
1000:Middlewares/Third_Party/AL94_USB_Composite/COMPOSITE/Class/COMPOSITE/Src/usbd_composite.c ****   ptr = USBD_AUDIO_MIC.GetFSConfigDescriptor(&len);
1001:Middlewares/Third_Party/AL94_USB_Composite/COMPOSITE/Class/COMPOSITE/Src/usbd_composite.c ****   USBD_Update_Audio_MIC_DESC(ptr,
1002:Middlewares/Third_Party/AL94_USB_Composite/COMPOSITE/Class/COMPOSITE/Src/usbd_composite.c ****                              interface_no_track,
1003:Middlewares/Third_Party/AL94_USB_Composite/COMPOSITE/Class/COMPOSITE/Src/usbd_composite.c ****                              interface_no_track + 1,
1004:Middlewares/Third_Party/AL94_USB_Composite/COMPOSITE/Class/COMPOSITE/Src/usbd_composite.c ****                              in_ep_track,
1005:Middlewares/Third_Party/AL94_USB_Composite/COMPOSITE/Class/COMPOSITE/Src/usbd_composite.c ****                              USBD_Track_String_Index);
1006:Middlewares/Third_Party/AL94_USB_Composite/COMPOSITE/Class/COMPOSITE/Src/usbd_composite.c ****   memcpy(USBD_COMPOSITE_FSCfgDesc.USBD_UAC_MIC_DESC, ptr + 0x09, len - 0x09);
1007:Middlewares/Third_Party/AL94_USB_Composite/COMPOSITE/Class/COMPOSITE/Src/usbd_composite.c **** 
1008:Middlewares/Third_Party/AL94_USB_Composite/COMPOSITE/Class/COMPOSITE/Src/usbd_composite.c ****   ptr = USBD_AUDIO_MIC.GetHSConfigDescriptor(&len);
1009:Middlewares/Third_Party/AL94_USB_Composite/COMPOSITE/Class/COMPOSITE/Src/usbd_composite.c ****   USBD_Update_Audio_MIC_DESC(ptr,
1010:Middlewares/Third_Party/AL94_USB_Composite/COMPOSITE/Class/COMPOSITE/Src/usbd_composite.c ****                              interface_no_track,
1011:Middlewares/Third_Party/AL94_USB_Composite/COMPOSITE/Class/COMPOSITE/Src/usbd_composite.c ****                              interface_no_track + 1,
1012:Middlewares/Third_Party/AL94_USB_Composite/COMPOSITE/Class/COMPOSITE/Src/usbd_composite.c ****                              in_ep_track,
1013:Middlewares/Third_Party/AL94_USB_Composite/COMPOSITE/Class/COMPOSITE/Src/usbd_composite.c ****                              USBD_Track_String_Index);
1014:Middlewares/Third_Party/AL94_USB_Composite/COMPOSITE/Class/COMPOSITE/Src/usbd_composite.c **** 
1015:Middlewares/Third_Party/AL94_USB_Composite/COMPOSITE/Class/COMPOSITE/Src/usbd_composite.c ****   memcpy(USBD_COMPOSITE_HSCfgDesc.USBD_UAC_MIC_DESC, ptr + 0x09, len - 0x09);
1016:Middlewares/Third_Party/AL94_USB_Composite/COMPOSITE/Class/COMPOSITE/Src/usbd_composite.c ****   in_ep_track += 1;
1017:Middlewares/Third_Party/AL94_USB_Composite/COMPOSITE/Class/COMPOSITE/Src/usbd_composite.c ****   interface_no_track += 2;
1018:Middlewares/Third_Party/AL94_USB_Composite/COMPOSITE/Class/COMPOSITE/Src/usbd_composite.c ****   USBD_Track_String_Index += 1;
1019:Middlewares/Third_Party/AL94_USB_Composite/COMPOSITE/Class/COMPOSITE/Src/usbd_composite.c **** #endif
ARM GAS  C:\Users\Nathan\AppData\Local\Temp\ccbp06cD.s 			page 38


1020:Middlewares/Third_Party/AL94_USB_Composite/COMPOSITE/Class/COMPOSITE/Src/usbd_composite.c **** 
1021:Middlewares/Third_Party/AL94_USB_Composite/COMPOSITE/Class/COMPOSITE/Src/usbd_composite.c **** #if (USBD_USE_UAC_SPKR == 1)
1022:Middlewares/Third_Party/AL94_USB_Composite/COMPOSITE/Class/COMPOSITE/Src/usbd_composite.c ****   ptr = USBD_AUDIO_SPKR.GetFSConfigDescriptor(&len);
1023:Middlewares/Third_Party/AL94_USB_Composite/COMPOSITE/Class/COMPOSITE/Src/usbd_composite.c ****   USBD_Update_Audio_SPKR_DESC(ptr, interface_no_track, interface_no_track + 1, out_ep_track, USBD_T
1024:Middlewares/Third_Party/AL94_USB_Composite/COMPOSITE/Class/COMPOSITE/Src/usbd_composite.c ****   memcpy(USBD_COMPOSITE_FSCfgDesc.USBD_AUDIO_SPKR_DESC, ptr + 0x09, len - 0x09);
1025:Middlewares/Third_Party/AL94_USB_Composite/COMPOSITE/Class/COMPOSITE/Src/usbd_composite.c **** 
1026:Middlewares/Third_Party/AL94_USB_Composite/COMPOSITE/Class/COMPOSITE/Src/usbd_composite.c ****   ptr = USBD_AUDIO_SPKR.GetHSConfigDescriptor(&len);
1027:Middlewares/Third_Party/AL94_USB_Composite/COMPOSITE/Class/COMPOSITE/Src/usbd_composite.c ****   USBD_Update_Audio_SPKR_DESC(ptr, interface_no_track, interface_no_track + 1, out_ep_track, USBD_T
1028:Middlewares/Third_Party/AL94_USB_Composite/COMPOSITE/Class/COMPOSITE/Src/usbd_composite.c ****   memcpy(USBD_COMPOSITE_HSCfgDesc.USBD_AUDIO_SPKR_DESC, ptr + 0x09, len - 0x09);
1029:Middlewares/Third_Party/AL94_USB_Composite/COMPOSITE/Class/COMPOSITE/Src/usbd_composite.c **** 
1030:Middlewares/Third_Party/AL94_USB_Composite/COMPOSITE/Class/COMPOSITE/Src/usbd_composite.c ****   out_ep_track += 1;
1031:Middlewares/Third_Party/AL94_USB_Composite/COMPOSITE/Class/COMPOSITE/Src/usbd_composite.c ****   interface_no_track += 2;
1032:Middlewares/Third_Party/AL94_USB_Composite/COMPOSITE/Class/COMPOSITE/Src/usbd_composite.c ****   USBD_Track_String_Index += 1;
1033:Middlewares/Third_Party/AL94_USB_Composite/COMPOSITE/Class/COMPOSITE/Src/usbd_composite.c **** #endif
1034:Middlewares/Third_Party/AL94_USB_Composite/COMPOSITE/Class/COMPOSITE/Src/usbd_composite.c **** 
1035:Middlewares/Third_Party/AL94_USB_Composite/COMPOSITE/Class/COMPOSITE/Src/usbd_composite.c **** #if (USBD_USE_UVC == 1)
1036:Middlewares/Third_Party/AL94_USB_Composite/COMPOSITE/Class/COMPOSITE/Src/usbd_composite.c ****   ptr = USBD_VIDEO.GetFSConfigDescriptor(&len);
1037:Middlewares/Third_Party/AL94_USB_Composite/COMPOSITE/Class/COMPOSITE/Src/usbd_composite.c ****   USBD_Update_UVC_DESC(ptr, interface_no_track, interface_no_track + 1, in_ep_track, USBD_Track_Str
1038:Middlewares/Third_Party/AL94_USB_Composite/COMPOSITE/Class/COMPOSITE/Src/usbd_composite.c ****   memcpy(USBD_COMPOSITE_FSCfgDesc.USBD_UVC_DESC, ptr + 0x09, len - 0x09);
1039:Middlewares/Third_Party/AL94_USB_Composite/COMPOSITE/Class/COMPOSITE/Src/usbd_composite.c **** 
1040:Middlewares/Third_Party/AL94_USB_Composite/COMPOSITE/Class/COMPOSITE/Src/usbd_composite.c ****   ptr = USBD_VIDEO.GetHSConfigDescriptor(&len);
1041:Middlewares/Third_Party/AL94_USB_Composite/COMPOSITE/Class/COMPOSITE/Src/usbd_composite.c ****   USBD_Update_UVC_DESC(ptr, interface_no_track, interface_no_track + 1, in_ep_track, USBD_Track_Str
1042:Middlewares/Third_Party/AL94_USB_Composite/COMPOSITE/Class/COMPOSITE/Src/usbd_composite.c ****   memcpy(USBD_COMPOSITE_HSCfgDesc.USBD_UVC_DESC, ptr + 0x09, len - 0x09);
1043:Middlewares/Third_Party/AL94_USB_Composite/COMPOSITE/Class/COMPOSITE/Src/usbd_composite.c **** 
1044:Middlewares/Third_Party/AL94_USB_Composite/COMPOSITE/Class/COMPOSITE/Src/usbd_composite.c ****   in_ep_track += 1;
1045:Middlewares/Third_Party/AL94_USB_Composite/COMPOSITE/Class/COMPOSITE/Src/usbd_composite.c ****   interface_no_track += 2;
1046:Middlewares/Third_Party/AL94_USB_Composite/COMPOSITE/Class/COMPOSITE/Src/usbd_composite.c ****   USBD_Track_String_Index += 1;
1047:Middlewares/Third_Party/AL94_USB_Composite/COMPOSITE/Class/COMPOSITE/Src/usbd_composite.c **** #endif
1048:Middlewares/Third_Party/AL94_USB_Composite/COMPOSITE/Class/COMPOSITE/Src/usbd_composite.c **** 
1049:Middlewares/Third_Party/AL94_USB_Composite/COMPOSITE/Class/COMPOSITE/Src/usbd_composite.c **** #if (USBD_USE_MSC == 1)
1050:Middlewares/Third_Party/AL94_USB_Composite/COMPOSITE/Class/COMPOSITE/Src/usbd_composite.c ****   ptr = USBD_MSC.GetFSConfigDescriptor(&len);
1051:Middlewares/Third_Party/AL94_USB_Composite/COMPOSITE/Class/COMPOSITE/Src/usbd_composite.c ****   USBD_Update_MSC_DESC(ptr, interface_no_track, in_ep_track, out_ep_track, USBD_Track_String_Index)
1052:Middlewares/Third_Party/AL94_USB_Composite/COMPOSITE/Class/COMPOSITE/Src/usbd_composite.c ****   memcpy(USBD_COMPOSITE_FSCfgDesc.USBD_MSC_DESC, ptr + 0x09, len - 0x09);
1053:Middlewares/Third_Party/AL94_USB_Composite/COMPOSITE/Class/COMPOSITE/Src/usbd_composite.c **** 
1054:Middlewares/Third_Party/AL94_USB_Composite/COMPOSITE/Class/COMPOSITE/Src/usbd_composite.c ****   ptr = USBD_MSC.GetHSConfigDescriptor(&len);
1055:Middlewares/Third_Party/AL94_USB_Composite/COMPOSITE/Class/COMPOSITE/Src/usbd_composite.c ****   USBD_Update_MSC_DESC(ptr, interface_no_track, in_ep_track, out_ep_track, USBD_Track_String_Index)
1056:Middlewares/Third_Party/AL94_USB_Composite/COMPOSITE/Class/COMPOSITE/Src/usbd_composite.c ****   memcpy(USBD_COMPOSITE_HSCfgDesc.USBD_MSC_DESC, ptr + 0x09, len - 0x09);
1057:Middlewares/Third_Party/AL94_USB_Composite/COMPOSITE/Class/COMPOSITE/Src/usbd_composite.c **** 
1058:Middlewares/Third_Party/AL94_USB_Composite/COMPOSITE/Class/COMPOSITE/Src/usbd_composite.c ****   in_ep_track += 1;
1059:Middlewares/Third_Party/AL94_USB_Composite/COMPOSITE/Class/COMPOSITE/Src/usbd_composite.c ****   out_ep_track += 1;
1060:Middlewares/Third_Party/AL94_USB_Composite/COMPOSITE/Class/COMPOSITE/Src/usbd_composite.c ****   interface_no_track += 1;
1061:Middlewares/Third_Party/AL94_USB_Composite/COMPOSITE/Class/COMPOSITE/Src/usbd_composite.c ****   USBD_Track_String_Index += 1;
1062:Middlewares/Third_Party/AL94_USB_Composite/COMPOSITE/Class/COMPOSITE/Src/usbd_composite.c **** #endif
1063:Middlewares/Third_Party/AL94_USB_Composite/COMPOSITE/Class/COMPOSITE/Src/usbd_composite.c **** 
1064:Middlewares/Third_Party/AL94_USB_Composite/COMPOSITE/Class/COMPOSITE/Src/usbd_composite.c **** #if (USBD_USE_DFU == 1)
1065:Middlewares/Third_Party/AL94_USB_Composite/COMPOSITE/Class/COMPOSITE/Src/usbd_composite.c ****   ptr = USBD_DFU.GetFSConfigDescriptor(&len);
1066:Middlewares/Third_Party/AL94_USB_Composite/COMPOSITE/Class/COMPOSITE/Src/usbd_composite.c ****   USBD_Update_DFU_DESC(ptr, interface_no_track, USBD_Track_String_Index);
1067:Middlewares/Third_Party/AL94_USB_Composite/COMPOSITE/Class/COMPOSITE/Src/usbd_composite.c ****   memcpy(USBD_COMPOSITE_FSCfgDesc.USBD_DFU_DESC, ptr + 0x09, len - 0x09);
1068:Middlewares/Third_Party/AL94_USB_Composite/COMPOSITE/Class/COMPOSITE/Src/usbd_composite.c **** 
1069:Middlewares/Third_Party/AL94_USB_Composite/COMPOSITE/Class/COMPOSITE/Src/usbd_composite.c ****   ptr = USBD_DFU.GetHSConfigDescriptor(&len);
1070:Middlewares/Third_Party/AL94_USB_Composite/COMPOSITE/Class/COMPOSITE/Src/usbd_composite.c ****   USBD_Update_DFU_DESC(ptr, interface_no_track, USBD_Track_String_Index);
1071:Middlewares/Third_Party/AL94_USB_Composite/COMPOSITE/Class/COMPOSITE/Src/usbd_composite.c ****   memcpy(USBD_COMPOSITE_HSCfgDesc.USBD_DFU_DESC, ptr + 0x09, len - 0x09);
1072:Middlewares/Third_Party/AL94_USB_Composite/COMPOSITE/Class/COMPOSITE/Src/usbd_composite.c **** 
1073:Middlewares/Third_Party/AL94_USB_Composite/COMPOSITE/Class/COMPOSITE/Src/usbd_composite.c ****   interface_no_track += USBD_DFU_MAX_ITF_NUM;
1074:Middlewares/Third_Party/AL94_USB_Composite/COMPOSITE/Class/COMPOSITE/Src/usbd_composite.c ****   USBD_Track_String_Index += USBD_DFU_MAX_ITF_NUM;
1075:Middlewares/Third_Party/AL94_USB_Composite/COMPOSITE/Class/COMPOSITE/Src/usbd_composite.c **** #endif
1076:Middlewares/Third_Party/AL94_USB_Composite/COMPOSITE/Class/COMPOSITE/Src/usbd_composite.c **** 
ARM GAS  C:\Users\Nathan\AppData\Local\Temp\ccbp06cD.s 			page 39


1077:Middlewares/Third_Party/AL94_USB_Composite/COMPOSITE/Class/COMPOSITE/Src/usbd_composite.c **** #if (USBD_USE_PRNTR == 1)
1078:Middlewares/Third_Party/AL94_USB_Composite/COMPOSITE/Class/COMPOSITE/Src/usbd_composite.c ****   ptr = USBD_PRNT.GetFSConfigDescriptor(&len);
1079:Middlewares/Third_Party/AL94_USB_Composite/COMPOSITE/Class/COMPOSITE/Src/usbd_composite.c ****   USBD_Update_PRNT_DESC(ptr, interface_no_track, in_ep_track, out_ep_track, USBD_Track_String_Index
1080:Middlewares/Third_Party/AL94_USB_Composite/COMPOSITE/Class/COMPOSITE/Src/usbd_composite.c ****   memcpy(USBD_COMPOSITE_FSCfgDesc.USBD_PRNTR_DESC, ptr + 0x09, len - 0x09);
1081:Middlewares/Third_Party/AL94_USB_Composite/COMPOSITE/Class/COMPOSITE/Src/usbd_composite.c **** 
1082:Middlewares/Third_Party/AL94_USB_Composite/COMPOSITE/Class/COMPOSITE/Src/usbd_composite.c ****   ptr = USBD_PRNT.GetHSConfigDescriptor(&len);
1083:Middlewares/Third_Party/AL94_USB_Composite/COMPOSITE/Class/COMPOSITE/Src/usbd_composite.c ****   USBD_Update_PRNT_DESC(ptr, interface_no_track, in_ep_track, out_ep_track, USBD_Track_String_Index
1084:Middlewares/Third_Party/AL94_USB_Composite/COMPOSITE/Class/COMPOSITE/Src/usbd_composite.c ****   memcpy(USBD_COMPOSITE_HSCfgDesc.USBD_PRNTR_DESC, ptr + 0x09, len - 0x09);
1085:Middlewares/Third_Party/AL94_USB_Composite/COMPOSITE/Class/COMPOSITE/Src/usbd_composite.c ****   
1086:Middlewares/Third_Party/AL94_USB_Composite/COMPOSITE/Class/COMPOSITE/Src/usbd_composite.c ****   in_ep_track += 1;
1087:Middlewares/Third_Party/AL94_USB_Composite/COMPOSITE/Class/COMPOSITE/Src/usbd_composite.c ****   out_ep_track += 1;
1088:Middlewares/Third_Party/AL94_USB_Composite/COMPOSITE/Class/COMPOSITE/Src/usbd_composite.c ****   interface_no_track += 1;
1089:Middlewares/Third_Party/AL94_USB_Composite/COMPOSITE/Class/COMPOSITE/Src/usbd_composite.c ****   USBD_Track_String_Index += 1;
1090:Middlewares/Third_Party/AL94_USB_Composite/COMPOSITE/Class/COMPOSITE/Src/usbd_composite.c **** #endif
1091:Middlewares/Third_Party/AL94_USB_Composite/COMPOSITE/Class/COMPOSITE/Src/usbd_composite.c **** 
1092:Middlewares/Third_Party/AL94_USB_Composite/COMPOSITE/Class/COMPOSITE/Src/usbd_composite.c **** #if (USBD_USE_CDC_ACM == 1)
1093:Middlewares/Third_Party/AL94_USB_Composite/COMPOSITE/Class/COMPOSITE/Src/usbd_composite.c ****   ptr = USBD_CDC_ACM.GetFSConfigDescriptor(&len);
 1077              		.loc 1 1093 3 is_stmt 1 view .LVU260
 1078              		.loc 1 1093 21 is_stmt 0 view .LVU261
 1079 00cc DFF8E4B0 		ldr	fp, .L88+20
 1080 00d0 DBF82C30 		ldr	r3, [fp, #44]
 1081              		.loc 1 1093 9 view .LVU262
 1082 00d4 0DF11600 		add	r0, sp, #22
 1083 00d8 9847     		blx	r3
 1084              	.LVL99:
 1085 00da 8146     		mov	r9, r0
 1086              	.LVL100:
1094:Middlewares/Third_Party/AL94_USB_Composite/COMPOSITE/Class/COMPOSITE/Src/usbd_composite.c ****   USBD_Update_CDC_ACM_DESC(ptr,
 1087              		.loc 1 1094 3 is_stmt 1 view .LVU263
 1088 00dc 2378     		ldrb	r3, [r4]	@ zero_extendqisi2
 1089 00de 0293     		str	r3, [sp, #8]
 1090 00e0 0226     		movs	r6, #2
 1091 00e2 0196     		str	r6, [sp, #4]
 1092 00e4 4FF0840A 		mov	r10, #132
 1093 00e8 CDF800A0 		str	r10, [sp]
 1094 00ec 8323     		movs	r3, #131
 1095 00ee 0322     		movs	r2, #3
 1096 00f0 3146     		mov	r1, r6
 1097 00f2 FFF7FEFF 		bl	USBD_Update_CDC_ACM_DESC
 1098              	.LVL101:
1095:Middlewares/Third_Party/AL94_USB_Composite/COMPOSITE/Class/COMPOSITE/Src/usbd_composite.c ****                            interface_no_track,
1096:Middlewares/Third_Party/AL94_USB_Composite/COMPOSITE/Class/COMPOSITE/Src/usbd_composite.c ****                            interface_no_track + 1,
1097:Middlewares/Third_Party/AL94_USB_Composite/COMPOSITE/Class/COMPOSITE/Src/usbd_composite.c ****                            in_ep_track,
1098:Middlewares/Third_Party/AL94_USB_Composite/COMPOSITE/Class/COMPOSITE/Src/usbd_composite.c ****                            in_ep_track + 1,
1099:Middlewares/Third_Party/AL94_USB_Composite/COMPOSITE/Class/COMPOSITE/Src/usbd_composite.c ****                            out_ep_track,
1100:Middlewares/Third_Party/AL94_USB_Composite/COMPOSITE/Class/COMPOSITE/Src/usbd_composite.c ****                            USBD_Track_String_Index);
1101:Middlewares/Third_Party/AL94_USB_Composite/COMPOSITE/Class/COMPOSITE/Src/usbd_composite.c ****   memcpy(USBD_COMPOSITE_FSCfgDesc.USBD_CDC_ACM_DESC, ptr + 0x09, len - 0x09);
 1099              		.loc 1 1101 3 view .LVU264
 1100              		.loc 1 1101 70 is_stmt 0 view .LVU265
 1101 00f6 BDF81620 		ldrh	r2, [sp, #22]
 1102              		.loc 1 1101 3 view .LVU266
 1103 00fa 093A     		subs	r2, r2, #9
 1104 00fc 09F10901 		add	r1, r9, #9
 1105 0100 07F13900 		add	r0, r7, #57
 1106 0104 FFF7FEFF 		bl	memcpy
 1107              	.LVL102:
1102:Middlewares/Third_Party/AL94_USB_Composite/COMPOSITE/Class/COMPOSITE/Src/usbd_composite.c **** 
ARM GAS  C:\Users\Nathan\AppData\Local\Temp\ccbp06cD.s 			page 40


1103:Middlewares/Third_Party/AL94_USB_Composite/COMPOSITE/Class/COMPOSITE/Src/usbd_composite.c ****   ptr = USBD_CDC_ACM.GetHSConfigDescriptor(&len);
 1108              		.loc 1 1103 3 is_stmt 1 view .LVU267
 1109              		.loc 1 1103 21 is_stmt 0 view .LVU268
 1110 0108 DBF82830 		ldr	r3, [fp, #40]
 1111              		.loc 1 1103 9 view .LVU269
 1112 010c 0DF11600 		add	r0, sp, #22
 1113 0110 9847     		blx	r3
 1114              	.LVL103:
 1115 0112 8146     		mov	r9, r0
 1116              	.LVL104:
1104:Middlewares/Third_Party/AL94_USB_Composite/COMPOSITE/Class/COMPOSITE/Src/usbd_composite.c ****   USBD_Update_CDC_ACM_DESC(ptr,
 1117              		.loc 1 1104 3 is_stmt 1 view .LVU270
 1118 0114 2378     		ldrb	r3, [r4]	@ zero_extendqisi2
 1119 0116 0293     		str	r3, [sp, #8]
 1120 0118 0196     		str	r6, [sp, #4]
 1121 011a CDF800A0 		str	r10, [sp]
 1122 011e 8323     		movs	r3, #131
 1123 0120 0322     		movs	r2, #3
 1124 0122 3146     		mov	r1, r6
 1125 0124 FFF7FEFF 		bl	USBD_Update_CDC_ACM_DESC
 1126              	.LVL105:
1105:Middlewares/Third_Party/AL94_USB_Composite/COMPOSITE/Class/COMPOSITE/Src/usbd_composite.c ****                            interface_no_track,
1106:Middlewares/Third_Party/AL94_USB_Composite/COMPOSITE/Class/COMPOSITE/Src/usbd_composite.c ****                            interface_no_track + 1,
1107:Middlewares/Third_Party/AL94_USB_Composite/COMPOSITE/Class/COMPOSITE/Src/usbd_composite.c ****                            in_ep_track,
1108:Middlewares/Third_Party/AL94_USB_Composite/COMPOSITE/Class/COMPOSITE/Src/usbd_composite.c ****                            in_ep_track + 1,
1109:Middlewares/Third_Party/AL94_USB_Composite/COMPOSITE/Class/COMPOSITE/Src/usbd_composite.c ****                            out_ep_track,
1110:Middlewares/Third_Party/AL94_USB_Composite/COMPOSITE/Class/COMPOSITE/Src/usbd_composite.c ****                            USBD_Track_String_Index);
1111:Middlewares/Third_Party/AL94_USB_Composite/COMPOSITE/Class/COMPOSITE/Src/usbd_composite.c ****   memcpy(USBD_COMPOSITE_HSCfgDesc.USBD_CDC_ACM_DESC, ptr + 0x09, len - 0x09);
 1127              		.loc 1 1111 3 view .LVU271
 1128              		.loc 1 1111 70 is_stmt 0 view .LVU272
 1129 0128 BDF81620 		ldrh	r2, [sp, #22]
 1130              		.loc 1 1111 3 view .LVU273
 1131 012c 093A     		subs	r2, r2, #9
 1132 012e 09F10901 		add	r1, r9, #9
 1133 0132 08F13900 		add	r0, r8, #57
 1134 0136 FFF7FEFF 		bl	memcpy
 1135              	.LVL106:
1112:Middlewares/Third_Party/AL94_USB_Composite/COMPOSITE/Class/COMPOSITE/Src/usbd_composite.c **** 
1113:Middlewares/Third_Party/AL94_USB_Composite/COMPOSITE/Class/COMPOSITE/Src/usbd_composite.c ****   in_ep_track += 2 * USBD_CDC_ACM_COUNT;
 1136              		.loc 1 1113 3 is_stmt 1 view .LVU274
1114:Middlewares/Third_Party/AL94_USB_Composite/COMPOSITE/Class/COMPOSITE/Src/usbd_composite.c ****   out_ep_track += 1 * USBD_CDC_ACM_COUNT;
 1137              		.loc 1 1114 3 view .LVU275
1115:Middlewares/Third_Party/AL94_USB_Composite/COMPOSITE/Class/COMPOSITE/Src/usbd_composite.c ****   interface_no_track += 2 * USBD_CDC_ACM_COUNT;
 1138              		.loc 1 1115 3 view .LVU276
1116:Middlewares/Third_Party/AL94_USB_Composite/COMPOSITE/Class/COMPOSITE/Src/usbd_composite.c ****   USBD_Track_String_Index += USBD_CDC_ACM_COUNT;
 1139              		.loc 1 1116 3 view .LVU277
 1140              		.loc 1 1116 27 is_stmt 0 view .LVU278
 1141 013a 2378     		ldrb	r3, [r4]	@ zero_extendqisi2
 1142 013c 3344     		add	r3, r3, r6
 1143 013e 2370     		strb	r3, [r4]
1117:Middlewares/Third_Party/AL94_USB_Composite/COMPOSITE/Class/COMPOSITE/Src/usbd_composite.c **** #endif
1118:Middlewares/Third_Party/AL94_USB_Composite/COMPOSITE/Class/COMPOSITE/Src/usbd_composite.c **** 
1119:Middlewares/Third_Party/AL94_USB_Composite/COMPOSITE/Class/COMPOSITE/Src/usbd_composite.c ****   uint16_t CFG_SIZE = sizeof(USBD_COMPOSITE_CFG_DESC_t);
 1144              		.loc 1 1119 3 is_stmt 1 view .LVU279
 1145              	.LVL107:
1120:Middlewares/Third_Party/AL94_USB_Composite/COMPOSITE/Class/COMPOSITE/Src/usbd_composite.c ****   ptr = USBD_COMPOSITE_HSCfgDesc.CONFIG_DESC;
 1146              		.loc 1 1120 3 view .LVU280
ARM GAS  C:\Users\Nathan\AppData\Local\Temp\ccbp06cD.s 			page 41


1121:Middlewares/Third_Party/AL94_USB_Composite/COMPOSITE/Class/COMPOSITE/Src/usbd_composite.c ****   /* Configuration Descriptor */
1122:Middlewares/Third_Party/AL94_USB_Composite/COMPOSITE/Class/COMPOSITE/Src/usbd_composite.c ****   ptr[0] = 0x09;                        /* bLength: Configuration Descriptor size */
 1147              		.loc 1 1122 3 view .LVU281
 1148              		.loc 1 1122 10 is_stmt 0 view .LVU282
 1149 0140 4FF0090E 		mov	lr, #9
 1150 0144 08F809EC 		strb	lr, [r8, #-9]
1123:Middlewares/Third_Party/AL94_USB_Composite/COMPOSITE/Class/COMPOSITE/Src/usbd_composite.c ****   ptr[1] = USB_DESC_TYPE_CONFIGURATION; /* bDescriptorType: Configuration */
 1151              		.loc 1 1123 3 is_stmt 1 view .LVU283
 1152              		.loc 1 1123 10 is_stmt 0 view .LVU284
 1153 0148 08F8086C 		strb	r6, [r8, #-8]
1124:Middlewares/Third_Party/AL94_USB_Composite/COMPOSITE/Class/COMPOSITE/Src/usbd_composite.c ****   ptr[2] = LOBYTE(CFG_SIZE);            /* wTotalLength:no of returned bytes */
 1154              		.loc 1 1124 3 is_stmt 1 view .LVU285
 1155              		.loc 1 1124 10 is_stmt 0 view .LVU286
 1156 014c 4FF0C60C 		mov	ip, #198
 1157 0150 08F807CC 		strb	ip, [r8, #-7]
1125:Middlewares/Third_Party/AL94_USB_Composite/COMPOSITE/Class/COMPOSITE/Src/usbd_composite.c ****   ptr[3] = HIBYTE(CFG_SIZE);
 1158              		.loc 1 1125 3 is_stmt 1 view .LVU287
 1159              		.loc 1 1125 10 is_stmt 0 view .LVU288
 1160 0154 08F8065C 		strb	r5, [r8, #-6]
1126:Middlewares/Third_Party/AL94_USB_Composite/COMPOSITE/Class/COMPOSITE/Src/usbd_composite.c ****   ptr[4] = interface_no_track; /* bNumInterfaces: 2 interface */
 1161              		.loc 1 1126 3 is_stmt 1 view .LVU289
 1162              		.loc 1 1126 10 is_stmt 0 view .LVU290
 1163 0158 0624     		movs	r4, #6
 1164 015a 08F8054C 		strb	r4, [r8, #-5]
1127:Middlewares/Third_Party/AL94_USB_Composite/COMPOSITE/Class/COMPOSITE/Src/usbd_composite.c ****   ptr[5] = 0x01;               /* bConfigurationValue: Configuration value */
 1165              		.loc 1 1127 3 is_stmt 1 view .LVU291
 1166              		.loc 1 1127 10 is_stmt 0 view .LVU292
 1167 015e 0120     		movs	r0, #1
 1168 0160 08F8040C 		strb	r0, [r8, #-4]
1128:Middlewares/Third_Party/AL94_USB_Composite/COMPOSITE/Class/COMPOSITE/Src/usbd_composite.c ****   ptr[6] = 0x00;               /* iConfiguration: Index of string descriptor describing the configu
 1169              		.loc 1 1128 3 is_stmt 1 view .LVU293
 1170              		.loc 1 1128 10 is_stmt 0 view .LVU294
 1171 0164 08F8035C 		strb	r5, [r8, #-3]
1129:Middlewares/Third_Party/AL94_USB_Composite/COMPOSITE/Class/COMPOSITE/Src/usbd_composite.c **** #if (USBD_SELF_POWERED == 1U)
1130:Middlewares/Third_Party/AL94_USB_Composite/COMPOSITE/Class/COMPOSITE/Src/usbd_composite.c ****   ptr[7] = 0xC0; /* bmAttributes: Bus Powered according to user configuration */
 1172              		.loc 1 1130 3 is_stmt 1 view .LVU295
 1173              		.loc 1 1130 10 is_stmt 0 view .LVU296
 1174 0168 C021     		movs	r1, #192
 1175 016a 08F8021C 		strb	r1, [r8, #-2]
1131:Middlewares/Third_Party/AL94_USB_Composite/COMPOSITE/Class/COMPOSITE/Src/usbd_composite.c **** #else
1132:Middlewares/Third_Party/AL94_USB_Composite/COMPOSITE/Class/COMPOSITE/Src/usbd_composite.c ****   ptr[7] = 0x80; /* bmAttributes: Bus Powered according to user configuration */
1133:Middlewares/Third_Party/AL94_USB_Composite/COMPOSITE/Class/COMPOSITE/Src/usbd_composite.c **** #endif
1134:Middlewares/Third_Party/AL94_USB_Composite/COMPOSITE/Class/COMPOSITE/Src/usbd_composite.c ****   ptr[8] = USBD_MAX_POWER; /* MaxPower 100 mA */
 1176              		.loc 1 1134 3 is_stmt 1 view .LVU297
 1177              		.loc 1 1134 10 is_stmt 0 view .LVU298
 1178 016e 3222     		movs	r2, #50
 1179 0170 08F8012C 		strb	r2, [r8, #-1]
1135:Middlewares/Third_Party/AL94_USB_Composite/COMPOSITE/Class/COMPOSITE/Src/usbd_composite.c **** 
1136:Middlewares/Third_Party/AL94_USB_Composite/COMPOSITE/Class/COMPOSITE/Src/usbd_composite.c ****   ptr = USBD_COMPOSITE_FSCfgDesc.CONFIG_DESC;
 1180              		.loc 1 1136 3 is_stmt 1 view .LVU299
 1181              	.LVL108:
1137:Middlewares/Third_Party/AL94_USB_Composite/COMPOSITE/Class/COMPOSITE/Src/usbd_composite.c ****   /* Configuration Descriptor */
1138:Middlewares/Third_Party/AL94_USB_Composite/COMPOSITE/Class/COMPOSITE/Src/usbd_composite.c ****   ptr[0] = 0x09;                        /* bLength: Configuration Descriptor size */
 1182              		.loc 1 1138 3 view .LVU300
 1183              		.loc 1 1138 10 is_stmt 0 view .LVU301
 1184 0174 07F809EC 		strb	lr, [r7, #-9]
1139:Middlewares/Third_Party/AL94_USB_Composite/COMPOSITE/Class/COMPOSITE/Src/usbd_composite.c ****   ptr[1] = USB_DESC_TYPE_CONFIGURATION; /* bDescriptorType: Configuration */
ARM GAS  C:\Users\Nathan\AppData\Local\Temp\ccbp06cD.s 			page 42


 1185              		.loc 1 1139 3 is_stmt 1 view .LVU302
 1186              		.loc 1 1139 10 is_stmt 0 view .LVU303
 1187 0178 07F8086C 		strb	r6, [r7, #-8]
1140:Middlewares/Third_Party/AL94_USB_Composite/COMPOSITE/Class/COMPOSITE/Src/usbd_composite.c ****   ptr[2] = LOBYTE(CFG_SIZE);            /* wTotalLength:no of returned bytes */
 1188              		.loc 1 1140 3 is_stmt 1 view .LVU304
 1189              		.loc 1 1140 10 is_stmt 0 view .LVU305
 1190 017c 07F807CC 		strb	ip, [r7, #-7]
1141:Middlewares/Third_Party/AL94_USB_Composite/COMPOSITE/Class/COMPOSITE/Src/usbd_composite.c ****   ptr[3] = HIBYTE(CFG_SIZE);
 1191              		.loc 1 1141 3 is_stmt 1 view .LVU306
 1192              		.loc 1 1141 10 is_stmt 0 view .LVU307
 1193 0180 07F8065C 		strb	r5, [r7, #-6]
1142:Middlewares/Third_Party/AL94_USB_Composite/COMPOSITE/Class/COMPOSITE/Src/usbd_composite.c ****   ptr[4] = interface_no_track; /* bNumInterfaces: 2 interface */
 1194              		.loc 1 1142 3 is_stmt 1 view .LVU308
 1195              		.loc 1 1142 10 is_stmt 0 view .LVU309
 1196 0184 07F8054C 		strb	r4, [r7, #-5]
1143:Middlewares/Third_Party/AL94_USB_Composite/COMPOSITE/Class/COMPOSITE/Src/usbd_composite.c ****   ptr[5] = 0x01;               /* bConfigurationValue: Configuration value */
 1197              		.loc 1 1143 3 is_stmt 1 view .LVU310
 1198              		.loc 1 1143 10 is_stmt 0 view .LVU311
 1199 0188 07F8040C 		strb	r0, [r7, #-4]
1144:Middlewares/Third_Party/AL94_USB_Composite/COMPOSITE/Class/COMPOSITE/Src/usbd_composite.c ****   ptr[6] = 0x00;               /* iConfiguration: Index of string descriptor describing the configu
 1200              		.loc 1 1144 3 is_stmt 1 view .LVU312
 1201              		.loc 1 1144 10 is_stmt 0 view .LVU313
 1202 018c 07F8035C 		strb	r5, [r7, #-3]
1145:Middlewares/Third_Party/AL94_USB_Composite/COMPOSITE/Class/COMPOSITE/Src/usbd_composite.c **** #if (USBD_SELF_POWERED == 1U)
1146:Middlewares/Third_Party/AL94_USB_Composite/COMPOSITE/Class/COMPOSITE/Src/usbd_composite.c ****   ptr[7] = 0xC0; /* bmAttributes: Bus Powered according to user configuration */
 1203              		.loc 1 1146 3 is_stmt 1 view .LVU314
 1204              		.loc 1 1146 10 is_stmt 0 view .LVU315
 1205 0190 07F8021C 		strb	r1, [r7, #-2]
1147:Middlewares/Third_Party/AL94_USB_Composite/COMPOSITE/Class/COMPOSITE/Src/usbd_composite.c **** #else
1148:Middlewares/Third_Party/AL94_USB_Composite/COMPOSITE/Class/COMPOSITE/Src/usbd_composite.c ****   ptr[7] = 0x80; /* bmAttributes: Bus Powered according to user configuration */
1149:Middlewares/Third_Party/AL94_USB_Composite/COMPOSITE/Class/COMPOSITE/Src/usbd_composite.c **** #endif
1150:Middlewares/Third_Party/AL94_USB_Composite/COMPOSITE/Class/COMPOSITE/Src/usbd_composite.c ****   ptr[8] = USBD_MAX_POWER; /* MaxPower 100 mA */
 1206              		.loc 1 1150 3 is_stmt 1 view .LVU316
 1207              		.loc 1 1150 10 is_stmt 0 view .LVU317
 1208 0194 07F8012C 		strb	r2, [r7, #-1]
1151:Middlewares/Third_Party/AL94_USB_Composite/COMPOSITE/Class/COMPOSITE/Src/usbd_composite.c **** 
1152:Middlewares/Third_Party/AL94_USB_Composite/COMPOSITE/Class/COMPOSITE/Src/usbd_composite.c ****   (void)out_ep_track;
 1209              		.loc 1 1152 3 is_stmt 1 view .LVU318
1153:Middlewares/Third_Party/AL94_USB_Composite/COMPOSITE/Class/COMPOSITE/Src/usbd_composite.c ****   (void)in_ep_track;
 1210              		.loc 1 1153 3 view .LVU319
1154:Middlewares/Third_Party/AL94_USB_Composite/COMPOSITE/Class/COMPOSITE/Src/usbd_composite.c **** }
 1211              		.loc 1 1154 1 is_stmt 0 view .LVU320
 1212 0198 07B0     		add	sp, sp, #28
 1213              		.cfi_def_cfa_offset 36
 1214              		@ sp needed
 1215 019a BDE8F08F 		pop	{r4, r5, r6, r7, r8, r9, r10, fp, pc}
 1216              	.L89:
 1217 019e 00BF     		.align	2
 1218              	.L88:
 1219 01a0 00000000 		.word	USBD_Track_String_Index
 1220 01a4 09000000 		.word	USBD_COMPOSITE_FSCfgDesc+9
 1221 01a8 00000000 		.word	USBD_HID_KEYBOARD
 1222 01ac 09000000 		.word	USBD_COMPOSITE_HSCfgDesc+9
 1223 01b0 00000000 		.word	USBD_HID_CUSTOM
 1224 01b4 00000000 		.word	USBD_CDC_ACM
 1225              		.cfi_endproc
 1226              	.LFE1431:
ARM GAS  C:\Users\Nathan\AppData\Local\Temp\ccbp06cD.s 			page 43


 1228              		.section	.bss.USBD_StrDesc.0,"aw",%nobits
 1229              		.align	2
 1232              	USBD_StrDesc.0:
 1233 0000 00000000 		.space	64
 1233      00000000 
 1233      00000000 
 1233      00000000 
 1233      00000000 
 1234              		.section	.data.USBD_COMPOSITE_DeviceQualifierDesc,"aw"
 1235              		.align	2
 1238              	USBD_COMPOSITE_DeviceQualifierDesc:
 1239 0000 0A060002 		.ascii	"\012\006\000\002\357\002\001@\001\000"
 1239      EF020140 
 1239      0100
 1240              		.global	USBD_Track_String_Index
 1241              		.section	.data.USBD_Track_String_Index,"aw"
 1244              	USBD_Track_String_Index:
 1245 0000 06       		.byte	6
 1246              		.global	USBD_COMPOSITE_HSCfgDesc
 1247              		.section	.bss.USBD_COMPOSITE_HSCfgDesc,"aw",%nobits
 1248              		.align	2
 1251              	USBD_COMPOSITE_HSCfgDesc:
 1252 0000 00000000 		.space	198
 1252      00000000 
 1252      00000000 
 1252      00000000 
 1252      00000000 
 1253              		.global	USBD_COMPOSITE_FSCfgDesc
 1254              		.section	.bss.USBD_COMPOSITE_FSCfgDesc,"aw",%nobits
 1255              		.align	2
 1258              	USBD_COMPOSITE_FSCfgDesc:
 1259 0000 00000000 		.space	198
 1259      00000000 
 1259      00000000 
 1259      00000000 
 1259      00000000 
 1260              		.global	USBD_COMPOSITE
 1261              		.section	.data.USBD_COMPOSITE,"aw"
 1262              		.align	2
 1265              	USBD_COMPOSITE:
 1266 0000 00000000 		.word	USBD_COMPOSITE_Init
 1267 0004 00000000 		.word	USBD_COMPOSITE_DeInit
 1268 0008 00000000 		.word	USBD_COMPOSITE_Setup
 1269 000c 00000000 		.word	USBD_COMPOSITE_EP0_TxReady
 1270 0010 00000000 		.word	USBD_COMPOSITE_EP0_RxReady
 1271 0014 00000000 		.word	USBD_COMPOSITE_DataIn
 1272 0018 00000000 		.word	USBD_COMPOSITE_DataOut
 1273 001c 00000000 		.word	USBD_COMPOSITE_SOF
 1274 0020 00000000 		.word	USBD_COMPOSITE_IsoINIncomplete
 1275 0024 00000000 		.word	USBD_COMPOSITE_IsoOutIncomplete
 1276 0028 00000000 		.word	USBD_COMPOSITE_GetHSCfgDesc
 1277 002c 00000000 		.word	USBD_COMPOSITE_GetFSCfgDesc
 1278 0030 00000000 		.word	USBD_COMPOSITE_GetOtherSpeedCfgDesc
 1279 0034 00000000 		.word	USBD_COMPOSITE_GetDeviceQualifierDesc
 1280 0038 00000000 		.word	USBD_COMPOSITE_GetUsrStringDesc
 1281              		.text
 1282              	.Letext0:
ARM GAS  C:\Users\Nathan\AppData\Local\Temp\ccbp06cD.s 			page 44


 1283              		.file 2 "C:/PROGRAM FILES (X86)/ARM GNU TOOLCHAIN ARM-NONE-EABI/13.3 REL1/arm-none-eabi/include/ma
 1284              		.file 3 "C:/PROGRAM FILES (X86)/ARM GNU TOOLCHAIN ARM-NONE-EABI/13.3 REL1/lib/gcc/arm-none-eabi/13
 1285              		.file 4 "C:/PROGRAM FILES (X86)/ARM GNU TOOLCHAIN ARM-NONE-EABI/13.3 REL1/arm-none-eabi/include/sy
 1286              		.file 5 "Middlewares/ST/STM32_USB_Device_Library/Core/Inc/usbd_def.h"
 1287              		.file 6 "Core/Inc/app_conf.h"
 1288              		.file 7 "Middlewares/Third_Party/AL94_USB_Composite/COMPOSITE/Class/CDC_ACM/Inc/usbd_cdc_acm.h"
 1289              		.file 8 "Middlewares/Third_Party/AL94_USB_Composite/COMPOSITE/Class/HID_KEYBOARD/Inc/usbd_hid_keyb
 1290              		.file 9 "Middlewares/Third_Party/AL94_USB_Composite/COMPOSITE/Class/HID_CUSTOM/Inc/usbd_hid_custom
 1291              		.file 10 "Middlewares/Third_Party/AL94_USB_Composite/COMPOSITE/Class/COMPOSITE/Inc/usbd_composite.
 1292              		.file 11 "Middlewares/ST/STM32_USB_Device_Library/Core/Inc/usbd_ctlreq.h"
 1293              		.file 12 "C:/PROGRAM FILES (X86)/ARM GNU TOOLCHAIN ARM-NONE-EABI/13.3 REL1/arm-none-eabi/include/s
 1294              		.file 13 "C:/PROGRAM FILES (X86)/ARM GNU TOOLCHAIN ARM-NONE-EABI/13.3 REL1/arm-none-eabi/include/s
 1295              		.file 14 "<built-in>"
ARM GAS  C:\Users\Nathan\AppData\Local\Temp\ccbp06cD.s 			page 45

