ARM GAS  C:\Users\Nathan\AppData\Local\Temp\ccVQw5Zk.s 			page 1


   1              		.cpu cortex-m4
   2              		.arch armv7e-m
   3              		.fpu fpv4-sp-d16
   4              		.eabi_attribute 27, 1
   5              		.eabi_attribute 28, 1
   6              		.eabi_attribute 20, 1
   7              		.eabi_attribute 21, 1
   8              		.eabi_attribute 23, 3
   9              		.eabi_attribute 24, 1
  10              		.eabi_attribute 25, 1
  11              		.eabi_attribute 26, 1
  12              		.eabi_attribute 30, 1
  13              		.eabi_attribute 34, 1
  14              		.eabi_attribute 18, 4
  15              		.file	"usbd_conf.c"
  16              		.text
  17              	.Ltext0:
  18              		.cfi_sections	.debug_frame
  19              		.file 1 "USB_Device/Target/usbd_conf.c"
  20              		.section	.text.USBD_Get_USB_Status,"ax",%progbits
  21              		.align	1
  22              		.syntax unified
  23              		.thumb
  24              		.thumb_func
  26              	USBD_Get_USB_Status:
  27              	.LVL0:
  28              	.LFB1448:
   1:USB_Device/Target/usbd_conf.c **** /* USER CODE BEGIN Header */
   2:USB_Device/Target/usbd_conf.c **** /**
   3:USB_Device/Target/usbd_conf.c ****   ******************************************************************************
   4:USB_Device/Target/usbd_conf.c ****   * @file           : Target/usbd_conf.c
   5:USB_Device/Target/usbd_conf.c ****   * @version        : v3.0_Cube
   6:USB_Device/Target/usbd_conf.c ****   * @brief          : This file implements the board support package for the USB device library
   7:USB_Device/Target/usbd_conf.c ****   ******************************************************************************
   8:USB_Device/Target/usbd_conf.c ****   * @attention
   9:USB_Device/Target/usbd_conf.c ****   *
  10:USB_Device/Target/usbd_conf.c ****   * Copyright (c) 2024 STMicroelectronics.
  11:USB_Device/Target/usbd_conf.c ****   * All rights reserved.
  12:USB_Device/Target/usbd_conf.c ****   *
  13:USB_Device/Target/usbd_conf.c ****   * This software is licensed under terms that can be found in the LICENSE file
  14:USB_Device/Target/usbd_conf.c ****   * in the root directory of this software component.
  15:USB_Device/Target/usbd_conf.c ****   * If no LICENSE file comes with this software, it is provided AS-IS.
  16:USB_Device/Target/usbd_conf.c ****   *
  17:USB_Device/Target/usbd_conf.c ****   ******************************************************************************
  18:USB_Device/Target/usbd_conf.c ****   */
  19:USB_Device/Target/usbd_conf.c **** /* USER CODE END Header */
  20:USB_Device/Target/usbd_conf.c **** 
  21:USB_Device/Target/usbd_conf.c **** /* Includes ------------------------------------------------------------------*/
  22:USB_Device/Target/usbd_conf.c **** #include "main.h"
  23:USB_Device/Target/usbd_conf.c **** #include "stm32wbxx.h"
  24:USB_Device/Target/usbd_conf.c **** #include "stm32wbxx_hal.h"
  25:USB_Device/Target/usbd_conf.c **** #include "usbd_def.h"
  26:USB_Device/Target/usbd_conf.c **** #include "usbd_core.h"
  27:USB_Device/Target/usbd_conf.c **** 
  28:USB_Device/Target/usbd_conf.c **** #include "usbd_cdc.h"
  29:USB_Device/Target/usbd_conf.c **** 
  30:USB_Device/Target/usbd_conf.c **** /* USER CODE BEGIN Includes */
ARM GAS  C:\Users\Nathan\AppData\Local\Temp\ccVQw5Zk.s 			page 2


  31:USB_Device/Target/usbd_conf.c **** 
  32:USB_Device/Target/usbd_conf.c **** /* USER CODE END Includes */
  33:USB_Device/Target/usbd_conf.c **** 
  34:USB_Device/Target/usbd_conf.c **** /* Private typedef -----------------------------------------------------------*/
  35:USB_Device/Target/usbd_conf.c **** /* Private define ------------------------------------------------------------*/
  36:USB_Device/Target/usbd_conf.c **** /* Private macro -------------------------------------------------------------*/
  37:USB_Device/Target/usbd_conf.c **** 
  38:USB_Device/Target/usbd_conf.c **** /* Private variables ---------------------------------------------------------*/
  39:USB_Device/Target/usbd_conf.c **** /* USER CODE BEGIN PV */
  40:USB_Device/Target/usbd_conf.c **** 
  41:USB_Device/Target/usbd_conf.c **** /* USER CODE END PV */
  42:USB_Device/Target/usbd_conf.c **** 
  43:USB_Device/Target/usbd_conf.c **** PCD_HandleTypeDef hpcd_USB_FS;
  44:USB_Device/Target/usbd_conf.c **** void Error_Handler(void);
  45:USB_Device/Target/usbd_conf.c **** 
  46:USB_Device/Target/usbd_conf.c **** /* USER CODE BEGIN 0 */
  47:USB_Device/Target/usbd_conf.c **** 
  48:USB_Device/Target/usbd_conf.c **** /* USER CODE END 0 */
  49:USB_Device/Target/usbd_conf.c **** 
  50:USB_Device/Target/usbd_conf.c **** /* Exported function prototypes ----------------------------------------------*/
  51:USB_Device/Target/usbd_conf.c **** 
  52:USB_Device/Target/usbd_conf.c **** /* USER CODE BEGIN PFP */
  53:USB_Device/Target/usbd_conf.c **** /* Private function prototypes -----------------------------------------------*/
  54:USB_Device/Target/usbd_conf.c **** 
  55:USB_Device/Target/usbd_conf.c **** /* USER CODE END PFP */
  56:USB_Device/Target/usbd_conf.c **** 
  57:USB_Device/Target/usbd_conf.c **** /* Private functions ---------------------------------------------------------*/
  58:USB_Device/Target/usbd_conf.c **** static USBD_StatusTypeDef USBD_Get_USB_Status(HAL_StatusTypeDef hal_status);
  59:USB_Device/Target/usbd_conf.c **** /* USER CODE BEGIN 1 */
  60:USB_Device/Target/usbd_conf.c **** static void SystemClockConfig_Resume(void);
  61:USB_Device/Target/usbd_conf.c **** 
  62:USB_Device/Target/usbd_conf.c **** /* USER CODE END 1 */
  63:USB_Device/Target/usbd_conf.c **** extern void SystemClock_Config(void);
  64:USB_Device/Target/usbd_conf.c **** 
  65:USB_Device/Target/usbd_conf.c **** /*******************************************************************************
  66:USB_Device/Target/usbd_conf.c ****                        LL Driver Callbacks (PCD -> USB Device Library)
  67:USB_Device/Target/usbd_conf.c **** *******************************************************************************/
  68:USB_Device/Target/usbd_conf.c **** /* MSP Init */
  69:USB_Device/Target/usbd_conf.c **** 
  70:USB_Device/Target/usbd_conf.c **** #if (USE_HAL_PCD_REGISTER_CALLBACKS == 1U)
  71:USB_Device/Target/usbd_conf.c **** static void HAL_PCD_MspInit(PCD_HandleTypeDef* pcdHandle)
  72:USB_Device/Target/usbd_conf.c **** #else
  73:USB_Device/Target/usbd_conf.c **** void HAL_PCD_MspInit(PCD_HandleTypeDef* pcdHandle)
  74:USB_Device/Target/usbd_conf.c **** #endif /* USE_HAL_PCD_REGISTER_CALLBACKS */
  75:USB_Device/Target/usbd_conf.c **** {
  76:USB_Device/Target/usbd_conf.c ****   GPIO_InitTypeDef GPIO_InitStruct = {0};
  77:USB_Device/Target/usbd_conf.c ****   if(pcdHandle->Instance==USB)
  78:USB_Device/Target/usbd_conf.c ****   {
  79:USB_Device/Target/usbd_conf.c ****   /* USER CODE BEGIN USB_MspInit 0 */
  80:USB_Device/Target/usbd_conf.c **** 
  81:USB_Device/Target/usbd_conf.c ****   /* USER CODE END USB_MspInit 0 */
  82:USB_Device/Target/usbd_conf.c **** 
  83:USB_Device/Target/usbd_conf.c ****     __HAL_RCC_GPIOA_CLK_ENABLE();
  84:USB_Device/Target/usbd_conf.c ****     /**USB GPIO Configuration
  85:USB_Device/Target/usbd_conf.c ****     PA11     ------> USB_DM
  86:USB_Device/Target/usbd_conf.c ****     PA12     ------> USB_DP
  87:USB_Device/Target/usbd_conf.c ****     */
ARM GAS  C:\Users\Nathan\AppData\Local\Temp\ccVQw5Zk.s 			page 3


  88:USB_Device/Target/usbd_conf.c ****     GPIO_InitStruct.Pin = GPIO_PIN_11|GPIO_PIN_12;
  89:USB_Device/Target/usbd_conf.c ****     GPIO_InitStruct.Mode = GPIO_MODE_AF_PP;
  90:USB_Device/Target/usbd_conf.c ****     GPIO_InitStruct.Pull = GPIO_NOPULL;
  91:USB_Device/Target/usbd_conf.c ****     GPIO_InitStruct.Speed = GPIO_SPEED_FREQ_LOW;
  92:USB_Device/Target/usbd_conf.c ****     GPIO_InitStruct.Alternate = GPIO_AF10_USB;
  93:USB_Device/Target/usbd_conf.c ****     HAL_GPIO_Init(GPIOA, &GPIO_InitStruct);
  94:USB_Device/Target/usbd_conf.c **** 
  95:USB_Device/Target/usbd_conf.c ****     /* Peripheral clock enable */
  96:USB_Device/Target/usbd_conf.c ****     __HAL_RCC_USB_CLK_ENABLE();
  97:USB_Device/Target/usbd_conf.c **** 
  98:USB_Device/Target/usbd_conf.c ****     /* Peripheral interrupt init */
  99:USB_Device/Target/usbd_conf.c ****     HAL_NVIC_SetPriority(USB_HP_IRQn, 0, 0);
 100:USB_Device/Target/usbd_conf.c ****     HAL_NVIC_EnableIRQ(USB_HP_IRQn);
 101:USB_Device/Target/usbd_conf.c ****     HAL_NVIC_SetPriority(USB_LP_IRQn, 0, 0);
 102:USB_Device/Target/usbd_conf.c ****     HAL_NVIC_EnableIRQ(USB_LP_IRQn);
 103:USB_Device/Target/usbd_conf.c ****   /* USER CODE BEGIN USB_MspInit 1 */
 104:USB_Device/Target/usbd_conf.c **** 
 105:USB_Device/Target/usbd_conf.c ****   /* USER CODE END USB_MspInit 1 */
 106:USB_Device/Target/usbd_conf.c ****   }
 107:USB_Device/Target/usbd_conf.c **** }
 108:USB_Device/Target/usbd_conf.c **** 
 109:USB_Device/Target/usbd_conf.c **** #if (USE_HAL_PCD_REGISTER_CALLBACKS == 1U)
 110:USB_Device/Target/usbd_conf.c **** static void HAL_PCD_MspDeInit(PCD_HandleTypeDef* pcdHandle)
 111:USB_Device/Target/usbd_conf.c **** #else
 112:USB_Device/Target/usbd_conf.c **** void HAL_PCD_MspDeInit(PCD_HandleTypeDef* pcdHandle)
 113:USB_Device/Target/usbd_conf.c **** #endif /* USE_HAL_PCD_REGISTER_CALLBACKS */
 114:USB_Device/Target/usbd_conf.c **** {
 115:USB_Device/Target/usbd_conf.c ****   if(pcdHandle->Instance==USB)
 116:USB_Device/Target/usbd_conf.c ****   {
 117:USB_Device/Target/usbd_conf.c ****   /* USER CODE BEGIN USB_MspDeInit 0 */
 118:USB_Device/Target/usbd_conf.c **** 
 119:USB_Device/Target/usbd_conf.c ****   /* USER CODE END USB_MspDeInit 0 */
 120:USB_Device/Target/usbd_conf.c ****     /* Peripheral clock disable */
 121:USB_Device/Target/usbd_conf.c ****     __HAL_RCC_USB_CLK_DISABLE();
 122:USB_Device/Target/usbd_conf.c **** 
 123:USB_Device/Target/usbd_conf.c ****     /**USB GPIO Configuration
 124:USB_Device/Target/usbd_conf.c ****     PA11     ------> USB_DM
 125:USB_Device/Target/usbd_conf.c ****     PA12     ------> USB_DP
 126:USB_Device/Target/usbd_conf.c ****     */
 127:USB_Device/Target/usbd_conf.c ****     HAL_GPIO_DeInit(GPIOA, GPIO_PIN_11|GPIO_PIN_12);
 128:USB_Device/Target/usbd_conf.c **** 
 129:USB_Device/Target/usbd_conf.c ****     /* Peripheral interrupt Deinit*/
 130:USB_Device/Target/usbd_conf.c ****     HAL_NVIC_DisableIRQ(USB_HP_IRQn);
 131:USB_Device/Target/usbd_conf.c **** 
 132:USB_Device/Target/usbd_conf.c ****     HAL_NVIC_DisableIRQ(USB_LP_IRQn);
 133:USB_Device/Target/usbd_conf.c **** 
 134:USB_Device/Target/usbd_conf.c ****   /* USER CODE BEGIN USB_MspDeInit 1 */
 135:USB_Device/Target/usbd_conf.c **** 
 136:USB_Device/Target/usbd_conf.c ****   /* USER CODE END USB_MspDeInit 1 */
 137:USB_Device/Target/usbd_conf.c ****   }
 138:USB_Device/Target/usbd_conf.c **** }
 139:USB_Device/Target/usbd_conf.c **** 
 140:USB_Device/Target/usbd_conf.c **** /**
 141:USB_Device/Target/usbd_conf.c ****   * @brief  Setup stage callback
 142:USB_Device/Target/usbd_conf.c ****   * @param  hpcd: PCD handle
 143:USB_Device/Target/usbd_conf.c ****   * @retval None
 144:USB_Device/Target/usbd_conf.c ****   */
ARM GAS  C:\Users\Nathan\AppData\Local\Temp\ccVQw5Zk.s 			page 4


 145:USB_Device/Target/usbd_conf.c **** #if (USE_HAL_PCD_REGISTER_CALLBACKS == 1U)
 146:USB_Device/Target/usbd_conf.c **** static void PCD_SetupStageCallback(PCD_HandleTypeDef *hpcd)
 147:USB_Device/Target/usbd_conf.c **** #else
 148:USB_Device/Target/usbd_conf.c **** void HAL_PCD_SetupStageCallback(PCD_HandleTypeDef *hpcd)
 149:USB_Device/Target/usbd_conf.c **** #endif /* USE_HAL_PCD_REGISTER_CALLBACKS */
 150:USB_Device/Target/usbd_conf.c **** {
 151:USB_Device/Target/usbd_conf.c ****   /* USER CODE BEGIN HAL_PCD_SetupStageCallback_PreTreatment */
 152:USB_Device/Target/usbd_conf.c **** 
 153:USB_Device/Target/usbd_conf.c ****   /* USER CODE END  HAL_PCD_SetupStageCallback_PreTreatment */
 154:USB_Device/Target/usbd_conf.c ****   USBD_LL_SetupStage((USBD_HandleTypeDef*)hpcd->pData, (uint8_t *)hpcd->Setup);
 155:USB_Device/Target/usbd_conf.c ****   /* USER CODE BEGIN HAL_PCD_SetupStageCallback_PostTreatment */
 156:USB_Device/Target/usbd_conf.c **** 
 157:USB_Device/Target/usbd_conf.c ****   /* USER CODE END  HAL_PCD_SetupStageCallback_PostTreatment */
 158:USB_Device/Target/usbd_conf.c **** }
 159:USB_Device/Target/usbd_conf.c **** 
 160:USB_Device/Target/usbd_conf.c **** /**
 161:USB_Device/Target/usbd_conf.c ****   * @brief  Data Out stage callback.
 162:USB_Device/Target/usbd_conf.c ****   * @param  hpcd: PCD handle
 163:USB_Device/Target/usbd_conf.c ****   * @param  epnum: Endpoint number
 164:USB_Device/Target/usbd_conf.c ****   * @retval None
 165:USB_Device/Target/usbd_conf.c ****   */
 166:USB_Device/Target/usbd_conf.c **** #if (USE_HAL_PCD_REGISTER_CALLBACKS == 1U)
 167:USB_Device/Target/usbd_conf.c **** static void PCD_DataOutStageCallback(PCD_HandleTypeDef *hpcd, uint8_t epnum)
 168:USB_Device/Target/usbd_conf.c **** #else
 169:USB_Device/Target/usbd_conf.c **** void HAL_PCD_DataOutStageCallback(PCD_HandleTypeDef *hpcd, uint8_t epnum)
 170:USB_Device/Target/usbd_conf.c **** #endif /* USE_HAL_PCD_REGISTER_CALLBACKS */
 171:USB_Device/Target/usbd_conf.c **** {
 172:USB_Device/Target/usbd_conf.c ****   /* USER CODE BEGIN HAL_PCD_DataOutStageCallback_PreTreatment */
 173:USB_Device/Target/usbd_conf.c **** 
 174:USB_Device/Target/usbd_conf.c ****   /* USER CODE END HAL_PCD_DataOutStageCallback_PreTreatment */
 175:USB_Device/Target/usbd_conf.c ****   USBD_LL_DataOutStage((USBD_HandleTypeDef*)hpcd->pData, epnum, hpcd->OUT_ep[epnum].xfer_buff);
 176:USB_Device/Target/usbd_conf.c ****   /* USER CODE BEGIN HAL_PCD_DataOutStageCallback_PostTreatment */
 177:USB_Device/Target/usbd_conf.c **** 
 178:USB_Device/Target/usbd_conf.c ****   /* USER CODE END HAL_PCD_DataOutStageCallback_PostTreatment */
 179:USB_Device/Target/usbd_conf.c **** }
 180:USB_Device/Target/usbd_conf.c **** 
 181:USB_Device/Target/usbd_conf.c **** /**
 182:USB_Device/Target/usbd_conf.c ****   * @brief  Data In stage callback.
 183:USB_Device/Target/usbd_conf.c ****   * @param  hpcd: PCD handle
 184:USB_Device/Target/usbd_conf.c ****   * @param  epnum: Endpoint number
 185:USB_Device/Target/usbd_conf.c ****   * @retval None
 186:USB_Device/Target/usbd_conf.c ****   */
 187:USB_Device/Target/usbd_conf.c **** #if (USE_HAL_PCD_REGISTER_CALLBACKS == 1U)
 188:USB_Device/Target/usbd_conf.c **** static void PCD_DataInStageCallback(PCD_HandleTypeDef *hpcd, uint8_t epnum)
 189:USB_Device/Target/usbd_conf.c **** #else
 190:USB_Device/Target/usbd_conf.c **** void HAL_PCD_DataInStageCallback(PCD_HandleTypeDef *hpcd, uint8_t epnum)
 191:USB_Device/Target/usbd_conf.c **** #endif /* USE_HAL_PCD_REGISTER_CALLBACKS */
 192:USB_Device/Target/usbd_conf.c **** {
 193:USB_Device/Target/usbd_conf.c ****   /* USER CODE BEGIN HAL_PCD_DataInStageCallback_PreTreatment */
 194:USB_Device/Target/usbd_conf.c **** 
 195:USB_Device/Target/usbd_conf.c ****   /* USER CODE END HAL_PCD_DataInStageCallback_PreTreatment */
 196:USB_Device/Target/usbd_conf.c ****   USBD_LL_DataInStage((USBD_HandleTypeDef*)hpcd->pData, epnum, hpcd->IN_ep[epnum].xfer_buff);
 197:USB_Device/Target/usbd_conf.c ****   /* USER CODE BEGIN HAL_PCD_DataInStageCallback_PostTreatment  */
 198:USB_Device/Target/usbd_conf.c **** 
 199:USB_Device/Target/usbd_conf.c ****   /* USER CODE END HAL_PCD_DataInStageCallback_PostTreatment */
 200:USB_Device/Target/usbd_conf.c **** }
 201:USB_Device/Target/usbd_conf.c **** 
ARM GAS  C:\Users\Nathan\AppData\Local\Temp\ccVQw5Zk.s 			page 5


 202:USB_Device/Target/usbd_conf.c **** /**
 203:USB_Device/Target/usbd_conf.c ****   * @brief  SOF callback.
 204:USB_Device/Target/usbd_conf.c ****   * @param  hpcd: PCD handle
 205:USB_Device/Target/usbd_conf.c ****   * @retval None
 206:USB_Device/Target/usbd_conf.c ****   */
 207:USB_Device/Target/usbd_conf.c **** #if (USE_HAL_PCD_REGISTER_CALLBACKS == 1U)
 208:USB_Device/Target/usbd_conf.c **** static void PCD_SOFCallback(PCD_HandleTypeDef *hpcd)
 209:USB_Device/Target/usbd_conf.c **** #else
 210:USB_Device/Target/usbd_conf.c **** void HAL_PCD_SOFCallback(PCD_HandleTypeDef *hpcd)
 211:USB_Device/Target/usbd_conf.c **** #endif /* USE_HAL_PCD_REGISTER_CALLBACKS */
 212:USB_Device/Target/usbd_conf.c **** {
 213:USB_Device/Target/usbd_conf.c ****   /* USER CODE BEGIN HAL_PCD_SOFCallback_PreTreatment */
 214:USB_Device/Target/usbd_conf.c **** 
 215:USB_Device/Target/usbd_conf.c ****   /* USER CODE END HAL_PCD_SOFCallback_PreTreatment */
 216:USB_Device/Target/usbd_conf.c ****   USBD_LL_SOF((USBD_HandleTypeDef*)hpcd->pData);
 217:USB_Device/Target/usbd_conf.c ****   /* USER CODE BEGIN HAL_PCD_SOFCallback_PostTreatment */
 218:USB_Device/Target/usbd_conf.c **** 
 219:USB_Device/Target/usbd_conf.c ****   /* USER CODE END HAL_PCD_SOFCallback_PostTreatment */
 220:USB_Device/Target/usbd_conf.c **** }
 221:USB_Device/Target/usbd_conf.c **** 
 222:USB_Device/Target/usbd_conf.c **** /**
 223:USB_Device/Target/usbd_conf.c ****   * @brief  Reset callback.
 224:USB_Device/Target/usbd_conf.c ****   * @param  hpcd: PCD handle
 225:USB_Device/Target/usbd_conf.c ****   * @retval None
 226:USB_Device/Target/usbd_conf.c ****   */
 227:USB_Device/Target/usbd_conf.c **** #if (USE_HAL_PCD_REGISTER_CALLBACKS == 1U)
 228:USB_Device/Target/usbd_conf.c **** static void PCD_ResetCallback(PCD_HandleTypeDef *hpcd)
 229:USB_Device/Target/usbd_conf.c **** #else
 230:USB_Device/Target/usbd_conf.c **** void HAL_PCD_ResetCallback(PCD_HandleTypeDef *hpcd)
 231:USB_Device/Target/usbd_conf.c **** #endif /* USE_HAL_PCD_REGISTER_CALLBACKS */
 232:USB_Device/Target/usbd_conf.c **** {
 233:USB_Device/Target/usbd_conf.c ****   /* USER CODE BEGIN HAL_PCD_ResetCallback_PreTreatment */
 234:USB_Device/Target/usbd_conf.c **** 
 235:USB_Device/Target/usbd_conf.c ****   /* USER CODE END HAL_PCD_ResetCallback_PreTreatment */
 236:USB_Device/Target/usbd_conf.c ****   USBD_SpeedTypeDef speed = USBD_SPEED_FULL;
 237:USB_Device/Target/usbd_conf.c **** 
 238:USB_Device/Target/usbd_conf.c ****   if ( hpcd->Init.speed != PCD_SPEED_FULL)
 239:USB_Device/Target/usbd_conf.c ****   {
 240:USB_Device/Target/usbd_conf.c ****     Error_Handler();
 241:USB_Device/Target/usbd_conf.c ****   }
 242:USB_Device/Target/usbd_conf.c ****     /* Set Speed. */
 243:USB_Device/Target/usbd_conf.c ****   USBD_LL_SetSpeed((USBD_HandleTypeDef*)hpcd->pData, speed);
 244:USB_Device/Target/usbd_conf.c **** 
 245:USB_Device/Target/usbd_conf.c ****   /* Reset Device. */
 246:USB_Device/Target/usbd_conf.c ****   USBD_LL_Reset((USBD_HandleTypeDef*)hpcd->pData);
 247:USB_Device/Target/usbd_conf.c ****   /* USER CODE BEGIN HAL_PCD_ResetCallback_PostTreatment */
 248:USB_Device/Target/usbd_conf.c **** 
 249:USB_Device/Target/usbd_conf.c ****   /* USER CODE END HAL_PCD_ResetCallback_PostTreatment */
 250:USB_Device/Target/usbd_conf.c **** }
 251:USB_Device/Target/usbd_conf.c **** 
 252:USB_Device/Target/usbd_conf.c **** /**
 253:USB_Device/Target/usbd_conf.c ****   * @brief  Suspend callback.
 254:USB_Device/Target/usbd_conf.c ****   * When Low power mode is enabled the debug cannot be used (IAR, Keil doesn't support it)
 255:USB_Device/Target/usbd_conf.c ****   * @param  hpcd: PCD handle
 256:USB_Device/Target/usbd_conf.c ****   * @retval None
 257:USB_Device/Target/usbd_conf.c ****   */
 258:USB_Device/Target/usbd_conf.c **** #if (USE_HAL_PCD_REGISTER_CALLBACKS == 1U)
ARM GAS  C:\Users\Nathan\AppData\Local\Temp\ccVQw5Zk.s 			page 6


 259:USB_Device/Target/usbd_conf.c **** static void PCD_SuspendCallback(PCD_HandleTypeDef *hpcd)
 260:USB_Device/Target/usbd_conf.c **** #else
 261:USB_Device/Target/usbd_conf.c **** void HAL_PCD_SuspendCallback(PCD_HandleTypeDef *hpcd)
 262:USB_Device/Target/usbd_conf.c **** #endif /* USE_HAL_PCD_REGISTER_CALLBACKS */
 263:USB_Device/Target/usbd_conf.c **** {
 264:USB_Device/Target/usbd_conf.c ****   /* USER CODE BEGIN HAL_PCD_SuspendCallback_PreTreatment */
 265:USB_Device/Target/usbd_conf.c **** 
 266:USB_Device/Target/usbd_conf.c ****   /* USER CODE END HAL_PCD_SuspendCallback_PreTreatment */
 267:USB_Device/Target/usbd_conf.c ****   /* Inform USB library that core enters in suspend Mode. */
 268:USB_Device/Target/usbd_conf.c ****   USBD_LL_Suspend((USBD_HandleTypeDef*)hpcd->pData);
 269:USB_Device/Target/usbd_conf.c ****   /* Enter in STOP mode. */
 270:USB_Device/Target/usbd_conf.c ****   /* USER CODE BEGIN 2 */
 271:USB_Device/Target/usbd_conf.c ****   if (hpcd->Init.low_power_enable)
 272:USB_Device/Target/usbd_conf.c ****   {
 273:USB_Device/Target/usbd_conf.c ****     /* Set SLEEPDEEP bit and SleepOnExit of Cortex System Control Register. */
 274:USB_Device/Target/usbd_conf.c ****     SCB->SCR |= (uint32_t)((uint32_t)(SCB_SCR_SLEEPDEEP_Msk | SCB_SCR_SLEEPONEXIT_Msk));
 275:USB_Device/Target/usbd_conf.c ****   }
 276:USB_Device/Target/usbd_conf.c ****   /* USER CODE END 2 */
 277:USB_Device/Target/usbd_conf.c ****   /* USER CODE BEGIN HAL_PCD_SuspendCallback_PostTreatment */
 278:USB_Device/Target/usbd_conf.c **** 
 279:USB_Device/Target/usbd_conf.c ****   /* USER CODE END HAL_PCD_SuspendCallback_PostTreatment */
 280:USB_Device/Target/usbd_conf.c **** }
 281:USB_Device/Target/usbd_conf.c **** 
 282:USB_Device/Target/usbd_conf.c **** /**
 283:USB_Device/Target/usbd_conf.c ****   * @brief  Resume callback.
 284:USB_Device/Target/usbd_conf.c ****   * When Low power mode is enabled the debug cannot be used (IAR, Keil doesn't support it)
 285:USB_Device/Target/usbd_conf.c ****   * @param  hpcd: PCD handle
 286:USB_Device/Target/usbd_conf.c ****   * @retval None
 287:USB_Device/Target/usbd_conf.c ****   */
 288:USB_Device/Target/usbd_conf.c **** #if (USE_HAL_PCD_REGISTER_CALLBACKS == 1U)
 289:USB_Device/Target/usbd_conf.c **** static void PCD_ResumeCallback(PCD_HandleTypeDef *hpcd)
 290:USB_Device/Target/usbd_conf.c **** #else
 291:USB_Device/Target/usbd_conf.c **** void HAL_PCD_ResumeCallback(PCD_HandleTypeDef *hpcd)
 292:USB_Device/Target/usbd_conf.c **** #endif /* USE_HAL_PCD_REGISTER_CALLBACKS */
 293:USB_Device/Target/usbd_conf.c **** {
 294:USB_Device/Target/usbd_conf.c ****   /* USER CODE BEGIN HAL_PCD_ResumeCallback_PreTreatment */
 295:USB_Device/Target/usbd_conf.c **** 
 296:USB_Device/Target/usbd_conf.c ****   /* USER CODE END HAL_PCD_ResumeCallback_PreTreatment */
 297:USB_Device/Target/usbd_conf.c **** 
 298:USB_Device/Target/usbd_conf.c ****   /* USER CODE BEGIN 3 */
 299:USB_Device/Target/usbd_conf.c ****   if (hpcd->Init.low_power_enable)
 300:USB_Device/Target/usbd_conf.c ****   {
 301:USB_Device/Target/usbd_conf.c ****     /* Reset SLEEPDEEP bit of Cortex System Control Register. */
 302:USB_Device/Target/usbd_conf.c ****     SCB->SCR &= (uint32_t)~((uint32_t)(SCB_SCR_SLEEPDEEP_Msk | SCB_SCR_SLEEPONEXIT_Msk));
 303:USB_Device/Target/usbd_conf.c ****     SystemClockConfig_Resume();
 304:USB_Device/Target/usbd_conf.c ****   }
 305:USB_Device/Target/usbd_conf.c ****   /* USER CODE END 3 */
 306:USB_Device/Target/usbd_conf.c **** 
 307:USB_Device/Target/usbd_conf.c ****   USBD_LL_Resume((USBD_HandleTypeDef*)hpcd->pData);
 308:USB_Device/Target/usbd_conf.c ****   /* USER CODE BEGIN HAL_PCD_ResumeCallback_PostTreatment */
 309:USB_Device/Target/usbd_conf.c **** 
 310:USB_Device/Target/usbd_conf.c ****   /* USER CODE END HAL_PCD_ResumeCallback_PostTreatment */
 311:USB_Device/Target/usbd_conf.c **** }
 312:USB_Device/Target/usbd_conf.c **** 
 313:USB_Device/Target/usbd_conf.c **** /**
 314:USB_Device/Target/usbd_conf.c ****   * @brief  ISOOUTIncomplete callback.
 315:USB_Device/Target/usbd_conf.c ****   * @param  hpcd: PCD handle
ARM GAS  C:\Users\Nathan\AppData\Local\Temp\ccVQw5Zk.s 			page 7


 316:USB_Device/Target/usbd_conf.c ****   * @param  epnum: Endpoint number
 317:USB_Device/Target/usbd_conf.c ****   * @retval None
 318:USB_Device/Target/usbd_conf.c ****   */
 319:USB_Device/Target/usbd_conf.c **** #if (USE_HAL_PCD_REGISTER_CALLBACKS == 1U)
 320:USB_Device/Target/usbd_conf.c **** static void PCD_ISOOUTIncompleteCallback(PCD_HandleTypeDef *hpcd, uint8_t epnum)
 321:USB_Device/Target/usbd_conf.c **** #else
 322:USB_Device/Target/usbd_conf.c **** void HAL_PCD_ISOOUTIncompleteCallback(PCD_HandleTypeDef *hpcd, uint8_t epnum)
 323:USB_Device/Target/usbd_conf.c **** #endif /* USE_HAL_PCD_REGISTER_CALLBACKS */
 324:USB_Device/Target/usbd_conf.c **** {
 325:USB_Device/Target/usbd_conf.c ****   /* USER CODE BEGIN HAL_PCD_ISOOUTIncompleteCallback_PreTreatment */
 326:USB_Device/Target/usbd_conf.c **** 
 327:USB_Device/Target/usbd_conf.c ****   /* USER CODE END HAL_PCD_ISOOUTIncompleteCallback_PreTreatment */
 328:USB_Device/Target/usbd_conf.c ****   USBD_LL_IsoOUTIncomplete((USBD_HandleTypeDef*)hpcd->pData, epnum);
 329:USB_Device/Target/usbd_conf.c ****   /* USER CODE BEGIN HAL_PCD_ISOOUTIncompleteCallback_PostTreatment */
 330:USB_Device/Target/usbd_conf.c **** 
 331:USB_Device/Target/usbd_conf.c ****   /* USER CODE END HAL_PCD_ISOOUTIncompleteCallback_PostTreatment */
 332:USB_Device/Target/usbd_conf.c **** }
 333:USB_Device/Target/usbd_conf.c **** 
 334:USB_Device/Target/usbd_conf.c **** /**
 335:USB_Device/Target/usbd_conf.c ****   * @brief  ISOINIncomplete callback.
 336:USB_Device/Target/usbd_conf.c ****   * @param  hpcd: PCD handle
 337:USB_Device/Target/usbd_conf.c ****   * @param  epnum: Endpoint number
 338:USB_Device/Target/usbd_conf.c ****   * @retval None
 339:USB_Device/Target/usbd_conf.c ****   */
 340:USB_Device/Target/usbd_conf.c **** #if (USE_HAL_PCD_REGISTER_CALLBACKS == 1U)
 341:USB_Device/Target/usbd_conf.c **** static void PCD_ISOINIncompleteCallback(PCD_HandleTypeDef *hpcd, uint8_t epnum)
 342:USB_Device/Target/usbd_conf.c **** #else
 343:USB_Device/Target/usbd_conf.c **** void HAL_PCD_ISOINIncompleteCallback(PCD_HandleTypeDef *hpcd, uint8_t epnum)
 344:USB_Device/Target/usbd_conf.c **** #endif /* USE_HAL_PCD_REGISTER_CALLBACKS */
 345:USB_Device/Target/usbd_conf.c **** {
 346:USB_Device/Target/usbd_conf.c ****   /* USER CODE BEGIN HAL_PCD_ISOINIncompleteCallback_PreTreatment */
 347:USB_Device/Target/usbd_conf.c **** 
 348:USB_Device/Target/usbd_conf.c ****   /* USER CODE END HAL_PCD_ISOINIncompleteCallback_PreTreatment */
 349:USB_Device/Target/usbd_conf.c ****   USBD_LL_IsoINIncomplete((USBD_HandleTypeDef*)hpcd->pData, epnum);
 350:USB_Device/Target/usbd_conf.c ****   /* USER CODE BEGIN HAL_PCD_ISOINIncompleteCallback_PostTreatment */
 351:USB_Device/Target/usbd_conf.c **** 
 352:USB_Device/Target/usbd_conf.c ****   /* USER CODE END HAL_PCD_ISOINIncompleteCallback_PostTreatment */
 353:USB_Device/Target/usbd_conf.c **** }
 354:USB_Device/Target/usbd_conf.c **** 
 355:USB_Device/Target/usbd_conf.c **** /**
 356:USB_Device/Target/usbd_conf.c ****   * @brief  Connect callback.
 357:USB_Device/Target/usbd_conf.c ****   * @param  hpcd: PCD handle
 358:USB_Device/Target/usbd_conf.c ****   * @retval None
 359:USB_Device/Target/usbd_conf.c ****   */
 360:USB_Device/Target/usbd_conf.c **** #if (USE_HAL_PCD_REGISTER_CALLBACKS == 1U)
 361:USB_Device/Target/usbd_conf.c **** static void PCD_ConnectCallback(PCD_HandleTypeDef *hpcd)
 362:USB_Device/Target/usbd_conf.c **** #else
 363:USB_Device/Target/usbd_conf.c **** void HAL_PCD_ConnectCallback(PCD_HandleTypeDef *hpcd)
 364:USB_Device/Target/usbd_conf.c **** #endif /* USE_HAL_PCD_REGISTER_CALLBACKS */
 365:USB_Device/Target/usbd_conf.c **** {
 366:USB_Device/Target/usbd_conf.c ****   /* USER CODE BEGIN HAL_PCD_ConnectCallback_PreTreatment */
 367:USB_Device/Target/usbd_conf.c **** 
 368:USB_Device/Target/usbd_conf.c ****   /* USER CODE END HAL_PCD_ConnectCallback_PreTreatment */
 369:USB_Device/Target/usbd_conf.c ****   USBD_LL_DevConnected((USBD_HandleTypeDef*)hpcd->pData);
 370:USB_Device/Target/usbd_conf.c ****   /* USER CODE BEGIN HAL_PCD_ConnectCallback_PostTreatment */
 371:USB_Device/Target/usbd_conf.c **** 
 372:USB_Device/Target/usbd_conf.c ****   /* USER CODE END HAL_PCD_ConnectCallback_PostTreatment */
ARM GAS  C:\Users\Nathan\AppData\Local\Temp\ccVQw5Zk.s 			page 8


 373:USB_Device/Target/usbd_conf.c **** }
 374:USB_Device/Target/usbd_conf.c **** 
 375:USB_Device/Target/usbd_conf.c **** /**
 376:USB_Device/Target/usbd_conf.c ****   * @brief  Disconnect callback.
 377:USB_Device/Target/usbd_conf.c ****   * @param  hpcd: PCD handle
 378:USB_Device/Target/usbd_conf.c ****   * @retval None
 379:USB_Device/Target/usbd_conf.c ****   */
 380:USB_Device/Target/usbd_conf.c **** #if (USE_HAL_PCD_REGISTER_CALLBACKS == 1U)
 381:USB_Device/Target/usbd_conf.c **** static void PCD_DisconnectCallback(PCD_HandleTypeDef *hpcd)
 382:USB_Device/Target/usbd_conf.c **** #else
 383:USB_Device/Target/usbd_conf.c **** void HAL_PCD_DisconnectCallback(PCD_HandleTypeDef *hpcd)
 384:USB_Device/Target/usbd_conf.c **** #endif /* USE_HAL_PCD_REGISTER_CALLBACKS */
 385:USB_Device/Target/usbd_conf.c **** {
 386:USB_Device/Target/usbd_conf.c ****   /* USER CODE BEGIN HAL_PCD_DisconnectCallback_PreTreatment */
 387:USB_Device/Target/usbd_conf.c **** 
 388:USB_Device/Target/usbd_conf.c ****   /* USER CODE END HAL_PCD_DisconnectCallback_PreTreatment */
 389:USB_Device/Target/usbd_conf.c ****   USBD_LL_DevDisconnected((USBD_HandleTypeDef*)hpcd->pData);
 390:USB_Device/Target/usbd_conf.c ****   /* USER CODE BEGIN HAL_PCD_DisconnectCallback_PostTreatment */
 391:USB_Device/Target/usbd_conf.c **** 
 392:USB_Device/Target/usbd_conf.c ****   /* USER CODE END HAL_PCD_DisconnectCallback_PostTreatment */
 393:USB_Device/Target/usbd_conf.c **** }
 394:USB_Device/Target/usbd_conf.c **** 
 395:USB_Device/Target/usbd_conf.c ****   /* USER CODE BEGIN LowLevelInterface */
 396:USB_Device/Target/usbd_conf.c **** 
 397:USB_Device/Target/usbd_conf.c ****   /* USER CODE END LowLevelInterface */
 398:USB_Device/Target/usbd_conf.c **** 
 399:USB_Device/Target/usbd_conf.c **** /*******************************************************************************
 400:USB_Device/Target/usbd_conf.c ****                        LL Driver Interface (USB Device Library --> PCD)
 401:USB_Device/Target/usbd_conf.c **** *******************************************************************************/
 402:USB_Device/Target/usbd_conf.c **** 
 403:USB_Device/Target/usbd_conf.c **** /**
 404:USB_Device/Target/usbd_conf.c ****   * @brief  Initializes the low level portion of the device driver.
 405:USB_Device/Target/usbd_conf.c ****   * @param  pdev: Device handle
 406:USB_Device/Target/usbd_conf.c ****   * @retval USBD status
 407:USB_Device/Target/usbd_conf.c ****   */
 408:USB_Device/Target/usbd_conf.c **** USBD_StatusTypeDef USBD_LL_Init(USBD_HandleTypeDef *pdev)
 409:USB_Device/Target/usbd_conf.c **** {
 410:USB_Device/Target/usbd_conf.c ****   /* Init USB Ip. */
 411:USB_Device/Target/usbd_conf.c ****   hpcd_USB_FS.pData = pdev;
 412:USB_Device/Target/usbd_conf.c ****   /* Link the driver to the stack. */
 413:USB_Device/Target/usbd_conf.c ****   pdev->pData = &hpcd_USB_FS;
 414:USB_Device/Target/usbd_conf.c **** /* Enable USB power on Pwrctrl CR2 register. */
 415:USB_Device/Target/usbd_conf.c ****   HAL_PWREx_EnableVddUSB();
 416:USB_Device/Target/usbd_conf.c **** 
 417:USB_Device/Target/usbd_conf.c ****   hpcd_USB_FS.Instance = USB;
 418:USB_Device/Target/usbd_conf.c ****   hpcd_USB_FS.Init.dev_endpoints = 8;
 419:USB_Device/Target/usbd_conf.c ****   hpcd_USB_FS.Init.speed = PCD_SPEED_FULL;
 420:USB_Device/Target/usbd_conf.c ****   hpcd_USB_FS.Init.phy_itface = PCD_PHY_EMBEDDED;
 421:USB_Device/Target/usbd_conf.c ****   hpcd_USB_FS.Init.Sof_enable = DISABLE;
 422:USB_Device/Target/usbd_conf.c ****   hpcd_USB_FS.Init.low_power_enable = DISABLE;
 423:USB_Device/Target/usbd_conf.c ****   hpcd_USB_FS.Init.lpm_enable = DISABLE;
 424:USB_Device/Target/usbd_conf.c ****   hpcd_USB_FS.Init.battery_charging_enable = DISABLE;
 425:USB_Device/Target/usbd_conf.c **** 
 426:USB_Device/Target/usbd_conf.c ****   #if (USE_HAL_PCD_REGISTER_CALLBACKS == 1U)
 427:USB_Device/Target/usbd_conf.c ****   /* register Msp Callbacks (before the Init) */
 428:USB_Device/Target/usbd_conf.c ****   HAL_PCD_RegisterCallback(&hpcd_USB_FS, HAL_PCD_MSPINIT_CB_ID, PCD_MspInit);
 429:USB_Device/Target/usbd_conf.c ****   HAL_PCD_RegisterCallback(&hpcd_USB_FS, HAL_PCD_MSPDEINIT_CB_ID, PCD_MspDeInit);
ARM GAS  C:\Users\Nathan\AppData\Local\Temp\ccVQw5Zk.s 			page 9


 430:USB_Device/Target/usbd_conf.c ****   #endif /* USE_HAL_PCD_REGISTER_CALLBACKS */
 431:USB_Device/Target/usbd_conf.c **** 
 432:USB_Device/Target/usbd_conf.c ****   if (HAL_PCD_Init(&hpcd_USB_FS) != HAL_OK)
 433:USB_Device/Target/usbd_conf.c ****   {
 434:USB_Device/Target/usbd_conf.c ****     Error_Handler( );
 435:USB_Device/Target/usbd_conf.c ****   }
 436:USB_Device/Target/usbd_conf.c **** 
 437:USB_Device/Target/usbd_conf.c **** #if (USE_HAL_PCD_REGISTER_CALLBACKS == 1U)
 438:USB_Device/Target/usbd_conf.c ****   /* Register USB PCD CallBacks */
 439:USB_Device/Target/usbd_conf.c ****   HAL_PCD_RegisterCallback(&hpcd_USB_FS, HAL_PCD_SOF_CB_ID, PCD_SOFCallback);
 440:USB_Device/Target/usbd_conf.c ****   HAL_PCD_RegisterCallback(&hpcd_USB_FS, HAL_PCD_SETUPSTAGE_CB_ID, PCD_SetupStageCallback);
 441:USB_Device/Target/usbd_conf.c ****   HAL_PCD_RegisterCallback(&hpcd_USB_FS, HAL_PCD_RESET_CB_ID, PCD_ResetCallback);
 442:USB_Device/Target/usbd_conf.c ****   HAL_PCD_RegisterCallback(&hpcd_USB_FS, HAL_PCD_SUSPEND_CB_ID, PCD_SuspendCallback);
 443:USB_Device/Target/usbd_conf.c ****   HAL_PCD_RegisterCallback(&hpcd_USB_FS, HAL_PCD_RESUME_CB_ID, PCD_ResumeCallback);
 444:USB_Device/Target/usbd_conf.c ****   HAL_PCD_RegisterCallback(&hpcd_USB_FS, HAL_PCD_CONNECT_CB_ID, PCD_ConnectCallback);
 445:USB_Device/Target/usbd_conf.c ****   HAL_PCD_RegisterCallback(&hpcd_USB_FS, HAL_PCD_DISCONNECT_CB_ID, PCD_DisconnectCallback);
 446:USB_Device/Target/usbd_conf.c ****   /* USER CODE BEGIN RegisterCallBackFirstPart */
 447:USB_Device/Target/usbd_conf.c **** 
 448:USB_Device/Target/usbd_conf.c ****   /* USER CODE END RegisterCallBackFirstPart */
 449:USB_Device/Target/usbd_conf.c ****   HAL_PCD_RegisterLpmCallback(&hpcd_USB_FS, PCDEx_LPM_Callback);
 450:USB_Device/Target/usbd_conf.c ****   HAL_PCD_RegisterDataOutStageCallback(&hpcd_USB_FS, PCD_DataOutStageCallback);
 451:USB_Device/Target/usbd_conf.c ****   HAL_PCD_RegisterDataInStageCallback(&hpcd_USB_FS, PCD_DataInStageCallback);
 452:USB_Device/Target/usbd_conf.c ****   HAL_PCD_RegisterIsoOutIncpltCallback(&hpcd_USB_FS, PCD_ISOOUTIncompleteCallback);
 453:USB_Device/Target/usbd_conf.c ****   HAL_PCD_RegisterIsoInIncpltCallback(&hpcd_USB_FS, PCD_ISOINIncompleteCallback);
 454:USB_Device/Target/usbd_conf.c ****   /* USER CODE BEGIN RegisterCallBackSecondPart */
 455:USB_Device/Target/usbd_conf.c **** 
 456:USB_Device/Target/usbd_conf.c ****   /* USER CODE END RegisterCallBackSecondPart */
 457:USB_Device/Target/usbd_conf.c **** #endif /* USE_HAL_PCD_REGISTER_CALLBACKS */
 458:USB_Device/Target/usbd_conf.c ****   /* USER CODE BEGIN EndPoint_Configuration */
 459:USB_Device/Target/usbd_conf.c ****   HAL_PCDEx_PMAConfig((PCD_HandleTypeDef*)pdev->pData , 0x00 , PCD_SNG_BUF, 0x18);
 460:USB_Device/Target/usbd_conf.c ****   HAL_PCDEx_PMAConfig((PCD_HandleTypeDef*)pdev->pData , 0x80 , PCD_SNG_BUF, 0x58);
 461:USB_Device/Target/usbd_conf.c ****   /* USER CODE END EndPoint_Configuration */
 462:USB_Device/Target/usbd_conf.c ****   /* USER CODE BEGIN EndPoint_Configuration_CDC */
 463:USB_Device/Target/usbd_conf.c ****   HAL_PCDEx_PMAConfig((PCD_HandleTypeDef*)pdev->pData , 0x81 , PCD_SNG_BUF, 0xC0);
 464:USB_Device/Target/usbd_conf.c ****   HAL_PCDEx_PMAConfig((PCD_HandleTypeDef*)pdev->pData , 0x01 , PCD_SNG_BUF, 0x110);
 465:USB_Device/Target/usbd_conf.c ****   HAL_PCDEx_PMAConfig((PCD_HandleTypeDef*)pdev->pData , 0x82 , PCD_SNG_BUF, 0x100);
 466:USB_Device/Target/usbd_conf.c ****   /* USER CODE END EndPoint_Configuration_CDC */
 467:USB_Device/Target/usbd_conf.c ****   return USBD_OK;
 468:USB_Device/Target/usbd_conf.c **** }
 469:USB_Device/Target/usbd_conf.c **** 
 470:USB_Device/Target/usbd_conf.c **** /**
 471:USB_Device/Target/usbd_conf.c ****   * @brief  De-Initializes the low level portion of the device driver.
 472:USB_Device/Target/usbd_conf.c ****   * @param  pdev: Device handle
 473:USB_Device/Target/usbd_conf.c ****   * @retval USBD status
 474:USB_Device/Target/usbd_conf.c ****   */
 475:USB_Device/Target/usbd_conf.c **** USBD_StatusTypeDef USBD_LL_DeInit(USBD_HandleTypeDef *pdev)
 476:USB_Device/Target/usbd_conf.c **** {
 477:USB_Device/Target/usbd_conf.c ****   HAL_StatusTypeDef hal_status = HAL_OK;
 478:USB_Device/Target/usbd_conf.c ****   USBD_StatusTypeDef usb_status = USBD_OK;
 479:USB_Device/Target/usbd_conf.c **** 
 480:USB_Device/Target/usbd_conf.c ****   hal_status = HAL_PCD_DeInit(pdev->pData);
 481:USB_Device/Target/usbd_conf.c **** 
 482:USB_Device/Target/usbd_conf.c ****   usb_status =  USBD_Get_USB_Status(hal_status);
 483:USB_Device/Target/usbd_conf.c **** 
 484:USB_Device/Target/usbd_conf.c ****   return usb_status;
 485:USB_Device/Target/usbd_conf.c **** }
 486:USB_Device/Target/usbd_conf.c **** 
ARM GAS  C:\Users\Nathan\AppData\Local\Temp\ccVQw5Zk.s 			page 10


 487:USB_Device/Target/usbd_conf.c **** /**
 488:USB_Device/Target/usbd_conf.c ****   * @brief  Starts the low level portion of the device driver.
 489:USB_Device/Target/usbd_conf.c ****   * @param  pdev: Device handle
 490:USB_Device/Target/usbd_conf.c ****   * @retval USBD status
 491:USB_Device/Target/usbd_conf.c ****   */
 492:USB_Device/Target/usbd_conf.c **** USBD_StatusTypeDef USBD_LL_Start(USBD_HandleTypeDef *pdev)
 493:USB_Device/Target/usbd_conf.c **** {
 494:USB_Device/Target/usbd_conf.c ****   HAL_StatusTypeDef hal_status = HAL_OK;
 495:USB_Device/Target/usbd_conf.c ****   USBD_StatusTypeDef usb_status = USBD_OK;
 496:USB_Device/Target/usbd_conf.c **** 
 497:USB_Device/Target/usbd_conf.c ****   hal_status = HAL_PCD_Start(pdev->pData);
 498:USB_Device/Target/usbd_conf.c **** 
 499:USB_Device/Target/usbd_conf.c ****   usb_status =  USBD_Get_USB_Status(hal_status);
 500:USB_Device/Target/usbd_conf.c **** 
 501:USB_Device/Target/usbd_conf.c ****   return usb_status;
 502:USB_Device/Target/usbd_conf.c **** }
 503:USB_Device/Target/usbd_conf.c **** 
 504:USB_Device/Target/usbd_conf.c **** /**
 505:USB_Device/Target/usbd_conf.c ****   * @brief  Stops the low level portion of the device driver.
 506:USB_Device/Target/usbd_conf.c ****   * @param  pdev: Device handle
 507:USB_Device/Target/usbd_conf.c ****   * @retval USBD status
 508:USB_Device/Target/usbd_conf.c ****   */
 509:USB_Device/Target/usbd_conf.c **** USBD_StatusTypeDef USBD_LL_Stop(USBD_HandleTypeDef *pdev)
 510:USB_Device/Target/usbd_conf.c **** {
 511:USB_Device/Target/usbd_conf.c ****   HAL_StatusTypeDef hal_status = HAL_OK;
 512:USB_Device/Target/usbd_conf.c ****   USBD_StatusTypeDef usb_status = USBD_OK;
 513:USB_Device/Target/usbd_conf.c **** 
 514:USB_Device/Target/usbd_conf.c ****   hal_status = HAL_PCD_Stop(pdev->pData);
 515:USB_Device/Target/usbd_conf.c **** 
 516:USB_Device/Target/usbd_conf.c ****   usb_status =  USBD_Get_USB_Status(hal_status);
 517:USB_Device/Target/usbd_conf.c **** 
 518:USB_Device/Target/usbd_conf.c ****   return usb_status;
 519:USB_Device/Target/usbd_conf.c **** }
 520:USB_Device/Target/usbd_conf.c **** 
 521:USB_Device/Target/usbd_conf.c **** /**
 522:USB_Device/Target/usbd_conf.c ****   * @brief  Opens an endpoint of the low level driver.
 523:USB_Device/Target/usbd_conf.c ****   * @param  pdev: Device handle
 524:USB_Device/Target/usbd_conf.c ****   * @param  ep_addr: Endpoint number
 525:USB_Device/Target/usbd_conf.c ****   * @param  ep_type: Endpoint type
 526:USB_Device/Target/usbd_conf.c ****   * @param  ep_mps: Endpoint max packet size
 527:USB_Device/Target/usbd_conf.c ****   * @retval USBD status
 528:USB_Device/Target/usbd_conf.c ****   */
 529:USB_Device/Target/usbd_conf.c **** USBD_StatusTypeDef USBD_LL_OpenEP(USBD_HandleTypeDef *pdev, uint8_t ep_addr, uint8_t ep_type, uint1
 530:USB_Device/Target/usbd_conf.c **** {
 531:USB_Device/Target/usbd_conf.c ****   HAL_StatusTypeDef hal_status = HAL_OK;
 532:USB_Device/Target/usbd_conf.c ****   USBD_StatusTypeDef usb_status = USBD_OK;
 533:USB_Device/Target/usbd_conf.c **** 
 534:USB_Device/Target/usbd_conf.c ****   hal_status = HAL_PCD_EP_Open(pdev->pData, ep_addr, ep_mps, ep_type);
 535:USB_Device/Target/usbd_conf.c **** 
 536:USB_Device/Target/usbd_conf.c ****   usb_status =  USBD_Get_USB_Status(hal_status);
 537:USB_Device/Target/usbd_conf.c **** 
 538:USB_Device/Target/usbd_conf.c ****   return usb_status;
 539:USB_Device/Target/usbd_conf.c **** }
 540:USB_Device/Target/usbd_conf.c **** 
 541:USB_Device/Target/usbd_conf.c **** /**
 542:USB_Device/Target/usbd_conf.c ****   * @brief  Closes an endpoint of the low level driver.
 543:USB_Device/Target/usbd_conf.c ****   * @param  pdev: Device handle
ARM GAS  C:\Users\Nathan\AppData\Local\Temp\ccVQw5Zk.s 			page 11


 544:USB_Device/Target/usbd_conf.c ****   * @param  ep_addr: Endpoint number
 545:USB_Device/Target/usbd_conf.c ****   * @retval USBD status
 546:USB_Device/Target/usbd_conf.c ****   */
 547:USB_Device/Target/usbd_conf.c **** USBD_StatusTypeDef USBD_LL_CloseEP(USBD_HandleTypeDef *pdev, uint8_t ep_addr)
 548:USB_Device/Target/usbd_conf.c **** {
 549:USB_Device/Target/usbd_conf.c ****   HAL_StatusTypeDef hal_status = HAL_OK;
 550:USB_Device/Target/usbd_conf.c ****   USBD_StatusTypeDef usb_status = USBD_OK;
 551:USB_Device/Target/usbd_conf.c **** 
 552:USB_Device/Target/usbd_conf.c ****   hal_status = HAL_PCD_EP_Close(pdev->pData, ep_addr);
 553:USB_Device/Target/usbd_conf.c **** 
 554:USB_Device/Target/usbd_conf.c ****   usb_status =  USBD_Get_USB_Status(hal_status);
 555:USB_Device/Target/usbd_conf.c **** 
 556:USB_Device/Target/usbd_conf.c ****   return usb_status;
 557:USB_Device/Target/usbd_conf.c **** }
 558:USB_Device/Target/usbd_conf.c **** 
 559:USB_Device/Target/usbd_conf.c **** /**
 560:USB_Device/Target/usbd_conf.c ****   * @brief  Flushes an endpoint of the Low Level Driver.
 561:USB_Device/Target/usbd_conf.c ****   * @param  pdev: Device handle
 562:USB_Device/Target/usbd_conf.c ****   * @param  ep_addr: Endpoint number
 563:USB_Device/Target/usbd_conf.c ****   * @retval USBD status
 564:USB_Device/Target/usbd_conf.c ****   */
 565:USB_Device/Target/usbd_conf.c **** USBD_StatusTypeDef USBD_LL_FlushEP(USBD_HandleTypeDef *pdev, uint8_t ep_addr)
 566:USB_Device/Target/usbd_conf.c **** {
 567:USB_Device/Target/usbd_conf.c ****   HAL_StatusTypeDef hal_status = HAL_OK;
 568:USB_Device/Target/usbd_conf.c ****   USBD_StatusTypeDef usb_status = USBD_OK;
 569:USB_Device/Target/usbd_conf.c **** 
 570:USB_Device/Target/usbd_conf.c ****   hal_status = HAL_PCD_EP_Flush(pdev->pData, ep_addr);
 571:USB_Device/Target/usbd_conf.c **** 
 572:USB_Device/Target/usbd_conf.c ****   usb_status =  USBD_Get_USB_Status(hal_status);
 573:USB_Device/Target/usbd_conf.c **** 
 574:USB_Device/Target/usbd_conf.c ****   return usb_status;
 575:USB_Device/Target/usbd_conf.c **** }
 576:USB_Device/Target/usbd_conf.c **** 
 577:USB_Device/Target/usbd_conf.c **** /**
 578:USB_Device/Target/usbd_conf.c ****   * @brief  Sets a Stall condition on an endpoint of the Low Level Driver.
 579:USB_Device/Target/usbd_conf.c ****   * @param  pdev: Device handle
 580:USB_Device/Target/usbd_conf.c ****   * @param  ep_addr: Endpoint number
 581:USB_Device/Target/usbd_conf.c ****   * @retval USBD status
 582:USB_Device/Target/usbd_conf.c ****   */
 583:USB_Device/Target/usbd_conf.c **** USBD_StatusTypeDef USBD_LL_StallEP(USBD_HandleTypeDef *pdev, uint8_t ep_addr)
 584:USB_Device/Target/usbd_conf.c **** {
 585:USB_Device/Target/usbd_conf.c ****   HAL_StatusTypeDef hal_status = HAL_OK;
 586:USB_Device/Target/usbd_conf.c ****   USBD_StatusTypeDef usb_status = USBD_OK;
 587:USB_Device/Target/usbd_conf.c **** 
 588:USB_Device/Target/usbd_conf.c ****   hal_status = HAL_PCD_EP_SetStall(pdev->pData, ep_addr);
 589:USB_Device/Target/usbd_conf.c **** 
 590:USB_Device/Target/usbd_conf.c ****   usb_status =  USBD_Get_USB_Status(hal_status);
 591:USB_Device/Target/usbd_conf.c **** 
 592:USB_Device/Target/usbd_conf.c ****   return usb_status;
 593:USB_Device/Target/usbd_conf.c **** }
 594:USB_Device/Target/usbd_conf.c **** 
 595:USB_Device/Target/usbd_conf.c **** /**
 596:USB_Device/Target/usbd_conf.c ****   * @brief  Clears a Stall condition on an endpoint of the Low Level Driver.
 597:USB_Device/Target/usbd_conf.c ****   * @param  pdev: Device handle
 598:USB_Device/Target/usbd_conf.c ****   * @param  ep_addr: Endpoint number
 599:USB_Device/Target/usbd_conf.c ****   * @retval USBD status
 600:USB_Device/Target/usbd_conf.c ****   */
ARM GAS  C:\Users\Nathan\AppData\Local\Temp\ccVQw5Zk.s 			page 12


 601:USB_Device/Target/usbd_conf.c **** USBD_StatusTypeDef USBD_LL_ClearStallEP(USBD_HandleTypeDef *pdev, uint8_t ep_addr)
 602:USB_Device/Target/usbd_conf.c **** {
 603:USB_Device/Target/usbd_conf.c ****   HAL_StatusTypeDef hal_status = HAL_OK;
 604:USB_Device/Target/usbd_conf.c ****   USBD_StatusTypeDef usb_status = USBD_OK;
 605:USB_Device/Target/usbd_conf.c **** 
 606:USB_Device/Target/usbd_conf.c ****   hal_status = HAL_PCD_EP_ClrStall(pdev->pData, ep_addr);
 607:USB_Device/Target/usbd_conf.c **** 
 608:USB_Device/Target/usbd_conf.c ****   usb_status =  USBD_Get_USB_Status(hal_status);
 609:USB_Device/Target/usbd_conf.c **** 
 610:USB_Device/Target/usbd_conf.c ****   return usb_status;
 611:USB_Device/Target/usbd_conf.c **** }
 612:USB_Device/Target/usbd_conf.c **** 
 613:USB_Device/Target/usbd_conf.c **** /**
 614:USB_Device/Target/usbd_conf.c ****   * @brief  Returns Stall condition.
 615:USB_Device/Target/usbd_conf.c ****   * @param  pdev: Device handle
 616:USB_Device/Target/usbd_conf.c ****   * @param  ep_addr: Endpoint number
 617:USB_Device/Target/usbd_conf.c ****   * @retval Stall (1: Yes, 0: No)
 618:USB_Device/Target/usbd_conf.c ****   */
 619:USB_Device/Target/usbd_conf.c **** uint8_t USBD_LL_IsStallEP(USBD_HandleTypeDef *pdev, uint8_t ep_addr)
 620:USB_Device/Target/usbd_conf.c **** {
 621:USB_Device/Target/usbd_conf.c ****   PCD_HandleTypeDef *hpcd = (PCD_HandleTypeDef*) pdev->pData;
 622:USB_Device/Target/usbd_conf.c **** 
 623:USB_Device/Target/usbd_conf.c ****   if((ep_addr & 0x80) == 0x80)
 624:USB_Device/Target/usbd_conf.c ****   {
 625:USB_Device/Target/usbd_conf.c ****     return hpcd->IN_ep[ep_addr & 0x7F].is_stall;
 626:USB_Device/Target/usbd_conf.c ****   }
 627:USB_Device/Target/usbd_conf.c ****   else
 628:USB_Device/Target/usbd_conf.c ****   {
 629:USB_Device/Target/usbd_conf.c ****     return hpcd->OUT_ep[ep_addr & 0x7F].is_stall;
 630:USB_Device/Target/usbd_conf.c ****   }
 631:USB_Device/Target/usbd_conf.c **** }
 632:USB_Device/Target/usbd_conf.c **** 
 633:USB_Device/Target/usbd_conf.c **** /**
 634:USB_Device/Target/usbd_conf.c ****   * @brief  Assigns a USB address to the device.
 635:USB_Device/Target/usbd_conf.c ****   * @param  pdev: Device handle
 636:USB_Device/Target/usbd_conf.c ****   * @param  dev_addr: Device address
 637:USB_Device/Target/usbd_conf.c ****   * @retval USBD status
 638:USB_Device/Target/usbd_conf.c ****   */
 639:USB_Device/Target/usbd_conf.c **** USBD_StatusTypeDef USBD_LL_SetUSBAddress(USBD_HandleTypeDef *pdev, uint8_t dev_addr)
 640:USB_Device/Target/usbd_conf.c **** {
 641:USB_Device/Target/usbd_conf.c ****   HAL_StatusTypeDef hal_status = HAL_OK;
 642:USB_Device/Target/usbd_conf.c ****   USBD_StatusTypeDef usb_status = USBD_OK;
 643:USB_Device/Target/usbd_conf.c **** 
 644:USB_Device/Target/usbd_conf.c ****   hal_status = HAL_PCD_SetAddress(pdev->pData, dev_addr);
 645:USB_Device/Target/usbd_conf.c **** 
 646:USB_Device/Target/usbd_conf.c ****   usb_status =  USBD_Get_USB_Status(hal_status);
 647:USB_Device/Target/usbd_conf.c **** 
 648:USB_Device/Target/usbd_conf.c ****   return usb_status;
 649:USB_Device/Target/usbd_conf.c **** }
 650:USB_Device/Target/usbd_conf.c **** 
 651:USB_Device/Target/usbd_conf.c **** /**
 652:USB_Device/Target/usbd_conf.c ****   * @brief  Transmits data over an endpoint.
 653:USB_Device/Target/usbd_conf.c ****   * @param  pdev: Device handle
 654:USB_Device/Target/usbd_conf.c ****   * @param  ep_addr: Endpoint number
 655:USB_Device/Target/usbd_conf.c ****   * @param  pbuf: Pointer to data to be sent
 656:USB_Device/Target/usbd_conf.c ****   * @param  size: Data size
 657:USB_Device/Target/usbd_conf.c ****   * @retval USBD status
ARM GAS  C:\Users\Nathan\AppData\Local\Temp\ccVQw5Zk.s 			page 13


 658:USB_Device/Target/usbd_conf.c ****   */
 659:USB_Device/Target/usbd_conf.c **** USBD_StatusTypeDef USBD_LL_Transmit(USBD_HandleTypeDef *pdev, uint8_t ep_addr, uint8_t *pbuf, uint3
 660:USB_Device/Target/usbd_conf.c **** {
 661:USB_Device/Target/usbd_conf.c ****   HAL_StatusTypeDef hal_status = HAL_OK;
 662:USB_Device/Target/usbd_conf.c ****   USBD_StatusTypeDef usb_status = USBD_OK;
 663:USB_Device/Target/usbd_conf.c **** 
 664:USB_Device/Target/usbd_conf.c ****   hal_status = HAL_PCD_EP_Transmit(pdev->pData, ep_addr, pbuf, size);
 665:USB_Device/Target/usbd_conf.c **** 
 666:USB_Device/Target/usbd_conf.c ****   usb_status =  USBD_Get_USB_Status(hal_status);
 667:USB_Device/Target/usbd_conf.c **** 
 668:USB_Device/Target/usbd_conf.c ****   return usb_status;
 669:USB_Device/Target/usbd_conf.c **** }
 670:USB_Device/Target/usbd_conf.c **** 
 671:USB_Device/Target/usbd_conf.c **** /**
 672:USB_Device/Target/usbd_conf.c ****   * @brief  Prepares an endpoint for reception.
 673:USB_Device/Target/usbd_conf.c ****   * @param  pdev: Device handle
 674:USB_Device/Target/usbd_conf.c ****   * @param  ep_addr: Endpoint number
 675:USB_Device/Target/usbd_conf.c ****   * @param  pbuf: Pointer to data to be received
 676:USB_Device/Target/usbd_conf.c ****   * @param  size: Data size
 677:USB_Device/Target/usbd_conf.c ****   * @retval USBD status
 678:USB_Device/Target/usbd_conf.c ****   */
 679:USB_Device/Target/usbd_conf.c **** USBD_StatusTypeDef USBD_LL_PrepareReceive(USBD_HandleTypeDef *pdev, uint8_t ep_addr, uint8_t *pbuf,
 680:USB_Device/Target/usbd_conf.c **** {
 681:USB_Device/Target/usbd_conf.c ****   HAL_StatusTypeDef hal_status = HAL_OK;
 682:USB_Device/Target/usbd_conf.c ****   USBD_StatusTypeDef usb_status = USBD_OK;
 683:USB_Device/Target/usbd_conf.c **** 
 684:USB_Device/Target/usbd_conf.c ****   hal_status = HAL_PCD_EP_Receive(pdev->pData, ep_addr, pbuf, size);
 685:USB_Device/Target/usbd_conf.c **** 
 686:USB_Device/Target/usbd_conf.c ****   usb_status =  USBD_Get_USB_Status(hal_status);
 687:USB_Device/Target/usbd_conf.c **** 
 688:USB_Device/Target/usbd_conf.c ****   return usb_status;
 689:USB_Device/Target/usbd_conf.c **** }
 690:USB_Device/Target/usbd_conf.c **** 
 691:USB_Device/Target/usbd_conf.c **** /**
 692:USB_Device/Target/usbd_conf.c ****   * @brief  Returns the last transferred packet size.
 693:USB_Device/Target/usbd_conf.c ****   * @param  pdev: Device handle
 694:USB_Device/Target/usbd_conf.c ****   * @param  ep_addr: Endpoint number
 695:USB_Device/Target/usbd_conf.c ****   * @retval Received Data Size
 696:USB_Device/Target/usbd_conf.c ****   */
 697:USB_Device/Target/usbd_conf.c **** uint32_t USBD_LL_GetRxDataSize(USBD_HandleTypeDef *pdev, uint8_t ep_addr)
 698:USB_Device/Target/usbd_conf.c **** {
 699:USB_Device/Target/usbd_conf.c ****   return HAL_PCD_EP_GetRxCount((PCD_HandleTypeDef*) pdev->pData, ep_addr);
 700:USB_Device/Target/usbd_conf.c **** }
 701:USB_Device/Target/usbd_conf.c **** 
 702:USB_Device/Target/usbd_conf.c **** /**
 703:USB_Device/Target/usbd_conf.c ****   * @brief  Send LPM message to user layer
 704:USB_Device/Target/usbd_conf.c ****   * @param  hpcd: PCD handle
 705:USB_Device/Target/usbd_conf.c ****   * @param  msg: LPM message
 706:USB_Device/Target/usbd_conf.c ****   * @retval None
 707:USB_Device/Target/usbd_conf.c ****   */
 708:USB_Device/Target/usbd_conf.c **** #if (USE_HAL_PCD_REGISTER_CALLBACKS == 1U)
 709:USB_Device/Target/usbd_conf.c **** static void PCDEx_LPM_Callback(PCD_HandleTypeDef *hpcd, PCD_LPM_MsgTypeDef msg)
 710:USB_Device/Target/usbd_conf.c **** #else
 711:USB_Device/Target/usbd_conf.c **** void HAL_PCDEx_LPM_Callback(PCD_HandleTypeDef *hpcd, PCD_LPM_MsgTypeDef msg)
 712:USB_Device/Target/usbd_conf.c **** #endif /* USE_HAL_PCD_REGISTER_CALLBACKS */
 713:USB_Device/Target/usbd_conf.c **** {
 714:USB_Device/Target/usbd_conf.c ****   /* USER CODE BEGIN LPM_Callback */
ARM GAS  C:\Users\Nathan\AppData\Local\Temp\ccVQw5Zk.s 			page 14


 715:USB_Device/Target/usbd_conf.c ****   switch (msg)
 716:USB_Device/Target/usbd_conf.c ****   {
 717:USB_Device/Target/usbd_conf.c ****   case PCD_LPM_L0_ACTIVE:
 718:USB_Device/Target/usbd_conf.c ****     if (hpcd->Init.low_power_enable)
 719:USB_Device/Target/usbd_conf.c ****     {
 720:USB_Device/Target/usbd_conf.c ****       SystemClockConfig_Resume();
 721:USB_Device/Target/usbd_conf.c **** 
 722:USB_Device/Target/usbd_conf.c ****       /* Reset SLEEPDEEP bit of Cortex System Control Register. */
 723:USB_Device/Target/usbd_conf.c ****       SCB->SCR &= (uint32_t)~((uint32_t)(SCB_SCR_SLEEPDEEP_Msk | SCB_SCR_SLEEPONEXIT_Msk));
 724:USB_Device/Target/usbd_conf.c ****     }
 725:USB_Device/Target/usbd_conf.c ****     USBD_LL_Resume(hpcd->pData);
 726:USB_Device/Target/usbd_conf.c ****     break;
 727:USB_Device/Target/usbd_conf.c **** 
 728:USB_Device/Target/usbd_conf.c ****   case PCD_LPM_L1_ACTIVE:
 729:USB_Device/Target/usbd_conf.c ****     USBD_LL_Suspend(hpcd->pData);
 730:USB_Device/Target/usbd_conf.c **** 
 731:USB_Device/Target/usbd_conf.c ****     /* Enter in STOP mode. */
 732:USB_Device/Target/usbd_conf.c ****     if (hpcd->Init.low_power_enable)
 733:USB_Device/Target/usbd_conf.c ****     {
 734:USB_Device/Target/usbd_conf.c ****       /* Set SLEEPDEEP bit and SleepOnExit of Cortex System Control Register. */
 735:USB_Device/Target/usbd_conf.c ****       SCB->SCR |= (uint32_t)((uint32_t)(SCB_SCR_SLEEPDEEP_Msk | SCB_SCR_SLEEPONEXIT_Msk));
 736:USB_Device/Target/usbd_conf.c ****     }
 737:USB_Device/Target/usbd_conf.c ****     break;
 738:USB_Device/Target/usbd_conf.c ****   }
 739:USB_Device/Target/usbd_conf.c ****   /* USER CODE END LPM_Callback */
 740:USB_Device/Target/usbd_conf.c **** }
 741:USB_Device/Target/usbd_conf.c **** 
 742:USB_Device/Target/usbd_conf.c **** /**
 743:USB_Device/Target/usbd_conf.c ****   * @brief  Delays routine for the USB Device Library.
 744:USB_Device/Target/usbd_conf.c ****   * @param  Delay: Delay in ms
 745:USB_Device/Target/usbd_conf.c ****   * @retval None
 746:USB_Device/Target/usbd_conf.c ****   */
 747:USB_Device/Target/usbd_conf.c **** void USBD_LL_Delay(uint32_t Delay)
 748:USB_Device/Target/usbd_conf.c **** {
 749:USB_Device/Target/usbd_conf.c ****   HAL_Delay(Delay);
 750:USB_Device/Target/usbd_conf.c **** }
 751:USB_Device/Target/usbd_conf.c **** 
 752:USB_Device/Target/usbd_conf.c **** /**
 753:USB_Device/Target/usbd_conf.c ****   * @brief  Static single allocation.
 754:USB_Device/Target/usbd_conf.c ****   * @param  size: Size of allocated memory
 755:USB_Device/Target/usbd_conf.c ****   * @retval None
 756:USB_Device/Target/usbd_conf.c ****   */
 757:USB_Device/Target/usbd_conf.c **** void *USBD_static_malloc(uint32_t size)
 758:USB_Device/Target/usbd_conf.c **** {
 759:USB_Device/Target/usbd_conf.c ****   UNUSED(size);
 760:USB_Device/Target/usbd_conf.c ****   static uint32_t mem[(sizeof(USBD_CDC_HandleTypeDef)/4)+1];/* On 32-bit boundary */
 761:USB_Device/Target/usbd_conf.c ****   return mem;
 762:USB_Device/Target/usbd_conf.c **** }
 763:USB_Device/Target/usbd_conf.c **** 
 764:USB_Device/Target/usbd_conf.c **** /**
 765:USB_Device/Target/usbd_conf.c ****   * @brief  Dummy memory free
 766:USB_Device/Target/usbd_conf.c ****   * @param  p: Pointer to allocated  memory address
 767:USB_Device/Target/usbd_conf.c ****   * @retval None
 768:USB_Device/Target/usbd_conf.c ****   */
 769:USB_Device/Target/usbd_conf.c **** void USBD_static_free(void *p)
 770:USB_Device/Target/usbd_conf.c **** {
 771:USB_Device/Target/usbd_conf.c ****   UNUSED(p);
ARM GAS  C:\Users\Nathan\AppData\Local\Temp\ccVQw5Zk.s 			page 15


 772:USB_Device/Target/usbd_conf.c **** }
 773:USB_Device/Target/usbd_conf.c **** 
 774:USB_Device/Target/usbd_conf.c **** /* USER CODE BEGIN 5 */
 775:USB_Device/Target/usbd_conf.c **** /**
 776:USB_Device/Target/usbd_conf.c ****   * @brief  Configures system clock after wake-up from USB resume callBack:
 777:USB_Device/Target/usbd_conf.c ****   *         enable HSI, PLL and select PLL as system clock source.
 778:USB_Device/Target/usbd_conf.c ****   * @retval None
 779:USB_Device/Target/usbd_conf.c ****   */
 780:USB_Device/Target/usbd_conf.c **** static void SystemClockConfig_Resume(void)
 781:USB_Device/Target/usbd_conf.c **** {
 782:USB_Device/Target/usbd_conf.c ****   SystemClock_Config();
 783:USB_Device/Target/usbd_conf.c **** }
 784:USB_Device/Target/usbd_conf.c **** /* USER CODE END 5 */
 785:USB_Device/Target/usbd_conf.c **** 
 786:USB_Device/Target/usbd_conf.c **** /**
 787:USB_Device/Target/usbd_conf.c ****   * @brief  Returns the USB status depending on the HAL status:
 788:USB_Device/Target/usbd_conf.c ****   * @param  hal_status: HAL status
 789:USB_Device/Target/usbd_conf.c ****   * @retval USB status
 790:USB_Device/Target/usbd_conf.c ****   */
 791:USB_Device/Target/usbd_conf.c **** USBD_StatusTypeDef USBD_Get_USB_Status(HAL_StatusTypeDef hal_status)
 792:USB_Device/Target/usbd_conf.c **** {
  29              		.loc 1 792 1 view -0
  30              		.cfi_startproc
  31              		@ args = 0, pretend = 0, frame = 0
  32              		@ frame_needed = 0, uses_anonymous_args = 0
  33              		@ link register save eliminated.
 793:USB_Device/Target/usbd_conf.c ****   USBD_StatusTypeDef usb_status = USBD_OK;
  34              		.loc 1 793 3 view .LVU1
 794:USB_Device/Target/usbd_conf.c **** 
 795:USB_Device/Target/usbd_conf.c ****   switch (hal_status)
  35              		.loc 1 795 3 view .LVU2
  36 0000 0328     		cmp	r0, #3
  37 0002 05D8     		bhi	.L7
  38 0004 DFE800F0 		tbb	[pc, r0]
  39              	.L4:
  40 0008 05       		.byte	(.L2-.L4)/2
  41 0009 04       		.byte	(.L7-.L4)/2
  42 000a 02       		.byte	(.L5-.L4)/2
  43 000b 05       		.byte	(.L2-.L4)/2
  44              		.p2align 1
  45              	.L5:
 796:USB_Device/Target/usbd_conf.c ****   {
 797:USB_Device/Target/usbd_conf.c ****     case HAL_OK :
 798:USB_Device/Target/usbd_conf.c ****       usb_status = USBD_OK;
 799:USB_Device/Target/usbd_conf.c ****     break;
 800:USB_Device/Target/usbd_conf.c ****     case HAL_ERROR :
 801:USB_Device/Target/usbd_conf.c ****       usb_status = USBD_FAIL;
 802:USB_Device/Target/usbd_conf.c ****     break;
 803:USB_Device/Target/usbd_conf.c ****     case HAL_BUSY :
 804:USB_Device/Target/usbd_conf.c ****       usb_status = USBD_BUSY;
  46              		.loc 1 804 7 view .LVU3
  47              	.LVL1:
 805:USB_Device/Target/usbd_conf.c ****     break;
  48              		.loc 1 805 5 view .LVU4
 804:USB_Device/Target/usbd_conf.c ****     break;
  49              		.loc 1 804 18 is_stmt 0 view .LVU5
  50 000c 0120     		movs	r0, #1
ARM GAS  C:\Users\Nathan\AppData\Local\Temp\ccVQw5Zk.s 			page 16


  51              	.LVL2:
  52              		.loc 1 805 5 view .LVU6
  53 000e 7047     		bx	lr
  54              	.LVL3:
  55              	.L7:
 801:USB_Device/Target/usbd_conf.c ****     break;
  56              		.loc 1 801 18 view .LVU7
  57 0010 0320     		movs	r0, #3
  58              	.LVL4:
  59              	.L2:
 806:USB_Device/Target/usbd_conf.c ****     case HAL_TIMEOUT :
 807:USB_Device/Target/usbd_conf.c ****       usb_status = USBD_FAIL;
 808:USB_Device/Target/usbd_conf.c ****     break;
 809:USB_Device/Target/usbd_conf.c ****     default :
 810:USB_Device/Target/usbd_conf.c ****       usb_status = USBD_FAIL;
 811:USB_Device/Target/usbd_conf.c ****     break;
 812:USB_Device/Target/usbd_conf.c ****   }
 813:USB_Device/Target/usbd_conf.c ****   return usb_status;
  60              		.loc 1 813 3 is_stmt 1 view .LVU8
 814:USB_Device/Target/usbd_conf.c **** }
  61              		.loc 1 814 1 is_stmt 0 view .LVU9
  62 0012 7047     		bx	lr
  63              		.cfi_endproc
  64              	.LFE1448:
  66              		.section	.text.SystemClockConfig_Resume,"ax",%progbits
  67              		.align	1
  68              		.syntax unified
  69              		.thumb
  70              		.thumb_func
  72              	SystemClockConfig_Resume:
  73              	.LFB1447:
 781:USB_Device/Target/usbd_conf.c ****   SystemClock_Config();
  74              		.loc 1 781 1 is_stmt 1 view -0
  75              		.cfi_startproc
  76              		@ args = 0, pretend = 0, frame = 0
  77              		@ frame_needed = 0, uses_anonymous_args = 0
  78 0000 08B5     		push	{r3, lr}
  79              		.cfi_def_cfa_offset 8
  80              		.cfi_offset 3, -8
  81              		.cfi_offset 14, -4
 782:USB_Device/Target/usbd_conf.c **** }
  82              		.loc 1 782 3 view .LVU11
  83 0002 FFF7FEFF 		bl	SystemClock_Config
  84              	.LVL5:
 783:USB_Device/Target/usbd_conf.c **** /* USER CODE END 5 */
  85              		.loc 1 783 1 is_stmt 0 view .LVU12
  86 0006 08BD     		pop	{r3, pc}
  87              		.cfi_endproc
  88              	.LFE1447:
  90              		.section	.text.HAL_PCD_MspInit,"ax",%progbits
  91              		.align	1
  92              		.global	HAL_PCD_MspInit
  93              		.syntax unified
  94              		.thumb
  95              		.thumb_func
  97              	HAL_PCD_MspInit:
  98              	.LVL6:
ARM GAS  C:\Users\Nathan\AppData\Local\Temp\ccVQw5Zk.s 			page 17


  99              	.LFB1416:
  75:USB_Device/Target/usbd_conf.c ****   GPIO_InitTypeDef GPIO_InitStruct = {0};
 100              		.loc 1 75 1 is_stmt 1 view -0
 101              		.cfi_startproc
 102              		@ args = 0, pretend = 0, frame = 32
 103              		@ frame_needed = 0, uses_anonymous_args = 0
  75:USB_Device/Target/usbd_conf.c ****   GPIO_InitTypeDef GPIO_InitStruct = {0};
 104              		.loc 1 75 1 is_stmt 0 view .LVU14
 105 0000 10B5     		push	{r4, lr}
 106              		.cfi_def_cfa_offset 8
 107              		.cfi_offset 4, -8
 108              		.cfi_offset 14, -4
 109 0002 88B0     		sub	sp, sp, #32
 110              		.cfi_def_cfa_offset 40
  76:USB_Device/Target/usbd_conf.c ****   if(pcdHandle->Instance==USB)
 111              		.loc 1 76 3 is_stmt 1 view .LVU15
  76:USB_Device/Target/usbd_conf.c ****   if(pcdHandle->Instance==USB)
 112              		.loc 1 76 20 is_stmt 0 view .LVU16
 113 0004 0023     		movs	r3, #0
 114 0006 0393     		str	r3, [sp, #12]
 115 0008 0493     		str	r3, [sp, #16]
 116 000a 0593     		str	r3, [sp, #20]
 117 000c 0693     		str	r3, [sp, #24]
 118 000e 0793     		str	r3, [sp, #28]
  77:USB_Device/Target/usbd_conf.c ****   {
 119              		.loc 1 77 3 is_stmt 1 view .LVU17
  77:USB_Device/Target/usbd_conf.c ****   {
 120              		.loc 1 77 15 is_stmt 0 view .LVU18
 121 0010 0268     		ldr	r2, [r0]
  77:USB_Device/Target/usbd_conf.c ****   {
 122              		.loc 1 77 5 view .LVU19
 123 0012 1B4B     		ldr	r3, .L14
 124 0014 9A42     		cmp	r2, r3
 125 0016 01D0     		beq	.L13
 126              	.LVL7:
 127              	.L10:
 107:USB_Device/Target/usbd_conf.c **** 
 128              		.loc 1 107 1 view .LVU20
 129 0018 08B0     		add	sp, sp, #32
 130              		.cfi_remember_state
 131              		.cfi_def_cfa_offset 8
 132              		@ sp needed
 133 001a 10BD     		pop	{r4, pc}
 134              	.LVL8:
 135              	.L13:
 136              		.cfi_restore_state
  83:USB_Device/Target/usbd_conf.c ****     /**USB GPIO Configuration
 137              		.loc 1 83 5 is_stmt 1 view .LVU21
 138              	.LBB8:
 139              	.LBI8:
 140              		.file 2 "Drivers/STM32WBxx_HAL_Driver/Inc/stm32wbxx_ll_bus.h"
   1:Drivers/STM32WBxx_HAL_Driver/Inc/stm32wbxx_ll_bus.h **** /**
   2:Drivers/STM32WBxx_HAL_Driver/Inc/stm32wbxx_ll_bus.h ****   ******************************************************************************
   3:Drivers/STM32WBxx_HAL_Driver/Inc/stm32wbxx_ll_bus.h ****   * @file    stm32wbxx_ll_bus.h
   4:Drivers/STM32WBxx_HAL_Driver/Inc/stm32wbxx_ll_bus.h ****   * @author  MCD Application Team
   5:Drivers/STM32WBxx_HAL_Driver/Inc/stm32wbxx_ll_bus.h ****   * @brief   Header file of BUS LL module.
   6:Drivers/STM32WBxx_HAL_Driver/Inc/stm32wbxx_ll_bus.h ****   ******************************************************************************
ARM GAS  C:\Users\Nathan\AppData\Local\Temp\ccVQw5Zk.s 			page 18


   7:Drivers/STM32WBxx_HAL_Driver/Inc/stm32wbxx_ll_bus.h ****   * @attention
   8:Drivers/STM32WBxx_HAL_Driver/Inc/stm32wbxx_ll_bus.h ****   *
   9:Drivers/STM32WBxx_HAL_Driver/Inc/stm32wbxx_ll_bus.h ****   * Copyright (c) 2019 STMicroelectronics.
  10:Drivers/STM32WBxx_HAL_Driver/Inc/stm32wbxx_ll_bus.h ****   * All rights reserved.
  11:Drivers/STM32WBxx_HAL_Driver/Inc/stm32wbxx_ll_bus.h ****   *
  12:Drivers/STM32WBxx_HAL_Driver/Inc/stm32wbxx_ll_bus.h ****   * This software is licensed under terms that can be found in the LICENSE file
  13:Drivers/STM32WBxx_HAL_Driver/Inc/stm32wbxx_ll_bus.h ****   * in the root directory of this software component.
  14:Drivers/STM32WBxx_HAL_Driver/Inc/stm32wbxx_ll_bus.h ****   * If no LICENSE file comes with this software, it is provided AS-IS.
  15:Drivers/STM32WBxx_HAL_Driver/Inc/stm32wbxx_ll_bus.h ****   *
  16:Drivers/STM32WBxx_HAL_Driver/Inc/stm32wbxx_ll_bus.h ****   ******************************************************************************
  17:Drivers/STM32WBxx_HAL_Driver/Inc/stm32wbxx_ll_bus.h ****   @verbatim
  18:Drivers/STM32WBxx_HAL_Driver/Inc/stm32wbxx_ll_bus.h ****                       ##### RCC Limitations #####
  19:Drivers/STM32WBxx_HAL_Driver/Inc/stm32wbxx_ll_bus.h ****   ==============================================================================
  20:Drivers/STM32WBxx_HAL_Driver/Inc/stm32wbxx_ll_bus.h ****     [..]
  21:Drivers/STM32WBxx_HAL_Driver/Inc/stm32wbxx_ll_bus.h ****       A delay between an RCC peripheral clock enable and the effective peripheral
  22:Drivers/STM32WBxx_HAL_Driver/Inc/stm32wbxx_ll_bus.h ****       enabling should be taken into account in order to manage the peripheral read/write
  23:Drivers/STM32WBxx_HAL_Driver/Inc/stm32wbxx_ll_bus.h ****       from/to registers.
  24:Drivers/STM32WBxx_HAL_Driver/Inc/stm32wbxx_ll_bus.h ****       (+) This delay depends on the peripheral mapping.
  25:Drivers/STM32WBxx_HAL_Driver/Inc/stm32wbxx_ll_bus.h ****         (++) AHB & APB peripherals, 1 dummy read is necessary
  26:Drivers/STM32WBxx_HAL_Driver/Inc/stm32wbxx_ll_bus.h **** 
  27:Drivers/STM32WBxx_HAL_Driver/Inc/stm32wbxx_ll_bus.h ****     [..]
  28:Drivers/STM32WBxx_HAL_Driver/Inc/stm32wbxx_ll_bus.h ****       Workarounds:
  29:Drivers/STM32WBxx_HAL_Driver/Inc/stm32wbxx_ll_bus.h ****       (#) For AHB & APB peripherals, a dummy read to the peripheral register has been
  30:Drivers/STM32WBxx_HAL_Driver/Inc/stm32wbxx_ll_bus.h ****           inserted in each LL_{BUS}_GRP{x}_EnableClock() function.
  31:Drivers/STM32WBxx_HAL_Driver/Inc/stm32wbxx_ll_bus.h **** 
  32:Drivers/STM32WBxx_HAL_Driver/Inc/stm32wbxx_ll_bus.h ****   @endverbatim
  33:Drivers/STM32WBxx_HAL_Driver/Inc/stm32wbxx_ll_bus.h ****   ******************************************************************************
  34:Drivers/STM32WBxx_HAL_Driver/Inc/stm32wbxx_ll_bus.h ****   */
  35:Drivers/STM32WBxx_HAL_Driver/Inc/stm32wbxx_ll_bus.h **** 
  36:Drivers/STM32WBxx_HAL_Driver/Inc/stm32wbxx_ll_bus.h **** /* Define to prevent recursive inclusion -------------------------------------*/
  37:Drivers/STM32WBxx_HAL_Driver/Inc/stm32wbxx_ll_bus.h **** #ifndef STM32WBxx_LL_BUS_H
  38:Drivers/STM32WBxx_HAL_Driver/Inc/stm32wbxx_ll_bus.h **** #define STM32WBxx_LL_BUS_H
  39:Drivers/STM32WBxx_HAL_Driver/Inc/stm32wbxx_ll_bus.h **** 
  40:Drivers/STM32WBxx_HAL_Driver/Inc/stm32wbxx_ll_bus.h **** #ifdef __cplusplus
  41:Drivers/STM32WBxx_HAL_Driver/Inc/stm32wbxx_ll_bus.h **** extern "C" {
  42:Drivers/STM32WBxx_HAL_Driver/Inc/stm32wbxx_ll_bus.h **** #endif
  43:Drivers/STM32WBxx_HAL_Driver/Inc/stm32wbxx_ll_bus.h **** 
  44:Drivers/STM32WBxx_HAL_Driver/Inc/stm32wbxx_ll_bus.h **** /* Includes ------------------------------------------------------------------*/
  45:Drivers/STM32WBxx_HAL_Driver/Inc/stm32wbxx_ll_bus.h **** #include "stm32wbxx.h"
  46:Drivers/STM32WBxx_HAL_Driver/Inc/stm32wbxx_ll_bus.h **** 
  47:Drivers/STM32WBxx_HAL_Driver/Inc/stm32wbxx_ll_bus.h **** /** @addtogroup STM32WBxx_LL_Driver
  48:Drivers/STM32WBxx_HAL_Driver/Inc/stm32wbxx_ll_bus.h ****   * @{
  49:Drivers/STM32WBxx_HAL_Driver/Inc/stm32wbxx_ll_bus.h ****   */
  50:Drivers/STM32WBxx_HAL_Driver/Inc/stm32wbxx_ll_bus.h **** 
  51:Drivers/STM32WBxx_HAL_Driver/Inc/stm32wbxx_ll_bus.h **** #if defined(RCC)
  52:Drivers/STM32WBxx_HAL_Driver/Inc/stm32wbxx_ll_bus.h **** 
  53:Drivers/STM32WBxx_HAL_Driver/Inc/stm32wbxx_ll_bus.h **** /** @defgroup BUS_LL BUS
  54:Drivers/STM32WBxx_HAL_Driver/Inc/stm32wbxx_ll_bus.h ****   * @{
  55:Drivers/STM32WBxx_HAL_Driver/Inc/stm32wbxx_ll_bus.h ****   */
  56:Drivers/STM32WBxx_HAL_Driver/Inc/stm32wbxx_ll_bus.h **** 
  57:Drivers/STM32WBxx_HAL_Driver/Inc/stm32wbxx_ll_bus.h **** /* Private types -------------------------------------------------------------*/
  58:Drivers/STM32WBxx_HAL_Driver/Inc/stm32wbxx_ll_bus.h **** /* Private variables ---------------------------------------------------------*/
  59:Drivers/STM32WBxx_HAL_Driver/Inc/stm32wbxx_ll_bus.h **** 
  60:Drivers/STM32WBxx_HAL_Driver/Inc/stm32wbxx_ll_bus.h **** /* Private constants ---------------------------------------------------------*/
  61:Drivers/STM32WBxx_HAL_Driver/Inc/stm32wbxx_ll_bus.h **** 
  62:Drivers/STM32WBxx_HAL_Driver/Inc/stm32wbxx_ll_bus.h **** /* Private macros ------------------------------------------------------------*/
  63:Drivers/STM32WBxx_HAL_Driver/Inc/stm32wbxx_ll_bus.h **** 
ARM GAS  C:\Users\Nathan\AppData\Local\Temp\ccVQw5Zk.s 			page 19


  64:Drivers/STM32WBxx_HAL_Driver/Inc/stm32wbxx_ll_bus.h **** /* Exported types ------------------------------------------------------------*/
  65:Drivers/STM32WBxx_HAL_Driver/Inc/stm32wbxx_ll_bus.h **** 
  66:Drivers/STM32WBxx_HAL_Driver/Inc/stm32wbxx_ll_bus.h **** /* Exported constants --------------------------------------------------------*/
  67:Drivers/STM32WBxx_HAL_Driver/Inc/stm32wbxx_ll_bus.h **** /** @defgroup BUS_LL_Exported_Constants BUS Exported Constants
  68:Drivers/STM32WBxx_HAL_Driver/Inc/stm32wbxx_ll_bus.h ****   * @{
  69:Drivers/STM32WBxx_HAL_Driver/Inc/stm32wbxx_ll_bus.h ****   */
  70:Drivers/STM32WBxx_HAL_Driver/Inc/stm32wbxx_ll_bus.h **** 
  71:Drivers/STM32WBxx_HAL_Driver/Inc/stm32wbxx_ll_bus.h **** /** @defgroup BUS_LL_EC_AHB1_GRP1_PERIPH  AHB1 GRP1 PERIPH
  72:Drivers/STM32WBxx_HAL_Driver/Inc/stm32wbxx_ll_bus.h ****   * @{
  73:Drivers/STM32WBxx_HAL_Driver/Inc/stm32wbxx_ll_bus.h ****   */
  74:Drivers/STM32WBxx_HAL_Driver/Inc/stm32wbxx_ll_bus.h **** #define LL_AHB1_GRP1_PERIPH_ALL            (0xFFFFFFFFU)
  75:Drivers/STM32WBxx_HAL_Driver/Inc/stm32wbxx_ll_bus.h **** 
  76:Drivers/STM32WBxx_HAL_Driver/Inc/stm32wbxx_ll_bus.h **** #define LL_AHB1_GRP1_PERIPH_DMA1           RCC_AHB1ENR_DMA1EN
  77:Drivers/STM32WBxx_HAL_Driver/Inc/stm32wbxx_ll_bus.h **** #if defined(DMA2)
  78:Drivers/STM32WBxx_HAL_Driver/Inc/stm32wbxx_ll_bus.h **** #define LL_AHB1_GRP1_PERIPH_DMA2           RCC_AHB1ENR_DMA2EN
  79:Drivers/STM32WBxx_HAL_Driver/Inc/stm32wbxx_ll_bus.h **** #endif /* DMA2 */
  80:Drivers/STM32WBxx_HAL_Driver/Inc/stm32wbxx_ll_bus.h **** #define LL_AHB1_GRP1_PERIPH_DMAMUX1        RCC_AHB1ENR_DMAMUX1EN
  81:Drivers/STM32WBxx_HAL_Driver/Inc/stm32wbxx_ll_bus.h **** #define LL_AHB1_GRP1_PERIPH_SRAM1          RCC_AHB1SMENR_SRAM1SMEN
  82:Drivers/STM32WBxx_HAL_Driver/Inc/stm32wbxx_ll_bus.h **** #define LL_AHB1_GRP1_PERIPH_CRC            RCC_AHB1ENR_CRCEN
  83:Drivers/STM32WBxx_HAL_Driver/Inc/stm32wbxx_ll_bus.h **** #if defined(TSC)
  84:Drivers/STM32WBxx_HAL_Driver/Inc/stm32wbxx_ll_bus.h **** #define LL_AHB1_GRP1_PERIPH_TSC            RCC_AHB1ENR_TSCEN
  85:Drivers/STM32WBxx_HAL_Driver/Inc/stm32wbxx_ll_bus.h **** #endif /* TSC */
  86:Drivers/STM32WBxx_HAL_Driver/Inc/stm32wbxx_ll_bus.h **** /**
  87:Drivers/STM32WBxx_HAL_Driver/Inc/stm32wbxx_ll_bus.h ****   * @}
  88:Drivers/STM32WBxx_HAL_Driver/Inc/stm32wbxx_ll_bus.h ****   */
  89:Drivers/STM32WBxx_HAL_Driver/Inc/stm32wbxx_ll_bus.h **** 
  90:Drivers/STM32WBxx_HAL_Driver/Inc/stm32wbxx_ll_bus.h **** /** @defgroup BUS_LL_EC_AHB2_GRP1_PERIPH  AHB2 GRP1 PERIPH
  91:Drivers/STM32WBxx_HAL_Driver/Inc/stm32wbxx_ll_bus.h ****   * @{
  92:Drivers/STM32WBxx_HAL_Driver/Inc/stm32wbxx_ll_bus.h ****   */
  93:Drivers/STM32WBxx_HAL_Driver/Inc/stm32wbxx_ll_bus.h **** #define LL_AHB2_GRP1_PERIPH_ALL            (0xFFFFFFFFU)
  94:Drivers/STM32WBxx_HAL_Driver/Inc/stm32wbxx_ll_bus.h **** 
  95:Drivers/STM32WBxx_HAL_Driver/Inc/stm32wbxx_ll_bus.h **** #define LL_AHB2_GRP1_PERIPH_GPIOA          RCC_AHB2ENR_GPIOAEN
  96:Drivers/STM32WBxx_HAL_Driver/Inc/stm32wbxx_ll_bus.h **** #define LL_AHB2_GRP1_PERIPH_GPIOB          RCC_AHB2ENR_GPIOBEN
  97:Drivers/STM32WBxx_HAL_Driver/Inc/stm32wbxx_ll_bus.h **** #define LL_AHB2_GRP1_PERIPH_GPIOC          RCC_AHB2ENR_GPIOCEN
  98:Drivers/STM32WBxx_HAL_Driver/Inc/stm32wbxx_ll_bus.h **** #if defined(GPIOD)
  99:Drivers/STM32WBxx_HAL_Driver/Inc/stm32wbxx_ll_bus.h **** #define LL_AHB2_GRP1_PERIPH_GPIOD          RCC_AHB2ENR_GPIODEN
 100:Drivers/STM32WBxx_HAL_Driver/Inc/stm32wbxx_ll_bus.h **** #endif /* GPIOD */
 101:Drivers/STM32WBxx_HAL_Driver/Inc/stm32wbxx_ll_bus.h **** #define LL_AHB2_GRP1_PERIPH_GPIOE          RCC_AHB2ENR_GPIOEEN
 102:Drivers/STM32WBxx_HAL_Driver/Inc/stm32wbxx_ll_bus.h **** #define LL_AHB2_GRP1_PERIPH_GPIOH          RCC_AHB2ENR_GPIOHEN
 103:Drivers/STM32WBxx_HAL_Driver/Inc/stm32wbxx_ll_bus.h **** #if defined(ADC_SUPPORT_5_MSPS)
 104:Drivers/STM32WBxx_HAL_Driver/Inc/stm32wbxx_ll_bus.h **** #define LL_AHB2_GRP1_PERIPH_ADC            RCC_AHB2ENR_ADCEN
 105:Drivers/STM32WBxx_HAL_Driver/Inc/stm32wbxx_ll_bus.h **** #endif /* ADC_SUPPORT_5_MSPS */
 106:Drivers/STM32WBxx_HAL_Driver/Inc/stm32wbxx_ll_bus.h **** #if defined(AES1)
 107:Drivers/STM32WBxx_HAL_Driver/Inc/stm32wbxx_ll_bus.h **** #define LL_AHB2_GRP1_PERIPH_AES1           RCC_AHB2ENR_AES1EN
 108:Drivers/STM32WBxx_HAL_Driver/Inc/stm32wbxx_ll_bus.h **** #endif /* AES1 */
 109:Drivers/STM32WBxx_HAL_Driver/Inc/stm32wbxx_ll_bus.h **** /**
 110:Drivers/STM32WBxx_HAL_Driver/Inc/stm32wbxx_ll_bus.h ****   * @}
 111:Drivers/STM32WBxx_HAL_Driver/Inc/stm32wbxx_ll_bus.h ****   */
 112:Drivers/STM32WBxx_HAL_Driver/Inc/stm32wbxx_ll_bus.h **** 
 113:Drivers/STM32WBxx_HAL_Driver/Inc/stm32wbxx_ll_bus.h **** /** @defgroup BUS_LL_EC_AHB3_GRP1_PERIPH  AHB3 GRP1 PERIPH
 114:Drivers/STM32WBxx_HAL_Driver/Inc/stm32wbxx_ll_bus.h ****   * @{
 115:Drivers/STM32WBxx_HAL_Driver/Inc/stm32wbxx_ll_bus.h ****   */
 116:Drivers/STM32WBxx_HAL_Driver/Inc/stm32wbxx_ll_bus.h **** #define LL_AHB3_GRP1_PERIPH_ALL            (0xFFFFFFFFU)
 117:Drivers/STM32WBxx_HAL_Driver/Inc/stm32wbxx_ll_bus.h **** #if defined(QUADSPI)
 118:Drivers/STM32WBxx_HAL_Driver/Inc/stm32wbxx_ll_bus.h **** #define LL_AHB3_GRP1_PERIPH_QUADSPI        RCC_AHB3ENR_QUADSPIEN
 119:Drivers/STM32WBxx_HAL_Driver/Inc/stm32wbxx_ll_bus.h **** #endif /* QUADSPI */
 120:Drivers/STM32WBxx_HAL_Driver/Inc/stm32wbxx_ll_bus.h **** #define LL_AHB3_GRP1_PERIPH_PKA            RCC_AHB3ENR_PKAEN
ARM GAS  C:\Users\Nathan\AppData\Local\Temp\ccVQw5Zk.s 			page 20


 121:Drivers/STM32WBxx_HAL_Driver/Inc/stm32wbxx_ll_bus.h **** #define LL_AHB3_GRP1_PERIPH_AES2           RCC_AHB3ENR_AES2EN
 122:Drivers/STM32WBxx_HAL_Driver/Inc/stm32wbxx_ll_bus.h **** #define LL_AHB3_GRP1_PERIPH_RNG            RCC_AHB3ENR_RNGEN
 123:Drivers/STM32WBxx_HAL_Driver/Inc/stm32wbxx_ll_bus.h **** #define LL_AHB3_GRP1_PERIPH_HSEM           RCC_AHB3ENR_HSEMEN
 124:Drivers/STM32WBxx_HAL_Driver/Inc/stm32wbxx_ll_bus.h **** #define LL_AHB3_GRP1_PERIPH_IPCC           RCC_AHB3ENR_IPCCEN
 125:Drivers/STM32WBxx_HAL_Driver/Inc/stm32wbxx_ll_bus.h **** #define LL_AHB3_GRP1_PERIPH_SRAM2          RCC_AHB3SMENR_SRAM2SMEN
 126:Drivers/STM32WBxx_HAL_Driver/Inc/stm32wbxx_ll_bus.h **** #define LL_AHB3_GRP1_PERIPH_FLASH          RCC_AHB3ENR_FLASHEN
 127:Drivers/STM32WBxx_HAL_Driver/Inc/stm32wbxx_ll_bus.h **** /**
 128:Drivers/STM32WBxx_HAL_Driver/Inc/stm32wbxx_ll_bus.h ****   * @}
 129:Drivers/STM32WBxx_HAL_Driver/Inc/stm32wbxx_ll_bus.h ****   */
 130:Drivers/STM32WBxx_HAL_Driver/Inc/stm32wbxx_ll_bus.h **** 
 131:Drivers/STM32WBxx_HAL_Driver/Inc/stm32wbxx_ll_bus.h **** /** @defgroup BUS_LL_EC_APB1_GRP1_PERIPH  APB1 GRP1 PERIPH
 132:Drivers/STM32WBxx_HAL_Driver/Inc/stm32wbxx_ll_bus.h ****   * @{
 133:Drivers/STM32WBxx_HAL_Driver/Inc/stm32wbxx_ll_bus.h ****   */
 134:Drivers/STM32WBxx_HAL_Driver/Inc/stm32wbxx_ll_bus.h **** #define LL_APB1_GRP1_PERIPH_ALL            (0xFFFFFFFFU)
 135:Drivers/STM32WBxx_HAL_Driver/Inc/stm32wbxx_ll_bus.h **** #define LL_APB1_GRP1_PERIPH_TIM2           RCC_APB1ENR1_TIM2EN
 136:Drivers/STM32WBxx_HAL_Driver/Inc/stm32wbxx_ll_bus.h **** #if defined(LCD)
 137:Drivers/STM32WBxx_HAL_Driver/Inc/stm32wbxx_ll_bus.h **** #define LL_APB1_GRP1_PERIPH_LCD            RCC_APB1ENR1_LCDEN
 138:Drivers/STM32WBxx_HAL_Driver/Inc/stm32wbxx_ll_bus.h **** #endif /* LCD */
 139:Drivers/STM32WBxx_HAL_Driver/Inc/stm32wbxx_ll_bus.h **** #define LL_APB1_GRP1_PERIPH_RTCAPB         RCC_APB1ENR1_RTCAPBEN
 140:Drivers/STM32WBxx_HAL_Driver/Inc/stm32wbxx_ll_bus.h **** #define LL_APB1_GRP1_PERIPH_WWDG           RCC_APB1ENR1_WWDGEN
 141:Drivers/STM32WBxx_HAL_Driver/Inc/stm32wbxx_ll_bus.h **** #if defined(SPI2)
 142:Drivers/STM32WBxx_HAL_Driver/Inc/stm32wbxx_ll_bus.h **** #define LL_APB1_GRP1_PERIPH_SPI2           RCC_APB1ENR1_SPI2EN
 143:Drivers/STM32WBxx_HAL_Driver/Inc/stm32wbxx_ll_bus.h **** #endif /* SPI2 */
 144:Drivers/STM32WBxx_HAL_Driver/Inc/stm32wbxx_ll_bus.h **** #define LL_APB1_GRP1_PERIPH_I2C1           RCC_APB1ENR1_I2C1EN
 145:Drivers/STM32WBxx_HAL_Driver/Inc/stm32wbxx_ll_bus.h **** #if defined(I2C3)
 146:Drivers/STM32WBxx_HAL_Driver/Inc/stm32wbxx_ll_bus.h **** #define LL_APB1_GRP1_PERIPH_I2C3           RCC_APB1ENR1_I2C3EN
 147:Drivers/STM32WBxx_HAL_Driver/Inc/stm32wbxx_ll_bus.h **** #endif /* I2C3 */
 148:Drivers/STM32WBxx_HAL_Driver/Inc/stm32wbxx_ll_bus.h **** #if defined(CRS)
 149:Drivers/STM32WBxx_HAL_Driver/Inc/stm32wbxx_ll_bus.h **** #define LL_APB1_GRP1_PERIPH_CRS            RCC_APB1ENR1_CRSEN
 150:Drivers/STM32WBxx_HAL_Driver/Inc/stm32wbxx_ll_bus.h **** #endif /* CRS */
 151:Drivers/STM32WBxx_HAL_Driver/Inc/stm32wbxx_ll_bus.h **** #if defined(USB)
 152:Drivers/STM32WBxx_HAL_Driver/Inc/stm32wbxx_ll_bus.h **** #define LL_APB1_GRP1_PERIPH_USB            RCC_APB1ENR1_USBEN
 153:Drivers/STM32WBxx_HAL_Driver/Inc/stm32wbxx_ll_bus.h **** #endif /* USB */
 154:Drivers/STM32WBxx_HAL_Driver/Inc/stm32wbxx_ll_bus.h **** #define LL_APB1_GRP1_PERIPH_LPTIM1         RCC_APB1ENR1_LPTIM1EN
 155:Drivers/STM32WBxx_HAL_Driver/Inc/stm32wbxx_ll_bus.h **** /**
 156:Drivers/STM32WBxx_HAL_Driver/Inc/stm32wbxx_ll_bus.h ****   * @}
 157:Drivers/STM32WBxx_HAL_Driver/Inc/stm32wbxx_ll_bus.h ****   */
 158:Drivers/STM32WBxx_HAL_Driver/Inc/stm32wbxx_ll_bus.h **** 
 159:Drivers/STM32WBxx_HAL_Driver/Inc/stm32wbxx_ll_bus.h **** 
 160:Drivers/STM32WBxx_HAL_Driver/Inc/stm32wbxx_ll_bus.h **** /** @defgroup BUS_LL_EC_APB1_GRP2_PERIPH  APB1 GRP2 PERIPH
 161:Drivers/STM32WBxx_HAL_Driver/Inc/stm32wbxx_ll_bus.h ****   * @{
 162:Drivers/STM32WBxx_HAL_Driver/Inc/stm32wbxx_ll_bus.h ****   */
 163:Drivers/STM32WBxx_HAL_Driver/Inc/stm32wbxx_ll_bus.h **** #define LL_APB1_GRP2_PERIPH_ALL            (0xFFFFFFFFU)
 164:Drivers/STM32WBxx_HAL_Driver/Inc/stm32wbxx_ll_bus.h **** 
 165:Drivers/STM32WBxx_HAL_Driver/Inc/stm32wbxx_ll_bus.h **** #if defined(LPUART1)
 166:Drivers/STM32WBxx_HAL_Driver/Inc/stm32wbxx_ll_bus.h **** #define LL_APB1_GRP2_PERIPH_LPUART1        RCC_APB1ENR2_LPUART1EN
 167:Drivers/STM32WBxx_HAL_Driver/Inc/stm32wbxx_ll_bus.h **** #endif /* LPUART1 */
 168:Drivers/STM32WBxx_HAL_Driver/Inc/stm32wbxx_ll_bus.h **** #define LL_APB1_GRP2_PERIPH_LPTIM2         RCC_APB1ENR2_LPTIM2EN
 169:Drivers/STM32WBxx_HAL_Driver/Inc/stm32wbxx_ll_bus.h **** /**
 170:Drivers/STM32WBxx_HAL_Driver/Inc/stm32wbxx_ll_bus.h ****   * @}
 171:Drivers/STM32WBxx_HAL_Driver/Inc/stm32wbxx_ll_bus.h ****   */
 172:Drivers/STM32WBxx_HAL_Driver/Inc/stm32wbxx_ll_bus.h **** 
 173:Drivers/STM32WBxx_HAL_Driver/Inc/stm32wbxx_ll_bus.h **** /** @defgroup BUS_LL_EC_APB2_GRP1_PERIPH  APB2 GRP1 PERIPH
 174:Drivers/STM32WBxx_HAL_Driver/Inc/stm32wbxx_ll_bus.h ****   * @{
 175:Drivers/STM32WBxx_HAL_Driver/Inc/stm32wbxx_ll_bus.h ****   */
 176:Drivers/STM32WBxx_HAL_Driver/Inc/stm32wbxx_ll_bus.h **** #define LL_APB2_GRP1_PERIPH_ALL            (0xFFFFFFFFU)
 177:Drivers/STM32WBxx_HAL_Driver/Inc/stm32wbxx_ll_bus.h **** 
ARM GAS  C:\Users\Nathan\AppData\Local\Temp\ccVQw5Zk.s 			page 21


 178:Drivers/STM32WBxx_HAL_Driver/Inc/stm32wbxx_ll_bus.h **** #if defined(ADC_SUPPORT_2_5_MSPS)
 179:Drivers/STM32WBxx_HAL_Driver/Inc/stm32wbxx_ll_bus.h **** #define LL_APB2_GRP1_PERIPH_ADC            RCC_APB2ENR_ADCEN
 180:Drivers/STM32WBxx_HAL_Driver/Inc/stm32wbxx_ll_bus.h **** #endif /* ADC_SUPPORT_2_5_MSPS */
 181:Drivers/STM32WBxx_HAL_Driver/Inc/stm32wbxx_ll_bus.h **** #define LL_APB2_GRP1_PERIPH_TIM1           RCC_APB2ENR_TIM1EN
 182:Drivers/STM32WBxx_HAL_Driver/Inc/stm32wbxx_ll_bus.h **** #define LL_APB2_GRP1_PERIPH_SPI1           RCC_APB2ENR_SPI1EN
 183:Drivers/STM32WBxx_HAL_Driver/Inc/stm32wbxx_ll_bus.h **** #define LL_APB2_GRP1_PERIPH_USART1         RCC_APB2ENR_USART1EN
 184:Drivers/STM32WBxx_HAL_Driver/Inc/stm32wbxx_ll_bus.h **** #if defined(TIM16)
 185:Drivers/STM32WBxx_HAL_Driver/Inc/stm32wbxx_ll_bus.h **** #define LL_APB2_GRP1_PERIPH_TIM16          RCC_APB2ENR_TIM16EN
 186:Drivers/STM32WBxx_HAL_Driver/Inc/stm32wbxx_ll_bus.h **** #endif /* TIM16 */
 187:Drivers/STM32WBxx_HAL_Driver/Inc/stm32wbxx_ll_bus.h **** #if defined(TIM17)
 188:Drivers/STM32WBxx_HAL_Driver/Inc/stm32wbxx_ll_bus.h **** #define LL_APB2_GRP1_PERIPH_TIM17          RCC_APB2ENR_TIM17EN
 189:Drivers/STM32WBxx_HAL_Driver/Inc/stm32wbxx_ll_bus.h **** #endif /* TIM17 */
 190:Drivers/STM32WBxx_HAL_Driver/Inc/stm32wbxx_ll_bus.h **** #if defined(SAI1)
 191:Drivers/STM32WBxx_HAL_Driver/Inc/stm32wbxx_ll_bus.h **** #define LL_APB2_GRP1_PERIPH_SAI1           RCC_APB2ENR_SAI1EN
 192:Drivers/STM32WBxx_HAL_Driver/Inc/stm32wbxx_ll_bus.h **** #endif /* SAI1 */
 193:Drivers/STM32WBxx_HAL_Driver/Inc/stm32wbxx_ll_bus.h **** /**
 194:Drivers/STM32WBxx_HAL_Driver/Inc/stm32wbxx_ll_bus.h ****   * @}
 195:Drivers/STM32WBxx_HAL_Driver/Inc/stm32wbxx_ll_bus.h ****   */
 196:Drivers/STM32WBxx_HAL_Driver/Inc/stm32wbxx_ll_bus.h **** 
 197:Drivers/STM32WBxx_HAL_Driver/Inc/stm32wbxx_ll_bus.h **** /** @defgroup BUS_LL_EC_APB3_GRP1_PERIPH  APB3 GRP1 PERIPH
 198:Drivers/STM32WBxx_HAL_Driver/Inc/stm32wbxx_ll_bus.h ****   * @{
 199:Drivers/STM32WBxx_HAL_Driver/Inc/stm32wbxx_ll_bus.h ****   */
 200:Drivers/STM32WBxx_HAL_Driver/Inc/stm32wbxx_ll_bus.h **** #define LL_APB3_GRP1_PERIPH_ALL            (0xFFFFFFFFU)
 201:Drivers/STM32WBxx_HAL_Driver/Inc/stm32wbxx_ll_bus.h **** #define LL_APB3_GRP1_PERIPH_RF             RCC_APB3RSTR_RFRST
 202:Drivers/STM32WBxx_HAL_Driver/Inc/stm32wbxx_ll_bus.h **** /**
 203:Drivers/STM32WBxx_HAL_Driver/Inc/stm32wbxx_ll_bus.h ****   * @}
 204:Drivers/STM32WBxx_HAL_Driver/Inc/stm32wbxx_ll_bus.h ****   */
 205:Drivers/STM32WBxx_HAL_Driver/Inc/stm32wbxx_ll_bus.h **** 
 206:Drivers/STM32WBxx_HAL_Driver/Inc/stm32wbxx_ll_bus.h **** 
 207:Drivers/STM32WBxx_HAL_Driver/Inc/stm32wbxx_ll_bus.h **** /** @defgroup BUS_LL_EC_C2_AHB1_GRP1_PERIPH  C2 AHB1 GRP1 PERIPH
 208:Drivers/STM32WBxx_HAL_Driver/Inc/stm32wbxx_ll_bus.h ****   * @{
 209:Drivers/STM32WBxx_HAL_Driver/Inc/stm32wbxx_ll_bus.h ****   */
 210:Drivers/STM32WBxx_HAL_Driver/Inc/stm32wbxx_ll_bus.h **** #define LL_C2_AHB1_GRP1_PERIPH_DMA1         RCC_C2AHB1ENR_DMA1EN
 211:Drivers/STM32WBxx_HAL_Driver/Inc/stm32wbxx_ll_bus.h **** #if defined(DMA2)
 212:Drivers/STM32WBxx_HAL_Driver/Inc/stm32wbxx_ll_bus.h **** #define LL_C2_AHB1_GRP1_PERIPH_DMA2         RCC_C2AHB1ENR_DMA2EN
 213:Drivers/STM32WBxx_HAL_Driver/Inc/stm32wbxx_ll_bus.h **** #endif /* DMA2 */
 214:Drivers/STM32WBxx_HAL_Driver/Inc/stm32wbxx_ll_bus.h **** #define LL_C2_AHB1_GRP1_PERIPH_DMAMUX1      RCC_C2AHB1ENR_DMAMUX1EN
 215:Drivers/STM32WBxx_HAL_Driver/Inc/stm32wbxx_ll_bus.h **** #define LL_C2_AHB1_GRP1_PERIPH_SRAM1        RCC_C2AHB1ENR_SRAM1EN
 216:Drivers/STM32WBxx_HAL_Driver/Inc/stm32wbxx_ll_bus.h **** #define LL_C2_AHB1_GRP1_PERIPH_CRC          RCC_C2AHB1ENR_CRCEN
 217:Drivers/STM32WBxx_HAL_Driver/Inc/stm32wbxx_ll_bus.h **** #if defined(TSC)
 218:Drivers/STM32WBxx_HAL_Driver/Inc/stm32wbxx_ll_bus.h **** #define LL_C2_AHB1_GRP1_PERIPH_TSC          RCC_C2AHB1ENR_TSCEN
 219:Drivers/STM32WBxx_HAL_Driver/Inc/stm32wbxx_ll_bus.h **** #endif /* TSC */
 220:Drivers/STM32WBxx_HAL_Driver/Inc/stm32wbxx_ll_bus.h **** /**
 221:Drivers/STM32WBxx_HAL_Driver/Inc/stm32wbxx_ll_bus.h ****   * @}
 222:Drivers/STM32WBxx_HAL_Driver/Inc/stm32wbxx_ll_bus.h ****   */
 223:Drivers/STM32WBxx_HAL_Driver/Inc/stm32wbxx_ll_bus.h **** 
 224:Drivers/STM32WBxx_HAL_Driver/Inc/stm32wbxx_ll_bus.h **** 
 225:Drivers/STM32WBxx_HAL_Driver/Inc/stm32wbxx_ll_bus.h **** /** @defgroup BUS_LL_EC_C2_AHB2_GRP1_PERIPH  C2 AHB2 GRP1 PERIPH
 226:Drivers/STM32WBxx_HAL_Driver/Inc/stm32wbxx_ll_bus.h ****   * @{
 227:Drivers/STM32WBxx_HAL_Driver/Inc/stm32wbxx_ll_bus.h ****   */
 228:Drivers/STM32WBxx_HAL_Driver/Inc/stm32wbxx_ll_bus.h **** #define LL_C2_AHB2_GRP1_PERIPH_GPIOA        RCC_C2AHB2ENR_GPIOAEN
 229:Drivers/STM32WBxx_HAL_Driver/Inc/stm32wbxx_ll_bus.h **** #define LL_C2_AHB2_GRP1_PERIPH_GPIOB        RCC_C2AHB2ENR_GPIOBEN
 230:Drivers/STM32WBxx_HAL_Driver/Inc/stm32wbxx_ll_bus.h **** #define LL_C2_AHB2_GRP1_PERIPH_GPIOC        RCC_C2AHB2ENR_GPIOCEN
 231:Drivers/STM32WBxx_HAL_Driver/Inc/stm32wbxx_ll_bus.h **** #if defined(GPIOD)
 232:Drivers/STM32WBxx_HAL_Driver/Inc/stm32wbxx_ll_bus.h **** #define LL_C2_AHB2_GRP1_PERIPH_GPIOD        RCC_C2AHB2ENR_GPIODEN
 233:Drivers/STM32WBxx_HAL_Driver/Inc/stm32wbxx_ll_bus.h **** #endif /* GPIOD */
 234:Drivers/STM32WBxx_HAL_Driver/Inc/stm32wbxx_ll_bus.h **** #define LL_C2_AHB2_GRP1_PERIPH_GPIOE        RCC_C2AHB2ENR_GPIOEEN
ARM GAS  C:\Users\Nathan\AppData\Local\Temp\ccVQw5Zk.s 			page 22


 235:Drivers/STM32WBxx_HAL_Driver/Inc/stm32wbxx_ll_bus.h **** #define LL_C2_AHB2_GRP1_PERIPH_GPIOH        RCC_C2AHB2ENR_GPIOHEN
 236:Drivers/STM32WBxx_HAL_Driver/Inc/stm32wbxx_ll_bus.h **** #if defined(ADC_SUPPORT_5_MSPS)
 237:Drivers/STM32WBxx_HAL_Driver/Inc/stm32wbxx_ll_bus.h **** #define LL_C2_AHB2_GRP1_PERIPH_ADC          RCC_C2AHB2ENR_ADCEN
 238:Drivers/STM32WBxx_HAL_Driver/Inc/stm32wbxx_ll_bus.h **** #endif /* ADC_SUPPORT_5_MSPS */
 239:Drivers/STM32WBxx_HAL_Driver/Inc/stm32wbxx_ll_bus.h **** #if defined(AES1)
 240:Drivers/STM32WBxx_HAL_Driver/Inc/stm32wbxx_ll_bus.h **** #define LL_C2_AHB2_GRP1_PERIPH_AES1         RCC_C2AHB2ENR_AES1EN
 241:Drivers/STM32WBxx_HAL_Driver/Inc/stm32wbxx_ll_bus.h **** #endif /* AES1 */
 242:Drivers/STM32WBxx_HAL_Driver/Inc/stm32wbxx_ll_bus.h **** /**
 243:Drivers/STM32WBxx_HAL_Driver/Inc/stm32wbxx_ll_bus.h ****   * @}
 244:Drivers/STM32WBxx_HAL_Driver/Inc/stm32wbxx_ll_bus.h ****   */
 245:Drivers/STM32WBxx_HAL_Driver/Inc/stm32wbxx_ll_bus.h **** 
 246:Drivers/STM32WBxx_HAL_Driver/Inc/stm32wbxx_ll_bus.h **** 
 247:Drivers/STM32WBxx_HAL_Driver/Inc/stm32wbxx_ll_bus.h **** /** @defgroup BUS_LL_EC_C2_AHB3_GRP1_PERIPH  C2 AHB3 GRP1 PERIPH
 248:Drivers/STM32WBxx_HAL_Driver/Inc/stm32wbxx_ll_bus.h ****   * @{
 249:Drivers/STM32WBxx_HAL_Driver/Inc/stm32wbxx_ll_bus.h ****   */
 250:Drivers/STM32WBxx_HAL_Driver/Inc/stm32wbxx_ll_bus.h **** #define LL_C2_AHB3_GRP1_PERIPH_PKA          RCC_C2AHB3ENR_PKAEN
 251:Drivers/STM32WBxx_HAL_Driver/Inc/stm32wbxx_ll_bus.h **** #define LL_C2_AHB3_GRP1_PERIPH_AES2         RCC_C2AHB3ENR_AES2EN
 252:Drivers/STM32WBxx_HAL_Driver/Inc/stm32wbxx_ll_bus.h **** #define LL_C2_AHB3_GRP1_PERIPH_RNG          RCC_C2AHB3ENR_RNGEN
 253:Drivers/STM32WBxx_HAL_Driver/Inc/stm32wbxx_ll_bus.h **** #define LL_C2_AHB3_GRP1_PERIPH_HSEM         RCC_C2AHB3ENR_HSEMEN
 254:Drivers/STM32WBxx_HAL_Driver/Inc/stm32wbxx_ll_bus.h **** #define LL_C2_AHB3_GRP1_PERIPH_IPCC         RCC_C2AHB3ENR_IPCCEN
 255:Drivers/STM32WBxx_HAL_Driver/Inc/stm32wbxx_ll_bus.h **** #define LL_C2_AHB3_GRP1_PERIPH_FLASH        RCC_C2AHB3ENR_FLASHEN
 256:Drivers/STM32WBxx_HAL_Driver/Inc/stm32wbxx_ll_bus.h **** #define LL_C2_AHB3_GRP1_PERIPH_SRAM2        RCC_C2AHB3SMENR_SRAM2SMEN
 257:Drivers/STM32WBxx_HAL_Driver/Inc/stm32wbxx_ll_bus.h **** /**
 258:Drivers/STM32WBxx_HAL_Driver/Inc/stm32wbxx_ll_bus.h ****   * @}
 259:Drivers/STM32WBxx_HAL_Driver/Inc/stm32wbxx_ll_bus.h ****   */
 260:Drivers/STM32WBxx_HAL_Driver/Inc/stm32wbxx_ll_bus.h **** 
 261:Drivers/STM32WBxx_HAL_Driver/Inc/stm32wbxx_ll_bus.h **** 
 262:Drivers/STM32WBxx_HAL_Driver/Inc/stm32wbxx_ll_bus.h **** /** @defgroup BUS_LL_EC_C2_APB1_GRP1_PERIPH  C2 APB1 GRP1 PERIPH
 263:Drivers/STM32WBxx_HAL_Driver/Inc/stm32wbxx_ll_bus.h ****   * @{
 264:Drivers/STM32WBxx_HAL_Driver/Inc/stm32wbxx_ll_bus.h ****   */
 265:Drivers/STM32WBxx_HAL_Driver/Inc/stm32wbxx_ll_bus.h **** #define LL_C2_APB1_GRP1_PERIPH_TIM2         RCC_C2APB1ENR1_TIM2EN
 266:Drivers/STM32WBxx_HAL_Driver/Inc/stm32wbxx_ll_bus.h **** #if defined(LCD)
 267:Drivers/STM32WBxx_HAL_Driver/Inc/stm32wbxx_ll_bus.h **** #define LL_C2_APB1_GRP1_PERIPH_LCD          RCC_C2APB1ENR1_LCDEN
 268:Drivers/STM32WBxx_HAL_Driver/Inc/stm32wbxx_ll_bus.h **** #endif /* LCD */
 269:Drivers/STM32WBxx_HAL_Driver/Inc/stm32wbxx_ll_bus.h **** #define LL_C2_APB1_GRP1_PERIPH_RTCAPB       RCC_C2APB1ENR1_RTCAPBEN
 270:Drivers/STM32WBxx_HAL_Driver/Inc/stm32wbxx_ll_bus.h **** #if defined(SPI2)
 271:Drivers/STM32WBxx_HAL_Driver/Inc/stm32wbxx_ll_bus.h **** #define LL_C2_APB1_GRP1_PERIPH_SPI2         RCC_C2APB1ENR1_SPI2EN
 272:Drivers/STM32WBxx_HAL_Driver/Inc/stm32wbxx_ll_bus.h **** #endif /* SPI2 */
 273:Drivers/STM32WBxx_HAL_Driver/Inc/stm32wbxx_ll_bus.h **** #define LL_C2_APB1_GRP1_PERIPH_I2C1         RCC_C2APB1ENR1_I2C1EN
 274:Drivers/STM32WBxx_HAL_Driver/Inc/stm32wbxx_ll_bus.h **** #if defined(I2C3)
 275:Drivers/STM32WBxx_HAL_Driver/Inc/stm32wbxx_ll_bus.h **** #define LL_C2_APB1_GRP1_PERIPH_I2C3         RCC_C2APB1ENR1_I2C3EN
 276:Drivers/STM32WBxx_HAL_Driver/Inc/stm32wbxx_ll_bus.h **** #define LL_C2_APB1_GRP1_PERIPH_CRS          RCC_C2APB1ENR1_CRSEN
 277:Drivers/STM32WBxx_HAL_Driver/Inc/stm32wbxx_ll_bus.h **** #define LL_C2_APB1_GRP1_PERIPH_USB          RCC_C2APB1ENR1_USBEN
 278:Drivers/STM32WBxx_HAL_Driver/Inc/stm32wbxx_ll_bus.h **** #endif /* I2C3 */
 279:Drivers/STM32WBxx_HAL_Driver/Inc/stm32wbxx_ll_bus.h **** #define LL_C2_APB1_GRP1_PERIPH_LPTIM1       RCC_C2APB1ENR1_LPTIM1EN
 280:Drivers/STM32WBxx_HAL_Driver/Inc/stm32wbxx_ll_bus.h **** /**
 281:Drivers/STM32WBxx_HAL_Driver/Inc/stm32wbxx_ll_bus.h ****   * @}
 282:Drivers/STM32WBxx_HAL_Driver/Inc/stm32wbxx_ll_bus.h ****   */
 283:Drivers/STM32WBxx_HAL_Driver/Inc/stm32wbxx_ll_bus.h **** 
 284:Drivers/STM32WBxx_HAL_Driver/Inc/stm32wbxx_ll_bus.h **** 
 285:Drivers/STM32WBxx_HAL_Driver/Inc/stm32wbxx_ll_bus.h **** /** @defgroup BUS_LL_EC_C2_APB1_GRP2_PERIPH  C2 APB1 GRP2 PERIPH
 286:Drivers/STM32WBxx_HAL_Driver/Inc/stm32wbxx_ll_bus.h ****   * @{
 287:Drivers/STM32WBxx_HAL_Driver/Inc/stm32wbxx_ll_bus.h ****   */
 288:Drivers/STM32WBxx_HAL_Driver/Inc/stm32wbxx_ll_bus.h **** #if defined(LPUART1)
 289:Drivers/STM32WBxx_HAL_Driver/Inc/stm32wbxx_ll_bus.h **** #define LL_C2_APB1_GRP2_PERIPH_LPUART1      RCC_C2APB1ENR2_LPUART1EN
 290:Drivers/STM32WBxx_HAL_Driver/Inc/stm32wbxx_ll_bus.h **** #endif /* LPUART1 */
 291:Drivers/STM32WBxx_HAL_Driver/Inc/stm32wbxx_ll_bus.h **** #define LL_C2_APB1_GRP2_PERIPH_LPTIM2       RCC_C2APB1ENR2_LPTIM2EN
ARM GAS  C:\Users\Nathan\AppData\Local\Temp\ccVQw5Zk.s 			page 23


 292:Drivers/STM32WBxx_HAL_Driver/Inc/stm32wbxx_ll_bus.h **** /**
 293:Drivers/STM32WBxx_HAL_Driver/Inc/stm32wbxx_ll_bus.h ****   * @}
 294:Drivers/STM32WBxx_HAL_Driver/Inc/stm32wbxx_ll_bus.h ****   */
 295:Drivers/STM32WBxx_HAL_Driver/Inc/stm32wbxx_ll_bus.h **** 
 296:Drivers/STM32WBxx_HAL_Driver/Inc/stm32wbxx_ll_bus.h **** 
 297:Drivers/STM32WBxx_HAL_Driver/Inc/stm32wbxx_ll_bus.h **** /** @defgroup BUS_LL_EC_C2_APB2_GRP1_PERIPH  C2 APB2 GRP1 PERIPH
 298:Drivers/STM32WBxx_HAL_Driver/Inc/stm32wbxx_ll_bus.h ****   * @{
 299:Drivers/STM32WBxx_HAL_Driver/Inc/stm32wbxx_ll_bus.h ****   */
 300:Drivers/STM32WBxx_HAL_Driver/Inc/stm32wbxx_ll_bus.h **** #if defined(ADC_SUPPORT_2_5_MSPS)
 301:Drivers/STM32WBxx_HAL_Driver/Inc/stm32wbxx_ll_bus.h **** #define LL_C2_APB2_GRP1_PERIPH_ADC          RCC_C2APB2ENR_ADCEN
 302:Drivers/STM32WBxx_HAL_Driver/Inc/stm32wbxx_ll_bus.h **** #endif /* ADC_SUPPORT_5_MSPS */
 303:Drivers/STM32WBxx_HAL_Driver/Inc/stm32wbxx_ll_bus.h **** #define LL_C2_APB2_GRP1_PERIPH_TIM1         RCC_C2APB2ENR_TIM1EN
 304:Drivers/STM32WBxx_HAL_Driver/Inc/stm32wbxx_ll_bus.h **** #define LL_C2_APB2_GRP1_PERIPH_SPI1         RCC_C2APB2ENR_SPI1EN
 305:Drivers/STM32WBxx_HAL_Driver/Inc/stm32wbxx_ll_bus.h **** #define LL_C2_APB2_GRP1_PERIPH_USART1       RCC_C2APB2ENR_USART1EN
 306:Drivers/STM32WBxx_HAL_Driver/Inc/stm32wbxx_ll_bus.h **** #if defined(TIM16)
 307:Drivers/STM32WBxx_HAL_Driver/Inc/stm32wbxx_ll_bus.h **** #define LL_C2_APB2_GRP1_PERIPH_TIM16        RCC_C2APB2ENR_TIM16EN
 308:Drivers/STM32WBxx_HAL_Driver/Inc/stm32wbxx_ll_bus.h **** #endif /* TIM16 */
 309:Drivers/STM32WBxx_HAL_Driver/Inc/stm32wbxx_ll_bus.h **** #if defined(TIM17)
 310:Drivers/STM32WBxx_HAL_Driver/Inc/stm32wbxx_ll_bus.h **** #define LL_C2_APB2_GRP1_PERIPH_TIM17        RCC_C2APB2ENR_TIM17EN
 311:Drivers/STM32WBxx_HAL_Driver/Inc/stm32wbxx_ll_bus.h **** #endif /* TIM17 */
 312:Drivers/STM32WBxx_HAL_Driver/Inc/stm32wbxx_ll_bus.h **** #if defined(SAI1)
 313:Drivers/STM32WBxx_HAL_Driver/Inc/stm32wbxx_ll_bus.h **** #define LL_C2_APB2_GRP1_PERIPH_SAI1         RCC_C2APB2ENR_SAI1EN
 314:Drivers/STM32WBxx_HAL_Driver/Inc/stm32wbxx_ll_bus.h **** #endif /* SAI1 */
 315:Drivers/STM32WBxx_HAL_Driver/Inc/stm32wbxx_ll_bus.h **** /**
 316:Drivers/STM32WBxx_HAL_Driver/Inc/stm32wbxx_ll_bus.h ****   * @}
 317:Drivers/STM32WBxx_HAL_Driver/Inc/stm32wbxx_ll_bus.h ****   */
 318:Drivers/STM32WBxx_HAL_Driver/Inc/stm32wbxx_ll_bus.h **** 
 319:Drivers/STM32WBxx_HAL_Driver/Inc/stm32wbxx_ll_bus.h **** 
 320:Drivers/STM32WBxx_HAL_Driver/Inc/stm32wbxx_ll_bus.h **** /** @defgroup BUS_LL_EC_C2_APB3_GRP1_PERIPH  C2 APB3 GRP1 PERIPH
 321:Drivers/STM32WBxx_HAL_Driver/Inc/stm32wbxx_ll_bus.h ****   * @{
 322:Drivers/STM32WBxx_HAL_Driver/Inc/stm32wbxx_ll_bus.h ****   */
 323:Drivers/STM32WBxx_HAL_Driver/Inc/stm32wbxx_ll_bus.h **** #define LL_C2_APB3_GRP1_PERIPH_BLE          RCC_C2APB3ENR_BLEEN
 324:Drivers/STM32WBxx_HAL_Driver/Inc/stm32wbxx_ll_bus.h **** #if defined(RCC_802_SUPPORT)
 325:Drivers/STM32WBxx_HAL_Driver/Inc/stm32wbxx_ll_bus.h **** #define LL_C2_APB3_GRP1_PERIPH_802          RCC_C2APB3ENR_802EN
 326:Drivers/STM32WBxx_HAL_Driver/Inc/stm32wbxx_ll_bus.h **** #endif /* RCC_802_SUPPORT */
 327:Drivers/STM32WBxx_HAL_Driver/Inc/stm32wbxx_ll_bus.h **** /**
 328:Drivers/STM32WBxx_HAL_Driver/Inc/stm32wbxx_ll_bus.h ****   * @}
 329:Drivers/STM32WBxx_HAL_Driver/Inc/stm32wbxx_ll_bus.h ****   */
 330:Drivers/STM32WBxx_HAL_Driver/Inc/stm32wbxx_ll_bus.h **** 
 331:Drivers/STM32WBxx_HAL_Driver/Inc/stm32wbxx_ll_bus.h **** 
 332:Drivers/STM32WBxx_HAL_Driver/Inc/stm32wbxx_ll_bus.h **** /**
 333:Drivers/STM32WBxx_HAL_Driver/Inc/stm32wbxx_ll_bus.h ****   * @}
 334:Drivers/STM32WBxx_HAL_Driver/Inc/stm32wbxx_ll_bus.h ****   */
 335:Drivers/STM32WBxx_HAL_Driver/Inc/stm32wbxx_ll_bus.h **** 
 336:Drivers/STM32WBxx_HAL_Driver/Inc/stm32wbxx_ll_bus.h **** /* Exported macro ------------------------------------------------------------*/
 337:Drivers/STM32WBxx_HAL_Driver/Inc/stm32wbxx_ll_bus.h **** 
 338:Drivers/STM32WBxx_HAL_Driver/Inc/stm32wbxx_ll_bus.h **** /* Exported functions --------------------------------------------------------*/
 339:Drivers/STM32WBxx_HAL_Driver/Inc/stm32wbxx_ll_bus.h **** 
 340:Drivers/STM32WBxx_HAL_Driver/Inc/stm32wbxx_ll_bus.h **** /** @defgroup BUS_LL_Exported_Functions BUS Exported Functions
 341:Drivers/STM32WBxx_HAL_Driver/Inc/stm32wbxx_ll_bus.h ****   * @{
 342:Drivers/STM32WBxx_HAL_Driver/Inc/stm32wbxx_ll_bus.h ****   */
 343:Drivers/STM32WBxx_HAL_Driver/Inc/stm32wbxx_ll_bus.h **** 
 344:Drivers/STM32WBxx_HAL_Driver/Inc/stm32wbxx_ll_bus.h **** /** @defgroup BUS_LL_EF_AHB1 AHB1
 345:Drivers/STM32WBxx_HAL_Driver/Inc/stm32wbxx_ll_bus.h ****   * @{
 346:Drivers/STM32WBxx_HAL_Driver/Inc/stm32wbxx_ll_bus.h ****   */
 347:Drivers/STM32WBxx_HAL_Driver/Inc/stm32wbxx_ll_bus.h **** 
 348:Drivers/STM32WBxx_HAL_Driver/Inc/stm32wbxx_ll_bus.h **** /**
ARM GAS  C:\Users\Nathan\AppData\Local\Temp\ccVQw5Zk.s 			page 24


 349:Drivers/STM32WBxx_HAL_Driver/Inc/stm32wbxx_ll_bus.h ****   * @brief  Enable AHB1 peripherals clock.
 350:Drivers/STM32WBxx_HAL_Driver/Inc/stm32wbxx_ll_bus.h ****   * @rmtoll AHB1ENR      DMA1EN        LL_AHB1_GRP1_EnableClock\n
 351:Drivers/STM32WBxx_HAL_Driver/Inc/stm32wbxx_ll_bus.h ****   *         AHB1ENR      DMA2EN        LL_AHB1_GRP1_EnableClock\n
 352:Drivers/STM32WBxx_HAL_Driver/Inc/stm32wbxx_ll_bus.h ****   *         AHB1ENR      DMAMUX1EN      LL_AHB1_GRP1_EnableClock\n
 353:Drivers/STM32WBxx_HAL_Driver/Inc/stm32wbxx_ll_bus.h ****   *         AHB1ENR      CRCEN         LL_AHB1_GRP1_EnableClock\n
 354:Drivers/STM32WBxx_HAL_Driver/Inc/stm32wbxx_ll_bus.h ****   *         AHB1ENR      TSCEN         LL_AHB1_GRP1_EnableClock
 355:Drivers/STM32WBxx_HAL_Driver/Inc/stm32wbxx_ll_bus.h ****   * @param  Periphs This parameter can be a combination of the following values:
 356:Drivers/STM32WBxx_HAL_Driver/Inc/stm32wbxx_ll_bus.h ****   *         @arg @ref LL_AHB1_GRP1_PERIPH_DMA1
 357:Drivers/STM32WBxx_HAL_Driver/Inc/stm32wbxx_ll_bus.h ****   *         @arg @ref LL_AHB1_GRP1_PERIPH_DMA2 (*)
 358:Drivers/STM32WBxx_HAL_Driver/Inc/stm32wbxx_ll_bus.h ****   *         @arg @ref LL_AHB1_GRP1_PERIPH_DMAMUX1
 359:Drivers/STM32WBxx_HAL_Driver/Inc/stm32wbxx_ll_bus.h ****   *         @arg @ref LL_AHB1_GRP1_PERIPH_CRC
 360:Drivers/STM32WBxx_HAL_Driver/Inc/stm32wbxx_ll_bus.h ****   *         @arg @ref LL_AHB1_GRP1_PERIPH_TSC
 361:Drivers/STM32WBxx_HAL_Driver/Inc/stm32wbxx_ll_bus.h ****   * @note  (*) Not supported by all the devices
 362:Drivers/STM32WBxx_HAL_Driver/Inc/stm32wbxx_ll_bus.h ****   * @retval None
 363:Drivers/STM32WBxx_HAL_Driver/Inc/stm32wbxx_ll_bus.h ****   */
 364:Drivers/STM32WBxx_HAL_Driver/Inc/stm32wbxx_ll_bus.h **** __STATIC_INLINE void LL_AHB1_GRP1_EnableClock(uint32_t Periphs)
 365:Drivers/STM32WBxx_HAL_Driver/Inc/stm32wbxx_ll_bus.h **** {
 366:Drivers/STM32WBxx_HAL_Driver/Inc/stm32wbxx_ll_bus.h ****   __IO uint32_t tmpreg;
 367:Drivers/STM32WBxx_HAL_Driver/Inc/stm32wbxx_ll_bus.h ****   SET_BIT(RCC->AHB1ENR, Periphs);
 368:Drivers/STM32WBxx_HAL_Driver/Inc/stm32wbxx_ll_bus.h ****   /* Delay after an RCC peripheral clock enabling */
 369:Drivers/STM32WBxx_HAL_Driver/Inc/stm32wbxx_ll_bus.h ****   tmpreg = READ_BIT(RCC->AHB1ENR, Periphs);
 370:Drivers/STM32WBxx_HAL_Driver/Inc/stm32wbxx_ll_bus.h ****   (void)tmpreg;
 371:Drivers/STM32WBxx_HAL_Driver/Inc/stm32wbxx_ll_bus.h **** }
 372:Drivers/STM32WBxx_HAL_Driver/Inc/stm32wbxx_ll_bus.h **** 
 373:Drivers/STM32WBxx_HAL_Driver/Inc/stm32wbxx_ll_bus.h **** /**
 374:Drivers/STM32WBxx_HAL_Driver/Inc/stm32wbxx_ll_bus.h ****   * @brief  Check if AHB1 peripheral clock is enabled or not
 375:Drivers/STM32WBxx_HAL_Driver/Inc/stm32wbxx_ll_bus.h ****   * @rmtoll AHB1ENR      DMA1EN        LL_AHB1_GRP1_IsEnabledClock\n
 376:Drivers/STM32WBxx_HAL_Driver/Inc/stm32wbxx_ll_bus.h ****   *         AHB1ENR      DMA2EN        LL_AHB1_GRP1_IsEnabledClock\n
 377:Drivers/STM32WBxx_HAL_Driver/Inc/stm32wbxx_ll_bus.h ****   *         AHB1ENR      DMAMUX1EN      LL_AHB1_GRP1_IsEnabledClock\n
 378:Drivers/STM32WBxx_HAL_Driver/Inc/stm32wbxx_ll_bus.h ****   *         AHB1ENR      CRCEN         LL_AHB1_GRP1_IsEnabledClock\n
 379:Drivers/STM32WBxx_HAL_Driver/Inc/stm32wbxx_ll_bus.h ****   *         AHB1ENR      TSCEN         LL_AHB1_GRP1_IsEnabledClock
 380:Drivers/STM32WBxx_HAL_Driver/Inc/stm32wbxx_ll_bus.h ****   * @param  Periphs This parameter can be a combination of the following values:
 381:Drivers/STM32WBxx_HAL_Driver/Inc/stm32wbxx_ll_bus.h ****   *         @arg @ref LL_AHB1_GRP1_PERIPH_DMA1
 382:Drivers/STM32WBxx_HAL_Driver/Inc/stm32wbxx_ll_bus.h ****   *         @arg @ref LL_AHB1_GRP1_PERIPH_DMA2 (*)
 383:Drivers/STM32WBxx_HAL_Driver/Inc/stm32wbxx_ll_bus.h ****   *         @arg @ref LL_AHB1_GRP1_PERIPH_DMAMUX1
 384:Drivers/STM32WBxx_HAL_Driver/Inc/stm32wbxx_ll_bus.h ****   *         @arg @ref LL_AHB1_GRP1_PERIPH_CRC
 385:Drivers/STM32WBxx_HAL_Driver/Inc/stm32wbxx_ll_bus.h ****   *         @arg @ref LL_AHB1_GRP1_PERIPH_TSC
 386:Drivers/STM32WBxx_HAL_Driver/Inc/stm32wbxx_ll_bus.h ****   * @note  (*) Not supported by all the devices
 387:Drivers/STM32WBxx_HAL_Driver/Inc/stm32wbxx_ll_bus.h ****   * @retval uint32_t
 388:Drivers/STM32WBxx_HAL_Driver/Inc/stm32wbxx_ll_bus.h ****   */
 389:Drivers/STM32WBxx_HAL_Driver/Inc/stm32wbxx_ll_bus.h **** __STATIC_INLINE uint32_t LL_AHB1_GRP1_IsEnabledClock(uint32_t Periphs)
 390:Drivers/STM32WBxx_HAL_Driver/Inc/stm32wbxx_ll_bus.h **** {
 391:Drivers/STM32WBxx_HAL_Driver/Inc/stm32wbxx_ll_bus.h ****   return ((READ_BIT(RCC->AHB1ENR, Periphs) == (Periphs)) ? 1UL : 0UL);
 392:Drivers/STM32WBxx_HAL_Driver/Inc/stm32wbxx_ll_bus.h **** }
 393:Drivers/STM32WBxx_HAL_Driver/Inc/stm32wbxx_ll_bus.h **** 
 394:Drivers/STM32WBxx_HAL_Driver/Inc/stm32wbxx_ll_bus.h **** /**
 395:Drivers/STM32WBxx_HAL_Driver/Inc/stm32wbxx_ll_bus.h ****   * @brief  Disable AHB1 peripherals clock.
 396:Drivers/STM32WBxx_HAL_Driver/Inc/stm32wbxx_ll_bus.h ****   * @rmtoll AHB1ENR      DMA1EN        LL_AHB1_GRP1_DisableClock\n
 397:Drivers/STM32WBxx_HAL_Driver/Inc/stm32wbxx_ll_bus.h ****   *         AHB1ENR      DMA2EN        LL_AHB1_GRP1_DisableClock\n
 398:Drivers/STM32WBxx_HAL_Driver/Inc/stm32wbxx_ll_bus.h ****   *         AHB1ENR      DMAMUX1EN      LL_AHB1_GRP1_DisableClock\n
 399:Drivers/STM32WBxx_HAL_Driver/Inc/stm32wbxx_ll_bus.h ****   *         AHB1ENR      CRCEN         LL_AHB1_GRP1_DisableClock\n
 400:Drivers/STM32WBxx_HAL_Driver/Inc/stm32wbxx_ll_bus.h ****   *         AHB1ENR      TSCEN         LL_AHB1_GRP1_DisableClock
 401:Drivers/STM32WBxx_HAL_Driver/Inc/stm32wbxx_ll_bus.h ****   * @param  Periphs This parameter can be a combination of the following values:
 402:Drivers/STM32WBxx_HAL_Driver/Inc/stm32wbxx_ll_bus.h ****   *         @arg @ref LL_AHB1_GRP1_PERIPH_DMA1
 403:Drivers/STM32WBxx_HAL_Driver/Inc/stm32wbxx_ll_bus.h ****   *         @arg @ref LL_AHB1_GRP1_PERIPH_DMA2 (*)
 404:Drivers/STM32WBxx_HAL_Driver/Inc/stm32wbxx_ll_bus.h ****   *         @arg @ref LL_AHB1_GRP1_PERIPH_DMAMUX1
 405:Drivers/STM32WBxx_HAL_Driver/Inc/stm32wbxx_ll_bus.h ****   *         @arg @ref LL_AHB1_GRP1_PERIPH_CRC
ARM GAS  C:\Users\Nathan\AppData\Local\Temp\ccVQw5Zk.s 			page 25


 406:Drivers/STM32WBxx_HAL_Driver/Inc/stm32wbxx_ll_bus.h ****   *         @arg @ref LL_AHB1_GRP1_PERIPH_TSC
 407:Drivers/STM32WBxx_HAL_Driver/Inc/stm32wbxx_ll_bus.h ****   * @note  (*) Not supported by all the devices
 408:Drivers/STM32WBxx_HAL_Driver/Inc/stm32wbxx_ll_bus.h ****   * @retval None
 409:Drivers/STM32WBxx_HAL_Driver/Inc/stm32wbxx_ll_bus.h ****   */
 410:Drivers/STM32WBxx_HAL_Driver/Inc/stm32wbxx_ll_bus.h **** __STATIC_INLINE void LL_AHB1_GRP1_DisableClock(uint32_t Periphs)
 411:Drivers/STM32WBxx_HAL_Driver/Inc/stm32wbxx_ll_bus.h **** {
 412:Drivers/STM32WBxx_HAL_Driver/Inc/stm32wbxx_ll_bus.h ****   CLEAR_BIT(RCC->AHB1ENR, Periphs);
 413:Drivers/STM32WBxx_HAL_Driver/Inc/stm32wbxx_ll_bus.h **** }
 414:Drivers/STM32WBxx_HAL_Driver/Inc/stm32wbxx_ll_bus.h **** 
 415:Drivers/STM32WBxx_HAL_Driver/Inc/stm32wbxx_ll_bus.h **** /**
 416:Drivers/STM32WBxx_HAL_Driver/Inc/stm32wbxx_ll_bus.h ****   * @brief  Force AHB1 peripherals reset.
 417:Drivers/STM32WBxx_HAL_Driver/Inc/stm32wbxx_ll_bus.h ****   * @rmtoll AHB1RSTR     DMA1RST       LL_AHB1_GRP1_ForceReset\n
 418:Drivers/STM32WBxx_HAL_Driver/Inc/stm32wbxx_ll_bus.h ****   *         AHB1RSTR     DMA2RST       LL_AHB1_GRP1_ForceReset\n
 419:Drivers/STM32WBxx_HAL_Driver/Inc/stm32wbxx_ll_bus.h ****   *         AHB1RSTR     DMAMUX1RST     LL_AHB1_GRP1_ForceReset\n
 420:Drivers/STM32WBxx_HAL_Driver/Inc/stm32wbxx_ll_bus.h ****   *         AHB1RSTR     CRCRST        LL_AHB1_GRP1_ForceReset\n
 421:Drivers/STM32WBxx_HAL_Driver/Inc/stm32wbxx_ll_bus.h ****   *         AHB1RSTR     TSCRST        LL_AHB1_GRP1_ForceReset
 422:Drivers/STM32WBxx_HAL_Driver/Inc/stm32wbxx_ll_bus.h ****   * @param  Periphs This parameter can be a combination of the following values:
 423:Drivers/STM32WBxx_HAL_Driver/Inc/stm32wbxx_ll_bus.h ****   *         @arg @ref LL_AHB1_GRP1_PERIPH_ALL
 424:Drivers/STM32WBxx_HAL_Driver/Inc/stm32wbxx_ll_bus.h ****   *         @arg @ref LL_AHB1_GRP1_PERIPH_DMA1
 425:Drivers/STM32WBxx_HAL_Driver/Inc/stm32wbxx_ll_bus.h ****   *         @arg @ref LL_AHB1_GRP1_PERIPH_DMA2 (*)
 426:Drivers/STM32WBxx_HAL_Driver/Inc/stm32wbxx_ll_bus.h ****   *         @arg @ref LL_AHB1_GRP1_PERIPH_DMAMUX1
 427:Drivers/STM32WBxx_HAL_Driver/Inc/stm32wbxx_ll_bus.h ****   *         @arg @ref LL_AHB1_GRP1_PERIPH_CRC
 428:Drivers/STM32WBxx_HAL_Driver/Inc/stm32wbxx_ll_bus.h ****   *         @arg @ref LL_AHB1_GRP1_PERIPH_TSC
 429:Drivers/STM32WBxx_HAL_Driver/Inc/stm32wbxx_ll_bus.h ****   * @note  (*) Not supported by all the devices
 430:Drivers/STM32WBxx_HAL_Driver/Inc/stm32wbxx_ll_bus.h ****   * @retval None
 431:Drivers/STM32WBxx_HAL_Driver/Inc/stm32wbxx_ll_bus.h ****   */
 432:Drivers/STM32WBxx_HAL_Driver/Inc/stm32wbxx_ll_bus.h **** __STATIC_INLINE void LL_AHB1_GRP1_ForceReset(uint32_t Periphs)
 433:Drivers/STM32WBxx_HAL_Driver/Inc/stm32wbxx_ll_bus.h **** {
 434:Drivers/STM32WBxx_HAL_Driver/Inc/stm32wbxx_ll_bus.h ****   SET_BIT(RCC->AHB1RSTR, Periphs);
 435:Drivers/STM32WBxx_HAL_Driver/Inc/stm32wbxx_ll_bus.h **** }
 436:Drivers/STM32WBxx_HAL_Driver/Inc/stm32wbxx_ll_bus.h **** 
 437:Drivers/STM32WBxx_HAL_Driver/Inc/stm32wbxx_ll_bus.h **** /**
 438:Drivers/STM32WBxx_HAL_Driver/Inc/stm32wbxx_ll_bus.h ****   * @brief  Release AHB1 peripherals reset.
 439:Drivers/STM32WBxx_HAL_Driver/Inc/stm32wbxx_ll_bus.h ****   * @rmtoll AHB1RSTR     DMA1RST       LL_AHB1_GRP1_ReleaseReset\n
 440:Drivers/STM32WBxx_HAL_Driver/Inc/stm32wbxx_ll_bus.h ****   *         AHB1RSTR     DMA2RST       LL_AHB1_GRP1_ReleaseReset\n
 441:Drivers/STM32WBxx_HAL_Driver/Inc/stm32wbxx_ll_bus.h ****   *         AHB1RSTR     DMAMUX1RST     LL_AHB1_GRP1_ReleaseReset\n
 442:Drivers/STM32WBxx_HAL_Driver/Inc/stm32wbxx_ll_bus.h ****   *         AHB1RSTR     CRCRST        LL_AHB1_GRP1_ReleaseReset\n
 443:Drivers/STM32WBxx_HAL_Driver/Inc/stm32wbxx_ll_bus.h ****   *         AHB1RSTR     TSCRST        LL_AHB1_GRP1_ReleaseReset
 444:Drivers/STM32WBxx_HAL_Driver/Inc/stm32wbxx_ll_bus.h ****   * @param  Periphs This parameter can be a combination of the following values:
 445:Drivers/STM32WBxx_HAL_Driver/Inc/stm32wbxx_ll_bus.h ****   *         @arg @ref LL_AHB1_GRP1_PERIPH_ALL
 446:Drivers/STM32WBxx_HAL_Driver/Inc/stm32wbxx_ll_bus.h ****   *         @arg @ref LL_AHB1_GRP1_PERIPH_DMA1
 447:Drivers/STM32WBxx_HAL_Driver/Inc/stm32wbxx_ll_bus.h ****   *         @arg @ref LL_AHB1_GRP1_PERIPH_DMA2 (*)
 448:Drivers/STM32WBxx_HAL_Driver/Inc/stm32wbxx_ll_bus.h ****   *         @arg @ref LL_AHB1_GRP1_PERIPH_DMAMUX1
 449:Drivers/STM32WBxx_HAL_Driver/Inc/stm32wbxx_ll_bus.h ****   *         @arg @ref LL_AHB1_GRP1_PERIPH_CRC
 450:Drivers/STM32WBxx_HAL_Driver/Inc/stm32wbxx_ll_bus.h ****   *         @arg @ref LL_AHB1_GRP1_PERIPH_TSC
 451:Drivers/STM32WBxx_HAL_Driver/Inc/stm32wbxx_ll_bus.h ****   * @note  (*) Not supported by all the devices
 452:Drivers/STM32WBxx_HAL_Driver/Inc/stm32wbxx_ll_bus.h ****   * @retval None
 453:Drivers/STM32WBxx_HAL_Driver/Inc/stm32wbxx_ll_bus.h ****   */
 454:Drivers/STM32WBxx_HAL_Driver/Inc/stm32wbxx_ll_bus.h **** __STATIC_INLINE void LL_AHB1_GRP1_ReleaseReset(uint32_t Periphs)
 455:Drivers/STM32WBxx_HAL_Driver/Inc/stm32wbxx_ll_bus.h **** {
 456:Drivers/STM32WBxx_HAL_Driver/Inc/stm32wbxx_ll_bus.h ****   CLEAR_BIT(RCC->AHB1RSTR, Periphs);
 457:Drivers/STM32WBxx_HAL_Driver/Inc/stm32wbxx_ll_bus.h **** }
 458:Drivers/STM32WBxx_HAL_Driver/Inc/stm32wbxx_ll_bus.h **** 
 459:Drivers/STM32WBxx_HAL_Driver/Inc/stm32wbxx_ll_bus.h **** /**
 460:Drivers/STM32WBxx_HAL_Driver/Inc/stm32wbxx_ll_bus.h ****   * @brief  Enable AHB1 peripherals clock during Low Power (Sleep) mode.
 461:Drivers/STM32WBxx_HAL_Driver/Inc/stm32wbxx_ll_bus.h ****   * @rmtoll AHB1SMENR    DMA1SMEN      LL_AHB1_GRP1_EnableClockSleep\n
 462:Drivers/STM32WBxx_HAL_Driver/Inc/stm32wbxx_ll_bus.h ****   *         AHB1SMENR    DMA2SMEN      LL_AHB1_GRP1_EnableClockSleep\n
ARM GAS  C:\Users\Nathan\AppData\Local\Temp\ccVQw5Zk.s 			page 26


 463:Drivers/STM32WBxx_HAL_Driver/Inc/stm32wbxx_ll_bus.h ****   *         AHB1SMENR    DMAMUX1SMEN    LL_AHB1_GRP1_EnableClockSleep\n
 464:Drivers/STM32WBxx_HAL_Driver/Inc/stm32wbxx_ll_bus.h ****   *         AHB1SMENR    SRAM1SMEN     LL_AHB1_GRP1_EnableClockSleep\n
 465:Drivers/STM32WBxx_HAL_Driver/Inc/stm32wbxx_ll_bus.h ****   *         AHB1SMENR    CRCSMEN       LL_AHB1_GRP1_EnableClockSleep\n
 466:Drivers/STM32WBxx_HAL_Driver/Inc/stm32wbxx_ll_bus.h ****   *         AHB1SMENR    TSCSMEN       LL_AHB1_GRP1_EnableClockSleep
 467:Drivers/STM32WBxx_HAL_Driver/Inc/stm32wbxx_ll_bus.h ****   * @param  Periphs This parameter can be a combination of the following values:
 468:Drivers/STM32WBxx_HAL_Driver/Inc/stm32wbxx_ll_bus.h ****   *         @arg @ref LL_AHB1_GRP1_PERIPH_DMA1
 469:Drivers/STM32WBxx_HAL_Driver/Inc/stm32wbxx_ll_bus.h ****   *         @arg @ref LL_AHB1_GRP1_PERIPH_DMA2 (*)
 470:Drivers/STM32WBxx_HAL_Driver/Inc/stm32wbxx_ll_bus.h ****   *         @arg @ref LL_AHB1_GRP1_PERIPH_DMAMUX1
 471:Drivers/STM32WBxx_HAL_Driver/Inc/stm32wbxx_ll_bus.h ****   *         @arg @ref LL_AHB1_GRP1_PERIPH_SRAM1
 472:Drivers/STM32WBxx_HAL_Driver/Inc/stm32wbxx_ll_bus.h ****   *         @arg @ref LL_AHB1_GRP1_PERIPH_CRC
 473:Drivers/STM32WBxx_HAL_Driver/Inc/stm32wbxx_ll_bus.h ****   *         @arg @ref LL_AHB1_GRP1_PERIPH_TSC
 474:Drivers/STM32WBxx_HAL_Driver/Inc/stm32wbxx_ll_bus.h ****   * @note  (*) Not supported by all the devices
 475:Drivers/STM32WBxx_HAL_Driver/Inc/stm32wbxx_ll_bus.h ****   * @retval None
 476:Drivers/STM32WBxx_HAL_Driver/Inc/stm32wbxx_ll_bus.h ****   */
 477:Drivers/STM32WBxx_HAL_Driver/Inc/stm32wbxx_ll_bus.h **** __STATIC_INLINE void LL_AHB1_GRP1_EnableClockSleep(uint32_t Periphs)
 478:Drivers/STM32WBxx_HAL_Driver/Inc/stm32wbxx_ll_bus.h **** {
 479:Drivers/STM32WBxx_HAL_Driver/Inc/stm32wbxx_ll_bus.h ****   __IO uint32_t tmpreg;
 480:Drivers/STM32WBxx_HAL_Driver/Inc/stm32wbxx_ll_bus.h ****   SET_BIT(RCC->AHB1SMENR, Periphs);
 481:Drivers/STM32WBxx_HAL_Driver/Inc/stm32wbxx_ll_bus.h ****   /* Delay after an RCC peripheral clock enabling */
 482:Drivers/STM32WBxx_HAL_Driver/Inc/stm32wbxx_ll_bus.h ****   tmpreg = READ_BIT(RCC->AHB1SMENR, Periphs);
 483:Drivers/STM32WBxx_HAL_Driver/Inc/stm32wbxx_ll_bus.h ****   (void)tmpreg;
 484:Drivers/STM32WBxx_HAL_Driver/Inc/stm32wbxx_ll_bus.h **** }
 485:Drivers/STM32WBxx_HAL_Driver/Inc/stm32wbxx_ll_bus.h **** 
 486:Drivers/STM32WBxx_HAL_Driver/Inc/stm32wbxx_ll_bus.h **** /**
 487:Drivers/STM32WBxx_HAL_Driver/Inc/stm32wbxx_ll_bus.h ****   * @brief  Disable AHB1 peripherals clock during Low Power (Sleep) mode.
 488:Drivers/STM32WBxx_HAL_Driver/Inc/stm32wbxx_ll_bus.h ****   * @rmtoll AHB1SMENR    DMA1SMEN      LL_AHB1_GRP1_DisableClockSleep\n
 489:Drivers/STM32WBxx_HAL_Driver/Inc/stm32wbxx_ll_bus.h ****   *         AHB1SMENR    DMA2SMEN      LL_AHB1_GRP1_DisableClockSleep\n
 490:Drivers/STM32WBxx_HAL_Driver/Inc/stm32wbxx_ll_bus.h ****   *         AHB1SMENR    DMAMUX1SMEN    LL_AHB1_GRP1_DisableClockSleep\n
 491:Drivers/STM32WBxx_HAL_Driver/Inc/stm32wbxx_ll_bus.h ****   *         AHB1SMENR    SRAM1SMEN     LL_AHB1_GRP1_DisableClockSleep\n
 492:Drivers/STM32WBxx_HAL_Driver/Inc/stm32wbxx_ll_bus.h ****   *         AHB1SMENR    CRCSMEN       LL_AHB1_GRP1_DisableClockSleep\n
 493:Drivers/STM32WBxx_HAL_Driver/Inc/stm32wbxx_ll_bus.h ****   *         AHB1SMENR    TSCSMEN       LL_AHB1_GRP1_DisableClockSleep
 494:Drivers/STM32WBxx_HAL_Driver/Inc/stm32wbxx_ll_bus.h ****   * @param  Periphs This parameter can be a combination of the following values:
 495:Drivers/STM32WBxx_HAL_Driver/Inc/stm32wbxx_ll_bus.h ****   *         @arg @ref LL_AHB1_GRP1_PERIPH_DMA1
 496:Drivers/STM32WBxx_HAL_Driver/Inc/stm32wbxx_ll_bus.h ****   *         @arg @ref LL_AHB1_GRP1_PERIPH_DMA2 (*)
 497:Drivers/STM32WBxx_HAL_Driver/Inc/stm32wbxx_ll_bus.h ****   *         @arg @ref LL_AHB1_GRP1_PERIPH_DMAMUX1
 498:Drivers/STM32WBxx_HAL_Driver/Inc/stm32wbxx_ll_bus.h ****   *         @arg @ref LL_AHB1_GRP1_PERIPH_SRAM1
 499:Drivers/STM32WBxx_HAL_Driver/Inc/stm32wbxx_ll_bus.h ****   *         @arg @ref LL_AHB1_GRP1_PERIPH_CRC
 500:Drivers/STM32WBxx_HAL_Driver/Inc/stm32wbxx_ll_bus.h ****   *         @arg @ref LL_AHB1_GRP1_PERIPH_TSC
 501:Drivers/STM32WBxx_HAL_Driver/Inc/stm32wbxx_ll_bus.h ****   * @note  (*) Not supported by all the devices
 502:Drivers/STM32WBxx_HAL_Driver/Inc/stm32wbxx_ll_bus.h ****   * @retval None
 503:Drivers/STM32WBxx_HAL_Driver/Inc/stm32wbxx_ll_bus.h ****   */
 504:Drivers/STM32WBxx_HAL_Driver/Inc/stm32wbxx_ll_bus.h **** __STATIC_INLINE void LL_AHB1_GRP1_DisableClockSleep(uint32_t Periphs)
 505:Drivers/STM32WBxx_HAL_Driver/Inc/stm32wbxx_ll_bus.h **** {
 506:Drivers/STM32WBxx_HAL_Driver/Inc/stm32wbxx_ll_bus.h ****   CLEAR_BIT(RCC->AHB1SMENR, Periphs);
 507:Drivers/STM32WBxx_HAL_Driver/Inc/stm32wbxx_ll_bus.h **** }
 508:Drivers/STM32WBxx_HAL_Driver/Inc/stm32wbxx_ll_bus.h **** 
 509:Drivers/STM32WBxx_HAL_Driver/Inc/stm32wbxx_ll_bus.h **** /**
 510:Drivers/STM32WBxx_HAL_Driver/Inc/stm32wbxx_ll_bus.h ****   * @}
 511:Drivers/STM32WBxx_HAL_Driver/Inc/stm32wbxx_ll_bus.h ****   */
 512:Drivers/STM32WBxx_HAL_Driver/Inc/stm32wbxx_ll_bus.h **** 
 513:Drivers/STM32WBxx_HAL_Driver/Inc/stm32wbxx_ll_bus.h **** /** @defgroup BUS_LL_EF_AHB2 AHB2
 514:Drivers/STM32WBxx_HAL_Driver/Inc/stm32wbxx_ll_bus.h ****   * @{
 515:Drivers/STM32WBxx_HAL_Driver/Inc/stm32wbxx_ll_bus.h ****   */
 516:Drivers/STM32WBxx_HAL_Driver/Inc/stm32wbxx_ll_bus.h **** 
 517:Drivers/STM32WBxx_HAL_Driver/Inc/stm32wbxx_ll_bus.h **** /**
 518:Drivers/STM32WBxx_HAL_Driver/Inc/stm32wbxx_ll_bus.h ****   * @brief  Enable AHB2 peripherals clock.
 519:Drivers/STM32WBxx_HAL_Driver/Inc/stm32wbxx_ll_bus.h ****   * @rmtoll AHB2ENR      GPIOAEN       LL_AHB2_GRP1_EnableClock\n
ARM GAS  C:\Users\Nathan\AppData\Local\Temp\ccVQw5Zk.s 			page 27


 520:Drivers/STM32WBxx_HAL_Driver/Inc/stm32wbxx_ll_bus.h ****   *         AHB2ENR      GPIOBEN       LL_AHB2_GRP1_EnableClock\n
 521:Drivers/STM32WBxx_HAL_Driver/Inc/stm32wbxx_ll_bus.h ****   *         AHB2ENR      GPIOCEN       LL_AHB2_GRP1_EnableClock\n
 522:Drivers/STM32WBxx_HAL_Driver/Inc/stm32wbxx_ll_bus.h ****   *         AHB2ENR      GPIODEN       LL_AHB2_GRP1_EnableClock\n
 523:Drivers/STM32WBxx_HAL_Driver/Inc/stm32wbxx_ll_bus.h ****   *         AHB2ENR      GPIOEEN       LL_AHB2_GRP1_EnableClock\n
 524:Drivers/STM32WBxx_HAL_Driver/Inc/stm32wbxx_ll_bus.h ****   *         AHB2ENR      GPIOHEN       LL_AHB2_GRP1_EnableClock\n
 525:Drivers/STM32WBxx_HAL_Driver/Inc/stm32wbxx_ll_bus.h ****   *         AHB2ENR      ADCEN         LL_AHB2_GRP1_EnableClock\n
 526:Drivers/STM32WBxx_HAL_Driver/Inc/stm32wbxx_ll_bus.h ****   *         AHB2ENR      AES1EN        LL_AHB2_GRP1_EnableClock
 527:Drivers/STM32WBxx_HAL_Driver/Inc/stm32wbxx_ll_bus.h ****   * @param  Periphs This parameter can be a combination of the following values:
 528:Drivers/STM32WBxx_HAL_Driver/Inc/stm32wbxx_ll_bus.h ****   *         @arg @ref LL_AHB2_GRP1_PERIPH_GPIOA
 529:Drivers/STM32WBxx_HAL_Driver/Inc/stm32wbxx_ll_bus.h ****   *         @arg @ref LL_AHB2_GRP1_PERIPH_GPIOB
 530:Drivers/STM32WBxx_HAL_Driver/Inc/stm32wbxx_ll_bus.h ****   *         @arg @ref LL_AHB2_GRP1_PERIPH_GPIOC
 531:Drivers/STM32WBxx_HAL_Driver/Inc/stm32wbxx_ll_bus.h ****   *         @arg @ref LL_AHB2_GRP1_PERIPH_GPIOD (*)
 532:Drivers/STM32WBxx_HAL_Driver/Inc/stm32wbxx_ll_bus.h ****   *         @arg @ref LL_AHB2_GRP1_PERIPH_GPIOE
 533:Drivers/STM32WBxx_HAL_Driver/Inc/stm32wbxx_ll_bus.h ****   *         @arg @ref LL_AHB2_GRP1_PERIPH_GPIOH
 534:Drivers/STM32WBxx_HAL_Driver/Inc/stm32wbxx_ll_bus.h ****   *         @arg @ref LL_AHB2_GRP1_PERIPH_ADC (*)
 535:Drivers/STM32WBxx_HAL_Driver/Inc/stm32wbxx_ll_bus.h ****   *         @arg @ref LL_AHB2_GRP1_PERIPH_AES1 (*)
 536:Drivers/STM32WBxx_HAL_Driver/Inc/stm32wbxx_ll_bus.h ****   * @note  (*) Not supported by all the devices
 537:Drivers/STM32WBxx_HAL_Driver/Inc/stm32wbxx_ll_bus.h ****   * @retval None
 538:Drivers/STM32WBxx_HAL_Driver/Inc/stm32wbxx_ll_bus.h ****   */
 539:Drivers/STM32WBxx_HAL_Driver/Inc/stm32wbxx_ll_bus.h **** __STATIC_INLINE void LL_AHB2_GRP1_EnableClock(uint32_t Periphs)
 141              		.loc 2 539 22 view .LVU22
 142              	.LBB9:
 540:Drivers/STM32WBxx_HAL_Driver/Inc/stm32wbxx_ll_bus.h **** {
 541:Drivers/STM32WBxx_HAL_Driver/Inc/stm32wbxx_ll_bus.h ****   __IO uint32_t tmpreg;
 143              		.loc 2 541 3 view .LVU23
 542:Drivers/STM32WBxx_HAL_Driver/Inc/stm32wbxx_ll_bus.h ****   SET_BIT(RCC->AHB2ENR, Periphs);
 144              		.loc 2 542 3 view .LVU24
 145 001c 4FF0B044 		mov	r4, #1476395008
 146 0020 E36C     		ldr	r3, [r4, #76]
 147 0022 43F00103 		orr	r3, r3, #1
 148 0026 E364     		str	r3, [r4, #76]
 543:Drivers/STM32WBxx_HAL_Driver/Inc/stm32wbxx_ll_bus.h ****   /* Delay after an RCC peripheral clock enabling */
 544:Drivers/STM32WBxx_HAL_Driver/Inc/stm32wbxx_ll_bus.h ****   tmpreg = READ_BIT(RCC->AHB2ENR, Periphs);
 149              		.loc 2 544 3 view .LVU25
 150              		.loc 2 544 12 is_stmt 0 view .LVU26
 151 0028 E36C     		ldr	r3, [r4, #76]
 152 002a 03F00103 		and	r3, r3, #1
 153              		.loc 2 544 10 view .LVU27
 154 002e 0293     		str	r3, [sp, #8]
 545:Drivers/STM32WBxx_HAL_Driver/Inc/stm32wbxx_ll_bus.h ****   (void)tmpreg;
 155              		.loc 2 545 3 is_stmt 1 view .LVU28
 156 0030 029B     		ldr	r3, [sp, #8]
 157              	.LVL9:
 158              		.loc 2 545 3 is_stmt 0 view .LVU29
 159              	.LBE9:
 160              	.LBE8:
  88:USB_Device/Target/usbd_conf.c ****     GPIO_InitStruct.Mode = GPIO_MODE_AF_PP;
 161              		.loc 1 88 5 is_stmt 1 view .LVU30
  88:USB_Device/Target/usbd_conf.c ****     GPIO_InitStruct.Mode = GPIO_MODE_AF_PP;
 162              		.loc 1 88 25 is_stmt 0 view .LVU31
 163 0032 4FF4C053 		mov	r3, #6144
 164 0036 0393     		str	r3, [sp, #12]
  89:USB_Device/Target/usbd_conf.c ****     GPIO_InitStruct.Pull = GPIO_NOPULL;
 165              		.loc 1 89 5 is_stmt 1 view .LVU32
  89:USB_Device/Target/usbd_conf.c ****     GPIO_InitStruct.Pull = GPIO_NOPULL;
 166              		.loc 1 89 26 is_stmt 0 view .LVU33
 167 0038 0223     		movs	r3, #2
ARM GAS  C:\Users\Nathan\AppData\Local\Temp\ccVQw5Zk.s 			page 28


 168 003a 0493     		str	r3, [sp, #16]
  90:USB_Device/Target/usbd_conf.c ****     GPIO_InitStruct.Speed = GPIO_SPEED_FREQ_LOW;
 169              		.loc 1 90 5 is_stmt 1 view .LVU34
  91:USB_Device/Target/usbd_conf.c ****     GPIO_InitStruct.Alternate = GPIO_AF10_USB;
 170              		.loc 1 91 5 view .LVU35
  92:USB_Device/Target/usbd_conf.c ****     HAL_GPIO_Init(GPIOA, &GPIO_InitStruct);
 171              		.loc 1 92 5 view .LVU36
  92:USB_Device/Target/usbd_conf.c ****     HAL_GPIO_Init(GPIOA, &GPIO_InitStruct);
 172              		.loc 1 92 31 is_stmt 0 view .LVU37
 173 003c 0A23     		movs	r3, #10
 174 003e 0793     		str	r3, [sp, #28]
  93:USB_Device/Target/usbd_conf.c **** 
 175              		.loc 1 93 5 is_stmt 1 view .LVU38
 176 0040 03A9     		add	r1, sp, #12
 177 0042 4FF09040 		mov	r0, #1207959552
 178              	.LVL10:
  93:USB_Device/Target/usbd_conf.c **** 
 179              		.loc 1 93 5 is_stmt 0 view .LVU39
 180 0046 FFF7FEFF 		bl	HAL_GPIO_Init
 181              	.LVL11:
  96:USB_Device/Target/usbd_conf.c **** 
 182              		.loc 1 96 5 is_stmt 1 view .LVU40
 183              	.LBB10:
 184              	.LBI10:
 546:Drivers/STM32WBxx_HAL_Driver/Inc/stm32wbxx_ll_bus.h **** }
 547:Drivers/STM32WBxx_HAL_Driver/Inc/stm32wbxx_ll_bus.h **** 
 548:Drivers/STM32WBxx_HAL_Driver/Inc/stm32wbxx_ll_bus.h **** /**
 549:Drivers/STM32WBxx_HAL_Driver/Inc/stm32wbxx_ll_bus.h ****   * @brief  Check if AHB2 peripheral clock is enabled or not
 550:Drivers/STM32WBxx_HAL_Driver/Inc/stm32wbxx_ll_bus.h ****   * @rmtoll AHB2ENR      GPIOAEN       LL_AHB2_GRP1_IsEnabledClock\n
 551:Drivers/STM32WBxx_HAL_Driver/Inc/stm32wbxx_ll_bus.h ****   *         AHB2ENR      GPIOBEN       LL_AHB2_GRP1_IsEnabledClock\n
 552:Drivers/STM32WBxx_HAL_Driver/Inc/stm32wbxx_ll_bus.h ****   *         AHB2ENR      GPIOCEN       LL_AHB2_GRP1_IsEnabledClock\n
 553:Drivers/STM32WBxx_HAL_Driver/Inc/stm32wbxx_ll_bus.h ****   *         AHB2ENR      GPIODEN       LL_AHB2_GRP1_IsEnabledClock\n
 554:Drivers/STM32WBxx_HAL_Driver/Inc/stm32wbxx_ll_bus.h ****   *         AHB2ENR      GPIOEEN       LL_AHB2_GRP1_IsEnabledClock\n
 555:Drivers/STM32WBxx_HAL_Driver/Inc/stm32wbxx_ll_bus.h ****   *         AHB2ENR      GPIOHEN       LL_AHB2_GRP1_IsEnabledClock\n
 556:Drivers/STM32WBxx_HAL_Driver/Inc/stm32wbxx_ll_bus.h ****   *         AHB2ENR      ADCEN         LL_AHB2_GRP1_IsEnabledClock\n
 557:Drivers/STM32WBxx_HAL_Driver/Inc/stm32wbxx_ll_bus.h ****   *         AHB2ENR      AES1EN        LL_AHB2_GRP1_IsEnabledClock
 558:Drivers/STM32WBxx_HAL_Driver/Inc/stm32wbxx_ll_bus.h ****   * @param  Periphs This parameter can be a combination of the following values:
 559:Drivers/STM32WBxx_HAL_Driver/Inc/stm32wbxx_ll_bus.h ****   *         @arg @ref LL_AHB2_GRP1_PERIPH_GPIOA
 560:Drivers/STM32WBxx_HAL_Driver/Inc/stm32wbxx_ll_bus.h ****   *         @arg @ref LL_AHB2_GRP1_PERIPH_GPIOB
 561:Drivers/STM32WBxx_HAL_Driver/Inc/stm32wbxx_ll_bus.h ****   *         @arg @ref LL_AHB2_GRP1_PERIPH_GPIOC
 562:Drivers/STM32WBxx_HAL_Driver/Inc/stm32wbxx_ll_bus.h ****   *         @arg @ref LL_AHB2_GRP1_PERIPH_GPIOD (*)
 563:Drivers/STM32WBxx_HAL_Driver/Inc/stm32wbxx_ll_bus.h ****   *         @arg @ref LL_AHB2_GRP1_PERIPH_GPIOE
 564:Drivers/STM32WBxx_HAL_Driver/Inc/stm32wbxx_ll_bus.h ****   *         @arg @ref LL_AHB2_GRP1_PERIPH_GPIOH
 565:Drivers/STM32WBxx_HAL_Driver/Inc/stm32wbxx_ll_bus.h ****   *         @arg @ref LL_AHB2_GRP1_PERIPH_ADC (*)
 566:Drivers/STM32WBxx_HAL_Driver/Inc/stm32wbxx_ll_bus.h ****   *         @arg @ref LL_AHB2_GRP1_PERIPH_AES1 (*)
 567:Drivers/STM32WBxx_HAL_Driver/Inc/stm32wbxx_ll_bus.h ****   * @note  (*) Not supported by all the devices
 568:Drivers/STM32WBxx_HAL_Driver/Inc/stm32wbxx_ll_bus.h ****   * @retval uint32_t
 569:Drivers/STM32WBxx_HAL_Driver/Inc/stm32wbxx_ll_bus.h ****   */
 570:Drivers/STM32WBxx_HAL_Driver/Inc/stm32wbxx_ll_bus.h **** __STATIC_INLINE uint32_t LL_AHB2_GRP1_IsEnabledClock(uint32_t Periphs)
 571:Drivers/STM32WBxx_HAL_Driver/Inc/stm32wbxx_ll_bus.h **** {
 572:Drivers/STM32WBxx_HAL_Driver/Inc/stm32wbxx_ll_bus.h ****   return ((READ_BIT(RCC->AHB2ENR, Periphs) == (Periphs)) ? 1UL : 0UL);
 573:Drivers/STM32WBxx_HAL_Driver/Inc/stm32wbxx_ll_bus.h **** }
 574:Drivers/STM32WBxx_HAL_Driver/Inc/stm32wbxx_ll_bus.h **** 
 575:Drivers/STM32WBxx_HAL_Driver/Inc/stm32wbxx_ll_bus.h **** /**
 576:Drivers/STM32WBxx_HAL_Driver/Inc/stm32wbxx_ll_bus.h ****   * @brief  Disable AHB2 peripherals clock.
 577:Drivers/STM32WBxx_HAL_Driver/Inc/stm32wbxx_ll_bus.h ****   * @rmtoll AHB2ENR      GPIOAEN       LL_AHB2_GRP1_DisableClock\n
 578:Drivers/STM32WBxx_HAL_Driver/Inc/stm32wbxx_ll_bus.h ****   *         AHB2ENR      GPIOBEN       LL_AHB2_GRP1_DisableClock\n
ARM GAS  C:\Users\Nathan\AppData\Local\Temp\ccVQw5Zk.s 			page 29


 579:Drivers/STM32WBxx_HAL_Driver/Inc/stm32wbxx_ll_bus.h ****   *         AHB2ENR      GPIOCEN       LL_AHB2_GRP1_DisableClock\n
 580:Drivers/STM32WBxx_HAL_Driver/Inc/stm32wbxx_ll_bus.h ****   *         AHB2ENR      GPIODEN       LL_AHB2_GRP1_DisableClock\n
 581:Drivers/STM32WBxx_HAL_Driver/Inc/stm32wbxx_ll_bus.h ****   *         AHB2ENR      GPIOEEN       LL_AHB2_GRP1_DisableClock\n
 582:Drivers/STM32WBxx_HAL_Driver/Inc/stm32wbxx_ll_bus.h ****   *         AHB2ENR      GPIOHEN       LL_AHB2_GRP1_DisableClock\n
 583:Drivers/STM32WBxx_HAL_Driver/Inc/stm32wbxx_ll_bus.h ****   *         AHB2ENR      ADCEN         LL_AHB2_GRP1_DisableClock\n
 584:Drivers/STM32WBxx_HAL_Driver/Inc/stm32wbxx_ll_bus.h ****   *         AHB2ENR      AES1EN        LL_AHB2_GRP1_DisableClock
 585:Drivers/STM32WBxx_HAL_Driver/Inc/stm32wbxx_ll_bus.h ****   * @param  Periphs This parameter can be a combination of the following values:
 586:Drivers/STM32WBxx_HAL_Driver/Inc/stm32wbxx_ll_bus.h ****   *         @arg @ref LL_AHB2_GRP1_PERIPH_GPIOA
 587:Drivers/STM32WBxx_HAL_Driver/Inc/stm32wbxx_ll_bus.h ****   *         @arg @ref LL_AHB2_GRP1_PERIPH_GPIOB
 588:Drivers/STM32WBxx_HAL_Driver/Inc/stm32wbxx_ll_bus.h ****   *         @arg @ref LL_AHB2_GRP1_PERIPH_GPIOC
 589:Drivers/STM32WBxx_HAL_Driver/Inc/stm32wbxx_ll_bus.h ****   *         @arg @ref LL_AHB2_GRP1_PERIPH_GPIOD (*)
 590:Drivers/STM32WBxx_HAL_Driver/Inc/stm32wbxx_ll_bus.h ****   *         @arg @ref LL_AHB2_GRP1_PERIPH_GPIOE
 591:Drivers/STM32WBxx_HAL_Driver/Inc/stm32wbxx_ll_bus.h ****   *         @arg @ref LL_AHB2_GRP1_PERIPH_GPIOH
 592:Drivers/STM32WBxx_HAL_Driver/Inc/stm32wbxx_ll_bus.h ****   *         @arg @ref LL_AHB2_GRP1_PERIPH_ADC (*)
 593:Drivers/STM32WBxx_HAL_Driver/Inc/stm32wbxx_ll_bus.h ****   *         @arg @ref LL_AHB2_GRP1_PERIPH_AES1 (*)
 594:Drivers/STM32WBxx_HAL_Driver/Inc/stm32wbxx_ll_bus.h ****   * @note  (*) Not supported by all the devices
 595:Drivers/STM32WBxx_HAL_Driver/Inc/stm32wbxx_ll_bus.h ****   * @retval None
 596:Drivers/STM32WBxx_HAL_Driver/Inc/stm32wbxx_ll_bus.h ****   */
 597:Drivers/STM32WBxx_HAL_Driver/Inc/stm32wbxx_ll_bus.h **** __STATIC_INLINE void LL_AHB2_GRP1_DisableClock(uint32_t Periphs)
 598:Drivers/STM32WBxx_HAL_Driver/Inc/stm32wbxx_ll_bus.h **** {
 599:Drivers/STM32WBxx_HAL_Driver/Inc/stm32wbxx_ll_bus.h ****   CLEAR_BIT(RCC->AHB2ENR, Periphs);
 600:Drivers/STM32WBxx_HAL_Driver/Inc/stm32wbxx_ll_bus.h **** }
 601:Drivers/STM32WBxx_HAL_Driver/Inc/stm32wbxx_ll_bus.h **** 
 602:Drivers/STM32WBxx_HAL_Driver/Inc/stm32wbxx_ll_bus.h **** /**
 603:Drivers/STM32WBxx_HAL_Driver/Inc/stm32wbxx_ll_bus.h ****   * @brief  Force AHB2 peripherals reset.
 604:Drivers/STM32WBxx_HAL_Driver/Inc/stm32wbxx_ll_bus.h ****   * @rmtoll AHB2RSTR     GPIOARST      LL_AHB2_GRP1_ForceReset\n
 605:Drivers/STM32WBxx_HAL_Driver/Inc/stm32wbxx_ll_bus.h ****   *         AHB2RSTR     GPIOBRST      LL_AHB2_GRP1_ForceReset\n
 606:Drivers/STM32WBxx_HAL_Driver/Inc/stm32wbxx_ll_bus.h ****   *         AHB2RSTR     GPIOCRST      LL_AHB2_GRP1_ForceReset\n
 607:Drivers/STM32WBxx_HAL_Driver/Inc/stm32wbxx_ll_bus.h ****   *         AHB2RSTR     GPIODRST      LL_AHB2_GRP1_ForceReset\n
 608:Drivers/STM32WBxx_HAL_Driver/Inc/stm32wbxx_ll_bus.h ****   *         AHB2RSTR     GPIOERST      LL_AHB2_GRP1_ForceReset\n
 609:Drivers/STM32WBxx_HAL_Driver/Inc/stm32wbxx_ll_bus.h ****   *         AHB2RSTR     GPIOHRST      LL_AHB2_GRP1_ForceReset\n
 610:Drivers/STM32WBxx_HAL_Driver/Inc/stm32wbxx_ll_bus.h ****   *         AHB2RSTR     ADCRST        LL_AHB2_GRP1_ForceReset\n
 611:Drivers/STM32WBxx_HAL_Driver/Inc/stm32wbxx_ll_bus.h ****   *         AHB2RSTR     AES1RST       LL_AHB2_GRP1_ForceReset
 612:Drivers/STM32WBxx_HAL_Driver/Inc/stm32wbxx_ll_bus.h ****   * @param  Periphs This parameter can be a combination of the following values:
 613:Drivers/STM32WBxx_HAL_Driver/Inc/stm32wbxx_ll_bus.h ****   *         @arg @ref LL_AHB2_GRP1_PERIPH_ALL
 614:Drivers/STM32WBxx_HAL_Driver/Inc/stm32wbxx_ll_bus.h ****   *         @arg @ref LL_AHB2_GRP1_PERIPH_GPIOA
 615:Drivers/STM32WBxx_HAL_Driver/Inc/stm32wbxx_ll_bus.h ****   *         @arg @ref LL_AHB2_GRP1_PERIPH_GPIOB
 616:Drivers/STM32WBxx_HAL_Driver/Inc/stm32wbxx_ll_bus.h ****   *         @arg @ref LL_AHB2_GRP1_PERIPH_GPIOC
 617:Drivers/STM32WBxx_HAL_Driver/Inc/stm32wbxx_ll_bus.h ****   *         @arg @ref LL_AHB2_GRP1_PERIPH_GPIOD (*)
 618:Drivers/STM32WBxx_HAL_Driver/Inc/stm32wbxx_ll_bus.h ****   *         @arg @ref LL_AHB2_GRP1_PERIPH_GPIOE
 619:Drivers/STM32WBxx_HAL_Driver/Inc/stm32wbxx_ll_bus.h ****   *         @arg @ref LL_AHB2_GRP1_PERIPH_GPIOH
 620:Drivers/STM32WBxx_HAL_Driver/Inc/stm32wbxx_ll_bus.h ****   *         @arg @ref LL_AHB2_GRP1_PERIPH_ADC (*)
 621:Drivers/STM32WBxx_HAL_Driver/Inc/stm32wbxx_ll_bus.h ****   *         @arg @ref LL_AHB2_GRP1_PERIPH_AES1 (*)
 622:Drivers/STM32WBxx_HAL_Driver/Inc/stm32wbxx_ll_bus.h ****   * @note  (*) Not supported by all the devices
 623:Drivers/STM32WBxx_HAL_Driver/Inc/stm32wbxx_ll_bus.h ****   * @retval None
 624:Drivers/STM32WBxx_HAL_Driver/Inc/stm32wbxx_ll_bus.h ****   */
 625:Drivers/STM32WBxx_HAL_Driver/Inc/stm32wbxx_ll_bus.h **** __STATIC_INLINE void LL_AHB2_GRP1_ForceReset(uint32_t Periphs)
 626:Drivers/STM32WBxx_HAL_Driver/Inc/stm32wbxx_ll_bus.h **** {
 627:Drivers/STM32WBxx_HAL_Driver/Inc/stm32wbxx_ll_bus.h ****   SET_BIT(RCC->AHB2RSTR, Periphs);
 628:Drivers/STM32WBxx_HAL_Driver/Inc/stm32wbxx_ll_bus.h **** }
 629:Drivers/STM32WBxx_HAL_Driver/Inc/stm32wbxx_ll_bus.h **** 
 630:Drivers/STM32WBxx_HAL_Driver/Inc/stm32wbxx_ll_bus.h **** /**
 631:Drivers/STM32WBxx_HAL_Driver/Inc/stm32wbxx_ll_bus.h ****   * @brief  Release AHB2 peripherals reset.
 632:Drivers/STM32WBxx_HAL_Driver/Inc/stm32wbxx_ll_bus.h ****   * @rmtoll AHB2RSTR     GPIOARST      LL_AHB2_GRP1_ReleaseReset\n
 633:Drivers/STM32WBxx_HAL_Driver/Inc/stm32wbxx_ll_bus.h ****   *         AHB2RSTR     GPIOBRST      LL_AHB2_GRP1_ReleaseReset\n
 634:Drivers/STM32WBxx_HAL_Driver/Inc/stm32wbxx_ll_bus.h ****   *         AHB2RSTR     GPIOCRST      LL_AHB2_GRP1_ReleaseReset\n
 635:Drivers/STM32WBxx_HAL_Driver/Inc/stm32wbxx_ll_bus.h ****   *         AHB2RSTR     GPIODRST      LL_AHB2_GRP1_ReleaseReset\n
ARM GAS  C:\Users\Nathan\AppData\Local\Temp\ccVQw5Zk.s 			page 30


 636:Drivers/STM32WBxx_HAL_Driver/Inc/stm32wbxx_ll_bus.h ****   *         AHB2RSTR     GPIOERST      LL_AHB2_GRP1_ReleaseReset\n
 637:Drivers/STM32WBxx_HAL_Driver/Inc/stm32wbxx_ll_bus.h ****   *         AHB2RSTR     GPIOHRST      LL_AHB2_GRP1_ReleaseReset\n
 638:Drivers/STM32WBxx_HAL_Driver/Inc/stm32wbxx_ll_bus.h ****   *         AHB2RSTR     ADCRST        LL_AHB2_GRP1_ReleaseReset\n
 639:Drivers/STM32WBxx_HAL_Driver/Inc/stm32wbxx_ll_bus.h ****   *         AHB2RSTR     AES1RST       LL_AHB2_GRP1_ReleaseReset
 640:Drivers/STM32WBxx_HAL_Driver/Inc/stm32wbxx_ll_bus.h ****   * @param  Periphs This parameter can be a combination of the following values:
 641:Drivers/STM32WBxx_HAL_Driver/Inc/stm32wbxx_ll_bus.h ****   *         @arg @ref LL_AHB2_GRP1_PERIPH_ALL
 642:Drivers/STM32WBxx_HAL_Driver/Inc/stm32wbxx_ll_bus.h ****   *         @arg @ref LL_AHB2_GRP1_PERIPH_GPIOA
 643:Drivers/STM32WBxx_HAL_Driver/Inc/stm32wbxx_ll_bus.h ****   *         @arg @ref LL_AHB2_GRP1_PERIPH_GPIOB
 644:Drivers/STM32WBxx_HAL_Driver/Inc/stm32wbxx_ll_bus.h ****   *         @arg @ref LL_AHB2_GRP1_PERIPH_GPIOC
 645:Drivers/STM32WBxx_HAL_Driver/Inc/stm32wbxx_ll_bus.h ****   *         @arg @ref LL_AHB2_GRP1_PERIPH_GPIOD (*)
 646:Drivers/STM32WBxx_HAL_Driver/Inc/stm32wbxx_ll_bus.h ****   *         @arg @ref LL_AHB2_GRP1_PERIPH_GPIOE
 647:Drivers/STM32WBxx_HAL_Driver/Inc/stm32wbxx_ll_bus.h ****   *         @arg @ref LL_AHB2_GRP1_PERIPH_GPIOH
 648:Drivers/STM32WBxx_HAL_Driver/Inc/stm32wbxx_ll_bus.h ****   *         @arg @ref LL_AHB2_GRP1_PERIPH_ADC (*)
 649:Drivers/STM32WBxx_HAL_Driver/Inc/stm32wbxx_ll_bus.h ****   *         @arg @ref LL_AHB2_GRP1_PERIPH_AES1 (*)
 650:Drivers/STM32WBxx_HAL_Driver/Inc/stm32wbxx_ll_bus.h ****   * @note  (*) Not supported by all the devices
 651:Drivers/STM32WBxx_HAL_Driver/Inc/stm32wbxx_ll_bus.h ****   * @retval None
 652:Drivers/STM32WBxx_HAL_Driver/Inc/stm32wbxx_ll_bus.h ****   */
 653:Drivers/STM32WBxx_HAL_Driver/Inc/stm32wbxx_ll_bus.h **** __STATIC_INLINE void LL_AHB2_GRP1_ReleaseReset(uint32_t Periphs)
 654:Drivers/STM32WBxx_HAL_Driver/Inc/stm32wbxx_ll_bus.h **** {
 655:Drivers/STM32WBxx_HAL_Driver/Inc/stm32wbxx_ll_bus.h ****   CLEAR_BIT(RCC->AHB2RSTR, Periphs);
 656:Drivers/STM32WBxx_HAL_Driver/Inc/stm32wbxx_ll_bus.h **** }
 657:Drivers/STM32WBxx_HAL_Driver/Inc/stm32wbxx_ll_bus.h **** 
 658:Drivers/STM32WBxx_HAL_Driver/Inc/stm32wbxx_ll_bus.h **** /**
 659:Drivers/STM32WBxx_HAL_Driver/Inc/stm32wbxx_ll_bus.h ****   * @brief  Enable AHB2 peripherals clock during Low Power (Sleep) mode.
 660:Drivers/STM32WBxx_HAL_Driver/Inc/stm32wbxx_ll_bus.h ****   * @rmtoll AHB2SMENR    GPIOASMEN     LL_AHB2_GRP1_EnableClockSleep\n
 661:Drivers/STM32WBxx_HAL_Driver/Inc/stm32wbxx_ll_bus.h ****   *         AHB2SMENR    GPIOBSMEN     LL_AHB2_GRP1_EnableClockSleep\n
 662:Drivers/STM32WBxx_HAL_Driver/Inc/stm32wbxx_ll_bus.h ****   *         AHB2SMENR    GPIOCSMEN     LL_AHB2_GRP1_EnableClockSleep\n
 663:Drivers/STM32WBxx_HAL_Driver/Inc/stm32wbxx_ll_bus.h ****   *         AHB2SMENR    GPIODSMEN     LL_AHB2_GRP1_EnableClockSleep\n
 664:Drivers/STM32WBxx_HAL_Driver/Inc/stm32wbxx_ll_bus.h ****   *         AHB2SMENR    GPIOESMEN     LL_AHB2_GRP1_EnableClockSleep\n
 665:Drivers/STM32WBxx_HAL_Driver/Inc/stm32wbxx_ll_bus.h ****   *         AHB2SMENR    GPIOHSMEN     LL_AHB2_GRP1_EnableClockSleep\n
 666:Drivers/STM32WBxx_HAL_Driver/Inc/stm32wbxx_ll_bus.h ****   *         AHB2SMENR    ADCSMEN       LL_AHB2_GRP1_EnableClockSleep\n
 667:Drivers/STM32WBxx_HAL_Driver/Inc/stm32wbxx_ll_bus.h ****   *         AHB2SMENR    AES1SMEN      LL_AHB2_GRP1_EnableClockSleep
 668:Drivers/STM32WBxx_HAL_Driver/Inc/stm32wbxx_ll_bus.h ****   * @param  Periphs This parameter can be a combination of the following values:
 669:Drivers/STM32WBxx_HAL_Driver/Inc/stm32wbxx_ll_bus.h ****   *         @arg @ref LL_AHB2_GRP1_PERIPH_GPIOA
 670:Drivers/STM32WBxx_HAL_Driver/Inc/stm32wbxx_ll_bus.h ****   *         @arg @ref LL_AHB2_GRP1_PERIPH_GPIOB
 671:Drivers/STM32WBxx_HAL_Driver/Inc/stm32wbxx_ll_bus.h ****   *         @arg @ref LL_AHB2_GRP1_PERIPH_GPIOC
 672:Drivers/STM32WBxx_HAL_Driver/Inc/stm32wbxx_ll_bus.h ****   *         @arg @ref LL_AHB2_GRP1_PERIPH_GPIOD (*)
 673:Drivers/STM32WBxx_HAL_Driver/Inc/stm32wbxx_ll_bus.h ****   *         @arg @ref LL_AHB2_GRP1_PERIPH_GPIOE
 674:Drivers/STM32WBxx_HAL_Driver/Inc/stm32wbxx_ll_bus.h ****   *         @arg @ref LL_AHB2_GRP1_PERIPH_GPIOH
 675:Drivers/STM32WBxx_HAL_Driver/Inc/stm32wbxx_ll_bus.h ****   *         @arg @ref LL_AHB2_GRP1_PERIPH_ADC (*)
 676:Drivers/STM32WBxx_HAL_Driver/Inc/stm32wbxx_ll_bus.h ****   *         @arg @ref LL_AHB2_GRP1_PERIPH_AES1 (*)
 677:Drivers/STM32WBxx_HAL_Driver/Inc/stm32wbxx_ll_bus.h ****   * @note  (*) Not supported by all the devices
 678:Drivers/STM32WBxx_HAL_Driver/Inc/stm32wbxx_ll_bus.h ****   * @retval None
 679:Drivers/STM32WBxx_HAL_Driver/Inc/stm32wbxx_ll_bus.h ****   */
 680:Drivers/STM32WBxx_HAL_Driver/Inc/stm32wbxx_ll_bus.h **** __STATIC_INLINE void LL_AHB2_GRP1_EnableClockSleep(uint32_t Periphs)
 681:Drivers/STM32WBxx_HAL_Driver/Inc/stm32wbxx_ll_bus.h **** {
 682:Drivers/STM32WBxx_HAL_Driver/Inc/stm32wbxx_ll_bus.h ****   __IO uint32_t tmpreg;
 683:Drivers/STM32WBxx_HAL_Driver/Inc/stm32wbxx_ll_bus.h ****   SET_BIT(RCC->AHB2SMENR, Periphs);
 684:Drivers/STM32WBxx_HAL_Driver/Inc/stm32wbxx_ll_bus.h ****   /* Delay after an RCC peripheral clock enabling */
 685:Drivers/STM32WBxx_HAL_Driver/Inc/stm32wbxx_ll_bus.h ****   tmpreg = READ_BIT(RCC->AHB2SMENR, Periphs);
 686:Drivers/STM32WBxx_HAL_Driver/Inc/stm32wbxx_ll_bus.h ****   (void)tmpreg;
 687:Drivers/STM32WBxx_HAL_Driver/Inc/stm32wbxx_ll_bus.h **** }
 688:Drivers/STM32WBxx_HAL_Driver/Inc/stm32wbxx_ll_bus.h **** 
 689:Drivers/STM32WBxx_HAL_Driver/Inc/stm32wbxx_ll_bus.h **** /**
 690:Drivers/STM32WBxx_HAL_Driver/Inc/stm32wbxx_ll_bus.h ****   * @brief  Disable AHB2 peripherals clock during Low Power (Sleep) mode.
 691:Drivers/STM32WBxx_HAL_Driver/Inc/stm32wbxx_ll_bus.h ****   * @rmtoll AHB2SMENR    GPIOASMEN     LL_AHB2_GRP1_DisableClockSleep\n
 692:Drivers/STM32WBxx_HAL_Driver/Inc/stm32wbxx_ll_bus.h ****   *         AHB2SMENR    GPIOBSMEN     LL_AHB2_GRP1_DisableClockSleep\n
ARM GAS  C:\Users\Nathan\AppData\Local\Temp\ccVQw5Zk.s 			page 31


 693:Drivers/STM32WBxx_HAL_Driver/Inc/stm32wbxx_ll_bus.h ****   *         AHB2SMENR    GPIOCSMEN     LL_AHB2_GRP1_DisableClockSleep\n
 694:Drivers/STM32WBxx_HAL_Driver/Inc/stm32wbxx_ll_bus.h ****   *         AHB2SMENR    GPIODSMEN     LL_AHB2_GRP1_DisableClockSleep\n
 695:Drivers/STM32WBxx_HAL_Driver/Inc/stm32wbxx_ll_bus.h ****   *         AHB2SMENR    GPIOESMEN     LL_AHB2_GRP1_DisableClockSleep\n
 696:Drivers/STM32WBxx_HAL_Driver/Inc/stm32wbxx_ll_bus.h ****   *         AHB2SMENR    GPIOHSMEN     LL_AHB2_GRP1_DisableClockSleep\n
 697:Drivers/STM32WBxx_HAL_Driver/Inc/stm32wbxx_ll_bus.h ****   *         AHB2SMENR    ADCSMEN       LL_AHB2_GRP1_DisableClockSleep\n
 698:Drivers/STM32WBxx_HAL_Driver/Inc/stm32wbxx_ll_bus.h ****   *         AHB2SMENR    AES1SMEN      LL_AHB2_GRP1_DisableClockSleep
 699:Drivers/STM32WBxx_HAL_Driver/Inc/stm32wbxx_ll_bus.h ****   * @param  Periphs This parameter can be a combination of the following values:
 700:Drivers/STM32WBxx_HAL_Driver/Inc/stm32wbxx_ll_bus.h ****   *         @arg @ref LL_AHB2_GRP1_PERIPH_GPIOA
 701:Drivers/STM32WBxx_HAL_Driver/Inc/stm32wbxx_ll_bus.h ****   *         @arg @ref LL_AHB2_GRP1_PERIPH_GPIOB
 702:Drivers/STM32WBxx_HAL_Driver/Inc/stm32wbxx_ll_bus.h ****   *         @arg @ref LL_AHB2_GRP1_PERIPH_GPIOC
 703:Drivers/STM32WBxx_HAL_Driver/Inc/stm32wbxx_ll_bus.h ****   *         @arg @ref LL_AHB2_GRP1_PERIPH_GPIOD (*)
 704:Drivers/STM32WBxx_HAL_Driver/Inc/stm32wbxx_ll_bus.h ****   *         @arg @ref LL_AHB2_GRP1_PERIPH_GPIOE
 705:Drivers/STM32WBxx_HAL_Driver/Inc/stm32wbxx_ll_bus.h ****   *         @arg @ref LL_AHB2_GRP1_PERIPH_GPIOH
 706:Drivers/STM32WBxx_HAL_Driver/Inc/stm32wbxx_ll_bus.h ****   *         @arg @ref LL_AHB2_GRP1_PERIPH_ADC (*)
 707:Drivers/STM32WBxx_HAL_Driver/Inc/stm32wbxx_ll_bus.h ****   *         @arg @ref LL_AHB2_GRP1_PERIPH_AES1 (*)
 708:Drivers/STM32WBxx_HAL_Driver/Inc/stm32wbxx_ll_bus.h ****   * @note  (*) Not supported by all the devices
 709:Drivers/STM32WBxx_HAL_Driver/Inc/stm32wbxx_ll_bus.h ****   * @retval None
 710:Drivers/STM32WBxx_HAL_Driver/Inc/stm32wbxx_ll_bus.h ****   */
 711:Drivers/STM32WBxx_HAL_Driver/Inc/stm32wbxx_ll_bus.h **** __STATIC_INLINE void LL_AHB2_GRP1_DisableClockSleep(uint32_t Periphs)
 712:Drivers/STM32WBxx_HAL_Driver/Inc/stm32wbxx_ll_bus.h **** {
 713:Drivers/STM32WBxx_HAL_Driver/Inc/stm32wbxx_ll_bus.h ****   CLEAR_BIT(RCC->AHB2SMENR, Periphs);
 714:Drivers/STM32WBxx_HAL_Driver/Inc/stm32wbxx_ll_bus.h **** }
 715:Drivers/STM32WBxx_HAL_Driver/Inc/stm32wbxx_ll_bus.h **** 
 716:Drivers/STM32WBxx_HAL_Driver/Inc/stm32wbxx_ll_bus.h **** /**
 717:Drivers/STM32WBxx_HAL_Driver/Inc/stm32wbxx_ll_bus.h ****   * @}
 718:Drivers/STM32WBxx_HAL_Driver/Inc/stm32wbxx_ll_bus.h ****   */
 719:Drivers/STM32WBxx_HAL_Driver/Inc/stm32wbxx_ll_bus.h **** 
 720:Drivers/STM32WBxx_HAL_Driver/Inc/stm32wbxx_ll_bus.h **** /** @defgroup BUS_LL_EF_AHB3 AHB3
 721:Drivers/STM32WBxx_HAL_Driver/Inc/stm32wbxx_ll_bus.h ****   * @{
 722:Drivers/STM32WBxx_HAL_Driver/Inc/stm32wbxx_ll_bus.h ****   */
 723:Drivers/STM32WBxx_HAL_Driver/Inc/stm32wbxx_ll_bus.h **** 
 724:Drivers/STM32WBxx_HAL_Driver/Inc/stm32wbxx_ll_bus.h **** /**
 725:Drivers/STM32WBxx_HAL_Driver/Inc/stm32wbxx_ll_bus.h ****   * @brief  Enable AHB3 peripherals clock.
 726:Drivers/STM32WBxx_HAL_Driver/Inc/stm32wbxx_ll_bus.h ****   * @rmtoll AHB3ENR      QUADSPIEN     LL_AHB3_GRP1_EnableClock\n
 727:Drivers/STM32WBxx_HAL_Driver/Inc/stm32wbxx_ll_bus.h ****   *         AHB3ENR      PKAEN         LL_AHB3_GRP1_EnableClock\n
 728:Drivers/STM32WBxx_HAL_Driver/Inc/stm32wbxx_ll_bus.h ****   *         AHB3ENR      AES2EN        LL_AHB3_GRP1_EnableClock\n
 729:Drivers/STM32WBxx_HAL_Driver/Inc/stm32wbxx_ll_bus.h ****   *         AHB3ENR      RNGEN         LL_AHB3_GRP1_EnableClock\n
 730:Drivers/STM32WBxx_HAL_Driver/Inc/stm32wbxx_ll_bus.h ****   *         AHB3ENR      HSEMEN        LL_AHB3_GRP1_EnableClock\n
 731:Drivers/STM32WBxx_HAL_Driver/Inc/stm32wbxx_ll_bus.h ****   *         AHB3ENR      IPCCEN        LL_AHB3_GRP1_EnableClock\n
 732:Drivers/STM32WBxx_HAL_Driver/Inc/stm32wbxx_ll_bus.h ****   *         AHB3ENR      FLASHEN       LL_AHB3_GRP1_EnableClock
 733:Drivers/STM32WBxx_HAL_Driver/Inc/stm32wbxx_ll_bus.h ****   * @param  Periphs This parameter can be a combination of the following values:
 734:Drivers/STM32WBxx_HAL_Driver/Inc/stm32wbxx_ll_bus.h ****   *         @arg @ref LL_AHB3_GRP1_PERIPH_QUADSPI (*)
 735:Drivers/STM32WBxx_HAL_Driver/Inc/stm32wbxx_ll_bus.h ****   *         @arg @ref LL_AHB3_GRP1_PERIPH_PKA
 736:Drivers/STM32WBxx_HAL_Driver/Inc/stm32wbxx_ll_bus.h ****   *         @arg @ref LL_AHB3_GRP1_PERIPH_AES2
 737:Drivers/STM32WBxx_HAL_Driver/Inc/stm32wbxx_ll_bus.h ****   *         @arg @ref LL_AHB3_GRP1_PERIPH_RNG
 738:Drivers/STM32WBxx_HAL_Driver/Inc/stm32wbxx_ll_bus.h ****   *         @arg @ref LL_AHB3_GRP1_PERIPH_HSEM
 739:Drivers/STM32WBxx_HAL_Driver/Inc/stm32wbxx_ll_bus.h ****   *         @arg @ref LL_AHB3_GRP1_PERIPH_IPCC
 740:Drivers/STM32WBxx_HAL_Driver/Inc/stm32wbxx_ll_bus.h ****   *         @arg @ref LL_AHB3_GRP1_PERIPH_FLASH
 741:Drivers/STM32WBxx_HAL_Driver/Inc/stm32wbxx_ll_bus.h ****   * @note  (*) Not supported by all the devices
 742:Drivers/STM32WBxx_HAL_Driver/Inc/stm32wbxx_ll_bus.h ****   * @retval None
 743:Drivers/STM32WBxx_HAL_Driver/Inc/stm32wbxx_ll_bus.h ****   */
 744:Drivers/STM32WBxx_HAL_Driver/Inc/stm32wbxx_ll_bus.h **** __STATIC_INLINE void LL_AHB3_GRP1_EnableClock(uint32_t Periphs)
 745:Drivers/STM32WBxx_HAL_Driver/Inc/stm32wbxx_ll_bus.h **** {
 746:Drivers/STM32WBxx_HAL_Driver/Inc/stm32wbxx_ll_bus.h ****   __IO uint32_t tmpreg;
 747:Drivers/STM32WBxx_HAL_Driver/Inc/stm32wbxx_ll_bus.h ****   SET_BIT(RCC->AHB3ENR, Periphs);
 748:Drivers/STM32WBxx_HAL_Driver/Inc/stm32wbxx_ll_bus.h ****   /* Delay after an RCC peripheral clock enabling */
 749:Drivers/STM32WBxx_HAL_Driver/Inc/stm32wbxx_ll_bus.h ****   tmpreg = READ_BIT(RCC->AHB3ENR, Periphs);
ARM GAS  C:\Users\Nathan\AppData\Local\Temp\ccVQw5Zk.s 			page 32


 750:Drivers/STM32WBxx_HAL_Driver/Inc/stm32wbxx_ll_bus.h ****   (void)tmpreg;
 751:Drivers/STM32WBxx_HAL_Driver/Inc/stm32wbxx_ll_bus.h **** }
 752:Drivers/STM32WBxx_HAL_Driver/Inc/stm32wbxx_ll_bus.h **** 
 753:Drivers/STM32WBxx_HAL_Driver/Inc/stm32wbxx_ll_bus.h **** /**
 754:Drivers/STM32WBxx_HAL_Driver/Inc/stm32wbxx_ll_bus.h ****   * @brief  Check if AHB3 peripheral clock is enabled or not
 755:Drivers/STM32WBxx_HAL_Driver/Inc/stm32wbxx_ll_bus.h ****   * @rmtoll AHB3ENR      QUADSPIEN     LL_AHB3_GRP1_IsEnabledClock\n
 756:Drivers/STM32WBxx_HAL_Driver/Inc/stm32wbxx_ll_bus.h ****   *         AHB3ENR      PKAEN         LL_AHB3_GRP1_IsEnabledClock\n
 757:Drivers/STM32WBxx_HAL_Driver/Inc/stm32wbxx_ll_bus.h ****   *         AHB3ENR      AES2EN        LL_AHB3_GRP1_IsEnabledClock\n
 758:Drivers/STM32WBxx_HAL_Driver/Inc/stm32wbxx_ll_bus.h ****   *         AHB3ENR      RNGEN         LL_AHB3_GRP1_IsEnabledClock\n
 759:Drivers/STM32WBxx_HAL_Driver/Inc/stm32wbxx_ll_bus.h ****   *         AHB3ENR      HSEMEN        LL_AHB3_GRP1_IsEnabledClock\n
 760:Drivers/STM32WBxx_HAL_Driver/Inc/stm32wbxx_ll_bus.h ****   *         AHB3ENR      IPCCEN        LL_AHB3_GRP1_IsEnabledClock\n
 761:Drivers/STM32WBxx_HAL_Driver/Inc/stm32wbxx_ll_bus.h ****   *         AHB3ENR      FLASHEN       LL_AHB3_GRP1_IsEnabledClock
 762:Drivers/STM32WBxx_HAL_Driver/Inc/stm32wbxx_ll_bus.h ****   * @param  Periphs This parameter can be a combination of the following values:
 763:Drivers/STM32WBxx_HAL_Driver/Inc/stm32wbxx_ll_bus.h ****   *         @arg @ref LL_AHB3_GRP1_PERIPH_QUADSPI (*)
 764:Drivers/STM32WBxx_HAL_Driver/Inc/stm32wbxx_ll_bus.h ****   *         @arg @ref LL_AHB3_GRP1_PERIPH_PKA
 765:Drivers/STM32WBxx_HAL_Driver/Inc/stm32wbxx_ll_bus.h ****   *         @arg @ref LL_AHB3_GRP1_PERIPH_AES2
 766:Drivers/STM32WBxx_HAL_Driver/Inc/stm32wbxx_ll_bus.h ****   *         @arg @ref LL_AHB3_GRP1_PERIPH_RNG
 767:Drivers/STM32WBxx_HAL_Driver/Inc/stm32wbxx_ll_bus.h ****   *         @arg @ref LL_AHB3_GRP1_PERIPH_HSEM
 768:Drivers/STM32WBxx_HAL_Driver/Inc/stm32wbxx_ll_bus.h ****   *         @arg @ref LL_AHB3_GRP1_PERIPH_IPCC
 769:Drivers/STM32WBxx_HAL_Driver/Inc/stm32wbxx_ll_bus.h ****   *         @arg @ref LL_AHB3_GRP1_PERIPH_FLASH
 770:Drivers/STM32WBxx_HAL_Driver/Inc/stm32wbxx_ll_bus.h ****   * @note  (*) Not supported by all the devices
 771:Drivers/STM32WBxx_HAL_Driver/Inc/stm32wbxx_ll_bus.h ****   * @retval uint32_t
 772:Drivers/STM32WBxx_HAL_Driver/Inc/stm32wbxx_ll_bus.h ****   */
 773:Drivers/STM32WBxx_HAL_Driver/Inc/stm32wbxx_ll_bus.h **** __STATIC_INLINE uint32_t LL_AHB3_GRP1_IsEnabledClock(uint32_t Periphs)
 774:Drivers/STM32WBxx_HAL_Driver/Inc/stm32wbxx_ll_bus.h **** {
 775:Drivers/STM32WBxx_HAL_Driver/Inc/stm32wbxx_ll_bus.h ****   return ((READ_BIT(RCC->AHB3ENR, Periphs) == (Periphs)) ? 1UL : 0UL);
 776:Drivers/STM32WBxx_HAL_Driver/Inc/stm32wbxx_ll_bus.h **** }
 777:Drivers/STM32WBxx_HAL_Driver/Inc/stm32wbxx_ll_bus.h **** 
 778:Drivers/STM32WBxx_HAL_Driver/Inc/stm32wbxx_ll_bus.h **** /**
 779:Drivers/STM32WBxx_HAL_Driver/Inc/stm32wbxx_ll_bus.h ****   * @brief  Disable AHB3 peripherals clock.
 780:Drivers/STM32WBxx_HAL_Driver/Inc/stm32wbxx_ll_bus.h ****   * @rmtoll AHB3ENR      QUADSPIEN     LL_AHB3_GRP1_DisableClock\n
 781:Drivers/STM32WBxx_HAL_Driver/Inc/stm32wbxx_ll_bus.h ****   *         AHB3ENR      PKAEN         LL_AHB3_GRP1_DisableClock\n
 782:Drivers/STM32WBxx_HAL_Driver/Inc/stm32wbxx_ll_bus.h ****   *         AHB3ENR      AES2EN        LL_AHB3_GRP1_DisableClock\n
 783:Drivers/STM32WBxx_HAL_Driver/Inc/stm32wbxx_ll_bus.h ****   *         AHB3ENR      RNGEN         LL_AHB3_GRP1_DisableClock\n
 784:Drivers/STM32WBxx_HAL_Driver/Inc/stm32wbxx_ll_bus.h ****   *         AHB3ENR      HSEMEN        LL_AHB3_GRP1_DisableClock\n
 785:Drivers/STM32WBxx_HAL_Driver/Inc/stm32wbxx_ll_bus.h ****   *         AHB3ENR      IPCCEN        LL_AHB3_GRP1_DisableClock\n
 786:Drivers/STM32WBxx_HAL_Driver/Inc/stm32wbxx_ll_bus.h ****   *         AHB3ENR      FLASHEN       LL_AHB3_GRP1_DisableClock
 787:Drivers/STM32WBxx_HAL_Driver/Inc/stm32wbxx_ll_bus.h ****   * @param  Periphs This parameter can be a combination of the following values:
 788:Drivers/STM32WBxx_HAL_Driver/Inc/stm32wbxx_ll_bus.h ****   *         @arg @ref LL_AHB3_GRP1_PERIPH_QUADSPI (*)
 789:Drivers/STM32WBxx_HAL_Driver/Inc/stm32wbxx_ll_bus.h ****   *         @arg @ref LL_AHB3_GRP1_PERIPH_PKA
 790:Drivers/STM32WBxx_HAL_Driver/Inc/stm32wbxx_ll_bus.h ****   *         @arg @ref LL_AHB3_GRP1_PERIPH_AES2
 791:Drivers/STM32WBxx_HAL_Driver/Inc/stm32wbxx_ll_bus.h ****   *         @arg @ref LL_AHB3_GRP1_PERIPH_RNG
 792:Drivers/STM32WBxx_HAL_Driver/Inc/stm32wbxx_ll_bus.h ****   *         @arg @ref LL_AHB3_GRP1_PERIPH_HSEM
 793:Drivers/STM32WBxx_HAL_Driver/Inc/stm32wbxx_ll_bus.h ****   *         @arg @ref LL_AHB3_GRP1_PERIPH_IPCC
 794:Drivers/STM32WBxx_HAL_Driver/Inc/stm32wbxx_ll_bus.h ****   *         @arg @ref LL_AHB3_GRP1_PERIPH_FLASH
 795:Drivers/STM32WBxx_HAL_Driver/Inc/stm32wbxx_ll_bus.h ****   * @note  (*) Not supported by all the devices
 796:Drivers/STM32WBxx_HAL_Driver/Inc/stm32wbxx_ll_bus.h ****   * @retval None
 797:Drivers/STM32WBxx_HAL_Driver/Inc/stm32wbxx_ll_bus.h ****   */
 798:Drivers/STM32WBxx_HAL_Driver/Inc/stm32wbxx_ll_bus.h **** __STATIC_INLINE void LL_AHB3_GRP1_DisableClock(uint32_t Periphs)
 799:Drivers/STM32WBxx_HAL_Driver/Inc/stm32wbxx_ll_bus.h **** {
 800:Drivers/STM32WBxx_HAL_Driver/Inc/stm32wbxx_ll_bus.h ****   CLEAR_BIT(RCC->AHB3ENR, Periphs);
 801:Drivers/STM32WBxx_HAL_Driver/Inc/stm32wbxx_ll_bus.h **** }
 802:Drivers/STM32WBxx_HAL_Driver/Inc/stm32wbxx_ll_bus.h **** 
 803:Drivers/STM32WBxx_HAL_Driver/Inc/stm32wbxx_ll_bus.h **** /**
 804:Drivers/STM32WBxx_HAL_Driver/Inc/stm32wbxx_ll_bus.h ****   * @brief  Force AHB3 peripherals reset.
 805:Drivers/STM32WBxx_HAL_Driver/Inc/stm32wbxx_ll_bus.h ****   * @rmtoll AHB3RSTR     QUADSPIRST       LL_AHB3_GRP1_ForceReset\n
 806:Drivers/STM32WBxx_HAL_Driver/Inc/stm32wbxx_ll_bus.h ****   *         AHB3RSTR     PKARST        LL_AHB3_GRP1_ForceReset\n
ARM GAS  C:\Users\Nathan\AppData\Local\Temp\ccVQw5Zk.s 			page 33


 807:Drivers/STM32WBxx_HAL_Driver/Inc/stm32wbxx_ll_bus.h ****   *         AHB3RSTR     AES2RST       LL_AHB3_GRP1_ForceReset\n
 808:Drivers/STM32WBxx_HAL_Driver/Inc/stm32wbxx_ll_bus.h ****   *         AHB3RSTR     RNGRST        LL_AHB3_GRP1_ForceReset\n
 809:Drivers/STM32WBxx_HAL_Driver/Inc/stm32wbxx_ll_bus.h ****   *         AHB3RSTR     HSEMRST       LL_AHB3_GRP1_ForceReset\n
 810:Drivers/STM32WBxx_HAL_Driver/Inc/stm32wbxx_ll_bus.h ****   *         AHB3RSTR     IPCCRST       LL_AHB3_GRP1_ForceReset\n
 811:Drivers/STM32WBxx_HAL_Driver/Inc/stm32wbxx_ll_bus.h ****   *         AHB3RSTR     FLASHRST      LL_AHB3_GRP1_ForceReset
 812:Drivers/STM32WBxx_HAL_Driver/Inc/stm32wbxx_ll_bus.h ****   * @param  Periphs This parameter can be a combination of the following values:
 813:Drivers/STM32WBxx_HAL_Driver/Inc/stm32wbxx_ll_bus.h ****   *         @arg @ref LL_AHB3_GRP1_PERIPH_ALL
 814:Drivers/STM32WBxx_HAL_Driver/Inc/stm32wbxx_ll_bus.h ****   *         @arg @ref LL_AHB3_GRP1_PERIPH_QUADSPI (*)
 815:Drivers/STM32WBxx_HAL_Driver/Inc/stm32wbxx_ll_bus.h ****   *         @arg @ref LL_AHB3_GRP1_PERIPH_PKA
 816:Drivers/STM32WBxx_HAL_Driver/Inc/stm32wbxx_ll_bus.h ****   *         @arg @ref LL_AHB3_GRP1_PERIPH_AES2
 817:Drivers/STM32WBxx_HAL_Driver/Inc/stm32wbxx_ll_bus.h ****   *         @arg @ref LL_AHB3_GRP1_PERIPH_RNG
 818:Drivers/STM32WBxx_HAL_Driver/Inc/stm32wbxx_ll_bus.h ****   *         @arg @ref LL_AHB3_GRP1_PERIPH_HSEM
 819:Drivers/STM32WBxx_HAL_Driver/Inc/stm32wbxx_ll_bus.h ****   *         @arg @ref LL_AHB3_GRP1_PERIPH_IPCC
 820:Drivers/STM32WBxx_HAL_Driver/Inc/stm32wbxx_ll_bus.h ****   *         @arg @ref LL_AHB3_GRP1_PERIPH_FLASH
 821:Drivers/STM32WBxx_HAL_Driver/Inc/stm32wbxx_ll_bus.h ****   * @note  (*) Not supported by all the devices
 822:Drivers/STM32WBxx_HAL_Driver/Inc/stm32wbxx_ll_bus.h ****   * @retval None
 823:Drivers/STM32WBxx_HAL_Driver/Inc/stm32wbxx_ll_bus.h ****   */
 824:Drivers/STM32WBxx_HAL_Driver/Inc/stm32wbxx_ll_bus.h **** __STATIC_INLINE void LL_AHB3_GRP1_ForceReset(uint32_t Periphs)
 825:Drivers/STM32WBxx_HAL_Driver/Inc/stm32wbxx_ll_bus.h **** {
 826:Drivers/STM32WBxx_HAL_Driver/Inc/stm32wbxx_ll_bus.h ****   SET_BIT(RCC->AHB3RSTR, Periphs);
 827:Drivers/STM32WBxx_HAL_Driver/Inc/stm32wbxx_ll_bus.h **** }
 828:Drivers/STM32WBxx_HAL_Driver/Inc/stm32wbxx_ll_bus.h **** 
 829:Drivers/STM32WBxx_HAL_Driver/Inc/stm32wbxx_ll_bus.h **** /**
 830:Drivers/STM32WBxx_HAL_Driver/Inc/stm32wbxx_ll_bus.h ****   * @brief  Release AHB3 peripherals reset.
 831:Drivers/STM32WBxx_HAL_Driver/Inc/stm32wbxx_ll_bus.h ****   * @rmtoll AHB3RSTR     QUADSPIRST    LL_AHB3_GRP1_ReleaseReset\n
 832:Drivers/STM32WBxx_HAL_Driver/Inc/stm32wbxx_ll_bus.h ****   *         AHB3RSTR     PKARST        LL_AHB3_GRP1_ReleaseReset\n
 833:Drivers/STM32WBxx_HAL_Driver/Inc/stm32wbxx_ll_bus.h ****   *         AHB3RSTR     AES2RST       LL_AHB3_GRP1_ReleaseReset\n
 834:Drivers/STM32WBxx_HAL_Driver/Inc/stm32wbxx_ll_bus.h ****   *         AHB3RSTR     RNGRST        LL_AHB3_GRP1_ReleaseReset\n
 835:Drivers/STM32WBxx_HAL_Driver/Inc/stm32wbxx_ll_bus.h ****   *         AHB3RSTR     HSEMRST       LL_AHB3_GRP1_ReleaseReset\n
 836:Drivers/STM32WBxx_HAL_Driver/Inc/stm32wbxx_ll_bus.h ****   *         AHB3RSTR     IPCCRST       LL_AHB3_GRP1_ReleaseReset\n
 837:Drivers/STM32WBxx_HAL_Driver/Inc/stm32wbxx_ll_bus.h ****   *         AHB3RSTR     FLASHRST      LL_AHB3_GRP1_ReleaseReset
 838:Drivers/STM32WBxx_HAL_Driver/Inc/stm32wbxx_ll_bus.h ****   * @param  Periphs This parameter can be a combination of the following values:
 839:Drivers/STM32WBxx_HAL_Driver/Inc/stm32wbxx_ll_bus.h ****   *         @arg @ref LL_AHB2_GRP1_PERIPH_ALL
 840:Drivers/STM32WBxx_HAL_Driver/Inc/stm32wbxx_ll_bus.h ****   *         @arg @ref LL_AHB3_GRP1_PERIPH_QUADSPI (*)
 841:Drivers/STM32WBxx_HAL_Driver/Inc/stm32wbxx_ll_bus.h ****   *         @arg @ref LL_AHB3_GRP1_PERIPH_PKA
 842:Drivers/STM32WBxx_HAL_Driver/Inc/stm32wbxx_ll_bus.h ****   *         @arg @ref LL_AHB3_GRP1_PERIPH_AES2
 843:Drivers/STM32WBxx_HAL_Driver/Inc/stm32wbxx_ll_bus.h ****   *         @arg @ref LL_AHB3_GRP1_PERIPH_RNG
 844:Drivers/STM32WBxx_HAL_Driver/Inc/stm32wbxx_ll_bus.h ****   *         @arg @ref LL_AHB3_GRP1_PERIPH_HSEM
 845:Drivers/STM32WBxx_HAL_Driver/Inc/stm32wbxx_ll_bus.h ****   *         @arg @ref LL_AHB3_GRP1_PERIPH_IPCC
 846:Drivers/STM32WBxx_HAL_Driver/Inc/stm32wbxx_ll_bus.h ****   *         @arg @ref LL_AHB3_GRP1_PERIPH_FLASH
 847:Drivers/STM32WBxx_HAL_Driver/Inc/stm32wbxx_ll_bus.h ****   * @note  (*) Not supported by all the devices
 848:Drivers/STM32WBxx_HAL_Driver/Inc/stm32wbxx_ll_bus.h ****   * @retval None
 849:Drivers/STM32WBxx_HAL_Driver/Inc/stm32wbxx_ll_bus.h ****   */
 850:Drivers/STM32WBxx_HAL_Driver/Inc/stm32wbxx_ll_bus.h **** __STATIC_INLINE void LL_AHB3_GRP1_ReleaseReset(uint32_t Periphs)
 851:Drivers/STM32WBxx_HAL_Driver/Inc/stm32wbxx_ll_bus.h **** {
 852:Drivers/STM32WBxx_HAL_Driver/Inc/stm32wbxx_ll_bus.h ****   CLEAR_BIT(RCC->AHB3RSTR, Periphs);
 853:Drivers/STM32WBxx_HAL_Driver/Inc/stm32wbxx_ll_bus.h **** }
 854:Drivers/STM32WBxx_HAL_Driver/Inc/stm32wbxx_ll_bus.h **** 
 855:Drivers/STM32WBxx_HAL_Driver/Inc/stm32wbxx_ll_bus.h **** /**
 856:Drivers/STM32WBxx_HAL_Driver/Inc/stm32wbxx_ll_bus.h ****   * @brief  Enable AHB3 peripherals clock during Low Power (Sleep) mode.
 857:Drivers/STM32WBxx_HAL_Driver/Inc/stm32wbxx_ll_bus.h ****   * @rmtoll AHB3SMENR    QUADSPISMEN   LL_AHB3_GRP1_EnableClockSleep\n
 858:Drivers/STM32WBxx_HAL_Driver/Inc/stm32wbxx_ll_bus.h ****   *         AHB3SMENR    PKASMEN       LL_AHB3_GRP1_EnableClockSleep\n
 859:Drivers/STM32WBxx_HAL_Driver/Inc/stm32wbxx_ll_bus.h ****   *         AHB3SMENR    AES2SMEN      LL_AHB3_GRP1_EnableClockSleep\n
 860:Drivers/STM32WBxx_HAL_Driver/Inc/stm32wbxx_ll_bus.h ****   *         AHB3SMENR    RNGSMEN       LL_AHB3_GRP1_EnableClockSleep\n
 861:Drivers/STM32WBxx_HAL_Driver/Inc/stm32wbxx_ll_bus.h ****   *         AHB3SMENR    SRAM2SMEN     LL_AHB3_GRP1_EnableClockSleep\n
 862:Drivers/STM32WBxx_HAL_Driver/Inc/stm32wbxx_ll_bus.h ****   *         AHB3SMENR    FLASHSMEN     LL_AHB3_GRP1_EnableClockSleep
 863:Drivers/STM32WBxx_HAL_Driver/Inc/stm32wbxx_ll_bus.h ****   * @param  Periphs This parameter can be a combination of the following values:
ARM GAS  C:\Users\Nathan\AppData\Local\Temp\ccVQw5Zk.s 			page 34


 864:Drivers/STM32WBxx_HAL_Driver/Inc/stm32wbxx_ll_bus.h ****   *         @arg @ref LL_AHB3_GRP1_PERIPH_QUADSPI (*)
 865:Drivers/STM32WBxx_HAL_Driver/Inc/stm32wbxx_ll_bus.h ****   *         @arg @ref LL_AHB3_GRP1_PERIPH_PKA
 866:Drivers/STM32WBxx_HAL_Driver/Inc/stm32wbxx_ll_bus.h ****   *         @arg @ref LL_AHB3_GRP1_PERIPH_AES2
 867:Drivers/STM32WBxx_HAL_Driver/Inc/stm32wbxx_ll_bus.h ****   *         @arg @ref LL_AHB3_GRP1_PERIPH_RNG
 868:Drivers/STM32WBxx_HAL_Driver/Inc/stm32wbxx_ll_bus.h ****   *         @arg @ref LL_AHB3_GRP1_PERIPH_SRAM2
 869:Drivers/STM32WBxx_HAL_Driver/Inc/stm32wbxx_ll_bus.h ****   * @note  (*) Not supported by all the devices
 870:Drivers/STM32WBxx_HAL_Driver/Inc/stm32wbxx_ll_bus.h ****   *         @arg @ref LL_AHB3_GRP1_PERIPH_FLASH
 871:Drivers/STM32WBxx_HAL_Driver/Inc/stm32wbxx_ll_bus.h ****   * @retval None
 872:Drivers/STM32WBxx_HAL_Driver/Inc/stm32wbxx_ll_bus.h ****   */
 873:Drivers/STM32WBxx_HAL_Driver/Inc/stm32wbxx_ll_bus.h **** __STATIC_INLINE void LL_AHB3_GRP1_EnableClockSleep(uint32_t Periphs)
 874:Drivers/STM32WBxx_HAL_Driver/Inc/stm32wbxx_ll_bus.h **** {
 875:Drivers/STM32WBxx_HAL_Driver/Inc/stm32wbxx_ll_bus.h ****   __IO uint32_t tmpreg;
 876:Drivers/STM32WBxx_HAL_Driver/Inc/stm32wbxx_ll_bus.h ****   SET_BIT(RCC->AHB3SMENR, Periphs);
 877:Drivers/STM32WBxx_HAL_Driver/Inc/stm32wbxx_ll_bus.h ****   /* Delay after an RCC peripheral clock enabling */
 878:Drivers/STM32WBxx_HAL_Driver/Inc/stm32wbxx_ll_bus.h ****   tmpreg = READ_BIT(RCC->AHB3SMENR, Periphs);
 879:Drivers/STM32WBxx_HAL_Driver/Inc/stm32wbxx_ll_bus.h ****   (void)tmpreg;
 880:Drivers/STM32WBxx_HAL_Driver/Inc/stm32wbxx_ll_bus.h **** }
 881:Drivers/STM32WBxx_HAL_Driver/Inc/stm32wbxx_ll_bus.h **** 
 882:Drivers/STM32WBxx_HAL_Driver/Inc/stm32wbxx_ll_bus.h **** /**
 883:Drivers/STM32WBxx_HAL_Driver/Inc/stm32wbxx_ll_bus.h ****   * @brief  Disable AHB3 peripherals clock during Low Power (Sleep) mode.
 884:Drivers/STM32WBxx_HAL_Driver/Inc/stm32wbxx_ll_bus.h ****   * @rmtoll AHB3SMENR    QUADSPISMEN   LL_AHB3_GRP1_DisableClockSleep\n
 885:Drivers/STM32WBxx_HAL_Driver/Inc/stm32wbxx_ll_bus.h ****   *         AHB3SMENR    PKASMEN       LL_AHB3_GRP1_DisableClockSleep\n
 886:Drivers/STM32WBxx_HAL_Driver/Inc/stm32wbxx_ll_bus.h ****   *         AHB3SMENR    AES2SMEN      LL_AHB3_GRP1_DisableClockSleep\n
 887:Drivers/STM32WBxx_HAL_Driver/Inc/stm32wbxx_ll_bus.h ****   *         AHB3SMENR    RNGSMEN       LL_AHB3_GRP1_DisableClockSleep\n
 888:Drivers/STM32WBxx_HAL_Driver/Inc/stm32wbxx_ll_bus.h ****   *         AHB3SMENR    SRAM2SMEN     LL_AHB3_GRP1_DisableClockSleep\n
 889:Drivers/STM32WBxx_HAL_Driver/Inc/stm32wbxx_ll_bus.h ****   *         AHB3SMENR    FLASHSMEN     LL_AHB3_GRP1_DisableClockSleep
 890:Drivers/STM32WBxx_HAL_Driver/Inc/stm32wbxx_ll_bus.h ****   * @param  Periphs This parameter can be a combination of the following values:
 891:Drivers/STM32WBxx_HAL_Driver/Inc/stm32wbxx_ll_bus.h ****   *         @arg @ref LL_AHB3_GRP1_PERIPH_QUADSPI (*)
 892:Drivers/STM32WBxx_HAL_Driver/Inc/stm32wbxx_ll_bus.h ****   *         @arg @ref LL_AHB3_GRP1_PERIPH_PKA
 893:Drivers/STM32WBxx_HAL_Driver/Inc/stm32wbxx_ll_bus.h ****   *         @arg @ref LL_AHB3_GRP1_PERIPH_AES2
 894:Drivers/STM32WBxx_HAL_Driver/Inc/stm32wbxx_ll_bus.h ****   *         @arg @ref LL_AHB3_GRP1_PERIPH_RNG
 895:Drivers/STM32WBxx_HAL_Driver/Inc/stm32wbxx_ll_bus.h ****   *         @arg @ref LL_AHB3_GRP1_PERIPH_SRAM2
 896:Drivers/STM32WBxx_HAL_Driver/Inc/stm32wbxx_ll_bus.h ****   *         @arg @ref LL_AHB3_GRP1_PERIPH_FLASH
 897:Drivers/STM32WBxx_HAL_Driver/Inc/stm32wbxx_ll_bus.h ****   * @note  (*) Not supported by all the devices
 898:Drivers/STM32WBxx_HAL_Driver/Inc/stm32wbxx_ll_bus.h ****   * @retval None
 899:Drivers/STM32WBxx_HAL_Driver/Inc/stm32wbxx_ll_bus.h ****   */
 900:Drivers/STM32WBxx_HAL_Driver/Inc/stm32wbxx_ll_bus.h **** __STATIC_INLINE void LL_AHB3_GRP1_DisableClockSleep(uint32_t Periphs)
 901:Drivers/STM32WBxx_HAL_Driver/Inc/stm32wbxx_ll_bus.h **** {
 902:Drivers/STM32WBxx_HAL_Driver/Inc/stm32wbxx_ll_bus.h ****   CLEAR_BIT(RCC->AHB3SMENR, Periphs);
 903:Drivers/STM32WBxx_HAL_Driver/Inc/stm32wbxx_ll_bus.h **** }
 904:Drivers/STM32WBxx_HAL_Driver/Inc/stm32wbxx_ll_bus.h **** 
 905:Drivers/STM32WBxx_HAL_Driver/Inc/stm32wbxx_ll_bus.h **** /**
 906:Drivers/STM32WBxx_HAL_Driver/Inc/stm32wbxx_ll_bus.h ****   * @}
 907:Drivers/STM32WBxx_HAL_Driver/Inc/stm32wbxx_ll_bus.h ****   */
 908:Drivers/STM32WBxx_HAL_Driver/Inc/stm32wbxx_ll_bus.h **** 
 909:Drivers/STM32WBxx_HAL_Driver/Inc/stm32wbxx_ll_bus.h **** /** @defgroup BUS_LL_EF_APB1 APB1
 910:Drivers/STM32WBxx_HAL_Driver/Inc/stm32wbxx_ll_bus.h ****   * @{
 911:Drivers/STM32WBxx_HAL_Driver/Inc/stm32wbxx_ll_bus.h ****   */
 912:Drivers/STM32WBxx_HAL_Driver/Inc/stm32wbxx_ll_bus.h **** 
 913:Drivers/STM32WBxx_HAL_Driver/Inc/stm32wbxx_ll_bus.h **** /**
 914:Drivers/STM32WBxx_HAL_Driver/Inc/stm32wbxx_ll_bus.h ****   * @brief  Enable APB1 peripherals clock.
 915:Drivers/STM32WBxx_HAL_Driver/Inc/stm32wbxx_ll_bus.h ****   * @rmtoll APB1ENR1     TIM2EN        LL_APB1_GRP1_EnableClock\n
 916:Drivers/STM32WBxx_HAL_Driver/Inc/stm32wbxx_ll_bus.h ****   *         APB1ENR1     LCDEN         LL_APB1_GRP1_EnableClock\n
 917:Drivers/STM32WBxx_HAL_Driver/Inc/stm32wbxx_ll_bus.h ****   *         APB1ENR1     RTCAPBEN      LL_APB1_GRP1_EnableClock\n
 918:Drivers/STM32WBxx_HAL_Driver/Inc/stm32wbxx_ll_bus.h ****   *         APB1ENR1     WWDGEN        LL_APB1_GRP1_EnableClock\n
 919:Drivers/STM32WBxx_HAL_Driver/Inc/stm32wbxx_ll_bus.h ****   *         APB1ENR1     SPI2EN        LL_APB1_GRP1_EnableClock\n
 920:Drivers/STM32WBxx_HAL_Driver/Inc/stm32wbxx_ll_bus.h ****   *         APB1ENR1     I2C1EN        LL_APB1_GRP1_EnableClock\n
ARM GAS  C:\Users\Nathan\AppData\Local\Temp\ccVQw5Zk.s 			page 35


 921:Drivers/STM32WBxx_HAL_Driver/Inc/stm32wbxx_ll_bus.h ****   *         APB1ENR1     I2C3EN        LL_APB1_GRP1_EnableClock\n
 922:Drivers/STM32WBxx_HAL_Driver/Inc/stm32wbxx_ll_bus.h ****   *         APB1ENR1     CRSEN         LL_APB1_GRP1_EnableClock\n
 923:Drivers/STM32WBxx_HAL_Driver/Inc/stm32wbxx_ll_bus.h ****   *         APB1ENR1     USBEN         LL_APB1_GRP1_EnableClock\n
 924:Drivers/STM32WBxx_HAL_Driver/Inc/stm32wbxx_ll_bus.h ****   *         APB1ENR1     LPTIM1EN      LL_APB1_GRP1_EnableClock
 925:Drivers/STM32WBxx_HAL_Driver/Inc/stm32wbxx_ll_bus.h ****   * @param  Periphs This parameter can be a combination of the following values:
 926:Drivers/STM32WBxx_HAL_Driver/Inc/stm32wbxx_ll_bus.h ****   *         @arg @ref LL_APB1_GRP1_PERIPH_TIM2
 927:Drivers/STM32WBxx_HAL_Driver/Inc/stm32wbxx_ll_bus.h ****   *         @arg @ref LL_APB1_GRP1_PERIPH_LCD (*)
 928:Drivers/STM32WBxx_HAL_Driver/Inc/stm32wbxx_ll_bus.h ****   *         @arg @ref LL_APB1_GRP1_PERIPH_RTCAPB
 929:Drivers/STM32WBxx_HAL_Driver/Inc/stm32wbxx_ll_bus.h ****   *         @arg @ref LL_APB1_GRP1_PERIPH_WWDG
 930:Drivers/STM32WBxx_HAL_Driver/Inc/stm32wbxx_ll_bus.h ****   *         @arg @ref LL_APB1_GRP1_PERIPH_SPI2 (*)
 931:Drivers/STM32WBxx_HAL_Driver/Inc/stm32wbxx_ll_bus.h ****   *         @arg @ref LL_APB1_GRP1_PERIPH_I2C1
 932:Drivers/STM32WBxx_HAL_Driver/Inc/stm32wbxx_ll_bus.h ****   *         @arg @ref LL_APB1_GRP1_PERIPH_I2C3 (*)
 933:Drivers/STM32WBxx_HAL_Driver/Inc/stm32wbxx_ll_bus.h ****   *         @arg @ref LL_APB1_GRP1_PERIPH_CRS (*)
 934:Drivers/STM32WBxx_HAL_Driver/Inc/stm32wbxx_ll_bus.h ****   *         @arg @ref LL_APB1_GRP1_PERIPH_USB (*)
 935:Drivers/STM32WBxx_HAL_Driver/Inc/stm32wbxx_ll_bus.h ****   *         @arg @ref LL_APB1_GRP1_PERIPH_LPTIM1
 936:Drivers/STM32WBxx_HAL_Driver/Inc/stm32wbxx_ll_bus.h ****   * @note  (*) Not supported by all the devices
 937:Drivers/STM32WBxx_HAL_Driver/Inc/stm32wbxx_ll_bus.h ****   * @retval None
 938:Drivers/STM32WBxx_HAL_Driver/Inc/stm32wbxx_ll_bus.h ****   */
 939:Drivers/STM32WBxx_HAL_Driver/Inc/stm32wbxx_ll_bus.h **** __STATIC_INLINE void LL_APB1_GRP1_EnableClock(uint32_t Periphs)
 185              		.loc 2 939 22 view .LVU41
 186              	.LBB11:
 940:Drivers/STM32WBxx_HAL_Driver/Inc/stm32wbxx_ll_bus.h **** {
 941:Drivers/STM32WBxx_HAL_Driver/Inc/stm32wbxx_ll_bus.h ****   __IO uint32_t tmpreg;
 187              		.loc 2 941 3 view .LVU42
 942:Drivers/STM32WBxx_HAL_Driver/Inc/stm32wbxx_ll_bus.h ****   SET_BIT(RCC->APB1ENR1, Periphs);
 188              		.loc 2 942 3 view .LVU43
 189 004a A36D     		ldr	r3, [r4, #88]
 190 004c 43F08063 		orr	r3, r3, #67108864
 191 0050 A365     		str	r3, [r4, #88]
 943:Drivers/STM32WBxx_HAL_Driver/Inc/stm32wbxx_ll_bus.h ****   /* Delay after an RCC peripheral clock enabling */
 944:Drivers/STM32WBxx_HAL_Driver/Inc/stm32wbxx_ll_bus.h ****   tmpreg = READ_BIT(RCC->APB1ENR1, Periphs);
 192              		.loc 2 944 3 view .LVU44
 193              		.loc 2 944 12 is_stmt 0 view .LVU45
 194 0052 A36D     		ldr	r3, [r4, #88]
 195 0054 03F08063 		and	r3, r3, #67108864
 196              		.loc 2 944 10 view .LVU46
 197 0058 0193     		str	r3, [sp, #4]
 945:Drivers/STM32WBxx_HAL_Driver/Inc/stm32wbxx_ll_bus.h ****   (void)tmpreg;
 198              		.loc 2 945 3 is_stmt 1 view .LVU47
 199 005a 019B     		ldr	r3, [sp, #4]
 200              	.LVL12:
 201              		.loc 2 945 3 is_stmt 0 view .LVU48
 202              	.LBE11:
 203              	.LBE10:
  99:USB_Device/Target/usbd_conf.c ****     HAL_NVIC_EnableIRQ(USB_HP_IRQn);
 204              		.loc 1 99 5 is_stmt 1 view .LVU49
 205 005c 0022     		movs	r2, #0
 206 005e 1146     		mov	r1, r2
 207 0060 1320     		movs	r0, #19
 208 0062 FFF7FEFF 		bl	HAL_NVIC_SetPriority
 209              	.LVL13:
 100:USB_Device/Target/usbd_conf.c ****     HAL_NVIC_SetPriority(USB_LP_IRQn, 0, 0);
 210              		.loc 1 100 5 view .LVU50
 211 0066 1320     		movs	r0, #19
 212 0068 FFF7FEFF 		bl	HAL_NVIC_EnableIRQ
 213              	.LVL14:
 101:USB_Device/Target/usbd_conf.c ****     HAL_NVIC_EnableIRQ(USB_LP_IRQn);
ARM GAS  C:\Users\Nathan\AppData\Local\Temp\ccVQw5Zk.s 			page 36


 214              		.loc 1 101 5 view .LVU51
 215 006c 0022     		movs	r2, #0
 216 006e 1146     		mov	r1, r2
 217 0070 1420     		movs	r0, #20
 218 0072 FFF7FEFF 		bl	HAL_NVIC_SetPriority
 219              	.LVL15:
 102:USB_Device/Target/usbd_conf.c ****   /* USER CODE BEGIN USB_MspInit 1 */
 220              		.loc 1 102 5 view .LVU52
 221 0076 1420     		movs	r0, #20
 222 0078 FFF7FEFF 		bl	HAL_NVIC_EnableIRQ
 223              	.LVL16:
 107:USB_Device/Target/usbd_conf.c **** 
 224              		.loc 1 107 1 is_stmt 0 view .LVU53
 225 007c CCE7     		b	.L10
 226              	.L15:
 227 007e 00BF     		.align	2
 228              	.L14:
 229 0080 00680040 		.word	1073768448
 230              		.cfi_endproc
 231              	.LFE1416:
 233              		.section	.text.HAL_PCD_MspDeInit,"ax",%progbits
 234              		.align	1
 235              		.global	HAL_PCD_MspDeInit
 236              		.syntax unified
 237              		.thumb
 238              		.thumb_func
 240              	HAL_PCD_MspDeInit:
 241              	.LVL17:
 242              	.LFB1417:
 114:USB_Device/Target/usbd_conf.c ****   if(pcdHandle->Instance==USB)
 243              		.loc 1 114 1 is_stmt 1 view -0
 244              		.cfi_startproc
 245              		@ args = 0, pretend = 0, frame = 0
 246              		@ frame_needed = 0, uses_anonymous_args = 0
 114:USB_Device/Target/usbd_conf.c ****   if(pcdHandle->Instance==USB)
 247              		.loc 1 114 1 is_stmt 0 view .LVU55
 248 0000 08B5     		push	{r3, lr}
 249              		.cfi_def_cfa_offset 8
 250              		.cfi_offset 3, -8
 251              		.cfi_offset 14, -4
 115:USB_Device/Target/usbd_conf.c ****   {
 252              		.loc 1 115 3 is_stmt 1 view .LVU56
 115:USB_Device/Target/usbd_conf.c ****   {
 253              		.loc 1 115 15 is_stmt 0 view .LVU57
 254 0002 0268     		ldr	r2, [r0]
 115:USB_Device/Target/usbd_conf.c ****   {
 255              		.loc 1 115 5 view .LVU58
 256 0004 0B4B     		ldr	r3, .L20
 257 0006 9A42     		cmp	r2, r3
 258 0008 00D0     		beq	.L19
 259              	.LVL18:
 260              	.L16:
 138:USB_Device/Target/usbd_conf.c **** 
 261              		.loc 1 138 1 view .LVU59
 262 000a 08BD     		pop	{r3, pc}
 263              	.LVL19:
 264              	.L19:
ARM GAS  C:\Users\Nathan\AppData\Local\Temp\ccVQw5Zk.s 			page 37


 121:USB_Device/Target/usbd_conf.c **** 
 265              		.loc 1 121 5 is_stmt 1 view .LVU60
 266              	.LBB12:
 267              	.LBI12:
 946:Drivers/STM32WBxx_HAL_Driver/Inc/stm32wbxx_ll_bus.h **** }
 947:Drivers/STM32WBxx_HAL_Driver/Inc/stm32wbxx_ll_bus.h **** 
 948:Drivers/STM32WBxx_HAL_Driver/Inc/stm32wbxx_ll_bus.h **** /**
 949:Drivers/STM32WBxx_HAL_Driver/Inc/stm32wbxx_ll_bus.h ****   * @brief  Enable APB1 peripherals clock.
 950:Drivers/STM32WBxx_HAL_Driver/Inc/stm32wbxx_ll_bus.h ****   * @rmtoll APB1ENR2     LPUART1EN     LL_APB1_GRP2_EnableClock\n
 951:Drivers/STM32WBxx_HAL_Driver/Inc/stm32wbxx_ll_bus.h ****   *         APB1ENR2     LPTIM2EN      LL_APB1_GRP2_EnableClock
 952:Drivers/STM32WBxx_HAL_Driver/Inc/stm32wbxx_ll_bus.h ****   * @param  Periphs This parameter can be a combination of the following values:
 953:Drivers/STM32WBxx_HAL_Driver/Inc/stm32wbxx_ll_bus.h ****   *         @arg @ref LL_APB1_GRP2_PERIPH_LPUART1 (*)
 954:Drivers/STM32WBxx_HAL_Driver/Inc/stm32wbxx_ll_bus.h ****   *         @arg @ref LL_APB1_GRP2_PERIPH_LPTIM2
 955:Drivers/STM32WBxx_HAL_Driver/Inc/stm32wbxx_ll_bus.h ****   * @note  (*) Not supported by all the devices
 956:Drivers/STM32WBxx_HAL_Driver/Inc/stm32wbxx_ll_bus.h ****   * @retval None
 957:Drivers/STM32WBxx_HAL_Driver/Inc/stm32wbxx_ll_bus.h ****   */
 958:Drivers/STM32WBxx_HAL_Driver/Inc/stm32wbxx_ll_bus.h **** __STATIC_INLINE void LL_APB1_GRP2_EnableClock(uint32_t Periphs)
 959:Drivers/STM32WBxx_HAL_Driver/Inc/stm32wbxx_ll_bus.h **** {
 960:Drivers/STM32WBxx_HAL_Driver/Inc/stm32wbxx_ll_bus.h ****   __IO uint32_t tmpreg;
 961:Drivers/STM32WBxx_HAL_Driver/Inc/stm32wbxx_ll_bus.h ****   SET_BIT(RCC->APB1ENR2, Periphs);
 962:Drivers/STM32WBxx_HAL_Driver/Inc/stm32wbxx_ll_bus.h ****   /* Delay after an RCC peripheral clock enabling */
 963:Drivers/STM32WBxx_HAL_Driver/Inc/stm32wbxx_ll_bus.h ****   tmpreg = READ_BIT(RCC->APB1ENR2, Periphs);
 964:Drivers/STM32WBxx_HAL_Driver/Inc/stm32wbxx_ll_bus.h ****   (void)tmpreg;
 965:Drivers/STM32WBxx_HAL_Driver/Inc/stm32wbxx_ll_bus.h **** }
 966:Drivers/STM32WBxx_HAL_Driver/Inc/stm32wbxx_ll_bus.h **** 
 967:Drivers/STM32WBxx_HAL_Driver/Inc/stm32wbxx_ll_bus.h **** /**
 968:Drivers/STM32WBxx_HAL_Driver/Inc/stm32wbxx_ll_bus.h ****   * @brief  Check if APB1 peripheral clock is enabled or not
 969:Drivers/STM32WBxx_HAL_Driver/Inc/stm32wbxx_ll_bus.h ****   * @rmtoll APB1ENR1     TIM2EN        LL_APB1_GRP1_IsEnabledClock\n
 970:Drivers/STM32WBxx_HAL_Driver/Inc/stm32wbxx_ll_bus.h ****   *         APB1ENR1     LCDEN         LL_APB1_GRP1_IsEnabledClock\n
 971:Drivers/STM32WBxx_HAL_Driver/Inc/stm32wbxx_ll_bus.h ****   *         APB1ENR1     RTCAPBEN      LL_APB1_GRP1_IsEnabledClock\n
 972:Drivers/STM32WBxx_HAL_Driver/Inc/stm32wbxx_ll_bus.h ****   *         APB1ENR1     WWDGEN        LL_APB1_GRP1_IsEnabledClock\n
 973:Drivers/STM32WBxx_HAL_Driver/Inc/stm32wbxx_ll_bus.h ****   *         APB1ENR1     SPI2EN        LL_APB1_GRP1_IsEnabledClock\n
 974:Drivers/STM32WBxx_HAL_Driver/Inc/stm32wbxx_ll_bus.h ****   *         APB1ENR1     I2C1EN        LL_APB1_GRP1_IsEnabledClock\n
 975:Drivers/STM32WBxx_HAL_Driver/Inc/stm32wbxx_ll_bus.h ****   *         APB1ENR1     I2C3EN        LL_APB1_GRP1_IsEnabledClock\n
 976:Drivers/STM32WBxx_HAL_Driver/Inc/stm32wbxx_ll_bus.h ****   *         APB1ENR1     CRSEN         LL_APB1_GRP1_IsEnabledClock\n
 977:Drivers/STM32WBxx_HAL_Driver/Inc/stm32wbxx_ll_bus.h ****   *         APB1ENR1     USBEN         LL_APB1_GRP1_IsEnabledClock\n
 978:Drivers/STM32WBxx_HAL_Driver/Inc/stm32wbxx_ll_bus.h ****   *         APB1ENR1     LPTIM1EN      LL_APB1_GRP1_IsEnabledClock
 979:Drivers/STM32WBxx_HAL_Driver/Inc/stm32wbxx_ll_bus.h ****   * @param  Periphs This parameter can be a combination of the following values:
 980:Drivers/STM32WBxx_HAL_Driver/Inc/stm32wbxx_ll_bus.h ****   *         @arg @ref LL_APB1_GRP1_PERIPH_TIM2
 981:Drivers/STM32WBxx_HAL_Driver/Inc/stm32wbxx_ll_bus.h ****   *         @arg @ref LL_APB1_GRP1_PERIPH_LCD (*)
 982:Drivers/STM32WBxx_HAL_Driver/Inc/stm32wbxx_ll_bus.h ****   *         @arg @ref LL_APB1_GRP1_PERIPH_RTCAPB
 983:Drivers/STM32WBxx_HAL_Driver/Inc/stm32wbxx_ll_bus.h ****   *         @arg @ref LL_APB1_GRP1_PERIPH_WWDG
 984:Drivers/STM32WBxx_HAL_Driver/Inc/stm32wbxx_ll_bus.h ****   *         @arg @ref LL_APB1_GRP1_PERIPH_SPI2 (*)
 985:Drivers/STM32WBxx_HAL_Driver/Inc/stm32wbxx_ll_bus.h ****   *         @arg @ref LL_APB1_GRP1_PERIPH_I2C1
 986:Drivers/STM32WBxx_HAL_Driver/Inc/stm32wbxx_ll_bus.h ****   *         @arg @ref LL_APB1_GRP1_PERIPH_I2C3 (*)
 987:Drivers/STM32WBxx_HAL_Driver/Inc/stm32wbxx_ll_bus.h ****   *         @arg @ref LL_APB1_GRP1_PERIPH_CRS (*)
 988:Drivers/STM32WBxx_HAL_Driver/Inc/stm32wbxx_ll_bus.h ****   *         @arg @ref LL_APB1_GRP1_PERIPH_USB (*)
 989:Drivers/STM32WBxx_HAL_Driver/Inc/stm32wbxx_ll_bus.h ****   *         @arg @ref LL_APB1_GRP1_PERIPH_LPTIM1
 990:Drivers/STM32WBxx_HAL_Driver/Inc/stm32wbxx_ll_bus.h ****   * @note  (*) Not supported by all the devices
 991:Drivers/STM32WBxx_HAL_Driver/Inc/stm32wbxx_ll_bus.h ****   * @retval uint32_t
 992:Drivers/STM32WBxx_HAL_Driver/Inc/stm32wbxx_ll_bus.h ****   */
 993:Drivers/STM32WBxx_HAL_Driver/Inc/stm32wbxx_ll_bus.h **** __STATIC_INLINE uint32_t LL_APB1_GRP1_IsEnabledClock(uint32_t Periphs)
 994:Drivers/STM32WBxx_HAL_Driver/Inc/stm32wbxx_ll_bus.h **** {
 995:Drivers/STM32WBxx_HAL_Driver/Inc/stm32wbxx_ll_bus.h ****   return ((READ_BIT(RCC->APB1ENR1, Periphs) == (Periphs)) ? 1UL : 0UL);
 996:Drivers/STM32WBxx_HAL_Driver/Inc/stm32wbxx_ll_bus.h **** }
 997:Drivers/STM32WBxx_HAL_Driver/Inc/stm32wbxx_ll_bus.h **** 
 998:Drivers/STM32WBxx_HAL_Driver/Inc/stm32wbxx_ll_bus.h **** /**
ARM GAS  C:\Users\Nathan\AppData\Local\Temp\ccVQw5Zk.s 			page 38


 999:Drivers/STM32WBxx_HAL_Driver/Inc/stm32wbxx_ll_bus.h ****   * @brief  Check if APB1 peripheral clock is enabled or not
1000:Drivers/STM32WBxx_HAL_Driver/Inc/stm32wbxx_ll_bus.h ****   * @rmtoll APB1ENR2     LPUART1EN     LL_APB1_GRP2_IsEnabledClock\n
1001:Drivers/STM32WBxx_HAL_Driver/Inc/stm32wbxx_ll_bus.h ****   *         APB1ENR2     LPTIM2EN      LL_APB1_GRP2_IsEnabledClock
1002:Drivers/STM32WBxx_HAL_Driver/Inc/stm32wbxx_ll_bus.h ****   * @param  Periphs This parameter can be a combination of the following values:
1003:Drivers/STM32WBxx_HAL_Driver/Inc/stm32wbxx_ll_bus.h ****   *         @arg @ref LL_APB1_GRP2_PERIPH_LPUART1 (*)
1004:Drivers/STM32WBxx_HAL_Driver/Inc/stm32wbxx_ll_bus.h ****   *         @arg @ref LL_APB1_GRP2_PERIPH_LPTIM2
1005:Drivers/STM32WBxx_HAL_Driver/Inc/stm32wbxx_ll_bus.h ****   * @note  (*) Not supported by all the devices
1006:Drivers/STM32WBxx_HAL_Driver/Inc/stm32wbxx_ll_bus.h ****   * @retval uint32_t
1007:Drivers/STM32WBxx_HAL_Driver/Inc/stm32wbxx_ll_bus.h ****   */
1008:Drivers/STM32WBxx_HAL_Driver/Inc/stm32wbxx_ll_bus.h **** __STATIC_INLINE uint32_t LL_APB1_GRP2_IsEnabledClock(uint32_t Periphs)
1009:Drivers/STM32WBxx_HAL_Driver/Inc/stm32wbxx_ll_bus.h **** {
1010:Drivers/STM32WBxx_HAL_Driver/Inc/stm32wbxx_ll_bus.h ****   return ((READ_BIT(RCC->APB1ENR2, Periphs) == (Periphs)) ? 1UL : 0UL);
1011:Drivers/STM32WBxx_HAL_Driver/Inc/stm32wbxx_ll_bus.h **** }
1012:Drivers/STM32WBxx_HAL_Driver/Inc/stm32wbxx_ll_bus.h **** 
1013:Drivers/STM32WBxx_HAL_Driver/Inc/stm32wbxx_ll_bus.h **** /**
1014:Drivers/STM32WBxx_HAL_Driver/Inc/stm32wbxx_ll_bus.h ****   * @brief  Disable APB1 peripherals clock.
1015:Drivers/STM32WBxx_HAL_Driver/Inc/stm32wbxx_ll_bus.h ****   * @rmtoll APB1ENR1     TIM2EN        LL_APB1_GRP1_DisableClock\n
1016:Drivers/STM32WBxx_HAL_Driver/Inc/stm32wbxx_ll_bus.h ****   *         APB1ENR1     LCDEN         LL_APB1_GRP1_DisableClock\n
1017:Drivers/STM32WBxx_HAL_Driver/Inc/stm32wbxx_ll_bus.h ****   *         APB1ENR1     RTCAPBEN      LL_APB1_GRP1_DisableClock\n
1018:Drivers/STM32WBxx_HAL_Driver/Inc/stm32wbxx_ll_bus.h ****   *         APB1ENR1     SPI2EN        LL_APB1_GRP1_DisableClock\n
1019:Drivers/STM32WBxx_HAL_Driver/Inc/stm32wbxx_ll_bus.h ****   *         APB1ENR1     I2C1EN        LL_APB1_GRP1_DisableClock\n
1020:Drivers/STM32WBxx_HAL_Driver/Inc/stm32wbxx_ll_bus.h ****   *         APB1ENR1     I2C3EN        LL_APB1_GRP1_DisableClock\n
1021:Drivers/STM32WBxx_HAL_Driver/Inc/stm32wbxx_ll_bus.h ****   *         APB1ENR1     CRSEN         LL_APB1_GRP1_DisableClock\n
1022:Drivers/STM32WBxx_HAL_Driver/Inc/stm32wbxx_ll_bus.h ****   *         APB1ENR1     USBEN         LL_APB1_GRP1_DisableClock\n
1023:Drivers/STM32WBxx_HAL_Driver/Inc/stm32wbxx_ll_bus.h ****   *         APB1ENR1     LPTIM1EN      LL_APB1_GRP1_DisableClock
1024:Drivers/STM32WBxx_HAL_Driver/Inc/stm32wbxx_ll_bus.h ****   * @param  Periphs This parameter can be a combination of the following values:
1025:Drivers/STM32WBxx_HAL_Driver/Inc/stm32wbxx_ll_bus.h ****   *         @arg @ref LL_APB1_GRP1_PERIPH_TIM2
1026:Drivers/STM32WBxx_HAL_Driver/Inc/stm32wbxx_ll_bus.h ****   *         @arg @ref LL_APB1_GRP1_PERIPH_LCD (*)
1027:Drivers/STM32WBxx_HAL_Driver/Inc/stm32wbxx_ll_bus.h ****   *         @arg @ref LL_APB1_GRP1_PERIPH_RTCAPB
1028:Drivers/STM32WBxx_HAL_Driver/Inc/stm32wbxx_ll_bus.h ****   *         @arg @ref LL_APB1_GRP1_PERIPH_WWDG
1029:Drivers/STM32WBxx_HAL_Driver/Inc/stm32wbxx_ll_bus.h ****   *         @arg @ref LL_APB1_GRP1_PERIPH_SPI2 (*)
1030:Drivers/STM32WBxx_HAL_Driver/Inc/stm32wbxx_ll_bus.h ****   *         @arg @ref LL_APB1_GRP1_PERIPH_I2C1
1031:Drivers/STM32WBxx_HAL_Driver/Inc/stm32wbxx_ll_bus.h ****   *         @arg @ref LL_APB1_GRP1_PERIPH_I2C3 (*)
1032:Drivers/STM32WBxx_HAL_Driver/Inc/stm32wbxx_ll_bus.h ****   *         @arg @ref LL_APB1_GRP1_PERIPH_ (*)
1033:Drivers/STM32WBxx_HAL_Driver/Inc/stm32wbxx_ll_bus.h ****   *         @arg @ref LL_APB1_GRP1_PERIPH_USB (*)
1034:Drivers/STM32WBxx_HAL_Driver/Inc/stm32wbxx_ll_bus.h ****   *         @arg @ref LL_APB1_GRP1_PERIPH_LPTIM1
1035:Drivers/STM32WBxx_HAL_Driver/Inc/stm32wbxx_ll_bus.h ****   * @note  (*) Not supported by all the devices
1036:Drivers/STM32WBxx_HAL_Driver/Inc/stm32wbxx_ll_bus.h ****   * @retval None
1037:Drivers/STM32WBxx_HAL_Driver/Inc/stm32wbxx_ll_bus.h ****   */
1038:Drivers/STM32WBxx_HAL_Driver/Inc/stm32wbxx_ll_bus.h **** __STATIC_INLINE void LL_APB1_GRP1_DisableClock(uint32_t Periphs)
 268              		.loc 2 1038 22 view .LVU61
 269              	.LBB13:
1039:Drivers/STM32WBxx_HAL_Driver/Inc/stm32wbxx_ll_bus.h **** {
1040:Drivers/STM32WBxx_HAL_Driver/Inc/stm32wbxx_ll_bus.h ****   CLEAR_BIT(RCC->APB1ENR1, Periphs);
 270              		.loc 2 1040 3 view .LVU62
 271 000c 4FF0B042 		mov	r2, #1476395008
 272 0010 936D     		ldr	r3, [r2, #88]
 273 0012 23F08063 		bic	r3, r3, #67108864
 274 0016 9365     		str	r3, [r2, #88]
 275              	.LVL20:
 276              		.loc 2 1040 3 is_stmt 0 view .LVU63
 277              	.LBE13:
 278              	.LBE12:
 127:USB_Device/Target/usbd_conf.c **** 
 279              		.loc 1 127 5 is_stmt 1 view .LVU64
 280 0018 4FF4C051 		mov	r1, #6144
 281 001c 4FF09040 		mov	r0, #1207959552
ARM GAS  C:\Users\Nathan\AppData\Local\Temp\ccVQw5Zk.s 			page 39


 282              	.LVL21:
 127:USB_Device/Target/usbd_conf.c **** 
 283              		.loc 1 127 5 is_stmt 0 view .LVU65
 284 0020 FFF7FEFF 		bl	HAL_GPIO_DeInit
 285              	.LVL22:
 130:USB_Device/Target/usbd_conf.c **** 
 286              		.loc 1 130 5 is_stmt 1 view .LVU66
 287 0024 1320     		movs	r0, #19
 288 0026 FFF7FEFF 		bl	HAL_NVIC_DisableIRQ
 289              	.LVL23:
 132:USB_Device/Target/usbd_conf.c **** 
 290              		.loc 1 132 5 view .LVU67
 291 002a 1420     		movs	r0, #20
 292 002c FFF7FEFF 		bl	HAL_NVIC_DisableIRQ
 293              	.LVL24:
 138:USB_Device/Target/usbd_conf.c **** 
 294              		.loc 1 138 1 is_stmt 0 view .LVU68
 295 0030 EBE7     		b	.L16
 296              	.L21:
 297 0032 00BF     		.align	2
 298              	.L20:
 299 0034 00680040 		.word	1073768448
 300              		.cfi_endproc
 301              	.LFE1417:
 303              		.section	.text.HAL_PCD_SetupStageCallback,"ax",%progbits
 304              		.align	1
 305              		.global	HAL_PCD_SetupStageCallback
 306              		.syntax unified
 307              		.thumb
 308              		.thumb_func
 310              	HAL_PCD_SetupStageCallback:
 311              	.LVL25:
 312              	.LFB1418:
 150:USB_Device/Target/usbd_conf.c ****   /* USER CODE BEGIN HAL_PCD_SetupStageCallback_PreTreatment */
 313              		.loc 1 150 1 is_stmt 1 view -0
 314              		.cfi_startproc
 315              		@ args = 0, pretend = 0, frame = 0
 316              		@ frame_needed = 0, uses_anonymous_args = 0
 150:USB_Device/Target/usbd_conf.c ****   /* USER CODE BEGIN HAL_PCD_SetupStageCallback_PreTreatment */
 317              		.loc 1 150 1 is_stmt 0 view .LVU70
 318 0000 08B5     		push	{r3, lr}
 319              		.cfi_def_cfa_offset 8
 320              		.cfi_offset 3, -8
 321              		.cfi_offset 14, -4
 154:USB_Device/Target/usbd_conf.c ****   /* USER CODE BEGIN HAL_PCD_SetupStageCallback_PostTreatment */
 322              		.loc 1 154 3 is_stmt 1 view .LVU71
 323 0002 00F52671 		add	r1, r0, #664
 324 0006 D0F8D802 		ldr	r0, [r0, #728]
 325              	.LVL26:
 154:USB_Device/Target/usbd_conf.c ****   /* USER CODE BEGIN HAL_PCD_SetupStageCallback_PostTreatment */
 326              		.loc 1 154 3 is_stmt 0 view .LVU72
 327 000a FFF7FEFF 		bl	USBD_LL_SetupStage
 328              	.LVL27:
 158:USB_Device/Target/usbd_conf.c **** 
 329              		.loc 1 158 1 view .LVU73
 330 000e 08BD     		pop	{r3, pc}
 331              		.cfi_endproc
ARM GAS  C:\Users\Nathan\AppData\Local\Temp\ccVQw5Zk.s 			page 40


 332              	.LFE1418:
 334              		.section	.text.HAL_PCD_DataOutStageCallback,"ax",%progbits
 335              		.align	1
 336              		.global	HAL_PCD_DataOutStageCallback
 337              		.syntax unified
 338              		.thumb
 339              		.thumb_func
 341              	HAL_PCD_DataOutStageCallback:
 342              	.LVL28:
 343              	.LFB1419:
 171:USB_Device/Target/usbd_conf.c ****   /* USER CODE BEGIN HAL_PCD_DataOutStageCallback_PreTreatment */
 344              		.loc 1 171 1 is_stmt 1 view -0
 345              		.cfi_startproc
 346              		@ args = 0, pretend = 0, frame = 0
 347              		@ frame_needed = 0, uses_anonymous_args = 0
 171:USB_Device/Target/usbd_conf.c ****   /* USER CODE BEGIN HAL_PCD_DataOutStageCallback_PreTreatment */
 348              		.loc 1 171 1 is_stmt 0 view .LVU75
 349 0000 08B5     		push	{r3, lr}
 350              		.cfi_def_cfa_offset 8
 351              		.cfi_offset 3, -8
 352              		.cfi_offset 14, -4
 175:USB_Device/Target/usbd_conf.c ****   /* USER CODE BEGIN HAL_PCD_DataOutStageCallback_PostTreatment */
 353              		.loc 1 175 3 is_stmt 1 view .LVU76
 354 0002 01EB8103 		add	r3, r1, r1, lsl #2
 355 0006 00EBC303 		add	r3, r0, r3, lsl #3
 356 000a D3F86421 		ldr	r2, [r3, #356]
 357 000e D0F8D802 		ldr	r0, [r0, #728]
 358              	.LVL29:
 175:USB_Device/Target/usbd_conf.c ****   /* USER CODE BEGIN HAL_PCD_DataOutStageCallback_PostTreatment */
 359              		.loc 1 175 3 is_stmt 0 view .LVU77
 360 0012 FFF7FEFF 		bl	USBD_LL_DataOutStage
 361              	.LVL30:
 179:USB_Device/Target/usbd_conf.c **** 
 362              		.loc 1 179 1 view .LVU78
 363 0016 08BD     		pop	{r3, pc}
 364              		.cfi_endproc
 365              	.LFE1419:
 367              		.section	.text.HAL_PCD_DataInStageCallback,"ax",%progbits
 368              		.align	1
 369              		.global	HAL_PCD_DataInStageCallback
 370              		.syntax unified
 371              		.thumb
 372              		.thumb_func
 374              	HAL_PCD_DataInStageCallback:
 375              	.LVL31:
 376              	.LFB1420:
 192:USB_Device/Target/usbd_conf.c ****   /* USER CODE BEGIN HAL_PCD_DataInStageCallback_PreTreatment */
 377              		.loc 1 192 1 is_stmt 1 view -0
 378              		.cfi_startproc
 379              		@ args = 0, pretend = 0, frame = 0
 380              		@ frame_needed = 0, uses_anonymous_args = 0
 192:USB_Device/Target/usbd_conf.c ****   /* USER CODE BEGIN HAL_PCD_DataInStageCallback_PreTreatment */
 381              		.loc 1 192 1 is_stmt 0 view .LVU80
 382 0000 08B5     		push	{r3, lr}
 383              		.cfi_def_cfa_offset 8
 384              		.cfi_offset 3, -8
 385              		.cfi_offset 14, -4
ARM GAS  C:\Users\Nathan\AppData\Local\Temp\ccVQw5Zk.s 			page 41


 196:USB_Device/Target/usbd_conf.c ****   /* USER CODE BEGIN HAL_PCD_DataInStageCallback_PostTreatment  */
 386              		.loc 1 196 3 is_stmt 1 view .LVU81
 387 0002 01EB8103 		add	r3, r1, r1, lsl #2
 388 0006 00EBC303 		add	r3, r0, r3, lsl #3
 389 000a 5A6A     		ldr	r2, [r3, #36]
 390 000c D0F8D802 		ldr	r0, [r0, #728]
 391              	.LVL32:
 196:USB_Device/Target/usbd_conf.c ****   /* USER CODE BEGIN HAL_PCD_DataInStageCallback_PostTreatment  */
 392              		.loc 1 196 3 is_stmt 0 view .LVU82
 393 0010 FFF7FEFF 		bl	USBD_LL_DataInStage
 394              	.LVL33:
 200:USB_Device/Target/usbd_conf.c **** 
 395              		.loc 1 200 1 view .LVU83
 396 0014 08BD     		pop	{r3, pc}
 397              		.cfi_endproc
 398              	.LFE1420:
 400              		.section	.text.HAL_PCD_SOFCallback,"ax",%progbits
 401              		.align	1
 402              		.global	HAL_PCD_SOFCallback
 403              		.syntax unified
 404              		.thumb
 405              		.thumb_func
 407              	HAL_PCD_SOFCallback:
 408              	.LVL34:
 409              	.LFB1421:
 212:USB_Device/Target/usbd_conf.c ****   /* USER CODE BEGIN HAL_PCD_SOFCallback_PreTreatment */
 410              		.loc 1 212 1 is_stmt 1 view -0
 411              		.cfi_startproc
 412              		@ args = 0, pretend = 0, frame = 0
 413              		@ frame_needed = 0, uses_anonymous_args = 0
 212:USB_Device/Target/usbd_conf.c ****   /* USER CODE BEGIN HAL_PCD_SOFCallback_PreTreatment */
 414              		.loc 1 212 1 is_stmt 0 view .LVU85
 415 0000 08B5     		push	{r3, lr}
 416              		.cfi_def_cfa_offset 8
 417              		.cfi_offset 3, -8
 418              		.cfi_offset 14, -4
 216:USB_Device/Target/usbd_conf.c ****   /* USER CODE BEGIN HAL_PCD_SOFCallback_PostTreatment */
 419              		.loc 1 216 3 is_stmt 1 view .LVU86
 420 0002 D0F8D802 		ldr	r0, [r0, #728]
 421              	.LVL35:
 216:USB_Device/Target/usbd_conf.c ****   /* USER CODE BEGIN HAL_PCD_SOFCallback_PostTreatment */
 422              		.loc 1 216 3 is_stmt 0 view .LVU87
 423 0006 FFF7FEFF 		bl	USBD_LL_SOF
 424              	.LVL36:
 220:USB_Device/Target/usbd_conf.c **** 
 425              		.loc 1 220 1 view .LVU88
 426 000a 08BD     		pop	{r3, pc}
 427              		.cfi_endproc
 428              	.LFE1421:
 430              		.section	.text.HAL_PCD_ResetCallback,"ax",%progbits
 431              		.align	1
 432              		.global	HAL_PCD_ResetCallback
 433              		.syntax unified
 434              		.thumb
 435              		.thumb_func
 437              	HAL_PCD_ResetCallback:
 438              	.LVL37:
ARM GAS  C:\Users\Nathan\AppData\Local\Temp\ccVQw5Zk.s 			page 42


 439              	.LFB1422:
 232:USB_Device/Target/usbd_conf.c ****   /* USER CODE BEGIN HAL_PCD_ResetCallback_PreTreatment */
 440              		.loc 1 232 1 is_stmt 1 view -0
 441              		.cfi_startproc
 442              		@ args = 0, pretend = 0, frame = 0
 443              		@ frame_needed = 0, uses_anonymous_args = 0
 232:USB_Device/Target/usbd_conf.c ****   /* USER CODE BEGIN HAL_PCD_ResetCallback_PreTreatment */
 444              		.loc 1 232 1 is_stmt 0 view .LVU90
 445 0000 10B5     		push	{r4, lr}
 446              		.cfi_def_cfa_offset 8
 447              		.cfi_offset 4, -8
 448              		.cfi_offset 14, -4
 449 0002 0446     		mov	r4, r0
 236:USB_Device/Target/usbd_conf.c **** 
 450              		.loc 1 236 3 is_stmt 1 view .LVU91
 451              	.LVL38:
 238:USB_Device/Target/usbd_conf.c ****   {
 452              		.loc 1 238 3 view .LVU92
 238:USB_Device/Target/usbd_conf.c ****   {
 453              		.loc 1 238 18 is_stmt 0 view .LVU93
 454 0004 4379     		ldrb	r3, [r0, #5]	@ zero_extendqisi2
 238:USB_Device/Target/usbd_conf.c ****   {
 455              		.loc 1 238 6 view .LVU94
 456 0006 022B     		cmp	r3, #2
 457 0008 09D1     		bne	.L33
 458              	.LVL39:
 459              	.L31:
 243:USB_Device/Target/usbd_conf.c **** 
 460              		.loc 1 243 3 is_stmt 1 view .LVU95
 461 000a 0121     		movs	r1, #1
 462 000c D4F8D802 		ldr	r0, [r4, #728]
 463 0010 FFF7FEFF 		bl	USBD_LL_SetSpeed
 464              	.LVL40:
 246:USB_Device/Target/usbd_conf.c ****   /* USER CODE BEGIN HAL_PCD_ResetCallback_PostTreatment */
 465              		.loc 1 246 3 view .LVU96
 466 0014 D4F8D802 		ldr	r0, [r4, #728]
 467 0018 FFF7FEFF 		bl	USBD_LL_Reset
 468              	.LVL41:
 250:USB_Device/Target/usbd_conf.c **** 
 469              		.loc 1 250 1 is_stmt 0 view .LVU97
 470 001c 10BD     		pop	{r4, pc}
 471              	.LVL42:
 472              	.L33:
 240:USB_Device/Target/usbd_conf.c ****   }
 473              		.loc 1 240 5 is_stmt 1 view .LVU98
 474 001e FFF7FEFF 		bl	Error_Handler
 475              	.LVL43:
 240:USB_Device/Target/usbd_conf.c ****   }
 476              		.loc 1 240 5 is_stmt 0 view .LVU99
 477 0022 F2E7     		b	.L31
 478              		.cfi_endproc
 479              	.LFE1422:
 481              		.section	.text.HAL_PCD_SuspendCallback,"ax",%progbits
 482              		.align	1
 483              		.global	HAL_PCD_SuspendCallback
 484              		.syntax unified
 485              		.thumb
ARM GAS  C:\Users\Nathan\AppData\Local\Temp\ccVQw5Zk.s 			page 43


 486              		.thumb_func
 488              	HAL_PCD_SuspendCallback:
 489              	.LVL44:
 490              	.LFB1423:
 263:USB_Device/Target/usbd_conf.c ****   /* USER CODE BEGIN HAL_PCD_SuspendCallback_PreTreatment */
 491              		.loc 1 263 1 is_stmt 1 view -0
 492              		.cfi_startproc
 493              		@ args = 0, pretend = 0, frame = 0
 494              		@ frame_needed = 0, uses_anonymous_args = 0
 263:USB_Device/Target/usbd_conf.c ****   /* USER CODE BEGIN HAL_PCD_SuspendCallback_PreTreatment */
 495              		.loc 1 263 1 is_stmt 0 view .LVU101
 496 0000 10B5     		push	{r4, lr}
 497              		.cfi_def_cfa_offset 8
 498              		.cfi_offset 4, -8
 499              		.cfi_offset 14, -4
 500 0002 0446     		mov	r4, r0
 268:USB_Device/Target/usbd_conf.c ****   /* Enter in STOP mode. */
 501              		.loc 1 268 3 is_stmt 1 view .LVU102
 502 0004 D0F8D802 		ldr	r0, [r0, #728]
 503              	.LVL45:
 268:USB_Device/Target/usbd_conf.c ****   /* Enter in STOP mode. */
 504              		.loc 1 268 3 is_stmt 0 view .LVU103
 505 0008 FFF7FEFF 		bl	USBD_LL_Suspend
 506              	.LVL46:
 271:USB_Device/Target/usbd_conf.c ****   {
 507              		.loc 1 271 3 is_stmt 1 view .LVU104
 271:USB_Device/Target/usbd_conf.c ****   {
 508              		.loc 1 271 17 is_stmt 0 view .LVU105
 509 000c 637A     		ldrb	r3, [r4, #9]	@ zero_extendqisi2
 271:USB_Device/Target/usbd_conf.c ****   {
 510              		.loc 1 271 6 view .LVU106
 511 000e 23B1     		cbz	r3, .L34
 274:USB_Device/Target/usbd_conf.c ****   }
 512              		.loc 1 274 5 is_stmt 1 view .LVU107
 274:USB_Device/Target/usbd_conf.c ****   }
 513              		.loc 1 274 8 is_stmt 0 view .LVU108
 514 0010 024A     		ldr	r2, .L37
 515 0012 1369     		ldr	r3, [r2, #16]
 274:USB_Device/Target/usbd_conf.c ****   }
 516              		.loc 1 274 14 view .LVU109
 517 0014 43F00603 		orr	r3, r3, #6
 518 0018 1361     		str	r3, [r2, #16]
 519              	.L34:
 280:USB_Device/Target/usbd_conf.c **** 
 520              		.loc 1 280 1 view .LVU110
 521 001a 10BD     		pop	{r4, pc}
 522              	.LVL47:
 523              	.L38:
 280:USB_Device/Target/usbd_conf.c **** 
 524              		.loc 1 280 1 view .LVU111
 525              		.align	2
 526              	.L37:
 527 001c 00ED00E0 		.word	-536810240
 528              		.cfi_endproc
 529              	.LFE1423:
 531              		.section	.text.HAL_PCD_ResumeCallback,"ax",%progbits
 532              		.align	1
ARM GAS  C:\Users\Nathan\AppData\Local\Temp\ccVQw5Zk.s 			page 44


 533              		.global	HAL_PCD_ResumeCallback
 534              		.syntax unified
 535              		.thumb
 536              		.thumb_func
 538              	HAL_PCD_ResumeCallback:
 539              	.LVL48:
 540              	.LFB1424:
 293:USB_Device/Target/usbd_conf.c ****   /* USER CODE BEGIN HAL_PCD_ResumeCallback_PreTreatment */
 541              		.loc 1 293 1 is_stmt 1 view -0
 542              		.cfi_startproc
 543              		@ args = 0, pretend = 0, frame = 0
 544              		@ frame_needed = 0, uses_anonymous_args = 0
 293:USB_Device/Target/usbd_conf.c ****   /* USER CODE BEGIN HAL_PCD_ResumeCallback_PreTreatment */
 545              		.loc 1 293 1 is_stmt 0 view .LVU113
 546 0000 10B5     		push	{r4, lr}
 547              		.cfi_def_cfa_offset 8
 548              		.cfi_offset 4, -8
 549              		.cfi_offset 14, -4
 550 0002 0446     		mov	r4, r0
 299:USB_Device/Target/usbd_conf.c ****   {
 551              		.loc 1 299 3 is_stmt 1 view .LVU114
 299:USB_Device/Target/usbd_conf.c ****   {
 552              		.loc 1 299 17 is_stmt 0 view .LVU115
 553 0004 437A     		ldrb	r3, [r0, #9]	@ zero_extendqisi2
 299:USB_Device/Target/usbd_conf.c ****   {
 554              		.loc 1 299 6 view .LVU116
 555 0006 23B9     		cbnz	r3, .L42
 556              	.LVL49:
 557              	.L40:
 307:USB_Device/Target/usbd_conf.c ****   /* USER CODE BEGIN HAL_PCD_ResumeCallback_PostTreatment */
 558              		.loc 1 307 3 is_stmt 1 view .LVU117
 559 0008 D4F8D802 		ldr	r0, [r4, #728]
 560 000c FFF7FEFF 		bl	USBD_LL_Resume
 561              	.LVL50:
 311:USB_Device/Target/usbd_conf.c **** 
 562              		.loc 1 311 1 is_stmt 0 view .LVU118
 563 0010 10BD     		pop	{r4, pc}
 564              	.LVL51:
 565              	.L42:
 302:USB_Device/Target/usbd_conf.c ****     SystemClockConfig_Resume();
 566              		.loc 1 302 5 is_stmt 1 view .LVU119
 302:USB_Device/Target/usbd_conf.c ****     SystemClockConfig_Resume();
 567              		.loc 1 302 8 is_stmt 0 view .LVU120
 568 0012 044A     		ldr	r2, .L43
 569 0014 1369     		ldr	r3, [r2, #16]
 302:USB_Device/Target/usbd_conf.c ****     SystemClockConfig_Resume();
 570              		.loc 1 302 14 view .LVU121
 571 0016 23F00603 		bic	r3, r3, #6
 572 001a 1361     		str	r3, [r2, #16]
 303:USB_Device/Target/usbd_conf.c ****   }
 573              		.loc 1 303 5 is_stmt 1 view .LVU122
 574 001c FFF7FEFF 		bl	SystemClockConfig_Resume
 575              	.LVL52:
 303:USB_Device/Target/usbd_conf.c ****   }
 576              		.loc 1 303 5 is_stmt 0 view .LVU123
 577 0020 F2E7     		b	.L40
 578              	.L44:
ARM GAS  C:\Users\Nathan\AppData\Local\Temp\ccVQw5Zk.s 			page 45


 579 0022 00BF     		.align	2
 580              	.L43:
 581 0024 00ED00E0 		.word	-536810240
 582              		.cfi_endproc
 583              	.LFE1424:
 585              		.section	.text.HAL_PCD_ISOOUTIncompleteCallback,"ax",%progbits
 586              		.align	1
 587              		.global	HAL_PCD_ISOOUTIncompleteCallback
 588              		.syntax unified
 589              		.thumb
 590              		.thumb_func
 592              	HAL_PCD_ISOOUTIncompleteCallback:
 593              	.LVL53:
 594              	.LFB1425:
 324:USB_Device/Target/usbd_conf.c ****   /* USER CODE BEGIN HAL_PCD_ISOOUTIncompleteCallback_PreTreatment */
 595              		.loc 1 324 1 is_stmt 1 view -0
 596              		.cfi_startproc
 597              		@ args = 0, pretend = 0, frame = 0
 598              		@ frame_needed = 0, uses_anonymous_args = 0
 324:USB_Device/Target/usbd_conf.c ****   /* USER CODE BEGIN HAL_PCD_ISOOUTIncompleteCallback_PreTreatment */
 599              		.loc 1 324 1 is_stmt 0 view .LVU125
 600 0000 08B5     		push	{r3, lr}
 601              		.cfi_def_cfa_offset 8
 602              		.cfi_offset 3, -8
 603              		.cfi_offset 14, -4
 328:USB_Device/Target/usbd_conf.c ****   /* USER CODE BEGIN HAL_PCD_ISOOUTIncompleteCallback_PostTreatment */
 604              		.loc 1 328 3 is_stmt 1 view .LVU126
 605 0002 D0F8D802 		ldr	r0, [r0, #728]
 606              	.LVL54:
 328:USB_Device/Target/usbd_conf.c ****   /* USER CODE BEGIN HAL_PCD_ISOOUTIncompleteCallback_PostTreatment */
 607              		.loc 1 328 3 is_stmt 0 view .LVU127
 608 0006 FFF7FEFF 		bl	USBD_LL_IsoOUTIncomplete
 609              	.LVL55:
 332:USB_Device/Target/usbd_conf.c **** 
 610              		.loc 1 332 1 view .LVU128
 611 000a 08BD     		pop	{r3, pc}
 612              		.cfi_endproc
 613              	.LFE1425:
 615              		.section	.text.HAL_PCD_ISOINIncompleteCallback,"ax",%progbits
 616              		.align	1
 617              		.global	HAL_PCD_ISOINIncompleteCallback
 618              		.syntax unified
 619              		.thumb
 620              		.thumb_func
 622              	HAL_PCD_ISOINIncompleteCallback:
 623              	.LVL56:
 624              	.LFB1426:
 345:USB_Device/Target/usbd_conf.c ****   /* USER CODE BEGIN HAL_PCD_ISOINIncompleteCallback_PreTreatment */
 625              		.loc 1 345 1 is_stmt 1 view -0
 626              		.cfi_startproc
 627              		@ args = 0, pretend = 0, frame = 0
 628              		@ frame_needed = 0, uses_anonymous_args = 0
 345:USB_Device/Target/usbd_conf.c ****   /* USER CODE BEGIN HAL_PCD_ISOINIncompleteCallback_PreTreatment */
 629              		.loc 1 345 1 is_stmt 0 view .LVU130
 630 0000 08B5     		push	{r3, lr}
 631              		.cfi_def_cfa_offset 8
 632              		.cfi_offset 3, -8
ARM GAS  C:\Users\Nathan\AppData\Local\Temp\ccVQw5Zk.s 			page 46


 633              		.cfi_offset 14, -4
 349:USB_Device/Target/usbd_conf.c ****   /* USER CODE BEGIN HAL_PCD_ISOINIncompleteCallback_PostTreatment */
 634              		.loc 1 349 3 is_stmt 1 view .LVU131
 635 0002 D0F8D802 		ldr	r0, [r0, #728]
 636              	.LVL57:
 349:USB_Device/Target/usbd_conf.c ****   /* USER CODE BEGIN HAL_PCD_ISOINIncompleteCallback_PostTreatment */
 637              		.loc 1 349 3 is_stmt 0 view .LVU132
 638 0006 FFF7FEFF 		bl	USBD_LL_IsoINIncomplete
 639              	.LVL58:
 353:USB_Device/Target/usbd_conf.c **** 
 640              		.loc 1 353 1 view .LVU133
 641 000a 08BD     		pop	{r3, pc}
 642              		.cfi_endproc
 643              	.LFE1426:
 645              		.section	.text.HAL_PCD_ConnectCallback,"ax",%progbits
 646              		.align	1
 647              		.global	HAL_PCD_ConnectCallback
 648              		.syntax unified
 649              		.thumb
 650              		.thumb_func
 652              	HAL_PCD_ConnectCallback:
 653              	.LVL59:
 654              	.LFB1427:
 365:USB_Device/Target/usbd_conf.c ****   /* USER CODE BEGIN HAL_PCD_ConnectCallback_PreTreatment */
 655              		.loc 1 365 1 is_stmt 1 view -0
 656              		.cfi_startproc
 657              		@ args = 0, pretend = 0, frame = 0
 658              		@ frame_needed = 0, uses_anonymous_args = 0
 365:USB_Device/Target/usbd_conf.c ****   /* USER CODE BEGIN HAL_PCD_ConnectCallback_PreTreatment */
 659              		.loc 1 365 1 is_stmt 0 view .LVU135
 660 0000 08B5     		push	{r3, lr}
 661              		.cfi_def_cfa_offset 8
 662              		.cfi_offset 3, -8
 663              		.cfi_offset 14, -4
 369:USB_Device/Target/usbd_conf.c ****   /* USER CODE BEGIN HAL_PCD_ConnectCallback_PostTreatment */
 664              		.loc 1 369 3 is_stmt 1 view .LVU136
 665 0002 D0F8D802 		ldr	r0, [r0, #728]
 666              	.LVL60:
 369:USB_Device/Target/usbd_conf.c ****   /* USER CODE BEGIN HAL_PCD_ConnectCallback_PostTreatment */
 667              		.loc 1 369 3 is_stmt 0 view .LVU137
 668 0006 FFF7FEFF 		bl	USBD_LL_DevConnected
 669              	.LVL61:
 373:USB_Device/Target/usbd_conf.c **** 
 670              		.loc 1 373 1 view .LVU138
 671 000a 08BD     		pop	{r3, pc}
 672              		.cfi_endproc
 673              	.LFE1427:
 675              		.section	.text.HAL_PCD_DisconnectCallback,"ax",%progbits
 676              		.align	1
 677              		.global	HAL_PCD_DisconnectCallback
 678              		.syntax unified
 679              		.thumb
 680              		.thumb_func
 682              	HAL_PCD_DisconnectCallback:
 683              	.LVL62:
 684              	.LFB1428:
 385:USB_Device/Target/usbd_conf.c ****   /* USER CODE BEGIN HAL_PCD_DisconnectCallback_PreTreatment */
ARM GAS  C:\Users\Nathan\AppData\Local\Temp\ccVQw5Zk.s 			page 47


 685              		.loc 1 385 1 is_stmt 1 view -0
 686              		.cfi_startproc
 687              		@ args = 0, pretend = 0, frame = 0
 688              		@ frame_needed = 0, uses_anonymous_args = 0
 385:USB_Device/Target/usbd_conf.c ****   /* USER CODE BEGIN HAL_PCD_DisconnectCallback_PreTreatment */
 689              		.loc 1 385 1 is_stmt 0 view .LVU140
 690 0000 08B5     		push	{r3, lr}
 691              		.cfi_def_cfa_offset 8
 692              		.cfi_offset 3, -8
 693              		.cfi_offset 14, -4
 389:USB_Device/Target/usbd_conf.c ****   /* USER CODE BEGIN HAL_PCD_DisconnectCallback_PostTreatment */
 694              		.loc 1 389 3 is_stmt 1 view .LVU141
 695 0002 D0F8D802 		ldr	r0, [r0, #728]
 696              	.LVL63:
 389:USB_Device/Target/usbd_conf.c ****   /* USER CODE BEGIN HAL_PCD_DisconnectCallback_PostTreatment */
 697              		.loc 1 389 3 is_stmt 0 view .LVU142
 698 0006 FFF7FEFF 		bl	USBD_LL_DevDisconnected
 699              	.LVL64:
 393:USB_Device/Target/usbd_conf.c **** 
 700              		.loc 1 393 1 view .LVU143
 701 000a 08BD     		pop	{r3, pc}
 702              		.cfi_endproc
 703              	.LFE1428:
 705              		.section	.text.USBD_LL_Init,"ax",%progbits
 706              		.align	1
 707              		.global	USBD_LL_Init
 708              		.syntax unified
 709              		.thumb
 710              		.thumb_func
 712              	USBD_LL_Init:
 713              	.LVL65:
 714              	.LFB1429:
 409:USB_Device/Target/usbd_conf.c ****   /* Init USB Ip. */
 715              		.loc 1 409 1 is_stmt 1 view -0
 716              		.cfi_startproc
 717              		@ args = 0, pretend = 0, frame = 0
 718              		@ frame_needed = 0, uses_anonymous_args = 0
 409:USB_Device/Target/usbd_conf.c ****   /* Init USB Ip. */
 719              		.loc 1 409 1 is_stmt 0 view .LVU145
 720 0000 38B5     		push	{r3, r4, r5, lr}
 721              		.cfi_def_cfa_offset 16
 722              		.cfi_offset 3, -16
 723              		.cfi_offset 4, -12
 724              		.cfi_offset 5, -8
 725              		.cfi_offset 14, -4
 726 0002 0546     		mov	r5, r0
 411:USB_Device/Target/usbd_conf.c ****   /* Link the driver to the stack. */
 727              		.loc 1 411 3 is_stmt 1 view .LVU146
 411:USB_Device/Target/usbd_conf.c ****   /* Link the driver to the stack. */
 728              		.loc 1 411 21 is_stmt 0 view .LVU147
 729 0004 204C     		ldr	r4, .L57
 730 0006 C4F8D802 		str	r0, [r4, #728]
 413:USB_Device/Target/usbd_conf.c **** /* Enable USB power on Pwrctrl CR2 register. */
 731              		.loc 1 413 3 is_stmt 1 view .LVU148
 413:USB_Device/Target/usbd_conf.c **** /* Enable USB power on Pwrctrl CR2 register. */
 732              		.loc 1 413 15 is_stmt 0 view .LVU149
 733 000a C0F8C842 		str	r4, [r0, #712]
ARM GAS  C:\Users\Nathan\AppData\Local\Temp\ccVQw5Zk.s 			page 48


 415:USB_Device/Target/usbd_conf.c **** 
 734              		.loc 1 415 3 is_stmt 1 view .LVU150
 735 000e FFF7FEFF 		bl	HAL_PWREx_EnableVddUSB
 736              	.LVL66:
 417:USB_Device/Target/usbd_conf.c ****   hpcd_USB_FS.Init.dev_endpoints = 8;
 737              		.loc 1 417 3 view .LVU151
 417:USB_Device/Target/usbd_conf.c ****   hpcd_USB_FS.Init.dev_endpoints = 8;
 738              		.loc 1 417 24 is_stmt 0 view .LVU152
 739 0012 1E4B     		ldr	r3, .L57+4
 740 0014 2360     		str	r3, [r4]
 418:USB_Device/Target/usbd_conf.c ****   hpcd_USB_FS.Init.speed = PCD_SPEED_FULL;
 741              		.loc 1 418 3 is_stmt 1 view .LVU153
 418:USB_Device/Target/usbd_conf.c ****   hpcd_USB_FS.Init.speed = PCD_SPEED_FULL;
 742              		.loc 1 418 34 is_stmt 0 view .LVU154
 743 0016 0823     		movs	r3, #8
 744 0018 2371     		strb	r3, [r4, #4]
 419:USB_Device/Target/usbd_conf.c ****   hpcd_USB_FS.Init.phy_itface = PCD_PHY_EMBEDDED;
 745              		.loc 1 419 3 is_stmt 1 view .LVU155
 419:USB_Device/Target/usbd_conf.c ****   hpcd_USB_FS.Init.phy_itface = PCD_PHY_EMBEDDED;
 746              		.loc 1 419 26 is_stmt 0 view .LVU156
 747 001a 0223     		movs	r3, #2
 748 001c 6371     		strb	r3, [r4, #5]
 420:USB_Device/Target/usbd_conf.c ****   hpcd_USB_FS.Init.Sof_enable = DISABLE;
 749              		.loc 1 420 3 is_stmt 1 view .LVU157
 420:USB_Device/Target/usbd_conf.c ****   hpcd_USB_FS.Init.Sof_enable = DISABLE;
 750              		.loc 1 420 31 is_stmt 0 view .LVU158
 751 001e E371     		strb	r3, [r4, #7]
 421:USB_Device/Target/usbd_conf.c ****   hpcd_USB_FS.Init.low_power_enable = DISABLE;
 752              		.loc 1 421 3 is_stmt 1 view .LVU159
 421:USB_Device/Target/usbd_conf.c ****   hpcd_USB_FS.Init.low_power_enable = DISABLE;
 753              		.loc 1 421 31 is_stmt 0 view .LVU160
 754 0020 0023     		movs	r3, #0
 755 0022 2372     		strb	r3, [r4, #8]
 422:USB_Device/Target/usbd_conf.c ****   hpcd_USB_FS.Init.lpm_enable = DISABLE;
 756              		.loc 1 422 3 is_stmt 1 view .LVU161
 422:USB_Device/Target/usbd_conf.c ****   hpcd_USB_FS.Init.lpm_enable = DISABLE;
 757              		.loc 1 422 37 is_stmt 0 view .LVU162
 758 0024 6372     		strb	r3, [r4, #9]
 423:USB_Device/Target/usbd_conf.c ****   hpcd_USB_FS.Init.battery_charging_enable = DISABLE;
 759              		.loc 1 423 3 is_stmt 1 view .LVU163
 423:USB_Device/Target/usbd_conf.c ****   hpcd_USB_FS.Init.battery_charging_enable = DISABLE;
 760              		.loc 1 423 31 is_stmt 0 view .LVU164
 761 0026 A372     		strb	r3, [r4, #10]
 424:USB_Device/Target/usbd_conf.c **** 
 762              		.loc 1 424 3 is_stmt 1 view .LVU165
 424:USB_Device/Target/usbd_conf.c **** 
 763              		.loc 1 424 44 is_stmt 0 view .LVU166
 764 0028 E372     		strb	r3, [r4, #11]
 432:USB_Device/Target/usbd_conf.c ****   {
 765              		.loc 1 432 3 is_stmt 1 view .LVU167
 432:USB_Device/Target/usbd_conf.c ****   {
 766              		.loc 1 432 7 is_stmt 0 view .LVU168
 767 002a 2046     		mov	r0, r4
 768 002c FFF7FEFF 		bl	HAL_PCD_Init
 769              	.LVL67:
 432:USB_Device/Target/usbd_conf.c ****   {
 770              		.loc 1 432 6 discriminator 1 view .LVU169
ARM GAS  C:\Users\Nathan\AppData\Local\Temp\ccVQw5Zk.s 			page 49


 771 0030 30BB     		cbnz	r0, .L56
 772              	.L54:
 459:USB_Device/Target/usbd_conf.c ****   HAL_PCDEx_PMAConfig((PCD_HandleTypeDef*)pdev->pData , 0x80 , PCD_SNG_BUF, 0x58);
 773              		.loc 1 459 3 is_stmt 1 view .LVU170
 774 0032 1823     		movs	r3, #24
 775 0034 0022     		movs	r2, #0
 776 0036 1146     		mov	r1, r2
 777 0038 D5F8C802 		ldr	r0, [r5, #712]
 778 003c FFF7FEFF 		bl	HAL_PCDEx_PMAConfig
 779              	.LVL68:
 460:USB_Device/Target/usbd_conf.c ****   /* USER CODE END EndPoint_Configuration */
 780              		.loc 1 460 3 view .LVU171
 781 0040 5823     		movs	r3, #88
 782 0042 0022     		movs	r2, #0
 783 0044 8021     		movs	r1, #128
 784 0046 D5F8C802 		ldr	r0, [r5, #712]
 785 004a FFF7FEFF 		bl	HAL_PCDEx_PMAConfig
 786              	.LVL69:
 463:USB_Device/Target/usbd_conf.c ****   HAL_PCDEx_PMAConfig((PCD_HandleTypeDef*)pdev->pData , 0x01 , PCD_SNG_BUF, 0x110);
 787              		.loc 1 463 3 view .LVU172
 788 004e C023     		movs	r3, #192
 789 0050 0022     		movs	r2, #0
 790 0052 8121     		movs	r1, #129
 791 0054 D5F8C802 		ldr	r0, [r5, #712]
 792 0058 FFF7FEFF 		bl	HAL_PCDEx_PMAConfig
 793              	.LVL70:
 464:USB_Device/Target/usbd_conf.c ****   HAL_PCDEx_PMAConfig((PCD_HandleTypeDef*)pdev->pData , 0x82 , PCD_SNG_BUF, 0x100);
 794              		.loc 1 464 3 view .LVU173
 795 005c 4FF48873 		mov	r3, #272
 796 0060 0022     		movs	r2, #0
 797 0062 0121     		movs	r1, #1
 798 0064 D5F8C802 		ldr	r0, [r5, #712]
 799 0068 FFF7FEFF 		bl	HAL_PCDEx_PMAConfig
 800              	.LVL71:
 465:USB_Device/Target/usbd_conf.c ****   /* USER CODE END EndPoint_Configuration_CDC */
 801              		.loc 1 465 3 view .LVU174
 802 006c 4FF48073 		mov	r3, #256
 803 0070 0022     		movs	r2, #0
 804 0072 8221     		movs	r1, #130
 805 0074 D5F8C802 		ldr	r0, [r5, #712]
 806 0078 FFF7FEFF 		bl	HAL_PCDEx_PMAConfig
 807              	.LVL72:
 467:USB_Device/Target/usbd_conf.c **** }
 808              		.loc 1 467 3 view .LVU175
 468:USB_Device/Target/usbd_conf.c **** 
 809              		.loc 1 468 1 is_stmt 0 view .LVU176
 810 007c 0020     		movs	r0, #0
 811 007e 38BD     		pop	{r3, r4, r5, pc}
 812              	.LVL73:
 813              	.L56:
 434:USB_Device/Target/usbd_conf.c ****   }
 814              		.loc 1 434 5 is_stmt 1 view .LVU177
 815 0080 FFF7FEFF 		bl	Error_Handler
 816              	.LVL74:
 817 0084 D5E7     		b	.L54
 818              	.L58:
 819 0086 00BF     		.align	2
ARM GAS  C:\Users\Nathan\AppData\Local\Temp\ccVQw5Zk.s 			page 50


 820              	.L57:
 821 0088 00000000 		.word	hpcd_USB_FS
 822 008c 00680040 		.word	1073768448
 823              		.cfi_endproc
 824              	.LFE1429:
 826              		.section	.text.USBD_LL_DeInit,"ax",%progbits
 827              		.align	1
 828              		.global	USBD_LL_DeInit
 829              		.syntax unified
 830              		.thumb
 831              		.thumb_func
 833              	USBD_LL_DeInit:
 834              	.LVL75:
 835              	.LFB1430:
 476:USB_Device/Target/usbd_conf.c ****   HAL_StatusTypeDef hal_status = HAL_OK;
 836              		.loc 1 476 1 view -0
 837              		.cfi_startproc
 838              		@ args = 0, pretend = 0, frame = 0
 839              		@ frame_needed = 0, uses_anonymous_args = 0
 476:USB_Device/Target/usbd_conf.c ****   HAL_StatusTypeDef hal_status = HAL_OK;
 840              		.loc 1 476 1 is_stmt 0 view .LVU179
 841 0000 08B5     		push	{r3, lr}
 842              		.cfi_def_cfa_offset 8
 843              		.cfi_offset 3, -8
 844              		.cfi_offset 14, -4
 477:USB_Device/Target/usbd_conf.c ****   USBD_StatusTypeDef usb_status = USBD_OK;
 845              		.loc 1 477 3 is_stmt 1 view .LVU180
 846              	.LVL76:
 478:USB_Device/Target/usbd_conf.c **** 
 847              		.loc 1 478 3 view .LVU181
 480:USB_Device/Target/usbd_conf.c **** 
 848              		.loc 1 480 3 view .LVU182
 480:USB_Device/Target/usbd_conf.c **** 
 849              		.loc 1 480 16 is_stmt 0 view .LVU183
 850 0002 D0F8C802 		ldr	r0, [r0, #712]
 851              	.LVL77:
 480:USB_Device/Target/usbd_conf.c **** 
 852              		.loc 1 480 16 view .LVU184
 853 0006 FFF7FEFF 		bl	HAL_PCD_DeInit
 854              	.LVL78:
 482:USB_Device/Target/usbd_conf.c **** 
 855              		.loc 1 482 3 is_stmt 1 view .LVU185
 482:USB_Device/Target/usbd_conf.c **** 
 856              		.loc 1 482 17 is_stmt 0 view .LVU186
 857 000a FFF7FEFF 		bl	USBD_Get_USB_Status
 858              	.LVL79:
 484:USB_Device/Target/usbd_conf.c **** }
 859              		.loc 1 484 3 is_stmt 1 view .LVU187
 485:USB_Device/Target/usbd_conf.c **** 
 860              		.loc 1 485 1 is_stmt 0 view .LVU188
 861 000e 08BD     		pop	{r3, pc}
 862              		.cfi_endproc
 863              	.LFE1430:
 865              		.section	.text.USBD_LL_Start,"ax",%progbits
 866              		.align	1
 867              		.global	USBD_LL_Start
 868              		.syntax unified
ARM GAS  C:\Users\Nathan\AppData\Local\Temp\ccVQw5Zk.s 			page 51


 869              		.thumb
 870              		.thumb_func
 872              	USBD_LL_Start:
 873              	.LVL80:
 874              	.LFB1431:
 493:USB_Device/Target/usbd_conf.c ****   HAL_StatusTypeDef hal_status = HAL_OK;
 875              		.loc 1 493 1 is_stmt 1 view -0
 876              		.cfi_startproc
 877              		@ args = 0, pretend = 0, frame = 0
 878              		@ frame_needed = 0, uses_anonymous_args = 0
 493:USB_Device/Target/usbd_conf.c ****   HAL_StatusTypeDef hal_status = HAL_OK;
 879              		.loc 1 493 1 is_stmt 0 view .LVU190
 880 0000 08B5     		push	{r3, lr}
 881              		.cfi_def_cfa_offset 8
 882              		.cfi_offset 3, -8
 883              		.cfi_offset 14, -4
 494:USB_Device/Target/usbd_conf.c ****   USBD_StatusTypeDef usb_status = USBD_OK;
 884              		.loc 1 494 3 is_stmt 1 view .LVU191
 885              	.LVL81:
 495:USB_Device/Target/usbd_conf.c **** 
 886              		.loc 1 495 3 view .LVU192
 497:USB_Device/Target/usbd_conf.c **** 
 887              		.loc 1 497 3 view .LVU193
 497:USB_Device/Target/usbd_conf.c **** 
 888              		.loc 1 497 16 is_stmt 0 view .LVU194
 889 0002 D0F8C802 		ldr	r0, [r0, #712]
 890              	.LVL82:
 497:USB_Device/Target/usbd_conf.c **** 
 891              		.loc 1 497 16 view .LVU195
 892 0006 FFF7FEFF 		bl	HAL_PCD_Start
 893              	.LVL83:
 499:USB_Device/Target/usbd_conf.c **** 
 894              		.loc 1 499 3 is_stmt 1 view .LVU196
 499:USB_Device/Target/usbd_conf.c **** 
 895              		.loc 1 499 17 is_stmt 0 view .LVU197
 896 000a FFF7FEFF 		bl	USBD_Get_USB_Status
 897              	.LVL84:
 501:USB_Device/Target/usbd_conf.c **** }
 898              		.loc 1 501 3 is_stmt 1 view .LVU198
 502:USB_Device/Target/usbd_conf.c **** 
 899              		.loc 1 502 1 is_stmt 0 view .LVU199
 900 000e 08BD     		pop	{r3, pc}
 901              		.cfi_endproc
 902              	.LFE1431:
 904              		.section	.text.USBD_LL_Stop,"ax",%progbits
 905              		.align	1
 906              		.global	USBD_LL_Stop
 907              		.syntax unified
 908              		.thumb
 909              		.thumb_func
 911              	USBD_LL_Stop:
 912              	.LVL85:
 913              	.LFB1432:
 510:USB_Device/Target/usbd_conf.c ****   HAL_StatusTypeDef hal_status = HAL_OK;
 914              		.loc 1 510 1 is_stmt 1 view -0
 915              		.cfi_startproc
 916              		@ args = 0, pretend = 0, frame = 0
ARM GAS  C:\Users\Nathan\AppData\Local\Temp\ccVQw5Zk.s 			page 52


 917              		@ frame_needed = 0, uses_anonymous_args = 0
 510:USB_Device/Target/usbd_conf.c ****   HAL_StatusTypeDef hal_status = HAL_OK;
 918              		.loc 1 510 1 is_stmt 0 view .LVU201
 919 0000 08B5     		push	{r3, lr}
 920              		.cfi_def_cfa_offset 8
 921              		.cfi_offset 3, -8
 922              		.cfi_offset 14, -4
 511:USB_Device/Target/usbd_conf.c ****   USBD_StatusTypeDef usb_status = USBD_OK;
 923              		.loc 1 511 3 is_stmt 1 view .LVU202
 924              	.LVL86:
 512:USB_Device/Target/usbd_conf.c **** 
 925              		.loc 1 512 3 view .LVU203
 514:USB_Device/Target/usbd_conf.c **** 
 926              		.loc 1 514 3 view .LVU204
 514:USB_Device/Target/usbd_conf.c **** 
 927              		.loc 1 514 16 is_stmt 0 view .LVU205
 928 0002 D0F8C802 		ldr	r0, [r0, #712]
 929              	.LVL87:
 514:USB_Device/Target/usbd_conf.c **** 
 930              		.loc 1 514 16 view .LVU206
 931 0006 FFF7FEFF 		bl	HAL_PCD_Stop
 932              	.LVL88:
 516:USB_Device/Target/usbd_conf.c **** 
 933              		.loc 1 516 3 is_stmt 1 view .LVU207
 516:USB_Device/Target/usbd_conf.c **** 
 934              		.loc 1 516 17 is_stmt 0 view .LVU208
 935 000a FFF7FEFF 		bl	USBD_Get_USB_Status
 936              	.LVL89:
 518:USB_Device/Target/usbd_conf.c **** }
 937              		.loc 1 518 3 is_stmt 1 view .LVU209
 519:USB_Device/Target/usbd_conf.c **** 
 938              		.loc 1 519 1 is_stmt 0 view .LVU210
 939 000e 08BD     		pop	{r3, pc}
 940              		.cfi_endproc
 941              	.LFE1432:
 943              		.section	.text.USBD_LL_OpenEP,"ax",%progbits
 944              		.align	1
 945              		.global	USBD_LL_OpenEP
 946              		.syntax unified
 947              		.thumb
 948              		.thumb_func
 950              	USBD_LL_OpenEP:
 951              	.LVL90:
 952              	.LFB1433:
 530:USB_Device/Target/usbd_conf.c ****   HAL_StatusTypeDef hal_status = HAL_OK;
 953              		.loc 1 530 1 is_stmt 1 view -0
 954              		.cfi_startproc
 955              		@ args = 0, pretend = 0, frame = 0
 956              		@ frame_needed = 0, uses_anonymous_args = 0
 530:USB_Device/Target/usbd_conf.c ****   HAL_StatusTypeDef hal_status = HAL_OK;
 957              		.loc 1 530 1 is_stmt 0 view .LVU212
 958 0000 08B5     		push	{r3, lr}
 959              		.cfi_def_cfa_offset 8
 960              		.cfi_offset 3, -8
 961              		.cfi_offset 14, -4
 962 0002 9446     		mov	ip, r2
 963 0004 1A46     		mov	r2, r3
ARM GAS  C:\Users\Nathan\AppData\Local\Temp\ccVQw5Zk.s 			page 53


 964              	.LVL91:
 531:USB_Device/Target/usbd_conf.c ****   USBD_StatusTypeDef usb_status = USBD_OK;
 965              		.loc 1 531 3 is_stmt 1 view .LVU213
 532:USB_Device/Target/usbd_conf.c **** 
 966              		.loc 1 532 3 view .LVU214
 534:USB_Device/Target/usbd_conf.c **** 
 967              		.loc 1 534 3 view .LVU215
 534:USB_Device/Target/usbd_conf.c **** 
 968              		.loc 1 534 16 is_stmt 0 view .LVU216
 969 0006 6346     		mov	r3, ip
 970              	.LVL92:
 534:USB_Device/Target/usbd_conf.c **** 
 971              		.loc 1 534 16 view .LVU217
 972 0008 D0F8C802 		ldr	r0, [r0, #712]
 973              	.LVL93:
 534:USB_Device/Target/usbd_conf.c **** 
 974              		.loc 1 534 16 view .LVU218
 975 000c FFF7FEFF 		bl	HAL_PCD_EP_Open
 976              	.LVL94:
 536:USB_Device/Target/usbd_conf.c **** 
 977              		.loc 1 536 3 is_stmt 1 view .LVU219
 536:USB_Device/Target/usbd_conf.c **** 
 978              		.loc 1 536 17 is_stmt 0 view .LVU220
 979 0010 FFF7FEFF 		bl	USBD_Get_USB_Status
 980              	.LVL95:
 538:USB_Device/Target/usbd_conf.c **** }
 981              		.loc 1 538 3 is_stmt 1 view .LVU221
 539:USB_Device/Target/usbd_conf.c **** 
 982              		.loc 1 539 1 is_stmt 0 view .LVU222
 983 0014 08BD     		pop	{r3, pc}
 984              		.cfi_endproc
 985              	.LFE1433:
 987              		.section	.text.USBD_LL_CloseEP,"ax",%progbits
 988              		.align	1
 989              		.global	USBD_LL_CloseEP
 990              		.syntax unified
 991              		.thumb
 992              		.thumb_func
 994              	USBD_LL_CloseEP:
 995              	.LVL96:
 996              	.LFB1434:
 548:USB_Device/Target/usbd_conf.c ****   HAL_StatusTypeDef hal_status = HAL_OK;
 997              		.loc 1 548 1 is_stmt 1 view -0
 998              		.cfi_startproc
 999              		@ args = 0, pretend = 0, frame = 0
 1000              		@ frame_needed = 0, uses_anonymous_args = 0
 548:USB_Device/Target/usbd_conf.c ****   HAL_StatusTypeDef hal_status = HAL_OK;
 1001              		.loc 1 548 1 is_stmt 0 view .LVU224
 1002 0000 08B5     		push	{r3, lr}
 1003              		.cfi_def_cfa_offset 8
 1004              		.cfi_offset 3, -8
 1005              		.cfi_offset 14, -4
 549:USB_Device/Target/usbd_conf.c ****   USBD_StatusTypeDef usb_status = USBD_OK;
 1006              		.loc 1 549 3 is_stmt 1 view .LVU225
 1007              	.LVL97:
 550:USB_Device/Target/usbd_conf.c **** 
 1008              		.loc 1 550 3 view .LVU226
ARM GAS  C:\Users\Nathan\AppData\Local\Temp\ccVQw5Zk.s 			page 54


 552:USB_Device/Target/usbd_conf.c **** 
 1009              		.loc 1 552 3 view .LVU227
 552:USB_Device/Target/usbd_conf.c **** 
 1010              		.loc 1 552 16 is_stmt 0 view .LVU228
 1011 0002 D0F8C802 		ldr	r0, [r0, #712]
 1012              	.LVL98:
 552:USB_Device/Target/usbd_conf.c **** 
 1013              		.loc 1 552 16 view .LVU229
 1014 0006 FFF7FEFF 		bl	HAL_PCD_EP_Close
 1015              	.LVL99:
 554:USB_Device/Target/usbd_conf.c **** 
 1016              		.loc 1 554 3 is_stmt 1 view .LVU230
 554:USB_Device/Target/usbd_conf.c **** 
 1017              		.loc 1 554 17 is_stmt 0 view .LVU231
 1018 000a FFF7FEFF 		bl	USBD_Get_USB_Status
 1019              	.LVL100:
 556:USB_Device/Target/usbd_conf.c **** }
 1020              		.loc 1 556 3 is_stmt 1 view .LVU232
 557:USB_Device/Target/usbd_conf.c **** 
 1021              		.loc 1 557 1 is_stmt 0 view .LVU233
 1022 000e 08BD     		pop	{r3, pc}
 1023              		.cfi_endproc
 1024              	.LFE1434:
 1026              		.section	.text.USBD_LL_FlushEP,"ax",%progbits
 1027              		.align	1
 1028              		.global	USBD_LL_FlushEP
 1029              		.syntax unified
 1030              		.thumb
 1031              		.thumb_func
 1033              	USBD_LL_FlushEP:
 1034              	.LVL101:
 1035              	.LFB1435:
 566:USB_Device/Target/usbd_conf.c ****   HAL_StatusTypeDef hal_status = HAL_OK;
 1036              		.loc 1 566 1 is_stmt 1 view -0
 1037              		.cfi_startproc
 1038              		@ args = 0, pretend = 0, frame = 0
 1039              		@ frame_needed = 0, uses_anonymous_args = 0
 566:USB_Device/Target/usbd_conf.c ****   HAL_StatusTypeDef hal_status = HAL_OK;
 1040              		.loc 1 566 1 is_stmt 0 view .LVU235
 1041 0000 08B5     		push	{r3, lr}
 1042              		.cfi_def_cfa_offset 8
 1043              		.cfi_offset 3, -8
 1044              		.cfi_offset 14, -4
 567:USB_Device/Target/usbd_conf.c ****   USBD_StatusTypeDef usb_status = USBD_OK;
 1045              		.loc 1 567 3 is_stmt 1 view .LVU236
 1046              	.LVL102:
 568:USB_Device/Target/usbd_conf.c **** 
 1047              		.loc 1 568 3 view .LVU237
 570:USB_Device/Target/usbd_conf.c **** 
 1048              		.loc 1 570 3 view .LVU238
 570:USB_Device/Target/usbd_conf.c **** 
 1049              		.loc 1 570 16 is_stmt 0 view .LVU239
 1050 0002 D0F8C802 		ldr	r0, [r0, #712]
 1051              	.LVL103:
 570:USB_Device/Target/usbd_conf.c **** 
 1052              		.loc 1 570 16 view .LVU240
 1053 0006 FFF7FEFF 		bl	HAL_PCD_EP_Flush
ARM GAS  C:\Users\Nathan\AppData\Local\Temp\ccVQw5Zk.s 			page 55


 1054              	.LVL104:
 572:USB_Device/Target/usbd_conf.c **** 
 1055              		.loc 1 572 3 is_stmt 1 view .LVU241
 572:USB_Device/Target/usbd_conf.c **** 
 1056              		.loc 1 572 17 is_stmt 0 view .LVU242
 1057 000a FFF7FEFF 		bl	USBD_Get_USB_Status
 1058              	.LVL105:
 574:USB_Device/Target/usbd_conf.c **** }
 1059              		.loc 1 574 3 is_stmt 1 view .LVU243
 575:USB_Device/Target/usbd_conf.c **** 
 1060              		.loc 1 575 1 is_stmt 0 view .LVU244
 1061 000e 08BD     		pop	{r3, pc}
 1062              		.cfi_endproc
 1063              	.LFE1435:
 1065              		.section	.text.USBD_LL_StallEP,"ax",%progbits
 1066              		.align	1
 1067              		.global	USBD_LL_StallEP
 1068              		.syntax unified
 1069              		.thumb
 1070              		.thumb_func
 1072              	USBD_LL_StallEP:
 1073              	.LVL106:
 1074              	.LFB1436:
 584:USB_Device/Target/usbd_conf.c ****   HAL_StatusTypeDef hal_status = HAL_OK;
 1075              		.loc 1 584 1 is_stmt 1 view -0
 1076              		.cfi_startproc
 1077              		@ args = 0, pretend = 0, frame = 0
 1078              		@ frame_needed = 0, uses_anonymous_args = 0
 584:USB_Device/Target/usbd_conf.c ****   HAL_StatusTypeDef hal_status = HAL_OK;
 1079              		.loc 1 584 1 is_stmt 0 view .LVU246
 1080 0000 08B5     		push	{r3, lr}
 1081              		.cfi_def_cfa_offset 8
 1082              		.cfi_offset 3, -8
 1083              		.cfi_offset 14, -4
 585:USB_Device/Target/usbd_conf.c ****   USBD_StatusTypeDef usb_status = USBD_OK;
 1084              		.loc 1 585 3 is_stmt 1 view .LVU247
 1085              	.LVL107:
 586:USB_Device/Target/usbd_conf.c **** 
 1086              		.loc 1 586 3 view .LVU248
 588:USB_Device/Target/usbd_conf.c **** 
 1087              		.loc 1 588 3 view .LVU249
 588:USB_Device/Target/usbd_conf.c **** 
 1088              		.loc 1 588 16 is_stmt 0 view .LVU250
 1089 0002 D0F8C802 		ldr	r0, [r0, #712]
 1090              	.LVL108:
 588:USB_Device/Target/usbd_conf.c **** 
 1091              		.loc 1 588 16 view .LVU251
 1092 0006 FFF7FEFF 		bl	HAL_PCD_EP_SetStall
 1093              	.LVL109:
 590:USB_Device/Target/usbd_conf.c **** 
 1094              		.loc 1 590 3 is_stmt 1 view .LVU252
 590:USB_Device/Target/usbd_conf.c **** 
 1095              		.loc 1 590 17 is_stmt 0 view .LVU253
 1096 000a FFF7FEFF 		bl	USBD_Get_USB_Status
 1097              	.LVL110:
 592:USB_Device/Target/usbd_conf.c **** }
 1098              		.loc 1 592 3 is_stmt 1 view .LVU254
ARM GAS  C:\Users\Nathan\AppData\Local\Temp\ccVQw5Zk.s 			page 56


 593:USB_Device/Target/usbd_conf.c **** 
 1099              		.loc 1 593 1 is_stmt 0 view .LVU255
 1100 000e 08BD     		pop	{r3, pc}
 1101              		.cfi_endproc
 1102              	.LFE1436:
 1104              		.section	.text.USBD_LL_ClearStallEP,"ax",%progbits
 1105              		.align	1
 1106              		.global	USBD_LL_ClearStallEP
 1107              		.syntax unified
 1108              		.thumb
 1109              		.thumb_func
 1111              	USBD_LL_ClearStallEP:
 1112              	.LVL111:
 1113              	.LFB1437:
 602:USB_Device/Target/usbd_conf.c ****   HAL_StatusTypeDef hal_status = HAL_OK;
 1114              		.loc 1 602 1 is_stmt 1 view -0
 1115              		.cfi_startproc
 1116              		@ args = 0, pretend = 0, frame = 0
 1117              		@ frame_needed = 0, uses_anonymous_args = 0
 602:USB_Device/Target/usbd_conf.c ****   HAL_StatusTypeDef hal_status = HAL_OK;
 1118              		.loc 1 602 1 is_stmt 0 view .LVU257
 1119 0000 08B5     		push	{r3, lr}
 1120              		.cfi_def_cfa_offset 8
 1121              		.cfi_offset 3, -8
 1122              		.cfi_offset 14, -4
 603:USB_Device/Target/usbd_conf.c ****   USBD_StatusTypeDef usb_status = USBD_OK;
 1123              		.loc 1 603 3 is_stmt 1 view .LVU258
 1124              	.LVL112:
 604:USB_Device/Target/usbd_conf.c **** 
 1125              		.loc 1 604 3 view .LVU259
 606:USB_Device/Target/usbd_conf.c **** 
 1126              		.loc 1 606 3 view .LVU260
 606:USB_Device/Target/usbd_conf.c **** 
 1127              		.loc 1 606 16 is_stmt 0 view .LVU261
 1128 0002 D0F8C802 		ldr	r0, [r0, #712]
 1129              	.LVL113:
 606:USB_Device/Target/usbd_conf.c **** 
 1130              		.loc 1 606 16 view .LVU262
 1131 0006 FFF7FEFF 		bl	HAL_PCD_EP_ClrStall
 1132              	.LVL114:
 608:USB_Device/Target/usbd_conf.c **** 
 1133              		.loc 1 608 3 is_stmt 1 view .LVU263
 608:USB_Device/Target/usbd_conf.c **** 
 1134              		.loc 1 608 17 is_stmt 0 view .LVU264
 1135 000a FFF7FEFF 		bl	USBD_Get_USB_Status
 1136              	.LVL115:
 610:USB_Device/Target/usbd_conf.c **** }
 1137              		.loc 1 610 3 is_stmt 1 view .LVU265
 611:USB_Device/Target/usbd_conf.c **** 
 1138              		.loc 1 611 1 is_stmt 0 view .LVU266
 1139 000e 08BD     		pop	{r3, pc}
 1140              		.cfi_endproc
 1141              	.LFE1437:
 1143              		.section	.text.USBD_LL_IsStallEP,"ax",%progbits
 1144              		.align	1
 1145              		.global	USBD_LL_IsStallEP
 1146              		.syntax unified
ARM GAS  C:\Users\Nathan\AppData\Local\Temp\ccVQw5Zk.s 			page 57


 1147              		.thumb
 1148              		.thumb_func
 1150              	USBD_LL_IsStallEP:
 1151              	.LVL116:
 1152              	.LFB1438:
 620:USB_Device/Target/usbd_conf.c ****   PCD_HandleTypeDef *hpcd = (PCD_HandleTypeDef*) pdev->pData;
 1153              		.loc 1 620 1 is_stmt 1 view -0
 1154              		.cfi_startproc
 1155              		@ args = 0, pretend = 0, frame = 0
 1156              		@ frame_needed = 0, uses_anonymous_args = 0
 1157              		@ link register save eliminated.
 621:USB_Device/Target/usbd_conf.c **** 
 1158              		.loc 1 621 3 view .LVU268
 621:USB_Device/Target/usbd_conf.c **** 
 1159              		.loc 1 621 22 is_stmt 0 view .LVU269
 1160 0000 D0F8C832 		ldr	r3, [r0, #712]
 1161              	.LVL117:
 623:USB_Device/Target/usbd_conf.c ****   {
 1162              		.loc 1 623 3 is_stmt 1 view .LVU270
 623:USB_Device/Target/usbd_conf.c ****   {
 1163              		.loc 1 623 5 is_stmt 0 view .LVU271
 1164 0004 11F0800F 		tst	r1, #128
 1165 0008 08D1     		bne	.L78
 629:USB_Device/Target/usbd_conf.c ****   }
 1166              		.loc 1 629 5 is_stmt 1 view .LVU272
 629:USB_Device/Target/usbd_conf.c ****   }
 1167              		.loc 1 629 33 is_stmt 0 view .LVU273
 1168 000a 01F07F01 		and	r1, r1, #127
 1169              	.LVL118:
 629:USB_Device/Target/usbd_conf.c ****   }
 1170              		.loc 1 629 40 view .LVU274
 1171 000e 01EB8101 		add	r1, r1, r1, lsl #2
 1172 0012 03EBC103 		add	r3, r3, r1, lsl #3
 1173              	.LVL119:
 629:USB_Device/Target/usbd_conf.c ****   }
 1174              		.loc 1 629 40 view .LVU275
 1175 0016 93F85201 		ldrb	r0, [r3, #338]	@ zero_extendqisi2
 1176              	.LVL120:
 631:USB_Device/Target/usbd_conf.c **** 
 1177              		.loc 1 631 1 view .LVU276
 1178 001a 7047     		bx	lr
 1179              	.LVL121:
 1180              	.L78:
 625:USB_Device/Target/usbd_conf.c ****   }
 1181              		.loc 1 625 5 is_stmt 1 view .LVU277
 625:USB_Device/Target/usbd_conf.c ****   }
 1182              		.loc 1 625 32 is_stmt 0 view .LVU278
 1183 001c 01F07F01 		and	r1, r1, #127
 1184              	.LVL122:
 625:USB_Device/Target/usbd_conf.c ****   }
 1185              		.loc 1 625 39 view .LVU279
 1186 0020 01EB8101 		add	r1, r1, r1, lsl #2
 1187 0024 03EBC103 		add	r3, r3, r1, lsl #3
 1188              	.LVL123:
 625:USB_Device/Target/usbd_conf.c ****   }
 1189              		.loc 1 625 39 view .LVU280
 1190 0028 987C     		ldrb	r0, [r3, #18]	@ zero_extendqisi2
ARM GAS  C:\Users\Nathan\AppData\Local\Temp\ccVQw5Zk.s 			page 58


 1191              	.LVL124:
 625:USB_Device/Target/usbd_conf.c ****   }
 1192              		.loc 1 625 39 view .LVU281
 1193 002a 7047     		bx	lr
 1194              		.cfi_endproc
 1195              	.LFE1438:
 1197              		.section	.text.USBD_LL_SetUSBAddress,"ax",%progbits
 1198              		.align	1
 1199              		.global	USBD_LL_SetUSBAddress
 1200              		.syntax unified
 1201              		.thumb
 1202              		.thumb_func
 1204              	USBD_LL_SetUSBAddress:
 1205              	.LVL125:
 1206              	.LFB1439:
 640:USB_Device/Target/usbd_conf.c ****   HAL_StatusTypeDef hal_status = HAL_OK;
 1207              		.loc 1 640 1 is_stmt 1 view -0
 1208              		.cfi_startproc
 1209              		@ args = 0, pretend = 0, frame = 0
 1210              		@ frame_needed = 0, uses_anonymous_args = 0
 640:USB_Device/Target/usbd_conf.c ****   HAL_StatusTypeDef hal_status = HAL_OK;
 1211              		.loc 1 640 1 is_stmt 0 view .LVU283
 1212 0000 08B5     		push	{r3, lr}
 1213              		.cfi_def_cfa_offset 8
 1214              		.cfi_offset 3, -8
 1215              		.cfi_offset 14, -4
 641:USB_Device/Target/usbd_conf.c ****   USBD_StatusTypeDef usb_status = USBD_OK;
 1216              		.loc 1 641 3 is_stmt 1 view .LVU284
 1217              	.LVL126:
 642:USB_Device/Target/usbd_conf.c **** 
 1218              		.loc 1 642 3 view .LVU285
 644:USB_Device/Target/usbd_conf.c **** 
 1219              		.loc 1 644 3 view .LVU286
 644:USB_Device/Target/usbd_conf.c **** 
 1220              		.loc 1 644 16 is_stmt 0 view .LVU287
 1221 0002 D0F8C802 		ldr	r0, [r0, #712]
 1222              	.LVL127:
 644:USB_Device/Target/usbd_conf.c **** 
 1223              		.loc 1 644 16 view .LVU288
 1224 0006 FFF7FEFF 		bl	HAL_PCD_SetAddress
 1225              	.LVL128:
 646:USB_Device/Target/usbd_conf.c **** 
 1226              		.loc 1 646 3 is_stmt 1 view .LVU289
 646:USB_Device/Target/usbd_conf.c **** 
 1227              		.loc 1 646 17 is_stmt 0 view .LVU290
 1228 000a FFF7FEFF 		bl	USBD_Get_USB_Status
 1229              	.LVL129:
 648:USB_Device/Target/usbd_conf.c **** }
 1230              		.loc 1 648 3 is_stmt 1 view .LVU291
 649:USB_Device/Target/usbd_conf.c **** 
 1231              		.loc 1 649 1 is_stmt 0 view .LVU292
 1232 000e 08BD     		pop	{r3, pc}
 1233              		.cfi_endproc
 1234              	.LFE1439:
 1236              		.section	.text.USBD_LL_Transmit,"ax",%progbits
 1237              		.align	1
 1238              		.global	USBD_LL_Transmit
ARM GAS  C:\Users\Nathan\AppData\Local\Temp\ccVQw5Zk.s 			page 59


 1239              		.syntax unified
 1240              		.thumb
 1241              		.thumb_func
 1243              	USBD_LL_Transmit:
 1244              	.LVL130:
 1245              	.LFB1440:
 660:USB_Device/Target/usbd_conf.c ****   HAL_StatusTypeDef hal_status = HAL_OK;
 1246              		.loc 1 660 1 is_stmt 1 view -0
 1247              		.cfi_startproc
 1248              		@ args = 0, pretend = 0, frame = 0
 1249              		@ frame_needed = 0, uses_anonymous_args = 0
 660:USB_Device/Target/usbd_conf.c ****   HAL_StatusTypeDef hal_status = HAL_OK;
 1250              		.loc 1 660 1 is_stmt 0 view .LVU294
 1251 0000 08B5     		push	{r3, lr}
 1252              		.cfi_def_cfa_offset 8
 1253              		.cfi_offset 3, -8
 1254              		.cfi_offset 14, -4
 661:USB_Device/Target/usbd_conf.c ****   USBD_StatusTypeDef usb_status = USBD_OK;
 1255              		.loc 1 661 3 is_stmt 1 view .LVU295
 1256              	.LVL131:
 662:USB_Device/Target/usbd_conf.c **** 
 1257              		.loc 1 662 3 view .LVU296
 664:USB_Device/Target/usbd_conf.c **** 
 1258              		.loc 1 664 3 view .LVU297
 664:USB_Device/Target/usbd_conf.c **** 
 1259              		.loc 1 664 16 is_stmt 0 view .LVU298
 1260 0002 D0F8C802 		ldr	r0, [r0, #712]
 1261              	.LVL132:
 664:USB_Device/Target/usbd_conf.c **** 
 1262              		.loc 1 664 16 view .LVU299
 1263 0006 FFF7FEFF 		bl	HAL_PCD_EP_Transmit
 1264              	.LVL133:
 666:USB_Device/Target/usbd_conf.c **** 
 1265              		.loc 1 666 3 is_stmt 1 view .LVU300
 666:USB_Device/Target/usbd_conf.c **** 
 1266              		.loc 1 666 17 is_stmt 0 view .LVU301
 1267 000a FFF7FEFF 		bl	USBD_Get_USB_Status
 1268              	.LVL134:
 668:USB_Device/Target/usbd_conf.c **** }
 1269              		.loc 1 668 3 is_stmt 1 view .LVU302
 669:USB_Device/Target/usbd_conf.c **** 
 1270              		.loc 1 669 1 is_stmt 0 view .LVU303
 1271 000e 08BD     		pop	{r3, pc}
 1272              		.cfi_endproc
 1273              	.LFE1440:
 1275              		.section	.text.USBD_LL_PrepareReceive,"ax",%progbits
 1276              		.align	1
 1277              		.global	USBD_LL_PrepareReceive
 1278              		.syntax unified
 1279              		.thumb
 1280              		.thumb_func
 1282              	USBD_LL_PrepareReceive:
 1283              	.LVL135:
 1284              	.LFB1441:
 680:USB_Device/Target/usbd_conf.c ****   HAL_StatusTypeDef hal_status = HAL_OK;
 1285              		.loc 1 680 1 is_stmt 1 view -0
 1286              		.cfi_startproc
ARM GAS  C:\Users\Nathan\AppData\Local\Temp\ccVQw5Zk.s 			page 60


 1287              		@ args = 0, pretend = 0, frame = 0
 1288              		@ frame_needed = 0, uses_anonymous_args = 0
 680:USB_Device/Target/usbd_conf.c ****   HAL_StatusTypeDef hal_status = HAL_OK;
 1289              		.loc 1 680 1 is_stmt 0 view .LVU305
 1290 0000 08B5     		push	{r3, lr}
 1291              		.cfi_def_cfa_offset 8
 1292              		.cfi_offset 3, -8
 1293              		.cfi_offset 14, -4
 681:USB_Device/Target/usbd_conf.c ****   USBD_StatusTypeDef usb_status = USBD_OK;
 1294              		.loc 1 681 3 is_stmt 1 view .LVU306
 1295              	.LVL136:
 682:USB_Device/Target/usbd_conf.c **** 
 1296              		.loc 1 682 3 view .LVU307
 684:USB_Device/Target/usbd_conf.c **** 
 1297              		.loc 1 684 3 view .LVU308
 684:USB_Device/Target/usbd_conf.c **** 
 1298              		.loc 1 684 16 is_stmt 0 view .LVU309
 1299 0002 D0F8C802 		ldr	r0, [r0, #712]
 1300              	.LVL137:
 684:USB_Device/Target/usbd_conf.c **** 
 1301              		.loc 1 684 16 view .LVU310
 1302 0006 FFF7FEFF 		bl	HAL_PCD_EP_Receive
 1303              	.LVL138:
 686:USB_Device/Target/usbd_conf.c **** 
 1304              		.loc 1 686 3 is_stmt 1 view .LVU311
 686:USB_Device/Target/usbd_conf.c **** 
 1305              		.loc 1 686 17 is_stmt 0 view .LVU312
 1306 000a FFF7FEFF 		bl	USBD_Get_USB_Status
 1307              	.LVL139:
 688:USB_Device/Target/usbd_conf.c **** }
 1308              		.loc 1 688 3 is_stmt 1 view .LVU313
 689:USB_Device/Target/usbd_conf.c **** 
 1309              		.loc 1 689 1 is_stmt 0 view .LVU314
 1310 000e 08BD     		pop	{r3, pc}
 1311              		.cfi_endproc
 1312              	.LFE1441:
 1314              		.section	.text.USBD_LL_GetRxDataSize,"ax",%progbits
 1315              		.align	1
 1316              		.global	USBD_LL_GetRxDataSize
 1317              		.syntax unified
 1318              		.thumb
 1319              		.thumb_func
 1321              	USBD_LL_GetRxDataSize:
 1322              	.LVL140:
 1323              	.LFB1442:
 698:USB_Device/Target/usbd_conf.c ****   return HAL_PCD_EP_GetRxCount((PCD_HandleTypeDef*) pdev->pData, ep_addr);
 1324              		.loc 1 698 1 is_stmt 1 view -0
 1325              		.cfi_startproc
 1326              		@ args = 0, pretend = 0, frame = 0
 1327              		@ frame_needed = 0, uses_anonymous_args = 0
 698:USB_Device/Target/usbd_conf.c ****   return HAL_PCD_EP_GetRxCount((PCD_HandleTypeDef*) pdev->pData, ep_addr);
 1328              		.loc 1 698 1 is_stmt 0 view .LVU316
 1329 0000 08B5     		push	{r3, lr}
 1330              		.cfi_def_cfa_offset 8
 1331              		.cfi_offset 3, -8
 1332              		.cfi_offset 14, -4
 699:USB_Device/Target/usbd_conf.c **** }
ARM GAS  C:\Users\Nathan\AppData\Local\Temp\ccVQw5Zk.s 			page 61


 1333              		.loc 1 699 3 is_stmt 1 view .LVU317
 699:USB_Device/Target/usbd_conf.c **** }
 1334              		.loc 1 699 10 is_stmt 0 view .LVU318
 1335 0002 D0F8C802 		ldr	r0, [r0, #712]
 1336              	.LVL141:
 699:USB_Device/Target/usbd_conf.c **** }
 1337              		.loc 1 699 10 view .LVU319
 1338 0006 FFF7FEFF 		bl	HAL_PCD_EP_GetRxCount
 1339              	.LVL142:
 700:USB_Device/Target/usbd_conf.c **** 
 1340              		.loc 1 700 1 view .LVU320
 1341 000a 08BD     		pop	{r3, pc}
 1342              		.cfi_endproc
 1343              	.LFE1442:
 1345              		.section	.text.HAL_PCDEx_LPM_Callback,"ax",%progbits
 1346              		.align	1
 1347              		.global	HAL_PCDEx_LPM_Callback
 1348              		.syntax unified
 1349              		.thumb
 1350              		.thumb_func
 1352              	HAL_PCDEx_LPM_Callback:
 1353              	.LVL143:
 1354              	.LFB1443:
 713:USB_Device/Target/usbd_conf.c ****   /* USER CODE BEGIN LPM_Callback */
 1355              		.loc 1 713 1 is_stmt 1 view -0
 1356              		.cfi_startproc
 1357              		@ args = 0, pretend = 0, frame = 0
 1358              		@ frame_needed = 0, uses_anonymous_args = 0
 713:USB_Device/Target/usbd_conf.c ****   /* USER CODE BEGIN LPM_Callback */
 1359              		.loc 1 713 1 is_stmt 0 view .LVU322
 1360 0000 10B5     		push	{r4, lr}
 1361              		.cfi_def_cfa_offset 8
 1362              		.cfi_offset 4, -8
 1363              		.cfi_offset 14, -4
 1364 0002 0446     		mov	r4, r0
 715:USB_Device/Target/usbd_conf.c ****   {
 1365              		.loc 1 715 3 is_stmt 1 view .LVU323
 1366 0004 69B1     		cbz	r1, .L88
 1367 0006 0129     		cmp	r1, #1
 1368 0008 11D1     		bne	.L87
 729:USB_Device/Target/usbd_conf.c **** 
 1369              		.loc 1 729 5 view .LVU324
 1370 000a D0F8D802 		ldr	r0, [r0, #728]
 1371              	.LVL144:
 729:USB_Device/Target/usbd_conf.c **** 
 1372              		.loc 1 729 5 is_stmt 0 view .LVU325
 1373 000e FFF7FEFF 		bl	USBD_LL_Suspend
 1374              	.LVL145:
 732:USB_Device/Target/usbd_conf.c ****     {
 1375              		.loc 1 732 5 is_stmt 1 view .LVU326
 732:USB_Device/Target/usbd_conf.c ****     {
 1376              		.loc 1 732 19 is_stmt 0 view .LVU327
 1377 0012 637A     		ldrb	r3, [r4, #9]	@ zero_extendqisi2
 732:USB_Device/Target/usbd_conf.c ****     {
 1378              		.loc 1 732 8 view .LVU328
 1379 0014 5BB1     		cbz	r3, .L87
 735:USB_Device/Target/usbd_conf.c ****     }
ARM GAS  C:\Users\Nathan\AppData\Local\Temp\ccVQw5Zk.s 			page 62


 1380              		.loc 1 735 7 is_stmt 1 view .LVU329
 735:USB_Device/Target/usbd_conf.c ****     }
 1381              		.loc 1 735 10 is_stmt 0 view .LVU330
 1382 0016 0A4A     		ldr	r2, .L94
 1383 0018 1369     		ldr	r3, [r2, #16]
 735:USB_Device/Target/usbd_conf.c ****     }
 1384              		.loc 1 735 16 view .LVU331
 1385 001a 43F00603 		orr	r3, r3, #6
 1386 001e 1361     		str	r3, [r2, #16]
 740:USB_Device/Target/usbd_conf.c **** 
 1387              		.loc 1 740 1 view .LVU332
 1388 0020 05E0     		b	.L87
 1389              	.LVL146:
 1390              	.L88:
 718:USB_Device/Target/usbd_conf.c ****     {
 1391              		.loc 1 718 5 is_stmt 1 view .LVU333
 718:USB_Device/Target/usbd_conf.c ****     {
 1392              		.loc 1 718 19 is_stmt 0 view .LVU334
 1393 0022 437A     		ldrb	r3, [r0, #9]	@ zero_extendqisi2
 718:USB_Device/Target/usbd_conf.c ****     {
 1394              		.loc 1 718 8 view .LVU335
 1395 0024 23B9     		cbnz	r3, .L93
 1396              	.LVL147:
 1397              	.L91:
 725:USB_Device/Target/usbd_conf.c ****     break;
 1398              		.loc 1 725 5 is_stmt 1 view .LVU336
 1399 0026 D4F8D802 		ldr	r0, [r4, #728]
 1400 002a FFF7FEFF 		bl	USBD_LL_Resume
 1401              	.LVL148:
 726:USB_Device/Target/usbd_conf.c **** 
 1402              		.loc 1 726 5 view .LVU337
 1403              	.L87:
 740:USB_Device/Target/usbd_conf.c **** 
 1404              		.loc 1 740 1 is_stmt 0 view .LVU338
 1405 002e 10BD     		pop	{r4, pc}
 1406              	.LVL149:
 1407              	.L93:
 720:USB_Device/Target/usbd_conf.c **** 
 1408              		.loc 1 720 7 is_stmt 1 view .LVU339
 1409 0030 FFF7FEFF 		bl	SystemClockConfig_Resume
 1410              	.LVL150:
 723:USB_Device/Target/usbd_conf.c ****     }
 1411              		.loc 1 723 7 view .LVU340
 723:USB_Device/Target/usbd_conf.c ****     }
 1412              		.loc 1 723 10 is_stmt 0 view .LVU341
 1413 0034 024A     		ldr	r2, .L94
 1414 0036 1369     		ldr	r3, [r2, #16]
 723:USB_Device/Target/usbd_conf.c ****     }
 1415              		.loc 1 723 16 view .LVU342
 1416 0038 23F00603 		bic	r3, r3, #6
 1417 003c 1361     		str	r3, [r2, #16]
 1418 003e F2E7     		b	.L91
 1419              	.L95:
 1420              		.align	2
 1421              	.L94:
 1422 0040 00ED00E0 		.word	-536810240
 1423              		.cfi_endproc
ARM GAS  C:\Users\Nathan\AppData\Local\Temp\ccVQw5Zk.s 			page 63


 1424              	.LFE1443:
 1426              		.section	.text.USBD_LL_Delay,"ax",%progbits
 1427              		.align	1
 1428              		.global	USBD_LL_Delay
 1429              		.syntax unified
 1430              		.thumb
 1431              		.thumb_func
 1433              	USBD_LL_Delay:
 1434              	.LVL151:
 1435              	.LFB1444:
 748:USB_Device/Target/usbd_conf.c ****   HAL_Delay(Delay);
 1436              		.loc 1 748 1 is_stmt 1 view -0
 1437              		.cfi_startproc
 1438              		@ args = 0, pretend = 0, frame = 0
 1439              		@ frame_needed = 0, uses_anonymous_args = 0
 748:USB_Device/Target/usbd_conf.c ****   HAL_Delay(Delay);
 1440              		.loc 1 748 1 is_stmt 0 view .LVU344
 1441 0000 08B5     		push	{r3, lr}
 1442              		.cfi_def_cfa_offset 8
 1443              		.cfi_offset 3, -8
 1444              		.cfi_offset 14, -4
 749:USB_Device/Target/usbd_conf.c **** }
 1445              		.loc 1 749 3 is_stmt 1 view .LVU345
 1446 0002 FFF7FEFF 		bl	HAL_Delay
 1447              	.LVL152:
 750:USB_Device/Target/usbd_conf.c **** 
 1448              		.loc 1 750 1 is_stmt 0 view .LVU346
 1449 0006 08BD     		pop	{r3, pc}
 1450              		.cfi_endproc
 1451              	.LFE1444:
 1453              		.section	.text.USBD_static_malloc,"ax",%progbits
 1454              		.align	1
 1455              		.global	USBD_static_malloc
 1456              		.syntax unified
 1457              		.thumb
 1458              		.thumb_func
 1460              	USBD_static_malloc:
 1461              	.LVL153:
 1462              	.LFB1445:
 758:USB_Device/Target/usbd_conf.c ****   UNUSED(size);
 1463              		.loc 1 758 1 is_stmt 1 view -0
 1464              		.cfi_startproc
 1465              		@ args = 0, pretend = 0, frame = 0
 1466              		@ frame_needed = 0, uses_anonymous_args = 0
 1467              		@ link register save eliminated.
 759:USB_Device/Target/usbd_conf.c ****   static uint32_t mem[(sizeof(USBD_CDC_HandleTypeDef)/4)+1];/* On 32-bit boundary */
 1468              		.loc 1 759 3 view .LVU348
 760:USB_Device/Target/usbd_conf.c ****   return mem;
 1469              		.loc 1 760 3 view .LVU349
 761:USB_Device/Target/usbd_conf.c **** }
 1470              		.loc 1 761 3 view .LVU350
 762:USB_Device/Target/usbd_conf.c **** 
 1471              		.loc 1 762 1 is_stmt 0 view .LVU351
 1472 0000 0048     		ldr	r0, .L99
 1473              	.LVL154:
 762:USB_Device/Target/usbd_conf.c **** 
 1474              		.loc 1 762 1 view .LVU352
ARM GAS  C:\Users\Nathan\AppData\Local\Temp\ccVQw5Zk.s 			page 64


 1475 0002 7047     		bx	lr
 1476              	.L100:
 1477              		.align	2
 1478              	.L99:
 1479 0004 00000000 		.word	mem.0
 1480              		.cfi_endproc
 1481              	.LFE1445:
 1483              		.section	.text.USBD_static_free,"ax",%progbits
 1484              		.align	1
 1485              		.global	USBD_static_free
 1486              		.syntax unified
 1487              		.thumb
 1488              		.thumb_func
 1490              	USBD_static_free:
 1491              	.LVL155:
 1492              	.LFB1446:
 770:USB_Device/Target/usbd_conf.c ****   UNUSED(p);
 1493              		.loc 1 770 1 is_stmt 1 view -0
 1494              		.cfi_startproc
 1495              		@ args = 0, pretend = 0, frame = 0
 1496              		@ frame_needed = 0, uses_anonymous_args = 0
 1497              		@ link register save eliminated.
 771:USB_Device/Target/usbd_conf.c **** }
 1498              		.loc 1 771 3 view .LVU354
 772:USB_Device/Target/usbd_conf.c **** 
 1499              		.loc 1 772 1 is_stmt 0 view .LVU355
 1500 0000 7047     		bx	lr
 1501              		.cfi_endproc
 1502              	.LFE1446:
 1504              		.section	.bss.mem.0,"aw",%nobits
 1505              		.align	2
 1508              	mem.0:
 1509 0000 00000000 		.space	544
 1509      00000000 
 1509      00000000 
 1509      00000000 
 1509      00000000 
 1510              		.global	hpcd_USB_FS
 1511              		.section	.bss.hpcd_USB_FS,"aw",%nobits
 1512              		.align	2
 1515              	hpcd_USB_FS:
 1516 0000 00000000 		.space	732
 1516      00000000 
 1516      00000000 
 1516      00000000 
 1516      00000000 
 1517              		.text
 1518              	.Letext0:
 1519              		.file 3 "Drivers/CMSIS/Device/ST/STM32WBxx/Include/stm32wb55xx.h"
 1520              		.file 4 "C:/PROGRAM FILES (X86)/ARM GNU TOOLCHAIN ARM-NONE-EABI/13.3 REL1/arm-none-eabi/include/ma
 1521              		.file 5 "C:/PROGRAM FILES (X86)/ARM GNU TOOLCHAIN ARM-NONE-EABI/13.3 REL1/arm-none-eabi/include/sy
 1522              		.file 6 "Drivers/CMSIS/Include/core_cm4.h"
 1523              		.file 7 "Drivers/CMSIS/Device/ST/STM32WBxx/Include/stm32wbxx.h"
 1524              		.file 8 "Drivers/STM32WBxx_HAL_Driver/Inc/stm32wbxx_hal_def.h"
 1525              		.file 9 "Drivers/STM32WBxx_HAL_Driver/Inc/stm32wbxx_hal_gpio.h"
 1526              		.file 10 "Drivers/STM32WBxx_HAL_Driver/Inc/stm32wbxx_ll_usb.h"
 1527              		.file 11 "Drivers/STM32WBxx_HAL_Driver/Inc/stm32wbxx_hal_pcd.h"
ARM GAS  C:\Users\Nathan\AppData\Local\Temp\ccVQw5Zk.s 			page 65


 1528              		.file 12 "Core/Inc/app_conf.h"
 1529              		.file 13 "Middlewares/ST/STM32_USB_Device_Library/Core/Inc/usbd_def.h"
 1530              		.file 14 "Drivers/STM32WBxx_HAL_Driver/Inc/stm32wbxx_hal_pcd_ex.h"
 1531              		.file 15 "Middlewares/ST/STM32_USB_Device_Library/Core/Inc/usbd_core.h"
 1532              		.file 16 "Drivers/STM32WBxx_HAL_Driver/Inc/stm32wbxx_hal_pwr_ex.h"
 1533              		.file 17 "Drivers/STM32WBxx_HAL_Driver/Inc/stm32wbxx_hal.h"
 1534              		.file 18 "Drivers/STM32WBxx_HAL_Driver/Inc/stm32wbxx_hal_cortex.h"
ARM GAS  C:\Users\Nathan\AppData\Local\Temp\ccVQw5Zk.s 			page 66

