ARM GAS  C:\Users\Nathan\AppData\Local\Temp\ccCDfMpd.s 			page 1


   1              		.cpu cortex-m4
   2              		.arch armv7e-m
   3              		.fpu fpv4-sp-d16
   4              		.eabi_attribute 27, 1
   5              		.eabi_attribute 28, 1
   6              		.eabi_attribute 20, 1
   7              		.eabi_attribute 21, 1
   8              		.eabi_attribute 23, 3
   9              		.eabi_attribute 24, 1
  10              		.eabi_attribute 25, 1
  11              		.eabi_attribute 26, 1
  12              		.eabi_attribute 30, 1
  13              		.eabi_attribute 34, 1
  14              		.eabi_attribute 18, 4
  15              		.file	"usbd_conf.c"
  16              		.text
  17              	.Ltext0:
  18              		.cfi_sections	.debug_frame
  19              		.file 1 "Middlewares/Third_Party/AL94_USB_Composite/COMPOSITE/Target/usbd_conf.c"
  20              		.section	.text.HAL_PCD_MspInit,"ax",%progbits
  21              		.align	1
  22              		.weak	HAL_PCD_MspInit
  23              		.syntax unified
  24              		.thumb
  25              		.thumb_func
  27              	HAL_PCD_MspInit:
  28              	.LVL0:
  29              	.LFB1416:
   1:Middlewares/Third_Party/AL94_USB_Composite/COMPOSITE/Target/usbd_conf.c **** /* USER CODE BEGIN Header */
   2:Middlewares/Third_Party/AL94_USB_Composite/COMPOSITE/Target/usbd_conf.c **** /**
   3:Middlewares/Third_Party/AL94_USB_Composite/COMPOSITE/Target/usbd_conf.c ****   ******************************************************************************
   4:Middlewares/Third_Party/AL94_USB_Composite/COMPOSITE/Target/usbd_conf.c ****   * @file           : Target/usbd_conf.c
   5:Middlewares/Third_Party/AL94_USB_Composite/COMPOSITE/Target/usbd_conf.c ****   * @version        : v1.0_Cube
   6:Middlewares/Third_Party/AL94_USB_Composite/COMPOSITE/Target/usbd_conf.c ****   * @brief          : This file implements the board support package for the USB device library
   7:Middlewares/Third_Party/AL94_USB_Composite/COMPOSITE/Target/usbd_conf.c ****   ******************************************************************************
   8:Middlewares/Third_Party/AL94_USB_Composite/COMPOSITE/Target/usbd_conf.c ****   * @attention
   9:Middlewares/Third_Party/AL94_USB_Composite/COMPOSITE/Target/usbd_conf.c ****   *
  10:Middlewares/Third_Party/AL94_USB_Composite/COMPOSITE/Target/usbd_conf.c ****   * <h2><center>&copy; Copyright (c) 2021 STMicroelectronics.
  11:Middlewares/Third_Party/AL94_USB_Composite/COMPOSITE/Target/usbd_conf.c ****   * All rights reserved.</center></h2>
  12:Middlewares/Third_Party/AL94_USB_Composite/COMPOSITE/Target/usbd_conf.c ****   *
  13:Middlewares/Third_Party/AL94_USB_Composite/COMPOSITE/Target/usbd_conf.c ****   * This software component is licensed by ST under Ultimate Liberty license
  14:Middlewares/Third_Party/AL94_USB_Composite/COMPOSITE/Target/usbd_conf.c ****   * SLA0044, the "License"; You may not use this file except in compliance with
  15:Middlewares/Third_Party/AL94_USB_Composite/COMPOSITE/Target/usbd_conf.c ****   * the License. You may obtain a copy of the License at:
  16:Middlewares/Third_Party/AL94_USB_Composite/COMPOSITE/Target/usbd_conf.c ****   *                             www.st.com/SLA0044
  17:Middlewares/Third_Party/AL94_USB_Composite/COMPOSITE/Target/usbd_conf.c ****   *
  18:Middlewares/Third_Party/AL94_USB_Composite/COMPOSITE/Target/usbd_conf.c ****   ******************************************************************************
  19:Middlewares/Third_Party/AL94_USB_Composite/COMPOSITE/Target/usbd_conf.c ****   */
  20:Middlewares/Third_Party/AL94_USB_Composite/COMPOSITE/Target/usbd_conf.c **** /* USER CODE END Header */
  21:Middlewares/Third_Party/AL94_USB_Composite/COMPOSITE/Target/usbd_conf.c **** 
  22:Middlewares/Third_Party/AL94_USB_Composite/COMPOSITE/Target/usbd_conf.c **** /* Includes ------------------------------------------------------------------*/
  23:Middlewares/Third_Party/AL94_USB_Composite/COMPOSITE/Target/usbd_conf.c **** #include "usbd_def.h"
  24:Middlewares/Third_Party/AL94_USB_Composite/COMPOSITE/Target/usbd_conf.c **** #include "usbd_core.h"
  25:Middlewares/Third_Party/AL94_USB_Composite/COMPOSITE/Target/usbd_conf.c **** 
  26:Middlewares/Third_Party/AL94_USB_Composite/COMPOSITE/Target/usbd_conf.c **** /* USER CODE BEGIN Includes */
  27:Middlewares/Third_Party/AL94_USB_Composite/COMPOSITE/Target/usbd_conf.c **** #include "usbd_composite.h"
  28:Middlewares/Third_Party/AL94_USB_Composite/COMPOSITE/Target/usbd_conf.c **** #if (STM32F1_DEVICE) /** for STM32F1 or similar */
  29:Middlewares/Third_Party/AL94_USB_Composite/COMPOSITE/Target/usbd_conf.c **** #include "usb.h"
ARM GAS  C:\Users\Nathan\AppData\Local\Temp\ccCDfMpd.s 			page 2


  30:Middlewares/Third_Party/AL94_USB_Composite/COMPOSITE/Target/usbd_conf.c **** #else
  31:Middlewares/Third_Party/AL94_USB_Composite/COMPOSITE/Target/usbd_conf.c **** #include "usb_otg.h"
  32:Middlewares/Third_Party/AL94_USB_Composite/COMPOSITE/Target/usbd_conf.c **** #endif
  33:Middlewares/Third_Party/AL94_USB_Composite/COMPOSITE/Target/usbd_conf.c **** /* USER CODE END Includes */
  34:Middlewares/Third_Party/AL94_USB_Composite/COMPOSITE/Target/usbd_conf.c **** 
  35:Middlewares/Third_Party/AL94_USB_Composite/COMPOSITE/Target/usbd_conf.c **** /* Private typedef -----------------------------------------------------------*/
  36:Middlewares/Third_Party/AL94_USB_Composite/COMPOSITE/Target/usbd_conf.c **** /* Private define ------------------------------------------------------------*/
  37:Middlewares/Third_Party/AL94_USB_Composite/COMPOSITE/Target/usbd_conf.c **** /* Private macro -------------------------------------------------------------*/
  38:Middlewares/Third_Party/AL94_USB_Composite/COMPOSITE/Target/usbd_conf.c **** 
  39:Middlewares/Third_Party/AL94_USB_Composite/COMPOSITE/Target/usbd_conf.c **** /* USER CODE BEGIN PV */
  40:Middlewares/Third_Party/AL94_USB_Composite/COMPOSITE/Target/usbd_conf.c **** /* Private variables ---------------------------------------------------------*/
  41:Middlewares/Third_Party/AL94_USB_Composite/COMPOSITE/Target/usbd_conf.c **** 
  42:Middlewares/Third_Party/AL94_USB_Composite/COMPOSITE/Target/usbd_conf.c **** /* USER CODE END PV */
  43:Middlewares/Third_Party/AL94_USB_Composite/COMPOSITE/Target/usbd_conf.c **** PCD_HandleTypeDef *hpcd_USB_OTG_PTR;
  44:Middlewares/Third_Party/AL94_USB_Composite/COMPOSITE/Target/usbd_conf.c **** void Error_Handler(void);
  45:Middlewares/Third_Party/AL94_USB_Composite/COMPOSITE/Target/usbd_conf.c **** 
  46:Middlewares/Third_Party/AL94_USB_Composite/COMPOSITE/Target/usbd_conf.c **** /* External functions --------------------------------------------------------*/
  47:Middlewares/Third_Party/AL94_USB_Composite/COMPOSITE/Target/usbd_conf.c **** 
  48:Middlewares/Third_Party/AL94_USB_Composite/COMPOSITE/Target/usbd_conf.c **** /* USER CODE BEGIN 0 */
  49:Middlewares/Third_Party/AL94_USB_Composite/COMPOSITE/Target/usbd_conf.c **** 
  50:Middlewares/Third_Party/AL94_USB_Composite/COMPOSITE/Target/usbd_conf.c **** /* USER CODE END 0 */
  51:Middlewares/Third_Party/AL94_USB_Composite/COMPOSITE/Target/usbd_conf.c **** 
  52:Middlewares/Third_Party/AL94_USB_Composite/COMPOSITE/Target/usbd_conf.c **** /* USER CODE BEGIN PFP */
  53:Middlewares/Third_Party/AL94_USB_Composite/COMPOSITE/Target/usbd_conf.c **** /* Private function prototypes -----------------------------------------------*/
  54:Middlewares/Third_Party/AL94_USB_Composite/COMPOSITE/Target/usbd_conf.c **** USBD_StatusTypeDef USBD_Get_USB_Status(HAL_StatusTypeDef hal_status);
  55:Middlewares/Third_Party/AL94_USB_Composite/COMPOSITE/Target/usbd_conf.c **** HAL_StatusTypeDef HAL_PCDEx_SetTxFiFoInBytes(PCD_HandleTypeDef *hpcd, uint8_t fifo, uint16_t size);
  56:Middlewares/Third_Party/AL94_USB_Composite/COMPOSITE/Target/usbd_conf.c **** HAL_StatusTypeDef HAL_PCDEx_SetRxFiFoInBytes(PCD_HandleTypeDef *hpcd, uint16_t size);
  57:Middlewares/Third_Party/AL94_USB_Composite/COMPOSITE/Target/usbd_conf.c **** /* USER CODE END PFP */
  58:Middlewares/Third_Party/AL94_USB_Composite/COMPOSITE/Target/usbd_conf.c **** 
  59:Middlewares/Third_Party/AL94_USB_Composite/COMPOSITE/Target/usbd_conf.c **** /* Private functions ---------------------------------------------------------*/
  60:Middlewares/Third_Party/AL94_USB_Composite/COMPOSITE/Target/usbd_conf.c **** 
  61:Middlewares/Third_Party/AL94_USB_Composite/COMPOSITE/Target/usbd_conf.c **** /* USER CODE BEGIN 1 */
  62:Middlewares/Third_Party/AL94_USB_Composite/COMPOSITE/Target/usbd_conf.c **** #if(!STM32F1_DEVICE)
  63:Middlewares/Third_Party/AL94_USB_Composite/COMPOSITE/Target/usbd_conf.c **** HAL_StatusTypeDef HAL_PCDEx_SetTxFiFoInBytes(PCD_HandleTypeDef *hpcd, uint8_t fifo, uint16_t size)
  64:Middlewares/Third_Party/AL94_USB_Composite/COMPOSITE/Target/usbd_conf.c **** {
  65:Middlewares/Third_Party/AL94_USB_Composite/COMPOSITE/Target/usbd_conf.c **** 	return HAL_PCDEx_SetTxFiFo(hpcd, fifo, (size/4));
  66:Middlewares/Third_Party/AL94_USB_Composite/COMPOSITE/Target/usbd_conf.c **** }
  67:Middlewares/Third_Party/AL94_USB_Composite/COMPOSITE/Target/usbd_conf.c **** 
  68:Middlewares/Third_Party/AL94_USB_Composite/COMPOSITE/Target/usbd_conf.c **** HAL_StatusTypeDef HAL_PCDEx_SetRxFiFoInBytes(PCD_HandleTypeDef *hpcd, uint16_t size)
  69:Middlewares/Third_Party/AL94_USB_Composite/COMPOSITE/Target/usbd_conf.c **** {
  70:Middlewares/Third_Party/AL94_USB_Composite/COMPOSITE/Target/usbd_conf.c **** 	return HAL_PCDEx_SetRxFiFo(hpcd, (size/4));
  71:Middlewares/Third_Party/AL94_USB_Composite/COMPOSITE/Target/usbd_conf.c **** }
  72:Middlewares/Third_Party/AL94_USB_Composite/COMPOSITE/Target/usbd_conf.c **** #endif
  73:Middlewares/Third_Party/AL94_USB_Composite/COMPOSITE/Target/usbd_conf.c **** /* USER CODE END 1 */
  74:Middlewares/Third_Party/AL94_USB_Composite/COMPOSITE/Target/usbd_conf.c **** 
  75:Middlewares/Third_Party/AL94_USB_Composite/COMPOSITE/Target/usbd_conf.c **** /*******************************************************************************
  76:Middlewares/Third_Party/AL94_USB_Composite/COMPOSITE/Target/usbd_conf.c ****                        LL Driver Callbacks (PCD -> USB Device Library)
  77:Middlewares/Third_Party/AL94_USB_Composite/COMPOSITE/Target/usbd_conf.c **** *******************************************************************************/
  78:Middlewares/Third_Party/AL94_USB_Composite/COMPOSITE/Target/usbd_conf.c **** /* MSP Init */
  79:Middlewares/Third_Party/AL94_USB_Composite/COMPOSITE/Target/usbd_conf.c **** 
  80:Middlewares/Third_Party/AL94_USB_Composite/COMPOSITE/Target/usbd_conf.c **** __weak void HAL_PCD_MspInit(PCD_HandleTypeDef *pcdHandle)
  81:Middlewares/Third_Party/AL94_USB_Composite/COMPOSITE/Target/usbd_conf.c **** {
  30              		.loc 1 81 1 view -0
  31              		.cfi_startproc
  32              		@ args = 0, pretend = 0, frame = 0
  33              		@ frame_needed = 0, uses_anonymous_args = 0
  34              		@ link register save eliminated.
ARM GAS  C:\Users\Nathan\AppData\Local\Temp\ccCDfMpd.s 			page 3


  82:Middlewares/Third_Party/AL94_USB_Composite/COMPOSITE/Target/usbd_conf.c ****     /* @see usb_otg.c or usb.c for (STM32F1 or similar) generated by cube **/
  83:Middlewares/Third_Party/AL94_USB_Composite/COMPOSITE/Target/usbd_conf.c **** }
  35              		.loc 1 83 1 view .LVU1
  36 0000 7047     		bx	lr
  37              		.cfi_endproc
  38              	.LFE1416:
  40              		.section	.text.HAL_PCD_MspDeInit,"ax",%progbits
  41              		.align	1
  42              		.weak	HAL_PCD_MspDeInit
  43              		.syntax unified
  44              		.thumb
  45              		.thumb_func
  47              	HAL_PCD_MspDeInit:
  48              	.LVL1:
  49              	.LFB1417:
  84:Middlewares/Third_Party/AL94_USB_Composite/COMPOSITE/Target/usbd_conf.c **** 
  85:Middlewares/Third_Party/AL94_USB_Composite/COMPOSITE/Target/usbd_conf.c **** __weak void HAL_PCD_MspDeInit(PCD_HandleTypeDef *pcdHandle)
  86:Middlewares/Third_Party/AL94_USB_Composite/COMPOSITE/Target/usbd_conf.c **** {
  50              		.loc 1 86 1 view -0
  51              		.cfi_startproc
  52              		@ args = 0, pretend = 0, frame = 0
  53              		@ frame_needed = 0, uses_anonymous_args = 0
  54              		@ link register save eliminated.
  87:Middlewares/Third_Party/AL94_USB_Composite/COMPOSITE/Target/usbd_conf.c ****     /* @see usb_otg.c or usb.c for (STM32F1 or similar) generated by cube **/
  88:Middlewares/Third_Party/AL94_USB_Composite/COMPOSITE/Target/usbd_conf.c **** }
  55              		.loc 1 88 1 view .LVU3
  56 0000 7047     		bx	lr
  57              		.cfi_endproc
  58              	.LFE1417:
  60              		.section	.text.HAL_PCD_SetupStageCallback,"ax",%progbits
  61              		.align	1
  62              		.global	HAL_PCD_SetupStageCallback
  63              		.syntax unified
  64              		.thumb
  65              		.thumb_func
  67              	HAL_PCD_SetupStageCallback:
  68              	.LVL2:
  69              	.LFB1418:
  89:Middlewares/Third_Party/AL94_USB_Composite/COMPOSITE/Target/usbd_conf.c **** 
  90:Middlewares/Third_Party/AL94_USB_Composite/COMPOSITE/Target/usbd_conf.c **** /**
  91:Middlewares/Third_Party/AL94_USB_Composite/COMPOSITE/Target/usbd_conf.c ****   * @brief  Setup stage callback
  92:Middlewares/Third_Party/AL94_USB_Composite/COMPOSITE/Target/usbd_conf.c ****   * @param  hpcd: PCD handle
  93:Middlewares/Third_Party/AL94_USB_Composite/COMPOSITE/Target/usbd_conf.c ****   * @retval None
  94:Middlewares/Third_Party/AL94_USB_Composite/COMPOSITE/Target/usbd_conf.c ****   */
  95:Middlewares/Third_Party/AL94_USB_Composite/COMPOSITE/Target/usbd_conf.c **** #if (USE_HAL_PCD_REGISTER_CALLBACKS == 1U)
  96:Middlewares/Third_Party/AL94_USB_Composite/COMPOSITE/Target/usbd_conf.c **** static void PCD_SetupStageCallback(PCD_HandleTypeDef *hpcd)
  97:Middlewares/Third_Party/AL94_USB_Composite/COMPOSITE/Target/usbd_conf.c **** #else
  98:Middlewares/Third_Party/AL94_USB_Composite/COMPOSITE/Target/usbd_conf.c **** void HAL_PCD_SetupStageCallback(PCD_HandleTypeDef *hpcd)
  99:Middlewares/Third_Party/AL94_USB_Composite/COMPOSITE/Target/usbd_conf.c **** #endif /* USE_HAL_PCD_REGISTER_CALLBACKS */
 100:Middlewares/Third_Party/AL94_USB_Composite/COMPOSITE/Target/usbd_conf.c **** {
  70              		.loc 1 100 1 view -0
  71              		.cfi_startproc
  72              		@ args = 0, pretend = 0, frame = 0
  73              		@ frame_needed = 0, uses_anonymous_args = 0
  74              		.loc 1 100 1 is_stmt 0 view .LVU5
  75 0000 08B5     		push	{r3, lr}
  76              		.cfi_def_cfa_offset 8
ARM GAS  C:\Users\Nathan\AppData\Local\Temp\ccCDfMpd.s 			page 4


  77              		.cfi_offset 3, -8
  78              		.cfi_offset 14, -4
 101:Middlewares/Third_Party/AL94_USB_Composite/COMPOSITE/Target/usbd_conf.c ****   USBD_LL_SetupStage((USBD_HandleTypeDef *)hpcd->pData, (uint8_t *)hpcd->Setup);
  79              		.loc 1 101 3 is_stmt 1 view .LVU6
  80 0002 00F52671 		add	r1, r0, #664
  81 0006 D0F8D802 		ldr	r0, [r0, #728]
  82              	.LVL3:
  83              		.loc 1 101 3 is_stmt 0 view .LVU7
  84 000a FFF7FEFF 		bl	USBD_LL_SetupStage
  85              	.LVL4:
 102:Middlewares/Third_Party/AL94_USB_Composite/COMPOSITE/Target/usbd_conf.c **** }
  86              		.loc 1 102 1 view .LVU8
  87 000e 08BD     		pop	{r3, pc}
  88              		.cfi_endproc
  89              	.LFE1418:
  91              		.section	.text.HAL_PCD_DataOutStageCallback,"ax",%progbits
  92              		.align	1
  93              		.global	HAL_PCD_DataOutStageCallback
  94              		.syntax unified
  95              		.thumb
  96              		.thumb_func
  98              	HAL_PCD_DataOutStageCallback:
  99              	.LVL5:
 100              	.LFB1419:
 103:Middlewares/Third_Party/AL94_USB_Composite/COMPOSITE/Target/usbd_conf.c **** 
 104:Middlewares/Third_Party/AL94_USB_Composite/COMPOSITE/Target/usbd_conf.c **** /**
 105:Middlewares/Third_Party/AL94_USB_Composite/COMPOSITE/Target/usbd_conf.c ****   * @brief  Data Out stage callback.
 106:Middlewares/Third_Party/AL94_USB_Composite/COMPOSITE/Target/usbd_conf.c ****   * @param  hpcd: PCD handle
 107:Middlewares/Third_Party/AL94_USB_Composite/COMPOSITE/Target/usbd_conf.c ****   * @param  epnum: Endpoint number
 108:Middlewares/Third_Party/AL94_USB_Composite/COMPOSITE/Target/usbd_conf.c ****   * @retval None
 109:Middlewares/Third_Party/AL94_USB_Composite/COMPOSITE/Target/usbd_conf.c ****   */
 110:Middlewares/Third_Party/AL94_USB_Composite/COMPOSITE/Target/usbd_conf.c **** #if (USE_HAL_PCD_REGISTER_CALLBACKS == 1U)
 111:Middlewares/Third_Party/AL94_USB_Composite/COMPOSITE/Target/usbd_conf.c **** static void PCD_DataOutStageCallback(PCD_HandleTypeDef *hpcd, uint8_t epnum)
 112:Middlewares/Third_Party/AL94_USB_Composite/COMPOSITE/Target/usbd_conf.c **** #else
 113:Middlewares/Third_Party/AL94_USB_Composite/COMPOSITE/Target/usbd_conf.c **** void HAL_PCD_DataOutStageCallback(PCD_HandleTypeDef *hpcd, uint8_t epnum)
 114:Middlewares/Third_Party/AL94_USB_Composite/COMPOSITE/Target/usbd_conf.c **** #endif /* USE_HAL_PCD_REGISTER_CALLBACKS */
 115:Middlewares/Third_Party/AL94_USB_Composite/COMPOSITE/Target/usbd_conf.c **** {
 101              		.loc 1 115 1 is_stmt 1 view -0
 102              		.cfi_startproc
 103              		@ args = 0, pretend = 0, frame = 0
 104              		@ frame_needed = 0, uses_anonymous_args = 0
 105              		.loc 1 115 1 is_stmt 0 view .LVU10
 106 0000 08B5     		push	{r3, lr}
 107              		.cfi_def_cfa_offset 8
 108              		.cfi_offset 3, -8
 109              		.cfi_offset 14, -4
 116:Middlewares/Third_Party/AL94_USB_Composite/COMPOSITE/Target/usbd_conf.c ****   USBD_LL_DataOutStage((USBD_HandleTypeDef *)hpcd->pData, epnum, hpcd->OUT_ep[epnum].xfer_buff);
 110              		.loc 1 116 3 is_stmt 1 view .LVU11
 111 0002 01EB8103 		add	r3, r1, r1, lsl #2
 112 0006 00EBC303 		add	r3, r0, r3, lsl #3
 113 000a D3F86421 		ldr	r2, [r3, #356]
 114 000e D0F8D802 		ldr	r0, [r0, #728]
 115              	.LVL6:
 116              		.loc 1 116 3 is_stmt 0 view .LVU12
 117 0012 FFF7FEFF 		bl	USBD_LL_DataOutStage
 118              	.LVL7:
 117:Middlewares/Third_Party/AL94_USB_Composite/COMPOSITE/Target/usbd_conf.c **** }
ARM GAS  C:\Users\Nathan\AppData\Local\Temp\ccCDfMpd.s 			page 5


 119              		.loc 1 117 1 view .LVU13
 120 0016 08BD     		pop	{r3, pc}
 121              		.cfi_endproc
 122              	.LFE1419:
 124              		.section	.text.HAL_PCD_DataInStageCallback,"ax",%progbits
 125              		.align	1
 126              		.global	HAL_PCD_DataInStageCallback
 127              		.syntax unified
 128              		.thumb
 129              		.thumb_func
 131              	HAL_PCD_DataInStageCallback:
 132              	.LVL8:
 133              	.LFB1420:
 118:Middlewares/Third_Party/AL94_USB_Composite/COMPOSITE/Target/usbd_conf.c **** 
 119:Middlewares/Third_Party/AL94_USB_Composite/COMPOSITE/Target/usbd_conf.c **** /**
 120:Middlewares/Third_Party/AL94_USB_Composite/COMPOSITE/Target/usbd_conf.c ****   * @brief  Data In stage callback.
 121:Middlewares/Third_Party/AL94_USB_Composite/COMPOSITE/Target/usbd_conf.c ****   * @param  hpcd: PCD handle
 122:Middlewares/Third_Party/AL94_USB_Composite/COMPOSITE/Target/usbd_conf.c ****   * @param  epnum: Endpoint number
 123:Middlewares/Third_Party/AL94_USB_Composite/COMPOSITE/Target/usbd_conf.c ****   * @retval None
 124:Middlewares/Third_Party/AL94_USB_Composite/COMPOSITE/Target/usbd_conf.c ****   */
 125:Middlewares/Third_Party/AL94_USB_Composite/COMPOSITE/Target/usbd_conf.c **** #if (USE_HAL_PCD_REGISTER_CALLBACKS == 1U)
 126:Middlewares/Third_Party/AL94_USB_Composite/COMPOSITE/Target/usbd_conf.c **** static void PCD_DataInStageCallback(PCD_HandleTypeDef *hpcd, uint8_t epnum)
 127:Middlewares/Third_Party/AL94_USB_Composite/COMPOSITE/Target/usbd_conf.c **** #else
 128:Middlewares/Third_Party/AL94_USB_Composite/COMPOSITE/Target/usbd_conf.c **** void HAL_PCD_DataInStageCallback(PCD_HandleTypeDef *hpcd, uint8_t epnum)
 129:Middlewares/Third_Party/AL94_USB_Composite/COMPOSITE/Target/usbd_conf.c **** #endif /* USE_HAL_PCD_REGISTER_CALLBACKS */
 130:Middlewares/Third_Party/AL94_USB_Composite/COMPOSITE/Target/usbd_conf.c **** {
 134              		.loc 1 130 1 is_stmt 1 view -0
 135              		.cfi_startproc
 136              		@ args = 0, pretend = 0, frame = 0
 137              		@ frame_needed = 0, uses_anonymous_args = 0
 138              		.loc 1 130 1 is_stmt 0 view .LVU15
 139 0000 08B5     		push	{r3, lr}
 140              		.cfi_def_cfa_offset 8
 141              		.cfi_offset 3, -8
 142              		.cfi_offset 14, -4
 131:Middlewares/Third_Party/AL94_USB_Composite/COMPOSITE/Target/usbd_conf.c ****   USBD_LL_DataInStage((USBD_HandleTypeDef *)hpcd->pData, epnum, hpcd->IN_ep[epnum].xfer_buff);
 143              		.loc 1 131 3 is_stmt 1 view .LVU16
 144 0002 01EB8103 		add	r3, r1, r1, lsl #2
 145 0006 00EBC303 		add	r3, r0, r3, lsl #3
 146 000a 5A6A     		ldr	r2, [r3, #36]
 147 000c D0F8D802 		ldr	r0, [r0, #728]
 148              	.LVL9:
 149              		.loc 1 131 3 is_stmt 0 view .LVU17
 150 0010 FFF7FEFF 		bl	USBD_LL_DataInStage
 151              	.LVL10:
 132:Middlewares/Third_Party/AL94_USB_Composite/COMPOSITE/Target/usbd_conf.c **** }
 152              		.loc 1 132 1 view .LVU18
 153 0014 08BD     		pop	{r3, pc}
 154              		.cfi_endproc
 155              	.LFE1420:
 157              		.section	.text.HAL_PCD_SOFCallback,"ax",%progbits
 158              		.align	1
 159              		.global	HAL_PCD_SOFCallback
 160              		.syntax unified
 161              		.thumb
 162              		.thumb_func
 164              	HAL_PCD_SOFCallback:
ARM GAS  C:\Users\Nathan\AppData\Local\Temp\ccCDfMpd.s 			page 6


 165              	.LVL11:
 166              	.LFB1421:
 133:Middlewares/Third_Party/AL94_USB_Composite/COMPOSITE/Target/usbd_conf.c **** 
 134:Middlewares/Third_Party/AL94_USB_Composite/COMPOSITE/Target/usbd_conf.c **** /**
 135:Middlewares/Third_Party/AL94_USB_Composite/COMPOSITE/Target/usbd_conf.c ****   * @brief  SOF callback.
 136:Middlewares/Third_Party/AL94_USB_Composite/COMPOSITE/Target/usbd_conf.c ****   * @param  hpcd: PCD handle
 137:Middlewares/Third_Party/AL94_USB_Composite/COMPOSITE/Target/usbd_conf.c ****   * @retval None
 138:Middlewares/Third_Party/AL94_USB_Composite/COMPOSITE/Target/usbd_conf.c ****   */
 139:Middlewares/Third_Party/AL94_USB_Composite/COMPOSITE/Target/usbd_conf.c **** #if (USE_HAL_PCD_REGISTER_CALLBACKS == 1U)
 140:Middlewares/Third_Party/AL94_USB_Composite/COMPOSITE/Target/usbd_conf.c **** static void PCD_SOFCallback(PCD_HandleTypeDef *hpcd)
 141:Middlewares/Third_Party/AL94_USB_Composite/COMPOSITE/Target/usbd_conf.c **** #else
 142:Middlewares/Third_Party/AL94_USB_Composite/COMPOSITE/Target/usbd_conf.c **** void HAL_PCD_SOFCallback(PCD_HandleTypeDef *hpcd)
 143:Middlewares/Third_Party/AL94_USB_Composite/COMPOSITE/Target/usbd_conf.c **** #endif /* USE_HAL_PCD_REGISTER_CALLBACKS */
 144:Middlewares/Third_Party/AL94_USB_Composite/COMPOSITE/Target/usbd_conf.c **** {
 167              		.loc 1 144 1 is_stmt 1 view -0
 168              		.cfi_startproc
 169              		@ args = 0, pretend = 0, frame = 0
 170              		@ frame_needed = 0, uses_anonymous_args = 0
 171              		.loc 1 144 1 is_stmt 0 view .LVU20
 172 0000 08B5     		push	{r3, lr}
 173              		.cfi_def_cfa_offset 8
 174              		.cfi_offset 3, -8
 175              		.cfi_offset 14, -4
 145:Middlewares/Third_Party/AL94_USB_Composite/COMPOSITE/Target/usbd_conf.c ****   USBD_LL_SOF((USBD_HandleTypeDef *)hpcd->pData);
 176              		.loc 1 145 3 is_stmt 1 view .LVU21
 177 0002 D0F8D802 		ldr	r0, [r0, #728]
 178              	.LVL12:
 179              		.loc 1 145 3 is_stmt 0 view .LVU22
 180 0006 FFF7FEFF 		bl	USBD_LL_SOF
 181              	.LVL13:
 146:Middlewares/Third_Party/AL94_USB_Composite/COMPOSITE/Target/usbd_conf.c **** }
 182              		.loc 1 146 1 view .LVU23
 183 000a 08BD     		pop	{r3, pc}
 184              		.cfi_endproc
 185              	.LFE1421:
 187              		.section	.text.HAL_PCD_ResetCallback,"ax",%progbits
 188              		.align	1
 189              		.global	HAL_PCD_ResetCallback
 190              		.syntax unified
 191              		.thumb
 192              		.thumb_func
 194              	HAL_PCD_ResetCallback:
 195              	.LVL14:
 196              	.LFB1422:
 147:Middlewares/Third_Party/AL94_USB_Composite/COMPOSITE/Target/usbd_conf.c **** 
 148:Middlewares/Third_Party/AL94_USB_Composite/COMPOSITE/Target/usbd_conf.c **** /**
 149:Middlewares/Third_Party/AL94_USB_Composite/COMPOSITE/Target/usbd_conf.c ****   * @brief  Reset callback.
 150:Middlewares/Third_Party/AL94_USB_Composite/COMPOSITE/Target/usbd_conf.c ****   * @param  hpcd: PCD handle
 151:Middlewares/Third_Party/AL94_USB_Composite/COMPOSITE/Target/usbd_conf.c ****   * @retval None
 152:Middlewares/Third_Party/AL94_USB_Composite/COMPOSITE/Target/usbd_conf.c ****   */
 153:Middlewares/Third_Party/AL94_USB_Composite/COMPOSITE/Target/usbd_conf.c **** #if (USE_HAL_PCD_REGISTER_CALLBACKS == 1U)
 154:Middlewares/Third_Party/AL94_USB_Composite/COMPOSITE/Target/usbd_conf.c **** static void PCD_ResetCallback(PCD_HandleTypeDef *hpcd)
 155:Middlewares/Third_Party/AL94_USB_Composite/COMPOSITE/Target/usbd_conf.c **** #else
 156:Middlewares/Third_Party/AL94_USB_Composite/COMPOSITE/Target/usbd_conf.c **** void HAL_PCD_ResetCallback(PCD_HandleTypeDef *hpcd)
 157:Middlewares/Third_Party/AL94_USB_Composite/COMPOSITE/Target/usbd_conf.c **** #endif /* USE_HAL_PCD_REGISTER_CALLBACKS */
 158:Middlewares/Third_Party/AL94_USB_Composite/COMPOSITE/Target/usbd_conf.c **** {
 197              		.loc 1 158 1 is_stmt 1 view -0
ARM GAS  C:\Users\Nathan\AppData\Local\Temp\ccCDfMpd.s 			page 7


 198              		.cfi_startproc
 199              		@ args = 0, pretend = 0, frame = 0
 200              		@ frame_needed = 0, uses_anonymous_args = 0
 201              		.loc 1 158 1 is_stmt 0 view .LVU25
 202 0000 10B5     		push	{r4, lr}
 203              		.cfi_def_cfa_offset 8
 204              		.cfi_offset 4, -8
 205              		.cfi_offset 14, -4
 206 0002 0446     		mov	r4, r0
 159:Middlewares/Third_Party/AL94_USB_Composite/COMPOSITE/Target/usbd_conf.c ****   USBD_SpeedTypeDef speed = USBD_SPEED_FULL;
 207              		.loc 1 159 3 is_stmt 1 view .LVU26
 208              	.LVL15:
 160:Middlewares/Third_Party/AL94_USB_Composite/COMPOSITE/Target/usbd_conf.c **** 
 161:Middlewares/Third_Party/AL94_USB_Composite/COMPOSITE/Target/usbd_conf.c ****   if (hpcd->Init.speed == PCD_SPEED_FULL)
 209              		.loc 1 161 3 view .LVU27
 210              		.loc 1 161 17 is_stmt 0 view .LVU28
 211 0004 4379     		ldrb	r3, [r0, #5]	@ zero_extendqisi2
 212              		.loc 1 161 6 view .LVU29
 213 0006 022B     		cmp	r3, #2
 214 0008 09D1     		bne	.L14
 215              	.LVL16:
 216              	.L12:
 162:Middlewares/Third_Party/AL94_USB_Composite/COMPOSITE/Target/usbd_conf.c ****   {
 163:Middlewares/Third_Party/AL94_USB_Composite/COMPOSITE/Target/usbd_conf.c ****     speed = USBD_SPEED_FULL; 
 164:Middlewares/Third_Party/AL94_USB_Composite/COMPOSITE/Target/usbd_conf.c ****   }
 165:Middlewares/Third_Party/AL94_USB_Composite/COMPOSITE/Target/usbd_conf.c ****   #if(!STM32F1_DEVICE)
 166:Middlewares/Third_Party/AL94_USB_Composite/COMPOSITE/Target/usbd_conf.c ****   else if (hpcd->Init.speed == PCD_SPEED_HIGH)
 167:Middlewares/Third_Party/AL94_USB_Composite/COMPOSITE/Target/usbd_conf.c ****   {
 168:Middlewares/Third_Party/AL94_USB_Composite/COMPOSITE/Target/usbd_conf.c ****     speed = USBD_SPEED_HIGH;
 169:Middlewares/Third_Party/AL94_USB_Composite/COMPOSITE/Target/usbd_conf.c ****   }
 170:Middlewares/Third_Party/AL94_USB_Composite/COMPOSITE/Target/usbd_conf.c ****   #endif
 171:Middlewares/Third_Party/AL94_USB_Composite/COMPOSITE/Target/usbd_conf.c ****   else
 172:Middlewares/Third_Party/AL94_USB_Composite/COMPOSITE/Target/usbd_conf.c ****   {
 173:Middlewares/Third_Party/AL94_USB_Composite/COMPOSITE/Target/usbd_conf.c ****     Error_Handler();
 174:Middlewares/Third_Party/AL94_USB_Composite/COMPOSITE/Target/usbd_conf.c ****   }
 175:Middlewares/Third_Party/AL94_USB_Composite/COMPOSITE/Target/usbd_conf.c ****   /* Set Speed. */
 176:Middlewares/Third_Party/AL94_USB_Composite/COMPOSITE/Target/usbd_conf.c ****   USBD_LL_SetSpeed((USBD_HandleTypeDef *)hpcd->pData, speed);
 217              		.loc 1 176 3 is_stmt 1 view .LVU30
 218 000a 0121     		movs	r1, #1
 219 000c D4F8D802 		ldr	r0, [r4, #728]
 220 0010 FFF7FEFF 		bl	USBD_LL_SetSpeed
 221              	.LVL17:
 177:Middlewares/Third_Party/AL94_USB_Composite/COMPOSITE/Target/usbd_conf.c **** 
 178:Middlewares/Third_Party/AL94_USB_Composite/COMPOSITE/Target/usbd_conf.c ****   /* Reset Device. */
 179:Middlewares/Third_Party/AL94_USB_Composite/COMPOSITE/Target/usbd_conf.c ****   USBD_LL_Reset((USBD_HandleTypeDef *)hpcd->pData);
 222              		.loc 1 179 3 view .LVU31
 223 0014 D4F8D802 		ldr	r0, [r4, #728]
 224 0018 FFF7FEFF 		bl	USBD_LL_Reset
 225              	.LVL18:
 180:Middlewares/Third_Party/AL94_USB_Composite/COMPOSITE/Target/usbd_conf.c **** }
 226              		.loc 1 180 1 is_stmt 0 view .LVU32
 227 001c 10BD     		pop	{r4, pc}
 228              	.LVL19:
 229              	.L14:
 173:Middlewares/Third_Party/AL94_USB_Composite/COMPOSITE/Target/usbd_conf.c ****   }
 230              		.loc 1 173 5 is_stmt 1 view .LVU33
 231 001e FFF7FEFF 		bl	Error_Handler
ARM GAS  C:\Users\Nathan\AppData\Local\Temp\ccCDfMpd.s 			page 8


 232              	.LVL20:
 173:Middlewares/Third_Party/AL94_USB_Composite/COMPOSITE/Target/usbd_conf.c ****   }
 233              		.loc 1 173 5 is_stmt 0 view .LVU34
 234 0022 F2E7     		b	.L12
 235              		.cfi_endproc
 236              	.LFE1422:
 238              		.section	.text.HAL_PCD_SuspendCallback,"ax",%progbits
 239              		.align	1
 240              		.global	HAL_PCD_SuspendCallback
 241              		.syntax unified
 242              		.thumb
 243              		.thumb_func
 245              	HAL_PCD_SuspendCallback:
 246              	.LVL21:
 247              	.LFB1423:
 181:Middlewares/Third_Party/AL94_USB_Composite/COMPOSITE/Target/usbd_conf.c **** 
 182:Middlewares/Third_Party/AL94_USB_Composite/COMPOSITE/Target/usbd_conf.c **** /**
 183:Middlewares/Third_Party/AL94_USB_Composite/COMPOSITE/Target/usbd_conf.c ****   * @brief  Suspend callback.
 184:Middlewares/Third_Party/AL94_USB_Composite/COMPOSITE/Target/usbd_conf.c ****   * When Low power mode is enabled the debug cannot be used (IAR, Keil doesn't support it)
 185:Middlewares/Third_Party/AL94_USB_Composite/COMPOSITE/Target/usbd_conf.c ****   * @param  hpcd: PCD handle
 186:Middlewares/Third_Party/AL94_USB_Composite/COMPOSITE/Target/usbd_conf.c ****   * @retval None
 187:Middlewares/Third_Party/AL94_USB_Composite/COMPOSITE/Target/usbd_conf.c ****   */
 188:Middlewares/Third_Party/AL94_USB_Composite/COMPOSITE/Target/usbd_conf.c **** #if (USE_HAL_PCD_REGISTER_CALLBACKS == 1U)
 189:Middlewares/Third_Party/AL94_USB_Composite/COMPOSITE/Target/usbd_conf.c **** static void PCD_SuspendCallback(PCD_HandleTypeDef *hpcd)
 190:Middlewares/Third_Party/AL94_USB_Composite/COMPOSITE/Target/usbd_conf.c **** #else
 191:Middlewares/Third_Party/AL94_USB_Composite/COMPOSITE/Target/usbd_conf.c **** void HAL_PCD_SuspendCallback(PCD_HandleTypeDef *hpcd)
 192:Middlewares/Third_Party/AL94_USB_Composite/COMPOSITE/Target/usbd_conf.c **** #endif /* USE_HAL_PCD_REGISTER_CALLBACKS */
 193:Middlewares/Third_Party/AL94_USB_Composite/COMPOSITE/Target/usbd_conf.c **** {
 248              		.loc 1 193 1 is_stmt 1 view -0
 249              		.cfi_startproc
 250              		@ args = 0, pretend = 0, frame = 0
 251              		@ frame_needed = 0, uses_anonymous_args = 0
 252              		.loc 1 193 1 is_stmt 0 view .LVU36
 253 0000 08B5     		push	{r3, lr}
 254              		.cfi_def_cfa_offset 8
 255              		.cfi_offset 3, -8
 256              		.cfi_offset 14, -4
 194:Middlewares/Third_Party/AL94_USB_Composite/COMPOSITE/Target/usbd_conf.c ****   /* Inform USB library that core enters in suspend Mode. */
 195:Middlewares/Third_Party/AL94_USB_Composite/COMPOSITE/Target/usbd_conf.c ****   USBD_LL_Suspend((USBD_HandleTypeDef *)hpcd->pData);
 257              		.loc 1 195 3 is_stmt 1 view .LVU37
 258 0002 D0F8D802 		ldr	r0, [r0, #728]
 259              	.LVL22:
 260              		.loc 1 195 3 is_stmt 0 view .LVU38
 261 0006 FFF7FEFF 		bl	USBD_LL_Suspend
 262              	.LVL23:
 196:Middlewares/Third_Party/AL94_USB_Composite/COMPOSITE/Target/usbd_conf.c **** #if (!STM32F1_DEVICE)
 197:Middlewares/Third_Party/AL94_USB_Composite/COMPOSITE/Target/usbd_conf.c ****   __HAL_PCD_GATE_PHYCLOCK(hpcd);
 198:Middlewares/Third_Party/AL94_USB_Composite/COMPOSITE/Target/usbd_conf.c ****   /* Enter in STOP mode. */
 199:Middlewares/Third_Party/AL94_USB_Composite/COMPOSITE/Target/usbd_conf.c ****   /* USER CODE BEGIN 2 */
 200:Middlewares/Third_Party/AL94_USB_Composite/COMPOSITE/Target/usbd_conf.c ****   if (hpcd->Init.low_power_enable)
 201:Middlewares/Third_Party/AL94_USB_Composite/COMPOSITE/Target/usbd_conf.c ****   {
 202:Middlewares/Third_Party/AL94_USB_Composite/COMPOSITE/Target/usbd_conf.c ****     /* Set SLEEPDEEP bit and SleepOnExit of Cortex System Control Register. */
 203:Middlewares/Third_Party/AL94_USB_Composite/COMPOSITE/Target/usbd_conf.c ****     SCB->SCR |= (uint32_t)((uint32_t)(SCB_SCR_SLEEPDEEP_Msk | SCB_SCR_SLEEPONEXIT_Msk));
 204:Middlewares/Third_Party/AL94_USB_Composite/COMPOSITE/Target/usbd_conf.c ****   }
 205:Middlewares/Third_Party/AL94_USB_Composite/COMPOSITE/Target/usbd_conf.c **** #endif
 206:Middlewares/Third_Party/AL94_USB_Composite/COMPOSITE/Target/usbd_conf.c ****   /* USER CODE END 2 */
 207:Middlewares/Third_Party/AL94_USB_Composite/COMPOSITE/Target/usbd_conf.c **** }
ARM GAS  C:\Users\Nathan\AppData\Local\Temp\ccCDfMpd.s 			page 9


 263              		.loc 1 207 1 view .LVU39
 264 000a 08BD     		pop	{r3, pc}
 265              		.cfi_endproc
 266              	.LFE1423:
 268              		.section	.text.HAL_PCD_ResumeCallback,"ax",%progbits
 269              		.align	1
 270              		.global	HAL_PCD_ResumeCallback
 271              		.syntax unified
 272              		.thumb
 273              		.thumb_func
 275              	HAL_PCD_ResumeCallback:
 276              	.LVL24:
 277              	.LFB1424:
 208:Middlewares/Third_Party/AL94_USB_Composite/COMPOSITE/Target/usbd_conf.c **** 
 209:Middlewares/Third_Party/AL94_USB_Composite/COMPOSITE/Target/usbd_conf.c **** /**
 210:Middlewares/Third_Party/AL94_USB_Composite/COMPOSITE/Target/usbd_conf.c ****   * @brief  Resume callback.
 211:Middlewares/Third_Party/AL94_USB_Composite/COMPOSITE/Target/usbd_conf.c ****   * When Low power mode is enabled the debug cannot be used (IAR, Keil doesn't support it)
 212:Middlewares/Third_Party/AL94_USB_Composite/COMPOSITE/Target/usbd_conf.c ****   * @param  hpcd: PCD handle
 213:Middlewares/Third_Party/AL94_USB_Composite/COMPOSITE/Target/usbd_conf.c ****   * @retval None
 214:Middlewares/Third_Party/AL94_USB_Composite/COMPOSITE/Target/usbd_conf.c ****   */
 215:Middlewares/Third_Party/AL94_USB_Composite/COMPOSITE/Target/usbd_conf.c **** #if (USE_HAL_PCD_REGISTER_CALLBACKS == 1U)
 216:Middlewares/Third_Party/AL94_USB_Composite/COMPOSITE/Target/usbd_conf.c **** static void PCD_ResumeCallback(PCD_HandleTypeDef *hpcd)
 217:Middlewares/Third_Party/AL94_USB_Composite/COMPOSITE/Target/usbd_conf.c **** #else
 218:Middlewares/Third_Party/AL94_USB_Composite/COMPOSITE/Target/usbd_conf.c **** void HAL_PCD_ResumeCallback(PCD_HandleTypeDef *hpcd)
 219:Middlewares/Third_Party/AL94_USB_Composite/COMPOSITE/Target/usbd_conf.c **** #endif /* USE_HAL_PCD_REGISTER_CALLBACKS */
 220:Middlewares/Third_Party/AL94_USB_Composite/COMPOSITE/Target/usbd_conf.c **** {
 278              		.loc 1 220 1 is_stmt 1 view -0
 279              		.cfi_startproc
 280              		@ args = 0, pretend = 0, frame = 0
 281              		@ frame_needed = 0, uses_anonymous_args = 0
 282              		.loc 1 220 1 is_stmt 0 view .LVU41
 283 0000 08B5     		push	{r3, lr}
 284              		.cfi_def_cfa_offset 8
 285              		.cfi_offset 3, -8
 286              		.cfi_offset 14, -4
 221:Middlewares/Third_Party/AL94_USB_Composite/COMPOSITE/Target/usbd_conf.c ****   /* USER CODE BEGIN 3 */
 222:Middlewares/Third_Party/AL94_USB_Composite/COMPOSITE/Target/usbd_conf.c **** 
 223:Middlewares/Third_Party/AL94_USB_Composite/COMPOSITE/Target/usbd_conf.c ****   /* USER CODE END 3 */
 224:Middlewares/Third_Party/AL94_USB_Composite/COMPOSITE/Target/usbd_conf.c ****   USBD_LL_Resume((USBD_HandleTypeDef *)hpcd->pData);
 287              		.loc 1 224 3 is_stmt 1 view .LVU42
 288 0002 D0F8D802 		ldr	r0, [r0, #728]
 289              	.LVL25:
 290              		.loc 1 224 3 is_stmt 0 view .LVU43
 291 0006 FFF7FEFF 		bl	USBD_LL_Resume
 292              	.LVL26:
 225:Middlewares/Third_Party/AL94_USB_Composite/COMPOSITE/Target/usbd_conf.c **** }
 293              		.loc 1 225 1 view .LVU44
 294 000a 08BD     		pop	{r3, pc}
 295              		.cfi_endproc
 296              	.LFE1424:
 298              		.section	.text.HAL_PCD_ISOOUTIncompleteCallback,"ax",%progbits
 299              		.align	1
 300              		.global	HAL_PCD_ISOOUTIncompleteCallback
 301              		.syntax unified
 302              		.thumb
 303              		.thumb_func
 305              	HAL_PCD_ISOOUTIncompleteCallback:
ARM GAS  C:\Users\Nathan\AppData\Local\Temp\ccCDfMpd.s 			page 10


 306              	.LVL27:
 307              	.LFB1425:
 226:Middlewares/Third_Party/AL94_USB_Composite/COMPOSITE/Target/usbd_conf.c **** 
 227:Middlewares/Third_Party/AL94_USB_Composite/COMPOSITE/Target/usbd_conf.c **** /**
 228:Middlewares/Third_Party/AL94_USB_Composite/COMPOSITE/Target/usbd_conf.c ****   * @brief  ISOOUTIncomplete callback.
 229:Middlewares/Third_Party/AL94_USB_Composite/COMPOSITE/Target/usbd_conf.c ****   * @param  hpcd: PCD handle
 230:Middlewares/Third_Party/AL94_USB_Composite/COMPOSITE/Target/usbd_conf.c ****   * @param  epnum: Endpoint number
 231:Middlewares/Third_Party/AL94_USB_Composite/COMPOSITE/Target/usbd_conf.c ****   * @retval None
 232:Middlewares/Third_Party/AL94_USB_Composite/COMPOSITE/Target/usbd_conf.c ****   */
 233:Middlewares/Third_Party/AL94_USB_Composite/COMPOSITE/Target/usbd_conf.c **** #if (USE_HAL_PCD_REGISTER_CALLBACKS == 1U)
 234:Middlewares/Third_Party/AL94_USB_Composite/COMPOSITE/Target/usbd_conf.c **** static void PCD_ISOOUTIncompleteCallback(PCD_HandleTypeDef *hpcd, uint8_t epnum)
 235:Middlewares/Third_Party/AL94_USB_Composite/COMPOSITE/Target/usbd_conf.c **** #else
 236:Middlewares/Third_Party/AL94_USB_Composite/COMPOSITE/Target/usbd_conf.c **** void HAL_PCD_ISOOUTIncompleteCallback(PCD_HandleTypeDef *hpcd, uint8_t epnum)
 237:Middlewares/Third_Party/AL94_USB_Composite/COMPOSITE/Target/usbd_conf.c **** #endif /* USE_HAL_PCD_REGISTER_CALLBACKS */
 238:Middlewares/Third_Party/AL94_USB_Composite/COMPOSITE/Target/usbd_conf.c **** {
 308              		.loc 1 238 1 is_stmt 1 view -0
 309              		.cfi_startproc
 310              		@ args = 0, pretend = 0, frame = 0
 311              		@ frame_needed = 0, uses_anonymous_args = 0
 312              		.loc 1 238 1 is_stmt 0 view .LVU46
 313 0000 08B5     		push	{r3, lr}
 314              		.cfi_def_cfa_offset 8
 315              		.cfi_offset 3, -8
 316              		.cfi_offset 14, -4
 239:Middlewares/Third_Party/AL94_USB_Composite/COMPOSITE/Target/usbd_conf.c ****   USBD_LL_IsoOUTIncomplete((USBD_HandleTypeDef *)hpcd->pData, epnum);
 317              		.loc 1 239 3 is_stmt 1 view .LVU47
 318 0002 D0F8D802 		ldr	r0, [r0, #728]
 319              	.LVL28:
 320              		.loc 1 239 3 is_stmt 0 view .LVU48
 321 0006 FFF7FEFF 		bl	USBD_LL_IsoOUTIncomplete
 322              	.LVL29:
 240:Middlewares/Third_Party/AL94_USB_Composite/COMPOSITE/Target/usbd_conf.c **** }
 323              		.loc 1 240 1 view .LVU49
 324 000a 08BD     		pop	{r3, pc}
 325              		.cfi_endproc
 326              	.LFE1425:
 328              		.section	.text.HAL_PCD_ISOINIncompleteCallback,"ax",%progbits
 329              		.align	1
 330              		.global	HAL_PCD_ISOINIncompleteCallback
 331              		.syntax unified
 332              		.thumb
 333              		.thumb_func
 335              	HAL_PCD_ISOINIncompleteCallback:
 336              	.LVL30:
 337              	.LFB1426:
 241:Middlewares/Third_Party/AL94_USB_Composite/COMPOSITE/Target/usbd_conf.c **** 
 242:Middlewares/Third_Party/AL94_USB_Composite/COMPOSITE/Target/usbd_conf.c **** /**
 243:Middlewares/Third_Party/AL94_USB_Composite/COMPOSITE/Target/usbd_conf.c ****   * @brief  ISOINIncomplete callback.
 244:Middlewares/Third_Party/AL94_USB_Composite/COMPOSITE/Target/usbd_conf.c ****   * @param  hpcd: PCD handle
 245:Middlewares/Third_Party/AL94_USB_Composite/COMPOSITE/Target/usbd_conf.c ****   * @param  epnum: Endpoint number
 246:Middlewares/Third_Party/AL94_USB_Composite/COMPOSITE/Target/usbd_conf.c ****   * @retval None
 247:Middlewares/Third_Party/AL94_USB_Composite/COMPOSITE/Target/usbd_conf.c ****   */
 248:Middlewares/Third_Party/AL94_USB_Composite/COMPOSITE/Target/usbd_conf.c **** #if (USE_HAL_PCD_REGISTER_CALLBACKS == 1U)
 249:Middlewares/Third_Party/AL94_USB_Composite/COMPOSITE/Target/usbd_conf.c **** static void PCD_ISOINIncompleteCallback(PCD_HandleTypeDef *hpcd, uint8_t epnum)
 250:Middlewares/Third_Party/AL94_USB_Composite/COMPOSITE/Target/usbd_conf.c **** #else
 251:Middlewares/Third_Party/AL94_USB_Composite/COMPOSITE/Target/usbd_conf.c **** void HAL_PCD_ISOINIncompleteCallback(PCD_HandleTypeDef *hpcd, uint8_t epnum)
 252:Middlewares/Third_Party/AL94_USB_Composite/COMPOSITE/Target/usbd_conf.c **** #endif /* USE_HAL_PCD_REGISTER_CALLBACKS */
ARM GAS  C:\Users\Nathan\AppData\Local\Temp\ccCDfMpd.s 			page 11


 253:Middlewares/Third_Party/AL94_USB_Composite/COMPOSITE/Target/usbd_conf.c **** {
 338              		.loc 1 253 1 is_stmt 1 view -0
 339              		.cfi_startproc
 340              		@ args = 0, pretend = 0, frame = 0
 341              		@ frame_needed = 0, uses_anonymous_args = 0
 342              		.loc 1 253 1 is_stmt 0 view .LVU51
 343 0000 08B5     		push	{r3, lr}
 344              		.cfi_def_cfa_offset 8
 345              		.cfi_offset 3, -8
 346              		.cfi_offset 14, -4
 254:Middlewares/Third_Party/AL94_USB_Composite/COMPOSITE/Target/usbd_conf.c ****   USBD_LL_IsoINIncomplete((USBD_HandleTypeDef *)hpcd->pData, epnum);
 347              		.loc 1 254 3 is_stmt 1 view .LVU52
 348 0002 D0F8D802 		ldr	r0, [r0, #728]
 349              	.LVL31:
 350              		.loc 1 254 3 is_stmt 0 view .LVU53
 351 0006 FFF7FEFF 		bl	USBD_LL_IsoINIncomplete
 352              	.LVL32:
 255:Middlewares/Third_Party/AL94_USB_Composite/COMPOSITE/Target/usbd_conf.c **** }
 353              		.loc 1 255 1 view .LVU54
 354 000a 08BD     		pop	{r3, pc}
 355              		.cfi_endproc
 356              	.LFE1426:
 358              		.section	.text.HAL_PCD_ConnectCallback,"ax",%progbits
 359              		.align	1
 360              		.global	HAL_PCD_ConnectCallback
 361              		.syntax unified
 362              		.thumb
 363              		.thumb_func
 365              	HAL_PCD_ConnectCallback:
 366              	.LVL33:
 367              	.LFB1427:
 256:Middlewares/Third_Party/AL94_USB_Composite/COMPOSITE/Target/usbd_conf.c **** 
 257:Middlewares/Third_Party/AL94_USB_Composite/COMPOSITE/Target/usbd_conf.c **** /**
 258:Middlewares/Third_Party/AL94_USB_Composite/COMPOSITE/Target/usbd_conf.c ****   * @brief  Connect callback.
 259:Middlewares/Third_Party/AL94_USB_Composite/COMPOSITE/Target/usbd_conf.c ****   * @param  hpcd: PCD handle
 260:Middlewares/Third_Party/AL94_USB_Composite/COMPOSITE/Target/usbd_conf.c ****   * @retval None
 261:Middlewares/Third_Party/AL94_USB_Composite/COMPOSITE/Target/usbd_conf.c ****   */
 262:Middlewares/Third_Party/AL94_USB_Composite/COMPOSITE/Target/usbd_conf.c **** #if (USE_HAL_PCD_REGISTER_CALLBACKS == 1U)
 263:Middlewares/Third_Party/AL94_USB_Composite/COMPOSITE/Target/usbd_conf.c **** static void PCD_ConnectCallback(PCD_HandleTypeDef *hpcd)
 264:Middlewares/Third_Party/AL94_USB_Composite/COMPOSITE/Target/usbd_conf.c **** #else
 265:Middlewares/Third_Party/AL94_USB_Composite/COMPOSITE/Target/usbd_conf.c **** void HAL_PCD_ConnectCallback(PCD_HandleTypeDef *hpcd)
 266:Middlewares/Third_Party/AL94_USB_Composite/COMPOSITE/Target/usbd_conf.c **** #endif /* USE_HAL_PCD_REGISTER_CALLBACKS */
 267:Middlewares/Third_Party/AL94_USB_Composite/COMPOSITE/Target/usbd_conf.c **** {
 368              		.loc 1 267 1 is_stmt 1 view -0
 369              		.cfi_startproc
 370              		@ args = 0, pretend = 0, frame = 0
 371              		@ frame_needed = 0, uses_anonymous_args = 0
 372              		.loc 1 267 1 is_stmt 0 view .LVU56
 373 0000 08B5     		push	{r3, lr}
 374              		.cfi_def_cfa_offset 8
 375              		.cfi_offset 3, -8
 376              		.cfi_offset 14, -4
 268:Middlewares/Third_Party/AL94_USB_Composite/COMPOSITE/Target/usbd_conf.c ****   USBD_LL_DevConnected((USBD_HandleTypeDef *)hpcd->pData);
 377              		.loc 1 268 3 is_stmt 1 view .LVU57
 378 0002 D0F8D802 		ldr	r0, [r0, #728]
 379              	.LVL34:
 380              		.loc 1 268 3 is_stmt 0 view .LVU58
ARM GAS  C:\Users\Nathan\AppData\Local\Temp\ccCDfMpd.s 			page 12


 381 0006 FFF7FEFF 		bl	USBD_LL_DevConnected
 382              	.LVL35:
 269:Middlewares/Third_Party/AL94_USB_Composite/COMPOSITE/Target/usbd_conf.c **** }
 383              		.loc 1 269 1 view .LVU59
 384 000a 08BD     		pop	{r3, pc}
 385              		.cfi_endproc
 386              	.LFE1427:
 388              		.section	.text.HAL_PCD_DisconnectCallback,"ax",%progbits
 389              		.align	1
 390              		.global	HAL_PCD_DisconnectCallback
 391              		.syntax unified
 392              		.thumb
 393              		.thumb_func
 395              	HAL_PCD_DisconnectCallback:
 396              	.LVL36:
 397              	.LFB1428:
 270:Middlewares/Third_Party/AL94_USB_Composite/COMPOSITE/Target/usbd_conf.c **** 
 271:Middlewares/Third_Party/AL94_USB_Composite/COMPOSITE/Target/usbd_conf.c **** /**
 272:Middlewares/Third_Party/AL94_USB_Composite/COMPOSITE/Target/usbd_conf.c ****   * @brief  Disconnect callback.
 273:Middlewares/Third_Party/AL94_USB_Composite/COMPOSITE/Target/usbd_conf.c ****   * @param  hpcd: PCD handle
 274:Middlewares/Third_Party/AL94_USB_Composite/COMPOSITE/Target/usbd_conf.c ****   * @retval None
 275:Middlewares/Third_Party/AL94_USB_Composite/COMPOSITE/Target/usbd_conf.c ****   */
 276:Middlewares/Third_Party/AL94_USB_Composite/COMPOSITE/Target/usbd_conf.c **** #if (USE_HAL_PCD_REGISTER_CALLBACKS == 1U)
 277:Middlewares/Third_Party/AL94_USB_Composite/COMPOSITE/Target/usbd_conf.c **** static void PCD_DisconnectCallback(PCD_HandleTypeDef *hpcd)
 278:Middlewares/Third_Party/AL94_USB_Composite/COMPOSITE/Target/usbd_conf.c **** #else
 279:Middlewares/Third_Party/AL94_USB_Composite/COMPOSITE/Target/usbd_conf.c **** void HAL_PCD_DisconnectCallback(PCD_HandleTypeDef *hpcd)
 280:Middlewares/Third_Party/AL94_USB_Composite/COMPOSITE/Target/usbd_conf.c **** #endif /* USE_HAL_PCD_REGISTER_CALLBACKS */
 281:Middlewares/Third_Party/AL94_USB_Composite/COMPOSITE/Target/usbd_conf.c **** {
 398              		.loc 1 281 1 is_stmt 1 view -0
 399              		.cfi_startproc
 400              		@ args = 0, pretend = 0, frame = 0
 401              		@ frame_needed = 0, uses_anonymous_args = 0
 402              		.loc 1 281 1 is_stmt 0 view .LVU61
 403 0000 08B5     		push	{r3, lr}
 404              		.cfi_def_cfa_offset 8
 405              		.cfi_offset 3, -8
 406              		.cfi_offset 14, -4
 282:Middlewares/Third_Party/AL94_USB_Composite/COMPOSITE/Target/usbd_conf.c ****   USBD_LL_DevDisconnected((USBD_HandleTypeDef *)hpcd->pData);
 407              		.loc 1 282 3 is_stmt 1 view .LVU62
 408 0002 D0F8D802 		ldr	r0, [r0, #728]
 409              	.LVL37:
 410              		.loc 1 282 3 is_stmt 0 view .LVU63
 411 0006 FFF7FEFF 		bl	USBD_LL_DevDisconnected
 412              	.LVL38:
 283:Middlewares/Third_Party/AL94_USB_Composite/COMPOSITE/Target/usbd_conf.c **** }
 413              		.loc 1 283 1 view .LVU64
 414 000a 08BD     		pop	{r3, pc}
 415              		.cfi_endproc
 416              	.LFE1428:
 418              		.section	.text.USBD_LL_Init,"ax",%progbits
 419              		.align	1
 420              		.global	USBD_LL_Init
 421              		.syntax unified
 422              		.thumb
 423              		.thumb_func
 425              	USBD_LL_Init:
 426              	.LVL39:
ARM GAS  C:\Users\Nathan\AppData\Local\Temp\ccCDfMpd.s 			page 13


 427              	.LFB1429:
 284:Middlewares/Third_Party/AL94_USB_Composite/COMPOSITE/Target/usbd_conf.c **** 
 285:Middlewares/Third_Party/AL94_USB_Composite/COMPOSITE/Target/usbd_conf.c **** /*******************************************************************************
 286:Middlewares/Third_Party/AL94_USB_Composite/COMPOSITE/Target/usbd_conf.c ****                        LL Driver Interface (USB Device Library --> PCD)
 287:Middlewares/Third_Party/AL94_USB_Composite/COMPOSITE/Target/usbd_conf.c **** *******************************************************************************/
 288:Middlewares/Third_Party/AL94_USB_Composite/COMPOSITE/Target/usbd_conf.c **** 
 289:Middlewares/Third_Party/AL94_USB_Composite/COMPOSITE/Target/usbd_conf.c **** /**
 290:Middlewares/Third_Party/AL94_USB_Composite/COMPOSITE/Target/usbd_conf.c ****   * @brief  Initializes the low level portion of the device driver.
 291:Middlewares/Third_Party/AL94_USB_Composite/COMPOSITE/Target/usbd_conf.c ****   * @param  pdev: Device handle
 292:Middlewares/Third_Party/AL94_USB_Composite/COMPOSITE/Target/usbd_conf.c ****   * @retval USBD status
 293:Middlewares/Third_Party/AL94_USB_Composite/COMPOSITE/Target/usbd_conf.c ****   */
 294:Middlewares/Third_Party/AL94_USB_Composite/COMPOSITE/Target/usbd_conf.c **** USBD_StatusTypeDef USBD_LL_Init(USBD_HandleTypeDef *pdev)
 295:Middlewares/Third_Party/AL94_USB_Composite/COMPOSITE/Target/usbd_conf.c **** {
 428              		.loc 1 295 1 is_stmt 1 view -0
 429              		.cfi_startproc
 430              		@ args = 0, pretend = 0, frame = 0
 431              		@ frame_needed = 0, uses_anonymous_args = 0
 432              		.loc 1 295 1 is_stmt 0 view .LVU66
 433 0000 70B5     		push	{r4, r5, r6, lr}
 434              		.cfi_def_cfa_offset 16
 435              		.cfi_offset 4, -16
 436              		.cfi_offset 5, -12
 437              		.cfi_offset 6, -8
 438              		.cfi_offset 14, -4
 296:Middlewares/Third_Party/AL94_USB_Composite/COMPOSITE/Target/usbd_conf.c **** #if (USBD_USE_HS == 1)
 297:Middlewares/Third_Party/AL94_USB_Composite/COMPOSITE/Target/usbd_conf.c ****   /** HIGH SPEED USB */
 298:Middlewares/Third_Party/AL94_USB_Composite/COMPOSITE/Target/usbd_conf.c ****   hpcd_USB_OTG_PTR = &hpcd_USB_OTG_HS;
 299:Middlewares/Third_Party/AL94_USB_Composite/COMPOSITE/Target/usbd_conf.c **** 
 300:Middlewares/Third_Party/AL94_USB_Composite/COMPOSITE/Target/usbd_conf.c ****   if (pdev->id == DEVICE_HS)
 301:Middlewares/Third_Party/AL94_USB_Composite/COMPOSITE/Target/usbd_conf.c ****   {
 302:Middlewares/Third_Party/AL94_USB_Composite/COMPOSITE/Target/usbd_conf.c ****     /* Link the driver to the stack. */
 303:Middlewares/Third_Party/AL94_USB_Composite/COMPOSITE/Target/usbd_conf.c ****     hpcd_USB_OTG_PTR->pData = pdev;
 304:Middlewares/Third_Party/AL94_USB_Composite/COMPOSITE/Target/usbd_conf.c ****     pdev->pData = hpcd_USB_OTG_PTR;
 305:Middlewares/Third_Party/AL94_USB_Composite/COMPOSITE/Target/usbd_conf.c **** 
 306:Middlewares/Third_Party/AL94_USB_Composite/COMPOSITE/Target/usbd_conf.c ****     /* @see HAL_PCD_Init() usb_otg.c generated by cube **/
 307:Middlewares/Third_Party/AL94_USB_Composite/COMPOSITE/Target/usbd_conf.c **** 
 308:Middlewares/Third_Party/AL94_USB_Composite/COMPOSITE/Target/usbd_conf.c ****     HAL_PCDEx_SetRxFiFoInBytes(hpcd_USB_OTG_PTR, 1024);
 309:Middlewares/Third_Party/AL94_USB_Composite/COMPOSITE/Target/usbd_conf.c **** 
 310:Middlewares/Third_Party/AL94_USB_Composite/COMPOSITE/Target/usbd_conf.c ****     HAL_PCDEx_SetTxFiFoInBytes(hpcd_USB_OTG_PTR, 0, 64); // EP0 IN
 311:Middlewares/Third_Party/AL94_USB_Composite/COMPOSITE/Target/usbd_conf.c **** 
 312:Middlewares/Third_Party/AL94_USB_Composite/COMPOSITE/Target/usbd_conf.c **** #if (USBD_USE_CDC_RNDIS == 1)
 313:Middlewares/Third_Party/AL94_USB_Composite/COMPOSITE/Target/usbd_conf.c ****     HAL_PCDEx_SetTxFiFoInBytes(hpcd_USB_OTG_PTR, (CDC_RNDIS_IN_EP & 0x7F), 128);
 314:Middlewares/Third_Party/AL94_USB_Composite/COMPOSITE/Target/usbd_conf.c ****     HAL_PCDEx_SetTxFiFoInBytes(hpcd_USB_OTG_PTR, (CDC_RNDIS_CMD_EP & 0x7F), 64);
 315:Middlewares/Third_Party/AL94_USB_Composite/COMPOSITE/Target/usbd_conf.c **** #endif
 316:Middlewares/Third_Party/AL94_USB_Composite/COMPOSITE/Target/usbd_conf.c **** #if (USBD_USE_CDC_ECM == 1)
 317:Middlewares/Third_Party/AL94_USB_Composite/COMPOSITE/Target/usbd_conf.c ****     HAL_PCDEx_SetTxFiFoInBytes(hpcd_USB_OTG_PTR, (CDC_ECM_IN_EP & 0x7F), 128);
 318:Middlewares/Third_Party/AL94_USB_Composite/COMPOSITE/Target/usbd_conf.c ****     HAL_PCDEx_SetTxFiFoInBytes(hpcd_USB_OTG_PTR, (CDC_ECM_CMD_EP & 0x7F), 64);
 319:Middlewares/Third_Party/AL94_USB_Composite/COMPOSITE/Target/usbd_conf.c **** #endif
 320:Middlewares/Third_Party/AL94_USB_Composite/COMPOSITE/Target/usbd_conf.c **** #if (USBD_USE_HID_MOUSE == 1)
 321:Middlewares/Third_Party/AL94_USB_Composite/COMPOSITE/Target/usbd_conf.c ****     HAL_PCDEx_SetTxFiFoInBytes(hpcd_USB_OTG_PTR, (HID_MOUSE_IN_EP & 0x7F), 64);
 322:Middlewares/Third_Party/AL94_USB_Composite/COMPOSITE/Target/usbd_conf.c **** #endif
 323:Middlewares/Third_Party/AL94_USB_Composite/COMPOSITE/Target/usbd_conf.c **** #if (USBD_USE_HID_KEYBOARD == 1)
 324:Middlewares/Third_Party/AL94_USB_Composite/COMPOSITE/Target/usbd_conf.c ****     HAL_PCDEx_SetTxFiFoInBytes(hpcd_USB_OTG_PTR, (HID_KEYBOARD_IN_EP & 0x7F), 64);
 325:Middlewares/Third_Party/AL94_USB_Composite/COMPOSITE/Target/usbd_conf.c **** #endif
 326:Middlewares/Third_Party/AL94_USB_Composite/COMPOSITE/Target/usbd_conf.c **** #if (USBD_USE_HID_CUSTOM == 1)
 327:Middlewares/Third_Party/AL94_USB_Composite/COMPOSITE/Target/usbd_conf.c ****     HAL_PCDEx_SetTxFiFoInBytes(hpcd_USB_OTG_PTR, (CUSTOM_HID_IN_EP & 0x7F), 64);
 328:Middlewares/Third_Party/AL94_USB_Composite/COMPOSITE/Target/usbd_conf.c **** #endif
ARM GAS  C:\Users\Nathan\AppData\Local\Temp\ccCDfMpd.s 			page 14


 329:Middlewares/Third_Party/AL94_USB_Composite/COMPOSITE/Target/usbd_conf.c **** #if (USBD_USE_UAC_MIC == 1)
 330:Middlewares/Third_Party/AL94_USB_Composite/COMPOSITE/Target/usbd_conf.c ****     HAL_PCDEx_SetTxFiFoInBytes(hpcd_USB_OTG_PTR, (AUDIO_MIC_EP & 0x7F), 128);
 331:Middlewares/Third_Party/AL94_USB_Composite/COMPOSITE/Target/usbd_conf.c **** #endif
 332:Middlewares/Third_Party/AL94_USB_Composite/COMPOSITE/Target/usbd_conf.c **** #if (USBD_USE_UAC_SPKR == 1)
 333:Middlewares/Third_Party/AL94_USB_Composite/COMPOSITE/Target/usbd_conf.c **** #endif
 334:Middlewares/Third_Party/AL94_USB_Composite/COMPOSITE/Target/usbd_conf.c **** #if (USBD_USE_UVC == 1)
 335:Middlewares/Third_Party/AL94_USB_Composite/COMPOSITE/Target/usbd_conf.c ****     HAL_PCDEx_SetTxFiFoInBytes(hpcd_USB_OTG_PTR, (UVC_IN_EP & 0x7F), 128);
 336:Middlewares/Third_Party/AL94_USB_Composite/COMPOSITE/Target/usbd_conf.c **** #endif
 337:Middlewares/Third_Party/AL94_USB_Composite/COMPOSITE/Target/usbd_conf.c **** #if (USBD_USE_MSC == 1)
 338:Middlewares/Third_Party/AL94_USB_Composite/COMPOSITE/Target/usbd_conf.c ****     HAL_PCDEx_SetTxFiFoInBytes(hpcd_USB_OTG_PTR, (MSC_IN_EP & 0x7F), 128);
 339:Middlewares/Third_Party/AL94_USB_Composite/COMPOSITE/Target/usbd_conf.c **** #endif
 340:Middlewares/Third_Party/AL94_USB_Composite/COMPOSITE/Target/usbd_conf.c **** #if (USBD_USE_DFU == 1)
 341:Middlewares/Third_Party/AL94_USB_Composite/COMPOSITE/Target/usbd_conf.c **** #endif
 342:Middlewares/Third_Party/AL94_USB_Composite/COMPOSITE/Target/usbd_conf.c **** #if (USBD_USE_PRNTR == 1)
 343:Middlewares/Third_Party/AL94_USB_Composite/COMPOSITE/Target/usbd_conf.c ****     HAL_PCDEx_SetTxFiFoInBytes(hpcd_USB_OTG_PTR, (PRNT_IN_EP & 0x7F), 128);
 344:Middlewares/Third_Party/AL94_USB_Composite/COMPOSITE/Target/usbd_conf.c **** #endif
 345:Middlewares/Third_Party/AL94_USB_Composite/COMPOSITE/Target/usbd_conf.c **** #if (USBD_USE_CDC_ACM == 1)
 346:Middlewares/Third_Party/AL94_USB_Composite/COMPOSITE/Target/usbd_conf.c ****     for (uint8_t i = 0; i < USBD_CDC_ACM_COUNT; i++)
 347:Middlewares/Third_Party/AL94_USB_Composite/COMPOSITE/Target/usbd_conf.c ****     {
 348:Middlewares/Third_Party/AL94_USB_Composite/COMPOSITE/Target/usbd_conf.c ****       HAL_PCDEx_SetTxFiFoInBytes(hpcd_USB_OTG_PTR, (CDC_IN_EP[i] & 0x7F), 128);
 349:Middlewares/Third_Party/AL94_USB_Composite/COMPOSITE/Target/usbd_conf.c ****       HAL_PCDEx_SetTxFiFoInBytes(hpcd_USB_OTG_PTR, (CDC_CMD_EP[i] & 0x7F), 64);
 350:Middlewares/Third_Party/AL94_USB_Composite/COMPOSITE/Target/usbd_conf.c ****     }
 351:Middlewares/Third_Party/AL94_USB_Composite/COMPOSITE/Target/usbd_conf.c **** #endif
 352:Middlewares/Third_Party/AL94_USB_Composite/COMPOSITE/Target/usbd_conf.c ****   }
 353:Middlewares/Third_Party/AL94_USB_Composite/COMPOSITE/Target/usbd_conf.c **** #else
 354:Middlewares/Third_Party/AL94_USB_Composite/COMPOSITE/Target/usbd_conf.c ****   /**FULL SPEED USB */
 355:Middlewares/Third_Party/AL94_USB_Composite/COMPOSITE/Target/usbd_conf.c **** #if (STM32F1_DEVICE) /** for STM32F1 or similar */
 356:Middlewares/Third_Party/AL94_USB_Composite/COMPOSITE/Target/usbd_conf.c ****   hpcd_USB_OTG_PTR = &hpcd_USB_FS;  /** hpcd_USB_FS or hpcd_USB_OTG_FS*/
 439              		.loc 1 356 3 is_stmt 1 view .LVU67
 440              		.loc 1 356 20 is_stmt 0 view .LVU68
 441 0002 2A4B     		ldr	r3, .L33
 442 0004 2A4A     		ldr	r2, .L33+4
 443 0006 1A60     		str	r2, [r3]
 357:Middlewares/Third_Party/AL94_USB_Composite/COMPOSITE/Target/usbd_conf.c **** #else
 358:Middlewares/Third_Party/AL94_USB_Composite/COMPOSITE/Target/usbd_conf.c ****   hpcd_USB_OTG_PTR = &hpcd_USB_OTG_FS;  /** hpcd_USB_FS or hpcd_USB_OTG_FS*/
 359:Middlewares/Third_Party/AL94_USB_Composite/COMPOSITE/Target/usbd_conf.c **** #endif
 360:Middlewares/Third_Party/AL94_USB_Composite/COMPOSITE/Target/usbd_conf.c **** 
 361:Middlewares/Third_Party/AL94_USB_Composite/COMPOSITE/Target/usbd_conf.c ****   if (pdev->id == DEVICE_FS)
 444              		.loc 1 361 3 is_stmt 1 view .LVU69
 445              		.loc 1 361 11 is_stmt 0 view .LVU70
 446 0008 0578     		ldrb	r5, [r0]	@ zero_extendqisi2
 447              		.loc 1 361 6 view .LVU71
 448 000a 0DB1     		cbz	r5, .L32
 449              	.LVL40:
 450              	.L28:
 362:Middlewares/Third_Party/AL94_USB_Composite/COMPOSITE/Target/usbd_conf.c ****   {
 363:Middlewares/Third_Party/AL94_USB_Composite/COMPOSITE/Target/usbd_conf.c ****     /* Link the driver to the stack. */
 364:Middlewares/Third_Party/AL94_USB_Composite/COMPOSITE/Target/usbd_conf.c ****     hpcd_USB_OTG_PTR->pData = pdev;
 365:Middlewares/Third_Party/AL94_USB_Composite/COMPOSITE/Target/usbd_conf.c ****     pdev->pData = hpcd_USB_OTG_PTR;
 366:Middlewares/Third_Party/AL94_USB_Composite/COMPOSITE/Target/usbd_conf.c **** 
 367:Middlewares/Third_Party/AL94_USB_Composite/COMPOSITE/Target/usbd_conf.c ****     /* @see HAL_PCD_Init() usb_otg.c generated by cube **/
 368:Middlewares/Third_Party/AL94_USB_Composite/COMPOSITE/Target/usbd_conf.c **** 
 369:Middlewares/Third_Party/AL94_USB_Composite/COMPOSITE/Target/usbd_conf.c **** #if (STM32F1_DEVICE)
 370:Middlewares/Third_Party/AL94_USB_Composite/COMPOSITE/Target/usbd_conf.c ****     /** Device is F1 or similar or if HAL_PCDEx_PMAConfig() is used by HAL driver */
 371:Middlewares/Third_Party/AL94_USB_Composite/COMPOSITE/Target/usbd_conf.c ****     uint16_t pma_track = 0x40; /** PMA offset*/
 372:Middlewares/Third_Party/AL94_USB_Composite/COMPOSITE/Target/usbd_conf.c **** 
 373:Middlewares/Third_Party/AL94_USB_Composite/COMPOSITE/Target/usbd_conf.c ****     HAL_PCDEx_PMAConfig((PCD_HandleTypeDef *)pdev->pData, 0x00, PCD_SNG_BUF, pma_track);
ARM GAS  C:\Users\Nathan\AppData\Local\Temp\ccCDfMpd.s 			page 15


 374:Middlewares/Third_Party/AL94_USB_Composite/COMPOSITE/Target/usbd_conf.c ****     pma_track += 0x40;
 375:Middlewares/Third_Party/AL94_USB_Composite/COMPOSITE/Target/usbd_conf.c **** 
 376:Middlewares/Third_Party/AL94_USB_Composite/COMPOSITE/Target/usbd_conf.c ****     HAL_PCDEx_PMAConfig((PCD_HandleTypeDef *)pdev->pData, 0x80, PCD_SNG_BUF, pma_track);
 377:Middlewares/Third_Party/AL94_USB_Composite/COMPOSITE/Target/usbd_conf.c ****     pma_track += 0x40;
 378:Middlewares/Third_Party/AL94_USB_Composite/COMPOSITE/Target/usbd_conf.c **** 
 379:Middlewares/Third_Party/AL94_USB_Composite/COMPOSITE/Target/usbd_conf.c **** #if (USBD_USE_CDC_RNDIS == 1)
 380:Middlewares/Third_Party/AL94_USB_Composite/COMPOSITE/Target/usbd_conf.c ****     HAL_PCDEx_PMAConfig((PCD_HandleTypeDef *)pdev->pData, CDC_RNDIS_IN_EP, PCD_SNG_BUF, pma_track);
 381:Middlewares/Third_Party/AL94_USB_Composite/COMPOSITE/Target/usbd_conf.c ****     pma_track += 128;
 382:Middlewares/Third_Party/AL94_USB_Composite/COMPOSITE/Target/usbd_conf.c ****     HAL_PCDEx_PMAConfig((PCD_HandleTypeDef *)pdev->pData, CDC_RNDIS_OUT_EP, PCD_SNG_BUF, pma_track)
 383:Middlewares/Third_Party/AL94_USB_Composite/COMPOSITE/Target/usbd_conf.c ****     pma_track += 128;
 384:Middlewares/Third_Party/AL94_USB_Composite/COMPOSITE/Target/usbd_conf.c ****     HAL_PCDEx_PMAConfig((PCD_HandleTypeDef *)pdev->pData, CDC_RNDIS_CMD_EP, PCD_SNG_BUF, pma_track)
 385:Middlewares/Third_Party/AL94_USB_Composite/COMPOSITE/Target/usbd_conf.c ****     pma_track += 8;
 386:Middlewares/Third_Party/AL94_USB_Composite/COMPOSITE/Target/usbd_conf.c **** #endif
 387:Middlewares/Third_Party/AL94_USB_Composite/COMPOSITE/Target/usbd_conf.c **** #if (USBD_USE_CDC_ECM == 1)
 388:Middlewares/Third_Party/AL94_USB_Composite/COMPOSITE/Target/usbd_conf.c ****     HAL_PCDEx_PMAConfig((PCD_HandleTypeDef *)pdev->pData, CDC_ECM_IN_EP, PCD_SNG_BUF, pma_track);
 389:Middlewares/Third_Party/AL94_USB_Composite/COMPOSITE/Target/usbd_conf.c ****     pma_track += 48;
 390:Middlewares/Third_Party/AL94_USB_Composite/COMPOSITE/Target/usbd_conf.c ****     HAL_PCDEx_PMAConfig((PCD_HandleTypeDef *)pdev->pData, CDC_ECM_OUT_EP, PCD_SNG_BUF, pma_track);
 391:Middlewares/Third_Party/AL94_USB_Composite/COMPOSITE/Target/usbd_conf.c ****     pma_track += 48;
 392:Middlewares/Third_Party/AL94_USB_Composite/COMPOSITE/Target/usbd_conf.c ****     HAL_PCDEx_PMAConfig((PCD_HandleTypeDef *)pdev->pData, CDC_ECM_CMD_EP, PCD_SNG_BUF, pma_track);
 393:Middlewares/Third_Party/AL94_USB_Composite/COMPOSITE/Target/usbd_conf.c ****     pma_track += 8;
 394:Middlewares/Third_Party/AL94_USB_Composite/COMPOSITE/Target/usbd_conf.c **** #endif
 395:Middlewares/Third_Party/AL94_USB_Composite/COMPOSITE/Target/usbd_conf.c **** #if (USBD_USE_HID_MOUSE == 1)
 396:Middlewares/Third_Party/AL94_USB_Composite/COMPOSITE/Target/usbd_conf.c ****     HAL_PCDEx_PMAConfig((PCD_HandleTypeDef *)pdev->pData, HID_MOUSE_IN_EP, PCD_SNG_BUF, pma_track);
 397:Middlewares/Third_Party/AL94_USB_Composite/COMPOSITE/Target/usbd_conf.c ****     pma_track += 8;
 398:Middlewares/Third_Party/AL94_USB_Composite/COMPOSITE/Target/usbd_conf.c **** #endif
 399:Middlewares/Third_Party/AL94_USB_Composite/COMPOSITE/Target/usbd_conf.c **** #if (USBD_USE_HID_KEYBOARD == 1)
 400:Middlewares/Third_Party/AL94_USB_Composite/COMPOSITE/Target/usbd_conf.c ****     HAL_PCDEx_PMAConfig((PCD_HandleTypeDef *)pdev->pData, HID_KEYBOARD_IN_EP, PCD_SNG_BUF, pma_trac
 401:Middlewares/Third_Party/AL94_USB_Composite/COMPOSITE/Target/usbd_conf.c ****     pma_track += 8;
 402:Middlewares/Third_Party/AL94_USB_Composite/COMPOSITE/Target/usbd_conf.c **** #endif
 403:Middlewares/Third_Party/AL94_USB_Composite/COMPOSITE/Target/usbd_conf.c **** #if (USBD_USE_HID_CUSTOM == 1)
 404:Middlewares/Third_Party/AL94_USB_Composite/COMPOSITE/Target/usbd_conf.c ****     HAL_PCDEx_PMAConfig((PCD_HandleTypeDef *)pdev->pData, CUSTOM_HID_IN_EP, PCD_SNG_BUF, pma_track)
 405:Middlewares/Third_Party/AL94_USB_Composite/COMPOSITE/Target/usbd_conf.c ****     pma_track += 8;
 406:Middlewares/Third_Party/AL94_USB_Composite/COMPOSITE/Target/usbd_conf.c ****     HAL_PCDEx_PMAConfig((PCD_HandleTypeDef *)pdev->pData, CUSTOM_HID_OUT_EP, PCD_SNG_BUF, pma_track
 407:Middlewares/Third_Party/AL94_USB_Composite/COMPOSITE/Target/usbd_conf.c ****     pma_track += 8;
 408:Middlewares/Third_Party/AL94_USB_Composite/COMPOSITE/Target/usbd_conf.c **** #endif
 409:Middlewares/Third_Party/AL94_USB_Composite/COMPOSITE/Target/usbd_conf.c **** #if (USBD_USE_UAC_MIC == 1)
 410:Middlewares/Third_Party/AL94_USB_Composite/COMPOSITE/Target/usbd_conf.c ****     HAL_PCDEx_PMAConfig((PCD_HandleTypeDef *)pdev->pData, AUDIO_MIC_EP, PCD_SNG_BUF, pma_track);
 411:Middlewares/Third_Party/AL94_USB_Composite/COMPOSITE/Target/usbd_conf.c ****     pma_track += 128;
 412:Middlewares/Third_Party/AL94_USB_Composite/COMPOSITE/Target/usbd_conf.c **** #endif
 413:Middlewares/Third_Party/AL94_USB_Composite/COMPOSITE/Target/usbd_conf.c **** #if (USBD_USE_UAC_SPKR == 1)
 414:Middlewares/Third_Party/AL94_USB_Composite/COMPOSITE/Target/usbd_conf.c ****     HAL_PCDEx_PMAConfig((PCD_HandleTypeDef *)pdev->pData, AUDIO_SPKR_EP, PCD_SNG_BUF, pma_track);
 415:Middlewares/Third_Party/AL94_USB_Composite/COMPOSITE/Target/usbd_conf.c ****     pma_track += 128;
 416:Middlewares/Third_Party/AL94_USB_Composite/COMPOSITE/Target/usbd_conf.c **** #endif
 417:Middlewares/Third_Party/AL94_USB_Composite/COMPOSITE/Target/usbd_conf.c **** #if (USBD_USE_UVC == 1)
 418:Middlewares/Third_Party/AL94_USB_Composite/COMPOSITE/Target/usbd_conf.c ****     HAL_PCDEx_PMAConfig((PCD_HandleTypeDef *)pdev->pData, UVC_IN_EP, PCD_SNG_BUF, pma_track);
 419:Middlewares/Third_Party/AL94_USB_Composite/COMPOSITE/Target/usbd_conf.c ****     pma_track += 128;
 420:Middlewares/Third_Party/AL94_USB_Composite/COMPOSITE/Target/usbd_conf.c **** #endif
 421:Middlewares/Third_Party/AL94_USB_Composite/COMPOSITE/Target/usbd_conf.c **** #if (USBD_USE_MSC == 1)
 422:Middlewares/Third_Party/AL94_USB_Composite/COMPOSITE/Target/usbd_conf.c ****     HAL_PCDEx_PMAConfig((PCD_HandleTypeDef *)pdev->pData, MSC_IN_EP, PCD_SNG_BUF, pma_track);
 423:Middlewares/Third_Party/AL94_USB_Composite/COMPOSITE/Target/usbd_conf.c ****     pma_track += 128;
 424:Middlewares/Third_Party/AL94_USB_Composite/COMPOSITE/Target/usbd_conf.c ****     HAL_PCDEx_PMAConfig((PCD_HandleTypeDef *)pdev->pData, MSC_OUT_EP, PCD_SNG_BUF, pma_track);
 425:Middlewares/Third_Party/AL94_USB_Composite/COMPOSITE/Target/usbd_conf.c ****     pma_track += 128;
 426:Middlewares/Third_Party/AL94_USB_Composite/COMPOSITE/Target/usbd_conf.c **** #endif
 427:Middlewares/Third_Party/AL94_USB_Composite/COMPOSITE/Target/usbd_conf.c **** #if (USBD_USE_DFU == 1)
 428:Middlewares/Third_Party/AL94_USB_Composite/COMPOSITE/Target/usbd_conf.c **** #endif
 429:Middlewares/Third_Party/AL94_USB_Composite/COMPOSITE/Target/usbd_conf.c **** #if (USBD_USE_PRNTR == 1)
 430:Middlewares/Third_Party/AL94_USB_Composite/COMPOSITE/Target/usbd_conf.c ****     HAL_PCDEx_PMAConfig((PCD_HandleTypeDef *)pdev->pData, PRNT_IN_EP, PCD_SNG_BUF, pma_track);
ARM GAS  C:\Users\Nathan\AppData\Local\Temp\ccCDfMpd.s 			page 16


 431:Middlewares/Third_Party/AL94_USB_Composite/COMPOSITE/Target/usbd_conf.c ****     pma_track += 128;
 432:Middlewares/Third_Party/AL94_USB_Composite/COMPOSITE/Target/usbd_conf.c ****     HAL_PCDEx_PMAConfig((PCD_HandleTypeDef *)pdev->pData, PRNT_OUT_EP, PCD_SNG_BUF, pma_track);
 433:Middlewares/Third_Party/AL94_USB_Composite/COMPOSITE/Target/usbd_conf.c ****     pma_track += 128;
 434:Middlewares/Third_Party/AL94_USB_Composite/COMPOSITE/Target/usbd_conf.c **** #endif
 435:Middlewares/Third_Party/AL94_USB_Composite/COMPOSITE/Target/usbd_conf.c **** #if (USBD_USE_CDC_ACM == 1)
 436:Middlewares/Third_Party/AL94_USB_Composite/COMPOSITE/Target/usbd_conf.c ****     for (uint8_t i = 0; i < USBD_CDC_ACM_COUNT; i++)
 437:Middlewares/Third_Party/AL94_USB_Composite/COMPOSITE/Target/usbd_conf.c ****     {
 438:Middlewares/Third_Party/AL94_USB_Composite/COMPOSITE/Target/usbd_conf.c ****       HAL_PCDEx_PMAConfig((PCD_HandleTypeDef *)pdev->pData, CDC_IN_EP[i], PCD_SNG_BUF, pma_track);
 439:Middlewares/Third_Party/AL94_USB_Composite/COMPOSITE/Target/usbd_conf.c ****       pma_track += 48;
 440:Middlewares/Third_Party/AL94_USB_Composite/COMPOSITE/Target/usbd_conf.c **** 
 441:Middlewares/Third_Party/AL94_USB_Composite/COMPOSITE/Target/usbd_conf.c ****       HAL_PCDEx_PMAConfig((PCD_HandleTypeDef *)pdev->pData, CDC_OUT_EP[i], PCD_SNG_BUF, pma_track);
 442:Middlewares/Third_Party/AL94_USB_Composite/COMPOSITE/Target/usbd_conf.c ****       pma_track += 48;
 443:Middlewares/Third_Party/AL94_USB_Composite/COMPOSITE/Target/usbd_conf.c **** 
 444:Middlewares/Third_Party/AL94_USB_Composite/COMPOSITE/Target/usbd_conf.c ****       HAL_PCDEx_PMAConfig((PCD_HandleTypeDef *)pdev->pData, CDC_CMD_EP[i], PCD_SNG_BUF, pma_track);
 445:Middlewares/Third_Party/AL94_USB_Composite/COMPOSITE/Target/usbd_conf.c ****       pma_track += 8;
 446:Middlewares/Third_Party/AL94_USB_Composite/COMPOSITE/Target/usbd_conf.c ****     }
 447:Middlewares/Third_Party/AL94_USB_Composite/COMPOSITE/Target/usbd_conf.c **** #endif
 448:Middlewares/Third_Party/AL94_USB_Composite/COMPOSITE/Target/usbd_conf.c **** #else /** if HAL_PCDEx_SetRxFiFo() is used by HAL driver */
 449:Middlewares/Third_Party/AL94_USB_Composite/COMPOSITE/Target/usbd_conf.c **** 
 450:Middlewares/Third_Party/AL94_USB_Composite/COMPOSITE/Target/usbd_conf.c ****     HAL_PCDEx_SetRxFiFoInBytes(hpcd_USB_OTG_PTR, 512); // ALL OUT EP Buffer
 451:Middlewares/Third_Party/AL94_USB_Composite/COMPOSITE/Target/usbd_conf.c **** 
 452:Middlewares/Third_Party/AL94_USB_Composite/COMPOSITE/Target/usbd_conf.c ****     HAL_PCDEx_SetTxFiFoInBytes(hpcd_USB_OTG_PTR, 0, 64); // EP0 IN
 453:Middlewares/Third_Party/AL94_USB_Composite/COMPOSITE/Target/usbd_conf.c **** 
 454:Middlewares/Third_Party/AL94_USB_Composite/COMPOSITE/Target/usbd_conf.c **** #if (USBD_USE_CDC_RNDIS == 1)
 455:Middlewares/Third_Party/AL94_USB_Composite/COMPOSITE/Target/usbd_conf.c ****     HAL_PCDEx_SetTxFiFoInBytes(hpcd_USB_OTG_PTR, (CDC_RNDIS_IN_EP & 0x7F), 128);
 456:Middlewares/Third_Party/AL94_USB_Composite/COMPOSITE/Target/usbd_conf.c ****     HAL_PCDEx_SetTxFiFoInBytes(hpcd_USB_OTG_PTR, (CDC_RNDIS_CMD_EP & 0x7F), 64);
 457:Middlewares/Third_Party/AL94_USB_Composite/COMPOSITE/Target/usbd_conf.c **** #endif
 458:Middlewares/Third_Party/AL94_USB_Composite/COMPOSITE/Target/usbd_conf.c **** 
 459:Middlewares/Third_Party/AL94_USB_Composite/COMPOSITE/Target/usbd_conf.c **** #if (USBD_USE_CDC_ECM == 1)
 460:Middlewares/Third_Party/AL94_USB_Composite/COMPOSITE/Target/usbd_conf.c ****     HAL_PCDEx_SetTxFiFoInBytes(hpcd_USB_OTG_PTR, (CDC_ECM_IN_EP & 0x7F), 128);
 461:Middlewares/Third_Party/AL94_USB_Composite/COMPOSITE/Target/usbd_conf.c ****     HAL_PCDEx_SetTxFiFoInBytes(hpcd_USB_OTG_PTR, (CDC_ECM_CMD_EP & 0x7F), 64);
 462:Middlewares/Third_Party/AL94_USB_Composite/COMPOSITE/Target/usbd_conf.c **** #endif
 463:Middlewares/Third_Party/AL94_USB_Composite/COMPOSITE/Target/usbd_conf.c **** #if (USBD_USE_HID_MOUSE == 1)
 464:Middlewares/Third_Party/AL94_USB_Composite/COMPOSITE/Target/usbd_conf.c ****     HAL_PCDEx_SetTxFiFoInBytes(hpcd_USB_OTG_PTR, (HID_MOUSE_IN_EP & 0x7F), 64);
 465:Middlewares/Third_Party/AL94_USB_Composite/COMPOSITE/Target/usbd_conf.c **** #endif
 466:Middlewares/Third_Party/AL94_USB_Composite/COMPOSITE/Target/usbd_conf.c **** #if (USBD_USE_HID_KEYBOARD == 1)
 467:Middlewares/Third_Party/AL94_USB_Composite/COMPOSITE/Target/usbd_conf.c ****     HAL_PCDEx_SetTxFiFoInBytes(hpcd_USB_OTG_PTR, (HID_KEYBOARD_IN_EP & 0x7F), 64);
 468:Middlewares/Third_Party/AL94_USB_Composite/COMPOSITE/Target/usbd_conf.c **** #endif
 469:Middlewares/Third_Party/AL94_USB_Composite/COMPOSITE/Target/usbd_conf.c **** #if (USBD_USE_HID_CUSTOM == 1)
 470:Middlewares/Third_Party/AL94_USB_Composite/COMPOSITE/Target/usbd_conf.c ****     HAL_PCDEx_SetTxFiFoInBytes(hpcd_USB_OTG_PTR, (CUSTOM_HID_IN_EP & 0x7F), 64);
 471:Middlewares/Third_Party/AL94_USB_Composite/COMPOSITE/Target/usbd_conf.c **** #endif
 472:Middlewares/Third_Party/AL94_USB_Composite/COMPOSITE/Target/usbd_conf.c **** #if (USBD_USE_UAC_MIC == 1)
 473:Middlewares/Third_Party/AL94_USB_Composite/COMPOSITE/Target/usbd_conf.c ****     HAL_PCDEx_SetTxFiFoInBytes(hpcd_USB_OTG_PTR, (AUDIO_MIC_EP & 0x7F), 128);
 474:Middlewares/Third_Party/AL94_USB_Composite/COMPOSITE/Target/usbd_conf.c **** #endif
 475:Middlewares/Third_Party/AL94_USB_Composite/COMPOSITE/Target/usbd_conf.c **** #if (USBD_USE_UAC_SPKR == 1)
 476:Middlewares/Third_Party/AL94_USB_Composite/COMPOSITE/Target/usbd_conf.c **** #endif
 477:Middlewares/Third_Party/AL94_USB_Composite/COMPOSITE/Target/usbd_conf.c **** #if (USBD_USE_UVC == 1)
 478:Middlewares/Third_Party/AL94_USB_Composite/COMPOSITE/Target/usbd_conf.c ****     HAL_PCDEx_SetTxFiFoInBytes(hpcd_USB_OTG_PTR, (UVC_IN_EP & 0x7F), 128);
 479:Middlewares/Third_Party/AL94_USB_Composite/COMPOSITE/Target/usbd_conf.c **** #endif
 480:Middlewares/Third_Party/AL94_USB_Composite/COMPOSITE/Target/usbd_conf.c **** #if (USBD_USE_MSC == 1)
 481:Middlewares/Third_Party/AL94_USB_Composite/COMPOSITE/Target/usbd_conf.c ****     HAL_PCDEx_SetTxFiFoInBytes(hpcd_USB_OTG_PTR, (MSC_IN_EP & 0x7F), 128);
 482:Middlewares/Third_Party/AL94_USB_Composite/COMPOSITE/Target/usbd_conf.c **** #endif
 483:Middlewares/Third_Party/AL94_USB_Composite/COMPOSITE/Target/usbd_conf.c **** #if (USBD_USE_DFU == 1)
 484:Middlewares/Third_Party/AL94_USB_Composite/COMPOSITE/Target/usbd_conf.c **** #endif
 485:Middlewares/Third_Party/AL94_USB_Composite/COMPOSITE/Target/usbd_conf.c **** #if (USBD_USE_PRNTR == 1)
 486:Middlewares/Third_Party/AL94_USB_Composite/COMPOSITE/Target/usbd_conf.c ****     HAL_PCDEx_SetTxFiFoInBytes(hpcd_USB_OTG_PTR, (PRNT_IN_EP & 0x7F), 128);
 487:Middlewares/Third_Party/AL94_USB_Composite/COMPOSITE/Target/usbd_conf.c **** #endif
ARM GAS  C:\Users\Nathan\AppData\Local\Temp\ccCDfMpd.s 			page 17


 488:Middlewares/Third_Party/AL94_USB_Composite/COMPOSITE/Target/usbd_conf.c **** #if (USBD_USE_CDC_ACM == 1)
 489:Middlewares/Third_Party/AL94_USB_Composite/COMPOSITE/Target/usbd_conf.c ****     for (uint8_t i = 0; i < USBD_CDC_ACM_COUNT; i++)
 490:Middlewares/Third_Party/AL94_USB_Composite/COMPOSITE/Target/usbd_conf.c ****     {
 491:Middlewares/Third_Party/AL94_USB_Composite/COMPOSITE/Target/usbd_conf.c ****       HAL_PCDEx_SetTxFiFoInBytes(hpcd_USB_OTG_PTR, (CDC_IN_EP[i] & 0x7F), 128);
 492:Middlewares/Third_Party/AL94_USB_Composite/COMPOSITE/Target/usbd_conf.c ****       HAL_PCDEx_SetTxFiFoInBytes(hpcd_USB_OTG_PTR, (CDC_CMD_EP[i] & 0x7F), 64);
 493:Middlewares/Third_Party/AL94_USB_Composite/COMPOSITE/Target/usbd_conf.c ****     }
 494:Middlewares/Third_Party/AL94_USB_Composite/COMPOSITE/Target/usbd_conf.c **** #endif
 495:Middlewares/Third_Party/AL94_USB_Composite/COMPOSITE/Target/usbd_conf.c **** #endif
 496:Middlewares/Third_Party/AL94_USB_Composite/COMPOSITE/Target/usbd_conf.c ****   }
 497:Middlewares/Third_Party/AL94_USB_Composite/COMPOSITE/Target/usbd_conf.c **** #endif
 498:Middlewares/Third_Party/AL94_USB_Composite/COMPOSITE/Target/usbd_conf.c **** 
 499:Middlewares/Third_Party/AL94_USB_Composite/COMPOSITE/Target/usbd_conf.c **** #if (USE_HAL_PCD_REGISTER_CALLBACKS == 1U)
 500:Middlewares/Third_Party/AL94_USB_Composite/COMPOSITE/Target/usbd_conf.c ****   /* Register USB PCD CallBacks */
 501:Middlewares/Third_Party/AL94_USB_Composite/COMPOSITE/Target/usbd_conf.c ****   HAL_PCD_RegisterCallback(hpcd_USB_OTG_PTR, HAL_PCD_SOF_CB_ID, PCD_SOFCallback);
 502:Middlewares/Third_Party/AL94_USB_Composite/COMPOSITE/Target/usbd_conf.c ****   HAL_PCD_RegisterCallback(hpcd_USB_OTG_PTR, HAL_PCD_SETUPSTAGE_CB_ID, PCD_SetupStageCallback);
 503:Middlewares/Third_Party/AL94_USB_Composite/COMPOSITE/Target/usbd_conf.c ****   HAL_PCD_RegisterCallback(hpcd_USB_OTG_PTR, HAL_PCD_RESET_CB_ID, PCD_ResetCallback);
 504:Middlewares/Third_Party/AL94_USB_Composite/COMPOSITE/Target/usbd_conf.c ****   HAL_PCD_RegisterCallback(hpcd_USB_OTG_PTR, HAL_PCD_SUSPEND_CB_ID, PCD_SuspendCallback);
 505:Middlewares/Third_Party/AL94_USB_Composite/COMPOSITE/Target/usbd_conf.c ****   HAL_PCD_RegisterCallback(hpcd_USB_OTG_PTR, HAL_PCD_RESUME_CB_ID, PCD_ResumeCallback);
 506:Middlewares/Third_Party/AL94_USB_Composite/COMPOSITE/Target/usbd_conf.c ****   HAL_PCD_RegisterCallback(hpcd_USB_OTG_PTR, HAL_PCD_CONNECT_CB_ID, PCD_ConnectCallback);
 507:Middlewares/Third_Party/AL94_USB_Composite/COMPOSITE/Target/usbd_conf.c ****   HAL_PCD_RegisterCallback(hpcd_USB_OTG_PTR, HAL_PCD_DISCONNECT_CB_ID, PCD_DisconnectCallback);
 508:Middlewares/Third_Party/AL94_USB_Composite/COMPOSITE/Target/usbd_conf.c **** 
 509:Middlewares/Third_Party/AL94_USB_Composite/COMPOSITE/Target/usbd_conf.c ****   HAL_PCD_RegisterDataOutStageCallback(hpcd_USB_OTG_PTR, PCD_DataOutStageCallback);
 510:Middlewares/Third_Party/AL94_USB_Composite/COMPOSITE/Target/usbd_conf.c ****   HAL_PCD_RegisterDataInStageCallback(hpcd_USB_OTG_PTR, PCD_DataInStageCallback);
 511:Middlewares/Third_Party/AL94_USB_Composite/COMPOSITE/Target/usbd_conf.c ****   HAL_PCD_RegisterIsoOutIncpltCallback(hpcd_USB_OTG_PTR, PCD_ISOOUTIncompleteCallback);
 512:Middlewares/Third_Party/AL94_USB_Composite/COMPOSITE/Target/usbd_conf.c ****   HAL_PCD_RegisterIsoInIncpltCallback(hpcd_USB_OTG_PTR, PCD_ISOINIncompleteCallback);
 513:Middlewares/Third_Party/AL94_USB_Composite/COMPOSITE/Target/usbd_conf.c **** #endif /* USE_HAL_PCD_REGISTER_CALLBACKS */
 514:Middlewares/Third_Party/AL94_USB_Composite/COMPOSITE/Target/usbd_conf.c ****   return USBD_OK;
 451              		.loc 1 514 3 is_stmt 1 view .LVU72
 515:Middlewares/Third_Party/AL94_USB_Composite/COMPOSITE/Target/usbd_conf.c **** }
 452              		.loc 1 515 1 is_stmt 0 view .LVU73
 453 000c 0020     		movs	r0, #0
 454 000e 70BD     		pop	{r4, r5, r6, pc}
 455              	.LVL41:
 456              	.L32:
 457              		.loc 1 515 1 view .LVU74
 458 0010 0446     		mov	r4, r0
 459              	.LBB2:
 364:Middlewares/Third_Party/AL94_USB_Composite/COMPOSITE/Target/usbd_conf.c ****     pdev->pData = hpcd_USB_OTG_PTR;
 460              		.loc 1 364 5 is_stmt 1 view .LVU75
 364:Middlewares/Third_Party/AL94_USB_Composite/COMPOSITE/Target/usbd_conf.c ****     pdev->pData = hpcd_USB_OTG_PTR;
 461              		.loc 1 364 29 is_stmt 0 view .LVU76
 462 0012 1046     		mov	r0, r2
 463              	.LVL42:
 364:Middlewares/Third_Party/AL94_USB_Composite/COMPOSITE/Target/usbd_conf.c ****     pdev->pData = hpcd_USB_OTG_PTR;
 464              		.loc 1 364 29 view .LVU77
 465 0014 C2F8D842 		str	r4, [r2, #728]
 365:Middlewares/Third_Party/AL94_USB_Composite/COMPOSITE/Target/usbd_conf.c **** 
 466              		.loc 1 365 5 is_stmt 1 view .LVU78
 365:Middlewares/Third_Party/AL94_USB_Composite/COMPOSITE/Target/usbd_conf.c **** 
 467              		.loc 1 365 17 is_stmt 0 view .LVU79
 468 0018 C4F81023 		str	r2, [r4, #784]
 371:Middlewares/Third_Party/AL94_USB_Composite/COMPOSITE/Target/usbd_conf.c **** 
 469              		.loc 1 371 5 is_stmt 1 view .LVU80
 470              	.LVL43:
 373:Middlewares/Third_Party/AL94_USB_Composite/COMPOSITE/Target/usbd_conf.c ****     pma_track += 0x40;
 471              		.loc 1 373 5 view .LVU81
 472 001c 4023     		movs	r3, #64
ARM GAS  C:\Users\Nathan\AppData\Local\Temp\ccCDfMpd.s 			page 18


 473 001e 0022     		movs	r2, #0
 474 0020 1146     		mov	r1, r2
 475 0022 FFF7FEFF 		bl	HAL_PCDEx_PMAConfig
 476              	.LVL44:
 374:Middlewares/Third_Party/AL94_USB_Composite/COMPOSITE/Target/usbd_conf.c **** 
 477              		.loc 1 374 5 view .LVU82
 376:Middlewares/Third_Party/AL94_USB_Composite/COMPOSITE/Target/usbd_conf.c ****     pma_track += 0x40;
 478              		.loc 1 376 5 view .LVU83
 479 0026 8023     		movs	r3, #128
 480 0028 0022     		movs	r2, #0
 481 002a 1946     		mov	r1, r3
 482 002c D4F81003 		ldr	r0, [r4, #784]
 483 0030 FFF7FEFF 		bl	HAL_PCDEx_PMAConfig
 484              	.LVL45:
 377:Middlewares/Third_Party/AL94_USB_Composite/COMPOSITE/Target/usbd_conf.c **** 
 485              		.loc 1 377 5 view .LVU84
 400:Middlewares/Third_Party/AL94_USB_Composite/COMPOSITE/Target/usbd_conf.c ****     pma_track += 8;
 486              		.loc 1 400 5 view .LVU85
 487 0034 C023     		movs	r3, #192
 488 0036 0022     		movs	r2, #0
 489 0038 1E49     		ldr	r1, .L33+8
 490 003a 0978     		ldrb	r1, [r1]	@ zero_extendqisi2
 491 003c D4F81003 		ldr	r0, [r4, #784]
 492 0040 FFF7FEFF 		bl	HAL_PCDEx_PMAConfig
 493              	.LVL46:
 401:Middlewares/Third_Party/AL94_USB_Composite/COMPOSITE/Target/usbd_conf.c **** #endif
 494              		.loc 1 401 5 view .LVU86
 404:Middlewares/Third_Party/AL94_USB_Composite/COMPOSITE/Target/usbd_conf.c ****     pma_track += 8;
 495              		.loc 1 404 5 view .LVU87
 496 0044 C823     		movs	r3, #200
 497 0046 0022     		movs	r2, #0
 498 0048 1B49     		ldr	r1, .L33+12
 499 004a 0978     		ldrb	r1, [r1]	@ zero_extendqisi2
 500 004c D4F81003 		ldr	r0, [r4, #784]
 501 0050 FFF7FEFF 		bl	HAL_PCDEx_PMAConfig
 502              	.LVL47:
 405:Middlewares/Third_Party/AL94_USB_Composite/COMPOSITE/Target/usbd_conf.c ****     HAL_PCDEx_PMAConfig((PCD_HandleTypeDef *)pdev->pData, CUSTOM_HID_OUT_EP, PCD_SNG_BUF, pma_track
 503              		.loc 1 405 5 view .LVU88
 406:Middlewares/Third_Party/AL94_USB_Composite/COMPOSITE/Target/usbd_conf.c ****     pma_track += 8;
 504              		.loc 1 406 5 view .LVU89
 505 0054 D023     		movs	r3, #208
 506 0056 0022     		movs	r2, #0
 507 0058 1849     		ldr	r1, .L33+16
 508 005a 0978     		ldrb	r1, [r1]	@ zero_extendqisi2
 509 005c D4F81003 		ldr	r0, [r4, #784]
 510 0060 FFF7FEFF 		bl	HAL_PCDEx_PMAConfig
 511              	.LVL48:
 407:Middlewares/Third_Party/AL94_USB_Composite/COMPOSITE/Target/usbd_conf.c **** #endif
 512              		.loc 1 407 5 view .LVU90
 436:Middlewares/Third_Party/AL94_USB_Composite/COMPOSITE/Target/usbd_conf.c ****     {
 513              		.loc 1 436 5 view .LVU91
 514              	.LBB3:
 436:Middlewares/Third_Party/AL94_USB_Composite/COMPOSITE/Target/usbd_conf.c ****     {
 515              		.loc 1 436 10 view .LVU92
 436:Middlewares/Third_Party/AL94_USB_Composite/COMPOSITE/Target/usbd_conf.c ****     {
 516              		.loc 1 436 10 is_stmt 0 view .LVU93
 517              	.LBE3:
ARM GAS  C:\Users\Nathan\AppData\Local\Temp\ccCDfMpd.s 			page 19


 407:Middlewares/Third_Party/AL94_USB_Composite/COMPOSITE/Target/usbd_conf.c **** #endif
 518              		.loc 1 407 15 view .LVU94
 519 0064 D826     		movs	r6, #216
 520              	.LVL49:
 521              	.L29:
 522              	.LBB4:
 436:Middlewares/Third_Party/AL94_USB_Composite/COMPOSITE/Target/usbd_conf.c ****     {
 523              		.loc 1 436 27 is_stmt 1 discriminator 1 view .LVU95
 524 0066 002D     		cmp	r5, #0
 525 0068 D0D1     		bne	.L28
 438:Middlewares/Third_Party/AL94_USB_Composite/COMPOSITE/Target/usbd_conf.c ****       pma_track += 48;
 526              		.loc 1 438 7 view .LVU96
 527 006a 3346     		mov	r3, r6
 528 006c 0022     		movs	r2, #0
 529 006e 1449     		ldr	r1, .L33+20
 530 0070 495D     		ldrb	r1, [r1, r5]	@ zero_extendqisi2
 531 0072 D4F81003 		ldr	r0, [r4, #784]
 532 0076 FFF7FEFF 		bl	HAL_PCDEx_PMAConfig
 533              	.LVL50:
 439:Middlewares/Third_Party/AL94_USB_Composite/COMPOSITE/Target/usbd_conf.c **** 
 534              		.loc 1 439 7 view .LVU97
 439:Middlewares/Third_Party/AL94_USB_Composite/COMPOSITE/Target/usbd_conf.c **** 
 535              		.loc 1 439 17 is_stmt 0 view .LVU98
 536 007a 06F13003 		add	r3, r6, #48
 537              	.LVL51:
 441:Middlewares/Third_Party/AL94_USB_Composite/COMPOSITE/Target/usbd_conf.c ****       pma_track += 48;
 538              		.loc 1 441 7 is_stmt 1 view .LVU99
 539 007e 9BB2     		uxth	r3, r3
 441:Middlewares/Third_Party/AL94_USB_Composite/COMPOSITE/Target/usbd_conf.c ****       pma_track += 48;
 540              		.loc 1 441 7 is_stmt 0 view .LVU100
 541 0080 0022     		movs	r2, #0
 542 0082 1049     		ldr	r1, .L33+24
 543 0084 495D     		ldrb	r1, [r1, r5]	@ zero_extendqisi2
 544 0086 D4F81003 		ldr	r0, [r4, #784]
 545 008a FFF7FEFF 		bl	HAL_PCDEx_PMAConfig
 546              	.LVL52:
 442:Middlewares/Third_Party/AL94_USB_Composite/COMPOSITE/Target/usbd_conf.c **** 
 547              		.loc 1 442 7 is_stmt 1 view .LVU101
 442:Middlewares/Third_Party/AL94_USB_Composite/COMPOSITE/Target/usbd_conf.c **** 
 548              		.loc 1 442 17 is_stmt 0 view .LVU102
 549 008e 06F16003 		add	r3, r6, #96
 550              	.LVL53:
 444:Middlewares/Third_Party/AL94_USB_Composite/COMPOSITE/Target/usbd_conf.c ****       pma_track += 8;
 551              		.loc 1 444 7 is_stmt 1 view .LVU103
 552 0092 9BB2     		uxth	r3, r3
 444:Middlewares/Third_Party/AL94_USB_Composite/COMPOSITE/Target/usbd_conf.c ****       pma_track += 8;
 553              		.loc 1 444 7 is_stmt 0 view .LVU104
 554 0094 0022     		movs	r2, #0
 555 0096 0C49     		ldr	r1, .L33+28
 556 0098 495D     		ldrb	r1, [r1, r5]	@ zero_extendqisi2
 557 009a D4F81003 		ldr	r0, [r4, #784]
 558 009e FFF7FEFF 		bl	HAL_PCDEx_PMAConfig
 559              	.LVL54:
 445:Middlewares/Third_Party/AL94_USB_Composite/COMPOSITE/Target/usbd_conf.c ****     }
 560              		.loc 1 445 7 is_stmt 1 view .LVU105
 445:Middlewares/Third_Party/AL94_USB_Composite/COMPOSITE/Target/usbd_conf.c ****     }
 561              		.loc 1 445 17 is_stmt 0 view .LVU106
ARM GAS  C:\Users\Nathan\AppData\Local\Temp\ccCDfMpd.s 			page 20


 562 00a2 6836     		adds	r6, r6, #104
 563              	.LVL55:
 445:Middlewares/Third_Party/AL94_USB_Composite/COMPOSITE/Target/usbd_conf.c ****     }
 564              		.loc 1 445 17 view .LVU107
 565 00a4 B6B2     		uxth	r6, r6
 566              	.LVL56:
 436:Middlewares/Third_Party/AL94_USB_Composite/COMPOSITE/Target/usbd_conf.c ****     {
 567              		.loc 1 436 50 is_stmt 1 discriminator 3 view .LVU108
 568 00a6 0135     		adds	r5, r5, #1
 569              	.LVL57:
 436:Middlewares/Third_Party/AL94_USB_Composite/COMPOSITE/Target/usbd_conf.c ****     {
 570              		.loc 1 436 50 is_stmt 0 discriminator 3 view .LVU109
 571 00a8 EDB2     		uxtb	r5, r5
 572              	.LVL58:
 436:Middlewares/Third_Party/AL94_USB_Composite/COMPOSITE/Target/usbd_conf.c ****     {
 573              		.loc 1 436 50 discriminator 3 view .LVU110
 574 00aa DCE7     		b	.L29
 575              	.L34:
 576              		.align	2
 577              	.L33:
 578 00ac 00000000 		.word	hpcd_USB_OTG_PTR
 579 00b0 00000000 		.word	hpcd_USB_FS
 580 00b4 00000000 		.word	HID_KEYBOARD_IN_EP
 581 00b8 00000000 		.word	CUSTOM_HID_IN_EP
 582 00bc 00000000 		.word	CUSTOM_HID_OUT_EP
 583 00c0 00000000 		.word	CDC_IN_EP
 584 00c4 00000000 		.word	CDC_OUT_EP
 585 00c8 00000000 		.word	CDC_CMD_EP
 586              	.LBE4:
 587              	.LBE2:
 588              		.cfi_endproc
 589              	.LFE1429:
 591              		.section	.text.USBD_LL_IsStallEP,"ax",%progbits
 592              		.align	1
 593              		.global	USBD_LL_IsStallEP
 594              		.syntax unified
 595              		.thumb
 596              		.thumb_func
 598              	USBD_LL_IsStallEP:
 599              	.LVL59:
 600              	.LFB1438:
 516:Middlewares/Third_Party/AL94_USB_Composite/COMPOSITE/Target/usbd_conf.c **** 
 517:Middlewares/Third_Party/AL94_USB_Composite/COMPOSITE/Target/usbd_conf.c **** /**
 518:Middlewares/Third_Party/AL94_USB_Composite/COMPOSITE/Target/usbd_conf.c ****   * @brief  De-Initializes the low level portion of the device driver.
 519:Middlewares/Third_Party/AL94_USB_Composite/COMPOSITE/Target/usbd_conf.c ****   * @param  pdev: Device handle
 520:Middlewares/Third_Party/AL94_USB_Composite/COMPOSITE/Target/usbd_conf.c ****   * @retval USBD status
 521:Middlewares/Third_Party/AL94_USB_Composite/COMPOSITE/Target/usbd_conf.c ****   */
 522:Middlewares/Third_Party/AL94_USB_Composite/COMPOSITE/Target/usbd_conf.c **** USBD_StatusTypeDef USBD_LL_DeInit(USBD_HandleTypeDef *pdev)
 523:Middlewares/Third_Party/AL94_USB_Composite/COMPOSITE/Target/usbd_conf.c **** {
 524:Middlewares/Third_Party/AL94_USB_Composite/COMPOSITE/Target/usbd_conf.c ****   HAL_StatusTypeDef hal_status = HAL_OK;
 525:Middlewares/Third_Party/AL94_USB_Composite/COMPOSITE/Target/usbd_conf.c ****   USBD_StatusTypeDef usb_status = USBD_OK;
 526:Middlewares/Third_Party/AL94_USB_Composite/COMPOSITE/Target/usbd_conf.c **** 
 527:Middlewares/Third_Party/AL94_USB_Composite/COMPOSITE/Target/usbd_conf.c ****   hal_status = HAL_PCD_DeInit(pdev->pData);
 528:Middlewares/Third_Party/AL94_USB_Composite/COMPOSITE/Target/usbd_conf.c **** 
 529:Middlewares/Third_Party/AL94_USB_Composite/COMPOSITE/Target/usbd_conf.c ****   usb_status = USBD_Get_USB_Status(hal_status);
 530:Middlewares/Third_Party/AL94_USB_Composite/COMPOSITE/Target/usbd_conf.c **** 
 531:Middlewares/Third_Party/AL94_USB_Composite/COMPOSITE/Target/usbd_conf.c ****   return usb_status;
ARM GAS  C:\Users\Nathan\AppData\Local\Temp\ccCDfMpd.s 			page 21


 532:Middlewares/Third_Party/AL94_USB_Composite/COMPOSITE/Target/usbd_conf.c **** }
 533:Middlewares/Third_Party/AL94_USB_Composite/COMPOSITE/Target/usbd_conf.c **** 
 534:Middlewares/Third_Party/AL94_USB_Composite/COMPOSITE/Target/usbd_conf.c **** /**
 535:Middlewares/Third_Party/AL94_USB_Composite/COMPOSITE/Target/usbd_conf.c ****   * @brief  Starts the low level portion of the device driver.
 536:Middlewares/Third_Party/AL94_USB_Composite/COMPOSITE/Target/usbd_conf.c ****   * @param  pdev: Device handle
 537:Middlewares/Third_Party/AL94_USB_Composite/COMPOSITE/Target/usbd_conf.c ****   * @retval USBD status
 538:Middlewares/Third_Party/AL94_USB_Composite/COMPOSITE/Target/usbd_conf.c ****   */
 539:Middlewares/Third_Party/AL94_USB_Composite/COMPOSITE/Target/usbd_conf.c **** USBD_StatusTypeDef USBD_LL_Start(USBD_HandleTypeDef *pdev)
 540:Middlewares/Third_Party/AL94_USB_Composite/COMPOSITE/Target/usbd_conf.c **** {
 541:Middlewares/Third_Party/AL94_USB_Composite/COMPOSITE/Target/usbd_conf.c ****   HAL_StatusTypeDef hal_status = HAL_OK;
 542:Middlewares/Third_Party/AL94_USB_Composite/COMPOSITE/Target/usbd_conf.c ****   USBD_StatusTypeDef usb_status = USBD_OK;
 543:Middlewares/Third_Party/AL94_USB_Composite/COMPOSITE/Target/usbd_conf.c **** 
 544:Middlewares/Third_Party/AL94_USB_Composite/COMPOSITE/Target/usbd_conf.c ****   hal_status = HAL_PCD_Start(pdev->pData);
 545:Middlewares/Third_Party/AL94_USB_Composite/COMPOSITE/Target/usbd_conf.c **** 
 546:Middlewares/Third_Party/AL94_USB_Composite/COMPOSITE/Target/usbd_conf.c ****   usb_status = USBD_Get_USB_Status(hal_status);
 547:Middlewares/Third_Party/AL94_USB_Composite/COMPOSITE/Target/usbd_conf.c **** 
 548:Middlewares/Third_Party/AL94_USB_Composite/COMPOSITE/Target/usbd_conf.c ****   return usb_status;
 549:Middlewares/Third_Party/AL94_USB_Composite/COMPOSITE/Target/usbd_conf.c **** }
 550:Middlewares/Third_Party/AL94_USB_Composite/COMPOSITE/Target/usbd_conf.c **** 
 551:Middlewares/Third_Party/AL94_USB_Composite/COMPOSITE/Target/usbd_conf.c **** /**
 552:Middlewares/Third_Party/AL94_USB_Composite/COMPOSITE/Target/usbd_conf.c ****   * @brief  Stops the low level portion of the device driver.
 553:Middlewares/Third_Party/AL94_USB_Composite/COMPOSITE/Target/usbd_conf.c ****   * @param  pdev: Device handle
 554:Middlewares/Third_Party/AL94_USB_Composite/COMPOSITE/Target/usbd_conf.c ****   * @retval USBD status
 555:Middlewares/Third_Party/AL94_USB_Composite/COMPOSITE/Target/usbd_conf.c ****   */
 556:Middlewares/Third_Party/AL94_USB_Composite/COMPOSITE/Target/usbd_conf.c **** USBD_StatusTypeDef USBD_LL_Stop(USBD_HandleTypeDef *pdev)
 557:Middlewares/Third_Party/AL94_USB_Composite/COMPOSITE/Target/usbd_conf.c **** {
 558:Middlewares/Third_Party/AL94_USB_Composite/COMPOSITE/Target/usbd_conf.c ****   HAL_StatusTypeDef hal_status = HAL_OK;
 559:Middlewares/Third_Party/AL94_USB_Composite/COMPOSITE/Target/usbd_conf.c ****   USBD_StatusTypeDef usb_status = USBD_OK;
 560:Middlewares/Third_Party/AL94_USB_Composite/COMPOSITE/Target/usbd_conf.c **** 
 561:Middlewares/Third_Party/AL94_USB_Composite/COMPOSITE/Target/usbd_conf.c ****   hal_status = HAL_PCD_Stop(pdev->pData);
 562:Middlewares/Third_Party/AL94_USB_Composite/COMPOSITE/Target/usbd_conf.c **** 
 563:Middlewares/Third_Party/AL94_USB_Composite/COMPOSITE/Target/usbd_conf.c ****   usb_status = USBD_Get_USB_Status(hal_status);
 564:Middlewares/Third_Party/AL94_USB_Composite/COMPOSITE/Target/usbd_conf.c **** 
 565:Middlewares/Third_Party/AL94_USB_Composite/COMPOSITE/Target/usbd_conf.c ****   return usb_status;
 566:Middlewares/Third_Party/AL94_USB_Composite/COMPOSITE/Target/usbd_conf.c **** }
 567:Middlewares/Third_Party/AL94_USB_Composite/COMPOSITE/Target/usbd_conf.c **** 
 568:Middlewares/Third_Party/AL94_USB_Composite/COMPOSITE/Target/usbd_conf.c **** /**
 569:Middlewares/Third_Party/AL94_USB_Composite/COMPOSITE/Target/usbd_conf.c ****   * @brief  Opens an endpoint of the low level driver.
 570:Middlewares/Third_Party/AL94_USB_Composite/COMPOSITE/Target/usbd_conf.c ****   * @param  pdev: Device handle
 571:Middlewares/Third_Party/AL94_USB_Composite/COMPOSITE/Target/usbd_conf.c ****   * @param  ep_addr: Endpoint number
 572:Middlewares/Third_Party/AL94_USB_Composite/COMPOSITE/Target/usbd_conf.c ****   * @param  ep_type: Endpoint type
 573:Middlewares/Third_Party/AL94_USB_Composite/COMPOSITE/Target/usbd_conf.c ****   * @param  ep_mps: Endpoint max packet size
 574:Middlewares/Third_Party/AL94_USB_Composite/COMPOSITE/Target/usbd_conf.c ****   * @retval USBD status
 575:Middlewares/Third_Party/AL94_USB_Composite/COMPOSITE/Target/usbd_conf.c ****   */
 576:Middlewares/Third_Party/AL94_USB_Composite/COMPOSITE/Target/usbd_conf.c **** USBD_StatusTypeDef USBD_LL_OpenEP(USBD_HandleTypeDef *pdev, uint8_t ep_addr, uint8_t ep_type, uint1
 577:Middlewares/Third_Party/AL94_USB_Composite/COMPOSITE/Target/usbd_conf.c **** {
 578:Middlewares/Third_Party/AL94_USB_Composite/COMPOSITE/Target/usbd_conf.c ****   HAL_StatusTypeDef hal_status = HAL_OK;
 579:Middlewares/Third_Party/AL94_USB_Composite/COMPOSITE/Target/usbd_conf.c ****   USBD_StatusTypeDef usb_status = USBD_OK;
 580:Middlewares/Third_Party/AL94_USB_Composite/COMPOSITE/Target/usbd_conf.c **** 
 581:Middlewares/Third_Party/AL94_USB_Composite/COMPOSITE/Target/usbd_conf.c ****   hal_status = HAL_PCD_EP_Open(pdev->pData, ep_addr, ep_mps, ep_type);
 582:Middlewares/Third_Party/AL94_USB_Composite/COMPOSITE/Target/usbd_conf.c **** 
 583:Middlewares/Third_Party/AL94_USB_Composite/COMPOSITE/Target/usbd_conf.c ****   usb_status = USBD_Get_USB_Status(hal_status);
 584:Middlewares/Third_Party/AL94_USB_Composite/COMPOSITE/Target/usbd_conf.c **** 
 585:Middlewares/Third_Party/AL94_USB_Composite/COMPOSITE/Target/usbd_conf.c ****   return usb_status;
 586:Middlewares/Third_Party/AL94_USB_Composite/COMPOSITE/Target/usbd_conf.c **** }
 587:Middlewares/Third_Party/AL94_USB_Composite/COMPOSITE/Target/usbd_conf.c **** 
 588:Middlewares/Third_Party/AL94_USB_Composite/COMPOSITE/Target/usbd_conf.c **** /**
ARM GAS  C:\Users\Nathan\AppData\Local\Temp\ccCDfMpd.s 			page 22


 589:Middlewares/Third_Party/AL94_USB_Composite/COMPOSITE/Target/usbd_conf.c ****   * @brief  Closes an endpoint of the low level driver.
 590:Middlewares/Third_Party/AL94_USB_Composite/COMPOSITE/Target/usbd_conf.c ****   * @param  pdev: Device handle
 591:Middlewares/Third_Party/AL94_USB_Composite/COMPOSITE/Target/usbd_conf.c ****   * @param  ep_addr: Endpoint number
 592:Middlewares/Third_Party/AL94_USB_Composite/COMPOSITE/Target/usbd_conf.c ****   * @retval USBD status
 593:Middlewares/Third_Party/AL94_USB_Composite/COMPOSITE/Target/usbd_conf.c ****   */
 594:Middlewares/Third_Party/AL94_USB_Composite/COMPOSITE/Target/usbd_conf.c **** USBD_StatusTypeDef USBD_LL_CloseEP(USBD_HandleTypeDef *pdev, uint8_t ep_addr)
 595:Middlewares/Third_Party/AL94_USB_Composite/COMPOSITE/Target/usbd_conf.c **** {
 596:Middlewares/Third_Party/AL94_USB_Composite/COMPOSITE/Target/usbd_conf.c ****   HAL_StatusTypeDef hal_status = HAL_OK;
 597:Middlewares/Third_Party/AL94_USB_Composite/COMPOSITE/Target/usbd_conf.c ****   USBD_StatusTypeDef usb_status = USBD_OK;
 598:Middlewares/Third_Party/AL94_USB_Composite/COMPOSITE/Target/usbd_conf.c **** 
 599:Middlewares/Third_Party/AL94_USB_Composite/COMPOSITE/Target/usbd_conf.c ****   hal_status = HAL_PCD_EP_Close(pdev->pData, ep_addr);
 600:Middlewares/Third_Party/AL94_USB_Composite/COMPOSITE/Target/usbd_conf.c **** 
 601:Middlewares/Third_Party/AL94_USB_Composite/COMPOSITE/Target/usbd_conf.c ****   usb_status = USBD_Get_USB_Status(hal_status);
 602:Middlewares/Third_Party/AL94_USB_Composite/COMPOSITE/Target/usbd_conf.c **** 
 603:Middlewares/Third_Party/AL94_USB_Composite/COMPOSITE/Target/usbd_conf.c ****   return usb_status;
 604:Middlewares/Third_Party/AL94_USB_Composite/COMPOSITE/Target/usbd_conf.c **** }
 605:Middlewares/Third_Party/AL94_USB_Composite/COMPOSITE/Target/usbd_conf.c **** 
 606:Middlewares/Third_Party/AL94_USB_Composite/COMPOSITE/Target/usbd_conf.c **** /**
 607:Middlewares/Third_Party/AL94_USB_Composite/COMPOSITE/Target/usbd_conf.c ****   * @brief  Flushes an endpoint of the Low Level Driver.
 608:Middlewares/Third_Party/AL94_USB_Composite/COMPOSITE/Target/usbd_conf.c ****   * @param  pdev: Device handle
 609:Middlewares/Third_Party/AL94_USB_Composite/COMPOSITE/Target/usbd_conf.c ****   * @param  ep_addr: Endpoint number
 610:Middlewares/Third_Party/AL94_USB_Composite/COMPOSITE/Target/usbd_conf.c ****   * @retval USBD status
 611:Middlewares/Third_Party/AL94_USB_Composite/COMPOSITE/Target/usbd_conf.c ****   */
 612:Middlewares/Third_Party/AL94_USB_Composite/COMPOSITE/Target/usbd_conf.c **** USBD_StatusTypeDef USBD_LL_FlushEP(USBD_HandleTypeDef *pdev, uint8_t ep_addr)
 613:Middlewares/Third_Party/AL94_USB_Composite/COMPOSITE/Target/usbd_conf.c **** {
 614:Middlewares/Third_Party/AL94_USB_Composite/COMPOSITE/Target/usbd_conf.c ****   HAL_StatusTypeDef hal_status = HAL_OK;
 615:Middlewares/Third_Party/AL94_USB_Composite/COMPOSITE/Target/usbd_conf.c ****   USBD_StatusTypeDef usb_status = USBD_OK;
 616:Middlewares/Third_Party/AL94_USB_Composite/COMPOSITE/Target/usbd_conf.c **** 
 617:Middlewares/Third_Party/AL94_USB_Composite/COMPOSITE/Target/usbd_conf.c ****   hal_status = HAL_PCD_EP_Flush(pdev->pData, ep_addr);
 618:Middlewares/Third_Party/AL94_USB_Composite/COMPOSITE/Target/usbd_conf.c **** 
 619:Middlewares/Third_Party/AL94_USB_Composite/COMPOSITE/Target/usbd_conf.c ****   usb_status = USBD_Get_USB_Status(hal_status);
 620:Middlewares/Third_Party/AL94_USB_Composite/COMPOSITE/Target/usbd_conf.c **** 
 621:Middlewares/Third_Party/AL94_USB_Composite/COMPOSITE/Target/usbd_conf.c ****   return usb_status;
 622:Middlewares/Third_Party/AL94_USB_Composite/COMPOSITE/Target/usbd_conf.c **** }
 623:Middlewares/Third_Party/AL94_USB_Composite/COMPOSITE/Target/usbd_conf.c **** 
 624:Middlewares/Third_Party/AL94_USB_Composite/COMPOSITE/Target/usbd_conf.c **** /**
 625:Middlewares/Third_Party/AL94_USB_Composite/COMPOSITE/Target/usbd_conf.c ****   * @brief  Sets a Stall condition on an endpoint of the Low Level Driver.
 626:Middlewares/Third_Party/AL94_USB_Composite/COMPOSITE/Target/usbd_conf.c ****   * @param  pdev: Device handle
 627:Middlewares/Third_Party/AL94_USB_Composite/COMPOSITE/Target/usbd_conf.c ****   * @param  ep_addr: Endpoint number
 628:Middlewares/Third_Party/AL94_USB_Composite/COMPOSITE/Target/usbd_conf.c ****   * @retval USBD status
 629:Middlewares/Third_Party/AL94_USB_Composite/COMPOSITE/Target/usbd_conf.c ****   */
 630:Middlewares/Third_Party/AL94_USB_Composite/COMPOSITE/Target/usbd_conf.c **** USBD_StatusTypeDef USBD_LL_StallEP(USBD_HandleTypeDef *pdev, uint8_t ep_addr)
 631:Middlewares/Third_Party/AL94_USB_Composite/COMPOSITE/Target/usbd_conf.c **** {
 632:Middlewares/Third_Party/AL94_USB_Composite/COMPOSITE/Target/usbd_conf.c ****   HAL_StatusTypeDef hal_status = HAL_OK;
 633:Middlewares/Third_Party/AL94_USB_Composite/COMPOSITE/Target/usbd_conf.c ****   USBD_StatusTypeDef usb_status = USBD_OK;
 634:Middlewares/Third_Party/AL94_USB_Composite/COMPOSITE/Target/usbd_conf.c **** 
 635:Middlewares/Third_Party/AL94_USB_Composite/COMPOSITE/Target/usbd_conf.c ****   hal_status = HAL_PCD_EP_SetStall(pdev->pData, ep_addr);
 636:Middlewares/Third_Party/AL94_USB_Composite/COMPOSITE/Target/usbd_conf.c **** 
 637:Middlewares/Third_Party/AL94_USB_Composite/COMPOSITE/Target/usbd_conf.c ****   usb_status = USBD_Get_USB_Status(hal_status);
 638:Middlewares/Third_Party/AL94_USB_Composite/COMPOSITE/Target/usbd_conf.c **** 
 639:Middlewares/Third_Party/AL94_USB_Composite/COMPOSITE/Target/usbd_conf.c ****   return usb_status;
 640:Middlewares/Third_Party/AL94_USB_Composite/COMPOSITE/Target/usbd_conf.c **** }
 641:Middlewares/Third_Party/AL94_USB_Composite/COMPOSITE/Target/usbd_conf.c **** 
 642:Middlewares/Third_Party/AL94_USB_Composite/COMPOSITE/Target/usbd_conf.c **** /**
 643:Middlewares/Third_Party/AL94_USB_Composite/COMPOSITE/Target/usbd_conf.c ****   * @brief  Clears a Stall condition on an endpoint of the Low Level Driver.
 644:Middlewares/Third_Party/AL94_USB_Composite/COMPOSITE/Target/usbd_conf.c ****   * @param  pdev: Device handle
 645:Middlewares/Third_Party/AL94_USB_Composite/COMPOSITE/Target/usbd_conf.c ****   * @param  ep_addr: Endpoint number
ARM GAS  C:\Users\Nathan\AppData\Local\Temp\ccCDfMpd.s 			page 23


 646:Middlewares/Third_Party/AL94_USB_Composite/COMPOSITE/Target/usbd_conf.c ****   * @retval USBD status
 647:Middlewares/Third_Party/AL94_USB_Composite/COMPOSITE/Target/usbd_conf.c ****   */
 648:Middlewares/Third_Party/AL94_USB_Composite/COMPOSITE/Target/usbd_conf.c **** USBD_StatusTypeDef USBD_LL_ClearStallEP(USBD_HandleTypeDef *pdev, uint8_t ep_addr)
 649:Middlewares/Third_Party/AL94_USB_Composite/COMPOSITE/Target/usbd_conf.c **** {
 650:Middlewares/Third_Party/AL94_USB_Composite/COMPOSITE/Target/usbd_conf.c ****   HAL_StatusTypeDef hal_status = HAL_OK;
 651:Middlewares/Third_Party/AL94_USB_Composite/COMPOSITE/Target/usbd_conf.c ****   USBD_StatusTypeDef usb_status = USBD_OK;
 652:Middlewares/Third_Party/AL94_USB_Composite/COMPOSITE/Target/usbd_conf.c **** 
 653:Middlewares/Third_Party/AL94_USB_Composite/COMPOSITE/Target/usbd_conf.c ****   hal_status = HAL_PCD_EP_ClrStall(pdev->pData, ep_addr);
 654:Middlewares/Third_Party/AL94_USB_Composite/COMPOSITE/Target/usbd_conf.c **** 
 655:Middlewares/Third_Party/AL94_USB_Composite/COMPOSITE/Target/usbd_conf.c ****   usb_status = USBD_Get_USB_Status(hal_status);
 656:Middlewares/Third_Party/AL94_USB_Composite/COMPOSITE/Target/usbd_conf.c **** 
 657:Middlewares/Third_Party/AL94_USB_Composite/COMPOSITE/Target/usbd_conf.c ****   return usb_status;
 658:Middlewares/Third_Party/AL94_USB_Composite/COMPOSITE/Target/usbd_conf.c **** }
 659:Middlewares/Third_Party/AL94_USB_Composite/COMPOSITE/Target/usbd_conf.c **** 
 660:Middlewares/Third_Party/AL94_USB_Composite/COMPOSITE/Target/usbd_conf.c **** /**
 661:Middlewares/Third_Party/AL94_USB_Composite/COMPOSITE/Target/usbd_conf.c ****   * @brief  Returns Stall condition.
 662:Middlewares/Third_Party/AL94_USB_Composite/COMPOSITE/Target/usbd_conf.c ****   * @param  pdev: Device handle
 663:Middlewares/Third_Party/AL94_USB_Composite/COMPOSITE/Target/usbd_conf.c ****   * @param  ep_addr: Endpoint number
 664:Middlewares/Third_Party/AL94_USB_Composite/COMPOSITE/Target/usbd_conf.c ****   * @retval Stall (1: Yes, 0: No)
 665:Middlewares/Third_Party/AL94_USB_Composite/COMPOSITE/Target/usbd_conf.c ****   */
 666:Middlewares/Third_Party/AL94_USB_Composite/COMPOSITE/Target/usbd_conf.c **** uint8_t USBD_LL_IsStallEP(USBD_HandleTypeDef *pdev, uint8_t ep_addr)
 667:Middlewares/Third_Party/AL94_USB_Composite/COMPOSITE/Target/usbd_conf.c **** {
 601              		.loc 1 667 1 is_stmt 1 view -0
 602              		.cfi_startproc
 603              		@ args = 0, pretend = 0, frame = 0
 604              		@ frame_needed = 0, uses_anonymous_args = 0
 605              		@ link register save eliminated.
 668:Middlewares/Third_Party/AL94_USB_Composite/COMPOSITE/Target/usbd_conf.c ****   PCD_HandleTypeDef *hpcd = (PCD_HandleTypeDef *)pdev->pData;
 606              		.loc 1 668 3 view .LVU112
 607              		.loc 1 668 22 is_stmt 0 view .LVU113
 608 0000 D0F81033 		ldr	r3, [r0, #784]
 609              	.LVL60:
 669:Middlewares/Third_Party/AL94_USB_Composite/COMPOSITE/Target/usbd_conf.c **** 
 670:Middlewares/Third_Party/AL94_USB_Composite/COMPOSITE/Target/usbd_conf.c ****   if ((ep_addr & 0x80) == 0x80)
 610              		.loc 1 670 3 is_stmt 1 view .LVU114
 611              		.loc 1 670 6 is_stmt 0 view .LVU115
 612 0004 11F0800F 		tst	r1, #128
 613 0008 08D1     		bne	.L38
 671:Middlewares/Third_Party/AL94_USB_Composite/COMPOSITE/Target/usbd_conf.c ****   {
 672:Middlewares/Third_Party/AL94_USB_Composite/COMPOSITE/Target/usbd_conf.c ****     return hpcd->IN_ep[ep_addr & 0x7F].is_stall;
 673:Middlewares/Third_Party/AL94_USB_Composite/COMPOSITE/Target/usbd_conf.c ****   }
 674:Middlewares/Third_Party/AL94_USB_Composite/COMPOSITE/Target/usbd_conf.c ****   else
 675:Middlewares/Third_Party/AL94_USB_Composite/COMPOSITE/Target/usbd_conf.c ****   {
 676:Middlewares/Third_Party/AL94_USB_Composite/COMPOSITE/Target/usbd_conf.c ****     return hpcd->OUT_ep[ep_addr & 0x7F].is_stall;
 614              		.loc 1 676 5 is_stmt 1 view .LVU116
 615              		.loc 1 676 33 is_stmt 0 view .LVU117
 616 000a 01F07F01 		and	r1, r1, #127
 617              	.LVL61:
 618              		.loc 1 676 40 view .LVU118
 619 000e 01EB8101 		add	r1, r1, r1, lsl #2
 620 0012 03EBC103 		add	r3, r3, r1, lsl #3
 621              	.LVL62:
 622              		.loc 1 676 40 view .LVU119
 623 0016 93F85201 		ldrb	r0, [r3, #338]	@ zero_extendqisi2
 624              	.LVL63:
 677:Middlewares/Third_Party/AL94_USB_Composite/COMPOSITE/Target/usbd_conf.c ****   }
 678:Middlewares/Third_Party/AL94_USB_Composite/COMPOSITE/Target/usbd_conf.c **** }
ARM GAS  C:\Users\Nathan\AppData\Local\Temp\ccCDfMpd.s 			page 24


 625              		.loc 1 678 1 view .LVU120
 626 001a 7047     		bx	lr
 627              	.LVL64:
 628              	.L38:
 672:Middlewares/Third_Party/AL94_USB_Composite/COMPOSITE/Target/usbd_conf.c ****   }
 629              		.loc 1 672 5 is_stmt 1 view .LVU121
 672:Middlewares/Third_Party/AL94_USB_Composite/COMPOSITE/Target/usbd_conf.c ****   }
 630              		.loc 1 672 32 is_stmt 0 view .LVU122
 631 001c 01F07F01 		and	r1, r1, #127
 632              	.LVL65:
 672:Middlewares/Third_Party/AL94_USB_Composite/COMPOSITE/Target/usbd_conf.c ****   }
 633              		.loc 1 672 39 view .LVU123
 634 0020 01EB8101 		add	r1, r1, r1, lsl #2
 635 0024 03EBC103 		add	r3, r3, r1, lsl #3
 636              	.LVL66:
 672:Middlewares/Third_Party/AL94_USB_Composite/COMPOSITE/Target/usbd_conf.c ****   }
 637              		.loc 1 672 39 view .LVU124
 638 0028 987C     		ldrb	r0, [r3, #18]	@ zero_extendqisi2
 639              	.LVL67:
 672:Middlewares/Third_Party/AL94_USB_Composite/COMPOSITE/Target/usbd_conf.c ****   }
 640              		.loc 1 672 39 view .LVU125
 641 002a 7047     		bx	lr
 642              		.cfi_endproc
 643              	.LFE1438:
 645              		.section	.text.USBD_LL_GetRxDataSize,"ax",%progbits
 646              		.align	1
 647              		.global	USBD_LL_GetRxDataSize
 648              		.syntax unified
 649              		.thumb
 650              		.thumb_func
 652              	USBD_LL_GetRxDataSize:
 653              	.LVL68:
 654              	.LFB1442:
 679:Middlewares/Third_Party/AL94_USB_Composite/COMPOSITE/Target/usbd_conf.c **** 
 680:Middlewares/Third_Party/AL94_USB_Composite/COMPOSITE/Target/usbd_conf.c **** /**
 681:Middlewares/Third_Party/AL94_USB_Composite/COMPOSITE/Target/usbd_conf.c ****   * @brief  Assigns a USB address to the device.
 682:Middlewares/Third_Party/AL94_USB_Composite/COMPOSITE/Target/usbd_conf.c ****   * @param  pdev: Device handle
 683:Middlewares/Third_Party/AL94_USB_Composite/COMPOSITE/Target/usbd_conf.c ****   * @param  dev_addr: Device address
 684:Middlewares/Third_Party/AL94_USB_Composite/COMPOSITE/Target/usbd_conf.c ****   * @retval USBD status
 685:Middlewares/Third_Party/AL94_USB_Composite/COMPOSITE/Target/usbd_conf.c ****   */
 686:Middlewares/Third_Party/AL94_USB_Composite/COMPOSITE/Target/usbd_conf.c **** USBD_StatusTypeDef USBD_LL_SetUSBAddress(USBD_HandleTypeDef *pdev, uint8_t dev_addr)
 687:Middlewares/Third_Party/AL94_USB_Composite/COMPOSITE/Target/usbd_conf.c **** {
 688:Middlewares/Third_Party/AL94_USB_Composite/COMPOSITE/Target/usbd_conf.c ****   HAL_StatusTypeDef hal_status = HAL_OK;
 689:Middlewares/Third_Party/AL94_USB_Composite/COMPOSITE/Target/usbd_conf.c ****   USBD_StatusTypeDef usb_status = USBD_OK;
 690:Middlewares/Third_Party/AL94_USB_Composite/COMPOSITE/Target/usbd_conf.c **** 
 691:Middlewares/Third_Party/AL94_USB_Composite/COMPOSITE/Target/usbd_conf.c ****   hal_status = HAL_PCD_SetAddress(pdev->pData, dev_addr);
 692:Middlewares/Third_Party/AL94_USB_Composite/COMPOSITE/Target/usbd_conf.c **** 
 693:Middlewares/Third_Party/AL94_USB_Composite/COMPOSITE/Target/usbd_conf.c ****   usb_status = USBD_Get_USB_Status(hal_status);
 694:Middlewares/Third_Party/AL94_USB_Composite/COMPOSITE/Target/usbd_conf.c **** 
 695:Middlewares/Third_Party/AL94_USB_Composite/COMPOSITE/Target/usbd_conf.c ****   return usb_status;
 696:Middlewares/Third_Party/AL94_USB_Composite/COMPOSITE/Target/usbd_conf.c **** }
 697:Middlewares/Third_Party/AL94_USB_Composite/COMPOSITE/Target/usbd_conf.c **** 
 698:Middlewares/Third_Party/AL94_USB_Composite/COMPOSITE/Target/usbd_conf.c **** /**
 699:Middlewares/Third_Party/AL94_USB_Composite/COMPOSITE/Target/usbd_conf.c ****   * @brief  Transmits data over an endpoint.
 700:Middlewares/Third_Party/AL94_USB_Composite/COMPOSITE/Target/usbd_conf.c ****   * @param  pdev: Device handle
 701:Middlewares/Third_Party/AL94_USB_Composite/COMPOSITE/Target/usbd_conf.c ****   * @param  ep_addr: Endpoint number
 702:Middlewares/Third_Party/AL94_USB_Composite/COMPOSITE/Target/usbd_conf.c ****   * @param  pbuf: Pointer to data to be sent
ARM GAS  C:\Users\Nathan\AppData\Local\Temp\ccCDfMpd.s 			page 25


 703:Middlewares/Third_Party/AL94_USB_Composite/COMPOSITE/Target/usbd_conf.c ****   * @param  size: Data size
 704:Middlewares/Third_Party/AL94_USB_Composite/COMPOSITE/Target/usbd_conf.c ****   * @retval USBD status
 705:Middlewares/Third_Party/AL94_USB_Composite/COMPOSITE/Target/usbd_conf.c ****   */
 706:Middlewares/Third_Party/AL94_USB_Composite/COMPOSITE/Target/usbd_conf.c **** USBD_StatusTypeDef USBD_LL_Transmit(USBD_HandleTypeDef *pdev, uint8_t ep_addr, uint8_t *pbuf, uint3
 707:Middlewares/Third_Party/AL94_USB_Composite/COMPOSITE/Target/usbd_conf.c **** {
 708:Middlewares/Third_Party/AL94_USB_Composite/COMPOSITE/Target/usbd_conf.c ****   HAL_StatusTypeDef hal_status = HAL_OK;
 709:Middlewares/Third_Party/AL94_USB_Composite/COMPOSITE/Target/usbd_conf.c ****   USBD_StatusTypeDef usb_status = USBD_OK;
 710:Middlewares/Third_Party/AL94_USB_Composite/COMPOSITE/Target/usbd_conf.c **** 
 711:Middlewares/Third_Party/AL94_USB_Composite/COMPOSITE/Target/usbd_conf.c ****   hal_status = HAL_PCD_EP_Transmit(pdev->pData, ep_addr, pbuf, size);
 712:Middlewares/Third_Party/AL94_USB_Composite/COMPOSITE/Target/usbd_conf.c **** 
 713:Middlewares/Third_Party/AL94_USB_Composite/COMPOSITE/Target/usbd_conf.c ****   usb_status = USBD_Get_USB_Status(hal_status);
 714:Middlewares/Third_Party/AL94_USB_Composite/COMPOSITE/Target/usbd_conf.c **** 
 715:Middlewares/Third_Party/AL94_USB_Composite/COMPOSITE/Target/usbd_conf.c ****   return usb_status;
 716:Middlewares/Third_Party/AL94_USB_Composite/COMPOSITE/Target/usbd_conf.c **** }
 717:Middlewares/Third_Party/AL94_USB_Composite/COMPOSITE/Target/usbd_conf.c **** 
 718:Middlewares/Third_Party/AL94_USB_Composite/COMPOSITE/Target/usbd_conf.c **** /**
 719:Middlewares/Third_Party/AL94_USB_Composite/COMPOSITE/Target/usbd_conf.c ****   * @brief  Prepares an endpoint for reception.
 720:Middlewares/Third_Party/AL94_USB_Composite/COMPOSITE/Target/usbd_conf.c ****   * @param  pdev: Device handle
 721:Middlewares/Third_Party/AL94_USB_Composite/COMPOSITE/Target/usbd_conf.c ****   * @param  ep_addr: Endpoint number
 722:Middlewares/Third_Party/AL94_USB_Composite/COMPOSITE/Target/usbd_conf.c ****   * @param  pbuf: Pointer to data to be received
 723:Middlewares/Third_Party/AL94_USB_Composite/COMPOSITE/Target/usbd_conf.c ****   * @param  size: Data size
 724:Middlewares/Third_Party/AL94_USB_Composite/COMPOSITE/Target/usbd_conf.c ****   * @retval USBD status
 725:Middlewares/Third_Party/AL94_USB_Composite/COMPOSITE/Target/usbd_conf.c ****   */
 726:Middlewares/Third_Party/AL94_USB_Composite/COMPOSITE/Target/usbd_conf.c **** USBD_StatusTypeDef USBD_LL_PrepareReceive(USBD_HandleTypeDef *pdev, uint8_t ep_addr, uint8_t *pbuf,
 727:Middlewares/Third_Party/AL94_USB_Composite/COMPOSITE/Target/usbd_conf.c **** {
 728:Middlewares/Third_Party/AL94_USB_Composite/COMPOSITE/Target/usbd_conf.c ****   HAL_StatusTypeDef hal_status = HAL_OK;
 729:Middlewares/Third_Party/AL94_USB_Composite/COMPOSITE/Target/usbd_conf.c ****   USBD_StatusTypeDef usb_status = USBD_OK;
 730:Middlewares/Third_Party/AL94_USB_Composite/COMPOSITE/Target/usbd_conf.c **** 
 731:Middlewares/Third_Party/AL94_USB_Composite/COMPOSITE/Target/usbd_conf.c ****   hal_status = HAL_PCD_EP_Receive(pdev->pData, ep_addr, pbuf, size);
 732:Middlewares/Third_Party/AL94_USB_Composite/COMPOSITE/Target/usbd_conf.c **** 
 733:Middlewares/Third_Party/AL94_USB_Composite/COMPOSITE/Target/usbd_conf.c ****   usb_status = USBD_Get_USB_Status(hal_status);
 734:Middlewares/Third_Party/AL94_USB_Composite/COMPOSITE/Target/usbd_conf.c **** 
 735:Middlewares/Third_Party/AL94_USB_Composite/COMPOSITE/Target/usbd_conf.c ****   return usb_status;
 736:Middlewares/Third_Party/AL94_USB_Composite/COMPOSITE/Target/usbd_conf.c **** }
 737:Middlewares/Third_Party/AL94_USB_Composite/COMPOSITE/Target/usbd_conf.c **** 
 738:Middlewares/Third_Party/AL94_USB_Composite/COMPOSITE/Target/usbd_conf.c **** /**
 739:Middlewares/Third_Party/AL94_USB_Composite/COMPOSITE/Target/usbd_conf.c ****   * @brief  Returns the last transfered packet size.
 740:Middlewares/Third_Party/AL94_USB_Composite/COMPOSITE/Target/usbd_conf.c ****   * @param  pdev: Device handle
 741:Middlewares/Third_Party/AL94_USB_Composite/COMPOSITE/Target/usbd_conf.c ****   * @param  ep_addr: Endpoint number
 742:Middlewares/Third_Party/AL94_USB_Composite/COMPOSITE/Target/usbd_conf.c ****   * @retval Recived Data Size
 743:Middlewares/Third_Party/AL94_USB_Composite/COMPOSITE/Target/usbd_conf.c ****   */
 744:Middlewares/Third_Party/AL94_USB_Composite/COMPOSITE/Target/usbd_conf.c **** uint32_t USBD_LL_GetRxDataSize(USBD_HandleTypeDef *pdev, uint8_t ep_addr)
 745:Middlewares/Third_Party/AL94_USB_Composite/COMPOSITE/Target/usbd_conf.c **** {
 655              		.loc 1 745 1 is_stmt 1 view -0
 656              		.cfi_startproc
 657              		@ args = 0, pretend = 0, frame = 0
 658              		@ frame_needed = 0, uses_anonymous_args = 0
 659              		.loc 1 745 1 is_stmt 0 view .LVU127
 660 0000 08B5     		push	{r3, lr}
 661              		.cfi_def_cfa_offset 8
 662              		.cfi_offset 3, -8
 663              		.cfi_offset 14, -4
 746:Middlewares/Third_Party/AL94_USB_Composite/COMPOSITE/Target/usbd_conf.c ****   return HAL_PCD_EP_GetRxCount((PCD_HandleTypeDef *)pdev->pData, ep_addr);
 664              		.loc 1 746 3 is_stmt 1 view .LVU128
 665              		.loc 1 746 10 is_stmt 0 view .LVU129
 666 0002 D0F81003 		ldr	r0, [r0, #784]
 667              	.LVL69:
ARM GAS  C:\Users\Nathan\AppData\Local\Temp\ccCDfMpd.s 			page 26


 668              		.loc 1 746 10 view .LVU130
 669 0006 FFF7FEFF 		bl	HAL_PCD_EP_GetRxCount
 670              	.LVL70:
 747:Middlewares/Third_Party/AL94_USB_Composite/COMPOSITE/Target/usbd_conf.c **** }
 671              		.loc 1 747 1 view .LVU131
 672 000a 08BD     		pop	{r3, pc}
 673              		.cfi_endproc
 674              	.LFE1442:
 676              		.section	.text.USBD_LL_Delay,"ax",%progbits
 677              		.align	1
 678              		.global	USBD_LL_Delay
 679              		.syntax unified
 680              		.thumb
 681              		.thumb_func
 683              	USBD_LL_Delay:
 684              	.LVL71:
 685              	.LFB1443:
 748:Middlewares/Third_Party/AL94_USB_Composite/COMPOSITE/Target/usbd_conf.c **** 
 749:Middlewares/Third_Party/AL94_USB_Composite/COMPOSITE/Target/usbd_conf.c **** /**
 750:Middlewares/Third_Party/AL94_USB_Composite/COMPOSITE/Target/usbd_conf.c ****   * @brief  Delays routine for the USB device library.
 751:Middlewares/Third_Party/AL94_USB_Composite/COMPOSITE/Target/usbd_conf.c ****   * @param  Delay: Delay in ms
 752:Middlewares/Third_Party/AL94_USB_Composite/COMPOSITE/Target/usbd_conf.c ****   * @retval None
 753:Middlewares/Third_Party/AL94_USB_Composite/COMPOSITE/Target/usbd_conf.c ****   */
 754:Middlewares/Third_Party/AL94_USB_Composite/COMPOSITE/Target/usbd_conf.c **** void USBD_LL_Delay(uint32_t Delay)
 755:Middlewares/Third_Party/AL94_USB_Composite/COMPOSITE/Target/usbd_conf.c **** {
 686              		.loc 1 755 1 is_stmt 1 view -0
 687              		.cfi_startproc
 688              		@ args = 0, pretend = 0, frame = 0
 689              		@ frame_needed = 0, uses_anonymous_args = 0
 690              		.loc 1 755 1 is_stmt 0 view .LVU133
 691 0000 08B5     		push	{r3, lr}
 692              		.cfi_def_cfa_offset 8
 693              		.cfi_offset 3, -8
 694              		.cfi_offset 14, -4
 756:Middlewares/Third_Party/AL94_USB_Composite/COMPOSITE/Target/usbd_conf.c ****   HAL_Delay(Delay);
 695              		.loc 1 756 3 is_stmt 1 view .LVU134
 696 0002 FFF7FEFF 		bl	HAL_Delay
 697              	.LVL72:
 757:Middlewares/Third_Party/AL94_USB_Composite/COMPOSITE/Target/usbd_conf.c **** }
 698              		.loc 1 757 1 is_stmt 0 view .LVU135
 699 0006 08BD     		pop	{r3, pc}
 700              		.cfi_endproc
 701              	.LFE1443:
 703              		.section	.text.USBD_Get_USB_Status,"ax",%progbits
 704              		.align	1
 705              		.global	USBD_Get_USB_Status
 706              		.syntax unified
 707              		.thumb
 708              		.thumb_func
 710              	USBD_Get_USB_Status:
 711              	.LVL73:
 712              	.LFB1444:
 758:Middlewares/Third_Party/AL94_USB_Composite/COMPOSITE/Target/usbd_conf.c **** 
 759:Middlewares/Third_Party/AL94_USB_Composite/COMPOSITE/Target/usbd_conf.c **** /**
 760:Middlewares/Third_Party/AL94_USB_Composite/COMPOSITE/Target/usbd_conf.c ****   * @brief  Retuns the USB status depending on the HAL status:
 761:Middlewares/Third_Party/AL94_USB_Composite/COMPOSITE/Target/usbd_conf.c ****   * @param  hal_status: HAL status
 762:Middlewares/Third_Party/AL94_USB_Composite/COMPOSITE/Target/usbd_conf.c ****   * @retval USB status
ARM GAS  C:\Users\Nathan\AppData\Local\Temp\ccCDfMpd.s 			page 27


 763:Middlewares/Third_Party/AL94_USB_Composite/COMPOSITE/Target/usbd_conf.c ****   */
 764:Middlewares/Third_Party/AL94_USB_Composite/COMPOSITE/Target/usbd_conf.c **** USBD_StatusTypeDef USBD_Get_USB_Status(HAL_StatusTypeDef hal_status)
 765:Middlewares/Third_Party/AL94_USB_Composite/COMPOSITE/Target/usbd_conf.c **** {
 713              		.loc 1 765 1 is_stmt 1 view -0
 714              		.cfi_startproc
 715              		@ args = 0, pretend = 0, frame = 0
 716              		@ frame_needed = 0, uses_anonymous_args = 0
 717              		@ link register save eliminated.
 766:Middlewares/Third_Party/AL94_USB_Composite/COMPOSITE/Target/usbd_conf.c ****   USBD_StatusTypeDef usb_status = USBD_OK;
 718              		.loc 1 766 3 view .LVU137
 767:Middlewares/Third_Party/AL94_USB_Composite/COMPOSITE/Target/usbd_conf.c **** 
 768:Middlewares/Third_Party/AL94_USB_Composite/COMPOSITE/Target/usbd_conf.c ****   switch (hal_status)
 719              		.loc 1 768 3 view .LVU138
 720 0000 0328     		cmp	r0, #3
 721 0002 05D8     		bhi	.L49
 722 0004 DFE800F0 		tbb	[pc, r0]
 723              	.L46:
 724 0008 05       		.byte	(.L44-.L46)/2
 725 0009 04       		.byte	(.L49-.L46)/2
 726 000a 02       		.byte	(.L47-.L46)/2
 727 000b 05       		.byte	(.L44-.L46)/2
 728              		.p2align 1
 729              	.L47:
 769:Middlewares/Third_Party/AL94_USB_Composite/COMPOSITE/Target/usbd_conf.c ****   {
 770:Middlewares/Third_Party/AL94_USB_Composite/COMPOSITE/Target/usbd_conf.c ****   case HAL_OK:
 771:Middlewares/Third_Party/AL94_USB_Composite/COMPOSITE/Target/usbd_conf.c ****     usb_status = USBD_OK;
 772:Middlewares/Third_Party/AL94_USB_Composite/COMPOSITE/Target/usbd_conf.c ****     break;
 773:Middlewares/Third_Party/AL94_USB_Composite/COMPOSITE/Target/usbd_conf.c ****   case HAL_ERROR:
 774:Middlewares/Third_Party/AL94_USB_Composite/COMPOSITE/Target/usbd_conf.c ****     usb_status = USBD_FAIL;
 775:Middlewares/Third_Party/AL94_USB_Composite/COMPOSITE/Target/usbd_conf.c ****     break;
 776:Middlewares/Third_Party/AL94_USB_Composite/COMPOSITE/Target/usbd_conf.c ****   case HAL_BUSY:
 777:Middlewares/Third_Party/AL94_USB_Composite/COMPOSITE/Target/usbd_conf.c ****     usb_status = USBD_BUSY;
 730              		.loc 1 777 5 view .LVU139
 731              	.LVL74:
 778:Middlewares/Third_Party/AL94_USB_Composite/COMPOSITE/Target/usbd_conf.c ****     break;
 732              		.loc 1 778 5 view .LVU140
 777:Middlewares/Third_Party/AL94_USB_Composite/COMPOSITE/Target/usbd_conf.c ****     break;
 733              		.loc 1 777 16 is_stmt 0 view .LVU141
 734 000c 0120     		movs	r0, #1
 735              	.LVL75:
 736              		.loc 1 778 5 view .LVU142
 737 000e 7047     		bx	lr
 738              	.LVL76:
 739              	.L49:
 774:Middlewares/Third_Party/AL94_USB_Composite/COMPOSITE/Target/usbd_conf.c ****     break;
 740              		.loc 1 774 16 view .LVU143
 741 0010 0320     		movs	r0, #3
 742              	.LVL77:
 743              	.L44:
 779:Middlewares/Third_Party/AL94_USB_Composite/COMPOSITE/Target/usbd_conf.c ****   case HAL_TIMEOUT:
 780:Middlewares/Third_Party/AL94_USB_Composite/COMPOSITE/Target/usbd_conf.c ****     usb_status = USBD_FAIL;
 781:Middlewares/Third_Party/AL94_USB_Composite/COMPOSITE/Target/usbd_conf.c ****     break;
 782:Middlewares/Third_Party/AL94_USB_Composite/COMPOSITE/Target/usbd_conf.c ****   default:
 783:Middlewares/Third_Party/AL94_USB_Composite/COMPOSITE/Target/usbd_conf.c ****     usb_status = USBD_FAIL;
 784:Middlewares/Third_Party/AL94_USB_Composite/COMPOSITE/Target/usbd_conf.c ****     break;
 785:Middlewares/Third_Party/AL94_USB_Composite/COMPOSITE/Target/usbd_conf.c ****   }
 786:Middlewares/Third_Party/AL94_USB_Composite/COMPOSITE/Target/usbd_conf.c ****   return usb_status;
ARM GAS  C:\Users\Nathan\AppData\Local\Temp\ccCDfMpd.s 			page 28


 744              		.loc 1 786 3 is_stmt 1 view .LVU144
 787:Middlewares/Third_Party/AL94_USB_Composite/COMPOSITE/Target/usbd_conf.c **** }
 745              		.loc 1 787 1 is_stmt 0 view .LVU145
 746 0012 7047     		bx	lr
 747              		.cfi_endproc
 748              	.LFE1444:
 750              		.section	.text.USBD_LL_DeInit,"ax",%progbits
 751              		.align	1
 752              		.global	USBD_LL_DeInit
 753              		.syntax unified
 754              		.thumb
 755              		.thumb_func
 757              	USBD_LL_DeInit:
 758              	.LVL78:
 759              	.LFB1430:
 523:Middlewares/Third_Party/AL94_USB_Composite/COMPOSITE/Target/usbd_conf.c ****   HAL_StatusTypeDef hal_status = HAL_OK;
 760              		.loc 1 523 1 is_stmt 1 view -0
 761              		.cfi_startproc
 762              		@ args = 0, pretend = 0, frame = 0
 763              		@ frame_needed = 0, uses_anonymous_args = 0
 523:Middlewares/Third_Party/AL94_USB_Composite/COMPOSITE/Target/usbd_conf.c ****   HAL_StatusTypeDef hal_status = HAL_OK;
 764              		.loc 1 523 1 is_stmt 0 view .LVU147
 765 0000 08B5     		push	{r3, lr}
 766              		.cfi_def_cfa_offset 8
 767              		.cfi_offset 3, -8
 768              		.cfi_offset 14, -4
 524:Middlewares/Third_Party/AL94_USB_Composite/COMPOSITE/Target/usbd_conf.c ****   USBD_StatusTypeDef usb_status = USBD_OK;
 769              		.loc 1 524 3 is_stmt 1 view .LVU148
 770              	.LVL79:
 525:Middlewares/Third_Party/AL94_USB_Composite/COMPOSITE/Target/usbd_conf.c **** 
 771              		.loc 1 525 3 view .LVU149
 527:Middlewares/Third_Party/AL94_USB_Composite/COMPOSITE/Target/usbd_conf.c **** 
 772              		.loc 1 527 3 view .LVU150
 527:Middlewares/Third_Party/AL94_USB_Composite/COMPOSITE/Target/usbd_conf.c **** 
 773              		.loc 1 527 16 is_stmt 0 view .LVU151
 774 0002 D0F81003 		ldr	r0, [r0, #784]
 775              	.LVL80:
 527:Middlewares/Third_Party/AL94_USB_Composite/COMPOSITE/Target/usbd_conf.c **** 
 776              		.loc 1 527 16 view .LVU152
 777 0006 FFF7FEFF 		bl	HAL_PCD_DeInit
 778              	.LVL81:
 529:Middlewares/Third_Party/AL94_USB_Composite/COMPOSITE/Target/usbd_conf.c **** 
 779              		.loc 1 529 3 is_stmt 1 view .LVU153
 529:Middlewares/Third_Party/AL94_USB_Composite/COMPOSITE/Target/usbd_conf.c **** 
 780              		.loc 1 529 16 is_stmt 0 view .LVU154
 781 000a FFF7FEFF 		bl	USBD_Get_USB_Status
 782              	.LVL82:
 531:Middlewares/Third_Party/AL94_USB_Composite/COMPOSITE/Target/usbd_conf.c **** }
 783              		.loc 1 531 3 is_stmt 1 view .LVU155
 532:Middlewares/Third_Party/AL94_USB_Composite/COMPOSITE/Target/usbd_conf.c **** 
 784              		.loc 1 532 1 is_stmt 0 view .LVU156
 785 000e 08BD     		pop	{r3, pc}
 786              		.cfi_endproc
 787              	.LFE1430:
 789              		.section	.text.USBD_LL_Start,"ax",%progbits
 790              		.align	1
 791              		.global	USBD_LL_Start
ARM GAS  C:\Users\Nathan\AppData\Local\Temp\ccCDfMpd.s 			page 29


 792              		.syntax unified
 793              		.thumb
 794              		.thumb_func
 796              	USBD_LL_Start:
 797              	.LVL83:
 798              	.LFB1431:
 540:Middlewares/Third_Party/AL94_USB_Composite/COMPOSITE/Target/usbd_conf.c ****   HAL_StatusTypeDef hal_status = HAL_OK;
 799              		.loc 1 540 1 is_stmt 1 view -0
 800              		.cfi_startproc
 801              		@ args = 0, pretend = 0, frame = 0
 802              		@ frame_needed = 0, uses_anonymous_args = 0
 540:Middlewares/Third_Party/AL94_USB_Composite/COMPOSITE/Target/usbd_conf.c ****   HAL_StatusTypeDef hal_status = HAL_OK;
 803              		.loc 1 540 1 is_stmt 0 view .LVU158
 804 0000 08B5     		push	{r3, lr}
 805              		.cfi_def_cfa_offset 8
 806              		.cfi_offset 3, -8
 807              		.cfi_offset 14, -4
 541:Middlewares/Third_Party/AL94_USB_Composite/COMPOSITE/Target/usbd_conf.c ****   USBD_StatusTypeDef usb_status = USBD_OK;
 808              		.loc 1 541 3 is_stmt 1 view .LVU159
 809              	.LVL84:
 542:Middlewares/Third_Party/AL94_USB_Composite/COMPOSITE/Target/usbd_conf.c **** 
 810              		.loc 1 542 3 view .LVU160
 544:Middlewares/Third_Party/AL94_USB_Composite/COMPOSITE/Target/usbd_conf.c **** 
 811              		.loc 1 544 3 view .LVU161
 544:Middlewares/Third_Party/AL94_USB_Composite/COMPOSITE/Target/usbd_conf.c **** 
 812              		.loc 1 544 16 is_stmt 0 view .LVU162
 813 0002 D0F81003 		ldr	r0, [r0, #784]
 814              	.LVL85:
 544:Middlewares/Third_Party/AL94_USB_Composite/COMPOSITE/Target/usbd_conf.c **** 
 815              		.loc 1 544 16 view .LVU163
 816 0006 FFF7FEFF 		bl	HAL_PCD_Start
 817              	.LVL86:
 546:Middlewares/Third_Party/AL94_USB_Composite/COMPOSITE/Target/usbd_conf.c **** 
 818              		.loc 1 546 3 is_stmt 1 view .LVU164
 546:Middlewares/Third_Party/AL94_USB_Composite/COMPOSITE/Target/usbd_conf.c **** 
 819              		.loc 1 546 16 is_stmt 0 view .LVU165
 820 000a FFF7FEFF 		bl	USBD_Get_USB_Status
 821              	.LVL87:
 548:Middlewares/Third_Party/AL94_USB_Composite/COMPOSITE/Target/usbd_conf.c **** }
 822              		.loc 1 548 3 is_stmt 1 view .LVU166
 549:Middlewares/Third_Party/AL94_USB_Composite/COMPOSITE/Target/usbd_conf.c **** 
 823              		.loc 1 549 1 is_stmt 0 view .LVU167
 824 000e 08BD     		pop	{r3, pc}
 825              		.cfi_endproc
 826              	.LFE1431:
 828              		.section	.text.USBD_LL_Stop,"ax",%progbits
 829              		.align	1
 830              		.global	USBD_LL_Stop
 831              		.syntax unified
 832              		.thumb
 833              		.thumb_func
 835              	USBD_LL_Stop:
 836              	.LVL88:
 837              	.LFB1432:
 557:Middlewares/Third_Party/AL94_USB_Composite/COMPOSITE/Target/usbd_conf.c ****   HAL_StatusTypeDef hal_status = HAL_OK;
 838              		.loc 1 557 1 is_stmt 1 view -0
 839              		.cfi_startproc
ARM GAS  C:\Users\Nathan\AppData\Local\Temp\ccCDfMpd.s 			page 30


 840              		@ args = 0, pretend = 0, frame = 0
 841              		@ frame_needed = 0, uses_anonymous_args = 0
 557:Middlewares/Third_Party/AL94_USB_Composite/COMPOSITE/Target/usbd_conf.c ****   HAL_StatusTypeDef hal_status = HAL_OK;
 842              		.loc 1 557 1 is_stmt 0 view .LVU169
 843 0000 08B5     		push	{r3, lr}
 844              		.cfi_def_cfa_offset 8
 845              		.cfi_offset 3, -8
 846              		.cfi_offset 14, -4
 558:Middlewares/Third_Party/AL94_USB_Composite/COMPOSITE/Target/usbd_conf.c ****   USBD_StatusTypeDef usb_status = USBD_OK;
 847              		.loc 1 558 3 is_stmt 1 view .LVU170
 848              	.LVL89:
 559:Middlewares/Third_Party/AL94_USB_Composite/COMPOSITE/Target/usbd_conf.c **** 
 849              		.loc 1 559 3 view .LVU171
 561:Middlewares/Third_Party/AL94_USB_Composite/COMPOSITE/Target/usbd_conf.c **** 
 850              		.loc 1 561 3 view .LVU172
 561:Middlewares/Third_Party/AL94_USB_Composite/COMPOSITE/Target/usbd_conf.c **** 
 851              		.loc 1 561 16 is_stmt 0 view .LVU173
 852 0002 D0F81003 		ldr	r0, [r0, #784]
 853              	.LVL90:
 561:Middlewares/Third_Party/AL94_USB_Composite/COMPOSITE/Target/usbd_conf.c **** 
 854              		.loc 1 561 16 view .LVU174
 855 0006 FFF7FEFF 		bl	HAL_PCD_Stop
 856              	.LVL91:
 563:Middlewares/Third_Party/AL94_USB_Composite/COMPOSITE/Target/usbd_conf.c **** 
 857              		.loc 1 563 3 is_stmt 1 view .LVU175
 563:Middlewares/Third_Party/AL94_USB_Composite/COMPOSITE/Target/usbd_conf.c **** 
 858              		.loc 1 563 16 is_stmt 0 view .LVU176
 859 000a FFF7FEFF 		bl	USBD_Get_USB_Status
 860              	.LVL92:
 565:Middlewares/Third_Party/AL94_USB_Composite/COMPOSITE/Target/usbd_conf.c **** }
 861              		.loc 1 565 3 is_stmt 1 view .LVU177
 566:Middlewares/Third_Party/AL94_USB_Composite/COMPOSITE/Target/usbd_conf.c **** 
 862              		.loc 1 566 1 is_stmt 0 view .LVU178
 863 000e 08BD     		pop	{r3, pc}
 864              		.cfi_endproc
 865              	.LFE1432:
 867              		.section	.text.USBD_LL_OpenEP,"ax",%progbits
 868              		.align	1
 869              		.global	USBD_LL_OpenEP
 870              		.syntax unified
 871              		.thumb
 872              		.thumb_func
 874              	USBD_LL_OpenEP:
 875              	.LVL93:
 876              	.LFB1433:
 577:Middlewares/Third_Party/AL94_USB_Composite/COMPOSITE/Target/usbd_conf.c ****   HAL_StatusTypeDef hal_status = HAL_OK;
 877              		.loc 1 577 1 is_stmt 1 view -0
 878              		.cfi_startproc
 879              		@ args = 0, pretend = 0, frame = 0
 880              		@ frame_needed = 0, uses_anonymous_args = 0
 577:Middlewares/Third_Party/AL94_USB_Composite/COMPOSITE/Target/usbd_conf.c ****   HAL_StatusTypeDef hal_status = HAL_OK;
 881              		.loc 1 577 1 is_stmt 0 view .LVU180
 882 0000 08B5     		push	{r3, lr}
 883              		.cfi_def_cfa_offset 8
 884              		.cfi_offset 3, -8
 885              		.cfi_offset 14, -4
 886 0002 9446     		mov	ip, r2
ARM GAS  C:\Users\Nathan\AppData\Local\Temp\ccCDfMpd.s 			page 31


 887 0004 1A46     		mov	r2, r3
 888              	.LVL94:
 578:Middlewares/Third_Party/AL94_USB_Composite/COMPOSITE/Target/usbd_conf.c ****   USBD_StatusTypeDef usb_status = USBD_OK;
 889              		.loc 1 578 3 is_stmt 1 view .LVU181
 579:Middlewares/Third_Party/AL94_USB_Composite/COMPOSITE/Target/usbd_conf.c **** 
 890              		.loc 1 579 3 view .LVU182
 581:Middlewares/Third_Party/AL94_USB_Composite/COMPOSITE/Target/usbd_conf.c **** 
 891              		.loc 1 581 3 view .LVU183
 581:Middlewares/Third_Party/AL94_USB_Composite/COMPOSITE/Target/usbd_conf.c **** 
 892              		.loc 1 581 16 is_stmt 0 view .LVU184
 893 0006 6346     		mov	r3, ip
 894              	.LVL95:
 581:Middlewares/Third_Party/AL94_USB_Composite/COMPOSITE/Target/usbd_conf.c **** 
 895              		.loc 1 581 16 view .LVU185
 896 0008 D0F81003 		ldr	r0, [r0, #784]
 897              	.LVL96:
 581:Middlewares/Third_Party/AL94_USB_Composite/COMPOSITE/Target/usbd_conf.c **** 
 898              		.loc 1 581 16 view .LVU186
 899 000c FFF7FEFF 		bl	HAL_PCD_EP_Open
 900              	.LVL97:
 583:Middlewares/Third_Party/AL94_USB_Composite/COMPOSITE/Target/usbd_conf.c **** 
 901              		.loc 1 583 3 is_stmt 1 view .LVU187
 583:Middlewares/Third_Party/AL94_USB_Composite/COMPOSITE/Target/usbd_conf.c **** 
 902              		.loc 1 583 16 is_stmt 0 view .LVU188
 903 0010 FFF7FEFF 		bl	USBD_Get_USB_Status
 904              	.LVL98:
 585:Middlewares/Third_Party/AL94_USB_Composite/COMPOSITE/Target/usbd_conf.c **** }
 905              		.loc 1 585 3 is_stmt 1 view .LVU189
 586:Middlewares/Third_Party/AL94_USB_Composite/COMPOSITE/Target/usbd_conf.c **** 
 906              		.loc 1 586 1 is_stmt 0 view .LVU190
 907 0014 08BD     		pop	{r3, pc}
 908              		.cfi_endproc
 909              	.LFE1433:
 911              		.section	.text.USBD_LL_CloseEP,"ax",%progbits
 912              		.align	1
 913              		.global	USBD_LL_CloseEP
 914              		.syntax unified
 915              		.thumb
 916              		.thumb_func
 918              	USBD_LL_CloseEP:
 919              	.LVL99:
 920              	.LFB1434:
 595:Middlewares/Third_Party/AL94_USB_Composite/COMPOSITE/Target/usbd_conf.c ****   HAL_StatusTypeDef hal_status = HAL_OK;
 921              		.loc 1 595 1 is_stmt 1 view -0
 922              		.cfi_startproc
 923              		@ args = 0, pretend = 0, frame = 0
 924              		@ frame_needed = 0, uses_anonymous_args = 0
 595:Middlewares/Third_Party/AL94_USB_Composite/COMPOSITE/Target/usbd_conf.c ****   HAL_StatusTypeDef hal_status = HAL_OK;
 925              		.loc 1 595 1 is_stmt 0 view .LVU192
 926 0000 08B5     		push	{r3, lr}
 927              		.cfi_def_cfa_offset 8
 928              		.cfi_offset 3, -8
 929              		.cfi_offset 14, -4
 596:Middlewares/Third_Party/AL94_USB_Composite/COMPOSITE/Target/usbd_conf.c ****   USBD_StatusTypeDef usb_status = USBD_OK;
 930              		.loc 1 596 3 is_stmt 1 view .LVU193
 931              	.LVL100:
 597:Middlewares/Third_Party/AL94_USB_Composite/COMPOSITE/Target/usbd_conf.c **** 
ARM GAS  C:\Users\Nathan\AppData\Local\Temp\ccCDfMpd.s 			page 32


 932              		.loc 1 597 3 view .LVU194
 599:Middlewares/Third_Party/AL94_USB_Composite/COMPOSITE/Target/usbd_conf.c **** 
 933              		.loc 1 599 3 view .LVU195
 599:Middlewares/Third_Party/AL94_USB_Composite/COMPOSITE/Target/usbd_conf.c **** 
 934              		.loc 1 599 16 is_stmt 0 view .LVU196
 935 0002 D0F81003 		ldr	r0, [r0, #784]
 936              	.LVL101:
 599:Middlewares/Third_Party/AL94_USB_Composite/COMPOSITE/Target/usbd_conf.c **** 
 937              		.loc 1 599 16 view .LVU197
 938 0006 FFF7FEFF 		bl	HAL_PCD_EP_Close
 939              	.LVL102:
 601:Middlewares/Third_Party/AL94_USB_Composite/COMPOSITE/Target/usbd_conf.c **** 
 940              		.loc 1 601 3 is_stmt 1 view .LVU198
 601:Middlewares/Third_Party/AL94_USB_Composite/COMPOSITE/Target/usbd_conf.c **** 
 941              		.loc 1 601 16 is_stmt 0 view .LVU199
 942 000a FFF7FEFF 		bl	USBD_Get_USB_Status
 943              	.LVL103:
 603:Middlewares/Third_Party/AL94_USB_Composite/COMPOSITE/Target/usbd_conf.c **** }
 944              		.loc 1 603 3 is_stmt 1 view .LVU200
 604:Middlewares/Third_Party/AL94_USB_Composite/COMPOSITE/Target/usbd_conf.c **** 
 945              		.loc 1 604 1 is_stmt 0 view .LVU201
 946 000e 08BD     		pop	{r3, pc}
 947              		.cfi_endproc
 948              	.LFE1434:
 950              		.section	.text.USBD_LL_FlushEP,"ax",%progbits
 951              		.align	1
 952              		.global	USBD_LL_FlushEP
 953              		.syntax unified
 954              		.thumb
 955              		.thumb_func
 957              	USBD_LL_FlushEP:
 958              	.LVL104:
 959              	.LFB1435:
 613:Middlewares/Third_Party/AL94_USB_Composite/COMPOSITE/Target/usbd_conf.c ****   HAL_StatusTypeDef hal_status = HAL_OK;
 960              		.loc 1 613 1 is_stmt 1 view -0
 961              		.cfi_startproc
 962              		@ args = 0, pretend = 0, frame = 0
 963              		@ frame_needed = 0, uses_anonymous_args = 0
 613:Middlewares/Third_Party/AL94_USB_Composite/COMPOSITE/Target/usbd_conf.c ****   HAL_StatusTypeDef hal_status = HAL_OK;
 964              		.loc 1 613 1 is_stmt 0 view .LVU203
 965 0000 08B5     		push	{r3, lr}
 966              		.cfi_def_cfa_offset 8
 967              		.cfi_offset 3, -8
 968              		.cfi_offset 14, -4
 614:Middlewares/Third_Party/AL94_USB_Composite/COMPOSITE/Target/usbd_conf.c ****   USBD_StatusTypeDef usb_status = USBD_OK;
 969              		.loc 1 614 3 is_stmt 1 view .LVU204
 970              	.LVL105:
 615:Middlewares/Third_Party/AL94_USB_Composite/COMPOSITE/Target/usbd_conf.c **** 
 971              		.loc 1 615 3 view .LVU205
 617:Middlewares/Third_Party/AL94_USB_Composite/COMPOSITE/Target/usbd_conf.c **** 
 972              		.loc 1 617 3 view .LVU206
 617:Middlewares/Third_Party/AL94_USB_Composite/COMPOSITE/Target/usbd_conf.c **** 
 973              		.loc 1 617 16 is_stmt 0 view .LVU207
 974 0002 D0F81003 		ldr	r0, [r0, #784]
 975              	.LVL106:
 617:Middlewares/Third_Party/AL94_USB_Composite/COMPOSITE/Target/usbd_conf.c **** 
 976              		.loc 1 617 16 view .LVU208
ARM GAS  C:\Users\Nathan\AppData\Local\Temp\ccCDfMpd.s 			page 33


 977 0006 FFF7FEFF 		bl	HAL_PCD_EP_Flush
 978              	.LVL107:
 619:Middlewares/Third_Party/AL94_USB_Composite/COMPOSITE/Target/usbd_conf.c **** 
 979              		.loc 1 619 3 is_stmt 1 view .LVU209
 619:Middlewares/Third_Party/AL94_USB_Composite/COMPOSITE/Target/usbd_conf.c **** 
 980              		.loc 1 619 16 is_stmt 0 view .LVU210
 981 000a FFF7FEFF 		bl	USBD_Get_USB_Status
 982              	.LVL108:
 621:Middlewares/Third_Party/AL94_USB_Composite/COMPOSITE/Target/usbd_conf.c **** }
 983              		.loc 1 621 3 is_stmt 1 view .LVU211
 622:Middlewares/Third_Party/AL94_USB_Composite/COMPOSITE/Target/usbd_conf.c **** 
 984              		.loc 1 622 1 is_stmt 0 view .LVU212
 985 000e 08BD     		pop	{r3, pc}
 986              		.cfi_endproc
 987              	.LFE1435:
 989              		.section	.text.USBD_LL_StallEP,"ax",%progbits
 990              		.align	1
 991              		.global	USBD_LL_StallEP
 992              		.syntax unified
 993              		.thumb
 994              		.thumb_func
 996              	USBD_LL_StallEP:
 997              	.LVL109:
 998              	.LFB1436:
 631:Middlewares/Third_Party/AL94_USB_Composite/COMPOSITE/Target/usbd_conf.c ****   HAL_StatusTypeDef hal_status = HAL_OK;
 999              		.loc 1 631 1 is_stmt 1 view -0
 1000              		.cfi_startproc
 1001              		@ args = 0, pretend = 0, frame = 0
 1002              		@ frame_needed = 0, uses_anonymous_args = 0
 631:Middlewares/Third_Party/AL94_USB_Composite/COMPOSITE/Target/usbd_conf.c ****   HAL_StatusTypeDef hal_status = HAL_OK;
 1003              		.loc 1 631 1 is_stmt 0 view .LVU214
 1004 0000 08B5     		push	{r3, lr}
 1005              		.cfi_def_cfa_offset 8
 1006              		.cfi_offset 3, -8
 1007              		.cfi_offset 14, -4
 632:Middlewares/Third_Party/AL94_USB_Composite/COMPOSITE/Target/usbd_conf.c ****   USBD_StatusTypeDef usb_status = USBD_OK;
 1008              		.loc 1 632 3 is_stmt 1 view .LVU215
 1009              	.LVL110:
 633:Middlewares/Third_Party/AL94_USB_Composite/COMPOSITE/Target/usbd_conf.c **** 
 1010              		.loc 1 633 3 view .LVU216
 635:Middlewares/Third_Party/AL94_USB_Composite/COMPOSITE/Target/usbd_conf.c **** 
 1011              		.loc 1 635 3 view .LVU217
 635:Middlewares/Third_Party/AL94_USB_Composite/COMPOSITE/Target/usbd_conf.c **** 
 1012              		.loc 1 635 16 is_stmt 0 view .LVU218
 1013 0002 D0F81003 		ldr	r0, [r0, #784]
 1014              	.LVL111:
 635:Middlewares/Third_Party/AL94_USB_Composite/COMPOSITE/Target/usbd_conf.c **** 
 1015              		.loc 1 635 16 view .LVU219
 1016 0006 FFF7FEFF 		bl	HAL_PCD_EP_SetStall
 1017              	.LVL112:
 637:Middlewares/Third_Party/AL94_USB_Composite/COMPOSITE/Target/usbd_conf.c **** 
 1018              		.loc 1 637 3 is_stmt 1 view .LVU220
 637:Middlewares/Third_Party/AL94_USB_Composite/COMPOSITE/Target/usbd_conf.c **** 
 1019              		.loc 1 637 16 is_stmt 0 view .LVU221
 1020 000a FFF7FEFF 		bl	USBD_Get_USB_Status
 1021              	.LVL113:
 639:Middlewares/Third_Party/AL94_USB_Composite/COMPOSITE/Target/usbd_conf.c **** }
ARM GAS  C:\Users\Nathan\AppData\Local\Temp\ccCDfMpd.s 			page 34


 1022              		.loc 1 639 3 is_stmt 1 view .LVU222
 640:Middlewares/Third_Party/AL94_USB_Composite/COMPOSITE/Target/usbd_conf.c **** 
 1023              		.loc 1 640 1 is_stmt 0 view .LVU223
 1024 000e 08BD     		pop	{r3, pc}
 1025              		.cfi_endproc
 1026              	.LFE1436:
 1028              		.section	.text.USBD_LL_ClearStallEP,"ax",%progbits
 1029              		.align	1
 1030              		.global	USBD_LL_ClearStallEP
 1031              		.syntax unified
 1032              		.thumb
 1033              		.thumb_func
 1035              	USBD_LL_ClearStallEP:
 1036              	.LVL114:
 1037              	.LFB1437:
 649:Middlewares/Third_Party/AL94_USB_Composite/COMPOSITE/Target/usbd_conf.c ****   HAL_StatusTypeDef hal_status = HAL_OK;
 1038              		.loc 1 649 1 is_stmt 1 view -0
 1039              		.cfi_startproc
 1040              		@ args = 0, pretend = 0, frame = 0
 1041              		@ frame_needed = 0, uses_anonymous_args = 0
 649:Middlewares/Third_Party/AL94_USB_Composite/COMPOSITE/Target/usbd_conf.c ****   HAL_StatusTypeDef hal_status = HAL_OK;
 1042              		.loc 1 649 1 is_stmt 0 view .LVU225
 1043 0000 08B5     		push	{r3, lr}
 1044              		.cfi_def_cfa_offset 8
 1045              		.cfi_offset 3, -8
 1046              		.cfi_offset 14, -4
 650:Middlewares/Third_Party/AL94_USB_Composite/COMPOSITE/Target/usbd_conf.c ****   USBD_StatusTypeDef usb_status = USBD_OK;
 1047              		.loc 1 650 3 is_stmt 1 view .LVU226
 1048              	.LVL115:
 651:Middlewares/Third_Party/AL94_USB_Composite/COMPOSITE/Target/usbd_conf.c **** 
 1049              		.loc 1 651 3 view .LVU227
 653:Middlewares/Third_Party/AL94_USB_Composite/COMPOSITE/Target/usbd_conf.c **** 
 1050              		.loc 1 653 3 view .LVU228
 653:Middlewares/Third_Party/AL94_USB_Composite/COMPOSITE/Target/usbd_conf.c **** 
 1051              		.loc 1 653 16 is_stmt 0 view .LVU229
 1052 0002 D0F81003 		ldr	r0, [r0, #784]
 1053              	.LVL116:
 653:Middlewares/Third_Party/AL94_USB_Composite/COMPOSITE/Target/usbd_conf.c **** 
 1054              		.loc 1 653 16 view .LVU230
 1055 0006 FFF7FEFF 		bl	HAL_PCD_EP_ClrStall
 1056              	.LVL117:
 655:Middlewares/Third_Party/AL94_USB_Composite/COMPOSITE/Target/usbd_conf.c **** 
 1057              		.loc 1 655 3 is_stmt 1 view .LVU231
 655:Middlewares/Third_Party/AL94_USB_Composite/COMPOSITE/Target/usbd_conf.c **** 
 1058              		.loc 1 655 16 is_stmt 0 view .LVU232
 1059 000a FFF7FEFF 		bl	USBD_Get_USB_Status
 1060              	.LVL118:
 657:Middlewares/Third_Party/AL94_USB_Composite/COMPOSITE/Target/usbd_conf.c **** }
 1061              		.loc 1 657 3 is_stmt 1 view .LVU233
 658:Middlewares/Third_Party/AL94_USB_Composite/COMPOSITE/Target/usbd_conf.c **** 
 1062              		.loc 1 658 1 is_stmt 0 view .LVU234
 1063 000e 08BD     		pop	{r3, pc}
 1064              		.cfi_endproc
 1065              	.LFE1437:
 1067              		.section	.text.USBD_LL_SetUSBAddress,"ax",%progbits
 1068              		.align	1
 1069              		.global	USBD_LL_SetUSBAddress
ARM GAS  C:\Users\Nathan\AppData\Local\Temp\ccCDfMpd.s 			page 35


 1070              		.syntax unified
 1071              		.thumb
 1072              		.thumb_func
 1074              	USBD_LL_SetUSBAddress:
 1075              	.LVL119:
 1076              	.LFB1439:
 687:Middlewares/Third_Party/AL94_USB_Composite/COMPOSITE/Target/usbd_conf.c ****   HAL_StatusTypeDef hal_status = HAL_OK;
 1077              		.loc 1 687 1 is_stmt 1 view -0
 1078              		.cfi_startproc
 1079              		@ args = 0, pretend = 0, frame = 0
 1080              		@ frame_needed = 0, uses_anonymous_args = 0
 687:Middlewares/Third_Party/AL94_USB_Composite/COMPOSITE/Target/usbd_conf.c ****   HAL_StatusTypeDef hal_status = HAL_OK;
 1081              		.loc 1 687 1 is_stmt 0 view .LVU236
 1082 0000 08B5     		push	{r3, lr}
 1083              		.cfi_def_cfa_offset 8
 1084              		.cfi_offset 3, -8
 1085              		.cfi_offset 14, -4
 688:Middlewares/Third_Party/AL94_USB_Composite/COMPOSITE/Target/usbd_conf.c ****   USBD_StatusTypeDef usb_status = USBD_OK;
 1086              		.loc 1 688 3 is_stmt 1 view .LVU237
 1087              	.LVL120:
 689:Middlewares/Third_Party/AL94_USB_Composite/COMPOSITE/Target/usbd_conf.c **** 
 1088              		.loc 1 689 3 view .LVU238
 691:Middlewares/Third_Party/AL94_USB_Composite/COMPOSITE/Target/usbd_conf.c **** 
 1089              		.loc 1 691 3 view .LVU239
 691:Middlewares/Third_Party/AL94_USB_Composite/COMPOSITE/Target/usbd_conf.c **** 
 1090              		.loc 1 691 16 is_stmt 0 view .LVU240
 1091 0002 D0F81003 		ldr	r0, [r0, #784]
 1092              	.LVL121:
 691:Middlewares/Third_Party/AL94_USB_Composite/COMPOSITE/Target/usbd_conf.c **** 
 1093              		.loc 1 691 16 view .LVU241
 1094 0006 FFF7FEFF 		bl	HAL_PCD_SetAddress
 1095              	.LVL122:
 693:Middlewares/Third_Party/AL94_USB_Composite/COMPOSITE/Target/usbd_conf.c **** 
 1096              		.loc 1 693 3 is_stmt 1 view .LVU242
 693:Middlewares/Third_Party/AL94_USB_Composite/COMPOSITE/Target/usbd_conf.c **** 
 1097              		.loc 1 693 16 is_stmt 0 view .LVU243
 1098 000a FFF7FEFF 		bl	USBD_Get_USB_Status
 1099              	.LVL123:
 695:Middlewares/Third_Party/AL94_USB_Composite/COMPOSITE/Target/usbd_conf.c **** }
 1100              		.loc 1 695 3 is_stmt 1 view .LVU244
 696:Middlewares/Third_Party/AL94_USB_Composite/COMPOSITE/Target/usbd_conf.c **** 
 1101              		.loc 1 696 1 is_stmt 0 view .LVU245
 1102 000e 08BD     		pop	{r3, pc}
 1103              		.cfi_endproc
 1104              	.LFE1439:
 1106              		.section	.text.USBD_LL_Transmit,"ax",%progbits
 1107              		.align	1
 1108              		.global	USBD_LL_Transmit
 1109              		.syntax unified
 1110              		.thumb
 1111              		.thumb_func
 1113              	USBD_LL_Transmit:
 1114              	.LVL124:
 1115              	.LFB1440:
 707:Middlewares/Third_Party/AL94_USB_Composite/COMPOSITE/Target/usbd_conf.c ****   HAL_StatusTypeDef hal_status = HAL_OK;
 1116              		.loc 1 707 1 is_stmt 1 view -0
 1117              		.cfi_startproc
ARM GAS  C:\Users\Nathan\AppData\Local\Temp\ccCDfMpd.s 			page 36


 1118              		@ args = 0, pretend = 0, frame = 0
 1119              		@ frame_needed = 0, uses_anonymous_args = 0
 707:Middlewares/Third_Party/AL94_USB_Composite/COMPOSITE/Target/usbd_conf.c ****   HAL_StatusTypeDef hal_status = HAL_OK;
 1120              		.loc 1 707 1 is_stmt 0 view .LVU247
 1121 0000 08B5     		push	{r3, lr}
 1122              		.cfi_def_cfa_offset 8
 1123              		.cfi_offset 3, -8
 1124              		.cfi_offset 14, -4
 708:Middlewares/Third_Party/AL94_USB_Composite/COMPOSITE/Target/usbd_conf.c ****   USBD_StatusTypeDef usb_status = USBD_OK;
 1125              		.loc 1 708 3 is_stmt 1 view .LVU248
 1126              	.LVL125:
 709:Middlewares/Third_Party/AL94_USB_Composite/COMPOSITE/Target/usbd_conf.c **** 
 1127              		.loc 1 709 3 view .LVU249
 711:Middlewares/Third_Party/AL94_USB_Composite/COMPOSITE/Target/usbd_conf.c **** 
 1128              		.loc 1 711 3 view .LVU250
 711:Middlewares/Third_Party/AL94_USB_Composite/COMPOSITE/Target/usbd_conf.c **** 
 1129              		.loc 1 711 16 is_stmt 0 view .LVU251
 1130 0002 D0F81003 		ldr	r0, [r0, #784]
 1131              	.LVL126:
 711:Middlewares/Third_Party/AL94_USB_Composite/COMPOSITE/Target/usbd_conf.c **** 
 1132              		.loc 1 711 16 view .LVU252
 1133 0006 FFF7FEFF 		bl	HAL_PCD_EP_Transmit
 1134              	.LVL127:
 713:Middlewares/Third_Party/AL94_USB_Composite/COMPOSITE/Target/usbd_conf.c **** 
 1135              		.loc 1 713 3 is_stmt 1 view .LVU253
 713:Middlewares/Third_Party/AL94_USB_Composite/COMPOSITE/Target/usbd_conf.c **** 
 1136              		.loc 1 713 16 is_stmt 0 view .LVU254
 1137 000a FFF7FEFF 		bl	USBD_Get_USB_Status
 1138              	.LVL128:
 715:Middlewares/Third_Party/AL94_USB_Composite/COMPOSITE/Target/usbd_conf.c **** }
 1139              		.loc 1 715 3 is_stmt 1 view .LVU255
 716:Middlewares/Third_Party/AL94_USB_Composite/COMPOSITE/Target/usbd_conf.c **** 
 1140              		.loc 1 716 1 is_stmt 0 view .LVU256
 1141 000e 08BD     		pop	{r3, pc}
 1142              		.cfi_endproc
 1143              	.LFE1440:
 1145              		.section	.text.USBD_LL_PrepareReceive,"ax",%progbits
 1146              		.align	1
 1147              		.global	USBD_LL_PrepareReceive
 1148              		.syntax unified
 1149              		.thumb
 1150              		.thumb_func
 1152              	USBD_LL_PrepareReceive:
 1153              	.LVL129:
 1154              	.LFB1441:
 727:Middlewares/Third_Party/AL94_USB_Composite/COMPOSITE/Target/usbd_conf.c ****   HAL_StatusTypeDef hal_status = HAL_OK;
 1155              		.loc 1 727 1 is_stmt 1 view -0
 1156              		.cfi_startproc
 1157              		@ args = 0, pretend = 0, frame = 0
 1158              		@ frame_needed = 0, uses_anonymous_args = 0
 727:Middlewares/Third_Party/AL94_USB_Composite/COMPOSITE/Target/usbd_conf.c ****   HAL_StatusTypeDef hal_status = HAL_OK;
 1159              		.loc 1 727 1 is_stmt 0 view .LVU258
 1160 0000 08B5     		push	{r3, lr}
 1161              		.cfi_def_cfa_offset 8
 1162              		.cfi_offset 3, -8
 1163              		.cfi_offset 14, -4
 728:Middlewares/Third_Party/AL94_USB_Composite/COMPOSITE/Target/usbd_conf.c ****   USBD_StatusTypeDef usb_status = USBD_OK;
ARM GAS  C:\Users\Nathan\AppData\Local\Temp\ccCDfMpd.s 			page 37


 1164              		.loc 1 728 3 is_stmt 1 view .LVU259
 1165              	.LVL130:
 729:Middlewares/Third_Party/AL94_USB_Composite/COMPOSITE/Target/usbd_conf.c **** 
 1166              		.loc 1 729 3 view .LVU260
 731:Middlewares/Third_Party/AL94_USB_Composite/COMPOSITE/Target/usbd_conf.c **** 
 1167              		.loc 1 731 3 view .LVU261
 731:Middlewares/Third_Party/AL94_USB_Composite/COMPOSITE/Target/usbd_conf.c **** 
 1168              		.loc 1 731 16 is_stmt 0 view .LVU262
 1169 0002 D0F81003 		ldr	r0, [r0, #784]
 1170              	.LVL131:
 731:Middlewares/Third_Party/AL94_USB_Composite/COMPOSITE/Target/usbd_conf.c **** 
 1171              		.loc 1 731 16 view .LVU263
 1172 0006 FFF7FEFF 		bl	HAL_PCD_EP_Receive
 1173              	.LVL132:
 733:Middlewares/Third_Party/AL94_USB_Composite/COMPOSITE/Target/usbd_conf.c **** 
 1174              		.loc 1 733 3 is_stmt 1 view .LVU264
 733:Middlewares/Third_Party/AL94_USB_Composite/COMPOSITE/Target/usbd_conf.c **** 
 1175              		.loc 1 733 16 is_stmt 0 view .LVU265
 1176 000a FFF7FEFF 		bl	USBD_Get_USB_Status
 1177              	.LVL133:
 735:Middlewares/Third_Party/AL94_USB_Composite/COMPOSITE/Target/usbd_conf.c **** }
 1178              		.loc 1 735 3 is_stmt 1 view .LVU266
 736:Middlewares/Third_Party/AL94_USB_Composite/COMPOSITE/Target/usbd_conf.c **** 
 1179              		.loc 1 736 1 is_stmt 0 view .LVU267
 1180 000e 08BD     		pop	{r3, pc}
 1181              		.cfi_endproc
 1182              	.LFE1441:
 1184              		.global	hpcd_USB_OTG_PTR
 1185              		.section	.bss.hpcd_USB_OTG_PTR,"aw",%nobits
 1186              		.align	2
 1189              	hpcd_USB_OTG_PTR:
 1190 0000 00000000 		.space	4
 1191              		.text
 1192              	.Letext0:
 1193              		.file 2 "C:/PROGRAM FILES (X86)/ARM GNU TOOLCHAIN ARM-NONE-EABI/13.3 REL1/arm-none-eabi/include/ma
 1194              		.file 3 "C:/PROGRAM FILES (X86)/ARM GNU TOOLCHAIN ARM-NONE-EABI/13.3 REL1/arm-none-eabi/include/sy
 1195              		.file 4 "Drivers/CMSIS/Device/ST/STM32WBxx/Include/stm32wb55xx.h"
 1196              		.file 5 "Drivers/STM32WBxx_HAL_Driver/Inc/stm32wbxx_hal_def.h"
 1197              		.file 6 "Drivers/STM32WBxx_HAL_Driver/Inc/stm32wbxx_ll_usb.h"
 1198              		.file 7 "Drivers/STM32WBxx_HAL_Driver/Inc/stm32wbxx_hal_pcd.h"
 1199              		.file 8 "Core/Inc/app_conf.h"
 1200              		.file 9 "Middlewares/Third_Party/AL94_USB_Composite/COMPOSITE/Core/Inc/usbd_def.h"
 1201              		.file 10 "Middlewares/Third_Party/AL94_USB_Composite/COMPOSITE/Class/CDC_ACM/Inc/usbd_cdc_acm.h"
 1202              		.file 11 "Middlewares/Third_Party/AL94_USB_Composite/COMPOSITE/Class/HID_KEYBOARD/Inc/usbd_hid_key
 1203              		.file 12 "Middlewares/Third_Party/AL94_USB_Composite/COMPOSITE/Class/HID_CUSTOM/Inc/usbd_hid_custo
 1204              		.file 13 "Core/Inc/usb.h"
 1205              		.file 14 "Drivers/STM32WBxx_HAL_Driver/Inc/stm32wbxx_hal_pcd_ex.h"
 1206              		.file 15 "Middlewares/Third_Party/AL94_USB_Composite/COMPOSITE/Core/Inc/usbd_core.h"
 1207              		.file 16 "Drivers/STM32WBxx_HAL_Driver/Inc/stm32wbxx_hal.h"
ARM GAS  C:\Users\Nathan\AppData\Local\Temp\ccCDfMpd.s 			page 38


DEFINED SYMBOLS
                            *ABS*:00000000 usbd_conf.c
C:\Users\Nathan\AppData\Local\Temp\ccCDfMpd.s:21     .text.HAL_PCD_MspInit:00000000 $t
C:\Users\Nathan\AppData\Local\Temp\ccCDfMpd.s:27     .text.HAL_PCD_MspInit:00000000 HAL_PCD_MspInit
C:\Users\Nathan\AppData\Local\Temp\ccCDfMpd.s:41     .text.HAL_PCD_MspDeInit:00000000 $t
C:\Users\Nathan\AppData\Local\Temp\ccCDfMpd.s:47     .text.HAL_PCD_MspDeInit:00000000 HAL_PCD_MspDeInit
C:\Users\Nathan\AppData\Local\Temp\ccCDfMpd.s:61     .text.HAL_PCD_SetupStageCallback:00000000 $t
C:\Users\Nathan\AppData\Local\Temp\ccCDfMpd.s:67     .text.HAL_PCD_SetupStageCallback:00000000 HAL_PCD_SetupStageCallback
C:\Users\Nathan\AppData\Local\Temp\ccCDfMpd.s:92     .text.HAL_PCD_DataOutStageCallback:00000000 $t
C:\Users\Nathan\AppData\Local\Temp\ccCDfMpd.s:98     .text.HAL_PCD_DataOutStageCallback:00000000 HAL_PCD_DataOutStageCallback
C:\Users\Nathan\AppData\Local\Temp\ccCDfMpd.s:125    .text.HAL_PCD_DataInStageCallback:00000000 $t
C:\Users\Nathan\AppData\Local\Temp\ccCDfMpd.s:131    .text.HAL_PCD_DataInStageCallback:00000000 HAL_PCD_DataInStageCallback
C:\Users\Nathan\AppData\Local\Temp\ccCDfMpd.s:158    .text.HAL_PCD_SOFCallback:00000000 $t
C:\Users\Nathan\AppData\Local\Temp\ccCDfMpd.s:164    .text.HAL_PCD_SOFCallback:00000000 HAL_PCD_SOFCallback
C:\Users\Nathan\AppData\Local\Temp\ccCDfMpd.s:188    .text.HAL_PCD_ResetCallback:00000000 $t
C:\Users\Nathan\AppData\Local\Temp\ccCDfMpd.s:194    .text.HAL_PCD_ResetCallback:00000000 HAL_PCD_ResetCallback
C:\Users\Nathan\AppData\Local\Temp\ccCDfMpd.s:239    .text.HAL_PCD_SuspendCallback:00000000 $t
C:\Users\Nathan\AppData\Local\Temp\ccCDfMpd.s:245    .text.HAL_PCD_SuspendCallback:00000000 HAL_PCD_SuspendCallback
C:\Users\Nathan\AppData\Local\Temp\ccCDfMpd.s:269    .text.HAL_PCD_ResumeCallback:00000000 $t
C:\Users\Nathan\AppData\Local\Temp\ccCDfMpd.s:275    .text.HAL_PCD_ResumeCallback:00000000 HAL_PCD_ResumeCallback
C:\Users\Nathan\AppData\Local\Temp\ccCDfMpd.s:299    .text.HAL_PCD_ISOOUTIncompleteCallback:00000000 $t
C:\Users\Nathan\AppData\Local\Temp\ccCDfMpd.s:305    .text.HAL_PCD_ISOOUTIncompleteCallback:00000000 HAL_PCD_ISOOUTIncompleteCallback
C:\Users\Nathan\AppData\Local\Temp\ccCDfMpd.s:329    .text.HAL_PCD_ISOINIncompleteCallback:00000000 $t
C:\Users\Nathan\AppData\Local\Temp\ccCDfMpd.s:335    .text.HAL_PCD_ISOINIncompleteCallback:00000000 HAL_PCD_ISOINIncompleteCallback
C:\Users\Nathan\AppData\Local\Temp\ccCDfMpd.s:359    .text.HAL_PCD_ConnectCallback:00000000 $t
C:\Users\Nathan\AppData\Local\Temp\ccCDfMpd.s:365    .text.HAL_PCD_ConnectCallback:00000000 HAL_PCD_ConnectCallback
C:\Users\Nathan\AppData\Local\Temp\ccCDfMpd.s:389    .text.HAL_PCD_DisconnectCallback:00000000 $t
C:\Users\Nathan\AppData\Local\Temp\ccCDfMpd.s:395    .text.HAL_PCD_DisconnectCallback:00000000 HAL_PCD_DisconnectCallback
C:\Users\Nathan\AppData\Local\Temp\ccCDfMpd.s:419    .text.USBD_LL_Init:00000000 $t
C:\Users\Nathan\AppData\Local\Temp\ccCDfMpd.s:425    .text.USBD_LL_Init:00000000 USBD_LL_Init
C:\Users\Nathan\AppData\Local\Temp\ccCDfMpd.s:578    .text.USBD_LL_Init:000000ac $d
C:\Users\Nathan\AppData\Local\Temp\ccCDfMpd.s:1189   .bss.hpcd_USB_OTG_PTR:00000000 hpcd_USB_OTG_PTR
C:\Users\Nathan\AppData\Local\Temp\ccCDfMpd.s:592    .text.USBD_LL_IsStallEP:00000000 $t
C:\Users\Nathan\AppData\Local\Temp\ccCDfMpd.s:598    .text.USBD_LL_IsStallEP:00000000 USBD_LL_IsStallEP
C:\Users\Nathan\AppData\Local\Temp\ccCDfMpd.s:646    .text.USBD_LL_GetRxDataSize:00000000 $t
C:\Users\Nathan\AppData\Local\Temp\ccCDfMpd.s:652    .text.USBD_LL_GetRxDataSize:00000000 USBD_LL_GetRxDataSize
C:\Users\Nathan\AppData\Local\Temp\ccCDfMpd.s:677    .text.USBD_LL_Delay:00000000 $t
C:\Users\Nathan\AppData\Local\Temp\ccCDfMpd.s:683    .text.USBD_LL_Delay:00000000 USBD_LL_Delay
C:\Users\Nathan\AppData\Local\Temp\ccCDfMpd.s:704    .text.USBD_Get_USB_Status:00000000 $t
C:\Users\Nathan\AppData\Local\Temp\ccCDfMpd.s:710    .text.USBD_Get_USB_Status:00000000 USBD_Get_USB_Status
C:\Users\Nathan\AppData\Local\Temp\ccCDfMpd.s:724    .text.USBD_Get_USB_Status:00000008 $d
C:\Users\Nathan\AppData\Local\Temp\ccCDfMpd.s:728    .text.USBD_Get_USB_Status:0000000c $t
C:\Users\Nathan\AppData\Local\Temp\ccCDfMpd.s:751    .text.USBD_LL_DeInit:00000000 $t
C:\Users\Nathan\AppData\Local\Temp\ccCDfMpd.s:757    .text.USBD_LL_DeInit:00000000 USBD_LL_DeInit
C:\Users\Nathan\AppData\Local\Temp\ccCDfMpd.s:790    .text.USBD_LL_Start:00000000 $t
C:\Users\Nathan\AppData\Local\Temp\ccCDfMpd.s:796    .text.USBD_LL_Start:00000000 USBD_LL_Start
C:\Users\Nathan\AppData\Local\Temp\ccCDfMpd.s:829    .text.USBD_LL_Stop:00000000 $t
C:\Users\Nathan\AppData\Local\Temp\ccCDfMpd.s:835    .text.USBD_LL_Stop:00000000 USBD_LL_Stop
C:\Users\Nathan\AppData\Local\Temp\ccCDfMpd.s:868    .text.USBD_LL_OpenEP:00000000 $t
C:\Users\Nathan\AppData\Local\Temp\ccCDfMpd.s:874    .text.USBD_LL_OpenEP:00000000 USBD_LL_OpenEP
C:\Users\Nathan\AppData\Local\Temp\ccCDfMpd.s:912    .text.USBD_LL_CloseEP:00000000 $t
C:\Users\Nathan\AppData\Local\Temp\ccCDfMpd.s:918    .text.USBD_LL_CloseEP:00000000 USBD_LL_CloseEP
C:\Users\Nathan\AppData\Local\Temp\ccCDfMpd.s:951    .text.USBD_LL_FlushEP:00000000 $t
C:\Users\Nathan\AppData\Local\Temp\ccCDfMpd.s:957    .text.USBD_LL_FlushEP:00000000 USBD_LL_FlushEP
C:\Users\Nathan\AppData\Local\Temp\ccCDfMpd.s:990    .text.USBD_LL_StallEP:00000000 $t
C:\Users\Nathan\AppData\Local\Temp\ccCDfMpd.s:996    .text.USBD_LL_StallEP:00000000 USBD_LL_StallEP
C:\Users\Nathan\AppData\Local\Temp\ccCDfMpd.s:1029   .text.USBD_LL_ClearStallEP:00000000 $t
ARM GAS  C:\Users\Nathan\AppData\Local\Temp\ccCDfMpd.s 			page 39


C:\Users\Nathan\AppData\Local\Temp\ccCDfMpd.s:1035   .text.USBD_LL_ClearStallEP:00000000 USBD_LL_ClearStallEP
C:\Users\Nathan\AppData\Local\Temp\ccCDfMpd.s:1068   .text.USBD_LL_SetUSBAddress:00000000 $t
C:\Users\Nathan\AppData\Local\Temp\ccCDfMpd.s:1074   .text.USBD_LL_SetUSBAddress:00000000 USBD_LL_SetUSBAddress
C:\Users\Nathan\AppData\Local\Temp\ccCDfMpd.s:1107   .text.USBD_LL_Transmit:00000000 $t
C:\Users\Nathan\AppData\Local\Temp\ccCDfMpd.s:1113   .text.USBD_LL_Transmit:00000000 USBD_LL_Transmit
C:\Users\Nathan\AppData\Local\Temp\ccCDfMpd.s:1146   .text.USBD_LL_PrepareReceive:00000000 $t
C:\Users\Nathan\AppData\Local\Temp\ccCDfMpd.s:1152   .text.USBD_LL_PrepareReceive:00000000 USBD_LL_PrepareReceive
C:\Users\Nathan\AppData\Local\Temp\ccCDfMpd.s:1186   .bss.hpcd_USB_OTG_PTR:00000000 $d

UNDEFINED SYMBOLS
USBD_LL_SetupStage
USBD_LL_DataOutStage
USBD_LL_DataInStage
USBD_LL_SOF
USBD_LL_SetSpeed
USBD_LL_Reset
Error_Handler
USBD_LL_Suspend
USBD_LL_Resume
USBD_LL_IsoOUTIncomplete
USBD_LL_IsoINIncomplete
USBD_LL_DevConnected
USBD_LL_DevDisconnected
HAL_PCDEx_PMAConfig
hpcd_USB_FS
HID_KEYBOARD_IN_EP
CUSTOM_HID_IN_EP
CUSTOM_HID_OUT_EP
CDC_IN_EP
CDC_OUT_EP
CDC_CMD_EP
HAL_PCD_EP_GetRxCount
HAL_Delay
HAL_PCD_DeInit
HAL_PCD_Start
HAL_PCD_Stop
HAL_PCD_EP_Open
HAL_PCD_EP_Close
HAL_PCD_EP_Flush
HAL_PCD_EP_SetStall
HAL_PCD_EP_ClrStall
HAL_PCD_SetAddress
HAL_PCD_EP_Transmit
HAL_PCD_EP_Receive
