ARM GAS  C:\Users\Nathan\AppData\Local\Temp\ccilHIuM.s 			page 1


   1              		.cpu cortex-m4
   2              		.arch armv7e-m
   3              		.fpu fpv4-sp-d16
   4              		.eabi_attribute 27, 1
   5              		.eabi_attribute 28, 1
   6              		.eabi_attribute 20, 1
   7              		.eabi_attribute 21, 1
   8              		.eabi_attribute 23, 3
   9              		.eabi_attribute 24, 1
  10              		.eabi_attribute 25, 1
  11              		.eabi_attribute 26, 1
  12              		.eabi_attribute 30, 1
  13              		.eabi_attribute 34, 1
  14              		.eabi_attribute 18, 4
  15              		.file	"ble_hci_le.c"
  16              		.text
  17              		.section	.text.hci_disconnect,"ax",%progbits
  18              		.align	1
  19              		.global	hci_disconnect
  20              		.syntax unified
  21              		.thumb
  22              		.thumb_func
  24              	hci_disconnect:
  25              		@ args = 0, pretend = 0, frame = 288
  26              		@ frame_needed = 0, uses_anonymous_args = 0
  27 0000 70B5     		push	{r4, r5, r6, lr}
  28 0002 C8B0     		sub	sp, sp, #288
  29 0004 0DF10706 		add	r6, sp, #7
  30 0008 0024     		movs	r4, #0
  31 000a 8DF80740 		strb	r4, [sp, #7]
  32 000e 02AD     		add	r5, sp, #8
  33 0010 ADF80800 		strh	r0, [sp, #8]	@ movhi
  34 0014 8DF80A10 		strb	r1, [sp, #10]
  35 0018 1822     		movs	r2, #24
  36 001a 2146     		mov	r1, r4
  37 001c 42A8     		add	r0, sp, #264
  38 001e FFF7FEFF 		bl	Osal_MemSet
  39 0022 0123     		movs	r3, #1
  40 0024 ADF80831 		strh	r3, [sp, #264]	@ movhi
  41 0028 0622     		movs	r2, #6
  42 002a ADF80A21 		strh	r2, [sp, #266]	@ movhi
  43 002e 0F22     		movs	r2, #15
  44 0030 4392     		str	r2, [sp, #268]
  45 0032 4495     		str	r5, [sp, #272]
  46 0034 0322     		movs	r2, #3
  47 0036 4592     		str	r2, [sp, #276]
  48 0038 4696     		str	r6, [sp, #280]
  49 003a 4793     		str	r3, [sp, #284]
  50 003c 2146     		mov	r1, r4
  51 003e 42A8     		add	r0, sp, #264
  52 0040 FFF7FEFF 		bl	hci_send_req
  53 0044 A042     		cmp	r0, r4
  54 0046 03DB     		blt	.L3
  55 0048 9DF80700 		ldrb	r0, [sp, #7]	@ zero_extendqisi2
  56              	.L2:
  57 004c 48B0     		add	sp, sp, #288
  58              		@ sp needed
ARM GAS  C:\Users\Nathan\AppData\Local\Temp\ccilHIuM.s 			page 2


  59 004e 70BD     		pop	{r4, r5, r6, pc}
  60              	.L3:
  61 0050 FF20     		movs	r0, #255
  62 0052 FBE7     		b	.L2
  64              		.section	.text.hci_read_remote_version_information,"ax",%progbits
  65              		.align	1
  66              		.global	hci_read_remote_version_information
  67              		.syntax unified
  68              		.thumb
  69              		.thumb_func
  71              	hci_read_remote_version_information:
  72              		@ args = 0, pretend = 0, frame = 288
  73              		@ frame_needed = 0, uses_anonymous_args = 0
  74 0000 70B5     		push	{r4, r5, r6, lr}
  75 0002 C8B0     		sub	sp, sp, #288
  76 0004 0DF10705 		add	r5, sp, #7
  77 0008 0024     		movs	r4, #0
  78 000a 8DF80740 		strb	r4, [sp, #7]
  79 000e 02AE     		add	r6, sp, #8
  80 0010 ADF80800 		strh	r0, [sp, #8]	@ movhi
  81 0014 1822     		movs	r2, #24
  82 0016 2146     		mov	r1, r4
  83 0018 42A8     		add	r0, sp, #264
  84 001a FFF7FEFF 		bl	Osal_MemSet
  85 001e 0123     		movs	r3, #1
  86 0020 ADF80831 		strh	r3, [sp, #264]	@ movhi
  87 0024 1D22     		movs	r2, #29
  88 0026 ADF80A21 		strh	r2, [sp, #266]	@ movhi
  89 002a 0F22     		movs	r2, #15
  90 002c 4392     		str	r2, [sp, #268]
  91 002e 4496     		str	r6, [sp, #272]
  92 0030 0222     		movs	r2, #2
  93 0032 4592     		str	r2, [sp, #276]
  94 0034 4695     		str	r5, [sp, #280]
  95 0036 4793     		str	r3, [sp, #284]
  96 0038 2146     		mov	r1, r4
  97 003a 42A8     		add	r0, sp, #264
  98 003c FFF7FEFF 		bl	hci_send_req
  99 0040 A042     		cmp	r0, r4
 100 0042 03DB     		blt	.L7
 101 0044 9DF80700 		ldrb	r0, [sp, #7]	@ zero_extendqisi2
 102              	.L6:
 103 0048 48B0     		add	sp, sp, #288
 104              		@ sp needed
 105 004a 70BD     		pop	{r4, r5, r6, pc}
 106              	.L7:
 107 004c FF20     		movs	r0, #255
 108 004e FBE7     		b	.L6
 110              		.section	.text.hci_set_event_mask,"ax",%progbits
 111              		.align	1
 112              		.global	hci_set_event_mask
 113              		.syntax unified
 114              		.thumb
 115              		.thumb_func
 117              	hci_set_event_mask:
 118              		@ args = 0, pretend = 0, frame = 288
 119              		@ frame_needed = 0, uses_anonymous_args = 0
ARM GAS  C:\Users\Nathan\AppData\Local\Temp\ccilHIuM.s 			page 3


 120 0000 70B5     		push	{r4, r5, r6, lr}
 121 0002 C8B0     		sub	sp, sp, #288
 122 0004 0146     		mov	r1, r0
 123 0006 0DF10705 		add	r5, sp, #7
 124 000a 0024     		movs	r4, #0
 125 000c 8DF80740 		strb	r4, [sp, #7]
 126 0010 02AE     		add	r6, sp, #8
 127 0012 0822     		movs	r2, #8
 128 0014 3046     		mov	r0, r6
 129 0016 FFF7FEFF 		bl	Osal_MemCpy
 130 001a 1822     		movs	r2, #24
 131 001c 2146     		mov	r1, r4
 132 001e 42A8     		add	r0, sp, #264
 133 0020 FFF7FEFF 		bl	Osal_MemSet
 134 0024 0323     		movs	r3, #3
 135 0026 ADF80831 		strh	r3, [sp, #264]	@ movhi
 136 002a 0123     		movs	r3, #1
 137 002c ADF80A31 		strh	r3, [sp, #266]	@ movhi
 138 0030 4496     		str	r6, [sp, #272]
 139 0032 0822     		movs	r2, #8
 140 0034 4592     		str	r2, [sp, #276]
 141 0036 4695     		str	r5, [sp, #280]
 142 0038 4793     		str	r3, [sp, #284]
 143 003a 2146     		mov	r1, r4
 144 003c 42A8     		add	r0, sp, #264
 145 003e FFF7FEFF 		bl	hci_send_req
 146 0042 A042     		cmp	r0, r4
 147 0044 03DB     		blt	.L11
 148 0046 9DF80700 		ldrb	r0, [sp, #7]	@ zero_extendqisi2
 149              	.L10:
 150 004a 48B0     		add	sp, sp, #288
 151              		@ sp needed
 152 004c 70BD     		pop	{r4, r5, r6, pc}
 153              	.L11:
 154 004e FF20     		movs	r0, #255
 155 0050 FBE7     		b	.L10
 157              		.section	.text.hci_reset,"ax",%progbits
 158              		.align	1
 159              		.global	hci_reset
 160              		.syntax unified
 161              		.thumb
 162              		.thumb_func
 164              	hci_reset:
 165              		@ args = 0, pretend = 0, frame = 32
 166              		@ frame_needed = 0, uses_anonymous_args = 0
 167 0000 10B5     		push	{r4, lr}
 168 0002 88B0     		sub	sp, sp, #32
 169 0004 0024     		movs	r4, #0
 170 0006 8DF80740 		strb	r4, [sp, #7]
 171 000a 1822     		movs	r2, #24
 172 000c 2146     		mov	r1, r4
 173 000e 02A8     		add	r0, sp, #8
 174 0010 FFF7FEFF 		bl	Osal_MemSet
 175 0014 0323     		movs	r3, #3
 176 0016 ADF80830 		strh	r3, [sp, #8]	@ movhi
 177 001a ADF80A30 		strh	r3, [sp, #10]	@ movhi
 178 001e 0DF10703 		add	r3, sp, #7
ARM GAS  C:\Users\Nathan\AppData\Local\Temp\ccilHIuM.s 			page 4


 179 0022 0693     		str	r3, [sp, #24]
 180 0024 0123     		movs	r3, #1
 181 0026 0793     		str	r3, [sp, #28]
 182 0028 2146     		mov	r1, r4
 183 002a 02A8     		add	r0, sp, #8
 184 002c FFF7FEFF 		bl	hci_send_req
 185 0030 A042     		cmp	r0, r4
 186 0032 03DB     		blt	.L15
 187 0034 9DF80700 		ldrb	r0, [sp, #7]	@ zero_extendqisi2
 188              	.L14:
 189 0038 08B0     		add	sp, sp, #32
 190              		@ sp needed
 191 003a 10BD     		pop	{r4, pc}
 192              	.L15:
 193 003c FF20     		movs	r0, #255
 194 003e FBE7     		b	.L14
 196              		.section	.text.hci_read_transmit_power_level,"ax",%progbits
 197              		.align	1
 198              		.global	hci_read_transmit_power_level
 199              		.syntax unified
 200              		.thumb
 201              		.thumb_func
 203              	hci_read_transmit_power_level:
 204              		@ args = 0, pretend = 0, frame = 288
 205              		@ frame_needed = 0, uses_anonymous_args = 0
 206 0000 2DE9F041 		push	{r4, r5, r6, r7, r8, lr}
 207 0004 C8B0     		sub	sp, sp, #288
 208 0006 0646     		mov	r6, r0
 209 0008 0D46     		mov	r5, r1
 210 000a 1746     		mov	r7, r2
 211 000c 0DF10408 		add	r8, sp, #4
 212 0010 0422     		movs	r2, #4
 213 0012 0021     		movs	r1, #0
 214 0014 4046     		mov	r0, r8
 215 0016 FFF7FEFF 		bl	Osal_MemSet
 216 001a 02AC     		add	r4, sp, #8
 217 001c ADF80860 		strh	r6, [sp, #8]	@ movhi
 218 0020 8DF80A50 		strb	r5, [sp, #10]
 219 0024 1822     		movs	r2, #24
 220 0026 0021     		movs	r1, #0
 221 0028 42A8     		add	r0, sp, #264
 222 002a FFF7FEFF 		bl	Osal_MemSet
 223 002e 0323     		movs	r3, #3
 224 0030 ADF80831 		strh	r3, [sp, #264]	@ movhi
 225 0034 2D22     		movs	r2, #45
 226 0036 ADF80A21 		strh	r2, [sp, #266]	@ movhi
 227 003a 4494     		str	r4, [sp, #272]
 228 003c 4593     		str	r3, [sp, #276]
 229 003e CDF81881 		str	r8, [sp, #280]
 230 0042 0423     		movs	r3, #4
 231 0044 4793     		str	r3, [sp, #284]
 232 0046 0021     		movs	r1, #0
 233 0048 42A8     		add	r0, sp, #264
 234 004a FFF7FEFF 		bl	hci_send_req
 235 004e 0028     		cmp	r0, #0
 236 0050 08DB     		blt	.L19
 237 0052 9DF80400 		ldrb	r0, [sp, #4]	@ zero_extendqisi2
ARM GAS  C:\Users\Nathan\AppData\Local\Temp\ccilHIuM.s 			page 5


 238 0056 10B9     		cbnz	r0, .L18
 239 0058 9DF80730 		ldrb	r3, [sp, #7]	@ zero_extendqisi2
 240 005c 3B70     		strb	r3, [r7]
 241              	.L18:
 242 005e 48B0     		add	sp, sp, #288
 243              		@ sp needed
 244 0060 BDE8F081 		pop	{r4, r5, r6, r7, r8, pc}
 245              	.L19:
 246 0064 FF20     		movs	r0, #255
 247 0066 FAE7     		b	.L18
 249              		.section	.text.hci_set_controller_to_host_flow_control,"ax",%progbits
 250              		.align	1
 251              		.global	hci_set_controller_to_host_flow_control
 252              		.syntax unified
 253              		.thumb
 254              		.thumb_func
 256              	hci_set_controller_to_host_flow_control:
 257              		@ args = 0, pretend = 0, frame = 288
 258              		@ frame_needed = 0, uses_anonymous_args = 0
 259 0000 70B5     		push	{r4, r5, r6, lr}
 260 0002 C8B0     		sub	sp, sp, #288
 261 0004 0DF10705 		add	r5, sp, #7
 262 0008 0024     		movs	r4, #0
 263 000a 8DF80740 		strb	r4, [sp, #7]
 264 000e 02AE     		add	r6, sp, #8
 265 0010 8DF80800 		strb	r0, [sp, #8]
 266 0014 1822     		movs	r2, #24
 267 0016 2146     		mov	r1, r4
 268 0018 42A8     		add	r0, sp, #264
 269 001a FFF7FEFF 		bl	Osal_MemSet
 270 001e 0323     		movs	r3, #3
 271 0020 ADF80831 		strh	r3, [sp, #264]	@ movhi
 272 0024 3123     		movs	r3, #49
 273 0026 ADF80A31 		strh	r3, [sp, #266]	@ movhi
 274 002a 4496     		str	r6, [sp, #272]
 275 002c 0123     		movs	r3, #1
 276 002e 4593     		str	r3, [sp, #276]
 277 0030 4695     		str	r5, [sp, #280]
 278 0032 4793     		str	r3, [sp, #284]
 279 0034 2146     		mov	r1, r4
 280 0036 42A8     		add	r0, sp, #264
 281 0038 FFF7FEFF 		bl	hci_send_req
 282 003c A042     		cmp	r0, r4
 283 003e 03DB     		blt	.L23
 284 0040 9DF80700 		ldrb	r0, [sp, #7]	@ zero_extendqisi2
 285              	.L22:
 286 0044 48B0     		add	sp, sp, #288
 287              		@ sp needed
 288 0046 70BD     		pop	{r4, r5, r6, pc}
 289              	.L23:
 290 0048 FF20     		movs	r0, #255
 291 004a FBE7     		b	.L22
 293              		.section	.text.hci_host_buffer_size,"ax",%progbits
 294              		.align	1
 295              		.global	hci_host_buffer_size
 296              		.syntax unified
 297              		.thumb
ARM GAS  C:\Users\Nathan\AppData\Local\Temp\ccilHIuM.s 			page 6


 298              		.thumb_func
 300              	hci_host_buffer_size:
 301              		@ args = 0, pretend = 0, frame = 288
 302              		@ frame_needed = 0, uses_anonymous_args = 0
 303 0000 70B5     		push	{r4, r5, r6, lr}
 304 0002 C8B0     		sub	sp, sp, #288
 305 0004 0DF10706 		add	r6, sp, #7
 306 0008 0025     		movs	r5, #0
 307 000a 8DF80750 		strb	r5, [sp, #7]
 308 000e 02AC     		add	r4, sp, #8
 309 0010 ADF80800 		strh	r0, [sp, #8]	@ movhi
 310 0014 8DF80A10 		strb	r1, [sp, #10]
 311 0018 ADF80B20 		strh	r2, [sp, #11]	@ unaligned
 312 001c ADF80D30 		strh	r3, [sp, #13]	@ unaligned
 313 0020 1822     		movs	r2, #24
 314 0022 2946     		mov	r1, r5
 315 0024 42A8     		add	r0, sp, #264
 316 0026 FFF7FEFF 		bl	Osal_MemSet
 317 002a 0323     		movs	r3, #3
 318 002c ADF80831 		strh	r3, [sp, #264]	@ movhi
 319 0030 3323     		movs	r3, #51
 320 0032 ADF80A31 		strh	r3, [sp, #266]	@ movhi
 321 0036 4494     		str	r4, [sp, #272]
 322 0038 0723     		movs	r3, #7
 323 003a 4593     		str	r3, [sp, #276]
 324 003c 4696     		str	r6, [sp, #280]
 325 003e 0123     		movs	r3, #1
 326 0040 4793     		str	r3, [sp, #284]
 327 0042 2946     		mov	r1, r5
 328 0044 42A8     		add	r0, sp, #264
 329 0046 FFF7FEFF 		bl	hci_send_req
 330 004a A842     		cmp	r0, r5
 331 004c 03DB     		blt	.L27
 332 004e 9DF80700 		ldrb	r0, [sp, #7]	@ zero_extendqisi2
 333              	.L26:
 334 0052 48B0     		add	sp, sp, #288
 335              		@ sp needed
 336 0054 70BD     		pop	{r4, r5, r6, pc}
 337              	.L27:
 338 0056 FF20     		movs	r0, #255
 339 0058 FBE7     		b	.L26
 341              		.section	.text.hci_host_number_of_completed_packets,"ax",%progbits
 342              		.align	1
 343              		.global	hci_host_number_of_completed_packets
 344              		.syntax unified
 345              		.thumb
 346              		.thumb_func
 348              	hci_host_number_of_completed_packets:
 349              		@ args = 0, pretend = 0, frame = 288
 350              		@ frame_needed = 0, uses_anonymous_args = 0
 351 0000 F0B5     		push	{r4, r5, r6, r7, lr}
 352 0002 C9B0     		sub	sp, sp, #292
 353 0004 0DF10706 		add	r6, sp, #7
 354 0008 0025     		movs	r5, #0
 355 000a 8DF80750 		strb	r5, [sp, #7]
 356 000e 02AF     		add	r7, sp, #8
 357 0010 8DF80800 		strb	r0, [sp, #8]
ARM GAS  C:\Users\Nathan\AppData\Local\Temp\ccilHIuM.s 			page 7


 358 0014 8400     		lsls	r4, r0, #2
 359 0016 2246     		mov	r2, r4
 360 0018 0DF10900 		add	r0, sp, #9
 361 001c FFF7FEFF 		bl	Osal_MemCpy
 362 0020 0134     		adds	r4, r4, #1
 363 0022 1822     		movs	r2, #24
 364 0024 2946     		mov	r1, r5
 365 0026 42A8     		add	r0, sp, #264
 366 0028 FFF7FEFF 		bl	Osal_MemSet
 367 002c 0323     		movs	r3, #3
 368 002e ADF80831 		strh	r3, [sp, #264]	@ movhi
 369 0032 3523     		movs	r3, #53
 370 0034 ADF80A31 		strh	r3, [sp, #266]	@ movhi
 371 0038 4497     		str	r7, [sp, #272]
 372 003a 4594     		str	r4, [sp, #276]
 373 003c 4696     		str	r6, [sp, #280]
 374 003e 0123     		movs	r3, #1
 375 0040 4793     		str	r3, [sp, #284]
 376 0042 2946     		mov	r1, r5
 377 0044 42A8     		add	r0, sp, #264
 378 0046 FFF7FEFF 		bl	hci_send_req
 379 004a A842     		cmp	r0, r5
 380 004c 03DB     		blt	.L31
 381 004e 9DF80700 		ldrb	r0, [sp, #7]	@ zero_extendqisi2
 382              	.L30:
 383 0052 49B0     		add	sp, sp, #292
 384              		@ sp needed
 385 0054 F0BD     		pop	{r4, r5, r6, r7, pc}
 386              	.L31:
 387 0056 FF20     		movs	r0, #255
 388 0058 FBE7     		b	.L30
 390              		.section	.text.hci_read_local_version_information,"ax",%progbits
 391              		.align	1
 392              		.global	hci_read_local_version_information
 393              		.syntax unified
 394              		.thumb
 395              		.thumb_func
 397              	hci_read_local_version_information:
 398              		@ args = 4, pretend = 0, frame = 40
 399              		@ frame_needed = 0, uses_anonymous_args = 0
 400 0000 2DE9F041 		push	{r4, r5, r6, r7, r8, lr}
 401 0004 8AB0     		sub	sp, sp, #40
 402 0006 0746     		mov	r7, r0
 403 0008 0E46     		mov	r6, r1
 404 000a 1546     		mov	r5, r2
 405 000c 1C46     		mov	r4, r3
 406 000e 0DF10408 		add	r8, sp, #4
 407 0012 0922     		movs	r2, #9
 408 0014 0021     		movs	r1, #0
 409 0016 4046     		mov	r0, r8
 410 0018 FFF7FEFF 		bl	Osal_MemSet
 411 001c 1822     		movs	r2, #24
 412 001e 0021     		movs	r1, #0
 413 0020 04A8     		add	r0, sp, #16
 414 0022 FFF7FEFF 		bl	Osal_MemSet
 415 0026 0423     		movs	r3, #4
 416 0028 ADF81030 		strh	r3, [sp, #16]	@ movhi
ARM GAS  C:\Users\Nathan\AppData\Local\Temp\ccilHIuM.s 			page 8


 417 002c 0123     		movs	r3, #1
 418 002e ADF81230 		strh	r3, [sp, #18]	@ movhi
 419 0032 CDF82080 		str	r8, [sp, #32]
 420 0036 0923     		movs	r3, #9
 421 0038 0993     		str	r3, [sp, #36]
 422 003a 0021     		movs	r1, #0
 423 003c 04A8     		add	r0, sp, #16
 424 003e FFF7FEFF 		bl	hci_send_req
 425 0042 0028     		cmp	r0, #0
 426 0044 15DB     		blt	.L35
 427 0046 9DF80400 		ldrb	r0, [sp, #4]	@ zero_extendqisi2
 428 004a 78B9     		cbnz	r0, .L34
 429 004c 9DF80530 		ldrb	r3, [sp, #5]	@ zero_extendqisi2
 430 0050 3B70     		strb	r3, [r7]
 431 0052 BDF80630 		ldrh	r3, [sp, #6]
 432 0056 3380     		strh	r3, [r6]	@ movhi
 433 0058 9DF80830 		ldrb	r3, [sp, #8]	@ zero_extendqisi2
 434 005c 2B70     		strb	r3, [r5]
 435 005e BDF80930 		ldrh	r3, [sp, #9]	@ unaligned
 436 0062 2380     		strh	r3, [r4]	@ movhi
 437 0064 BDF80B20 		ldrh	r2, [sp, #11]	@ unaligned
 438 0068 109B     		ldr	r3, [sp, #64]
 439 006a 1A80     		strh	r2, [r3]	@ movhi
 440              	.L34:
 441 006c 0AB0     		add	sp, sp, #40
 442              		@ sp needed
 443 006e BDE8F081 		pop	{r4, r5, r6, r7, r8, pc}
 444              	.L35:
 445 0072 FF20     		movs	r0, #255
 446 0074 FAE7     		b	.L34
 448              		.section	.text.hci_read_local_supported_commands,"ax",%progbits
 449              		.align	1
 450              		.global	hci_read_local_supported_commands
 451              		.syntax unified
 452              		.thumb
 453              		.thumb_func
 455              	hci_read_local_supported_commands:
 456              		@ args = 0, pretend = 0, frame = 96
 457              		@ frame_needed = 0, uses_anonymous_args = 0
 458 0000 30B5     		push	{r4, r5, lr}
 459 0002 99B0     		sub	sp, sp, #100
 460 0004 0446     		mov	r4, r0
 461 0006 01AD     		add	r5, sp, #4
 462 0008 4122     		movs	r2, #65
 463 000a 0021     		movs	r1, #0
 464 000c 2846     		mov	r0, r5
 465 000e FFF7FEFF 		bl	Osal_MemSet
 466 0012 1822     		movs	r2, #24
 467 0014 0021     		movs	r1, #0
 468 0016 12A8     		add	r0, sp, #72
 469 0018 FFF7FEFF 		bl	Osal_MemSet
 470 001c 0423     		movs	r3, #4
 471 001e ADF84830 		strh	r3, [sp, #72]	@ movhi
 472 0022 0223     		movs	r3, #2
 473 0024 ADF84A30 		strh	r3, [sp, #74]	@ movhi
 474 0028 1695     		str	r5, [sp, #88]
 475 002a 4123     		movs	r3, #65
ARM GAS  C:\Users\Nathan\AppData\Local\Temp\ccilHIuM.s 			page 9


 476 002c 1793     		str	r3, [sp, #92]
 477 002e 0021     		movs	r1, #0
 478 0030 12A8     		add	r0, sp, #72
 479 0032 FFF7FEFF 		bl	hci_send_req
 480 0036 0028     		cmp	r0, #0
 481 0038 0CDB     		blt	.L39
 482 003a 9DF80450 		ldrb	r5, [sp, #4]	@ zero_extendqisi2
 483 003e 15B1     		cbz	r5, .L41
 484              	.L38:
 485 0040 2846     		mov	r0, r5
 486 0042 19B0     		add	sp, sp, #100
 487              		@ sp needed
 488 0044 30BD     		pop	{r4, r5, pc}
 489              	.L41:
 490 0046 4022     		movs	r2, #64
 491 0048 0DF10501 		add	r1, sp, #5
 492 004c 2046     		mov	r0, r4
 493 004e FFF7FEFF 		bl	Osal_MemCpy
 494 0052 F5E7     		b	.L38
 495              	.L39:
 496 0054 FF25     		movs	r5, #255
 497 0056 F3E7     		b	.L38
 499              		.section	.text.hci_read_local_supported_features,"ax",%progbits
 500              		.align	1
 501              		.global	hci_read_local_supported_features
 502              		.syntax unified
 503              		.thumb
 504              		.thumb_func
 506              	hci_read_local_supported_features:
 507              		@ args = 0, pretend = 0, frame = 40
 508              		@ frame_needed = 0, uses_anonymous_args = 0
 509 0000 30B5     		push	{r4, r5, lr}
 510 0002 8BB0     		sub	sp, sp, #44
 511 0004 0446     		mov	r4, r0
 512 0006 01AD     		add	r5, sp, #4
 513 0008 0922     		movs	r2, #9
 514 000a 0021     		movs	r1, #0
 515 000c 2846     		mov	r0, r5
 516 000e FFF7FEFF 		bl	Osal_MemSet
 517 0012 1822     		movs	r2, #24
 518 0014 0021     		movs	r1, #0
 519 0016 04A8     		add	r0, sp, #16
 520 0018 FFF7FEFF 		bl	Osal_MemSet
 521 001c 0423     		movs	r3, #4
 522 001e ADF81030 		strh	r3, [sp, #16]	@ movhi
 523 0022 0323     		movs	r3, #3
 524 0024 ADF81230 		strh	r3, [sp, #18]	@ movhi
 525 0028 0895     		str	r5, [sp, #32]
 526 002a 0923     		movs	r3, #9
 527 002c 0993     		str	r3, [sp, #36]
 528 002e 0021     		movs	r1, #0
 529 0030 04A8     		add	r0, sp, #16
 530 0032 FFF7FEFF 		bl	hci_send_req
 531 0036 0028     		cmp	r0, #0
 532 0038 0CDB     		blt	.L44
 533 003a 9DF80450 		ldrb	r5, [sp, #4]	@ zero_extendqisi2
 534 003e 15B1     		cbz	r5, .L46
ARM GAS  C:\Users\Nathan\AppData\Local\Temp\ccilHIuM.s 			page 10


 535              	.L43:
 536 0040 2846     		mov	r0, r5
 537 0042 0BB0     		add	sp, sp, #44
 538              		@ sp needed
 539 0044 30BD     		pop	{r4, r5, pc}
 540              	.L46:
 541 0046 0822     		movs	r2, #8
 542 0048 0DF10501 		add	r1, sp, #5
 543 004c 2046     		mov	r0, r4
 544 004e FFF7FEFF 		bl	Osal_MemCpy
 545 0052 F5E7     		b	.L43
 546              	.L44:
 547 0054 FF25     		movs	r5, #255
 548 0056 F3E7     		b	.L43
 550              		.section	.text.hci_read_bd_addr,"ax",%progbits
 551              		.align	1
 552              		.global	hci_read_bd_addr
 553              		.syntax unified
 554              		.thumb
 555              		.thumb_func
 557              	hci_read_bd_addr:
 558              		@ args = 0, pretend = 0, frame = 32
 559              		@ frame_needed = 0, uses_anonymous_args = 0
 560 0000 30B5     		push	{r4, r5, lr}
 561 0002 89B0     		sub	sp, sp, #36
 562 0004 0446     		mov	r4, r0
 563 0006 0722     		movs	r2, #7
 564 0008 0021     		movs	r1, #0
 565 000a 6846     		mov	r0, sp
 566 000c FFF7FEFF 		bl	Osal_MemSet
 567 0010 1822     		movs	r2, #24
 568 0012 0021     		movs	r1, #0
 569 0014 02A8     		add	r0, sp, #8
 570 0016 FFF7FEFF 		bl	Osal_MemSet
 571 001a 0423     		movs	r3, #4
 572 001c ADF80830 		strh	r3, [sp, #8]	@ movhi
 573 0020 0923     		movs	r3, #9
 574 0022 ADF80A30 		strh	r3, [sp, #10]	@ movhi
 575 0026 CDF818D0 		str	sp, [sp, #24]
 576 002a 0723     		movs	r3, #7
 577 002c 0793     		str	r3, [sp, #28]
 578 002e 0021     		movs	r1, #0
 579 0030 02A8     		add	r0, sp, #8
 580 0032 FFF7FEFF 		bl	hci_send_req
 581 0036 0028     		cmp	r0, #0
 582 0038 0CDB     		blt	.L49
 583 003a 9DF80050 		ldrb	r5, [sp]	@ zero_extendqisi2
 584 003e 15B1     		cbz	r5, .L51
 585              	.L48:
 586 0040 2846     		mov	r0, r5
 587 0042 09B0     		add	sp, sp, #36
 588              		@ sp needed
 589 0044 30BD     		pop	{r4, r5, pc}
 590              	.L51:
 591 0046 0622     		movs	r2, #6
 592 0048 0DF10101 		add	r1, sp, #1
 593 004c 2046     		mov	r0, r4
ARM GAS  C:\Users\Nathan\AppData\Local\Temp\ccilHIuM.s 			page 11


 594 004e FFF7FEFF 		bl	Osal_MemCpy
 595 0052 F5E7     		b	.L48
 596              	.L49:
 597 0054 FF25     		movs	r5, #255
 598 0056 F3E7     		b	.L48
 600              		.section	.text.hci_read_rssi,"ax",%progbits
 601              		.align	1
 602              		.global	hci_read_rssi
 603              		.syntax unified
 604              		.thumb
 605              		.thumb_func
 607              	hci_read_rssi:
 608              		@ args = 0, pretend = 0, frame = 288
 609              		@ frame_needed = 0, uses_anonymous_args = 0
 610 0000 F0B5     		push	{r4, r5, r6, r7, lr}
 611 0002 C9B0     		sub	sp, sp, #292
 612 0004 0446     		mov	r4, r0
 613 0006 0D46     		mov	r5, r1
 614 0008 01AE     		add	r6, sp, #4
 615 000a 0422     		movs	r2, #4
 616 000c 0021     		movs	r1, #0
 617 000e 3046     		mov	r0, r6
 618 0010 FFF7FEFF 		bl	Osal_MemSet
 619 0014 02AF     		add	r7, sp, #8
 620 0016 ADF80840 		strh	r4, [sp, #8]	@ movhi
 621 001a 1822     		movs	r2, #24
 622 001c 0021     		movs	r1, #0
 623 001e 42A8     		add	r0, sp, #264
 624 0020 FFF7FEFF 		bl	Osal_MemSet
 625 0024 0523     		movs	r3, #5
 626 0026 ADF80831 		strh	r3, [sp, #264]	@ movhi
 627 002a ADF80A31 		strh	r3, [sp, #266]	@ movhi
 628 002e 4497     		str	r7, [sp, #272]
 629 0030 0223     		movs	r3, #2
 630 0032 4593     		str	r3, [sp, #276]
 631 0034 4696     		str	r6, [sp, #280]
 632 0036 0423     		movs	r3, #4
 633 0038 4793     		str	r3, [sp, #284]
 634 003a 0021     		movs	r1, #0
 635 003c 42A8     		add	r0, sp, #264
 636 003e FFF7FEFF 		bl	hci_send_req
 637 0042 0028     		cmp	r0, #0
 638 0044 07DB     		blt	.L54
 639 0046 9DF80400 		ldrb	r0, [sp, #4]	@ zero_extendqisi2
 640 004a 10B9     		cbnz	r0, .L53
 641 004c 9DF80730 		ldrb	r3, [sp, #7]	@ zero_extendqisi2
 642 0050 2B70     		strb	r3, [r5]
 643              	.L53:
 644 0052 49B0     		add	sp, sp, #292
 645              		@ sp needed
 646 0054 F0BD     		pop	{r4, r5, r6, r7, pc}
 647              	.L54:
 648 0056 FF20     		movs	r0, #255
 649 0058 FBE7     		b	.L53
 651              		.section	.text.hci_le_set_event_mask,"ax",%progbits
 652              		.align	1
 653              		.global	hci_le_set_event_mask
ARM GAS  C:\Users\Nathan\AppData\Local\Temp\ccilHIuM.s 			page 12


 654              		.syntax unified
 655              		.thumb
 656              		.thumb_func
 658              	hci_le_set_event_mask:
 659              		@ args = 0, pretend = 0, frame = 288
 660              		@ frame_needed = 0, uses_anonymous_args = 0
 661 0000 70B5     		push	{r4, r5, r6, lr}
 662 0002 C8B0     		sub	sp, sp, #288
 663 0004 0146     		mov	r1, r0
 664 0006 0DF10705 		add	r5, sp, #7
 665 000a 0024     		movs	r4, #0
 666 000c 8DF80740 		strb	r4, [sp, #7]
 667 0010 02AE     		add	r6, sp, #8
 668 0012 0822     		movs	r2, #8
 669 0014 3046     		mov	r0, r6
 670 0016 FFF7FEFF 		bl	Osal_MemCpy
 671 001a 1822     		movs	r2, #24
 672 001c 2146     		mov	r1, r4
 673 001e 42A8     		add	r0, sp, #264
 674 0020 FFF7FEFF 		bl	Osal_MemSet
 675 0024 0822     		movs	r2, #8
 676 0026 ADF80821 		strh	r2, [sp, #264]	@ movhi
 677 002a 0123     		movs	r3, #1
 678 002c ADF80A31 		strh	r3, [sp, #266]	@ movhi
 679 0030 4496     		str	r6, [sp, #272]
 680 0032 4592     		str	r2, [sp, #276]
 681 0034 4695     		str	r5, [sp, #280]
 682 0036 4793     		str	r3, [sp, #284]
 683 0038 2146     		mov	r1, r4
 684 003a 42A8     		add	r0, sp, #264
 685 003c FFF7FEFF 		bl	hci_send_req
 686 0040 A042     		cmp	r0, r4
 687 0042 03DB     		blt	.L58
 688 0044 9DF80700 		ldrb	r0, [sp, #7]	@ zero_extendqisi2
 689              	.L57:
 690 0048 48B0     		add	sp, sp, #288
 691              		@ sp needed
 692 004a 70BD     		pop	{r4, r5, r6, pc}
 693              	.L58:
 694 004c FF20     		movs	r0, #255
 695 004e FBE7     		b	.L57
 697              		.section	.text.hci_le_read_buffer_size,"ax",%progbits
 698              		.align	1
 699              		.global	hci_le_read_buffer_size
 700              		.syntax unified
 701              		.thumb
 702              		.thumb_func
 704              	hci_le_read_buffer_size:
 705              		@ args = 0, pretend = 0, frame = 32
 706              		@ frame_needed = 0, uses_anonymous_args = 0
 707 0000 70B5     		push	{r4, r5, r6, lr}
 708 0002 88B0     		sub	sp, sp, #32
 709 0004 0546     		mov	r5, r0
 710 0006 0E46     		mov	r6, r1
 711 0008 01AC     		add	r4, sp, #4
 712 000a 0422     		movs	r2, #4
 713 000c 0021     		movs	r1, #0
ARM GAS  C:\Users\Nathan\AppData\Local\Temp\ccilHIuM.s 			page 13


 714 000e 2046     		mov	r0, r4
 715 0010 FFF7FEFF 		bl	Osal_MemSet
 716 0014 1822     		movs	r2, #24
 717 0016 0021     		movs	r1, #0
 718 0018 02A8     		add	r0, sp, #8
 719 001a FFF7FEFF 		bl	Osal_MemSet
 720 001e 0823     		movs	r3, #8
 721 0020 ADF80830 		strh	r3, [sp, #8]	@ movhi
 722 0024 0223     		movs	r3, #2
 723 0026 ADF80A30 		strh	r3, [sp, #10]	@ movhi
 724 002a 0694     		str	r4, [sp, #24]
 725 002c 0423     		movs	r3, #4
 726 002e 0793     		str	r3, [sp, #28]
 727 0030 0021     		movs	r1, #0
 728 0032 02A8     		add	r0, sp, #8
 729 0034 FFF7FEFF 		bl	hci_send_req
 730 0038 0028     		cmp	r0, #0
 731 003a 0ADB     		blt	.L62
 732 003c 9DF80400 		ldrb	r0, [sp, #4]	@ zero_extendqisi2
 733 0040 28B9     		cbnz	r0, .L61
 734 0042 BDF80530 		ldrh	r3, [sp, #5]	@ unaligned
 735 0046 2B80     		strh	r3, [r5]	@ movhi
 736 0048 9DF80730 		ldrb	r3, [sp, #7]	@ zero_extendqisi2
 737 004c 3370     		strb	r3, [r6]
 738              	.L61:
 739 004e 08B0     		add	sp, sp, #32
 740              		@ sp needed
 741 0050 70BD     		pop	{r4, r5, r6, pc}
 742              	.L62:
 743 0052 FF20     		movs	r0, #255
 744 0054 FBE7     		b	.L61
 746              		.section	.text.hci_le_read_local_supported_features,"ax",%progbits
 747              		.align	1
 748              		.global	hci_le_read_local_supported_features
 749              		.syntax unified
 750              		.thumb
 751              		.thumb_func
 753              	hci_le_read_local_supported_features:
 754              		@ args = 0, pretend = 0, frame = 40
 755              		@ frame_needed = 0, uses_anonymous_args = 0
 756 0000 30B5     		push	{r4, r5, lr}
 757 0002 8BB0     		sub	sp, sp, #44
 758 0004 0446     		mov	r4, r0
 759 0006 01AD     		add	r5, sp, #4
 760 0008 0922     		movs	r2, #9
 761 000a 0021     		movs	r1, #0
 762 000c 2846     		mov	r0, r5
 763 000e FFF7FEFF 		bl	Osal_MemSet
 764 0012 1822     		movs	r2, #24
 765 0014 0021     		movs	r1, #0
 766 0016 04A8     		add	r0, sp, #16
 767 0018 FFF7FEFF 		bl	Osal_MemSet
 768 001c 0823     		movs	r3, #8
 769 001e ADF81030 		strh	r3, [sp, #16]	@ movhi
 770 0022 0323     		movs	r3, #3
 771 0024 ADF81230 		strh	r3, [sp, #18]	@ movhi
 772 0028 0895     		str	r5, [sp, #32]
ARM GAS  C:\Users\Nathan\AppData\Local\Temp\ccilHIuM.s 			page 14


 773 002a 0923     		movs	r3, #9
 774 002c 0993     		str	r3, [sp, #36]
 775 002e 0021     		movs	r1, #0
 776 0030 04A8     		add	r0, sp, #16
 777 0032 FFF7FEFF 		bl	hci_send_req
 778 0036 0028     		cmp	r0, #0
 779 0038 0CDB     		blt	.L66
 780 003a 9DF80450 		ldrb	r5, [sp, #4]	@ zero_extendqisi2
 781 003e 15B1     		cbz	r5, .L68
 782              	.L65:
 783 0040 2846     		mov	r0, r5
 784 0042 0BB0     		add	sp, sp, #44
 785              		@ sp needed
 786 0044 30BD     		pop	{r4, r5, pc}
 787              	.L68:
 788 0046 0822     		movs	r2, #8
 789 0048 0DF10501 		add	r1, sp, #5
 790 004c 2046     		mov	r0, r4
 791 004e FFF7FEFF 		bl	Osal_MemCpy
 792 0052 F5E7     		b	.L65
 793              	.L66:
 794 0054 FF25     		movs	r5, #255
 795 0056 F3E7     		b	.L65
 797              		.section	.text.hci_le_set_random_address,"ax",%progbits
 798              		.align	1
 799              		.global	hci_le_set_random_address
 800              		.syntax unified
 801              		.thumb
 802              		.thumb_func
 804              	hci_le_set_random_address:
 805              		@ args = 0, pretend = 0, frame = 288
 806              		@ frame_needed = 0, uses_anonymous_args = 0
 807 0000 70B5     		push	{r4, r5, r6, lr}
 808 0002 C8B0     		sub	sp, sp, #288
 809 0004 0146     		mov	r1, r0
 810 0006 0DF10705 		add	r5, sp, #7
 811 000a 0024     		movs	r4, #0
 812 000c 8DF80740 		strb	r4, [sp, #7]
 813 0010 02AE     		add	r6, sp, #8
 814 0012 0622     		movs	r2, #6
 815 0014 3046     		mov	r0, r6
 816 0016 FFF7FEFF 		bl	Osal_MemCpy
 817 001a 1822     		movs	r2, #24
 818 001c 2146     		mov	r1, r4
 819 001e 42A8     		add	r0, sp, #264
 820 0020 FFF7FEFF 		bl	Osal_MemSet
 821 0024 0823     		movs	r3, #8
 822 0026 ADF80831 		strh	r3, [sp, #264]	@ movhi
 823 002a 0523     		movs	r3, #5
 824 002c ADF80A31 		strh	r3, [sp, #266]	@ movhi
 825 0030 4496     		str	r6, [sp, #272]
 826 0032 0623     		movs	r3, #6
 827 0034 4593     		str	r3, [sp, #276]
 828 0036 4695     		str	r5, [sp, #280]
 829 0038 0123     		movs	r3, #1
 830 003a 4793     		str	r3, [sp, #284]
 831 003c 2146     		mov	r1, r4
ARM GAS  C:\Users\Nathan\AppData\Local\Temp\ccilHIuM.s 			page 15


 832 003e 42A8     		add	r0, sp, #264
 833 0040 FFF7FEFF 		bl	hci_send_req
 834 0044 A042     		cmp	r0, r4
 835 0046 03DB     		blt	.L71
 836 0048 9DF80700 		ldrb	r0, [sp, #7]	@ zero_extendqisi2
 837              	.L70:
 838 004c 48B0     		add	sp, sp, #288
 839              		@ sp needed
 840 004e 70BD     		pop	{r4, r5, r6, pc}
 841              	.L71:
 842 0050 FF20     		movs	r0, #255
 843 0052 FBE7     		b	.L70
 845              		.section	.text.hci_le_set_advertising_parameters,"ax",%progbits
 846              		.align	1
 847              		.global	hci_le_set_advertising_parameters
 848              		.syntax unified
 849              		.thumb
 850              		.thumb_func
 852              	hci_le_set_advertising_parameters:
 853              		@ args = 16, pretend = 0, frame = 288
 854              		@ frame_needed = 0, uses_anonymous_args = 0
 855 0000 70B5     		push	{r4, r5, r6, lr}
 856 0002 C8B0     		sub	sp, sp, #288
 857 0004 0DF10706 		add	r6, sp, #7
 858 0008 0025     		movs	r5, #0
 859 000a 8DF80750 		strb	r5, [sp, #7]
 860 000e 02AC     		add	r4, sp, #8
 861 0010 ADF80800 		strh	r0, [sp, #8]	@ movhi
 862 0014 ADF80A10 		strh	r1, [sp, #10]	@ movhi
 863 0018 8DF80C20 		strb	r2, [sp, #12]
 864 001c 8DF80D30 		strb	r3, [sp, #13]
 865 0020 9DF83031 		ldrb	r3, [sp, #304]	@ zero_extendqisi2
 866 0024 8DF80E30 		strb	r3, [sp, #14]
 867 0028 0622     		movs	r2, #6
 868 002a 4D99     		ldr	r1, [sp, #308]
 869 002c 0DF10F00 		add	r0, sp, #15
 870 0030 FFF7FEFF 		bl	Osal_MemCpy
 871 0034 9DF83831 		ldrb	r3, [sp, #312]	@ zero_extendqisi2
 872 0038 8DF81530 		strb	r3, [sp, #21]
 873 003c 9DF83C31 		ldrb	r3, [sp, #316]	@ zero_extendqisi2
 874 0040 8DF81630 		strb	r3, [sp, #22]
 875 0044 1822     		movs	r2, #24
 876 0046 2946     		mov	r1, r5
 877 0048 42A8     		add	r0, sp, #264
 878 004a FFF7FEFF 		bl	Osal_MemSet
 879 004e 0823     		movs	r3, #8
 880 0050 ADF80831 		strh	r3, [sp, #264]	@ movhi
 881 0054 0623     		movs	r3, #6
 882 0056 ADF80A31 		strh	r3, [sp, #266]	@ movhi
 883 005a 4494     		str	r4, [sp, #272]
 884 005c 0F23     		movs	r3, #15
 885 005e 4593     		str	r3, [sp, #276]
 886 0060 4696     		str	r6, [sp, #280]
 887 0062 0123     		movs	r3, #1
 888 0064 4793     		str	r3, [sp, #284]
 889 0066 2946     		mov	r1, r5
 890 0068 42A8     		add	r0, sp, #264
ARM GAS  C:\Users\Nathan\AppData\Local\Temp\ccilHIuM.s 			page 16


 891 006a FFF7FEFF 		bl	hci_send_req
 892 006e A842     		cmp	r0, r5
 893 0070 03DB     		blt	.L75
 894 0072 9DF80700 		ldrb	r0, [sp, #7]	@ zero_extendqisi2
 895              	.L74:
 896 0076 48B0     		add	sp, sp, #288
 897              		@ sp needed
 898 0078 70BD     		pop	{r4, r5, r6, pc}
 899              	.L75:
 900 007a FF20     		movs	r0, #255
 901 007c FBE7     		b	.L74
 903              		.section	.text.hci_le_read_advertising_physical_channel_tx_power,"ax",%progbits
 904              		.align	1
 905              		.global	hci_le_read_advertising_physical_channel_tx_power
 906              		.syntax unified
 907              		.thumb
 908              		.thumb_func
 910              	hci_le_read_advertising_physical_channel_tx_power:
 911              		@ args = 0, pretend = 0, frame = 32
 912              		@ frame_needed = 0, uses_anonymous_args = 0
 913 0000 30B5     		push	{r4, r5, lr}
 914 0002 89B0     		sub	sp, sp, #36
 915 0004 0446     		mov	r4, r0
 916 0006 01AD     		add	r5, sp, #4
 917 0008 0222     		movs	r2, #2
 918 000a 0021     		movs	r1, #0
 919 000c 2846     		mov	r0, r5
 920 000e FFF7FEFF 		bl	Osal_MemSet
 921 0012 1822     		movs	r2, #24
 922 0014 0021     		movs	r1, #0
 923 0016 02A8     		add	r0, sp, #8
 924 0018 FFF7FEFF 		bl	Osal_MemSet
 925 001c 0823     		movs	r3, #8
 926 001e ADF80830 		strh	r3, [sp, #8]	@ movhi
 927 0022 0723     		movs	r3, #7
 928 0024 ADF80A30 		strh	r3, [sp, #10]	@ movhi
 929 0028 0695     		str	r5, [sp, #24]
 930 002a 0223     		movs	r3, #2
 931 002c 0793     		str	r3, [sp, #28]
 932 002e 0021     		movs	r1, #0
 933 0030 02A8     		add	r0, sp, #8
 934 0032 FFF7FEFF 		bl	hci_send_req
 935 0036 0028     		cmp	r0, #0
 936 0038 07DB     		blt	.L79
 937 003a 9DF80400 		ldrb	r0, [sp, #4]	@ zero_extendqisi2
 938 003e 10B9     		cbnz	r0, .L78
 939 0040 9DF80530 		ldrb	r3, [sp, #5]	@ zero_extendqisi2
 940 0044 2370     		strb	r3, [r4]
 941              	.L78:
 942 0046 09B0     		add	sp, sp, #36
 943              		@ sp needed
 944 0048 30BD     		pop	{r4, r5, pc}
 945              	.L79:
 946 004a FF20     		movs	r0, #255
 947 004c FBE7     		b	.L78
 949              		.section	.text.hci_le_set_advertising_data,"ax",%progbits
 950              		.align	1
ARM GAS  C:\Users\Nathan\AppData\Local\Temp\ccilHIuM.s 			page 17


 951              		.global	hci_le_set_advertising_data
 952              		.syntax unified
 953              		.thumb
 954              		.thumb_func
 956              	hci_le_set_advertising_data:
 957              		@ args = 0, pretend = 0, frame = 288
 958              		@ frame_needed = 0, uses_anonymous_args = 0
 959 0000 70B5     		push	{r4, r5, r6, lr}
 960 0002 C8B0     		sub	sp, sp, #288
 961 0004 0DF10705 		add	r5, sp, #7
 962 0008 0024     		movs	r4, #0
 963 000a 8DF80740 		strb	r4, [sp, #7]
 964 000e 02AE     		add	r6, sp, #8
 965 0010 8DF80800 		strb	r0, [sp, #8]
 966 0014 1F22     		movs	r2, #31
 967 0016 0DF10900 		add	r0, sp, #9
 968 001a FFF7FEFF 		bl	Osal_MemCpy
 969 001e 1822     		movs	r2, #24
 970 0020 2146     		mov	r1, r4
 971 0022 42A8     		add	r0, sp, #264
 972 0024 FFF7FEFF 		bl	Osal_MemSet
 973 0028 0823     		movs	r3, #8
 974 002a ADF80831 		strh	r3, [sp, #264]	@ movhi
 975 002e ADF80A31 		strh	r3, [sp, #266]	@ movhi
 976 0032 4496     		str	r6, [sp, #272]
 977 0034 2023     		movs	r3, #32
 978 0036 4593     		str	r3, [sp, #276]
 979 0038 4695     		str	r5, [sp, #280]
 980 003a 0123     		movs	r3, #1
 981 003c 4793     		str	r3, [sp, #284]
 982 003e 2146     		mov	r1, r4
 983 0040 42A8     		add	r0, sp, #264
 984 0042 FFF7FEFF 		bl	hci_send_req
 985 0046 A042     		cmp	r0, r4
 986 0048 03DB     		blt	.L83
 987 004a 9DF80700 		ldrb	r0, [sp, #7]	@ zero_extendqisi2
 988              	.L82:
 989 004e 48B0     		add	sp, sp, #288
 990              		@ sp needed
 991 0050 70BD     		pop	{r4, r5, r6, pc}
 992              	.L83:
 993 0052 FF20     		movs	r0, #255
 994 0054 FBE7     		b	.L82
 996              		.section	.text.hci_le_set_scan_response_data,"ax",%progbits
 997              		.align	1
 998              		.global	hci_le_set_scan_response_data
 999              		.syntax unified
 1000              		.thumb
 1001              		.thumb_func
 1003              	hci_le_set_scan_response_data:
 1004              		@ args = 0, pretend = 0, frame = 288
 1005              		@ frame_needed = 0, uses_anonymous_args = 0
 1006 0000 70B5     		push	{r4, r5, r6, lr}
 1007 0002 C8B0     		sub	sp, sp, #288
 1008 0004 0DF10705 		add	r5, sp, #7
 1009 0008 0024     		movs	r4, #0
 1010 000a 8DF80740 		strb	r4, [sp, #7]
ARM GAS  C:\Users\Nathan\AppData\Local\Temp\ccilHIuM.s 			page 18


 1011 000e 02AE     		add	r6, sp, #8
 1012 0010 8DF80800 		strb	r0, [sp, #8]
 1013 0014 1F22     		movs	r2, #31
 1014 0016 0DF10900 		add	r0, sp, #9
 1015 001a FFF7FEFF 		bl	Osal_MemCpy
 1016 001e 1822     		movs	r2, #24
 1017 0020 2146     		mov	r1, r4
 1018 0022 42A8     		add	r0, sp, #264
 1019 0024 FFF7FEFF 		bl	Osal_MemSet
 1020 0028 0823     		movs	r3, #8
 1021 002a ADF80831 		strh	r3, [sp, #264]	@ movhi
 1022 002e 0923     		movs	r3, #9
 1023 0030 ADF80A31 		strh	r3, [sp, #266]	@ movhi
 1024 0034 4496     		str	r6, [sp, #272]
 1025 0036 2023     		movs	r3, #32
 1026 0038 4593     		str	r3, [sp, #276]
 1027 003a 4695     		str	r5, [sp, #280]
 1028 003c 0123     		movs	r3, #1
 1029 003e 4793     		str	r3, [sp, #284]
 1030 0040 2146     		mov	r1, r4
 1031 0042 42A8     		add	r0, sp, #264
 1032 0044 FFF7FEFF 		bl	hci_send_req
 1033 0048 A042     		cmp	r0, r4
 1034 004a 03DB     		blt	.L87
 1035 004c 9DF80700 		ldrb	r0, [sp, #7]	@ zero_extendqisi2
 1036              	.L86:
 1037 0050 48B0     		add	sp, sp, #288
 1038              		@ sp needed
 1039 0052 70BD     		pop	{r4, r5, r6, pc}
 1040              	.L87:
 1041 0054 FF20     		movs	r0, #255
 1042 0056 FBE7     		b	.L86
 1044              		.section	.text.hci_le_set_advertising_enable,"ax",%progbits
 1045              		.align	1
 1046              		.global	hci_le_set_advertising_enable
 1047              		.syntax unified
 1048              		.thumb
 1049              		.thumb_func
 1051              	hci_le_set_advertising_enable:
 1052              		@ args = 0, pretend = 0, frame = 288
 1053              		@ frame_needed = 0, uses_anonymous_args = 0
 1054 0000 70B5     		push	{r4, r5, r6, lr}
 1055 0002 C8B0     		sub	sp, sp, #288
 1056 0004 0DF10705 		add	r5, sp, #7
 1057 0008 0024     		movs	r4, #0
 1058 000a 8DF80740 		strb	r4, [sp, #7]
 1059 000e 02AE     		add	r6, sp, #8
 1060 0010 8DF80800 		strb	r0, [sp, #8]
 1061 0014 1822     		movs	r2, #24
 1062 0016 2146     		mov	r1, r4
 1063 0018 42A8     		add	r0, sp, #264
 1064 001a FFF7FEFF 		bl	Osal_MemSet
 1065 001e 0823     		movs	r3, #8
 1066 0020 ADF80831 		strh	r3, [sp, #264]	@ movhi
 1067 0024 0A23     		movs	r3, #10
 1068 0026 ADF80A31 		strh	r3, [sp, #266]	@ movhi
 1069 002a 4496     		str	r6, [sp, #272]
ARM GAS  C:\Users\Nathan\AppData\Local\Temp\ccilHIuM.s 			page 19


 1070 002c 0123     		movs	r3, #1
 1071 002e 4593     		str	r3, [sp, #276]
 1072 0030 4695     		str	r5, [sp, #280]
 1073 0032 4793     		str	r3, [sp, #284]
 1074 0034 2146     		mov	r1, r4
 1075 0036 42A8     		add	r0, sp, #264
 1076 0038 FFF7FEFF 		bl	hci_send_req
 1077 003c A042     		cmp	r0, r4
 1078 003e 03DB     		blt	.L91
 1079 0040 9DF80700 		ldrb	r0, [sp, #7]	@ zero_extendqisi2
 1080              	.L90:
 1081 0044 48B0     		add	sp, sp, #288
 1082              		@ sp needed
 1083 0046 70BD     		pop	{r4, r5, r6, pc}
 1084              	.L91:
 1085 0048 FF20     		movs	r0, #255
 1086 004a FBE7     		b	.L90
 1088              		.section	.text.hci_le_set_scan_parameters,"ax",%progbits
 1089              		.align	1
 1090              		.global	hci_le_set_scan_parameters
 1091              		.syntax unified
 1092              		.thumb
 1093              		.thumb_func
 1095              	hci_le_set_scan_parameters:
 1096              		@ args = 4, pretend = 0, frame = 288
 1097              		@ frame_needed = 0, uses_anonymous_args = 0
 1098 0000 70B5     		push	{r4, r5, r6, lr}
 1099 0002 C8B0     		sub	sp, sp, #288
 1100 0004 0DF10706 		add	r6, sp, #7
 1101 0008 0025     		movs	r5, #0
 1102 000a 8DF80750 		strb	r5, [sp, #7]
 1103 000e 02AC     		add	r4, sp, #8
 1104 0010 8DF80800 		strb	r0, [sp, #8]
 1105 0014 ADF80910 		strh	r1, [sp, #9]	@ unaligned
 1106 0018 ADF80B20 		strh	r2, [sp, #11]	@ unaligned
 1107 001c 8DF80D30 		strb	r3, [sp, #13]
 1108 0020 9DF83031 		ldrb	r3, [sp, #304]	@ zero_extendqisi2
 1109 0024 8DF80E30 		strb	r3, [sp, #14]
 1110 0028 1822     		movs	r2, #24
 1111 002a 2946     		mov	r1, r5
 1112 002c 42A8     		add	r0, sp, #264
 1113 002e FFF7FEFF 		bl	Osal_MemSet
 1114 0032 0823     		movs	r3, #8
 1115 0034 ADF80831 		strh	r3, [sp, #264]	@ movhi
 1116 0038 0B23     		movs	r3, #11
 1117 003a ADF80A31 		strh	r3, [sp, #266]	@ movhi
 1118 003e 4494     		str	r4, [sp, #272]
 1119 0040 0723     		movs	r3, #7
 1120 0042 4593     		str	r3, [sp, #276]
 1121 0044 4696     		str	r6, [sp, #280]
 1122 0046 0123     		movs	r3, #1
 1123 0048 4793     		str	r3, [sp, #284]
 1124 004a 2946     		mov	r1, r5
 1125 004c 42A8     		add	r0, sp, #264
 1126 004e FFF7FEFF 		bl	hci_send_req
 1127 0052 A842     		cmp	r0, r5
 1128 0054 03DB     		blt	.L95
ARM GAS  C:\Users\Nathan\AppData\Local\Temp\ccilHIuM.s 			page 20


 1129 0056 9DF80700 		ldrb	r0, [sp, #7]	@ zero_extendqisi2
 1130              	.L94:
 1131 005a 48B0     		add	sp, sp, #288
 1132              		@ sp needed
 1133 005c 70BD     		pop	{r4, r5, r6, pc}
 1134              	.L95:
 1135 005e FF20     		movs	r0, #255
 1136 0060 FBE7     		b	.L94
 1138              		.section	.text.hci_le_set_scan_enable,"ax",%progbits
 1139              		.align	1
 1140              		.global	hci_le_set_scan_enable
 1141              		.syntax unified
 1142              		.thumb
 1143              		.thumb_func
 1145              	hci_le_set_scan_enable:
 1146              		@ args = 0, pretend = 0, frame = 288
 1147              		@ frame_needed = 0, uses_anonymous_args = 0
 1148 0000 70B5     		push	{r4, r5, r6, lr}
 1149 0002 C8B0     		sub	sp, sp, #288
 1150 0004 0DF10706 		add	r6, sp, #7
 1151 0008 0024     		movs	r4, #0
 1152 000a 8DF80740 		strb	r4, [sp, #7]
 1153 000e 02AD     		add	r5, sp, #8
 1154 0010 8DF80800 		strb	r0, [sp, #8]
 1155 0014 8DF80910 		strb	r1, [sp, #9]
 1156 0018 1822     		movs	r2, #24
 1157 001a 2146     		mov	r1, r4
 1158 001c 42A8     		add	r0, sp, #264
 1159 001e FFF7FEFF 		bl	Osal_MemSet
 1160 0022 0823     		movs	r3, #8
 1161 0024 ADF80831 		strh	r3, [sp, #264]	@ movhi
 1162 0028 0C23     		movs	r3, #12
 1163 002a ADF80A31 		strh	r3, [sp, #266]	@ movhi
 1164 002e 4495     		str	r5, [sp, #272]
 1165 0030 0223     		movs	r3, #2
 1166 0032 4593     		str	r3, [sp, #276]
 1167 0034 4696     		str	r6, [sp, #280]
 1168 0036 0123     		movs	r3, #1
 1169 0038 4793     		str	r3, [sp, #284]
 1170 003a 2146     		mov	r1, r4
 1171 003c 42A8     		add	r0, sp, #264
 1172 003e FFF7FEFF 		bl	hci_send_req
 1173 0042 A042     		cmp	r0, r4
 1174 0044 03DB     		blt	.L99
 1175 0046 9DF80700 		ldrb	r0, [sp, #7]	@ zero_extendqisi2
 1176              	.L98:
 1177 004a 48B0     		add	sp, sp, #288
 1178              		@ sp needed
 1179 004c 70BD     		pop	{r4, r5, r6, pc}
 1180              	.L99:
 1181 004e FF20     		movs	r0, #255
 1182 0050 FBE7     		b	.L98
 1184              		.section	.text.hci_le_create_connection,"ax",%progbits
 1185              		.align	1
 1186              		.global	hci_le_create_connection
 1187              		.syntax unified
 1188              		.thumb
ARM GAS  C:\Users\Nathan\AppData\Local\Temp\ccilHIuM.s 			page 21


 1189              		.thumb_func
 1191              	hci_le_create_connection:
 1192              		@ args = 32, pretend = 0, frame = 288
 1193              		@ frame_needed = 0, uses_anonymous_args = 0
 1194 0000 70B5     		push	{r4, r5, r6, lr}
 1195 0002 C8B0     		sub	sp, sp, #288
 1196 0004 0DF10706 		add	r6, sp, #7
 1197 0008 0025     		movs	r5, #0
 1198 000a 8DF80750 		strb	r5, [sp, #7]
 1199 000e 02AC     		add	r4, sp, #8
 1200 0010 ADF80800 		strh	r0, [sp, #8]	@ movhi
 1201 0014 ADF80A10 		strh	r1, [sp, #10]	@ movhi
 1202 0018 8DF80C20 		strb	r2, [sp, #12]
 1203 001c 8DF80D30 		strb	r3, [sp, #13]
 1204 0020 0622     		movs	r2, #6
 1205 0022 4C99     		ldr	r1, [sp, #304]
 1206 0024 0DF10E00 		add	r0, sp, #14
 1207 0028 FFF7FEFF 		bl	Osal_MemCpy
 1208 002c 9DF83431 		ldrb	r3, [sp, #308]	@ zero_extendqisi2
 1209 0030 8DF81430 		strb	r3, [sp, #20]
 1210 0034 BDF83831 		ldrh	r3, [sp, #312]
 1211 0038 ADF81530 		strh	r3, [sp, #21]	@ unaligned
 1212 003c BDF83C31 		ldrh	r3, [sp, #316]
 1213 0040 ADF81730 		strh	r3, [sp, #23]	@ unaligned
 1214 0044 BDF84031 		ldrh	r3, [sp, #320]
 1215 0048 ADF81930 		strh	r3, [sp, #25]	@ unaligned
 1216 004c BDF84431 		ldrh	r3, [sp, #324]
 1217 0050 ADF81B30 		strh	r3, [sp, #27]	@ unaligned
 1218 0054 BDF84831 		ldrh	r3, [sp, #328]
 1219 0058 ADF81D30 		strh	r3, [sp, #29]	@ unaligned
 1220 005c BDF84C31 		ldrh	r3, [sp, #332]
 1221 0060 ADF81F30 		strh	r3, [sp, #31]	@ unaligned
 1222 0064 1822     		movs	r2, #24
 1223 0066 2946     		mov	r1, r5
 1224 0068 42A8     		add	r0, sp, #264
 1225 006a FFF7FEFF 		bl	Osal_MemSet
 1226 006e 0823     		movs	r3, #8
 1227 0070 ADF80831 		strh	r3, [sp, #264]	@ movhi
 1228 0074 0D23     		movs	r3, #13
 1229 0076 ADF80A31 		strh	r3, [sp, #266]	@ movhi
 1230 007a 0F23     		movs	r3, #15
 1231 007c 4393     		str	r3, [sp, #268]
 1232 007e 4494     		str	r4, [sp, #272]
 1233 0080 1923     		movs	r3, #25
 1234 0082 4593     		str	r3, [sp, #276]
 1235 0084 4696     		str	r6, [sp, #280]
 1236 0086 0123     		movs	r3, #1
 1237 0088 4793     		str	r3, [sp, #284]
 1238 008a 2946     		mov	r1, r5
 1239 008c 42A8     		add	r0, sp, #264
 1240 008e FFF7FEFF 		bl	hci_send_req
 1241 0092 A842     		cmp	r0, r5
 1242 0094 03DB     		blt	.L103
 1243 0096 9DF80700 		ldrb	r0, [sp, #7]	@ zero_extendqisi2
 1244              	.L102:
 1245 009a 48B0     		add	sp, sp, #288
 1246              		@ sp needed
ARM GAS  C:\Users\Nathan\AppData\Local\Temp\ccilHIuM.s 			page 22


 1247 009c 70BD     		pop	{r4, r5, r6, pc}
 1248              	.L103:
 1249 009e FF20     		movs	r0, #255
 1250 00a0 FBE7     		b	.L102
 1252              		.section	.text.hci_le_create_connection_cancel,"ax",%progbits
 1253              		.align	1
 1254              		.global	hci_le_create_connection_cancel
 1255              		.syntax unified
 1256              		.thumb
 1257              		.thumb_func
 1259              	hci_le_create_connection_cancel:
 1260              		@ args = 0, pretend = 0, frame = 32
 1261              		@ frame_needed = 0, uses_anonymous_args = 0
 1262 0000 10B5     		push	{r4, lr}
 1263 0002 88B0     		sub	sp, sp, #32
 1264 0004 0024     		movs	r4, #0
 1265 0006 8DF80740 		strb	r4, [sp, #7]
 1266 000a 1822     		movs	r2, #24
 1267 000c 2146     		mov	r1, r4
 1268 000e 02A8     		add	r0, sp, #8
 1269 0010 FFF7FEFF 		bl	Osal_MemSet
 1270 0014 0823     		movs	r3, #8
 1271 0016 ADF80830 		strh	r3, [sp, #8]	@ movhi
 1272 001a 0E23     		movs	r3, #14
 1273 001c ADF80A30 		strh	r3, [sp, #10]	@ movhi
 1274 0020 0DF10703 		add	r3, sp, #7
 1275 0024 0693     		str	r3, [sp, #24]
 1276 0026 0123     		movs	r3, #1
 1277 0028 0793     		str	r3, [sp, #28]
 1278 002a 2146     		mov	r1, r4
 1279 002c 02A8     		add	r0, sp, #8
 1280 002e FFF7FEFF 		bl	hci_send_req
 1281 0032 A042     		cmp	r0, r4
 1282 0034 03DB     		blt	.L107
 1283 0036 9DF80700 		ldrb	r0, [sp, #7]	@ zero_extendqisi2
 1284              	.L106:
 1285 003a 08B0     		add	sp, sp, #32
 1286              		@ sp needed
 1287 003c 10BD     		pop	{r4, pc}
 1288              	.L107:
 1289 003e FF20     		movs	r0, #255
 1290 0040 FBE7     		b	.L106
 1292              		.section	.text.hci_le_read_filter_accept_list_size,"ax",%progbits
 1293              		.align	1
 1294              		.global	hci_le_read_filter_accept_list_size
 1295              		.syntax unified
 1296              		.thumb
 1297              		.thumb_func
 1299              	hci_le_read_filter_accept_list_size:
 1300              		@ args = 0, pretend = 0, frame = 32
 1301              		@ frame_needed = 0, uses_anonymous_args = 0
 1302 0000 30B5     		push	{r4, r5, lr}
 1303 0002 89B0     		sub	sp, sp, #36
 1304 0004 0446     		mov	r4, r0
 1305 0006 01AD     		add	r5, sp, #4
 1306 0008 0222     		movs	r2, #2
 1307 000a 0021     		movs	r1, #0
ARM GAS  C:\Users\Nathan\AppData\Local\Temp\ccilHIuM.s 			page 23


 1308 000c 2846     		mov	r0, r5
 1309 000e FFF7FEFF 		bl	Osal_MemSet
 1310 0012 1822     		movs	r2, #24
 1311 0014 0021     		movs	r1, #0
 1312 0016 02A8     		add	r0, sp, #8
 1313 0018 FFF7FEFF 		bl	Osal_MemSet
 1314 001c 0823     		movs	r3, #8
 1315 001e ADF80830 		strh	r3, [sp, #8]	@ movhi
 1316 0022 0F23     		movs	r3, #15
 1317 0024 ADF80A30 		strh	r3, [sp, #10]	@ movhi
 1318 0028 0695     		str	r5, [sp, #24]
 1319 002a 0223     		movs	r3, #2
 1320 002c 0793     		str	r3, [sp, #28]
 1321 002e 0021     		movs	r1, #0
 1322 0030 02A8     		add	r0, sp, #8
 1323 0032 FFF7FEFF 		bl	hci_send_req
 1324 0036 0028     		cmp	r0, #0
 1325 0038 07DB     		blt	.L111
 1326 003a 9DF80400 		ldrb	r0, [sp, #4]	@ zero_extendqisi2
 1327 003e 10B9     		cbnz	r0, .L110
 1328 0040 9DF80530 		ldrb	r3, [sp, #5]	@ zero_extendqisi2
 1329 0044 2370     		strb	r3, [r4]
 1330              	.L110:
 1331 0046 09B0     		add	sp, sp, #36
 1332              		@ sp needed
 1333 0048 30BD     		pop	{r4, r5, pc}
 1334              	.L111:
 1335 004a FF20     		movs	r0, #255
 1336 004c FBE7     		b	.L110
 1338              		.section	.text.hci_le_clear_filter_accept_list,"ax",%progbits
 1339              		.align	1
 1340              		.global	hci_le_clear_filter_accept_list
 1341              		.syntax unified
 1342              		.thumb
 1343              		.thumb_func
 1345              	hci_le_clear_filter_accept_list:
 1346              		@ args = 0, pretend = 0, frame = 32
 1347              		@ frame_needed = 0, uses_anonymous_args = 0
 1348 0000 10B5     		push	{r4, lr}
 1349 0002 88B0     		sub	sp, sp, #32
 1350 0004 0024     		movs	r4, #0
 1351 0006 8DF80740 		strb	r4, [sp, #7]
 1352 000a 1822     		movs	r2, #24
 1353 000c 2146     		mov	r1, r4
 1354 000e 02A8     		add	r0, sp, #8
 1355 0010 FFF7FEFF 		bl	Osal_MemSet
 1356 0014 0823     		movs	r3, #8
 1357 0016 ADF80830 		strh	r3, [sp, #8]	@ movhi
 1358 001a 1023     		movs	r3, #16
 1359 001c ADF80A30 		strh	r3, [sp, #10]	@ movhi
 1360 0020 0DF10703 		add	r3, sp, #7
 1361 0024 0693     		str	r3, [sp, #24]
 1362 0026 0123     		movs	r3, #1
 1363 0028 0793     		str	r3, [sp, #28]
 1364 002a 2146     		mov	r1, r4
 1365 002c 02A8     		add	r0, sp, #8
 1366 002e FFF7FEFF 		bl	hci_send_req
ARM GAS  C:\Users\Nathan\AppData\Local\Temp\ccilHIuM.s 			page 24


 1367 0032 A042     		cmp	r0, r4
 1368 0034 03DB     		blt	.L115
 1369 0036 9DF80700 		ldrb	r0, [sp, #7]	@ zero_extendqisi2
 1370              	.L114:
 1371 003a 08B0     		add	sp, sp, #32
 1372              		@ sp needed
 1373 003c 10BD     		pop	{r4, pc}
 1374              	.L115:
 1375 003e FF20     		movs	r0, #255
 1376 0040 FBE7     		b	.L114
 1378              		.section	.text.hci_le_add_device_to_filter_accept_list,"ax",%progbits
 1379              		.align	1
 1380              		.global	hci_le_add_device_to_filter_accept_list
 1381              		.syntax unified
 1382              		.thumb
 1383              		.thumb_func
 1385              	hci_le_add_device_to_filter_accept_list:
 1386              		@ args = 0, pretend = 0, frame = 288
 1387              		@ frame_needed = 0, uses_anonymous_args = 0
 1388 0000 70B5     		push	{r4, r5, r6, lr}
 1389 0002 C8B0     		sub	sp, sp, #288
 1390 0004 0DF10705 		add	r5, sp, #7
 1391 0008 0024     		movs	r4, #0
 1392 000a 8DF80740 		strb	r4, [sp, #7]
 1393 000e 02AE     		add	r6, sp, #8
 1394 0010 8DF80800 		strb	r0, [sp, #8]
 1395 0014 0622     		movs	r2, #6
 1396 0016 0DF10900 		add	r0, sp, #9
 1397 001a FFF7FEFF 		bl	Osal_MemCpy
 1398 001e 1822     		movs	r2, #24
 1399 0020 2146     		mov	r1, r4
 1400 0022 42A8     		add	r0, sp, #264
 1401 0024 FFF7FEFF 		bl	Osal_MemSet
 1402 0028 0823     		movs	r3, #8
 1403 002a ADF80831 		strh	r3, [sp, #264]	@ movhi
 1404 002e 1123     		movs	r3, #17
 1405 0030 ADF80A31 		strh	r3, [sp, #266]	@ movhi
 1406 0034 4496     		str	r6, [sp, #272]
 1407 0036 0723     		movs	r3, #7
 1408 0038 4593     		str	r3, [sp, #276]
 1409 003a 4695     		str	r5, [sp, #280]
 1410 003c 0123     		movs	r3, #1
 1411 003e 4793     		str	r3, [sp, #284]
 1412 0040 2146     		mov	r1, r4
 1413 0042 42A8     		add	r0, sp, #264
 1414 0044 FFF7FEFF 		bl	hci_send_req
 1415 0048 A042     		cmp	r0, r4
 1416 004a 03DB     		blt	.L119
 1417 004c 9DF80700 		ldrb	r0, [sp, #7]	@ zero_extendqisi2
 1418              	.L118:
 1419 0050 48B0     		add	sp, sp, #288
 1420              		@ sp needed
 1421 0052 70BD     		pop	{r4, r5, r6, pc}
 1422              	.L119:
 1423 0054 FF20     		movs	r0, #255
 1424 0056 FBE7     		b	.L118
 1426              		.section	.text.hci_le_remove_device_from_filter_accept_list,"ax",%progbits
ARM GAS  C:\Users\Nathan\AppData\Local\Temp\ccilHIuM.s 			page 25


 1427              		.align	1
 1428              		.global	hci_le_remove_device_from_filter_accept_list
 1429              		.syntax unified
 1430              		.thumb
 1431              		.thumb_func
 1433              	hci_le_remove_device_from_filter_accept_list:
 1434              		@ args = 0, pretend = 0, frame = 288
 1435              		@ frame_needed = 0, uses_anonymous_args = 0
 1436 0000 70B5     		push	{r4, r5, r6, lr}
 1437 0002 C8B0     		sub	sp, sp, #288
 1438 0004 0DF10705 		add	r5, sp, #7
 1439 0008 0024     		movs	r4, #0
 1440 000a 8DF80740 		strb	r4, [sp, #7]
 1441 000e 02AE     		add	r6, sp, #8
 1442 0010 8DF80800 		strb	r0, [sp, #8]
 1443 0014 0622     		movs	r2, #6
 1444 0016 0DF10900 		add	r0, sp, #9
 1445 001a FFF7FEFF 		bl	Osal_MemCpy
 1446 001e 1822     		movs	r2, #24
 1447 0020 2146     		mov	r1, r4
 1448 0022 42A8     		add	r0, sp, #264
 1449 0024 FFF7FEFF 		bl	Osal_MemSet
 1450 0028 0823     		movs	r3, #8
 1451 002a ADF80831 		strh	r3, [sp, #264]	@ movhi
 1452 002e 1223     		movs	r3, #18
 1453 0030 ADF80A31 		strh	r3, [sp, #266]	@ movhi
 1454 0034 4496     		str	r6, [sp, #272]
 1455 0036 0723     		movs	r3, #7
 1456 0038 4593     		str	r3, [sp, #276]
 1457 003a 4695     		str	r5, [sp, #280]
 1458 003c 0123     		movs	r3, #1
 1459 003e 4793     		str	r3, [sp, #284]
 1460 0040 2146     		mov	r1, r4
 1461 0042 42A8     		add	r0, sp, #264
 1462 0044 FFF7FEFF 		bl	hci_send_req
 1463 0048 A042     		cmp	r0, r4
 1464 004a 03DB     		blt	.L123
 1465 004c 9DF80700 		ldrb	r0, [sp, #7]	@ zero_extendqisi2
 1466              	.L122:
 1467 0050 48B0     		add	sp, sp, #288
 1468              		@ sp needed
 1469 0052 70BD     		pop	{r4, r5, r6, pc}
 1470              	.L123:
 1471 0054 FF20     		movs	r0, #255
 1472 0056 FBE7     		b	.L122
 1474              		.section	.text.hci_le_connection_update,"ax",%progbits
 1475              		.align	1
 1476              		.global	hci_le_connection_update
 1477              		.syntax unified
 1478              		.thumb
 1479              		.thumb_func
 1481              	hci_le_connection_update:
 1482              		@ args = 12, pretend = 0, frame = 288
 1483              		@ frame_needed = 0, uses_anonymous_args = 0
 1484 0000 70B5     		push	{r4, r5, r6, lr}
 1485 0002 C8B0     		sub	sp, sp, #288
 1486 0004 0DF10706 		add	r6, sp, #7
ARM GAS  C:\Users\Nathan\AppData\Local\Temp\ccilHIuM.s 			page 26


 1487 0008 0025     		movs	r5, #0
 1488 000a 8DF80750 		strb	r5, [sp, #7]
 1489 000e 02AC     		add	r4, sp, #8
 1490 0010 ADF80800 		strh	r0, [sp, #8]	@ movhi
 1491 0014 ADF80A10 		strh	r1, [sp, #10]	@ movhi
 1492 0018 ADF80C20 		strh	r2, [sp, #12]	@ movhi
 1493 001c ADF80E30 		strh	r3, [sp, #14]	@ movhi
 1494 0020 BDF83031 		ldrh	r3, [sp, #304]
 1495 0024 ADF81030 		strh	r3, [sp, #16]	@ movhi
 1496 0028 BDF83431 		ldrh	r3, [sp, #308]
 1497 002c ADF81230 		strh	r3, [sp, #18]	@ movhi
 1498 0030 BDF83831 		ldrh	r3, [sp, #312]
 1499 0034 ADF81430 		strh	r3, [sp, #20]	@ movhi
 1500 0038 1822     		movs	r2, #24
 1501 003a 2946     		mov	r1, r5
 1502 003c 42A8     		add	r0, sp, #264
 1503 003e FFF7FEFF 		bl	Osal_MemSet
 1504 0042 0823     		movs	r3, #8
 1505 0044 ADF80831 		strh	r3, [sp, #264]	@ movhi
 1506 0048 1323     		movs	r3, #19
 1507 004a ADF80A31 		strh	r3, [sp, #266]	@ movhi
 1508 004e 0F23     		movs	r3, #15
 1509 0050 4393     		str	r3, [sp, #268]
 1510 0052 4494     		str	r4, [sp, #272]
 1511 0054 0E23     		movs	r3, #14
 1512 0056 4593     		str	r3, [sp, #276]
 1513 0058 4696     		str	r6, [sp, #280]
 1514 005a 0123     		movs	r3, #1
 1515 005c 4793     		str	r3, [sp, #284]
 1516 005e 2946     		mov	r1, r5
 1517 0060 42A8     		add	r0, sp, #264
 1518 0062 FFF7FEFF 		bl	hci_send_req
 1519 0066 A842     		cmp	r0, r5
 1520 0068 03DB     		blt	.L127
 1521 006a 9DF80700 		ldrb	r0, [sp, #7]	@ zero_extendqisi2
 1522              	.L126:
 1523 006e 48B0     		add	sp, sp, #288
 1524              		@ sp needed
 1525 0070 70BD     		pop	{r4, r5, r6, pc}
 1526              	.L127:
 1527 0072 FF20     		movs	r0, #255
 1528 0074 FBE7     		b	.L126
 1530              		.section	.text.hci_le_set_host_channel_classification,"ax",%progbits
 1531              		.align	1
 1532              		.global	hci_le_set_host_channel_classification
 1533              		.syntax unified
 1534              		.thumb
 1535              		.thumb_func
 1537              	hci_le_set_host_channel_classification:
 1538              		@ args = 0, pretend = 0, frame = 288
 1539              		@ frame_needed = 0, uses_anonymous_args = 0
 1540 0000 70B5     		push	{r4, r5, r6, lr}
 1541 0002 C8B0     		sub	sp, sp, #288
 1542 0004 0146     		mov	r1, r0
 1543 0006 0DF10705 		add	r5, sp, #7
 1544 000a 0024     		movs	r4, #0
 1545 000c 8DF80740 		strb	r4, [sp, #7]
ARM GAS  C:\Users\Nathan\AppData\Local\Temp\ccilHIuM.s 			page 27


 1546 0010 02AE     		add	r6, sp, #8
 1547 0012 0522     		movs	r2, #5
 1548 0014 3046     		mov	r0, r6
 1549 0016 FFF7FEFF 		bl	Osal_MemCpy
 1550 001a 1822     		movs	r2, #24
 1551 001c 2146     		mov	r1, r4
 1552 001e 42A8     		add	r0, sp, #264
 1553 0020 FFF7FEFF 		bl	Osal_MemSet
 1554 0024 0823     		movs	r3, #8
 1555 0026 ADF80831 		strh	r3, [sp, #264]	@ movhi
 1556 002a 1423     		movs	r3, #20
 1557 002c ADF80A31 		strh	r3, [sp, #266]	@ movhi
 1558 0030 4496     		str	r6, [sp, #272]
 1559 0032 0523     		movs	r3, #5
 1560 0034 4593     		str	r3, [sp, #276]
 1561 0036 4695     		str	r5, [sp, #280]
 1562 0038 0123     		movs	r3, #1
 1563 003a 4793     		str	r3, [sp, #284]
 1564 003c 2146     		mov	r1, r4
 1565 003e 42A8     		add	r0, sp, #264
 1566 0040 FFF7FEFF 		bl	hci_send_req
 1567 0044 A042     		cmp	r0, r4
 1568 0046 03DB     		blt	.L131
 1569 0048 9DF80700 		ldrb	r0, [sp, #7]	@ zero_extendqisi2
 1570              	.L130:
 1571 004c 48B0     		add	sp, sp, #288
 1572              		@ sp needed
 1573 004e 70BD     		pop	{r4, r5, r6, pc}
 1574              	.L131:
 1575 0050 FF20     		movs	r0, #255
 1576 0052 FBE7     		b	.L130
 1578              		.section	.text.hci_le_read_channel_map,"ax",%progbits
 1579              		.align	1
 1580              		.global	hci_le_read_channel_map
 1581              		.syntax unified
 1582              		.thumb
 1583              		.thumb_func
 1585              	hci_le_read_channel_map:
 1586              		@ args = 0, pretend = 0, frame = 288
 1587              		@ frame_needed = 0, uses_anonymous_args = 0
 1588 0000 70B5     		push	{r4, r5, r6, lr}
 1589 0002 C8B0     		sub	sp, sp, #288
 1590 0004 0446     		mov	r4, r0
 1591 0006 0D46     		mov	r5, r1
 1592 0008 0822     		movs	r2, #8
 1593 000a 0021     		movs	r1, #0
 1594 000c 6846     		mov	r0, sp
 1595 000e FFF7FEFF 		bl	Osal_MemSet
 1596 0012 02AE     		add	r6, sp, #8
 1597 0014 ADF80840 		strh	r4, [sp, #8]	@ movhi
 1598 0018 1822     		movs	r2, #24
 1599 001a 0021     		movs	r1, #0
 1600 001c 42A8     		add	r0, sp, #264
 1601 001e FFF7FEFF 		bl	Osal_MemSet
 1602 0022 0823     		movs	r3, #8
 1603 0024 ADF80831 		strh	r3, [sp, #264]	@ movhi
 1604 0028 1522     		movs	r2, #21
ARM GAS  C:\Users\Nathan\AppData\Local\Temp\ccilHIuM.s 			page 28


 1605 002a ADF80A21 		strh	r2, [sp, #266]	@ movhi
 1606 002e 4496     		str	r6, [sp, #272]
 1607 0030 0222     		movs	r2, #2
 1608 0032 4592     		str	r2, [sp, #276]
 1609 0034 CDF818D1 		str	sp, [sp, #280]
 1610 0038 4793     		str	r3, [sp, #284]
 1611 003a 0021     		movs	r1, #0
 1612 003c 42A8     		add	r0, sp, #264
 1613 003e FFF7FEFF 		bl	hci_send_req
 1614 0042 0028     		cmp	r0, #0
 1615 0044 0CDB     		blt	.L135
 1616 0046 9DF80040 		ldrb	r4, [sp]	@ zero_extendqisi2
 1617 004a 14B1     		cbz	r4, .L137
 1618              	.L134:
 1619 004c 2046     		mov	r0, r4
 1620 004e 48B0     		add	sp, sp, #288
 1621              		@ sp needed
 1622 0050 70BD     		pop	{r4, r5, r6, pc}
 1623              	.L137:
 1624 0052 0522     		movs	r2, #5
 1625 0054 0DF10301 		add	r1, sp, #3
 1626 0058 2846     		mov	r0, r5
 1627 005a FFF7FEFF 		bl	Osal_MemCpy
 1628 005e F5E7     		b	.L134
 1629              	.L135:
 1630 0060 FF24     		movs	r4, #255
 1631 0062 F3E7     		b	.L134
 1633              		.section	.text.hci_le_read_remote_features,"ax",%progbits
 1634              		.align	1
 1635              		.global	hci_le_read_remote_features
 1636              		.syntax unified
 1637              		.thumb
 1638              		.thumb_func
 1640              	hci_le_read_remote_features:
 1641              		@ args = 0, pretend = 0, frame = 288
 1642              		@ frame_needed = 0, uses_anonymous_args = 0
 1643 0000 70B5     		push	{r4, r5, r6, lr}
 1644 0002 C8B0     		sub	sp, sp, #288
 1645 0004 0DF10705 		add	r5, sp, #7
 1646 0008 0024     		movs	r4, #0
 1647 000a 8DF80740 		strb	r4, [sp, #7]
 1648 000e 02AE     		add	r6, sp, #8
 1649 0010 ADF80800 		strh	r0, [sp, #8]	@ movhi
 1650 0014 1822     		movs	r2, #24
 1651 0016 2146     		mov	r1, r4
 1652 0018 42A8     		add	r0, sp, #264
 1653 001a FFF7FEFF 		bl	Osal_MemSet
 1654 001e 0823     		movs	r3, #8
 1655 0020 ADF80831 		strh	r3, [sp, #264]	@ movhi
 1656 0024 1623     		movs	r3, #22
 1657 0026 ADF80A31 		strh	r3, [sp, #266]	@ movhi
 1658 002a 0F23     		movs	r3, #15
 1659 002c 4393     		str	r3, [sp, #268]
 1660 002e 4496     		str	r6, [sp, #272]
 1661 0030 0223     		movs	r3, #2
 1662 0032 4593     		str	r3, [sp, #276]
 1663 0034 4695     		str	r5, [sp, #280]
ARM GAS  C:\Users\Nathan\AppData\Local\Temp\ccilHIuM.s 			page 29


 1664 0036 0123     		movs	r3, #1
 1665 0038 4793     		str	r3, [sp, #284]
 1666 003a 2146     		mov	r1, r4
 1667 003c 42A8     		add	r0, sp, #264
 1668 003e FFF7FEFF 		bl	hci_send_req
 1669 0042 A042     		cmp	r0, r4
 1670 0044 03DB     		blt	.L140
 1671 0046 9DF80700 		ldrb	r0, [sp, #7]	@ zero_extendqisi2
 1672              	.L139:
 1673 004a 48B0     		add	sp, sp, #288
 1674              		@ sp needed
 1675 004c 70BD     		pop	{r4, r5, r6, pc}
 1676              	.L140:
 1677 004e FF20     		movs	r0, #255
 1678 0050 FBE7     		b	.L139
 1680              		.section	.text.hci_le_encrypt,"ax",%progbits
 1681              		.align	1
 1682              		.global	hci_le_encrypt
 1683              		.syntax unified
 1684              		.thumb
 1685              		.thumb_func
 1687              	hci_le_encrypt:
 1688              		@ args = 0, pretend = 0, frame = 304
 1689              		@ frame_needed = 0, uses_anonymous_args = 0
 1690 0000 2DE9F041 		push	{r4, r5, r6, r7, r8, lr}
 1691 0004 CCB0     		sub	sp, sp, #304
 1692 0006 0546     		mov	r5, r0
 1693 0008 0C46     		mov	r4, r1
 1694 000a 1646     		mov	r6, r2
 1695 000c 01AF     		add	r7, sp, #4
 1696 000e 1122     		movs	r2, #17
 1697 0010 0021     		movs	r1, #0
 1698 0012 3846     		mov	r0, r7
 1699 0014 FFF7FEFF 		bl	Osal_MemSet
 1700 0018 0DF11808 		add	r8, sp, #24
 1701 001c 1022     		movs	r2, #16
 1702 001e 2946     		mov	r1, r5
 1703 0020 4046     		mov	r0, r8
 1704 0022 FFF7FEFF 		bl	Osal_MemCpy
 1705 0026 1022     		movs	r2, #16
 1706 0028 2146     		mov	r1, r4
 1707 002a 0AA8     		add	r0, sp, #40
 1708 002c FFF7FEFF 		bl	Osal_MemCpy
 1709 0030 1822     		movs	r2, #24
 1710 0032 0021     		movs	r1, #0
 1711 0034 46A8     		add	r0, sp, #280
 1712 0036 FFF7FEFF 		bl	Osal_MemSet
 1713 003a 0823     		movs	r3, #8
 1714 003c ADF81831 		strh	r3, [sp, #280]	@ movhi
 1715 0040 1723     		movs	r3, #23
 1716 0042 ADF81A31 		strh	r3, [sp, #282]	@ movhi
 1717 0046 CDF82081 		str	r8, [sp, #288]
 1718 004a 2023     		movs	r3, #32
 1719 004c 4993     		str	r3, [sp, #292]
 1720 004e 4A97     		str	r7, [sp, #296]
 1721 0050 1123     		movs	r3, #17
 1722 0052 4B93     		str	r3, [sp, #300]
ARM GAS  C:\Users\Nathan\AppData\Local\Temp\ccilHIuM.s 			page 30


 1723 0054 0021     		movs	r1, #0
 1724 0056 46A8     		add	r0, sp, #280
 1725 0058 FFF7FEFF 		bl	hci_send_req
 1726 005c 0028     		cmp	r0, #0
 1727 005e 0DDB     		blt	.L144
 1728 0060 9DF80440 		ldrb	r4, [sp, #4]	@ zero_extendqisi2
 1729 0064 1CB1     		cbz	r4, .L146
 1730              	.L143:
 1731 0066 2046     		mov	r0, r4
 1732 0068 4CB0     		add	sp, sp, #304
 1733              		@ sp needed
 1734 006a BDE8F081 		pop	{r4, r5, r6, r7, r8, pc}
 1735              	.L146:
 1736 006e 1022     		movs	r2, #16
 1737 0070 0DF10501 		add	r1, sp, #5
 1738 0074 3046     		mov	r0, r6
 1739 0076 FFF7FEFF 		bl	Osal_MemCpy
 1740 007a F4E7     		b	.L143
 1741              	.L144:
 1742 007c FF24     		movs	r4, #255
 1743 007e F2E7     		b	.L143
 1745              		.section	.text.hci_le_rand,"ax",%progbits
 1746              		.align	1
 1747              		.global	hci_le_rand
 1748              		.syntax unified
 1749              		.thumb
 1750              		.thumb_func
 1752              	hci_le_rand:
 1753              		@ args = 0, pretend = 0, frame = 40
 1754              		@ frame_needed = 0, uses_anonymous_args = 0
 1755 0000 30B5     		push	{r4, r5, lr}
 1756 0002 8BB0     		sub	sp, sp, #44
 1757 0004 0446     		mov	r4, r0
 1758 0006 01AD     		add	r5, sp, #4
 1759 0008 0922     		movs	r2, #9
 1760 000a 0021     		movs	r1, #0
 1761 000c 2846     		mov	r0, r5
 1762 000e FFF7FEFF 		bl	Osal_MemSet
 1763 0012 1822     		movs	r2, #24
 1764 0014 0021     		movs	r1, #0
 1765 0016 04A8     		add	r0, sp, #16
 1766 0018 FFF7FEFF 		bl	Osal_MemSet
 1767 001c 0823     		movs	r3, #8
 1768 001e ADF81030 		strh	r3, [sp, #16]	@ movhi
 1769 0022 1823     		movs	r3, #24
 1770 0024 ADF81230 		strh	r3, [sp, #18]	@ movhi
 1771 0028 0895     		str	r5, [sp, #32]
 1772 002a 0923     		movs	r3, #9
 1773 002c 0993     		str	r3, [sp, #36]
 1774 002e 0021     		movs	r1, #0
 1775 0030 04A8     		add	r0, sp, #16
 1776 0032 FFF7FEFF 		bl	hci_send_req
 1777 0036 0028     		cmp	r0, #0
 1778 0038 0CDB     		blt	.L149
 1779 003a 9DF80450 		ldrb	r5, [sp, #4]	@ zero_extendqisi2
 1780 003e 15B1     		cbz	r5, .L151
 1781              	.L148:
ARM GAS  C:\Users\Nathan\AppData\Local\Temp\ccilHIuM.s 			page 31


 1782 0040 2846     		mov	r0, r5
 1783 0042 0BB0     		add	sp, sp, #44
 1784              		@ sp needed
 1785 0044 30BD     		pop	{r4, r5, pc}
 1786              	.L151:
 1787 0046 0822     		movs	r2, #8
 1788 0048 0DF10501 		add	r1, sp, #5
 1789 004c 2046     		mov	r0, r4
 1790 004e FFF7FEFF 		bl	Osal_MemCpy
 1791 0052 F5E7     		b	.L148
 1792              	.L149:
 1793 0054 FF25     		movs	r5, #255
 1794 0056 F3E7     		b	.L148
 1796              		.section	.text.hci_le_enable_encryption,"ax",%progbits
 1797              		.align	1
 1798              		.global	hci_le_enable_encryption
 1799              		.syntax unified
 1800              		.thumb
 1801              		.thumb_func
 1803              	hci_le_enable_encryption:
 1804              		@ args = 0, pretend = 0, frame = 288
 1805              		@ frame_needed = 0, uses_anonymous_args = 0
 1806 0000 2DE9F041 		push	{r4, r5, r6, r7, r8, lr}
 1807 0004 C8B0     		sub	sp, sp, #288
 1808 0006 1746     		mov	r7, r2
 1809 0008 1E46     		mov	r6, r3
 1810 000a 0DF10708 		add	r8, sp, #7
 1811 000e 0024     		movs	r4, #0
 1812 0010 8DF80740 		strb	r4, [sp, #7]
 1813 0014 02AD     		add	r5, sp, #8
 1814 0016 ADF80800 		strh	r0, [sp, #8]	@ movhi
 1815 001a 0822     		movs	r2, #8
 1816 001c 0DF10A00 		add	r0, sp, #10
 1817 0020 FFF7FEFF 		bl	Osal_MemCpy
 1818 0024 ADF81270 		strh	r7, [sp, #18]	@ movhi
 1819 0028 1022     		movs	r2, #16
 1820 002a 3146     		mov	r1, r6
 1821 002c 05A8     		add	r0, sp, #20
 1822 002e FFF7FEFF 		bl	Osal_MemCpy
 1823 0032 1822     		movs	r2, #24
 1824 0034 2146     		mov	r1, r4
 1825 0036 42A8     		add	r0, sp, #264
 1826 0038 FFF7FEFF 		bl	Osal_MemSet
 1827 003c 0823     		movs	r3, #8
 1828 003e ADF80831 		strh	r3, [sp, #264]	@ movhi
 1829 0042 1923     		movs	r3, #25
 1830 0044 ADF80A31 		strh	r3, [sp, #266]	@ movhi
 1831 0048 0F23     		movs	r3, #15
 1832 004a 4393     		str	r3, [sp, #268]
 1833 004c 4495     		str	r5, [sp, #272]
 1834 004e 1C23     		movs	r3, #28
 1835 0050 4593     		str	r3, [sp, #276]
 1836 0052 CDF81881 		str	r8, [sp, #280]
 1837 0056 0123     		movs	r3, #1
 1838 0058 4793     		str	r3, [sp, #284]
 1839 005a 2146     		mov	r1, r4
 1840 005c 42A8     		add	r0, sp, #264
ARM GAS  C:\Users\Nathan\AppData\Local\Temp\ccilHIuM.s 			page 32


 1841 005e FFF7FEFF 		bl	hci_send_req
 1842 0062 A042     		cmp	r0, r4
 1843 0064 04DB     		blt	.L154
 1844 0066 9DF80700 		ldrb	r0, [sp, #7]	@ zero_extendqisi2
 1845              	.L153:
 1846 006a 48B0     		add	sp, sp, #288
 1847              		@ sp needed
 1848 006c BDE8F081 		pop	{r4, r5, r6, r7, r8, pc}
 1849              	.L154:
 1850 0070 FF20     		movs	r0, #255
 1851 0072 FAE7     		b	.L153
 1853              		.section	.text.hci_le_long_term_key_request_reply,"ax",%progbits
 1854              		.align	1
 1855              		.global	hci_le_long_term_key_request_reply
 1856              		.syntax unified
 1857              		.thumb
 1858              		.thumb_func
 1860              	hci_le_long_term_key_request_reply:
 1861              		@ args = 0, pretend = 0, frame = 288
 1862              		@ frame_needed = 0, uses_anonymous_args = 0
 1863 0000 F0B5     		push	{r4, r5, r6, r7, lr}
 1864 0002 C9B0     		sub	sp, sp, #292
 1865 0004 0546     		mov	r5, r0
 1866 0006 0C46     		mov	r4, r1
 1867 0008 01AE     		add	r6, sp, #4
 1868 000a 0322     		movs	r2, #3
 1869 000c 0021     		movs	r1, #0
 1870 000e 3046     		mov	r0, r6
 1871 0010 FFF7FEFF 		bl	Osal_MemSet
 1872 0014 02AF     		add	r7, sp, #8
 1873 0016 ADF80850 		strh	r5, [sp, #8]	@ movhi
 1874 001a 1022     		movs	r2, #16
 1875 001c 2146     		mov	r1, r4
 1876 001e 0DF10A00 		add	r0, sp, #10
 1877 0022 FFF7FEFF 		bl	Osal_MemCpy
 1878 0026 1822     		movs	r2, #24
 1879 0028 0021     		movs	r1, #0
 1880 002a 42A8     		add	r0, sp, #264
 1881 002c FFF7FEFF 		bl	Osal_MemSet
 1882 0030 0823     		movs	r3, #8
 1883 0032 ADF80831 		strh	r3, [sp, #264]	@ movhi
 1884 0036 1A23     		movs	r3, #26
 1885 0038 ADF80A31 		strh	r3, [sp, #266]	@ movhi
 1886 003c 4497     		str	r7, [sp, #272]
 1887 003e 1223     		movs	r3, #18
 1888 0040 4593     		str	r3, [sp, #276]
 1889 0042 4696     		str	r6, [sp, #280]
 1890 0044 0323     		movs	r3, #3
 1891 0046 4793     		str	r3, [sp, #284]
 1892 0048 0021     		movs	r1, #0
 1893 004a 42A8     		add	r0, sp, #264
 1894 004c FFF7FEFF 		bl	hci_send_req
 1895 0050 0028     		cmp	r0, #0
 1896 0052 03DB     		blt	.L158
 1897 0054 9DF80400 		ldrb	r0, [sp, #4]	@ zero_extendqisi2
 1898              	.L157:
 1899 0058 49B0     		add	sp, sp, #292
ARM GAS  C:\Users\Nathan\AppData\Local\Temp\ccilHIuM.s 			page 33


 1900              		@ sp needed
 1901 005a F0BD     		pop	{r4, r5, r6, r7, pc}
 1902              	.L158:
 1903 005c FF20     		movs	r0, #255
 1904 005e FBE7     		b	.L157
 1906              		.section	.text.hci_le_long_term_key_request_negative_reply,"ax",%progbits
 1907              		.align	1
 1908              		.global	hci_le_long_term_key_request_negative_reply
 1909              		.syntax unified
 1910              		.thumb
 1911              		.thumb_func
 1913              	hci_le_long_term_key_request_negative_reply:
 1914              		@ args = 0, pretend = 0, frame = 288
 1915              		@ frame_needed = 0, uses_anonymous_args = 0
 1916 0000 70B5     		push	{r4, r5, r6, lr}
 1917 0002 C8B0     		sub	sp, sp, #288
 1918 0004 0446     		mov	r4, r0
 1919 0006 01AD     		add	r5, sp, #4
 1920 0008 0322     		movs	r2, #3
 1921 000a 0021     		movs	r1, #0
 1922 000c 2846     		mov	r0, r5
 1923 000e FFF7FEFF 		bl	Osal_MemSet
 1924 0012 02AE     		add	r6, sp, #8
 1925 0014 ADF80840 		strh	r4, [sp, #8]	@ movhi
 1926 0018 1822     		movs	r2, #24
 1927 001a 0021     		movs	r1, #0
 1928 001c 42A8     		add	r0, sp, #264
 1929 001e FFF7FEFF 		bl	Osal_MemSet
 1930 0022 0823     		movs	r3, #8
 1931 0024 ADF80831 		strh	r3, [sp, #264]	@ movhi
 1932 0028 1B23     		movs	r3, #27
 1933 002a ADF80A31 		strh	r3, [sp, #266]	@ movhi
 1934 002e 4496     		str	r6, [sp, #272]
 1935 0030 0223     		movs	r3, #2
 1936 0032 4593     		str	r3, [sp, #276]
 1937 0034 4695     		str	r5, [sp, #280]
 1938 0036 0323     		movs	r3, #3
 1939 0038 4793     		str	r3, [sp, #284]
 1940 003a 0021     		movs	r1, #0
 1941 003c 42A8     		add	r0, sp, #264
 1942 003e FFF7FEFF 		bl	hci_send_req
 1943 0042 0028     		cmp	r0, #0
 1944 0044 03DB     		blt	.L162
 1945 0046 9DF80400 		ldrb	r0, [sp, #4]	@ zero_extendqisi2
 1946              	.L161:
 1947 004a 48B0     		add	sp, sp, #288
 1948              		@ sp needed
 1949 004c 70BD     		pop	{r4, r5, r6, pc}
 1950              	.L162:
 1951 004e FF20     		movs	r0, #255
 1952 0050 FBE7     		b	.L161
 1954              		.section	.text.hci_le_read_supported_states,"ax",%progbits
 1955              		.align	1
 1956              		.global	hci_le_read_supported_states
 1957              		.syntax unified
 1958              		.thumb
 1959              		.thumb_func
ARM GAS  C:\Users\Nathan\AppData\Local\Temp\ccilHIuM.s 			page 34


 1961              	hci_le_read_supported_states:
 1962              		@ args = 0, pretend = 0, frame = 40
 1963              		@ frame_needed = 0, uses_anonymous_args = 0
 1964 0000 30B5     		push	{r4, r5, lr}
 1965 0002 8BB0     		sub	sp, sp, #44
 1966 0004 0446     		mov	r4, r0
 1967 0006 01AD     		add	r5, sp, #4
 1968 0008 0922     		movs	r2, #9
 1969 000a 0021     		movs	r1, #0
 1970 000c 2846     		mov	r0, r5
 1971 000e FFF7FEFF 		bl	Osal_MemSet
 1972 0012 1822     		movs	r2, #24
 1973 0014 0021     		movs	r1, #0
 1974 0016 04A8     		add	r0, sp, #16
 1975 0018 FFF7FEFF 		bl	Osal_MemSet
 1976 001c 0823     		movs	r3, #8
 1977 001e ADF81030 		strh	r3, [sp, #16]	@ movhi
 1978 0022 1C23     		movs	r3, #28
 1979 0024 ADF81230 		strh	r3, [sp, #18]	@ movhi
 1980 0028 0895     		str	r5, [sp, #32]
 1981 002a 0923     		movs	r3, #9
 1982 002c 0993     		str	r3, [sp, #36]
 1983 002e 0021     		movs	r1, #0
 1984 0030 04A8     		add	r0, sp, #16
 1985 0032 FFF7FEFF 		bl	hci_send_req
 1986 0036 0028     		cmp	r0, #0
 1987 0038 0CDB     		blt	.L166
 1988 003a 9DF80450 		ldrb	r5, [sp, #4]	@ zero_extendqisi2
 1989 003e 15B1     		cbz	r5, .L168
 1990              	.L165:
 1991 0040 2846     		mov	r0, r5
 1992 0042 0BB0     		add	sp, sp, #44
 1993              		@ sp needed
 1994 0044 30BD     		pop	{r4, r5, pc}
 1995              	.L168:
 1996 0046 0822     		movs	r2, #8
 1997 0048 0DF10501 		add	r1, sp, #5
 1998 004c 2046     		mov	r0, r4
 1999 004e FFF7FEFF 		bl	Osal_MemCpy
 2000 0052 F5E7     		b	.L165
 2001              	.L166:
 2002 0054 FF25     		movs	r5, #255
 2003 0056 F3E7     		b	.L165
 2005              		.section	.text.hci_le_receiver_test,"ax",%progbits
 2006              		.align	1
 2007              		.global	hci_le_receiver_test
 2008              		.syntax unified
 2009              		.thumb
 2010              		.thumb_func
 2012              	hci_le_receiver_test:
 2013              		@ args = 0, pretend = 0, frame = 288
 2014              		@ frame_needed = 0, uses_anonymous_args = 0
 2015 0000 70B5     		push	{r4, r5, r6, lr}
 2016 0002 C8B0     		sub	sp, sp, #288
 2017 0004 0DF10705 		add	r5, sp, #7
 2018 0008 0024     		movs	r4, #0
 2019 000a 8DF80740 		strb	r4, [sp, #7]
ARM GAS  C:\Users\Nathan\AppData\Local\Temp\ccilHIuM.s 			page 35


 2020 000e 02AE     		add	r6, sp, #8
 2021 0010 8DF80800 		strb	r0, [sp, #8]
 2022 0014 1822     		movs	r2, #24
 2023 0016 2146     		mov	r1, r4
 2024 0018 42A8     		add	r0, sp, #264
 2025 001a FFF7FEFF 		bl	Osal_MemSet
 2026 001e 0823     		movs	r3, #8
 2027 0020 ADF80831 		strh	r3, [sp, #264]	@ movhi
 2028 0024 1D23     		movs	r3, #29
 2029 0026 ADF80A31 		strh	r3, [sp, #266]	@ movhi
 2030 002a 4496     		str	r6, [sp, #272]
 2031 002c 0123     		movs	r3, #1
 2032 002e 4593     		str	r3, [sp, #276]
 2033 0030 4695     		str	r5, [sp, #280]
 2034 0032 4793     		str	r3, [sp, #284]
 2035 0034 2146     		mov	r1, r4
 2036 0036 42A8     		add	r0, sp, #264
 2037 0038 FFF7FEFF 		bl	hci_send_req
 2038 003c A042     		cmp	r0, r4
 2039 003e 03DB     		blt	.L171
 2040 0040 9DF80700 		ldrb	r0, [sp, #7]	@ zero_extendqisi2
 2041              	.L170:
 2042 0044 48B0     		add	sp, sp, #288
 2043              		@ sp needed
 2044 0046 70BD     		pop	{r4, r5, r6, pc}
 2045              	.L171:
 2046 0048 FF20     		movs	r0, #255
 2047 004a FBE7     		b	.L170
 2049              		.section	.text.hci_le_transmitter_test,"ax",%progbits
 2050              		.align	1
 2051              		.global	hci_le_transmitter_test
 2052              		.syntax unified
 2053              		.thumb
 2054              		.thumb_func
 2056              	hci_le_transmitter_test:
 2057              		@ args = 0, pretend = 0, frame = 288
 2058              		@ frame_needed = 0, uses_anonymous_args = 0
 2059 0000 70B5     		push	{r4, r5, r6, lr}
 2060 0002 C8B0     		sub	sp, sp, #288
 2061 0004 0DF10706 		add	r6, sp, #7
 2062 0008 0025     		movs	r5, #0
 2063 000a 8DF80750 		strb	r5, [sp, #7]
 2064 000e 02AC     		add	r4, sp, #8
 2065 0010 8DF80800 		strb	r0, [sp, #8]
 2066 0014 8DF80910 		strb	r1, [sp, #9]
 2067 0018 8DF80A20 		strb	r2, [sp, #10]
 2068 001c 1822     		movs	r2, #24
 2069 001e 2946     		mov	r1, r5
 2070 0020 42A8     		add	r0, sp, #264
 2071 0022 FFF7FEFF 		bl	Osal_MemSet
 2072 0026 0823     		movs	r3, #8
 2073 0028 ADF80831 		strh	r3, [sp, #264]	@ movhi
 2074 002c 1E23     		movs	r3, #30
 2075 002e ADF80A31 		strh	r3, [sp, #266]	@ movhi
 2076 0032 4494     		str	r4, [sp, #272]
 2077 0034 0323     		movs	r3, #3
 2078 0036 4593     		str	r3, [sp, #276]
ARM GAS  C:\Users\Nathan\AppData\Local\Temp\ccilHIuM.s 			page 36


 2079 0038 4696     		str	r6, [sp, #280]
 2080 003a 0123     		movs	r3, #1
 2081 003c 4793     		str	r3, [sp, #284]
 2082 003e 2946     		mov	r1, r5
 2083 0040 42A8     		add	r0, sp, #264
 2084 0042 FFF7FEFF 		bl	hci_send_req
 2085 0046 A842     		cmp	r0, r5
 2086 0048 03DB     		blt	.L175
 2087 004a 9DF80700 		ldrb	r0, [sp, #7]	@ zero_extendqisi2
 2088              	.L174:
 2089 004e 48B0     		add	sp, sp, #288
 2090              		@ sp needed
 2091 0050 70BD     		pop	{r4, r5, r6, pc}
 2092              	.L175:
 2093 0052 FF20     		movs	r0, #255
 2094 0054 FBE7     		b	.L174
 2096              		.section	.text.hci_le_test_end,"ax",%progbits
 2097              		.align	1
 2098              		.global	hci_le_test_end
 2099              		.syntax unified
 2100              		.thumb
 2101              		.thumb_func
 2103              	hci_le_test_end:
 2104              		@ args = 0, pretend = 0, frame = 32
 2105              		@ frame_needed = 0, uses_anonymous_args = 0
 2106 0000 30B5     		push	{r4, r5, lr}
 2107 0002 89B0     		sub	sp, sp, #36
 2108 0004 0446     		mov	r4, r0
 2109 0006 01AD     		add	r5, sp, #4
 2110 0008 0322     		movs	r2, #3
 2111 000a 0021     		movs	r1, #0
 2112 000c 2846     		mov	r0, r5
 2113 000e FFF7FEFF 		bl	Osal_MemSet
 2114 0012 1822     		movs	r2, #24
 2115 0014 0021     		movs	r1, #0
 2116 0016 02A8     		add	r0, sp, #8
 2117 0018 FFF7FEFF 		bl	Osal_MemSet
 2118 001c 0823     		movs	r3, #8
 2119 001e ADF80830 		strh	r3, [sp, #8]	@ movhi
 2120 0022 1F23     		movs	r3, #31
 2121 0024 ADF80A30 		strh	r3, [sp, #10]	@ movhi
 2122 0028 0695     		str	r5, [sp, #24]
 2123 002a 0323     		movs	r3, #3
 2124 002c 0793     		str	r3, [sp, #28]
 2125 002e 0021     		movs	r1, #0
 2126 0030 02A8     		add	r0, sp, #8
 2127 0032 FFF7FEFF 		bl	hci_send_req
 2128 0036 0028     		cmp	r0, #0
 2129 0038 07DB     		blt	.L179
 2130 003a 9DF80400 		ldrb	r0, [sp, #4]	@ zero_extendqisi2
 2131 003e 10B9     		cbnz	r0, .L178
 2132 0040 BDF80530 		ldrh	r3, [sp, #5]	@ unaligned
 2133 0044 2380     		strh	r3, [r4]	@ movhi
 2134              	.L178:
 2135 0046 09B0     		add	sp, sp, #36
 2136              		@ sp needed
 2137 0048 30BD     		pop	{r4, r5, pc}
ARM GAS  C:\Users\Nathan\AppData\Local\Temp\ccilHIuM.s 			page 37


 2138              	.L179:
 2139 004a FF20     		movs	r0, #255
 2140 004c FBE7     		b	.L178
 2142              		.section	.text.hci_le_set_data_length,"ax",%progbits
 2143              		.align	1
 2144              		.global	hci_le_set_data_length
 2145              		.syntax unified
 2146              		.thumb
 2147              		.thumb_func
 2149              	hci_le_set_data_length:
 2150              		@ args = 0, pretend = 0, frame = 288
 2151              		@ frame_needed = 0, uses_anonymous_args = 0
 2152 0000 2DE9F041 		push	{r4, r5, r6, r7, r8, lr}
 2153 0004 C8B0     		sub	sp, sp, #288
 2154 0006 0746     		mov	r7, r0
 2155 0008 0E46     		mov	r6, r1
 2156 000a 1546     		mov	r5, r2
 2157 000c 0DF10408 		add	r8, sp, #4
 2158 0010 0322     		movs	r2, #3
 2159 0012 0021     		movs	r1, #0
 2160 0014 4046     		mov	r0, r8
 2161 0016 FFF7FEFF 		bl	Osal_MemSet
 2162 001a 02AC     		add	r4, sp, #8
 2163 001c ADF80870 		strh	r7, [sp, #8]	@ movhi
 2164 0020 ADF80A60 		strh	r6, [sp, #10]	@ movhi
 2165 0024 ADF80C50 		strh	r5, [sp, #12]	@ movhi
 2166 0028 1822     		movs	r2, #24
 2167 002a 0021     		movs	r1, #0
 2168 002c 42A8     		add	r0, sp, #264
 2169 002e FFF7FEFF 		bl	Osal_MemSet
 2170 0032 0823     		movs	r3, #8
 2171 0034 ADF80831 		strh	r3, [sp, #264]	@ movhi
 2172 0038 2223     		movs	r3, #34
 2173 003a ADF80A31 		strh	r3, [sp, #266]	@ movhi
 2174 003e 4494     		str	r4, [sp, #272]
 2175 0040 0623     		movs	r3, #6
 2176 0042 4593     		str	r3, [sp, #276]
 2177 0044 CDF81881 		str	r8, [sp, #280]
 2178 0048 0323     		movs	r3, #3
 2179 004a 4793     		str	r3, [sp, #284]
 2180 004c 0021     		movs	r1, #0
 2181 004e 42A8     		add	r0, sp, #264
 2182 0050 FFF7FEFF 		bl	hci_send_req
 2183 0054 0028     		cmp	r0, #0
 2184 0056 04DB     		blt	.L183
 2185 0058 9DF80400 		ldrb	r0, [sp, #4]	@ zero_extendqisi2
 2186              	.L182:
 2187 005c 48B0     		add	sp, sp, #288
 2188              		@ sp needed
 2189 005e BDE8F081 		pop	{r4, r5, r6, r7, r8, pc}
 2190              	.L183:
 2191 0062 FF20     		movs	r0, #255
 2192 0064 FAE7     		b	.L182
 2194              		.section	.text.hci_le_read_suggested_default_data_length,"ax",%progbits
 2195              		.align	1
 2196              		.global	hci_le_read_suggested_default_data_length
 2197              		.syntax unified
ARM GAS  C:\Users\Nathan\AppData\Local\Temp\ccilHIuM.s 			page 38


 2198              		.thumb
 2199              		.thumb_func
 2201              	hci_le_read_suggested_default_data_length:
 2202              		@ args = 0, pretend = 0, frame = 32
 2203              		@ frame_needed = 0, uses_anonymous_args = 0
 2204 0000 30B5     		push	{r4, r5, lr}
 2205 0002 89B0     		sub	sp, sp, #36
 2206 0004 0546     		mov	r5, r0
 2207 0006 0C46     		mov	r4, r1
 2208 0008 0522     		movs	r2, #5
 2209 000a 0021     		movs	r1, #0
 2210 000c 6846     		mov	r0, sp
 2211 000e FFF7FEFF 		bl	Osal_MemSet
 2212 0012 1822     		movs	r2, #24
 2213 0014 0021     		movs	r1, #0
 2214 0016 02A8     		add	r0, sp, #8
 2215 0018 FFF7FEFF 		bl	Osal_MemSet
 2216 001c 0823     		movs	r3, #8
 2217 001e ADF80830 		strh	r3, [sp, #8]	@ movhi
 2218 0022 2323     		movs	r3, #35
 2219 0024 ADF80A30 		strh	r3, [sp, #10]	@ movhi
 2220 0028 CDF818D0 		str	sp, [sp, #24]
 2221 002c 0523     		movs	r3, #5
 2222 002e 0793     		str	r3, [sp, #28]
 2223 0030 0021     		movs	r1, #0
 2224 0032 02A8     		add	r0, sp, #8
 2225 0034 FFF7FEFF 		bl	hci_send_req
 2226 0038 0028     		cmp	r0, #0
 2227 003a 0ADB     		blt	.L187
 2228 003c 9DF80000 		ldrb	r0, [sp]	@ zero_extendqisi2
 2229 0040 28B9     		cbnz	r0, .L186
 2230 0042 BDF80130 		ldrh	r3, [sp, #1]	@ unaligned
 2231 0046 2B80     		strh	r3, [r5]	@ movhi
 2232 0048 BDF80330 		ldrh	r3, [sp, #3]	@ unaligned
 2233 004c 2380     		strh	r3, [r4]	@ movhi
 2234              	.L186:
 2235 004e 09B0     		add	sp, sp, #36
 2236              		@ sp needed
 2237 0050 30BD     		pop	{r4, r5, pc}
 2238              	.L187:
 2239 0052 FF20     		movs	r0, #255
 2240 0054 FBE7     		b	.L186
 2242              		.section	.text.hci_le_write_suggested_default_data_length,"ax",%progbits
 2243              		.align	1
 2244              		.global	hci_le_write_suggested_default_data_length
 2245              		.syntax unified
 2246              		.thumb
 2247              		.thumb_func
 2249              	hci_le_write_suggested_default_data_length:
 2250              		@ args = 0, pretend = 0, frame = 288
 2251              		@ frame_needed = 0, uses_anonymous_args = 0
 2252 0000 70B5     		push	{r4, r5, r6, lr}
 2253 0002 C8B0     		sub	sp, sp, #288
 2254 0004 0DF10706 		add	r6, sp, #7
 2255 0008 0024     		movs	r4, #0
 2256 000a 8DF80740 		strb	r4, [sp, #7]
 2257 000e 02AD     		add	r5, sp, #8
ARM GAS  C:\Users\Nathan\AppData\Local\Temp\ccilHIuM.s 			page 39


 2258 0010 ADF80800 		strh	r0, [sp, #8]	@ movhi
 2259 0014 ADF80A10 		strh	r1, [sp, #10]	@ movhi
 2260 0018 1822     		movs	r2, #24
 2261 001a 2146     		mov	r1, r4
 2262 001c 42A8     		add	r0, sp, #264
 2263 001e FFF7FEFF 		bl	Osal_MemSet
 2264 0022 0823     		movs	r3, #8
 2265 0024 ADF80831 		strh	r3, [sp, #264]	@ movhi
 2266 0028 2423     		movs	r3, #36
 2267 002a ADF80A31 		strh	r3, [sp, #266]	@ movhi
 2268 002e 4495     		str	r5, [sp, #272]
 2269 0030 0423     		movs	r3, #4
 2270 0032 4593     		str	r3, [sp, #276]
 2271 0034 4696     		str	r6, [sp, #280]
 2272 0036 0123     		movs	r3, #1
 2273 0038 4793     		str	r3, [sp, #284]
 2274 003a 2146     		mov	r1, r4
 2275 003c 42A8     		add	r0, sp, #264
 2276 003e FFF7FEFF 		bl	hci_send_req
 2277 0042 A042     		cmp	r0, r4
 2278 0044 03DB     		blt	.L191
 2279 0046 9DF80700 		ldrb	r0, [sp, #7]	@ zero_extendqisi2
 2280              	.L190:
 2281 004a 48B0     		add	sp, sp, #288
 2282              		@ sp needed
 2283 004c 70BD     		pop	{r4, r5, r6, pc}
 2284              	.L191:
 2285 004e FF20     		movs	r0, #255
 2286 0050 FBE7     		b	.L190
 2288              		.section	.text.hci_le_read_local_p256_public_key,"ax",%progbits
 2289              		.align	1
 2290              		.global	hci_le_read_local_p256_public_key
 2291              		.syntax unified
 2292              		.thumb
 2293              		.thumb_func
 2295              	hci_le_read_local_p256_public_key:
 2296              		@ args = 0, pretend = 0, frame = 32
 2297              		@ frame_needed = 0, uses_anonymous_args = 0
 2298 0000 10B5     		push	{r4, lr}
 2299 0002 88B0     		sub	sp, sp, #32
 2300 0004 0024     		movs	r4, #0
 2301 0006 8DF80740 		strb	r4, [sp, #7]
 2302 000a 1822     		movs	r2, #24
 2303 000c 2146     		mov	r1, r4
 2304 000e 02A8     		add	r0, sp, #8
 2305 0010 FFF7FEFF 		bl	Osal_MemSet
 2306 0014 0823     		movs	r3, #8
 2307 0016 ADF80830 		strh	r3, [sp, #8]	@ movhi
 2308 001a 2523     		movs	r3, #37
 2309 001c ADF80A30 		strh	r3, [sp, #10]	@ movhi
 2310 0020 0F23     		movs	r3, #15
 2311 0022 0393     		str	r3, [sp, #12]
 2312 0024 0DF10703 		add	r3, sp, #7
 2313 0028 0693     		str	r3, [sp, #24]
 2314 002a 0123     		movs	r3, #1
 2315 002c 0793     		str	r3, [sp, #28]
 2316 002e 2146     		mov	r1, r4
ARM GAS  C:\Users\Nathan\AppData\Local\Temp\ccilHIuM.s 			page 40


 2317 0030 02A8     		add	r0, sp, #8
 2318 0032 FFF7FEFF 		bl	hci_send_req
 2319 0036 A042     		cmp	r0, r4
 2320 0038 03DB     		blt	.L195
 2321 003a 9DF80700 		ldrb	r0, [sp, #7]	@ zero_extendqisi2
 2322              	.L194:
 2323 003e 08B0     		add	sp, sp, #32
 2324              		@ sp needed
 2325 0040 10BD     		pop	{r4, pc}
 2326              	.L195:
 2327 0042 FF20     		movs	r0, #255
 2328 0044 FBE7     		b	.L194
 2330              		.section	.text.hci_le_generate_dhkey,"ax",%progbits
 2331              		.align	1
 2332              		.global	hci_le_generate_dhkey
 2333              		.syntax unified
 2334              		.thumb
 2335              		.thumb_func
 2337              	hci_le_generate_dhkey:
 2338              		@ args = 0, pretend = 0, frame = 288
 2339              		@ frame_needed = 0, uses_anonymous_args = 0
 2340 0000 70B5     		push	{r4, r5, r6, lr}
 2341 0002 C8B0     		sub	sp, sp, #288
 2342 0004 0146     		mov	r1, r0
 2343 0006 0DF10705 		add	r5, sp, #7
 2344 000a 0024     		movs	r4, #0
 2345 000c 8DF80740 		strb	r4, [sp, #7]
 2346 0010 02AE     		add	r6, sp, #8
 2347 0012 4022     		movs	r2, #64
 2348 0014 3046     		mov	r0, r6
 2349 0016 FFF7FEFF 		bl	Osal_MemCpy
 2350 001a 1822     		movs	r2, #24
 2351 001c 2146     		mov	r1, r4
 2352 001e 42A8     		add	r0, sp, #264
 2353 0020 FFF7FEFF 		bl	Osal_MemSet
 2354 0024 0823     		movs	r3, #8
 2355 0026 ADF80831 		strh	r3, [sp, #264]	@ movhi
 2356 002a 2623     		movs	r3, #38
 2357 002c ADF80A31 		strh	r3, [sp, #266]	@ movhi
 2358 0030 0F23     		movs	r3, #15
 2359 0032 4393     		str	r3, [sp, #268]
 2360 0034 4496     		str	r6, [sp, #272]
 2361 0036 4023     		movs	r3, #64
 2362 0038 4593     		str	r3, [sp, #276]
 2363 003a 4695     		str	r5, [sp, #280]
 2364 003c 0123     		movs	r3, #1
 2365 003e 4793     		str	r3, [sp, #284]
 2366 0040 2146     		mov	r1, r4
 2367 0042 42A8     		add	r0, sp, #264
 2368 0044 FFF7FEFF 		bl	hci_send_req
 2369 0048 A042     		cmp	r0, r4
 2370 004a 03DB     		blt	.L199
 2371 004c 9DF80700 		ldrb	r0, [sp, #7]	@ zero_extendqisi2
 2372              	.L198:
 2373 0050 48B0     		add	sp, sp, #288
 2374              		@ sp needed
 2375 0052 70BD     		pop	{r4, r5, r6, pc}
ARM GAS  C:\Users\Nathan\AppData\Local\Temp\ccilHIuM.s 			page 41


 2376              	.L199:
 2377 0054 FF20     		movs	r0, #255
 2378 0056 FBE7     		b	.L198
 2380              		.section	.text.hci_le_add_device_to_resolving_list,"ax",%progbits
 2381              		.align	1
 2382              		.global	hci_le_add_device_to_resolving_list
 2383              		.syntax unified
 2384              		.thumb
 2385              		.thumb_func
 2387              	hci_le_add_device_to_resolving_list:
 2388              		@ args = 0, pretend = 0, frame = 288
 2389              		@ frame_needed = 0, uses_anonymous_args = 0
 2390 0000 2DE9F041 		push	{r4, r5, r6, r7, r8, lr}
 2391 0004 C8B0     		sub	sp, sp, #288
 2392 0006 1646     		mov	r6, r2
 2393 0008 1D46     		mov	r5, r3
 2394 000a 0DF10707 		add	r7, sp, #7
 2395 000e 0024     		movs	r4, #0
 2396 0010 8DF80740 		strb	r4, [sp, #7]
 2397 0014 0DF10808 		add	r8, sp, #8
 2398 0018 8DF80800 		strb	r0, [sp, #8]
 2399 001c 0622     		movs	r2, #6
 2400 001e 0DF10900 		add	r0, sp, #9
 2401 0022 FFF7FEFF 		bl	Osal_MemCpy
 2402 0026 1022     		movs	r2, #16
 2403 0028 3146     		mov	r1, r6
 2404 002a 0DF10F00 		add	r0, sp, #15
 2405 002e FFF7FEFF 		bl	Osal_MemCpy
 2406 0032 1022     		movs	r2, #16
 2407 0034 2946     		mov	r1, r5
 2408 0036 0DF11F00 		add	r0, sp, #31
 2409 003a FFF7FEFF 		bl	Osal_MemCpy
 2410 003e 1822     		movs	r2, #24
 2411 0040 2146     		mov	r1, r4
 2412 0042 42A8     		add	r0, sp, #264
 2413 0044 FFF7FEFF 		bl	Osal_MemSet
 2414 0048 0823     		movs	r3, #8
 2415 004a ADF80831 		strh	r3, [sp, #264]	@ movhi
 2416 004e 2723     		movs	r3, #39
 2417 0050 ADF80A31 		strh	r3, [sp, #266]	@ movhi
 2418 0054 CDF81081 		str	r8, [sp, #272]
 2419 0058 4593     		str	r3, [sp, #276]
 2420 005a 4697     		str	r7, [sp, #280]
 2421 005c 0123     		movs	r3, #1
 2422 005e 4793     		str	r3, [sp, #284]
 2423 0060 2146     		mov	r1, r4
 2424 0062 42A8     		add	r0, sp, #264
 2425 0064 FFF7FEFF 		bl	hci_send_req
 2426 0068 A042     		cmp	r0, r4
 2427 006a 04DB     		blt	.L203
 2428 006c 9DF80700 		ldrb	r0, [sp, #7]	@ zero_extendqisi2
 2429              	.L202:
 2430 0070 48B0     		add	sp, sp, #288
 2431              		@ sp needed
 2432 0072 BDE8F081 		pop	{r4, r5, r6, r7, r8, pc}
 2433              	.L203:
 2434 0076 FF20     		movs	r0, #255
ARM GAS  C:\Users\Nathan\AppData\Local\Temp\ccilHIuM.s 			page 42


 2435 0078 FAE7     		b	.L202
 2437              		.section	.text.hci_le_remove_device_from_resolving_list,"ax",%progbits
 2438              		.align	1
 2439              		.global	hci_le_remove_device_from_resolving_list
 2440              		.syntax unified
 2441              		.thumb
 2442              		.thumb_func
 2444              	hci_le_remove_device_from_resolving_list:
 2445              		@ args = 0, pretend = 0, frame = 288
 2446              		@ frame_needed = 0, uses_anonymous_args = 0
 2447 0000 70B5     		push	{r4, r5, r6, lr}
 2448 0002 C8B0     		sub	sp, sp, #288
 2449 0004 0DF10705 		add	r5, sp, #7
 2450 0008 0024     		movs	r4, #0
 2451 000a 8DF80740 		strb	r4, [sp, #7]
 2452 000e 02AE     		add	r6, sp, #8
 2453 0010 8DF80800 		strb	r0, [sp, #8]
 2454 0014 0622     		movs	r2, #6
 2455 0016 0DF10900 		add	r0, sp, #9
 2456 001a FFF7FEFF 		bl	Osal_MemCpy
 2457 001e 1822     		movs	r2, #24
 2458 0020 2146     		mov	r1, r4
 2459 0022 42A8     		add	r0, sp, #264
 2460 0024 FFF7FEFF 		bl	Osal_MemSet
 2461 0028 0823     		movs	r3, #8
 2462 002a ADF80831 		strh	r3, [sp, #264]	@ movhi
 2463 002e 2823     		movs	r3, #40
 2464 0030 ADF80A31 		strh	r3, [sp, #266]	@ movhi
 2465 0034 4496     		str	r6, [sp, #272]
 2466 0036 0723     		movs	r3, #7
 2467 0038 4593     		str	r3, [sp, #276]
 2468 003a 4695     		str	r5, [sp, #280]
 2469 003c 0123     		movs	r3, #1
 2470 003e 4793     		str	r3, [sp, #284]
 2471 0040 2146     		mov	r1, r4
 2472 0042 42A8     		add	r0, sp, #264
 2473 0044 FFF7FEFF 		bl	hci_send_req
 2474 0048 A042     		cmp	r0, r4
 2475 004a 03DB     		blt	.L207
 2476 004c 9DF80700 		ldrb	r0, [sp, #7]	@ zero_extendqisi2
 2477              	.L206:
 2478 0050 48B0     		add	sp, sp, #288
 2479              		@ sp needed
 2480 0052 70BD     		pop	{r4, r5, r6, pc}
 2481              	.L207:
 2482 0054 FF20     		movs	r0, #255
 2483 0056 FBE7     		b	.L206
 2485              		.section	.text.hci_le_clear_resolving_list,"ax",%progbits
 2486              		.align	1
 2487              		.global	hci_le_clear_resolving_list
 2488              		.syntax unified
 2489              		.thumb
 2490              		.thumb_func
 2492              	hci_le_clear_resolving_list:
 2493              		@ args = 0, pretend = 0, frame = 32
 2494              		@ frame_needed = 0, uses_anonymous_args = 0
 2495 0000 10B5     		push	{r4, lr}
ARM GAS  C:\Users\Nathan\AppData\Local\Temp\ccilHIuM.s 			page 43


 2496 0002 88B0     		sub	sp, sp, #32
 2497 0004 0024     		movs	r4, #0
 2498 0006 8DF80740 		strb	r4, [sp, #7]
 2499 000a 1822     		movs	r2, #24
 2500 000c 2146     		mov	r1, r4
 2501 000e 02A8     		add	r0, sp, #8
 2502 0010 FFF7FEFF 		bl	Osal_MemSet
 2503 0014 0823     		movs	r3, #8
 2504 0016 ADF80830 		strh	r3, [sp, #8]	@ movhi
 2505 001a 2923     		movs	r3, #41
 2506 001c ADF80A30 		strh	r3, [sp, #10]	@ movhi
 2507 0020 0DF10703 		add	r3, sp, #7
 2508 0024 0693     		str	r3, [sp, #24]
 2509 0026 0123     		movs	r3, #1
 2510 0028 0793     		str	r3, [sp, #28]
 2511 002a 2146     		mov	r1, r4
 2512 002c 02A8     		add	r0, sp, #8
 2513 002e FFF7FEFF 		bl	hci_send_req
 2514 0032 A042     		cmp	r0, r4
 2515 0034 03DB     		blt	.L211
 2516 0036 9DF80700 		ldrb	r0, [sp, #7]	@ zero_extendqisi2
 2517              	.L210:
 2518 003a 08B0     		add	sp, sp, #32
 2519              		@ sp needed
 2520 003c 10BD     		pop	{r4, pc}
 2521              	.L211:
 2522 003e FF20     		movs	r0, #255
 2523 0040 FBE7     		b	.L210
 2525              		.section	.text.hci_le_read_resolving_list_size,"ax",%progbits
 2526              		.align	1
 2527              		.global	hci_le_read_resolving_list_size
 2528              		.syntax unified
 2529              		.thumb
 2530              		.thumb_func
 2532              	hci_le_read_resolving_list_size:
 2533              		@ args = 0, pretend = 0, frame = 32
 2534              		@ frame_needed = 0, uses_anonymous_args = 0
 2535 0000 30B5     		push	{r4, r5, lr}
 2536 0002 89B0     		sub	sp, sp, #36
 2537 0004 0446     		mov	r4, r0
 2538 0006 01AD     		add	r5, sp, #4
 2539 0008 0222     		movs	r2, #2
 2540 000a 0021     		movs	r1, #0
 2541 000c 2846     		mov	r0, r5
 2542 000e FFF7FEFF 		bl	Osal_MemSet
 2543 0012 1822     		movs	r2, #24
 2544 0014 0021     		movs	r1, #0
 2545 0016 02A8     		add	r0, sp, #8
 2546 0018 FFF7FEFF 		bl	Osal_MemSet
 2547 001c 0823     		movs	r3, #8
 2548 001e ADF80830 		strh	r3, [sp, #8]	@ movhi
 2549 0022 2A23     		movs	r3, #42
 2550 0024 ADF80A30 		strh	r3, [sp, #10]	@ movhi
 2551 0028 0695     		str	r5, [sp, #24]
 2552 002a 0223     		movs	r3, #2
 2553 002c 0793     		str	r3, [sp, #28]
 2554 002e 0021     		movs	r1, #0
ARM GAS  C:\Users\Nathan\AppData\Local\Temp\ccilHIuM.s 			page 44


 2555 0030 02A8     		add	r0, sp, #8
 2556 0032 FFF7FEFF 		bl	hci_send_req
 2557 0036 0028     		cmp	r0, #0
 2558 0038 07DB     		blt	.L215
 2559 003a 9DF80400 		ldrb	r0, [sp, #4]	@ zero_extendqisi2
 2560 003e 10B9     		cbnz	r0, .L214
 2561 0040 9DF80530 		ldrb	r3, [sp, #5]	@ zero_extendqisi2
 2562 0044 2370     		strb	r3, [r4]
 2563              	.L214:
 2564 0046 09B0     		add	sp, sp, #36
 2565              		@ sp needed
 2566 0048 30BD     		pop	{r4, r5, pc}
 2567              	.L215:
 2568 004a FF20     		movs	r0, #255
 2569 004c FBE7     		b	.L214
 2571              		.section	.text.hci_le_read_peer_resolvable_address,"ax",%progbits
 2572              		.align	1
 2573              		.global	hci_le_read_peer_resolvable_address
 2574              		.syntax unified
 2575              		.thumb
 2576              		.thumb_func
 2578              	hci_le_read_peer_resolvable_address:
 2579              		@ args = 0, pretend = 0, frame = 288
 2580              		@ frame_needed = 0, uses_anonymous_args = 0
 2581 0000 F0B5     		push	{r4, r5, r6, r7, lr}
 2582 0002 C9B0     		sub	sp, sp, #292
 2583 0004 0546     		mov	r5, r0
 2584 0006 0C46     		mov	r4, r1
 2585 0008 1646     		mov	r6, r2
 2586 000a 0722     		movs	r2, #7
 2587 000c 0021     		movs	r1, #0
 2588 000e 6846     		mov	r0, sp
 2589 0010 FFF7FEFF 		bl	Osal_MemSet
 2590 0014 02AF     		add	r7, sp, #8
 2591 0016 8DF80850 		strb	r5, [sp, #8]
 2592 001a 0622     		movs	r2, #6
 2593 001c 2146     		mov	r1, r4
 2594 001e 0DF10900 		add	r0, sp, #9
 2595 0022 FFF7FEFF 		bl	Osal_MemCpy
 2596 0026 1822     		movs	r2, #24
 2597 0028 0021     		movs	r1, #0
 2598 002a 42A8     		add	r0, sp, #264
 2599 002c FFF7FEFF 		bl	Osal_MemSet
 2600 0030 0823     		movs	r3, #8
 2601 0032 ADF80831 		strh	r3, [sp, #264]	@ movhi
 2602 0036 2B23     		movs	r3, #43
 2603 0038 ADF80A31 		strh	r3, [sp, #266]	@ movhi
 2604 003c 4497     		str	r7, [sp, #272]
 2605 003e 0723     		movs	r3, #7
 2606 0040 4593     		str	r3, [sp, #276]
 2607 0042 CDF818D1 		str	sp, [sp, #280]
 2608 0046 4793     		str	r3, [sp, #284]
 2609 0048 0021     		movs	r1, #0
 2610 004a 42A8     		add	r0, sp, #264
 2611 004c FFF7FEFF 		bl	hci_send_req
 2612 0050 0028     		cmp	r0, #0
 2613 0052 0CDB     		blt	.L219
ARM GAS  C:\Users\Nathan\AppData\Local\Temp\ccilHIuM.s 			page 45


 2614 0054 9DF80040 		ldrb	r4, [sp]	@ zero_extendqisi2
 2615 0058 14B1     		cbz	r4, .L221
 2616              	.L218:
 2617 005a 2046     		mov	r0, r4
 2618 005c 49B0     		add	sp, sp, #292
 2619              		@ sp needed
 2620 005e F0BD     		pop	{r4, r5, r6, r7, pc}
 2621              	.L221:
 2622 0060 0622     		movs	r2, #6
 2623 0062 0DF10101 		add	r1, sp, #1
 2624 0066 3046     		mov	r0, r6
 2625 0068 FFF7FEFF 		bl	Osal_MemCpy
 2626 006c F5E7     		b	.L218
 2627              	.L219:
 2628 006e FF24     		movs	r4, #255
 2629 0070 F3E7     		b	.L218
 2631              		.section	.text.hci_le_read_local_resolvable_address,"ax",%progbits
 2632              		.align	1
 2633              		.global	hci_le_read_local_resolvable_address
 2634              		.syntax unified
 2635              		.thumb
 2636              		.thumb_func
 2638              	hci_le_read_local_resolvable_address:
 2639              		@ args = 0, pretend = 0, frame = 288
 2640              		@ frame_needed = 0, uses_anonymous_args = 0
 2641 0000 F0B5     		push	{r4, r5, r6, r7, lr}
 2642 0002 C9B0     		sub	sp, sp, #292
 2643 0004 0546     		mov	r5, r0
 2644 0006 0C46     		mov	r4, r1
 2645 0008 1646     		mov	r6, r2
 2646 000a 0722     		movs	r2, #7
 2647 000c 0021     		movs	r1, #0
 2648 000e 6846     		mov	r0, sp
 2649 0010 FFF7FEFF 		bl	Osal_MemSet
 2650 0014 02AF     		add	r7, sp, #8
 2651 0016 8DF80850 		strb	r5, [sp, #8]
 2652 001a 0622     		movs	r2, #6
 2653 001c 2146     		mov	r1, r4
 2654 001e 0DF10900 		add	r0, sp, #9
 2655 0022 FFF7FEFF 		bl	Osal_MemCpy
 2656 0026 1822     		movs	r2, #24
 2657 0028 0021     		movs	r1, #0
 2658 002a 42A8     		add	r0, sp, #264
 2659 002c FFF7FEFF 		bl	Osal_MemSet
 2660 0030 0823     		movs	r3, #8
 2661 0032 ADF80831 		strh	r3, [sp, #264]	@ movhi
 2662 0036 2C23     		movs	r3, #44
 2663 0038 ADF80A31 		strh	r3, [sp, #266]	@ movhi
 2664 003c 4497     		str	r7, [sp, #272]
 2665 003e 0723     		movs	r3, #7
 2666 0040 4593     		str	r3, [sp, #276]
 2667 0042 CDF818D1 		str	sp, [sp, #280]
 2668 0046 4793     		str	r3, [sp, #284]
 2669 0048 0021     		movs	r1, #0
 2670 004a 42A8     		add	r0, sp, #264
 2671 004c FFF7FEFF 		bl	hci_send_req
 2672 0050 0028     		cmp	r0, #0
ARM GAS  C:\Users\Nathan\AppData\Local\Temp\ccilHIuM.s 			page 46


 2673 0052 0CDB     		blt	.L224
 2674 0054 9DF80040 		ldrb	r4, [sp]	@ zero_extendqisi2
 2675 0058 14B1     		cbz	r4, .L226
 2676              	.L223:
 2677 005a 2046     		mov	r0, r4
 2678 005c 49B0     		add	sp, sp, #292
 2679              		@ sp needed
 2680 005e F0BD     		pop	{r4, r5, r6, r7, pc}
 2681              	.L226:
 2682 0060 0622     		movs	r2, #6
 2683 0062 0DF10101 		add	r1, sp, #1
 2684 0066 3046     		mov	r0, r6
 2685 0068 FFF7FEFF 		bl	Osal_MemCpy
 2686 006c F5E7     		b	.L223
 2687              	.L224:
 2688 006e FF24     		movs	r4, #255
 2689 0070 F3E7     		b	.L223
 2691              		.section	.text.hci_le_set_address_resolution_enable,"ax",%progbits
 2692              		.align	1
 2693              		.global	hci_le_set_address_resolution_enable
 2694              		.syntax unified
 2695              		.thumb
 2696              		.thumb_func
 2698              	hci_le_set_address_resolution_enable:
 2699              		@ args = 0, pretend = 0, frame = 288
 2700              		@ frame_needed = 0, uses_anonymous_args = 0
 2701 0000 70B5     		push	{r4, r5, r6, lr}
 2702 0002 C8B0     		sub	sp, sp, #288
 2703 0004 0DF10705 		add	r5, sp, #7
 2704 0008 0024     		movs	r4, #0
 2705 000a 8DF80740 		strb	r4, [sp, #7]
 2706 000e 02AE     		add	r6, sp, #8
 2707 0010 8DF80800 		strb	r0, [sp, #8]
 2708 0014 1822     		movs	r2, #24
 2709 0016 2146     		mov	r1, r4
 2710 0018 42A8     		add	r0, sp, #264
 2711 001a FFF7FEFF 		bl	Osal_MemSet
 2712 001e 0823     		movs	r3, #8
 2713 0020 ADF80831 		strh	r3, [sp, #264]	@ movhi
 2714 0024 2D23     		movs	r3, #45
 2715 0026 ADF80A31 		strh	r3, [sp, #266]	@ movhi
 2716 002a 4496     		str	r6, [sp, #272]
 2717 002c 0123     		movs	r3, #1
 2718 002e 4593     		str	r3, [sp, #276]
 2719 0030 4695     		str	r5, [sp, #280]
 2720 0032 4793     		str	r3, [sp, #284]
 2721 0034 2146     		mov	r1, r4
 2722 0036 42A8     		add	r0, sp, #264
 2723 0038 FFF7FEFF 		bl	hci_send_req
 2724 003c A042     		cmp	r0, r4
 2725 003e 03DB     		blt	.L229
 2726 0040 9DF80700 		ldrb	r0, [sp, #7]	@ zero_extendqisi2
 2727              	.L228:
 2728 0044 48B0     		add	sp, sp, #288
 2729              		@ sp needed
 2730 0046 70BD     		pop	{r4, r5, r6, pc}
 2731              	.L229:
ARM GAS  C:\Users\Nathan\AppData\Local\Temp\ccilHIuM.s 			page 47


 2732 0048 FF20     		movs	r0, #255
 2733 004a FBE7     		b	.L228
 2735              		.section	.text.hci_le_set_resolvable_private_address_timeout,"ax",%progbits
 2736              		.align	1
 2737              		.global	hci_le_set_resolvable_private_address_timeout
 2738              		.syntax unified
 2739              		.thumb
 2740              		.thumb_func
 2742              	hci_le_set_resolvable_private_address_timeout:
 2743              		@ args = 0, pretend = 0, frame = 288
 2744              		@ frame_needed = 0, uses_anonymous_args = 0
 2745 0000 70B5     		push	{r4, r5, r6, lr}
 2746 0002 C8B0     		sub	sp, sp, #288
 2747 0004 0DF10705 		add	r5, sp, #7
 2748 0008 0024     		movs	r4, #0
 2749 000a 8DF80740 		strb	r4, [sp, #7]
 2750 000e 02AE     		add	r6, sp, #8
 2751 0010 ADF80800 		strh	r0, [sp, #8]	@ movhi
 2752 0014 1822     		movs	r2, #24
 2753 0016 2146     		mov	r1, r4
 2754 0018 42A8     		add	r0, sp, #264
 2755 001a FFF7FEFF 		bl	Osal_MemSet
 2756 001e 0823     		movs	r3, #8
 2757 0020 ADF80831 		strh	r3, [sp, #264]	@ movhi
 2758 0024 2E23     		movs	r3, #46
 2759 0026 ADF80A31 		strh	r3, [sp, #266]	@ movhi
 2760 002a 4496     		str	r6, [sp, #272]
 2761 002c 0223     		movs	r3, #2
 2762 002e 4593     		str	r3, [sp, #276]
 2763 0030 4695     		str	r5, [sp, #280]
 2764 0032 0123     		movs	r3, #1
 2765 0034 4793     		str	r3, [sp, #284]
 2766 0036 2146     		mov	r1, r4
 2767 0038 42A8     		add	r0, sp, #264
 2768 003a FFF7FEFF 		bl	hci_send_req
 2769 003e A042     		cmp	r0, r4
 2770 0040 03DB     		blt	.L233
 2771 0042 9DF80700 		ldrb	r0, [sp, #7]	@ zero_extendqisi2
 2772              	.L232:
 2773 0046 48B0     		add	sp, sp, #288
 2774              		@ sp needed
 2775 0048 70BD     		pop	{r4, r5, r6, pc}
 2776              	.L233:
 2777 004a FF20     		movs	r0, #255
 2778 004c FBE7     		b	.L232
 2780              		.section	.text.hci_le_read_maximum_data_length,"ax",%progbits
 2781              		.align	1
 2782              		.global	hci_le_read_maximum_data_length
 2783              		.syntax unified
 2784              		.thumb
 2785              		.thumb_func
 2787              	hci_le_read_maximum_data_length:
 2788              		@ args = 0, pretend = 0, frame = 40
 2789              		@ frame_needed = 0, uses_anonymous_args = 0
 2790 0000 2DE9F041 		push	{r4, r5, r6, r7, r8, lr}
 2791 0004 8AB0     		sub	sp, sp, #40
 2792 0006 0746     		mov	r7, r0
ARM GAS  C:\Users\Nathan\AppData\Local\Temp\ccilHIuM.s 			page 48


 2793 0008 0E46     		mov	r6, r1
 2794 000a 1546     		mov	r5, r2
 2795 000c 1C46     		mov	r4, r3
 2796 000e 0DF10408 		add	r8, sp, #4
 2797 0012 0922     		movs	r2, #9
 2798 0014 0021     		movs	r1, #0
 2799 0016 4046     		mov	r0, r8
 2800 0018 FFF7FEFF 		bl	Osal_MemSet
 2801 001c 1822     		movs	r2, #24
 2802 001e 0021     		movs	r1, #0
 2803 0020 04A8     		add	r0, sp, #16
 2804 0022 FFF7FEFF 		bl	Osal_MemSet
 2805 0026 0823     		movs	r3, #8
 2806 0028 ADF81030 		strh	r3, [sp, #16]	@ movhi
 2807 002c 2F23     		movs	r3, #47
 2808 002e ADF81230 		strh	r3, [sp, #18]	@ movhi
 2809 0032 CDF82080 		str	r8, [sp, #32]
 2810 0036 0923     		movs	r3, #9
 2811 0038 0993     		str	r3, [sp, #36]
 2812 003a 0021     		movs	r1, #0
 2813 003c 04A8     		add	r0, sp, #16
 2814 003e FFF7FEFF 		bl	hci_send_req
 2815 0042 0028     		cmp	r0, #0
 2816 0044 11DB     		blt	.L237
 2817 0046 9DF80400 		ldrb	r0, [sp, #4]	@ zero_extendqisi2
 2818 004a 58B9     		cbnz	r0, .L236
 2819 004c BDF80530 		ldrh	r3, [sp, #5]	@ unaligned
 2820 0050 3B80     		strh	r3, [r7]	@ movhi
 2821 0052 BDF80730 		ldrh	r3, [sp, #7]	@ unaligned
 2822 0056 3380     		strh	r3, [r6]	@ movhi
 2823 0058 BDF80930 		ldrh	r3, [sp, #9]	@ unaligned
 2824 005c 2B80     		strh	r3, [r5]	@ movhi
 2825 005e BDF80B30 		ldrh	r3, [sp, #11]	@ unaligned
 2826 0062 2380     		strh	r3, [r4]	@ movhi
 2827              	.L236:
 2828 0064 0AB0     		add	sp, sp, #40
 2829              		@ sp needed
 2830 0066 BDE8F081 		pop	{r4, r5, r6, r7, r8, pc}
 2831              	.L237:
 2832 006a FF20     		movs	r0, #255
 2833 006c FAE7     		b	.L236
 2835              		.section	.text.hci_le_read_phy,"ax",%progbits
 2836              		.align	1
 2837              		.global	hci_le_read_phy
 2838              		.syntax unified
 2839              		.thumb
 2840              		.thumb_func
 2842              	hci_le_read_phy:
 2843              		@ args = 0, pretend = 0, frame = 288
 2844              		@ frame_needed = 0, uses_anonymous_args = 0
 2845 0000 F0B5     		push	{r4, r5, r6, r7, lr}
 2846 0002 C9B0     		sub	sp, sp, #292
 2847 0004 0446     		mov	r4, r0
 2848 0006 0E46     		mov	r6, r1
 2849 0008 1546     		mov	r5, r2
 2850 000a 0522     		movs	r2, #5
 2851 000c 0021     		movs	r1, #0
ARM GAS  C:\Users\Nathan\AppData\Local\Temp\ccilHIuM.s 			page 49


 2852 000e 6846     		mov	r0, sp
 2853 0010 FFF7FEFF 		bl	Osal_MemSet
 2854 0014 02AF     		add	r7, sp, #8
 2855 0016 ADF80840 		strh	r4, [sp, #8]	@ movhi
 2856 001a 1822     		movs	r2, #24
 2857 001c 0021     		movs	r1, #0
 2858 001e 42A8     		add	r0, sp, #264
 2859 0020 FFF7FEFF 		bl	Osal_MemSet
 2860 0024 0823     		movs	r3, #8
 2861 0026 ADF80831 		strh	r3, [sp, #264]	@ movhi
 2862 002a 3023     		movs	r3, #48
 2863 002c ADF80A31 		strh	r3, [sp, #266]	@ movhi
 2864 0030 4497     		str	r7, [sp, #272]
 2865 0032 0223     		movs	r3, #2
 2866 0034 4593     		str	r3, [sp, #276]
 2867 0036 CDF818D1 		str	sp, [sp, #280]
 2868 003a 0523     		movs	r3, #5
 2869 003c 4793     		str	r3, [sp, #284]
 2870 003e 0021     		movs	r1, #0
 2871 0040 42A8     		add	r0, sp, #264
 2872 0042 FFF7FEFF 		bl	hci_send_req
 2873 0046 0028     		cmp	r0, #0
 2874 0048 0ADB     		blt	.L241
 2875 004a 9DF80000 		ldrb	r0, [sp]	@ zero_extendqisi2
 2876 004e 28B9     		cbnz	r0, .L240
 2877 0050 9DF80330 		ldrb	r3, [sp, #3]	@ zero_extendqisi2
 2878 0054 3370     		strb	r3, [r6]
 2879 0056 9DF80430 		ldrb	r3, [sp, #4]	@ zero_extendqisi2
 2880 005a 2B70     		strb	r3, [r5]
 2881              	.L240:
 2882 005c 49B0     		add	sp, sp, #292
 2883              		@ sp needed
 2884 005e F0BD     		pop	{r4, r5, r6, r7, pc}
 2885              	.L241:
 2886 0060 FF20     		movs	r0, #255
 2887 0062 FBE7     		b	.L240
 2889              		.section	.text.hci_le_set_default_phy,"ax",%progbits
 2890              		.align	1
 2891              		.global	hci_le_set_default_phy
 2892              		.syntax unified
 2893              		.thumb
 2894              		.thumb_func
 2896              	hci_le_set_default_phy:
 2897              		@ args = 0, pretend = 0, frame = 288
 2898              		@ frame_needed = 0, uses_anonymous_args = 0
 2899 0000 70B5     		push	{r4, r5, r6, lr}
 2900 0002 C8B0     		sub	sp, sp, #288
 2901 0004 0DF10706 		add	r6, sp, #7
 2902 0008 0025     		movs	r5, #0
 2903 000a 8DF80750 		strb	r5, [sp, #7]
 2904 000e 02AC     		add	r4, sp, #8
 2905 0010 8DF80800 		strb	r0, [sp, #8]
 2906 0014 8DF80910 		strb	r1, [sp, #9]
 2907 0018 8DF80A20 		strb	r2, [sp, #10]
 2908 001c 1822     		movs	r2, #24
 2909 001e 2946     		mov	r1, r5
 2910 0020 42A8     		add	r0, sp, #264
ARM GAS  C:\Users\Nathan\AppData\Local\Temp\ccilHIuM.s 			page 50


 2911 0022 FFF7FEFF 		bl	Osal_MemSet
 2912 0026 0823     		movs	r3, #8
 2913 0028 ADF80831 		strh	r3, [sp, #264]	@ movhi
 2914 002c 3123     		movs	r3, #49
 2915 002e ADF80A31 		strh	r3, [sp, #266]	@ movhi
 2916 0032 4494     		str	r4, [sp, #272]
 2917 0034 0323     		movs	r3, #3
 2918 0036 4593     		str	r3, [sp, #276]
 2919 0038 4696     		str	r6, [sp, #280]
 2920 003a 0123     		movs	r3, #1
 2921 003c 4793     		str	r3, [sp, #284]
 2922 003e 2946     		mov	r1, r5
 2923 0040 42A8     		add	r0, sp, #264
 2924 0042 FFF7FEFF 		bl	hci_send_req
 2925 0046 A842     		cmp	r0, r5
 2926 0048 03DB     		blt	.L245
 2927 004a 9DF80700 		ldrb	r0, [sp, #7]	@ zero_extendqisi2
 2928              	.L244:
 2929 004e 48B0     		add	sp, sp, #288
 2930              		@ sp needed
 2931 0050 70BD     		pop	{r4, r5, r6, pc}
 2932              	.L245:
 2933 0052 FF20     		movs	r0, #255
 2934 0054 FBE7     		b	.L244
 2936              		.section	.text.hci_le_set_phy,"ax",%progbits
 2937              		.align	1
 2938              		.global	hci_le_set_phy
 2939              		.syntax unified
 2940              		.thumb
 2941              		.thumb_func
 2943              	hci_le_set_phy:
 2944              		@ args = 4, pretend = 0, frame = 288
 2945              		@ frame_needed = 0, uses_anonymous_args = 0
 2946 0000 70B5     		push	{r4, r5, r6, lr}
 2947 0002 C8B0     		sub	sp, sp, #288
 2948 0004 0DF10706 		add	r6, sp, #7
 2949 0008 0025     		movs	r5, #0
 2950 000a 8DF80750 		strb	r5, [sp, #7]
 2951 000e 02AC     		add	r4, sp, #8
 2952 0010 ADF80800 		strh	r0, [sp, #8]	@ movhi
 2953 0014 8DF80A10 		strb	r1, [sp, #10]
 2954 0018 8DF80B20 		strb	r2, [sp, #11]
 2955 001c 8DF80C30 		strb	r3, [sp, #12]
 2956 0020 BDF83031 		ldrh	r3, [sp, #304]
 2957 0024 ADF80D30 		strh	r3, [sp, #13]	@ unaligned
 2958 0028 1822     		movs	r2, #24
 2959 002a 2946     		mov	r1, r5
 2960 002c 42A8     		add	r0, sp, #264
 2961 002e FFF7FEFF 		bl	Osal_MemSet
 2962 0032 0823     		movs	r3, #8
 2963 0034 ADF80831 		strh	r3, [sp, #264]	@ movhi
 2964 0038 3223     		movs	r3, #50
 2965 003a ADF80A31 		strh	r3, [sp, #266]	@ movhi
 2966 003e 0F23     		movs	r3, #15
 2967 0040 4393     		str	r3, [sp, #268]
 2968 0042 4494     		str	r4, [sp, #272]
 2969 0044 0723     		movs	r3, #7
ARM GAS  C:\Users\Nathan\AppData\Local\Temp\ccilHIuM.s 			page 51


 2970 0046 4593     		str	r3, [sp, #276]
 2971 0048 4696     		str	r6, [sp, #280]
 2972 004a 0123     		movs	r3, #1
 2973 004c 4793     		str	r3, [sp, #284]
 2974 004e 2946     		mov	r1, r5
 2975 0050 42A8     		add	r0, sp, #264
 2976 0052 FFF7FEFF 		bl	hci_send_req
 2977 0056 A842     		cmp	r0, r5
 2978 0058 03DB     		blt	.L249
 2979 005a 9DF80700 		ldrb	r0, [sp, #7]	@ zero_extendqisi2
 2980              	.L248:
 2981 005e 48B0     		add	sp, sp, #288
 2982              		@ sp needed
 2983 0060 70BD     		pop	{r4, r5, r6, pc}
 2984              	.L249:
 2985 0062 FF20     		movs	r0, #255
 2986 0064 FBE7     		b	.L248
 2988              		.section	.text.hci_le_receiver_test_v2,"ax",%progbits
 2989              		.align	1
 2990              		.global	hci_le_receiver_test_v2
 2991              		.syntax unified
 2992              		.thumb
 2993              		.thumb_func
 2995              	hci_le_receiver_test_v2:
 2996              		@ args = 0, pretend = 0, frame = 288
 2997              		@ frame_needed = 0, uses_anonymous_args = 0
 2998 0000 70B5     		push	{r4, r5, r6, lr}
 2999 0002 C8B0     		sub	sp, sp, #288
 3000 0004 0DF10706 		add	r6, sp, #7
 3001 0008 0025     		movs	r5, #0
 3002 000a 8DF80750 		strb	r5, [sp, #7]
 3003 000e 02AC     		add	r4, sp, #8
 3004 0010 8DF80800 		strb	r0, [sp, #8]
 3005 0014 8DF80910 		strb	r1, [sp, #9]
 3006 0018 8DF80A20 		strb	r2, [sp, #10]
 3007 001c 1822     		movs	r2, #24
 3008 001e 2946     		mov	r1, r5
 3009 0020 42A8     		add	r0, sp, #264
 3010 0022 FFF7FEFF 		bl	Osal_MemSet
 3011 0026 0823     		movs	r3, #8
 3012 0028 ADF80831 		strh	r3, [sp, #264]	@ movhi
 3013 002c 3323     		movs	r3, #51
 3014 002e ADF80A31 		strh	r3, [sp, #266]	@ movhi
 3015 0032 4494     		str	r4, [sp, #272]
 3016 0034 0323     		movs	r3, #3
 3017 0036 4593     		str	r3, [sp, #276]
 3018 0038 4696     		str	r6, [sp, #280]
 3019 003a 0123     		movs	r3, #1
 3020 003c 4793     		str	r3, [sp, #284]
 3021 003e 2946     		mov	r1, r5
 3022 0040 42A8     		add	r0, sp, #264
 3023 0042 FFF7FEFF 		bl	hci_send_req
 3024 0046 A842     		cmp	r0, r5
 3025 0048 03DB     		blt	.L253
 3026 004a 9DF80700 		ldrb	r0, [sp, #7]	@ zero_extendqisi2
 3027              	.L252:
 3028 004e 48B0     		add	sp, sp, #288
ARM GAS  C:\Users\Nathan\AppData\Local\Temp\ccilHIuM.s 			page 52


 3029              		@ sp needed
 3030 0050 70BD     		pop	{r4, r5, r6, pc}
 3031              	.L253:
 3032 0052 FF20     		movs	r0, #255
 3033 0054 FBE7     		b	.L252
 3035              		.section	.text.hci_le_transmitter_test_v2,"ax",%progbits
 3036              		.align	1
 3037              		.global	hci_le_transmitter_test_v2
 3038              		.syntax unified
 3039              		.thumb
 3040              		.thumb_func
 3042              	hci_le_transmitter_test_v2:
 3043              		@ args = 0, pretend = 0, frame = 288
 3044              		@ frame_needed = 0, uses_anonymous_args = 0
 3045 0000 70B5     		push	{r4, r5, r6, lr}
 3046 0002 C8B0     		sub	sp, sp, #288
 3047 0004 0DF10706 		add	r6, sp, #7
 3048 0008 0025     		movs	r5, #0
 3049 000a 8DF80750 		strb	r5, [sp, #7]
 3050 000e 02AC     		add	r4, sp, #8
 3051 0010 8DF80800 		strb	r0, [sp, #8]
 3052 0014 8DF80910 		strb	r1, [sp, #9]
 3053 0018 8DF80A20 		strb	r2, [sp, #10]
 3054 001c 8DF80B30 		strb	r3, [sp, #11]
 3055 0020 1822     		movs	r2, #24
 3056 0022 2946     		mov	r1, r5
 3057 0024 42A8     		add	r0, sp, #264
 3058 0026 FFF7FEFF 		bl	Osal_MemSet
 3059 002a 0823     		movs	r3, #8
 3060 002c ADF80831 		strh	r3, [sp, #264]	@ movhi
 3061 0030 3423     		movs	r3, #52
 3062 0032 ADF80A31 		strh	r3, [sp, #266]	@ movhi
 3063 0036 4494     		str	r4, [sp, #272]
 3064 0038 0423     		movs	r3, #4
 3065 003a 4593     		str	r3, [sp, #276]
 3066 003c 4696     		str	r6, [sp, #280]
 3067 003e 0123     		movs	r3, #1
 3068 0040 4793     		str	r3, [sp, #284]
 3069 0042 2946     		mov	r1, r5
 3070 0044 42A8     		add	r0, sp, #264
 3071 0046 FFF7FEFF 		bl	hci_send_req
 3072 004a A842     		cmp	r0, r5
 3073 004c 03DB     		blt	.L257
 3074 004e 9DF80700 		ldrb	r0, [sp, #7]	@ zero_extendqisi2
 3075              	.L256:
 3076 0052 48B0     		add	sp, sp, #288
 3077              		@ sp needed
 3078 0054 70BD     		pop	{r4, r5, r6, pc}
 3079              	.L257:
 3080 0056 FF20     		movs	r0, #255
 3081 0058 FBE7     		b	.L256
 3083              		.section	.text.hci_le_set_advertising_set_random_address,"ax",%progbits
 3084              		.align	1
 3085              		.global	hci_le_set_advertising_set_random_address
 3086              		.syntax unified
 3087              		.thumb
 3088              		.thumb_func
ARM GAS  C:\Users\Nathan\AppData\Local\Temp\ccilHIuM.s 			page 53


 3090              	hci_le_set_advertising_set_random_address:
 3091              		@ args = 0, pretend = 0, frame = 288
 3092              		@ frame_needed = 0, uses_anonymous_args = 0
 3093 0000 70B5     		push	{r4, r5, r6, lr}
 3094 0002 C8B0     		sub	sp, sp, #288
 3095 0004 0DF10705 		add	r5, sp, #7
 3096 0008 0024     		movs	r4, #0
 3097 000a 8DF80740 		strb	r4, [sp, #7]
 3098 000e 02AE     		add	r6, sp, #8
 3099 0010 8DF80800 		strb	r0, [sp, #8]
 3100 0014 0622     		movs	r2, #6
 3101 0016 0DF10900 		add	r0, sp, #9
 3102 001a FFF7FEFF 		bl	Osal_MemCpy
 3103 001e 1822     		movs	r2, #24
 3104 0020 2146     		mov	r1, r4
 3105 0022 42A8     		add	r0, sp, #264
 3106 0024 FFF7FEFF 		bl	Osal_MemSet
 3107 0028 0823     		movs	r3, #8
 3108 002a ADF80831 		strh	r3, [sp, #264]	@ movhi
 3109 002e 3523     		movs	r3, #53
 3110 0030 ADF80A31 		strh	r3, [sp, #266]	@ movhi
 3111 0034 4496     		str	r6, [sp, #272]
 3112 0036 0723     		movs	r3, #7
 3113 0038 4593     		str	r3, [sp, #276]
 3114 003a 4695     		str	r5, [sp, #280]
 3115 003c 0123     		movs	r3, #1
 3116 003e 4793     		str	r3, [sp, #284]
 3117 0040 2146     		mov	r1, r4
 3118 0042 42A8     		add	r0, sp, #264
 3119 0044 FFF7FEFF 		bl	hci_send_req
 3120 0048 A042     		cmp	r0, r4
 3121 004a 03DB     		blt	.L261
 3122 004c 9DF80700 		ldrb	r0, [sp, #7]	@ zero_extendqisi2
 3123              	.L260:
 3124 0050 48B0     		add	sp, sp, #288
 3125              		@ sp needed
 3126 0052 70BD     		pop	{r4, r5, r6, pc}
 3127              	.L261:
 3128 0054 FF20     		movs	r0, #255
 3129 0056 FBE7     		b	.L260
 3131              		.section	.text.hci_le_set_extended_advertising_parameters,"ax",%progbits
 3132              		.align	1
 3133              		.global	hci_le_set_extended_advertising_parameters
 3134              		.syntax unified
 3135              		.thumb
 3136              		.thumb_func
 3138              	hci_le_set_extended_advertising_parameters:
 3139              		@ args = 48, pretend = 0, frame = 288
 3140              		@ frame_needed = 0, uses_anonymous_args = 0
 3141 0000 2DE9F043 		push	{r4, r5, r6, r7, r8, r9, lr}
 3142 0004 C9B0     		sub	sp, sp, #292
 3143 0006 8046     		mov	r8, r0
 3144 0008 0F46     		mov	r7, r1
 3145 000a 1646     		mov	r6, r2
 3146 000c 1D46     		mov	r5, r3
 3147 000e 0DF10409 		add	r9, sp, #4
 3148 0012 0222     		movs	r2, #2
ARM GAS  C:\Users\Nathan\AppData\Local\Temp\ccilHIuM.s 			page 54


 3149 0014 0021     		movs	r1, #0
 3150 0016 4846     		mov	r0, r9
 3151 0018 FFF7FEFF 		bl	Osal_MemSet
 3152 001c 02AC     		add	r4, sp, #8
 3153 001e 8DF80880 		strb	r8, [sp, #8]
 3154 0022 ADF80970 		strh	r7, [sp, #9]	@ unaligned
 3155 0026 0322     		movs	r2, #3
 3156 0028 3146     		mov	r1, r6
 3157 002a 0DF10B00 		add	r0, sp, #11
 3158 002e FFF7FEFF 		bl	Osal_MemCpy
 3159 0032 0322     		movs	r2, #3
 3160 0034 2946     		mov	r1, r5
 3161 0036 0DF10E00 		add	r0, sp, #14
 3162 003a FFF7FEFF 		bl	Osal_MemCpy
 3163 003e 9DF84031 		ldrb	r3, [sp, #320]	@ zero_extendqisi2
 3164 0042 8DF81130 		strb	r3, [sp, #17]
 3165 0046 9DF84431 		ldrb	r3, [sp, #324]	@ zero_extendqisi2
 3166 004a 8DF81230 		strb	r3, [sp, #18]
 3167 004e 9DF84831 		ldrb	r3, [sp, #328]	@ zero_extendqisi2
 3168 0052 8DF81330 		strb	r3, [sp, #19]
 3169 0056 0622     		movs	r2, #6
 3170 0058 5399     		ldr	r1, [sp, #332]
 3171 005a 05A8     		add	r0, sp, #20
 3172 005c FFF7FEFF 		bl	Osal_MemCpy
 3173 0060 9DF85031 		ldrb	r3, [sp, #336]	@ zero_extendqisi2
 3174 0064 8DF81A30 		strb	r3, [sp, #26]
 3175 0068 9DF85431 		ldrb	r3, [sp, #340]	@ zero_extendqisi2
 3176 006c 8DF81B30 		strb	r3, [sp, #27]
 3177 0070 9DF85831 		ldrb	r3, [sp, #344]	@ zero_extendqisi2
 3178 0074 8DF81C30 		strb	r3, [sp, #28]
 3179 0078 9DF85C31 		ldrb	r3, [sp, #348]	@ zero_extendqisi2
 3180 007c 8DF81D30 		strb	r3, [sp, #29]
 3181 0080 9DF86031 		ldrb	r3, [sp, #352]	@ zero_extendqisi2
 3182 0084 8DF81E30 		strb	r3, [sp, #30]
 3183 0088 9DF86431 		ldrb	r3, [sp, #356]	@ zero_extendqisi2
 3184 008c 8DF81F30 		strb	r3, [sp, #31]
 3185 0090 9DF86831 		ldrb	r3, [sp, #360]	@ zero_extendqisi2
 3186 0094 8DF82030 		strb	r3, [sp, #32]
 3187 0098 1822     		movs	r2, #24
 3188 009a 0021     		movs	r1, #0
 3189 009c 42A8     		add	r0, sp, #264
 3190 009e FFF7FEFF 		bl	Osal_MemSet
 3191 00a2 0823     		movs	r3, #8
 3192 00a4 ADF80831 		strh	r3, [sp, #264]	@ movhi
 3193 00a8 3623     		movs	r3, #54
 3194 00aa ADF80A31 		strh	r3, [sp, #266]	@ movhi
 3195 00ae 4494     		str	r4, [sp, #272]
 3196 00b0 1923     		movs	r3, #25
 3197 00b2 4593     		str	r3, [sp, #276]
 3198 00b4 CDF81891 		str	r9, [sp, #280]
 3199 00b8 0223     		movs	r3, #2
 3200 00ba 4793     		str	r3, [sp, #284]
 3201 00bc 0021     		movs	r1, #0
 3202 00be 42A8     		add	r0, sp, #264
 3203 00c0 FFF7FEFF 		bl	hci_send_req
 3204 00c4 0028     		cmp	r0, #0
 3205 00c6 09DB     		blt	.L265
ARM GAS  C:\Users\Nathan\AppData\Local\Temp\ccilHIuM.s 			page 55


 3206 00c8 9DF80400 		ldrb	r0, [sp, #4]	@ zero_extendqisi2
 3207 00cc 18B9     		cbnz	r0, .L264
 3208 00ce 9DF80520 		ldrb	r2, [sp, #5]	@ zero_extendqisi2
 3209 00d2 5B9B     		ldr	r3, [sp, #364]
 3210 00d4 1A70     		strb	r2, [r3]
 3211              	.L264:
 3212 00d6 49B0     		add	sp, sp, #292
 3213              		@ sp needed
 3214 00d8 BDE8F083 		pop	{r4, r5, r6, r7, r8, r9, pc}
 3215              	.L265:
 3216 00dc FF20     		movs	r0, #255
 3217 00de FAE7     		b	.L264
 3219              		.section	.text.hci_le_set_extended_advertising_data,"ax",%progbits
 3220              		.align	1
 3221              		.global	hci_le_set_extended_advertising_data
 3222              		.syntax unified
 3223              		.thumb
 3224              		.thumb_func
 3226              	hci_le_set_extended_advertising_data:
 3227              		@ args = 4, pretend = 0, frame = 288
 3228              		@ frame_needed = 0, uses_anonymous_args = 0
 3229 0000 F0B5     		push	{r4, r5, r6, r7, lr}
 3230 0002 C9B0     		sub	sp, sp, #292
 3231 0004 1C46     		mov	r4, r3
 3232 0006 0DF10707 		add	r7, sp, #7
 3233 000a 0026     		movs	r6, #0
 3234 000c 8DF80760 		strb	r6, [sp, #7]
 3235 0010 02AD     		add	r5, sp, #8
 3236 0012 8DF80800 		strb	r0, [sp, #8]
 3237 0016 8DF80910 		strb	r1, [sp, #9]
 3238 001a 8DF80A20 		strb	r2, [sp, #10]
 3239 001e 8DF80B30 		strb	r3, [sp, #11]
 3240 0022 1A46     		mov	r2, r3
 3241 0024 4E99     		ldr	r1, [sp, #312]
 3242 0026 03A8     		add	r0, sp, #12
 3243 0028 FFF7FEFF 		bl	Osal_MemCpy
 3244 002c 0434     		adds	r4, r4, #4
 3245 002e 1822     		movs	r2, #24
 3246 0030 3146     		mov	r1, r6
 3247 0032 42A8     		add	r0, sp, #264
 3248 0034 FFF7FEFF 		bl	Osal_MemSet
 3249 0038 0823     		movs	r3, #8
 3250 003a ADF80831 		strh	r3, [sp, #264]	@ movhi
 3251 003e 3723     		movs	r3, #55
 3252 0040 ADF80A31 		strh	r3, [sp, #266]	@ movhi
 3253 0044 4495     		str	r5, [sp, #272]
 3254 0046 4594     		str	r4, [sp, #276]
 3255 0048 4697     		str	r7, [sp, #280]
 3256 004a 0123     		movs	r3, #1
 3257 004c 4793     		str	r3, [sp, #284]
 3258 004e 3146     		mov	r1, r6
 3259 0050 42A8     		add	r0, sp, #264
 3260 0052 FFF7FEFF 		bl	hci_send_req
 3261 0056 B042     		cmp	r0, r6
 3262 0058 03DB     		blt	.L269
 3263 005a 9DF80700 		ldrb	r0, [sp, #7]	@ zero_extendqisi2
 3264              	.L268:
ARM GAS  C:\Users\Nathan\AppData\Local\Temp\ccilHIuM.s 			page 56


 3265 005e 49B0     		add	sp, sp, #292
 3266              		@ sp needed
 3267 0060 F0BD     		pop	{r4, r5, r6, r7, pc}
 3268              	.L269:
 3269 0062 FF20     		movs	r0, #255
 3270 0064 FBE7     		b	.L268
 3272              		.section	.text.hci_le_set_extended_scan_response_data,"ax",%progbits
 3273              		.align	1
 3274              		.global	hci_le_set_extended_scan_response_data
 3275              		.syntax unified
 3276              		.thumb
 3277              		.thumb_func
 3279              	hci_le_set_extended_scan_response_data:
 3280              		@ args = 4, pretend = 0, frame = 288
 3281              		@ frame_needed = 0, uses_anonymous_args = 0
 3282 0000 F0B5     		push	{r4, r5, r6, r7, lr}
 3283 0002 C9B0     		sub	sp, sp, #292
 3284 0004 1C46     		mov	r4, r3
 3285 0006 0DF10707 		add	r7, sp, #7
 3286 000a 0026     		movs	r6, #0
 3287 000c 8DF80760 		strb	r6, [sp, #7]
 3288 0010 02AD     		add	r5, sp, #8
 3289 0012 8DF80800 		strb	r0, [sp, #8]
 3290 0016 8DF80910 		strb	r1, [sp, #9]
 3291 001a 8DF80A20 		strb	r2, [sp, #10]
 3292 001e 8DF80B30 		strb	r3, [sp, #11]
 3293 0022 1A46     		mov	r2, r3
 3294 0024 4E99     		ldr	r1, [sp, #312]
 3295 0026 03A8     		add	r0, sp, #12
 3296 0028 FFF7FEFF 		bl	Osal_MemCpy
 3297 002c 0434     		adds	r4, r4, #4
 3298 002e 1822     		movs	r2, #24
 3299 0030 3146     		mov	r1, r6
 3300 0032 42A8     		add	r0, sp, #264
 3301 0034 FFF7FEFF 		bl	Osal_MemSet
 3302 0038 0823     		movs	r3, #8
 3303 003a ADF80831 		strh	r3, [sp, #264]	@ movhi
 3304 003e 3823     		movs	r3, #56
 3305 0040 ADF80A31 		strh	r3, [sp, #266]	@ movhi
 3306 0044 4495     		str	r5, [sp, #272]
 3307 0046 4594     		str	r4, [sp, #276]
 3308 0048 4697     		str	r7, [sp, #280]
 3309 004a 0123     		movs	r3, #1
 3310 004c 4793     		str	r3, [sp, #284]
 3311 004e 3146     		mov	r1, r6
 3312 0050 42A8     		add	r0, sp, #264
 3313 0052 FFF7FEFF 		bl	hci_send_req
 3314 0056 B042     		cmp	r0, r6
 3315 0058 03DB     		blt	.L273
 3316 005a 9DF80700 		ldrb	r0, [sp, #7]	@ zero_extendqisi2
 3317              	.L272:
 3318 005e 49B0     		add	sp, sp, #292
 3319              		@ sp needed
 3320 0060 F0BD     		pop	{r4, r5, r6, r7, pc}
 3321              	.L273:
 3322 0062 FF20     		movs	r0, #255
 3323 0064 FBE7     		b	.L272
ARM GAS  C:\Users\Nathan\AppData\Local\Temp\ccilHIuM.s 			page 57


 3325              		.section	.text.hci_le_set_extended_advertising_enable,"ax",%progbits
 3326              		.align	1
 3327              		.global	hci_le_set_extended_advertising_enable
 3328              		.syntax unified
 3329              		.thumb
 3330              		.thumb_func
 3332              	hci_le_set_extended_advertising_enable:
 3333              		@ args = 0, pretend = 0, frame = 288
 3334              		@ frame_needed = 0, uses_anonymous_args = 0
 3335 0000 F0B5     		push	{r4, r5, r6, r7, lr}
 3336 0002 C9B0     		sub	sp, sp, #292
 3337 0004 0C46     		mov	r4, r1
 3338 0006 1146     		mov	r1, r2
 3339 0008 0DF10707 		add	r7, sp, #7
 3340 000c 0025     		movs	r5, #0
 3341 000e 8DF80750 		strb	r5, [sp, #7]
 3342 0012 02AE     		add	r6, sp, #8
 3343 0014 8DF80800 		strb	r0, [sp, #8]
 3344 0018 8DF80940 		strb	r4, [sp, #9]
 3345 001c A400     		lsls	r4, r4, #2
 3346 001e 2246     		mov	r2, r4
 3347 0020 0DF10A00 		add	r0, sp, #10
 3348 0024 FFF7FEFF 		bl	Osal_MemCpy
 3349 0028 0234     		adds	r4, r4, #2
 3350 002a 1822     		movs	r2, #24
 3351 002c 2946     		mov	r1, r5
 3352 002e 42A8     		add	r0, sp, #264
 3353 0030 FFF7FEFF 		bl	Osal_MemSet
 3354 0034 0823     		movs	r3, #8
 3355 0036 ADF80831 		strh	r3, [sp, #264]	@ movhi
 3356 003a 3923     		movs	r3, #57
 3357 003c ADF80A31 		strh	r3, [sp, #266]	@ movhi
 3358 0040 4496     		str	r6, [sp, #272]
 3359 0042 4594     		str	r4, [sp, #276]
 3360 0044 4697     		str	r7, [sp, #280]
 3361 0046 0123     		movs	r3, #1
 3362 0048 4793     		str	r3, [sp, #284]
 3363 004a 2946     		mov	r1, r5
 3364 004c 42A8     		add	r0, sp, #264
 3365 004e FFF7FEFF 		bl	hci_send_req
 3366 0052 A842     		cmp	r0, r5
 3367 0054 03DB     		blt	.L277
 3368 0056 9DF80700 		ldrb	r0, [sp, #7]	@ zero_extendqisi2
 3369              	.L276:
 3370 005a 49B0     		add	sp, sp, #292
 3371              		@ sp needed
 3372 005c F0BD     		pop	{r4, r5, r6, r7, pc}
 3373              	.L277:
 3374 005e FF20     		movs	r0, #255
 3375 0060 FBE7     		b	.L276
 3377              		.section	.text.hci_le_read_maximum_advertising_data_length,"ax",%progbits
 3378              		.align	1
 3379              		.global	hci_le_read_maximum_advertising_data_length
 3380              		.syntax unified
 3381              		.thumb
 3382              		.thumb_func
 3384              	hci_le_read_maximum_advertising_data_length:
ARM GAS  C:\Users\Nathan\AppData\Local\Temp\ccilHIuM.s 			page 58


 3385              		@ args = 0, pretend = 0, frame = 32
 3386              		@ frame_needed = 0, uses_anonymous_args = 0
 3387 0000 30B5     		push	{r4, r5, lr}
 3388 0002 89B0     		sub	sp, sp, #36
 3389 0004 0446     		mov	r4, r0
 3390 0006 01AD     		add	r5, sp, #4
 3391 0008 0322     		movs	r2, #3
 3392 000a 0021     		movs	r1, #0
 3393 000c 2846     		mov	r0, r5
 3394 000e FFF7FEFF 		bl	Osal_MemSet
 3395 0012 1822     		movs	r2, #24
 3396 0014 0021     		movs	r1, #0
 3397 0016 02A8     		add	r0, sp, #8
 3398 0018 FFF7FEFF 		bl	Osal_MemSet
 3399 001c 0823     		movs	r3, #8
 3400 001e ADF80830 		strh	r3, [sp, #8]	@ movhi
 3401 0022 3A23     		movs	r3, #58
 3402 0024 ADF80A30 		strh	r3, [sp, #10]	@ movhi
 3403 0028 0695     		str	r5, [sp, #24]
 3404 002a 0323     		movs	r3, #3
 3405 002c 0793     		str	r3, [sp, #28]
 3406 002e 0021     		movs	r1, #0
 3407 0030 02A8     		add	r0, sp, #8
 3408 0032 FFF7FEFF 		bl	hci_send_req
 3409 0036 0028     		cmp	r0, #0
 3410 0038 07DB     		blt	.L281
 3411 003a 9DF80400 		ldrb	r0, [sp, #4]	@ zero_extendqisi2
 3412 003e 10B9     		cbnz	r0, .L280
 3413 0040 BDF80530 		ldrh	r3, [sp, #5]	@ unaligned
 3414 0044 2380     		strh	r3, [r4]	@ movhi
 3415              	.L280:
 3416 0046 09B0     		add	sp, sp, #36
 3417              		@ sp needed
 3418 0048 30BD     		pop	{r4, r5, pc}
 3419              	.L281:
 3420 004a FF20     		movs	r0, #255
 3421 004c FBE7     		b	.L280
 3423              		.section	.text.hci_le_read_number_of_supported_advertising_sets,"ax",%progbits
 3424              		.align	1
 3425              		.global	hci_le_read_number_of_supported_advertising_sets
 3426              		.syntax unified
 3427              		.thumb
 3428              		.thumb_func
 3430              	hci_le_read_number_of_supported_advertising_sets:
 3431              		@ args = 0, pretend = 0, frame = 32
 3432              		@ frame_needed = 0, uses_anonymous_args = 0
 3433 0000 30B5     		push	{r4, r5, lr}
 3434 0002 89B0     		sub	sp, sp, #36
 3435 0004 0446     		mov	r4, r0
 3436 0006 01AD     		add	r5, sp, #4
 3437 0008 0222     		movs	r2, #2
 3438 000a 0021     		movs	r1, #0
 3439 000c 2846     		mov	r0, r5
 3440 000e FFF7FEFF 		bl	Osal_MemSet
 3441 0012 1822     		movs	r2, #24
 3442 0014 0021     		movs	r1, #0
 3443 0016 02A8     		add	r0, sp, #8
ARM GAS  C:\Users\Nathan\AppData\Local\Temp\ccilHIuM.s 			page 59


 3444 0018 FFF7FEFF 		bl	Osal_MemSet
 3445 001c 0823     		movs	r3, #8
 3446 001e ADF80830 		strh	r3, [sp, #8]	@ movhi
 3447 0022 3B23     		movs	r3, #59
 3448 0024 ADF80A30 		strh	r3, [sp, #10]	@ movhi
 3449 0028 0695     		str	r5, [sp, #24]
 3450 002a 0223     		movs	r3, #2
 3451 002c 0793     		str	r3, [sp, #28]
 3452 002e 0021     		movs	r1, #0
 3453 0030 02A8     		add	r0, sp, #8
 3454 0032 FFF7FEFF 		bl	hci_send_req
 3455 0036 0028     		cmp	r0, #0
 3456 0038 07DB     		blt	.L285
 3457 003a 9DF80400 		ldrb	r0, [sp, #4]	@ zero_extendqisi2
 3458 003e 10B9     		cbnz	r0, .L284
 3459 0040 9DF80530 		ldrb	r3, [sp, #5]	@ zero_extendqisi2
 3460 0044 2370     		strb	r3, [r4]
 3461              	.L284:
 3462 0046 09B0     		add	sp, sp, #36
 3463              		@ sp needed
 3464 0048 30BD     		pop	{r4, r5, pc}
 3465              	.L285:
 3466 004a FF20     		movs	r0, #255
 3467 004c FBE7     		b	.L284
 3469              		.section	.text.hci_le_remove_advertising_set,"ax",%progbits
 3470              		.align	1
 3471              		.global	hci_le_remove_advertising_set
 3472              		.syntax unified
 3473              		.thumb
 3474              		.thumb_func
 3476              	hci_le_remove_advertising_set:
 3477              		@ args = 0, pretend = 0, frame = 288
 3478              		@ frame_needed = 0, uses_anonymous_args = 0
 3479 0000 70B5     		push	{r4, r5, r6, lr}
 3480 0002 C8B0     		sub	sp, sp, #288
 3481 0004 0DF10705 		add	r5, sp, #7
 3482 0008 0024     		movs	r4, #0
 3483 000a 8DF80740 		strb	r4, [sp, #7]
 3484 000e 02AE     		add	r6, sp, #8
 3485 0010 8DF80800 		strb	r0, [sp, #8]
 3486 0014 1822     		movs	r2, #24
 3487 0016 2146     		mov	r1, r4
 3488 0018 42A8     		add	r0, sp, #264
 3489 001a FFF7FEFF 		bl	Osal_MemSet
 3490 001e 0823     		movs	r3, #8
 3491 0020 ADF80831 		strh	r3, [sp, #264]	@ movhi
 3492 0024 3C23     		movs	r3, #60
 3493 0026 ADF80A31 		strh	r3, [sp, #266]	@ movhi
 3494 002a 4496     		str	r6, [sp, #272]
 3495 002c 0123     		movs	r3, #1
 3496 002e 4593     		str	r3, [sp, #276]
 3497 0030 4695     		str	r5, [sp, #280]
 3498 0032 4793     		str	r3, [sp, #284]
 3499 0034 2146     		mov	r1, r4
 3500 0036 42A8     		add	r0, sp, #264
 3501 0038 FFF7FEFF 		bl	hci_send_req
 3502 003c A042     		cmp	r0, r4
ARM GAS  C:\Users\Nathan\AppData\Local\Temp\ccilHIuM.s 			page 60


 3503 003e 03DB     		blt	.L289
 3504 0040 9DF80700 		ldrb	r0, [sp, #7]	@ zero_extendqisi2
 3505              	.L288:
 3506 0044 48B0     		add	sp, sp, #288
 3507              		@ sp needed
 3508 0046 70BD     		pop	{r4, r5, r6, pc}
 3509              	.L289:
 3510 0048 FF20     		movs	r0, #255
 3511 004a FBE7     		b	.L288
 3513              		.section	.text.hci_le_clear_advertising_sets,"ax",%progbits
 3514              		.align	1
 3515              		.global	hci_le_clear_advertising_sets
 3516              		.syntax unified
 3517              		.thumb
 3518              		.thumb_func
 3520              	hci_le_clear_advertising_sets:
 3521              		@ args = 0, pretend = 0, frame = 32
 3522              		@ frame_needed = 0, uses_anonymous_args = 0
 3523 0000 10B5     		push	{r4, lr}
 3524 0002 88B0     		sub	sp, sp, #32
 3525 0004 0024     		movs	r4, #0
 3526 0006 8DF80740 		strb	r4, [sp, #7]
 3527 000a 1822     		movs	r2, #24
 3528 000c 2146     		mov	r1, r4
 3529 000e 02A8     		add	r0, sp, #8
 3530 0010 FFF7FEFF 		bl	Osal_MemSet
 3531 0014 0823     		movs	r3, #8
 3532 0016 ADF80830 		strh	r3, [sp, #8]	@ movhi
 3533 001a 3D23     		movs	r3, #61
 3534 001c ADF80A30 		strh	r3, [sp, #10]	@ movhi
 3535 0020 0DF10703 		add	r3, sp, #7
 3536 0024 0693     		str	r3, [sp, #24]
 3537 0026 0123     		movs	r3, #1
 3538 0028 0793     		str	r3, [sp, #28]
 3539 002a 2146     		mov	r1, r4
 3540 002c 02A8     		add	r0, sp, #8
 3541 002e FFF7FEFF 		bl	hci_send_req
 3542 0032 A042     		cmp	r0, r4
 3543 0034 03DB     		blt	.L293
 3544 0036 9DF80700 		ldrb	r0, [sp, #7]	@ zero_extendqisi2
 3545              	.L292:
 3546 003a 08B0     		add	sp, sp, #32
 3547              		@ sp needed
 3548 003c 10BD     		pop	{r4, pc}
 3549              	.L293:
 3550 003e FF20     		movs	r0, #255
 3551 0040 FBE7     		b	.L292
 3553              		.section	.text.hci_le_set_extended_scan_parameters,"ax",%progbits
 3554              		.align	1
 3555              		.global	hci_le_set_extended_scan_parameters
 3556              		.syntax unified
 3557              		.thumb
 3558              		.thumb_func
 3560              	hci_le_set_extended_scan_parameters:
 3561              		@ args = 0, pretend = 0, frame = 288
 3562              		@ frame_needed = 0, uses_anonymous_args = 0
 3563 0000 70B5     		push	{r4, r5, r6, lr}
ARM GAS  C:\Users\Nathan\AppData\Local\Temp\ccilHIuM.s 			page 61


 3564 0002 C8B0     		sub	sp, sp, #288
 3565 0004 0DF10706 		add	r6, sp, #7
 3566 0008 0025     		movs	r5, #0
 3567 000a 8DF80750 		strb	r5, [sp, #7]
 3568 000e 02AC     		add	r4, sp, #8
 3569 0010 8DF80800 		strb	r0, [sp, #8]
 3570 0014 8DF80910 		strb	r1, [sp, #9]
 3571 0018 8DF80A20 		strb	r2, [sp, #10]
 3572 001c 0A22     		movs	r2, #10
 3573 001e 1946     		mov	r1, r3
 3574 0020 0DF10B00 		add	r0, sp, #11
 3575 0024 FFF7FEFF 		bl	Osal_MemCpy
 3576 0028 1822     		movs	r2, #24
 3577 002a 2946     		mov	r1, r5
 3578 002c 42A8     		add	r0, sp, #264
 3579 002e FFF7FEFF 		bl	Osal_MemSet
 3580 0032 0823     		movs	r3, #8
 3581 0034 ADF80831 		strh	r3, [sp, #264]	@ movhi
 3582 0038 4123     		movs	r3, #65
 3583 003a ADF80A31 		strh	r3, [sp, #266]	@ movhi
 3584 003e 4494     		str	r4, [sp, #272]
 3585 0040 0D23     		movs	r3, #13
 3586 0042 4593     		str	r3, [sp, #276]
 3587 0044 4696     		str	r6, [sp, #280]
 3588 0046 0123     		movs	r3, #1
 3589 0048 4793     		str	r3, [sp, #284]
 3590 004a 2946     		mov	r1, r5
 3591 004c 42A8     		add	r0, sp, #264
 3592 004e FFF7FEFF 		bl	hci_send_req
 3593 0052 A842     		cmp	r0, r5
 3594 0054 03DB     		blt	.L297
 3595 0056 9DF80700 		ldrb	r0, [sp, #7]	@ zero_extendqisi2
 3596              	.L296:
 3597 005a 48B0     		add	sp, sp, #288
 3598              		@ sp needed
 3599 005c 70BD     		pop	{r4, r5, r6, pc}
 3600              	.L297:
 3601 005e FF20     		movs	r0, #255
 3602 0060 FBE7     		b	.L296
 3604              		.section	.text.hci_le_set_extended_scan_enable,"ax",%progbits
 3605              		.align	1
 3606              		.global	hci_le_set_extended_scan_enable
 3607              		.syntax unified
 3608              		.thumb
 3609              		.thumb_func
 3611              	hci_le_set_extended_scan_enable:
 3612              		@ args = 0, pretend = 0, frame = 288
 3613              		@ frame_needed = 0, uses_anonymous_args = 0
 3614 0000 70B5     		push	{r4, r5, r6, lr}
 3615 0002 C8B0     		sub	sp, sp, #288
 3616 0004 0DF10706 		add	r6, sp, #7
 3617 0008 0025     		movs	r5, #0
 3618 000a 8DF80750 		strb	r5, [sp, #7]
 3619 000e 02AC     		add	r4, sp, #8
 3620 0010 8DF80800 		strb	r0, [sp, #8]
 3621 0014 8DF80910 		strb	r1, [sp, #9]
 3622 0018 ADF80A20 		strh	r2, [sp, #10]	@ movhi
ARM GAS  C:\Users\Nathan\AppData\Local\Temp\ccilHIuM.s 			page 62


 3623 001c ADF80C30 		strh	r3, [sp, #12]	@ movhi
 3624 0020 1822     		movs	r2, #24
 3625 0022 2946     		mov	r1, r5
 3626 0024 42A8     		add	r0, sp, #264
 3627 0026 FFF7FEFF 		bl	Osal_MemSet
 3628 002a 0823     		movs	r3, #8
 3629 002c ADF80831 		strh	r3, [sp, #264]	@ movhi
 3630 0030 4223     		movs	r3, #66
 3631 0032 ADF80A31 		strh	r3, [sp, #266]	@ movhi
 3632 0036 4494     		str	r4, [sp, #272]
 3633 0038 0623     		movs	r3, #6
 3634 003a 4593     		str	r3, [sp, #276]
 3635 003c 4696     		str	r6, [sp, #280]
 3636 003e 0123     		movs	r3, #1
 3637 0040 4793     		str	r3, [sp, #284]
 3638 0042 2946     		mov	r1, r5
 3639 0044 42A8     		add	r0, sp, #264
 3640 0046 FFF7FEFF 		bl	hci_send_req
 3641 004a A842     		cmp	r0, r5
 3642 004c 03DB     		blt	.L301
 3643 004e 9DF80700 		ldrb	r0, [sp, #7]	@ zero_extendqisi2
 3644              	.L300:
 3645 0052 48B0     		add	sp, sp, #288
 3646              		@ sp needed
 3647 0054 70BD     		pop	{r4, r5, r6, pc}
 3648              	.L301:
 3649 0056 FF20     		movs	r0, #255
 3650 0058 FBE7     		b	.L300
 3652              		.section	.text.hci_le_extended_create_connection,"ax",%progbits
 3653              		.align	1
 3654              		.global	hci_le_extended_create_connection
 3655              		.syntax unified
 3656              		.thumb
 3657              		.thumb_func
 3659              	hci_le_extended_create_connection:
 3660              		@ args = 8, pretend = 0, frame = 288
 3661              		@ frame_needed = 0, uses_anonymous_args = 0
 3662 0000 70B5     		push	{r4, r5, r6, lr}
 3663 0002 C8B0     		sub	sp, sp, #288
 3664 0004 0DF10706 		add	r6, sp, #7
 3665 0008 0025     		movs	r5, #0
 3666 000a 8DF80750 		strb	r5, [sp, #7]
 3667 000e 02AC     		add	r4, sp, #8
 3668 0010 8DF80800 		strb	r0, [sp, #8]
 3669 0014 8DF80910 		strb	r1, [sp, #9]
 3670 0018 8DF80A20 		strb	r2, [sp, #10]
 3671 001c 0622     		movs	r2, #6
 3672 001e 1946     		mov	r1, r3
 3673 0020 0DF10B00 		add	r0, sp, #11
 3674 0024 FFF7FEFF 		bl	Osal_MemCpy
 3675 0028 9DF83031 		ldrb	r3, [sp, #304]	@ zero_extendqisi2
 3676 002c 8DF81130 		strb	r3, [sp, #17]
 3677 0030 3022     		movs	r2, #48
 3678 0032 4D99     		ldr	r1, [sp, #308]
 3679 0034 0DF11200 		add	r0, sp, #18
 3680 0038 FFF7FEFF 		bl	Osal_MemCpy
 3681 003c 1822     		movs	r2, #24
ARM GAS  C:\Users\Nathan\AppData\Local\Temp\ccilHIuM.s 			page 63


 3682 003e 2946     		mov	r1, r5
 3683 0040 42A8     		add	r0, sp, #264
 3684 0042 FFF7FEFF 		bl	Osal_MemSet
 3685 0046 0823     		movs	r3, #8
 3686 0048 ADF80831 		strh	r3, [sp, #264]	@ movhi
 3687 004c 4323     		movs	r3, #67
 3688 004e ADF80A31 		strh	r3, [sp, #266]	@ movhi
 3689 0052 0F23     		movs	r3, #15
 3690 0054 4393     		str	r3, [sp, #268]
 3691 0056 4494     		str	r4, [sp, #272]
 3692 0058 3A23     		movs	r3, #58
 3693 005a 4593     		str	r3, [sp, #276]
 3694 005c 4696     		str	r6, [sp, #280]
 3695 005e 0123     		movs	r3, #1
 3696 0060 4793     		str	r3, [sp, #284]
 3697 0062 2946     		mov	r1, r5
 3698 0064 42A8     		add	r0, sp, #264
 3699 0066 FFF7FEFF 		bl	hci_send_req
 3700 006a A842     		cmp	r0, r5
 3701 006c 03DB     		blt	.L305
 3702 006e 9DF80700 		ldrb	r0, [sp, #7]	@ zero_extendqisi2
 3703              	.L304:
 3704 0072 48B0     		add	sp, sp, #288
 3705              		@ sp needed
 3706 0074 70BD     		pop	{r4, r5, r6, pc}
 3707              	.L305:
 3708 0076 FF20     		movs	r0, #255
 3709 0078 FBE7     		b	.L304
 3711              		.section	.text.hci_le_read_transmit_power,"ax",%progbits
 3712              		.align	1
 3713              		.global	hci_le_read_transmit_power
 3714              		.syntax unified
 3715              		.thumb
 3716              		.thumb_func
 3718              	hci_le_read_transmit_power:
 3719              		@ args = 0, pretend = 0, frame = 32
 3720              		@ frame_needed = 0, uses_anonymous_args = 0
 3721 0000 70B5     		push	{r4, r5, r6, lr}
 3722 0002 88B0     		sub	sp, sp, #32
 3723 0004 0546     		mov	r5, r0
 3724 0006 0E46     		mov	r6, r1
 3725 0008 01AC     		add	r4, sp, #4
 3726 000a 0322     		movs	r2, #3
 3727 000c 0021     		movs	r1, #0
 3728 000e 2046     		mov	r0, r4
 3729 0010 FFF7FEFF 		bl	Osal_MemSet
 3730 0014 1822     		movs	r2, #24
 3731 0016 0021     		movs	r1, #0
 3732 0018 02A8     		add	r0, sp, #8
 3733 001a FFF7FEFF 		bl	Osal_MemSet
 3734 001e 0823     		movs	r3, #8
 3735 0020 ADF80830 		strh	r3, [sp, #8]	@ movhi
 3736 0024 4B23     		movs	r3, #75
 3737 0026 ADF80A30 		strh	r3, [sp, #10]	@ movhi
 3738 002a 0694     		str	r4, [sp, #24]
 3739 002c 0323     		movs	r3, #3
 3740 002e 0793     		str	r3, [sp, #28]
ARM GAS  C:\Users\Nathan\AppData\Local\Temp\ccilHIuM.s 			page 64


 3741 0030 0021     		movs	r1, #0
 3742 0032 02A8     		add	r0, sp, #8
 3743 0034 FFF7FEFF 		bl	hci_send_req
 3744 0038 0028     		cmp	r0, #0
 3745 003a 0ADB     		blt	.L309
 3746 003c 9DF80400 		ldrb	r0, [sp, #4]	@ zero_extendqisi2
 3747 0040 28B9     		cbnz	r0, .L308
 3748 0042 9DF80530 		ldrb	r3, [sp, #5]	@ zero_extendqisi2
 3749 0046 2B70     		strb	r3, [r5]
 3750 0048 9DF80630 		ldrb	r3, [sp, #6]	@ zero_extendqisi2
 3751 004c 3370     		strb	r3, [r6]
 3752              	.L308:
 3753 004e 08B0     		add	sp, sp, #32
 3754              		@ sp needed
 3755 0050 70BD     		pop	{r4, r5, r6, pc}
 3756              	.L309:
 3757 0052 FF20     		movs	r0, #255
 3758 0054 FBE7     		b	.L308
 3760              		.section	.text.hci_le_read_rf_path_compensation,"ax",%progbits
 3761              		.align	1
 3762              		.global	hci_le_read_rf_path_compensation
 3763              		.syntax unified
 3764              		.thumb
 3765              		.thumb_func
 3767              	hci_le_read_rf_path_compensation:
 3768              		@ args = 0, pretend = 0, frame = 32
 3769              		@ frame_needed = 0, uses_anonymous_args = 0
 3770 0000 30B5     		push	{r4, r5, lr}
 3771 0002 89B0     		sub	sp, sp, #36
 3772 0004 0546     		mov	r5, r0
 3773 0006 0C46     		mov	r4, r1
 3774 0008 0522     		movs	r2, #5
 3775 000a 0021     		movs	r1, #0
 3776 000c 6846     		mov	r0, sp
 3777 000e FFF7FEFF 		bl	Osal_MemSet
 3778 0012 1822     		movs	r2, #24
 3779 0014 0021     		movs	r1, #0
 3780 0016 02A8     		add	r0, sp, #8
 3781 0018 FFF7FEFF 		bl	Osal_MemSet
 3782 001c 0823     		movs	r3, #8
 3783 001e ADF80830 		strh	r3, [sp, #8]	@ movhi
 3784 0022 4C23     		movs	r3, #76
 3785 0024 ADF80A30 		strh	r3, [sp, #10]	@ movhi
 3786 0028 CDF818D0 		str	sp, [sp, #24]
 3787 002c 0523     		movs	r3, #5
 3788 002e 0793     		str	r3, [sp, #28]
 3789 0030 0021     		movs	r1, #0
 3790 0032 02A8     		add	r0, sp, #8
 3791 0034 FFF7FEFF 		bl	hci_send_req
 3792 0038 0028     		cmp	r0, #0
 3793 003a 0ADB     		blt	.L313
 3794 003c 9DF80000 		ldrb	r0, [sp]	@ zero_extendqisi2
 3795 0040 28B9     		cbnz	r0, .L312
 3796 0042 BDF80130 		ldrh	r3, [sp, #1]	@ unaligned
 3797 0046 2B80     		strh	r3, [r5]	@ movhi
 3798 0048 BDF80330 		ldrh	r3, [sp, #3]	@ unaligned
 3799 004c 2380     		strh	r3, [r4]	@ movhi
ARM GAS  C:\Users\Nathan\AppData\Local\Temp\ccilHIuM.s 			page 65


 3800              	.L312:
 3801 004e 09B0     		add	sp, sp, #36
 3802              		@ sp needed
 3803 0050 30BD     		pop	{r4, r5, pc}
 3804              	.L313:
 3805 0052 FF20     		movs	r0, #255
 3806 0054 FBE7     		b	.L312
 3808              		.section	.text.hci_le_write_rf_path_compensation,"ax",%progbits
 3809              		.align	1
 3810              		.global	hci_le_write_rf_path_compensation
 3811              		.syntax unified
 3812              		.thumb
 3813              		.thumb_func
 3815              	hci_le_write_rf_path_compensation:
 3816              		@ args = 0, pretend = 0, frame = 288
 3817              		@ frame_needed = 0, uses_anonymous_args = 0
 3818 0000 70B5     		push	{r4, r5, r6, lr}
 3819 0002 C8B0     		sub	sp, sp, #288
 3820 0004 0DF10706 		add	r6, sp, #7
 3821 0008 0024     		movs	r4, #0
 3822 000a 8DF80740 		strb	r4, [sp, #7]
 3823 000e 02AD     		add	r5, sp, #8
 3824 0010 ADF80800 		strh	r0, [sp, #8]	@ movhi
 3825 0014 ADF80A10 		strh	r1, [sp, #10]	@ movhi
 3826 0018 1822     		movs	r2, #24
 3827 001a 2146     		mov	r1, r4
 3828 001c 42A8     		add	r0, sp, #264
 3829 001e FFF7FEFF 		bl	Osal_MemSet
 3830 0022 0823     		movs	r3, #8
 3831 0024 ADF80831 		strh	r3, [sp, #264]	@ movhi
 3832 0028 4D23     		movs	r3, #77
 3833 002a ADF80A31 		strh	r3, [sp, #266]	@ movhi
 3834 002e 4495     		str	r5, [sp, #272]
 3835 0030 0423     		movs	r3, #4
 3836 0032 4593     		str	r3, [sp, #276]
 3837 0034 4696     		str	r6, [sp, #280]
 3838 0036 0123     		movs	r3, #1
 3839 0038 4793     		str	r3, [sp, #284]
 3840 003a 2146     		mov	r1, r4
 3841 003c 42A8     		add	r0, sp, #264
 3842 003e FFF7FEFF 		bl	hci_send_req
 3843 0042 A042     		cmp	r0, r4
 3844 0044 03DB     		blt	.L317
 3845 0046 9DF80700 		ldrb	r0, [sp, #7]	@ zero_extendqisi2
 3846              	.L316:
 3847 004a 48B0     		add	sp, sp, #288
 3848              		@ sp needed
 3849 004c 70BD     		pop	{r4, r5, r6, pc}
 3850              	.L317:
 3851 004e FF20     		movs	r0, #255
 3852 0050 FBE7     		b	.L316
 3854              		.section	.text.hci_le_set_privacy_mode,"ax",%progbits
 3855              		.align	1
 3856              		.global	hci_le_set_privacy_mode
 3857              		.syntax unified
 3858              		.thumb
 3859              		.thumb_func
ARM GAS  C:\Users\Nathan\AppData\Local\Temp\ccilHIuM.s 			page 66


 3861              	hci_le_set_privacy_mode:
 3862              		@ args = 0, pretend = 0, frame = 288
 3863              		@ frame_needed = 0, uses_anonymous_args = 0
 3864 0000 F0B5     		push	{r4, r5, r6, r7, lr}
 3865 0002 C9B0     		sub	sp, sp, #292
 3866 0004 1646     		mov	r6, r2
 3867 0006 0DF10707 		add	r7, sp, #7
 3868 000a 0024     		movs	r4, #0
 3869 000c 8DF80740 		strb	r4, [sp, #7]
 3870 0010 02AD     		add	r5, sp, #8
 3871 0012 8DF80800 		strb	r0, [sp, #8]
 3872 0016 0622     		movs	r2, #6
 3873 0018 0DF10900 		add	r0, sp, #9
 3874 001c FFF7FEFF 		bl	Osal_MemCpy
 3875 0020 8DF80F60 		strb	r6, [sp, #15]
 3876 0024 1822     		movs	r2, #24
 3877 0026 2146     		mov	r1, r4
 3878 0028 42A8     		add	r0, sp, #264
 3879 002a FFF7FEFF 		bl	Osal_MemSet
 3880 002e 0823     		movs	r3, #8
 3881 0030 ADF80831 		strh	r3, [sp, #264]	@ movhi
 3882 0034 4E22     		movs	r2, #78
 3883 0036 ADF80A21 		strh	r2, [sp, #266]	@ movhi
 3884 003a 4495     		str	r5, [sp, #272]
 3885 003c 4593     		str	r3, [sp, #276]
 3886 003e 4697     		str	r7, [sp, #280]
 3887 0040 0123     		movs	r3, #1
 3888 0042 4793     		str	r3, [sp, #284]
 3889 0044 2146     		mov	r1, r4
 3890 0046 42A8     		add	r0, sp, #264
 3891 0048 FFF7FEFF 		bl	hci_send_req
 3892 004c A042     		cmp	r0, r4
 3893 004e 03DB     		blt	.L321
 3894 0050 9DF80700 		ldrb	r0, [sp, #7]	@ zero_extendqisi2
 3895              	.L320:
 3896 0054 49B0     		add	sp, sp, #292
 3897              		@ sp needed
 3898 0056 F0BD     		pop	{r4, r5, r6, r7, pc}
 3899              	.L321:
 3900 0058 FF20     		movs	r0, #255
 3901 005a FBE7     		b	.L320
 3903              		.section	.text.hci_le_generate_dhkey_v2,"ax",%progbits
 3904              		.align	1
 3905              		.global	hci_le_generate_dhkey_v2
 3906              		.syntax unified
 3907              		.thumb
 3908              		.thumb_func
 3910              	hci_le_generate_dhkey_v2:
 3911              		@ args = 0, pretend = 0, frame = 288
 3912              		@ frame_needed = 0, uses_anonymous_args = 0
 3913 0000 F0B5     		push	{r4, r5, r6, r7, lr}
 3914 0002 C9B0     		sub	sp, sp, #292
 3915 0004 0E46     		mov	r6, r1
 3916 0006 0DF10707 		add	r7, sp, #7
 3917 000a 0024     		movs	r4, #0
 3918 000c 8DF80740 		strb	r4, [sp, #7]
 3919 0010 02AD     		add	r5, sp, #8
ARM GAS  C:\Users\Nathan\AppData\Local\Temp\ccilHIuM.s 			page 67


 3920 0012 4022     		movs	r2, #64
 3921 0014 0146     		mov	r1, r0
 3922 0016 2846     		mov	r0, r5
 3923 0018 FFF7FEFF 		bl	Osal_MemCpy
 3924 001c 8DF84860 		strb	r6, [sp, #72]
 3925 0020 1822     		movs	r2, #24
 3926 0022 2146     		mov	r1, r4
 3927 0024 42A8     		add	r0, sp, #264
 3928 0026 FFF7FEFF 		bl	Osal_MemSet
 3929 002a 0823     		movs	r3, #8
 3930 002c ADF80831 		strh	r3, [sp, #264]	@ movhi
 3931 0030 5E23     		movs	r3, #94
 3932 0032 ADF80A31 		strh	r3, [sp, #266]	@ movhi
 3933 0036 0F23     		movs	r3, #15
 3934 0038 4393     		str	r3, [sp, #268]
 3935 003a 4495     		str	r5, [sp, #272]
 3936 003c 4123     		movs	r3, #65
 3937 003e 4593     		str	r3, [sp, #276]
 3938 0040 4697     		str	r7, [sp, #280]
 3939 0042 0123     		movs	r3, #1
 3940 0044 4793     		str	r3, [sp, #284]
 3941 0046 2146     		mov	r1, r4
 3942 0048 42A8     		add	r0, sp, #264
 3943 004a FFF7FEFF 		bl	hci_send_req
 3944 004e A042     		cmp	r0, r4
 3945 0050 03DB     		blt	.L325
 3946 0052 9DF80700 		ldrb	r0, [sp, #7]	@ zero_extendqisi2
 3947              	.L324:
 3948 0056 49B0     		add	sp, sp, #292
 3949              		@ sp needed
 3950 0058 F0BD     		pop	{r4, r5, r6, r7, pc}
 3951              	.L325:
 3952 005a FF20     		movs	r0, #255
 3953 005c FBE7     		b	.L324
 3955              		.ident	"GCC: (Arm GNU Toolchain 13.3.Rel1 (Build arm-13.24)) 13.3.1 20240614"
ARM GAS  C:\Users\Nathan\AppData\Local\Temp\ccilHIuM.s 			page 68

