ARM GAS  C:\Users\Nathan\AppData\Local\Temp\ccWZGwQN.s 			page 1


   1              		.cpu cortex-m4
   2              		.arch armv7e-m
   3              		.fpu fpv4-sp-d16
   4              		.eabi_attribute 27, 1
   5              		.eabi_attribute 28, 1
   6              		.eabi_attribute 20, 1
   7              		.eabi_attribute 21, 1
   8              		.eabi_attribute 23, 3
   9              		.eabi_attribute 24, 1
  10              		.eabi_attribute 25, 1
  11              		.eabi_attribute 26, 1
  12              		.eabi_attribute 30, 1
  13              		.eabi_attribute 34, 1
  14              		.eabi_attribute 18, 4
  15              		.file	"ble_gap_aci.c"
  16              		.text
  17              		.section	.text.aci_gap_set_non_discoverable,"ax",%progbits
  18              		.align	1
  19              		.global	aci_gap_set_non_discoverable
  20              		.syntax unified
  21              		.thumb
  22              		.thumb_func
  24              	aci_gap_set_non_discoverable:
  25              		@ args = 0, pretend = 0, frame = 32
  26              		@ frame_needed = 0, uses_anonymous_args = 0
  27 0000 10B5     		push	{r4, lr}
  28 0002 88B0     		sub	sp, sp, #32
  29 0004 0024     		movs	r4, #0
  30 0006 8DF80740 		strb	r4, [sp, #7]
  31 000a 1822     		movs	r2, #24
  32 000c 2146     		mov	r1, r4
  33 000e 02A8     		add	r0, sp, #8
  34 0010 FFF7FEFF 		bl	Osal_MemSet
  35 0014 3F23     		movs	r3, #63
  36 0016 ADF80830 		strh	r3, [sp, #8]	@ movhi
  37 001a 8123     		movs	r3, #129
  38 001c ADF80A30 		strh	r3, [sp, #10]	@ movhi
  39 0020 0DF10703 		add	r3, sp, #7
  40 0024 0693     		str	r3, [sp, #24]
  41 0026 0123     		movs	r3, #1
  42 0028 0793     		str	r3, [sp, #28]
  43 002a 2146     		mov	r1, r4
  44 002c 02A8     		add	r0, sp, #8
  45 002e FFF7FEFF 		bl	hci_send_req
  46 0032 A042     		cmp	r0, r4
  47 0034 03DB     		blt	.L3
  48 0036 9DF80700 		ldrb	r0, [sp, #7]	@ zero_extendqisi2
  49              	.L2:
  50 003a 08B0     		add	sp, sp, #32
  51              		@ sp needed
  52 003c 10BD     		pop	{r4, pc}
  53              	.L3:
  54 003e FF20     		movs	r0, #255
  55 0040 FBE7     		b	.L2
  57              		.section	.text.aci_gap_set_limited_discoverable,"ax",%progbits
  58              		.align	1
  59              		.global	aci_gap_set_limited_discoverable
ARM GAS  C:\Users\Nathan\AppData\Local\Temp\ccWZGwQN.s 			page 2


  60              		.syntax unified
  61              		.thumb
  62              		.thumb_func
  64              	aci_gap_set_limited_discoverable:
  65              		@ args = 28, pretend = 0, frame = 296
  66              		@ frame_needed = 0, uses_anonymous_args = 0
  67 0000 2DE9F04F 		push	{r4, r5, r6, r7, r8, r9, r10, fp, lr}
  68 0004 CBB0     		sub	sp, sp, #300
  69 0006 9C46     		mov	ip, r3
  70 0008 9DF85461 		ldrb	r6, [sp, #340]	@ zero_extendqisi2
  71 000c 9DF85C51 		ldrb	r5, [sp, #348]	@ zero_extendqisi2
  72 0010 06F1080A 		add	r10, r6, #8
  73 0014 04AC     		add	r4, sp, #16
  74 0016 04EB0A0B 		add	fp, r4, r10
  75 001a 7719     		adds	r7, r6, r5
  76 001c 0937     		adds	r7, r7, #9
  77 001e E319     		adds	r3, r4, r7
  78 0020 0193     		str	r3, [sp, #4]
  79 0022 0DF10F09 		add	r9, sp, #15
  80 0026 4FF00008 		mov	r8, #0
  81 002a 8DF80F80 		strb	r8, [sp, #15]
  82 002e 8DF81000 		strb	r0, [sp, #16]
  83 0032 ADF81110 		strh	r1, [sp, #17]	@ unaligned
  84 0036 ADF81320 		strh	r2, [sp, #19]	@ unaligned
  85 003a 8DF815C0 		strb	ip, [sp, #21]
  86 003e 9DF85031 		ldrb	r3, [sp, #336]	@ zero_extendqisi2
  87 0042 8DF81630 		strb	r3, [sp, #22]
  88 0046 8DF81760 		strb	r6, [sp, #23]
  89 004a 3246     		mov	r2, r6
  90 004c 5699     		ldr	r1, [sp, #344]
  91 004e 06A8     		add	r0, sp, #24
  92 0050 FFF7FEFF 		bl	Osal_MemCpy
  93 0054 04F80A50 		strb	r5, [r4, r10]
  94 0058 0936     		adds	r6, r6, #9
  95 005a 2A46     		mov	r2, r5
  96 005c 5899     		ldr	r1, [sp, #352]
  97 005e 0BF10100 		add	r0, fp, #1
  98 0062 FFF7FEFF 		bl	Osal_MemCpy
  99 0066 3544     		add	r5, r5, r6
 100 0068 BDF86431 		ldrh	r3, [sp, #356]
 101 006c E353     		strh	r3, [r4, r7]	@ unaligned
 102 006e BDF86831 		ldrh	r3, [sp, #360]
 103 0072 019A     		ldr	r2, [sp, #4]
 104 0074 5380     		strh	r3, [r2, #2]	@ unaligned
 105 0076 0435     		adds	r5, r5, #4
 106 0078 1822     		movs	r2, #24
 107 007a 4146     		mov	r1, r8
 108 007c 44A8     		add	r0, sp, #272
 109 007e FFF7FEFF 		bl	Osal_MemSet
 110 0082 3F23     		movs	r3, #63
 111 0084 ADF81031 		strh	r3, [sp, #272]	@ movhi
 112 0088 8223     		movs	r3, #130
 113 008a ADF81231 		strh	r3, [sp, #274]	@ movhi
 114 008e 0F23     		movs	r3, #15
 115 0090 4593     		str	r3, [sp, #276]
 116 0092 4694     		str	r4, [sp, #280]
 117 0094 4795     		str	r5, [sp, #284]
ARM GAS  C:\Users\Nathan\AppData\Local\Temp\ccWZGwQN.s 			page 3


 118 0096 CDF82091 		str	r9, [sp, #288]
 119 009a 0123     		movs	r3, #1
 120 009c 4993     		str	r3, [sp, #292]
 121 009e 4146     		mov	r1, r8
 122 00a0 44A8     		add	r0, sp, #272
 123 00a2 FFF7FEFF 		bl	hci_send_req
 124 00a6 4045     		cmp	r0, r8
 125 00a8 04DB     		blt	.L7
 126 00aa 9DF80F00 		ldrb	r0, [sp, #15]	@ zero_extendqisi2
 127              	.L6:
 128 00ae 4BB0     		add	sp, sp, #300
 129              		@ sp needed
 130 00b0 BDE8F08F 		pop	{r4, r5, r6, r7, r8, r9, r10, fp, pc}
 131              	.L7:
 132 00b4 FF20     		movs	r0, #255
 133 00b6 FAE7     		b	.L6
 135              		.section	.text.aci_gap_set_discoverable,"ax",%progbits
 136              		.align	1
 137              		.global	aci_gap_set_discoverable
 138              		.syntax unified
 139              		.thumb
 140              		.thumb_func
 142              	aci_gap_set_discoverable:
 143              		@ args = 28, pretend = 0, frame = 296
 144              		@ frame_needed = 0, uses_anonymous_args = 0
 145 0000 2DE9F04F 		push	{r4, r5, r6, r7, r8, r9, r10, fp, lr}
 146 0004 CBB0     		sub	sp, sp, #300
 147 0006 9C46     		mov	ip, r3
 148 0008 9DF85461 		ldrb	r6, [sp, #340]	@ zero_extendqisi2
 149 000c 9DF85C51 		ldrb	r5, [sp, #348]	@ zero_extendqisi2
 150 0010 06F1080A 		add	r10, r6, #8
 151 0014 04AC     		add	r4, sp, #16
 152 0016 04EB0A0B 		add	fp, r4, r10
 153 001a 7719     		adds	r7, r6, r5
 154 001c 0937     		adds	r7, r7, #9
 155 001e E319     		adds	r3, r4, r7
 156 0020 0193     		str	r3, [sp, #4]
 157 0022 0DF10F09 		add	r9, sp, #15
 158 0026 4FF00008 		mov	r8, #0
 159 002a 8DF80F80 		strb	r8, [sp, #15]
 160 002e 8DF81000 		strb	r0, [sp, #16]
 161 0032 ADF81110 		strh	r1, [sp, #17]	@ unaligned
 162 0036 ADF81320 		strh	r2, [sp, #19]	@ unaligned
 163 003a 8DF815C0 		strb	ip, [sp, #21]
 164 003e 9DF85031 		ldrb	r3, [sp, #336]	@ zero_extendqisi2
 165 0042 8DF81630 		strb	r3, [sp, #22]
 166 0046 8DF81760 		strb	r6, [sp, #23]
 167 004a 3246     		mov	r2, r6
 168 004c 5699     		ldr	r1, [sp, #344]
 169 004e 06A8     		add	r0, sp, #24
 170 0050 FFF7FEFF 		bl	Osal_MemCpy
 171 0054 04F80A50 		strb	r5, [r4, r10]
 172 0058 0936     		adds	r6, r6, #9
 173 005a 2A46     		mov	r2, r5
 174 005c 5899     		ldr	r1, [sp, #352]
 175 005e 0BF10100 		add	r0, fp, #1
 176 0062 FFF7FEFF 		bl	Osal_MemCpy
ARM GAS  C:\Users\Nathan\AppData\Local\Temp\ccWZGwQN.s 			page 4


 177 0066 3544     		add	r5, r5, r6
 178 0068 BDF86431 		ldrh	r3, [sp, #356]
 179 006c E353     		strh	r3, [r4, r7]	@ unaligned
 180 006e BDF86831 		ldrh	r3, [sp, #360]
 181 0072 019A     		ldr	r2, [sp, #4]
 182 0074 5380     		strh	r3, [r2, #2]	@ unaligned
 183 0076 0435     		adds	r5, r5, #4
 184 0078 1822     		movs	r2, #24
 185 007a 4146     		mov	r1, r8
 186 007c 44A8     		add	r0, sp, #272
 187 007e FFF7FEFF 		bl	Osal_MemSet
 188 0082 3F23     		movs	r3, #63
 189 0084 ADF81031 		strh	r3, [sp, #272]	@ movhi
 190 0088 8323     		movs	r3, #131
 191 008a ADF81231 		strh	r3, [sp, #274]	@ movhi
 192 008e 4694     		str	r4, [sp, #280]
 193 0090 4795     		str	r5, [sp, #284]
 194 0092 CDF82091 		str	r9, [sp, #288]
 195 0096 0123     		movs	r3, #1
 196 0098 4993     		str	r3, [sp, #292]
 197 009a 4146     		mov	r1, r8
 198 009c 44A8     		add	r0, sp, #272
 199 009e FFF7FEFF 		bl	hci_send_req
 200 00a2 4045     		cmp	r0, r8
 201 00a4 04DB     		blt	.L11
 202 00a6 9DF80F00 		ldrb	r0, [sp, #15]	@ zero_extendqisi2
 203              	.L10:
 204 00aa 4BB0     		add	sp, sp, #300
 205              		@ sp needed
 206 00ac BDE8F08F 		pop	{r4, r5, r6, r7, r8, r9, r10, fp, pc}
 207              	.L11:
 208 00b0 FF20     		movs	r0, #255
 209 00b2 FAE7     		b	.L10
 211              		.section	.text.aci_gap_set_direct_connectable,"ax",%progbits
 212              		.align	1
 213              		.global	aci_gap_set_direct_connectable
 214              		.syntax unified
 215              		.thumb
 216              		.thumb_func
 218              	aci_gap_set_direct_connectable:
 219              		@ args = 8, pretend = 0, frame = 288
 220              		@ frame_needed = 0, uses_anonymous_args = 0
 221 0000 70B5     		push	{r4, r5, r6, lr}
 222 0002 C8B0     		sub	sp, sp, #288
 223 0004 0DF10706 		add	r6, sp, #7
 224 0008 0025     		movs	r5, #0
 225 000a 8DF80750 		strb	r5, [sp, #7]
 226 000e 02AC     		add	r4, sp, #8
 227 0010 8DF80800 		strb	r0, [sp, #8]
 228 0014 8DF80910 		strb	r1, [sp, #9]
 229 0018 8DF80A20 		strb	r2, [sp, #10]
 230 001c 0622     		movs	r2, #6
 231 001e 1946     		mov	r1, r3
 232 0020 0DF10B00 		add	r0, sp, #11
 233 0024 FFF7FEFF 		bl	Osal_MemCpy
 234 0028 BDF83031 		ldrh	r3, [sp, #304]
 235 002c ADF81130 		strh	r3, [sp, #17]	@ unaligned
ARM GAS  C:\Users\Nathan\AppData\Local\Temp\ccWZGwQN.s 			page 5


 236 0030 BDF83431 		ldrh	r3, [sp, #308]
 237 0034 ADF81330 		strh	r3, [sp, #19]	@ unaligned
 238 0038 1822     		movs	r2, #24
 239 003a 2946     		mov	r1, r5
 240 003c 42A8     		add	r0, sp, #264
 241 003e FFF7FEFF 		bl	Osal_MemSet
 242 0042 3F23     		movs	r3, #63
 243 0044 ADF80831 		strh	r3, [sp, #264]	@ movhi
 244 0048 8423     		movs	r3, #132
 245 004a ADF80A31 		strh	r3, [sp, #266]	@ movhi
 246 004e 4494     		str	r4, [sp, #272]
 247 0050 0D23     		movs	r3, #13
 248 0052 4593     		str	r3, [sp, #276]
 249 0054 4696     		str	r6, [sp, #280]
 250 0056 0123     		movs	r3, #1
 251 0058 4793     		str	r3, [sp, #284]
 252 005a 2946     		mov	r1, r5
 253 005c 42A8     		add	r0, sp, #264
 254 005e FFF7FEFF 		bl	hci_send_req
 255 0062 A842     		cmp	r0, r5
 256 0064 03DB     		blt	.L15
 257 0066 9DF80700 		ldrb	r0, [sp, #7]	@ zero_extendqisi2
 258              	.L14:
 259 006a 48B0     		add	sp, sp, #288
 260              		@ sp needed
 261 006c 70BD     		pop	{r4, r5, r6, pc}
 262              	.L15:
 263 006e FF20     		movs	r0, #255
 264 0070 FBE7     		b	.L14
 266              		.section	.text.aci_gap_set_io_capability,"ax",%progbits
 267              		.align	1
 268              		.global	aci_gap_set_io_capability
 269              		.syntax unified
 270              		.thumb
 271              		.thumb_func
 273              	aci_gap_set_io_capability:
 274              		@ args = 0, pretend = 0, frame = 288
 275              		@ frame_needed = 0, uses_anonymous_args = 0
 276 0000 70B5     		push	{r4, r5, r6, lr}
 277 0002 C8B0     		sub	sp, sp, #288
 278 0004 0DF10705 		add	r5, sp, #7
 279 0008 0024     		movs	r4, #0
 280 000a 8DF80740 		strb	r4, [sp, #7]
 281 000e 02AE     		add	r6, sp, #8
 282 0010 8DF80800 		strb	r0, [sp, #8]
 283 0014 1822     		movs	r2, #24
 284 0016 2146     		mov	r1, r4
 285 0018 42A8     		add	r0, sp, #264
 286 001a FFF7FEFF 		bl	Osal_MemSet
 287 001e 3F23     		movs	r3, #63
 288 0020 ADF80831 		strh	r3, [sp, #264]	@ movhi
 289 0024 8523     		movs	r3, #133
 290 0026 ADF80A31 		strh	r3, [sp, #266]	@ movhi
 291 002a 4496     		str	r6, [sp, #272]
 292 002c 0123     		movs	r3, #1
 293 002e 4593     		str	r3, [sp, #276]
 294 0030 4695     		str	r5, [sp, #280]
ARM GAS  C:\Users\Nathan\AppData\Local\Temp\ccWZGwQN.s 			page 6


 295 0032 4793     		str	r3, [sp, #284]
 296 0034 2146     		mov	r1, r4
 297 0036 42A8     		add	r0, sp, #264
 298 0038 FFF7FEFF 		bl	hci_send_req
 299 003c A042     		cmp	r0, r4
 300 003e 03DB     		blt	.L19
 301 0040 9DF80700 		ldrb	r0, [sp, #7]	@ zero_extendqisi2
 302              	.L18:
 303 0044 48B0     		add	sp, sp, #288
 304              		@ sp needed
 305 0046 70BD     		pop	{r4, r5, r6, pc}
 306              	.L19:
 307 0048 FF20     		movs	r0, #255
 308 004a FBE7     		b	.L18
 310              		.section	.text.aci_gap_set_authentication_requirement,"ax",%progbits
 311              		.align	1
 312              		.global	aci_gap_set_authentication_requirement
 313              		.syntax unified
 314              		.thumb
 315              		.thumb_func
 317              	aci_gap_set_authentication_requirement:
 318              		@ args = 20, pretend = 0, frame = 288
 319              		@ frame_needed = 0, uses_anonymous_args = 0
 320 0000 70B5     		push	{r4, r5, r6, lr}
 321 0002 C8B0     		sub	sp, sp, #288
 322 0004 0DF10706 		add	r6, sp, #7
 323 0008 0025     		movs	r5, #0
 324 000a 8DF80750 		strb	r5, [sp, #7]
 325 000e 02AC     		add	r4, sp, #8
 326 0010 8DF80800 		strb	r0, [sp, #8]
 327 0014 8DF80910 		strb	r1, [sp, #9]
 328 0018 8DF80A20 		strb	r2, [sp, #10]
 329 001c 8DF80B30 		strb	r3, [sp, #11]
 330 0020 9DF83031 		ldrb	r3, [sp, #304]	@ zero_extendqisi2
 331 0024 8DF80C30 		strb	r3, [sp, #12]
 332 0028 9DF83431 		ldrb	r3, [sp, #308]	@ zero_extendqisi2
 333 002c 8DF80D30 		strb	r3, [sp, #13]
 334 0030 9DF83831 		ldrb	r3, [sp, #312]	@ zero_extendqisi2
 335 0034 8DF80E30 		strb	r3, [sp, #14]
 336 0038 4F9B     		ldr	r3, [sp, #316]
 337 003a CDF80F30 		str	r3, [sp, #15]	@ unaligned
 338 003e 9DF84031 		ldrb	r3, [sp, #320]	@ zero_extendqisi2
 339 0042 8DF81330 		strb	r3, [sp, #19]
 340 0046 1822     		movs	r2, #24
 341 0048 2946     		mov	r1, r5
 342 004a 42A8     		add	r0, sp, #264
 343 004c FFF7FEFF 		bl	Osal_MemSet
 344 0050 3F23     		movs	r3, #63
 345 0052 ADF80831 		strh	r3, [sp, #264]	@ movhi
 346 0056 8623     		movs	r3, #134
 347 0058 ADF80A31 		strh	r3, [sp, #266]	@ movhi
 348 005c 4494     		str	r4, [sp, #272]
 349 005e 0C23     		movs	r3, #12
 350 0060 4593     		str	r3, [sp, #276]
 351 0062 4696     		str	r6, [sp, #280]
 352 0064 0123     		movs	r3, #1
 353 0066 4793     		str	r3, [sp, #284]
ARM GAS  C:\Users\Nathan\AppData\Local\Temp\ccWZGwQN.s 			page 7


 354 0068 2946     		mov	r1, r5
 355 006a 42A8     		add	r0, sp, #264
 356 006c FFF7FEFF 		bl	hci_send_req
 357 0070 A842     		cmp	r0, r5
 358 0072 03DB     		blt	.L23
 359 0074 9DF80700 		ldrb	r0, [sp, #7]	@ zero_extendqisi2
 360              	.L22:
 361 0078 48B0     		add	sp, sp, #288
 362              		@ sp needed
 363 007a 70BD     		pop	{r4, r5, r6, pc}
 364              	.L23:
 365 007c FF20     		movs	r0, #255
 366 007e FBE7     		b	.L22
 368              		.section	.text.aci_gap_set_authorization_requirement,"ax",%progbits
 369              		.align	1
 370              		.global	aci_gap_set_authorization_requirement
 371              		.syntax unified
 372              		.thumb
 373              		.thumb_func
 375              	aci_gap_set_authorization_requirement:
 376              		@ args = 0, pretend = 0, frame = 288
 377              		@ frame_needed = 0, uses_anonymous_args = 0
 378 0000 70B5     		push	{r4, r5, r6, lr}
 379 0002 C8B0     		sub	sp, sp, #288
 380 0004 0DF10706 		add	r6, sp, #7
 381 0008 0024     		movs	r4, #0
 382 000a 8DF80740 		strb	r4, [sp, #7]
 383 000e 02AD     		add	r5, sp, #8
 384 0010 ADF80800 		strh	r0, [sp, #8]	@ movhi
 385 0014 8DF80A10 		strb	r1, [sp, #10]
 386 0018 1822     		movs	r2, #24
 387 001a 2146     		mov	r1, r4
 388 001c 42A8     		add	r0, sp, #264
 389 001e FFF7FEFF 		bl	Osal_MemSet
 390 0022 3F23     		movs	r3, #63
 391 0024 ADF80831 		strh	r3, [sp, #264]	@ movhi
 392 0028 8723     		movs	r3, #135
 393 002a ADF80A31 		strh	r3, [sp, #266]	@ movhi
 394 002e 4495     		str	r5, [sp, #272]
 395 0030 0323     		movs	r3, #3
 396 0032 4593     		str	r3, [sp, #276]
 397 0034 4696     		str	r6, [sp, #280]
 398 0036 0123     		movs	r3, #1
 399 0038 4793     		str	r3, [sp, #284]
 400 003a 2146     		mov	r1, r4
 401 003c 42A8     		add	r0, sp, #264
 402 003e FFF7FEFF 		bl	hci_send_req
 403 0042 A042     		cmp	r0, r4
 404 0044 03DB     		blt	.L27
 405 0046 9DF80700 		ldrb	r0, [sp, #7]	@ zero_extendqisi2
 406              	.L26:
 407 004a 48B0     		add	sp, sp, #288
 408              		@ sp needed
 409 004c 70BD     		pop	{r4, r5, r6, pc}
 410              	.L27:
 411 004e FF20     		movs	r0, #255
 412 0050 FBE7     		b	.L26
ARM GAS  C:\Users\Nathan\AppData\Local\Temp\ccWZGwQN.s 			page 8


 414              		.section	.text.aci_gap_pass_key_resp,"ax",%progbits
 415              		.align	1
 416              		.global	aci_gap_pass_key_resp
 417              		.syntax unified
 418              		.thumb
 419              		.thumb_func
 421              	aci_gap_pass_key_resp:
 422              		@ args = 0, pretend = 0, frame = 288
 423              		@ frame_needed = 0, uses_anonymous_args = 0
 424 0000 70B5     		push	{r4, r5, r6, lr}
 425 0002 C8B0     		sub	sp, sp, #288
 426 0004 0DF10706 		add	r6, sp, #7
 427 0008 0024     		movs	r4, #0
 428 000a 8DF80740 		strb	r4, [sp, #7]
 429 000e 02AD     		add	r5, sp, #8
 430 0010 ADF80800 		strh	r0, [sp, #8]	@ movhi
 431 0014 CDF80A10 		str	r1, [sp, #10]	@ unaligned
 432 0018 1822     		movs	r2, #24
 433 001a 2146     		mov	r1, r4
 434 001c 42A8     		add	r0, sp, #264
 435 001e FFF7FEFF 		bl	Osal_MemSet
 436 0022 3F23     		movs	r3, #63
 437 0024 ADF80831 		strh	r3, [sp, #264]	@ movhi
 438 0028 8823     		movs	r3, #136
 439 002a ADF80A31 		strh	r3, [sp, #266]	@ movhi
 440 002e 4495     		str	r5, [sp, #272]
 441 0030 0623     		movs	r3, #6
 442 0032 4593     		str	r3, [sp, #276]
 443 0034 4696     		str	r6, [sp, #280]
 444 0036 0123     		movs	r3, #1
 445 0038 4793     		str	r3, [sp, #284]
 446 003a 2146     		mov	r1, r4
 447 003c 42A8     		add	r0, sp, #264
 448 003e FFF7FEFF 		bl	hci_send_req
 449 0042 A042     		cmp	r0, r4
 450 0044 03DB     		blt	.L31
 451 0046 9DF80700 		ldrb	r0, [sp, #7]	@ zero_extendqisi2
 452              	.L30:
 453 004a 48B0     		add	sp, sp, #288
 454              		@ sp needed
 455 004c 70BD     		pop	{r4, r5, r6, pc}
 456              	.L31:
 457 004e FF20     		movs	r0, #255
 458 0050 FBE7     		b	.L30
 460              		.section	.text.aci_gap_authorization_resp,"ax",%progbits
 461              		.align	1
 462              		.global	aci_gap_authorization_resp
 463              		.syntax unified
 464              		.thumb
 465              		.thumb_func
 467              	aci_gap_authorization_resp:
 468              		@ args = 0, pretend = 0, frame = 288
 469              		@ frame_needed = 0, uses_anonymous_args = 0
 470 0000 70B5     		push	{r4, r5, r6, lr}
 471 0002 C8B0     		sub	sp, sp, #288
 472 0004 0DF10706 		add	r6, sp, #7
 473 0008 0024     		movs	r4, #0
ARM GAS  C:\Users\Nathan\AppData\Local\Temp\ccWZGwQN.s 			page 9


 474 000a 8DF80740 		strb	r4, [sp, #7]
 475 000e 02AD     		add	r5, sp, #8
 476 0010 ADF80800 		strh	r0, [sp, #8]	@ movhi
 477 0014 8DF80A10 		strb	r1, [sp, #10]
 478 0018 1822     		movs	r2, #24
 479 001a 2146     		mov	r1, r4
 480 001c 42A8     		add	r0, sp, #264
 481 001e FFF7FEFF 		bl	Osal_MemSet
 482 0022 3F23     		movs	r3, #63
 483 0024 ADF80831 		strh	r3, [sp, #264]	@ movhi
 484 0028 8923     		movs	r3, #137
 485 002a ADF80A31 		strh	r3, [sp, #266]	@ movhi
 486 002e 4495     		str	r5, [sp, #272]
 487 0030 0323     		movs	r3, #3
 488 0032 4593     		str	r3, [sp, #276]
 489 0034 4696     		str	r6, [sp, #280]
 490 0036 0123     		movs	r3, #1
 491 0038 4793     		str	r3, [sp, #284]
 492 003a 2146     		mov	r1, r4
 493 003c 42A8     		add	r0, sp, #264
 494 003e FFF7FEFF 		bl	hci_send_req
 495 0042 A042     		cmp	r0, r4
 496 0044 03DB     		blt	.L35
 497 0046 9DF80700 		ldrb	r0, [sp, #7]	@ zero_extendqisi2
 498              	.L34:
 499 004a 48B0     		add	sp, sp, #288
 500              		@ sp needed
 501 004c 70BD     		pop	{r4, r5, r6, pc}
 502              	.L35:
 503 004e FF20     		movs	r0, #255
 504 0050 FBE7     		b	.L34
 506              		.section	.text.aci_gap_init,"ax",%progbits
 507              		.align	1
 508              		.global	aci_gap_init
 509              		.syntax unified
 510              		.thumb
 511              		.thumb_func
 513              	aci_gap_init:
 514              		@ args = 8, pretend = 0, frame = 288
 515              		@ frame_needed = 0, uses_anonymous_args = 0
 516 0000 2DE9F041 		push	{r4, r5, r6, r7, r8, lr}
 517 0004 C8B0     		sub	sp, sp, #288
 518 0006 0746     		mov	r7, r0
 519 0008 0E46     		mov	r6, r1
 520 000a 1546     		mov	r5, r2
 521 000c 9846     		mov	r8, r3
 522 000e 0722     		movs	r2, #7
 523 0010 0021     		movs	r1, #0
 524 0012 6846     		mov	r0, sp
 525 0014 FFF7FEFF 		bl	Osal_MemSet
 526 0018 02AC     		add	r4, sp, #8
 527 001a 8DF80870 		strb	r7, [sp, #8]
 528 001e 8DF80960 		strb	r6, [sp, #9]
 529 0022 8DF80A50 		strb	r5, [sp, #10]
 530 0026 1822     		movs	r2, #24
 531 0028 0021     		movs	r1, #0
 532 002a 42A8     		add	r0, sp, #264
ARM GAS  C:\Users\Nathan\AppData\Local\Temp\ccWZGwQN.s 			page 10


 533 002c FFF7FEFF 		bl	Osal_MemSet
 534 0030 3F23     		movs	r3, #63
 535 0032 ADF80831 		strh	r3, [sp, #264]	@ movhi
 536 0036 8A23     		movs	r3, #138
 537 0038 ADF80A31 		strh	r3, [sp, #266]	@ movhi
 538 003c 4494     		str	r4, [sp, #272]
 539 003e 0323     		movs	r3, #3
 540 0040 4593     		str	r3, [sp, #276]
 541 0042 CDF818D1 		str	sp, [sp, #280]
 542 0046 0723     		movs	r3, #7
 543 0048 4793     		str	r3, [sp, #284]
 544 004a 0021     		movs	r1, #0
 545 004c 42A8     		add	r0, sp, #264
 546 004e FFF7FEFF 		bl	hci_send_req
 547 0052 0028     		cmp	r0, #0
 548 0054 11DB     		blt	.L39
 549 0056 9DF80000 		ldrb	r0, [sp]	@ zero_extendqisi2
 550 005a 58B9     		cbnz	r0, .L38
 551 005c BDF80130 		ldrh	r3, [sp, #1]	@ unaligned
 552 0060 A8F80030 		strh	r3, [r8]	@ movhi
 553 0064 BDF80320 		ldrh	r2, [sp, #3]	@ unaligned
 554 0068 4E9B     		ldr	r3, [sp, #312]
 555 006a 1A80     		strh	r2, [r3]	@ movhi
 556 006c BDF80520 		ldrh	r2, [sp, #5]	@ unaligned
 557 0070 4F9B     		ldr	r3, [sp, #316]
 558 0072 1A80     		strh	r2, [r3]	@ movhi
 559              	.L38:
 560 0074 48B0     		add	sp, sp, #288
 561              		@ sp needed
 562 0076 BDE8F081 		pop	{r4, r5, r6, r7, r8, pc}
 563              	.L39:
 564 007a FF20     		movs	r0, #255
 565 007c FAE7     		b	.L38
 567              		.section	.text.aci_gap_set_non_connectable,"ax",%progbits
 568              		.align	1
 569              		.global	aci_gap_set_non_connectable
 570              		.syntax unified
 571              		.thumb
 572              		.thumb_func
 574              	aci_gap_set_non_connectable:
 575              		@ args = 0, pretend = 0, frame = 288
 576              		@ frame_needed = 0, uses_anonymous_args = 0
 577 0000 70B5     		push	{r4, r5, r6, lr}
 578 0002 C8B0     		sub	sp, sp, #288
 579 0004 0DF10706 		add	r6, sp, #7
 580 0008 0024     		movs	r4, #0
 581 000a 8DF80740 		strb	r4, [sp, #7]
 582 000e 02AD     		add	r5, sp, #8
 583 0010 8DF80800 		strb	r0, [sp, #8]
 584 0014 8DF80910 		strb	r1, [sp, #9]
 585 0018 1822     		movs	r2, #24
 586 001a 2146     		mov	r1, r4
 587 001c 42A8     		add	r0, sp, #264
 588 001e FFF7FEFF 		bl	Osal_MemSet
 589 0022 3F23     		movs	r3, #63
 590 0024 ADF80831 		strh	r3, [sp, #264]	@ movhi
 591 0028 8B23     		movs	r3, #139
ARM GAS  C:\Users\Nathan\AppData\Local\Temp\ccWZGwQN.s 			page 11


 592 002a ADF80A31 		strh	r3, [sp, #266]	@ movhi
 593 002e 4495     		str	r5, [sp, #272]
 594 0030 0223     		movs	r3, #2
 595 0032 4593     		str	r3, [sp, #276]
 596 0034 4696     		str	r6, [sp, #280]
 597 0036 0123     		movs	r3, #1
 598 0038 4793     		str	r3, [sp, #284]
 599 003a 2146     		mov	r1, r4
 600 003c 42A8     		add	r0, sp, #264
 601 003e FFF7FEFF 		bl	hci_send_req
 602 0042 A042     		cmp	r0, r4
 603 0044 03DB     		blt	.L43
 604 0046 9DF80700 		ldrb	r0, [sp, #7]	@ zero_extendqisi2
 605              	.L42:
 606 004a 48B0     		add	sp, sp, #288
 607              		@ sp needed
 608 004c 70BD     		pop	{r4, r5, r6, pc}
 609              	.L43:
 610 004e FF20     		movs	r0, #255
 611 0050 FBE7     		b	.L42
 613              		.section	.text.aci_gap_set_undirected_connectable,"ax",%progbits
 614              		.align	1
 615              		.global	aci_gap_set_undirected_connectable
 616              		.syntax unified
 617              		.thumb
 618              		.thumb_func
 620              	aci_gap_set_undirected_connectable:
 621              		@ args = 0, pretend = 0, frame = 288
 622              		@ frame_needed = 0, uses_anonymous_args = 0
 623 0000 70B5     		push	{r4, r5, r6, lr}
 624 0002 C8B0     		sub	sp, sp, #288
 625 0004 0DF10706 		add	r6, sp, #7
 626 0008 0025     		movs	r5, #0
 627 000a 8DF80750 		strb	r5, [sp, #7]
 628 000e 02AC     		add	r4, sp, #8
 629 0010 ADF80800 		strh	r0, [sp, #8]	@ movhi
 630 0014 ADF80A10 		strh	r1, [sp, #10]	@ movhi
 631 0018 8DF80C20 		strb	r2, [sp, #12]
 632 001c 8DF80D30 		strb	r3, [sp, #13]
 633 0020 1822     		movs	r2, #24
 634 0022 2946     		mov	r1, r5
 635 0024 42A8     		add	r0, sp, #264
 636 0026 FFF7FEFF 		bl	Osal_MemSet
 637 002a 3F23     		movs	r3, #63
 638 002c ADF80831 		strh	r3, [sp, #264]	@ movhi
 639 0030 8C23     		movs	r3, #140
 640 0032 ADF80A31 		strh	r3, [sp, #266]	@ movhi
 641 0036 4494     		str	r4, [sp, #272]
 642 0038 0623     		movs	r3, #6
 643 003a 4593     		str	r3, [sp, #276]
 644 003c 4696     		str	r6, [sp, #280]
 645 003e 0123     		movs	r3, #1
 646 0040 4793     		str	r3, [sp, #284]
 647 0042 2946     		mov	r1, r5
 648 0044 42A8     		add	r0, sp, #264
 649 0046 FFF7FEFF 		bl	hci_send_req
 650 004a A842     		cmp	r0, r5
ARM GAS  C:\Users\Nathan\AppData\Local\Temp\ccWZGwQN.s 			page 12


 651 004c 03DB     		blt	.L47
 652 004e 9DF80700 		ldrb	r0, [sp, #7]	@ zero_extendqisi2
 653              	.L46:
 654 0052 48B0     		add	sp, sp, #288
 655              		@ sp needed
 656 0054 70BD     		pop	{r4, r5, r6, pc}
 657              	.L47:
 658 0056 FF20     		movs	r0, #255
 659 0058 FBE7     		b	.L46
 661              		.section	.text.aci_gap_peripheral_security_req,"ax",%progbits
 662              		.align	1
 663              		.global	aci_gap_peripheral_security_req
 664              		.syntax unified
 665              		.thumb
 666              		.thumb_func
 668              	aci_gap_peripheral_security_req:
 669              		@ args = 0, pretend = 0, frame = 288
 670              		@ frame_needed = 0, uses_anonymous_args = 0
 671 0000 70B5     		push	{r4, r5, r6, lr}
 672 0002 C8B0     		sub	sp, sp, #288
 673 0004 0DF10705 		add	r5, sp, #7
 674 0008 0024     		movs	r4, #0
 675 000a 8DF80740 		strb	r4, [sp, #7]
 676 000e 02AE     		add	r6, sp, #8
 677 0010 ADF80800 		strh	r0, [sp, #8]	@ movhi
 678 0014 1822     		movs	r2, #24
 679 0016 2146     		mov	r1, r4
 680 0018 42A8     		add	r0, sp, #264
 681 001a FFF7FEFF 		bl	Osal_MemSet
 682 001e 3F23     		movs	r3, #63
 683 0020 ADF80831 		strh	r3, [sp, #264]	@ movhi
 684 0024 8D23     		movs	r3, #141
 685 0026 ADF80A31 		strh	r3, [sp, #266]	@ movhi
 686 002a 0F23     		movs	r3, #15
 687 002c 4393     		str	r3, [sp, #268]
 688 002e 4496     		str	r6, [sp, #272]
 689 0030 0223     		movs	r3, #2
 690 0032 4593     		str	r3, [sp, #276]
 691 0034 4695     		str	r5, [sp, #280]
 692 0036 0123     		movs	r3, #1
 693 0038 4793     		str	r3, [sp, #284]
 694 003a 2146     		mov	r1, r4
 695 003c 42A8     		add	r0, sp, #264
 696 003e FFF7FEFF 		bl	hci_send_req
 697 0042 A042     		cmp	r0, r4
 698 0044 03DB     		blt	.L51
 699 0046 9DF80700 		ldrb	r0, [sp, #7]	@ zero_extendqisi2
 700              	.L50:
 701 004a 48B0     		add	sp, sp, #288
 702              		@ sp needed
 703 004c 70BD     		pop	{r4, r5, r6, pc}
 704              	.L51:
 705 004e FF20     		movs	r0, #255
 706 0050 FBE7     		b	.L50
 708              		.section	.text.aci_gap_update_adv_data,"ax",%progbits
 709              		.align	1
 710              		.global	aci_gap_update_adv_data
ARM GAS  C:\Users\Nathan\AppData\Local\Temp\ccWZGwQN.s 			page 13


 711              		.syntax unified
 712              		.thumb
 713              		.thumb_func
 715              	aci_gap_update_adv_data:
 716              		@ args = 0, pretend = 0, frame = 288
 717              		@ frame_needed = 0, uses_anonymous_args = 0
 718 0000 F0B5     		push	{r4, r5, r6, r7, lr}
 719 0002 C9B0     		sub	sp, sp, #292
 720 0004 0446     		mov	r4, r0
 721 0006 0DF10706 		add	r6, sp, #7
 722 000a 0025     		movs	r5, #0
 723 000c 8DF80750 		strb	r5, [sp, #7]
 724 0010 02AF     		add	r7, sp, #8
 725 0012 8DF80800 		strb	r0, [sp, #8]
 726 0016 0246     		mov	r2, r0
 727 0018 0DF10900 		add	r0, sp, #9
 728 001c FFF7FEFF 		bl	Osal_MemCpy
 729 0020 0134     		adds	r4, r4, #1
 730 0022 1822     		movs	r2, #24
 731 0024 2946     		mov	r1, r5
 732 0026 42A8     		add	r0, sp, #264
 733 0028 FFF7FEFF 		bl	Osal_MemSet
 734 002c 3F23     		movs	r3, #63
 735 002e ADF80831 		strh	r3, [sp, #264]	@ movhi
 736 0032 8E23     		movs	r3, #142
 737 0034 ADF80A31 		strh	r3, [sp, #266]	@ movhi
 738 0038 4497     		str	r7, [sp, #272]
 739 003a 4594     		str	r4, [sp, #276]
 740 003c 4696     		str	r6, [sp, #280]
 741 003e 0123     		movs	r3, #1
 742 0040 4793     		str	r3, [sp, #284]
 743 0042 2946     		mov	r1, r5
 744 0044 42A8     		add	r0, sp, #264
 745 0046 FFF7FEFF 		bl	hci_send_req
 746 004a A842     		cmp	r0, r5
 747 004c 03DB     		blt	.L55
 748 004e 9DF80700 		ldrb	r0, [sp, #7]	@ zero_extendqisi2
 749              	.L54:
 750 0052 49B0     		add	sp, sp, #292
 751              		@ sp needed
 752 0054 F0BD     		pop	{r4, r5, r6, r7, pc}
 753              	.L55:
 754 0056 FF20     		movs	r0, #255
 755 0058 FBE7     		b	.L54
 757              		.section	.text.aci_gap_delete_ad_type,"ax",%progbits
 758              		.align	1
 759              		.global	aci_gap_delete_ad_type
 760              		.syntax unified
 761              		.thumb
 762              		.thumb_func
 764              	aci_gap_delete_ad_type:
 765              		@ args = 0, pretend = 0, frame = 288
 766              		@ frame_needed = 0, uses_anonymous_args = 0
 767 0000 70B5     		push	{r4, r5, r6, lr}
 768 0002 C8B0     		sub	sp, sp, #288
 769 0004 0DF10705 		add	r5, sp, #7
 770 0008 0024     		movs	r4, #0
ARM GAS  C:\Users\Nathan\AppData\Local\Temp\ccWZGwQN.s 			page 14


 771 000a 8DF80740 		strb	r4, [sp, #7]
 772 000e 02AE     		add	r6, sp, #8
 773 0010 8DF80800 		strb	r0, [sp, #8]
 774 0014 1822     		movs	r2, #24
 775 0016 2146     		mov	r1, r4
 776 0018 42A8     		add	r0, sp, #264
 777 001a FFF7FEFF 		bl	Osal_MemSet
 778 001e 3F23     		movs	r3, #63
 779 0020 ADF80831 		strh	r3, [sp, #264]	@ movhi
 780 0024 8F23     		movs	r3, #143
 781 0026 ADF80A31 		strh	r3, [sp, #266]	@ movhi
 782 002a 4496     		str	r6, [sp, #272]
 783 002c 0123     		movs	r3, #1
 784 002e 4593     		str	r3, [sp, #276]
 785 0030 4695     		str	r5, [sp, #280]
 786 0032 4793     		str	r3, [sp, #284]
 787 0034 2146     		mov	r1, r4
 788 0036 42A8     		add	r0, sp, #264
 789 0038 FFF7FEFF 		bl	hci_send_req
 790 003c A042     		cmp	r0, r4
 791 003e 03DB     		blt	.L59
 792 0040 9DF80700 		ldrb	r0, [sp, #7]	@ zero_extendqisi2
 793              	.L58:
 794 0044 48B0     		add	sp, sp, #288
 795              		@ sp needed
 796 0046 70BD     		pop	{r4, r5, r6, pc}
 797              	.L59:
 798 0048 FF20     		movs	r0, #255
 799 004a FBE7     		b	.L58
 801              		.section	.text.aci_gap_get_security_level,"ax",%progbits
 802              		.align	1
 803              		.global	aci_gap_get_security_level
 804              		.syntax unified
 805              		.thumb
 806              		.thumb_func
 808              	aci_gap_get_security_level:
 809              		@ args = 0, pretend = 0, frame = 288
 810              		@ frame_needed = 0, uses_anonymous_args = 0
 811 0000 2DE9F041 		push	{r4, r5, r6, r7, r8, lr}
 812 0004 C8B0     		sub	sp, sp, #288
 813 0006 0446     		mov	r4, r0
 814 0008 0E46     		mov	r6, r1
 815 000a 1546     		mov	r5, r2
 816 000c 01AF     		add	r7, sp, #4
 817 000e 0322     		movs	r2, #3
 818 0010 0021     		movs	r1, #0
 819 0012 3846     		mov	r0, r7
 820 0014 FFF7FEFF 		bl	Osal_MemSet
 821 0018 0DF10808 		add	r8, sp, #8
 822 001c ADF80840 		strh	r4, [sp, #8]	@ movhi
 823 0020 1822     		movs	r2, #24
 824 0022 0021     		movs	r1, #0
 825 0024 42A8     		add	r0, sp, #264
 826 0026 FFF7FEFF 		bl	Osal_MemSet
 827 002a 3F23     		movs	r3, #63
 828 002c ADF80831 		strh	r3, [sp, #264]	@ movhi
 829 0030 9023     		movs	r3, #144
ARM GAS  C:\Users\Nathan\AppData\Local\Temp\ccWZGwQN.s 			page 15


 830 0032 ADF80A31 		strh	r3, [sp, #266]	@ movhi
 831 0036 CDF81081 		str	r8, [sp, #272]
 832 003a 0223     		movs	r3, #2
 833 003c 4593     		str	r3, [sp, #276]
 834 003e 4697     		str	r7, [sp, #280]
 835 0040 0323     		movs	r3, #3
 836 0042 4793     		str	r3, [sp, #284]
 837 0044 0021     		movs	r1, #0
 838 0046 42A8     		add	r0, sp, #264
 839 0048 FFF7FEFF 		bl	hci_send_req
 840 004c 0028     		cmp	r0, #0
 841 004e 0BDB     		blt	.L63
 842 0050 9DF80400 		ldrb	r0, [sp, #4]	@ zero_extendqisi2
 843 0054 28B9     		cbnz	r0, .L62
 844 0056 9DF80530 		ldrb	r3, [sp, #5]	@ zero_extendqisi2
 845 005a 3370     		strb	r3, [r6]
 846 005c 9DF80630 		ldrb	r3, [sp, #6]	@ zero_extendqisi2
 847 0060 2B70     		strb	r3, [r5]
 848              	.L62:
 849 0062 48B0     		add	sp, sp, #288
 850              		@ sp needed
 851 0064 BDE8F081 		pop	{r4, r5, r6, r7, r8, pc}
 852              	.L63:
 853 0068 FF20     		movs	r0, #255
 854 006a FAE7     		b	.L62
 856              		.section	.text.aci_gap_set_event_mask,"ax",%progbits
 857              		.align	1
 858              		.global	aci_gap_set_event_mask
 859              		.syntax unified
 860              		.thumb
 861              		.thumb_func
 863              	aci_gap_set_event_mask:
 864              		@ args = 0, pretend = 0, frame = 288
 865              		@ frame_needed = 0, uses_anonymous_args = 0
 866 0000 70B5     		push	{r4, r5, r6, lr}
 867 0002 C8B0     		sub	sp, sp, #288
 868 0004 0DF10705 		add	r5, sp, #7
 869 0008 0024     		movs	r4, #0
 870 000a 8DF80740 		strb	r4, [sp, #7]
 871 000e 02AE     		add	r6, sp, #8
 872 0010 ADF80800 		strh	r0, [sp, #8]	@ movhi
 873 0014 1822     		movs	r2, #24
 874 0016 2146     		mov	r1, r4
 875 0018 42A8     		add	r0, sp, #264
 876 001a FFF7FEFF 		bl	Osal_MemSet
 877 001e 3F23     		movs	r3, #63
 878 0020 ADF80831 		strh	r3, [sp, #264]	@ movhi
 879 0024 9123     		movs	r3, #145
 880 0026 ADF80A31 		strh	r3, [sp, #266]	@ movhi
 881 002a 4496     		str	r6, [sp, #272]
 882 002c 0223     		movs	r3, #2
 883 002e 4593     		str	r3, [sp, #276]
 884 0030 4695     		str	r5, [sp, #280]
 885 0032 0123     		movs	r3, #1
 886 0034 4793     		str	r3, [sp, #284]
 887 0036 2146     		mov	r1, r4
 888 0038 42A8     		add	r0, sp, #264
ARM GAS  C:\Users\Nathan\AppData\Local\Temp\ccWZGwQN.s 			page 16


 889 003a FFF7FEFF 		bl	hci_send_req
 890 003e A042     		cmp	r0, r4
 891 0040 03DB     		blt	.L67
 892 0042 9DF80700 		ldrb	r0, [sp, #7]	@ zero_extendqisi2
 893              	.L66:
 894 0046 48B0     		add	sp, sp, #288
 895              		@ sp needed
 896 0048 70BD     		pop	{r4, r5, r6, pc}
 897              	.L67:
 898 004a FF20     		movs	r0, #255
 899 004c FBE7     		b	.L66
 901              		.section	.text.aci_gap_configure_filter_accept_list,"ax",%progbits
 902              		.align	1
 903              		.global	aci_gap_configure_filter_accept_list
 904              		.syntax unified
 905              		.thumb
 906              		.thumb_func
 908              	aci_gap_configure_filter_accept_list:
 909              		@ args = 0, pretend = 0, frame = 32
 910              		@ frame_needed = 0, uses_anonymous_args = 0
 911 0000 10B5     		push	{r4, lr}
 912 0002 88B0     		sub	sp, sp, #32
 913 0004 0024     		movs	r4, #0
 914 0006 8DF80740 		strb	r4, [sp, #7]
 915 000a 1822     		movs	r2, #24
 916 000c 2146     		mov	r1, r4
 917 000e 02A8     		add	r0, sp, #8
 918 0010 FFF7FEFF 		bl	Osal_MemSet
 919 0014 3F23     		movs	r3, #63
 920 0016 ADF80830 		strh	r3, [sp, #8]	@ movhi
 921 001a 9223     		movs	r3, #146
 922 001c ADF80A30 		strh	r3, [sp, #10]	@ movhi
 923 0020 0DF10703 		add	r3, sp, #7
 924 0024 0693     		str	r3, [sp, #24]
 925 0026 0123     		movs	r3, #1
 926 0028 0793     		str	r3, [sp, #28]
 927 002a 2146     		mov	r1, r4
 928 002c 02A8     		add	r0, sp, #8
 929 002e FFF7FEFF 		bl	hci_send_req
 930 0032 A042     		cmp	r0, r4
 931 0034 03DB     		blt	.L71
 932 0036 9DF80700 		ldrb	r0, [sp, #7]	@ zero_extendqisi2
 933              	.L70:
 934 003a 08B0     		add	sp, sp, #32
 935              		@ sp needed
 936 003c 10BD     		pop	{r4, pc}
 937              	.L71:
 938 003e FF20     		movs	r0, #255
 939 0040 FBE7     		b	.L70
 941              		.section	.text.aci_gap_terminate,"ax",%progbits
 942              		.align	1
 943              		.global	aci_gap_terminate
 944              		.syntax unified
 945              		.thumb
 946              		.thumb_func
 948              	aci_gap_terminate:
 949              		@ args = 0, pretend = 0, frame = 288
ARM GAS  C:\Users\Nathan\AppData\Local\Temp\ccWZGwQN.s 			page 17


 950              		@ frame_needed = 0, uses_anonymous_args = 0
 951 0000 70B5     		push	{r4, r5, r6, lr}
 952 0002 C8B0     		sub	sp, sp, #288
 953 0004 0DF10706 		add	r6, sp, #7
 954 0008 0024     		movs	r4, #0
 955 000a 8DF80740 		strb	r4, [sp, #7]
 956 000e 02AD     		add	r5, sp, #8
 957 0010 ADF80800 		strh	r0, [sp, #8]	@ movhi
 958 0014 8DF80A10 		strb	r1, [sp, #10]
 959 0018 1822     		movs	r2, #24
 960 001a 2146     		mov	r1, r4
 961 001c 42A8     		add	r0, sp, #264
 962 001e FFF7FEFF 		bl	Osal_MemSet
 963 0022 3F23     		movs	r3, #63
 964 0024 ADF80831 		strh	r3, [sp, #264]	@ movhi
 965 0028 9323     		movs	r3, #147
 966 002a ADF80A31 		strh	r3, [sp, #266]	@ movhi
 967 002e 0F23     		movs	r3, #15
 968 0030 4393     		str	r3, [sp, #268]
 969 0032 4495     		str	r5, [sp, #272]
 970 0034 0323     		movs	r3, #3
 971 0036 4593     		str	r3, [sp, #276]
 972 0038 4696     		str	r6, [sp, #280]
 973 003a 0123     		movs	r3, #1
 974 003c 4793     		str	r3, [sp, #284]
 975 003e 2146     		mov	r1, r4
 976 0040 42A8     		add	r0, sp, #264
 977 0042 FFF7FEFF 		bl	hci_send_req
 978 0046 A042     		cmp	r0, r4
 979 0048 03DB     		blt	.L75
 980 004a 9DF80700 		ldrb	r0, [sp, #7]	@ zero_extendqisi2
 981              	.L74:
 982 004e 48B0     		add	sp, sp, #288
 983              		@ sp needed
 984 0050 70BD     		pop	{r4, r5, r6, pc}
 985              	.L75:
 986 0052 FF20     		movs	r0, #255
 987 0054 FBE7     		b	.L74
 989              		.section	.text.aci_gap_clear_security_db,"ax",%progbits
 990              		.align	1
 991              		.global	aci_gap_clear_security_db
 992              		.syntax unified
 993              		.thumb
 994              		.thumb_func
 996              	aci_gap_clear_security_db:
 997              		@ args = 0, pretend = 0, frame = 32
 998              		@ frame_needed = 0, uses_anonymous_args = 0
 999 0000 10B5     		push	{r4, lr}
 1000 0002 88B0     		sub	sp, sp, #32
 1001 0004 0024     		movs	r4, #0
 1002 0006 8DF80740 		strb	r4, [sp, #7]
 1003 000a 1822     		movs	r2, #24
 1004 000c 2146     		mov	r1, r4
 1005 000e 02A8     		add	r0, sp, #8
 1006 0010 FFF7FEFF 		bl	Osal_MemSet
 1007 0014 3F23     		movs	r3, #63
 1008 0016 ADF80830 		strh	r3, [sp, #8]	@ movhi
ARM GAS  C:\Users\Nathan\AppData\Local\Temp\ccWZGwQN.s 			page 18


 1009 001a 9423     		movs	r3, #148
 1010 001c ADF80A30 		strh	r3, [sp, #10]	@ movhi
 1011 0020 0DF10703 		add	r3, sp, #7
 1012 0024 0693     		str	r3, [sp, #24]
 1013 0026 0123     		movs	r3, #1
 1014 0028 0793     		str	r3, [sp, #28]
 1015 002a 2146     		mov	r1, r4
 1016 002c 02A8     		add	r0, sp, #8
 1017 002e FFF7FEFF 		bl	hci_send_req
 1018 0032 A042     		cmp	r0, r4
 1019 0034 03DB     		blt	.L79
 1020 0036 9DF80700 		ldrb	r0, [sp, #7]	@ zero_extendqisi2
 1021              	.L78:
 1022 003a 08B0     		add	sp, sp, #32
 1023              		@ sp needed
 1024 003c 10BD     		pop	{r4, pc}
 1025              	.L79:
 1026 003e FF20     		movs	r0, #255
 1027 0040 FBE7     		b	.L78
 1029              		.section	.text.aci_gap_allow_rebond,"ax",%progbits
 1030              		.align	1
 1031              		.global	aci_gap_allow_rebond
 1032              		.syntax unified
 1033              		.thumb
 1034              		.thumb_func
 1036              	aci_gap_allow_rebond:
 1037              		@ args = 0, pretend = 0, frame = 288
 1038              		@ frame_needed = 0, uses_anonymous_args = 0
 1039 0000 70B5     		push	{r4, r5, r6, lr}
 1040 0002 C8B0     		sub	sp, sp, #288
 1041 0004 0DF10705 		add	r5, sp, #7
 1042 0008 0024     		movs	r4, #0
 1043 000a 8DF80740 		strb	r4, [sp, #7]
 1044 000e 02AE     		add	r6, sp, #8
 1045 0010 ADF80800 		strh	r0, [sp, #8]	@ movhi
 1046 0014 1822     		movs	r2, #24
 1047 0016 2146     		mov	r1, r4
 1048 0018 42A8     		add	r0, sp, #264
 1049 001a FFF7FEFF 		bl	Osal_MemSet
 1050 001e 3F23     		movs	r3, #63
 1051 0020 ADF80831 		strh	r3, [sp, #264]	@ movhi
 1052 0024 9523     		movs	r3, #149
 1053 0026 ADF80A31 		strh	r3, [sp, #266]	@ movhi
 1054 002a 4496     		str	r6, [sp, #272]
 1055 002c 0223     		movs	r3, #2
 1056 002e 4593     		str	r3, [sp, #276]
 1057 0030 4695     		str	r5, [sp, #280]
 1058 0032 0123     		movs	r3, #1
 1059 0034 4793     		str	r3, [sp, #284]
 1060 0036 2146     		mov	r1, r4
 1061 0038 42A8     		add	r0, sp, #264
 1062 003a FFF7FEFF 		bl	hci_send_req
 1063 003e A042     		cmp	r0, r4
 1064 0040 03DB     		blt	.L83
 1065 0042 9DF80700 		ldrb	r0, [sp, #7]	@ zero_extendqisi2
 1066              	.L82:
 1067 0046 48B0     		add	sp, sp, #288
ARM GAS  C:\Users\Nathan\AppData\Local\Temp\ccWZGwQN.s 			page 19


 1068              		@ sp needed
 1069 0048 70BD     		pop	{r4, r5, r6, pc}
 1070              	.L83:
 1071 004a FF20     		movs	r0, #255
 1072 004c FBE7     		b	.L82
 1074              		.section	.text.aci_gap_start_limited_discovery_proc,"ax",%progbits
 1075              		.align	1
 1076              		.global	aci_gap_start_limited_discovery_proc
 1077              		.syntax unified
 1078              		.thumb
 1079              		.thumb_func
 1081              	aci_gap_start_limited_discovery_proc:
 1082              		@ args = 0, pretend = 0, frame = 288
 1083              		@ frame_needed = 0, uses_anonymous_args = 0
 1084 0000 70B5     		push	{r4, r5, r6, lr}
 1085 0002 C8B0     		sub	sp, sp, #288
 1086 0004 0DF10706 		add	r6, sp, #7
 1087 0008 0025     		movs	r5, #0
 1088 000a 8DF80750 		strb	r5, [sp, #7]
 1089 000e 02AC     		add	r4, sp, #8
 1090 0010 ADF80800 		strh	r0, [sp, #8]	@ movhi
 1091 0014 ADF80A10 		strh	r1, [sp, #10]	@ movhi
 1092 0018 8DF80C20 		strb	r2, [sp, #12]
 1093 001c 8DF80D30 		strb	r3, [sp, #13]
 1094 0020 1822     		movs	r2, #24
 1095 0022 2946     		mov	r1, r5
 1096 0024 42A8     		add	r0, sp, #264
 1097 0026 FFF7FEFF 		bl	Osal_MemSet
 1098 002a 3F23     		movs	r3, #63
 1099 002c ADF80831 		strh	r3, [sp, #264]	@ movhi
 1100 0030 9623     		movs	r3, #150
 1101 0032 ADF80A31 		strh	r3, [sp, #266]	@ movhi
 1102 0036 0F23     		movs	r3, #15
 1103 0038 4393     		str	r3, [sp, #268]
 1104 003a 4494     		str	r4, [sp, #272]
 1105 003c 0623     		movs	r3, #6
 1106 003e 4593     		str	r3, [sp, #276]
 1107 0040 4696     		str	r6, [sp, #280]
 1108 0042 0123     		movs	r3, #1
 1109 0044 4793     		str	r3, [sp, #284]
 1110 0046 2946     		mov	r1, r5
 1111 0048 42A8     		add	r0, sp, #264
 1112 004a FFF7FEFF 		bl	hci_send_req
 1113 004e A842     		cmp	r0, r5
 1114 0050 03DB     		blt	.L87
 1115 0052 9DF80700 		ldrb	r0, [sp, #7]	@ zero_extendqisi2
 1116              	.L86:
 1117 0056 48B0     		add	sp, sp, #288
 1118              		@ sp needed
 1119 0058 70BD     		pop	{r4, r5, r6, pc}
 1120              	.L87:
 1121 005a FF20     		movs	r0, #255
 1122 005c FBE7     		b	.L86
 1124              		.section	.text.aci_gap_start_general_discovery_proc,"ax",%progbits
 1125              		.align	1
 1126              		.global	aci_gap_start_general_discovery_proc
 1127              		.syntax unified
ARM GAS  C:\Users\Nathan\AppData\Local\Temp\ccWZGwQN.s 			page 20


 1128              		.thumb
 1129              		.thumb_func
 1131              	aci_gap_start_general_discovery_proc:
 1132              		@ args = 0, pretend = 0, frame = 288
 1133              		@ frame_needed = 0, uses_anonymous_args = 0
 1134 0000 70B5     		push	{r4, r5, r6, lr}
 1135 0002 C8B0     		sub	sp, sp, #288
 1136 0004 0DF10706 		add	r6, sp, #7
 1137 0008 0025     		movs	r5, #0
 1138 000a 8DF80750 		strb	r5, [sp, #7]
 1139 000e 02AC     		add	r4, sp, #8
 1140 0010 ADF80800 		strh	r0, [sp, #8]	@ movhi
 1141 0014 ADF80A10 		strh	r1, [sp, #10]	@ movhi
 1142 0018 8DF80C20 		strb	r2, [sp, #12]
 1143 001c 8DF80D30 		strb	r3, [sp, #13]
 1144 0020 1822     		movs	r2, #24
 1145 0022 2946     		mov	r1, r5
 1146 0024 42A8     		add	r0, sp, #264
 1147 0026 FFF7FEFF 		bl	Osal_MemSet
 1148 002a 3F23     		movs	r3, #63
 1149 002c ADF80831 		strh	r3, [sp, #264]	@ movhi
 1150 0030 9723     		movs	r3, #151
 1151 0032 ADF80A31 		strh	r3, [sp, #266]	@ movhi
 1152 0036 0F23     		movs	r3, #15
 1153 0038 4393     		str	r3, [sp, #268]
 1154 003a 4494     		str	r4, [sp, #272]
 1155 003c 0623     		movs	r3, #6
 1156 003e 4593     		str	r3, [sp, #276]
 1157 0040 4696     		str	r6, [sp, #280]
 1158 0042 0123     		movs	r3, #1
 1159 0044 4793     		str	r3, [sp, #284]
 1160 0046 2946     		mov	r1, r5
 1161 0048 42A8     		add	r0, sp, #264
 1162 004a FFF7FEFF 		bl	hci_send_req
 1163 004e A842     		cmp	r0, r5
 1164 0050 03DB     		blt	.L91
 1165 0052 9DF80700 		ldrb	r0, [sp, #7]	@ zero_extendqisi2
 1166              	.L90:
 1167 0056 48B0     		add	sp, sp, #288
 1168              		@ sp needed
 1169 0058 70BD     		pop	{r4, r5, r6, pc}
 1170              	.L91:
 1171 005a FF20     		movs	r0, #255
 1172 005c FBE7     		b	.L90
 1174              		.section	.text.aci_gap_start_auto_connection_establish_proc,"ax",%progbits
 1175              		.align	1
 1176              		.global	aci_gap_start_auto_connection_establish_proc
 1177              		.syntax unified
 1178              		.thumb
 1179              		.thumb_func
 1181              	aci_gap_start_auto_connection_establish_proc:
 1182              		@ args = 28, pretend = 0, frame = 288
 1183              		@ frame_needed = 0, uses_anonymous_args = 0
 1184 0000 F0B5     		push	{r4, r5, r6, r7, lr}
 1185 0002 C9B0     		sub	sp, sp, #292
 1186 0004 9DF84CC1 		ldrb	ip, [sp, #332]	@ zero_extendqisi2
 1187 0008 0DF10707 		add	r7, sp, #7
ARM GAS  C:\Users\Nathan\AppData\Local\Temp\ccWZGwQN.s 			page 21


 1188 000c 0026     		movs	r6, #0
 1189 000e 8DF80760 		strb	r6, [sp, #7]
 1190 0012 02AC     		add	r4, sp, #8
 1191 0014 ADF80800 		strh	r0, [sp, #8]	@ movhi
 1192 0018 ADF80A10 		strh	r1, [sp, #10]	@ movhi
 1193 001c 8DF80C20 		strb	r2, [sp, #12]
 1194 0020 ADF80D30 		strh	r3, [sp, #13]	@ unaligned
 1195 0024 BDF83831 		ldrh	r3, [sp, #312]
 1196 0028 ADF80F30 		strh	r3, [sp, #15]	@ unaligned
 1197 002c BDF83C31 		ldrh	r3, [sp, #316]
 1198 0030 ADF81130 		strh	r3, [sp, #17]	@ unaligned
 1199 0034 BDF84031 		ldrh	r3, [sp, #320]
 1200 0038 ADF81330 		strh	r3, [sp, #19]	@ unaligned
 1201 003c BDF84431 		ldrh	r3, [sp, #324]
 1202 0040 ADF81530 		strh	r3, [sp, #21]	@ unaligned
 1203 0044 BDF84831 		ldrh	r3, [sp, #328]
 1204 0048 ADF81730 		strh	r3, [sp, #23]	@ unaligned
 1205 004c 8DF819C0 		strb	ip, [sp, #25]
 1206 0050 CCEBCC05 		rsb	r5, ip, ip, lsl #3
 1207 0054 2A46     		mov	r2, r5
 1208 0056 5499     		ldr	r1, [sp, #336]
 1209 0058 0DF11A00 		add	r0, sp, #26
 1210 005c FFF7FEFF 		bl	Osal_MemCpy
 1211 0060 1235     		adds	r5, r5, #18
 1212 0062 1822     		movs	r2, #24
 1213 0064 3146     		mov	r1, r6
 1214 0066 42A8     		add	r0, sp, #264
 1215 0068 FFF7FEFF 		bl	Osal_MemSet
 1216 006c 3F23     		movs	r3, #63
 1217 006e ADF80831 		strh	r3, [sp, #264]	@ movhi
 1218 0072 9923     		movs	r3, #153
 1219 0074 ADF80A31 		strh	r3, [sp, #266]	@ movhi
 1220 0078 0F23     		movs	r3, #15
 1221 007a 4393     		str	r3, [sp, #268]
 1222 007c 4494     		str	r4, [sp, #272]
 1223 007e 4595     		str	r5, [sp, #276]
 1224 0080 4697     		str	r7, [sp, #280]
 1225 0082 0123     		movs	r3, #1
 1226 0084 4793     		str	r3, [sp, #284]
 1227 0086 3146     		mov	r1, r6
 1228 0088 42A8     		add	r0, sp, #264
 1229 008a FFF7FEFF 		bl	hci_send_req
 1230 008e B042     		cmp	r0, r6
 1231 0090 03DB     		blt	.L95
 1232 0092 9DF80700 		ldrb	r0, [sp, #7]	@ zero_extendqisi2
 1233              	.L94:
 1234 0096 49B0     		add	sp, sp, #292
 1235              		@ sp needed
 1236 0098 F0BD     		pop	{r4, r5, r6, r7, pc}
 1237              	.L95:
 1238 009a FF20     		movs	r0, #255
 1239 009c FBE7     		b	.L94
 1241              		.section	.text.aci_gap_start_general_connection_establish_proc,"ax",%progbits
 1242              		.align	1
 1243              		.global	aci_gap_start_general_connection_establish_proc
 1244              		.syntax unified
 1245              		.thumb
ARM GAS  C:\Users\Nathan\AppData\Local\Temp\ccWZGwQN.s 			page 22


 1246              		.thumb_func
 1248              	aci_gap_start_general_connection_establish_proc:
 1249              		@ args = 8, pretend = 0, frame = 288
 1250              		@ frame_needed = 0, uses_anonymous_args = 0
 1251 0000 70B5     		push	{r4, r5, r6, lr}
 1252 0002 C8B0     		sub	sp, sp, #288
 1253 0004 0DF10706 		add	r6, sp, #7
 1254 0008 0025     		movs	r5, #0
 1255 000a 8DF80750 		strb	r5, [sp, #7]
 1256 000e 02AC     		add	r4, sp, #8
 1257 0010 8DF80800 		strb	r0, [sp, #8]
 1258 0014 ADF80910 		strh	r1, [sp, #9]	@ unaligned
 1259 0018 ADF80B20 		strh	r2, [sp, #11]	@ unaligned
 1260 001c 8DF80D30 		strb	r3, [sp, #13]
 1261 0020 9DF83031 		ldrb	r3, [sp, #304]	@ zero_extendqisi2
 1262 0024 8DF80E30 		strb	r3, [sp, #14]
 1263 0028 9DF83431 		ldrb	r3, [sp, #308]	@ zero_extendqisi2
 1264 002c 8DF80F30 		strb	r3, [sp, #15]
 1265 0030 1822     		movs	r2, #24
 1266 0032 2946     		mov	r1, r5
 1267 0034 42A8     		add	r0, sp, #264
 1268 0036 FFF7FEFF 		bl	Osal_MemSet
 1269 003a 3F23     		movs	r3, #63
 1270 003c ADF80831 		strh	r3, [sp, #264]	@ movhi
 1271 0040 9A23     		movs	r3, #154
 1272 0042 ADF80A31 		strh	r3, [sp, #266]	@ movhi
 1273 0046 0F23     		movs	r3, #15
 1274 0048 4393     		str	r3, [sp, #268]
 1275 004a 4494     		str	r4, [sp, #272]
 1276 004c 0823     		movs	r3, #8
 1277 004e 4593     		str	r3, [sp, #276]
 1278 0050 4696     		str	r6, [sp, #280]
 1279 0052 0123     		movs	r3, #1
 1280 0054 4793     		str	r3, [sp, #284]
 1281 0056 2946     		mov	r1, r5
 1282 0058 42A8     		add	r0, sp, #264
 1283 005a FFF7FEFF 		bl	hci_send_req
 1284 005e A842     		cmp	r0, r5
 1285 0060 03DB     		blt	.L99
 1286 0062 9DF80700 		ldrb	r0, [sp, #7]	@ zero_extendqisi2
 1287              	.L98:
 1288 0066 48B0     		add	sp, sp, #288
 1289              		@ sp needed
 1290 0068 70BD     		pop	{r4, r5, r6, pc}
 1291              	.L99:
 1292 006a FF20     		movs	r0, #255
 1293 006c FBE7     		b	.L98
 1295              		.section	.text.aci_gap_start_selective_connection_establish_proc,"ax",%progbits
 1296              		.align	1
 1297              		.global	aci_gap_start_selective_connection_establish_proc
 1298              		.syntax unified
 1299              		.thumb
 1300              		.thumb_func
 1302              	aci_gap_start_selective_connection_establish_proc:
 1303              		@ args = 16, pretend = 0, frame = 288
 1304              		@ frame_needed = 0, uses_anonymous_args = 0
 1305 0000 F0B5     		push	{r4, r5, r6, r7, lr}
ARM GAS  C:\Users\Nathan\AppData\Local\Temp\ccWZGwQN.s 			page 23


 1306 0002 C9B0     		sub	sp, sp, #292
 1307 0004 9DF840C1 		ldrb	ip, [sp, #320]	@ zero_extendqisi2
 1308 0008 0DF10707 		add	r7, sp, #7
 1309 000c 0026     		movs	r6, #0
 1310 000e 8DF80760 		strb	r6, [sp, #7]
 1311 0012 02AD     		add	r5, sp, #8
 1312 0014 8DF80800 		strb	r0, [sp, #8]
 1313 0018 ADF80910 		strh	r1, [sp, #9]	@ unaligned
 1314 001c ADF80B20 		strh	r2, [sp, #11]	@ unaligned
 1315 0020 8DF80D30 		strb	r3, [sp, #13]
 1316 0024 9DF83831 		ldrb	r3, [sp, #312]	@ zero_extendqisi2
 1317 0028 8DF80E30 		strb	r3, [sp, #14]
 1318 002c 9DF83C31 		ldrb	r3, [sp, #316]	@ zero_extendqisi2
 1319 0030 8DF80F30 		strb	r3, [sp, #15]
 1320 0034 8DF810C0 		strb	ip, [sp, #16]
 1321 0038 CCEBCC04 		rsb	r4, ip, ip, lsl #3
 1322 003c 2246     		mov	r2, r4
 1323 003e 5199     		ldr	r1, [sp, #324]
 1324 0040 0DF11100 		add	r0, sp, #17
 1325 0044 FFF7FEFF 		bl	Osal_MemCpy
 1326 0048 0934     		adds	r4, r4, #9
 1327 004a 1822     		movs	r2, #24
 1328 004c 3146     		mov	r1, r6
 1329 004e 42A8     		add	r0, sp, #264
 1330 0050 FFF7FEFF 		bl	Osal_MemSet
 1331 0054 3F23     		movs	r3, #63
 1332 0056 ADF80831 		strh	r3, [sp, #264]	@ movhi
 1333 005a 9B23     		movs	r3, #155
 1334 005c ADF80A31 		strh	r3, [sp, #266]	@ movhi
 1335 0060 0F23     		movs	r3, #15
 1336 0062 4393     		str	r3, [sp, #268]
 1337 0064 4495     		str	r5, [sp, #272]
 1338 0066 4594     		str	r4, [sp, #276]
 1339 0068 4697     		str	r7, [sp, #280]
 1340 006a 0123     		movs	r3, #1
 1341 006c 4793     		str	r3, [sp, #284]
 1342 006e 3146     		mov	r1, r6
 1343 0070 42A8     		add	r0, sp, #264
 1344 0072 FFF7FEFF 		bl	hci_send_req
 1345 0076 B042     		cmp	r0, r6
 1346 0078 03DB     		blt	.L103
 1347 007a 9DF80700 		ldrb	r0, [sp, #7]	@ zero_extendqisi2
 1348              	.L102:
 1349 007e 49B0     		add	sp, sp, #292
 1350              		@ sp needed
 1351 0080 F0BD     		pop	{r4, r5, r6, r7, pc}
 1352              	.L103:
 1353 0082 FF20     		movs	r0, #255
 1354 0084 FBE7     		b	.L102
 1356              		.section	.text.aci_gap_create_connection,"ax",%progbits
 1357              		.align	1
 1358              		.global	aci_gap_create_connection
 1359              		.syntax unified
 1360              		.thumb
 1361              		.thumb_func
 1363              	aci_gap_create_connection:
 1364              		@ args = 28, pretend = 0, frame = 288
ARM GAS  C:\Users\Nathan\AppData\Local\Temp\ccWZGwQN.s 			page 24


 1365              		@ frame_needed = 0, uses_anonymous_args = 0
 1366 0000 70B5     		push	{r4, r5, r6, lr}
 1367 0002 C8B0     		sub	sp, sp, #288
 1368 0004 0DF10706 		add	r6, sp, #7
 1369 0008 0025     		movs	r5, #0
 1370 000a 8DF80750 		strb	r5, [sp, #7]
 1371 000e 02AC     		add	r4, sp, #8
 1372 0010 ADF80800 		strh	r0, [sp, #8]	@ movhi
 1373 0014 ADF80A10 		strh	r1, [sp, #10]	@ movhi
 1374 0018 8DF80C20 		strb	r2, [sp, #12]
 1375 001c 0622     		movs	r2, #6
 1376 001e 1946     		mov	r1, r3
 1377 0020 0DF10D00 		add	r0, sp, #13
 1378 0024 FFF7FEFF 		bl	Osal_MemCpy
 1379 0028 9DF83031 		ldrb	r3, [sp, #304]	@ zero_extendqisi2
 1380 002c 8DF81330 		strb	r3, [sp, #19]
 1381 0030 BDF83431 		ldrh	r3, [sp, #308]
 1382 0034 ADF81430 		strh	r3, [sp, #20]	@ movhi
 1383 0038 BDF83831 		ldrh	r3, [sp, #312]
 1384 003c ADF81630 		strh	r3, [sp, #22]	@ movhi
 1385 0040 BDF83C31 		ldrh	r3, [sp, #316]
 1386 0044 ADF81830 		strh	r3, [sp, #24]	@ movhi
 1387 0048 BDF84031 		ldrh	r3, [sp, #320]
 1388 004c ADF81A30 		strh	r3, [sp, #26]	@ movhi
 1389 0050 BDF84431 		ldrh	r3, [sp, #324]
 1390 0054 ADF81C30 		strh	r3, [sp, #28]	@ movhi
 1391 0058 BDF84831 		ldrh	r3, [sp, #328]
 1392 005c ADF81E30 		strh	r3, [sp, #30]	@ movhi
 1393 0060 1822     		movs	r2, #24
 1394 0062 2946     		mov	r1, r5
 1395 0064 42A8     		add	r0, sp, #264
 1396 0066 FFF7FEFF 		bl	Osal_MemSet
 1397 006a 3F23     		movs	r3, #63
 1398 006c ADF80831 		strh	r3, [sp, #264]	@ movhi
 1399 0070 9C23     		movs	r3, #156
 1400 0072 ADF80A31 		strh	r3, [sp, #266]	@ movhi
 1401 0076 0F23     		movs	r3, #15
 1402 0078 4393     		str	r3, [sp, #268]
 1403 007a 4494     		str	r4, [sp, #272]
 1404 007c 1823     		movs	r3, #24
 1405 007e 4593     		str	r3, [sp, #276]
 1406 0080 4696     		str	r6, [sp, #280]
 1407 0082 0123     		movs	r3, #1
 1408 0084 4793     		str	r3, [sp, #284]
 1409 0086 2946     		mov	r1, r5
 1410 0088 42A8     		add	r0, sp, #264
 1411 008a FFF7FEFF 		bl	hci_send_req
 1412 008e A842     		cmp	r0, r5
 1413 0090 03DB     		blt	.L107
 1414 0092 9DF80700 		ldrb	r0, [sp, #7]	@ zero_extendqisi2
 1415              	.L106:
 1416 0096 48B0     		add	sp, sp, #288
 1417              		@ sp needed
 1418 0098 70BD     		pop	{r4, r5, r6, pc}
 1419              	.L107:
 1420 009a FF20     		movs	r0, #255
 1421 009c FBE7     		b	.L106
ARM GAS  C:\Users\Nathan\AppData\Local\Temp\ccWZGwQN.s 			page 25


 1423              		.section	.text.aci_gap_terminate_gap_proc,"ax",%progbits
 1424              		.align	1
 1425              		.global	aci_gap_terminate_gap_proc
 1426              		.syntax unified
 1427              		.thumb
 1428              		.thumb_func
 1430              	aci_gap_terminate_gap_proc:
 1431              		@ args = 0, pretend = 0, frame = 288
 1432              		@ frame_needed = 0, uses_anonymous_args = 0
 1433 0000 70B5     		push	{r4, r5, r6, lr}
 1434 0002 C8B0     		sub	sp, sp, #288
 1435 0004 0DF10705 		add	r5, sp, #7
 1436 0008 0024     		movs	r4, #0
 1437 000a 8DF80740 		strb	r4, [sp, #7]
 1438 000e 02AE     		add	r6, sp, #8
 1439 0010 8DF80800 		strb	r0, [sp, #8]
 1440 0014 1822     		movs	r2, #24
 1441 0016 2146     		mov	r1, r4
 1442 0018 42A8     		add	r0, sp, #264
 1443 001a FFF7FEFF 		bl	Osal_MemSet
 1444 001e 3F23     		movs	r3, #63
 1445 0020 ADF80831 		strh	r3, [sp, #264]	@ movhi
 1446 0024 9D23     		movs	r3, #157
 1447 0026 ADF80A31 		strh	r3, [sp, #266]	@ movhi
 1448 002a 4496     		str	r6, [sp, #272]
 1449 002c 0123     		movs	r3, #1
 1450 002e 4593     		str	r3, [sp, #276]
 1451 0030 4695     		str	r5, [sp, #280]
 1452 0032 4793     		str	r3, [sp, #284]
 1453 0034 2146     		mov	r1, r4
 1454 0036 42A8     		add	r0, sp, #264
 1455 0038 FFF7FEFF 		bl	hci_send_req
 1456 003c A042     		cmp	r0, r4
 1457 003e 03DB     		blt	.L111
 1458 0040 9DF80700 		ldrb	r0, [sp, #7]	@ zero_extendqisi2
 1459              	.L110:
 1460 0044 48B0     		add	sp, sp, #288
 1461              		@ sp needed
 1462 0046 70BD     		pop	{r4, r5, r6, pc}
 1463              	.L111:
 1464 0048 FF20     		movs	r0, #255
 1465 004a FBE7     		b	.L110
 1467              		.section	.text.aci_gap_start_connection_update,"ax",%progbits
 1468              		.align	1
 1469              		.global	aci_gap_start_connection_update
 1470              		.syntax unified
 1471              		.thumb
 1472              		.thumb_func
 1474              	aci_gap_start_connection_update:
 1475              		@ args = 12, pretend = 0, frame = 288
 1476              		@ frame_needed = 0, uses_anonymous_args = 0
 1477 0000 70B5     		push	{r4, r5, r6, lr}
 1478 0002 C8B0     		sub	sp, sp, #288
 1479 0004 0DF10706 		add	r6, sp, #7
 1480 0008 0025     		movs	r5, #0
 1481 000a 8DF80750 		strb	r5, [sp, #7]
 1482 000e 02AC     		add	r4, sp, #8
ARM GAS  C:\Users\Nathan\AppData\Local\Temp\ccWZGwQN.s 			page 26


 1483 0010 ADF80800 		strh	r0, [sp, #8]	@ movhi
 1484 0014 ADF80A10 		strh	r1, [sp, #10]	@ movhi
 1485 0018 ADF80C20 		strh	r2, [sp, #12]	@ movhi
 1486 001c ADF80E30 		strh	r3, [sp, #14]	@ movhi
 1487 0020 BDF83031 		ldrh	r3, [sp, #304]
 1488 0024 ADF81030 		strh	r3, [sp, #16]	@ movhi
 1489 0028 BDF83431 		ldrh	r3, [sp, #308]
 1490 002c ADF81230 		strh	r3, [sp, #18]	@ movhi
 1491 0030 BDF83831 		ldrh	r3, [sp, #312]
 1492 0034 ADF81430 		strh	r3, [sp, #20]	@ movhi
 1493 0038 1822     		movs	r2, #24
 1494 003a 2946     		mov	r1, r5
 1495 003c 42A8     		add	r0, sp, #264
 1496 003e FFF7FEFF 		bl	Osal_MemSet
 1497 0042 3F23     		movs	r3, #63
 1498 0044 ADF80831 		strh	r3, [sp, #264]	@ movhi
 1499 0048 9E23     		movs	r3, #158
 1500 004a ADF80A31 		strh	r3, [sp, #266]	@ movhi
 1501 004e 0F23     		movs	r3, #15
 1502 0050 4393     		str	r3, [sp, #268]
 1503 0052 4494     		str	r4, [sp, #272]
 1504 0054 0E23     		movs	r3, #14
 1505 0056 4593     		str	r3, [sp, #276]
 1506 0058 4696     		str	r6, [sp, #280]
 1507 005a 0123     		movs	r3, #1
 1508 005c 4793     		str	r3, [sp, #284]
 1509 005e 2946     		mov	r1, r5
 1510 0060 42A8     		add	r0, sp, #264
 1511 0062 FFF7FEFF 		bl	hci_send_req
 1512 0066 A842     		cmp	r0, r5
 1513 0068 03DB     		blt	.L115
 1514 006a 9DF80700 		ldrb	r0, [sp, #7]	@ zero_extendqisi2
 1515              	.L114:
 1516 006e 48B0     		add	sp, sp, #288
 1517              		@ sp needed
 1518 0070 70BD     		pop	{r4, r5, r6, pc}
 1519              	.L115:
 1520 0072 FF20     		movs	r0, #255
 1521 0074 FBE7     		b	.L114
 1523              		.section	.text.aci_gap_send_pairing_req,"ax",%progbits
 1524              		.align	1
 1525              		.global	aci_gap_send_pairing_req
 1526              		.syntax unified
 1527              		.thumb
 1528              		.thumb_func
 1530              	aci_gap_send_pairing_req:
 1531              		@ args = 0, pretend = 0, frame = 288
 1532              		@ frame_needed = 0, uses_anonymous_args = 0
 1533 0000 70B5     		push	{r4, r5, r6, lr}
 1534 0002 C8B0     		sub	sp, sp, #288
 1535 0004 0DF10706 		add	r6, sp, #7
 1536 0008 0024     		movs	r4, #0
 1537 000a 8DF80740 		strb	r4, [sp, #7]
 1538 000e 02AD     		add	r5, sp, #8
 1539 0010 ADF80800 		strh	r0, [sp, #8]	@ movhi
 1540 0014 8DF80A10 		strb	r1, [sp, #10]
 1541 0018 1822     		movs	r2, #24
ARM GAS  C:\Users\Nathan\AppData\Local\Temp\ccWZGwQN.s 			page 27


 1542 001a 2146     		mov	r1, r4
 1543 001c 42A8     		add	r0, sp, #264
 1544 001e FFF7FEFF 		bl	Osal_MemSet
 1545 0022 3F23     		movs	r3, #63
 1546 0024 ADF80831 		strh	r3, [sp, #264]	@ movhi
 1547 0028 9F23     		movs	r3, #159
 1548 002a ADF80A31 		strh	r3, [sp, #266]	@ movhi
 1549 002e 0F23     		movs	r3, #15
 1550 0030 4393     		str	r3, [sp, #268]
 1551 0032 4495     		str	r5, [sp, #272]
 1552 0034 0323     		movs	r3, #3
 1553 0036 4593     		str	r3, [sp, #276]
 1554 0038 4696     		str	r6, [sp, #280]
 1555 003a 0123     		movs	r3, #1
 1556 003c 4793     		str	r3, [sp, #284]
 1557 003e 2146     		mov	r1, r4
 1558 0040 42A8     		add	r0, sp, #264
 1559 0042 FFF7FEFF 		bl	hci_send_req
 1560 0046 A042     		cmp	r0, r4
 1561 0048 03DB     		blt	.L119
 1562 004a 9DF80700 		ldrb	r0, [sp, #7]	@ zero_extendqisi2
 1563              	.L118:
 1564 004e 48B0     		add	sp, sp, #288
 1565              		@ sp needed
 1566 0050 70BD     		pop	{r4, r5, r6, pc}
 1567              	.L119:
 1568 0052 FF20     		movs	r0, #255
 1569 0054 FBE7     		b	.L118
 1571              		.section	.text.aci_gap_set_broadcast_mode,"ax",%progbits
 1572              		.align	1
 1573              		.global	aci_gap_set_broadcast_mode
 1574              		.syntax unified
 1575              		.thumb
 1576              		.thumb_func
 1578              	aci_gap_set_broadcast_mode:
 1579              		@ args = 16, pretend = 0, frame = 288
 1580              		@ frame_needed = 0, uses_anonymous_args = 0
 1581 0000 2DE9F047 		push	{r4, r5, r6, r7, r8, r9, r10, lr}
 1582 0004 C8B0     		sub	sp, sp, #288
 1583 0006 9DF84041 		ldrb	r4, [sp, #320]	@ zero_extendqisi2
 1584 000a 9DF84861 		ldrb	r6, [sp, #328]	@ zero_extendqisi2
 1585 000e 04F1070A 		add	r10, r4, #7
 1586 0012 02AD     		add	r5, sp, #8
 1587 0014 05EB0A09 		add	r9, r5, r10
 1588 0018 0DF10708 		add	r8, sp, #7
 1589 001c 0027     		movs	r7, #0
 1590 001e 8DF80770 		strb	r7, [sp, #7]
 1591 0022 ADF80800 		strh	r0, [sp, #8]	@ movhi
 1592 0026 ADF80A10 		strh	r1, [sp, #10]	@ movhi
 1593 002a 8DF80C20 		strb	r2, [sp, #12]
 1594 002e 8DF80D30 		strb	r3, [sp, #13]
 1595 0032 8DF80E40 		strb	r4, [sp, #14]
 1596 0036 2246     		mov	r2, r4
 1597 0038 5199     		ldr	r1, [sp, #324]
 1598 003a 0DF10F00 		add	r0, sp, #15
 1599 003e FFF7FEFF 		bl	Osal_MemCpy
 1600 0042 05F80A60 		strb	r6, [r5, r10]
ARM GAS  C:\Users\Nathan\AppData\Local\Temp\ccWZGwQN.s 			page 28


 1601 0046 0834     		adds	r4, r4, #8
 1602 0048 C6EBC606 		rsb	r6, r6, r6, lsl #3
 1603 004c 3246     		mov	r2, r6
 1604 004e 5399     		ldr	r1, [sp, #332]
 1605 0050 09F10100 		add	r0, r9, #1
 1606 0054 FFF7FEFF 		bl	Osal_MemCpy
 1607 0058 3444     		add	r4, r4, r6
 1608 005a 1822     		movs	r2, #24
 1609 005c 3946     		mov	r1, r7
 1610 005e 42A8     		add	r0, sp, #264
 1611 0060 FFF7FEFF 		bl	Osal_MemSet
 1612 0064 3F23     		movs	r3, #63
 1613 0066 ADF80831 		strh	r3, [sp, #264]	@ movhi
 1614 006a A123     		movs	r3, #161
 1615 006c ADF80A31 		strh	r3, [sp, #266]	@ movhi
 1616 0070 4495     		str	r5, [sp, #272]
 1617 0072 4594     		str	r4, [sp, #276]
 1618 0074 CDF81881 		str	r8, [sp, #280]
 1619 0078 0123     		movs	r3, #1
 1620 007a 4793     		str	r3, [sp, #284]
 1621 007c 3946     		mov	r1, r7
 1622 007e 42A8     		add	r0, sp, #264
 1623 0080 FFF7FEFF 		bl	hci_send_req
 1624 0084 B842     		cmp	r0, r7
 1625 0086 04DB     		blt	.L123
 1626 0088 9DF80700 		ldrb	r0, [sp, #7]	@ zero_extendqisi2
 1627              	.L122:
 1628 008c 48B0     		add	sp, sp, #288
 1629              		@ sp needed
 1630 008e BDE8F087 		pop	{r4, r5, r6, r7, r8, r9, r10, pc}
 1631              	.L123:
 1632 0092 FF20     		movs	r0, #255
 1633 0094 FAE7     		b	.L122
 1635              		.section	.text.aci_gap_start_observation_proc,"ax",%progbits
 1636              		.align	1
 1637              		.global	aci_gap_start_observation_proc
 1638              		.syntax unified
 1639              		.thumb
 1640              		.thumb_func
 1642              	aci_gap_start_observation_proc:
 1643              		@ args = 8, pretend = 0, frame = 288
 1644              		@ frame_needed = 0, uses_anonymous_args = 0
 1645 0000 70B5     		push	{r4, r5, r6, lr}
 1646 0002 C8B0     		sub	sp, sp, #288
 1647 0004 0DF10706 		add	r6, sp, #7
 1648 0008 0025     		movs	r5, #0
 1649 000a 8DF80750 		strb	r5, [sp, #7]
 1650 000e 02AC     		add	r4, sp, #8
 1651 0010 ADF80800 		strh	r0, [sp, #8]	@ movhi
 1652 0014 ADF80A10 		strh	r1, [sp, #10]	@ movhi
 1653 0018 8DF80C20 		strb	r2, [sp, #12]
 1654 001c 8DF80D30 		strb	r3, [sp, #13]
 1655 0020 9DF83031 		ldrb	r3, [sp, #304]	@ zero_extendqisi2
 1656 0024 8DF80E30 		strb	r3, [sp, #14]
 1657 0028 9DF83431 		ldrb	r3, [sp, #308]	@ zero_extendqisi2
 1658 002c 8DF80F30 		strb	r3, [sp, #15]
 1659 0030 1822     		movs	r2, #24
ARM GAS  C:\Users\Nathan\AppData\Local\Temp\ccWZGwQN.s 			page 29


 1660 0032 2946     		mov	r1, r5
 1661 0034 42A8     		add	r0, sp, #264
 1662 0036 FFF7FEFF 		bl	Osal_MemSet
 1663 003a 3F23     		movs	r3, #63
 1664 003c ADF80831 		strh	r3, [sp, #264]	@ movhi
 1665 0040 A223     		movs	r3, #162
 1666 0042 ADF80A31 		strh	r3, [sp, #266]	@ movhi
 1667 0046 0F23     		movs	r3, #15
 1668 0048 4393     		str	r3, [sp, #268]
 1669 004a 4494     		str	r4, [sp, #272]
 1670 004c 0823     		movs	r3, #8
 1671 004e 4593     		str	r3, [sp, #276]
 1672 0050 4696     		str	r6, [sp, #280]
 1673 0052 0123     		movs	r3, #1
 1674 0054 4793     		str	r3, [sp, #284]
 1675 0056 2946     		mov	r1, r5
 1676 0058 42A8     		add	r0, sp, #264
 1677 005a FFF7FEFF 		bl	hci_send_req
 1678 005e A842     		cmp	r0, r5
 1679 0060 03DB     		blt	.L127
 1680 0062 9DF80700 		ldrb	r0, [sp, #7]	@ zero_extendqisi2
 1681              	.L126:
 1682 0066 48B0     		add	sp, sp, #288
 1683              		@ sp needed
 1684 0068 70BD     		pop	{r4, r5, r6, pc}
 1685              	.L127:
 1686 006a FF20     		movs	r0, #255
 1687 006c FBE7     		b	.L126
 1689              		.section	.text.aci_gap_get_bonded_devices,"ax",%progbits
 1690              		.align	1
 1691              		.global	aci_gap_get_bonded_devices
 1692              		.syntax unified
 1693              		.thumb
 1694              		.thumb_func
 1696              	aci_gap_get_bonded_devices:
 1697              		@ args = 0, pretend = 0, frame = 272
 1698              		@ frame_needed = 0, uses_anonymous_args = 0
 1699 0000 70B5     		push	{r4, r5, r6, lr}
 1700 0002 C4B0     		sub	sp, sp, #272
 1701 0004 0646     		mov	r6, r0
 1702 0006 0C46     		mov	r4, r1
 1703 0008 F722     		movs	r2, #247
 1704 000a 0021     		movs	r1, #0
 1705 000c 6846     		mov	r0, sp
 1706 000e FFF7FEFF 		bl	Osal_MemSet
 1707 0012 1822     		movs	r2, #24
 1708 0014 0021     		movs	r1, #0
 1709 0016 3EA8     		add	r0, sp, #248
 1710 0018 FFF7FEFF 		bl	Osal_MemSet
 1711 001c 3F23     		movs	r3, #63
 1712 001e ADF8F830 		strh	r3, [sp, #248]	@ movhi
 1713 0022 A323     		movs	r3, #163
 1714 0024 ADF8FA30 		strh	r3, [sp, #250]	@ movhi
 1715 0028 CDF808D1 		str	sp, [sp, #264]
 1716 002c F723     		movs	r3, #247
 1717 002e 4393     		str	r3, [sp, #268]
 1718 0030 0021     		movs	r1, #0
ARM GAS  C:\Users\Nathan\AppData\Local\Temp\ccWZGwQN.s 			page 30


 1719 0032 3EA8     		add	r0, sp, #248
 1720 0034 FFF7FEFF 		bl	hci_send_req
 1721 0038 0028     		cmp	r0, #0
 1722 003a 10DB     		blt	.L131
 1723 003c 9DF80050 		ldrb	r5, [sp]	@ zero_extendqisi2
 1724 0040 15B1     		cbz	r5, .L133
 1725              	.L130:
 1726 0042 2846     		mov	r0, r5
 1727 0044 44B0     		add	sp, sp, #272
 1728              		@ sp needed
 1729 0046 70BD     		pop	{r4, r5, r6, pc}
 1730              	.L133:
 1731 0048 9DF80120 		ldrb	r2, [sp, #1]	@ zero_extendqisi2
 1732 004c 3270     		strb	r2, [r6]
 1733 004e C2EBC202 		rsb	r2, r2, r2, lsl #3
 1734 0052 0DF10201 		add	r1, sp, #2
 1735 0056 2046     		mov	r0, r4
 1736 0058 FFF7FEFF 		bl	Osal_MemCpy
 1737 005c F1E7     		b	.L130
 1738              	.L131:
 1739 005e FF25     		movs	r5, #255
 1740 0060 EFE7     		b	.L130
 1742              		.section	.text.aci_gap_check_bonded_device,"ax",%progbits
 1743              		.align	1
 1744              		.global	aci_gap_check_bonded_device
 1745              		.syntax unified
 1746              		.thumb
 1747              		.thumb_func
 1749              	aci_gap_check_bonded_device:
 1750              		@ args = 0, pretend = 0, frame = 288
 1751              		@ frame_needed = 0, uses_anonymous_args = 0
 1752 0000 2DE9F041 		push	{r4, r5, r6, r7, r8, lr}
 1753 0004 C8B0     		sub	sp, sp, #288
 1754 0006 0546     		mov	r5, r0
 1755 0008 0C46     		mov	r4, r1
 1756 000a 1746     		mov	r7, r2
 1757 000c 1E46     		mov	r6, r3
 1758 000e 0822     		movs	r2, #8
 1759 0010 0021     		movs	r1, #0
 1760 0012 6846     		mov	r0, sp
 1761 0014 FFF7FEFF 		bl	Osal_MemSet
 1762 0018 0DF10808 		add	r8, sp, #8
 1763 001c 8DF80850 		strb	r5, [sp, #8]
 1764 0020 0622     		movs	r2, #6
 1765 0022 2146     		mov	r1, r4
 1766 0024 0DF10900 		add	r0, sp, #9
 1767 0028 FFF7FEFF 		bl	Osal_MemCpy
 1768 002c 1822     		movs	r2, #24
 1769 002e 0021     		movs	r1, #0
 1770 0030 42A8     		add	r0, sp, #264
 1771 0032 FFF7FEFF 		bl	Osal_MemSet
 1772 0036 3F23     		movs	r3, #63
 1773 0038 ADF80831 		strh	r3, [sp, #264]	@ movhi
 1774 003c A423     		movs	r3, #164
 1775 003e ADF80A31 		strh	r3, [sp, #266]	@ movhi
 1776 0042 CDF81081 		str	r8, [sp, #272]
 1777 0046 0723     		movs	r3, #7
ARM GAS  C:\Users\Nathan\AppData\Local\Temp\ccWZGwQN.s 			page 31


 1778 0048 4593     		str	r3, [sp, #276]
 1779 004a CDF818D1 		str	sp, [sp, #280]
 1780 004e 0823     		movs	r3, #8
 1781 0050 4793     		str	r3, [sp, #284]
 1782 0052 0021     		movs	r1, #0
 1783 0054 42A8     		add	r0, sp, #264
 1784 0056 FFF7FEFF 		bl	hci_send_req
 1785 005a 0028     		cmp	r0, #0
 1786 005c 10DB     		blt	.L136
 1787 005e 9DF80040 		ldrb	r4, [sp]	@ zero_extendqisi2
 1788 0062 1CB1     		cbz	r4, .L138
 1789              	.L135:
 1790 0064 2046     		mov	r0, r4
 1791 0066 48B0     		add	sp, sp, #288
 1792              		@ sp needed
 1793 0068 BDE8F081 		pop	{r4, r5, r6, r7, r8, pc}
 1794              	.L138:
 1795 006c 9DF80130 		ldrb	r3, [sp, #1]	@ zero_extendqisi2
 1796 0070 3B70     		strb	r3, [r7]
 1797 0072 0622     		movs	r2, #6
 1798 0074 0DF10201 		add	r1, sp, #2
 1799 0078 3046     		mov	r0, r6
 1800 007a FFF7FEFF 		bl	Osal_MemCpy
 1801 007e F1E7     		b	.L135
 1802              	.L136:
 1803 0080 FF24     		movs	r4, #255
 1804 0082 EFE7     		b	.L135
 1806              		.section	.text.aci_gap_numeric_comparison_value_confirm_yesno,"ax",%progbits
 1807              		.align	1
 1808              		.global	aci_gap_numeric_comparison_value_confirm_yesno
 1809              		.syntax unified
 1810              		.thumb
 1811              		.thumb_func
 1813              	aci_gap_numeric_comparison_value_confirm_yesno:
 1814              		@ args = 0, pretend = 0, frame = 288
 1815              		@ frame_needed = 0, uses_anonymous_args = 0
 1816 0000 70B5     		push	{r4, r5, r6, lr}
 1817 0002 C8B0     		sub	sp, sp, #288
 1818 0004 0DF10706 		add	r6, sp, #7
 1819 0008 0024     		movs	r4, #0
 1820 000a 8DF80740 		strb	r4, [sp, #7]
 1821 000e 02AD     		add	r5, sp, #8
 1822 0010 ADF80800 		strh	r0, [sp, #8]	@ movhi
 1823 0014 8DF80A10 		strb	r1, [sp, #10]
 1824 0018 1822     		movs	r2, #24
 1825 001a 2146     		mov	r1, r4
 1826 001c 42A8     		add	r0, sp, #264
 1827 001e FFF7FEFF 		bl	Osal_MemSet
 1828 0022 3F23     		movs	r3, #63
 1829 0024 ADF80831 		strh	r3, [sp, #264]	@ movhi
 1830 0028 A523     		movs	r3, #165
 1831 002a ADF80A31 		strh	r3, [sp, #266]	@ movhi
 1832 002e 4495     		str	r5, [sp, #272]
 1833 0030 0323     		movs	r3, #3
 1834 0032 4593     		str	r3, [sp, #276]
 1835 0034 4696     		str	r6, [sp, #280]
 1836 0036 0123     		movs	r3, #1
ARM GAS  C:\Users\Nathan\AppData\Local\Temp\ccWZGwQN.s 			page 32


 1837 0038 4793     		str	r3, [sp, #284]
 1838 003a 2146     		mov	r1, r4
 1839 003c 42A8     		add	r0, sp, #264
 1840 003e FFF7FEFF 		bl	hci_send_req
 1841 0042 A042     		cmp	r0, r4
 1842 0044 03DB     		blt	.L141
 1843 0046 9DF80700 		ldrb	r0, [sp, #7]	@ zero_extendqisi2
 1844              	.L140:
 1845 004a 48B0     		add	sp, sp, #288
 1846              		@ sp needed
 1847 004c 70BD     		pop	{r4, r5, r6, pc}
 1848              	.L141:
 1849 004e FF20     		movs	r0, #255
 1850 0050 FBE7     		b	.L140
 1852              		.section	.text.aci_gap_passkey_input,"ax",%progbits
 1853              		.align	1
 1854              		.global	aci_gap_passkey_input
 1855              		.syntax unified
 1856              		.thumb
 1857              		.thumb_func
 1859              	aci_gap_passkey_input:
 1860              		@ args = 0, pretend = 0, frame = 288
 1861              		@ frame_needed = 0, uses_anonymous_args = 0
 1862 0000 70B5     		push	{r4, r5, r6, lr}
 1863 0002 C8B0     		sub	sp, sp, #288
 1864 0004 0DF10706 		add	r6, sp, #7
 1865 0008 0024     		movs	r4, #0
 1866 000a 8DF80740 		strb	r4, [sp, #7]
 1867 000e 02AD     		add	r5, sp, #8
 1868 0010 ADF80800 		strh	r0, [sp, #8]	@ movhi
 1869 0014 8DF80A10 		strb	r1, [sp, #10]
 1870 0018 1822     		movs	r2, #24
 1871 001a 2146     		mov	r1, r4
 1872 001c 42A8     		add	r0, sp, #264
 1873 001e FFF7FEFF 		bl	Osal_MemSet
 1874 0022 3F23     		movs	r3, #63
 1875 0024 ADF80831 		strh	r3, [sp, #264]	@ movhi
 1876 0028 A623     		movs	r3, #166
 1877 002a ADF80A31 		strh	r3, [sp, #266]	@ movhi
 1878 002e 4495     		str	r5, [sp, #272]
 1879 0030 0323     		movs	r3, #3
 1880 0032 4593     		str	r3, [sp, #276]
 1881 0034 4696     		str	r6, [sp, #280]
 1882 0036 0123     		movs	r3, #1
 1883 0038 4793     		str	r3, [sp, #284]
 1884 003a 2146     		mov	r1, r4
 1885 003c 42A8     		add	r0, sp, #264
 1886 003e FFF7FEFF 		bl	hci_send_req
 1887 0042 A042     		cmp	r0, r4
 1888 0044 03DB     		blt	.L145
 1889 0046 9DF80700 		ldrb	r0, [sp, #7]	@ zero_extendqisi2
 1890              	.L144:
 1891 004a 48B0     		add	sp, sp, #288
 1892              		@ sp needed
 1893 004c 70BD     		pop	{r4, r5, r6, pc}
 1894              	.L145:
 1895 004e FF20     		movs	r0, #255
ARM GAS  C:\Users\Nathan\AppData\Local\Temp\ccWZGwQN.s 			page 33


 1896 0050 FBE7     		b	.L144
 1898              		.section	.text.aci_gap_get_oob_data,"ax",%progbits
 1899              		.align	1
 1900              		.global	aci_gap_get_oob_data
 1901              		.syntax unified
 1902              		.thumb
 1903              		.thumb_func
 1905              	aci_gap_get_oob_data:
 1906              		@ args = 4, pretend = 0, frame = 312
 1907              		@ frame_needed = 0, uses_anonymous_args = 0
 1908 0000 2DE9F043 		push	{r4, r5, r6, r7, r8, r9, lr}
 1909 0004 CFB0     		sub	sp, sp, #316
 1910 0006 0446     		mov	r4, r0
 1911 0008 0F46     		mov	r7, r1
 1912 000a 1646     		mov	r6, r2
 1913 000c 1D46     		mov	r5, r3
 1914 000e 0DF10408 		add	r8, sp, #4
 1915 0012 1A22     		movs	r2, #26
 1916 0014 0021     		movs	r1, #0
 1917 0016 4046     		mov	r0, r8
 1918 0018 FFF7FEFF 		bl	Osal_MemSet
 1919 001c 0DF12009 		add	r9, sp, #32
 1920 0020 8DF82040 		strb	r4, [sp, #32]
 1921 0024 1822     		movs	r2, #24
 1922 0026 0021     		movs	r1, #0
 1923 0028 48A8     		add	r0, sp, #288
 1924 002a FFF7FEFF 		bl	Osal_MemSet
 1925 002e 3F23     		movs	r3, #63
 1926 0030 ADF82031 		strh	r3, [sp, #288]	@ movhi
 1927 0034 A723     		movs	r3, #167
 1928 0036 ADF82231 		strh	r3, [sp, #290]	@ movhi
 1929 003a CDF82891 		str	r9, [sp, #296]
 1930 003e 0123     		movs	r3, #1
 1931 0040 4B93     		str	r3, [sp, #300]
 1932 0042 CDF83081 		str	r8, [sp, #304]
 1933 0046 1A23     		movs	r3, #26
 1934 0048 4D93     		str	r3, [sp, #308]
 1935 004a 0021     		movs	r1, #0
 1936 004c 48A8     		add	r0, sp, #288
 1937 004e FFF7FEFF 		bl	hci_send_req
 1938 0052 0028     		cmp	r0, #0
 1939 0054 19DB     		blt	.L149
 1940 0056 9DF80440 		ldrb	r4, [sp, #4]	@ zero_extendqisi2
 1941 005a 1CB1     		cbz	r4, .L151
 1942              	.L148:
 1943 005c 2046     		mov	r0, r4
 1944 005e 4FB0     		add	sp, sp, #316
 1945              		@ sp needed
 1946 0060 BDE8F083 		pop	{r4, r5, r6, r7, r8, r9, pc}
 1947              	.L151:
 1948 0064 9DF80530 		ldrb	r3, [sp, #5]	@ zero_extendqisi2
 1949 0068 3B70     		strb	r3, [r7]
 1950 006a 0622     		movs	r2, #6
 1951 006c 0DEB0201 		add	r1, sp, r2
 1952 0070 3046     		mov	r0, r6
 1953 0072 FFF7FEFF 		bl	Osal_MemCpy
 1954 0076 9DF80D30 		ldrb	r3, [sp, #13]	@ zero_extendqisi2
ARM GAS  C:\Users\Nathan\AppData\Local\Temp\ccWZGwQN.s 			page 34


 1955 007a 2B70     		strb	r3, [r5]
 1956 007c 1022     		movs	r2, #16
 1957 007e 0DF10E01 		add	r1, sp, #14
 1958 0082 5698     		ldr	r0, [sp, #344]
 1959 0084 FFF7FEFF 		bl	Osal_MemCpy
 1960 0088 E8E7     		b	.L148
 1961              	.L149:
 1962 008a FF24     		movs	r4, #255
 1963 008c E6E7     		b	.L148
 1965              		.section	.text.aci_gap_set_oob_data,"ax",%progbits
 1966              		.align	1
 1967              		.global	aci_gap_set_oob_data
 1968              		.syntax unified
 1969              		.thumb
 1970              		.thumb_func
 1972              	aci_gap_set_oob_data:
 1973              		@ args = 8, pretend = 0, frame = 288
 1974              		@ frame_needed = 0, uses_anonymous_args = 0
 1975 0000 F0B5     		push	{r4, r5, r6, r7, lr}
 1976 0002 C9B0     		sub	sp, sp, #292
 1977 0004 8C46     		mov	ip, r1
 1978 0006 1146     		mov	r1, r2
 1979 0008 1E46     		mov	r6, r3
 1980 000a 0DF10707 		add	r7, sp, #7
 1981 000e 0025     		movs	r5, #0
 1982 0010 8DF80750 		strb	r5, [sp, #7]
 1983 0014 02AC     		add	r4, sp, #8
 1984 0016 8DF80800 		strb	r0, [sp, #8]
 1985 001a 8DF809C0 		strb	ip, [sp, #9]
 1986 001e 0622     		movs	r2, #6
 1987 0020 0DF10A00 		add	r0, sp, #10
 1988 0024 FFF7FEFF 		bl	Osal_MemCpy
 1989 0028 8DF81060 		strb	r6, [sp, #16]
 1990 002c 9DF83831 		ldrb	r3, [sp, #312]	@ zero_extendqisi2
 1991 0030 8DF81130 		strb	r3, [sp, #17]
 1992 0034 1022     		movs	r2, #16
 1993 0036 4F99     		ldr	r1, [sp, #316]
 1994 0038 0DF11200 		add	r0, sp, #18
 1995 003c FFF7FEFF 		bl	Osal_MemCpy
 1996 0040 1822     		movs	r2, #24
 1997 0042 2946     		mov	r1, r5
 1998 0044 42A8     		add	r0, sp, #264
 1999 0046 FFF7FEFF 		bl	Osal_MemSet
 2000 004a 3F23     		movs	r3, #63
 2001 004c ADF80831 		strh	r3, [sp, #264]	@ movhi
 2002 0050 A823     		movs	r3, #168
 2003 0052 ADF80A31 		strh	r3, [sp, #266]	@ movhi
 2004 0056 4494     		str	r4, [sp, #272]
 2005 0058 1A23     		movs	r3, #26
 2006 005a 4593     		str	r3, [sp, #276]
 2007 005c 4697     		str	r7, [sp, #280]
 2008 005e 0123     		movs	r3, #1
 2009 0060 4793     		str	r3, [sp, #284]
 2010 0062 2946     		mov	r1, r5
 2011 0064 42A8     		add	r0, sp, #264
 2012 0066 FFF7FEFF 		bl	hci_send_req
 2013 006a A842     		cmp	r0, r5
ARM GAS  C:\Users\Nathan\AppData\Local\Temp\ccWZGwQN.s 			page 35


 2014 006c 03DB     		blt	.L154
 2015 006e 9DF80700 		ldrb	r0, [sp, #7]	@ zero_extendqisi2
 2016              	.L153:
 2017 0072 49B0     		add	sp, sp, #292
 2018              		@ sp needed
 2019 0074 F0BD     		pop	{r4, r5, r6, r7, pc}
 2020              	.L154:
 2021 0076 FF20     		movs	r0, #255
 2022 0078 FBE7     		b	.L153
 2024              		.section	.text.aci_gap_add_devices_to_resolving_list,"ax",%progbits
 2025              		.align	1
 2026              		.global	aci_gap_add_devices_to_resolving_list
 2027              		.syntax unified
 2028              		.thumb
 2029              		.thumb_func
 2031              	aci_gap_add_devices_to_resolving_list:
 2032              		@ args = 0, pretend = 0, frame = 288
 2033              		@ frame_needed = 0, uses_anonymous_args = 0
 2034 0000 2DE9F043 		push	{r4, r5, r6, r7, r8, r9, lr}
 2035 0004 C9B0     		sub	sp, sp, #292
 2036 0006 1746     		mov	r7, r2
 2037 0008 C0EBC004 		rsb	r4, r0, r0, lsl #3
 2038 000c 04F10109 		add	r9, r4, #1
 2039 0010 02AE     		add	r6, sp, #8
 2040 0012 0DF10708 		add	r8, sp, #7
 2041 0016 0025     		movs	r5, #0
 2042 0018 8DF80750 		strb	r5, [sp, #7]
 2043 001c 8DF80800 		strb	r0, [sp, #8]
 2044 0020 2246     		mov	r2, r4
 2045 0022 0DF10900 		add	r0, sp, #9
 2046 0026 FFF7FEFF 		bl	Osal_MemCpy
 2047 002a 06F80970 		strb	r7, [r6, r9]
 2048 002e 0234     		adds	r4, r4, #2
 2049 0030 1822     		movs	r2, #24
 2050 0032 2946     		mov	r1, r5
 2051 0034 42A8     		add	r0, sp, #264
 2052 0036 FFF7FEFF 		bl	Osal_MemSet
 2053 003a 3F23     		movs	r3, #63
 2054 003c ADF80831 		strh	r3, [sp, #264]	@ movhi
 2055 0040 A923     		movs	r3, #169
 2056 0042 ADF80A31 		strh	r3, [sp, #266]	@ movhi
 2057 0046 4496     		str	r6, [sp, #272]
 2058 0048 4594     		str	r4, [sp, #276]
 2059 004a CDF81881 		str	r8, [sp, #280]
 2060 004e 0123     		movs	r3, #1
 2061 0050 4793     		str	r3, [sp, #284]
 2062 0052 2946     		mov	r1, r5
 2063 0054 42A8     		add	r0, sp, #264
 2064 0056 FFF7FEFF 		bl	hci_send_req
 2065 005a A842     		cmp	r0, r5
 2066 005c 04DB     		blt	.L158
 2067 005e 9DF80700 		ldrb	r0, [sp, #7]	@ zero_extendqisi2
 2068              	.L157:
 2069 0062 49B0     		add	sp, sp, #292
 2070              		@ sp needed
 2071 0064 BDE8F083 		pop	{r4, r5, r6, r7, r8, r9, pc}
 2072              	.L158:
ARM GAS  C:\Users\Nathan\AppData\Local\Temp\ccWZGwQN.s 			page 36


 2073 0068 FF20     		movs	r0, #255
 2074 006a FAE7     		b	.L157
 2076              		.section	.text.aci_gap_remove_bonded_device,"ax",%progbits
 2077              		.align	1
 2078              		.global	aci_gap_remove_bonded_device
 2079              		.syntax unified
 2080              		.thumb
 2081              		.thumb_func
 2083              	aci_gap_remove_bonded_device:
 2084              		@ args = 0, pretend = 0, frame = 288
 2085              		@ frame_needed = 0, uses_anonymous_args = 0
 2086 0000 70B5     		push	{r4, r5, r6, lr}
 2087 0002 C8B0     		sub	sp, sp, #288
 2088 0004 0DF10705 		add	r5, sp, #7
 2089 0008 0024     		movs	r4, #0
 2090 000a 8DF80740 		strb	r4, [sp, #7]
 2091 000e 02AE     		add	r6, sp, #8
 2092 0010 8DF80800 		strb	r0, [sp, #8]
 2093 0014 0622     		movs	r2, #6
 2094 0016 0DF10900 		add	r0, sp, #9
 2095 001a FFF7FEFF 		bl	Osal_MemCpy
 2096 001e 1822     		movs	r2, #24
 2097 0020 2146     		mov	r1, r4
 2098 0022 42A8     		add	r0, sp, #264
 2099 0024 FFF7FEFF 		bl	Osal_MemSet
 2100 0028 3F23     		movs	r3, #63
 2101 002a ADF80831 		strh	r3, [sp, #264]	@ movhi
 2102 002e AA23     		movs	r3, #170
 2103 0030 ADF80A31 		strh	r3, [sp, #266]	@ movhi
 2104 0034 4496     		str	r6, [sp, #272]
 2105 0036 0723     		movs	r3, #7
 2106 0038 4593     		str	r3, [sp, #276]
 2107 003a 4695     		str	r5, [sp, #280]
 2108 003c 0123     		movs	r3, #1
 2109 003e 4793     		str	r3, [sp, #284]
 2110 0040 2146     		mov	r1, r4
 2111 0042 42A8     		add	r0, sp, #264
 2112 0044 FFF7FEFF 		bl	hci_send_req
 2113 0048 A042     		cmp	r0, r4
 2114 004a 03DB     		blt	.L162
 2115 004c 9DF80700 		ldrb	r0, [sp, #7]	@ zero_extendqisi2
 2116              	.L161:
 2117 0050 48B0     		add	sp, sp, #288
 2118              		@ sp needed
 2119 0052 70BD     		pop	{r4, r5, r6, pc}
 2120              	.L162:
 2121 0054 FF20     		movs	r0, #255
 2122 0056 FBE7     		b	.L161
 2124              		.section	.text.aci_gap_add_devices_to_list,"ax",%progbits
 2125              		.align	1
 2126              		.global	aci_gap_add_devices_to_list
 2127              		.syntax unified
 2128              		.thumb
 2129              		.thumb_func
 2131              	aci_gap_add_devices_to_list:
 2132              		@ args = 0, pretend = 0, frame = 288
 2133              		@ frame_needed = 0, uses_anonymous_args = 0
ARM GAS  C:\Users\Nathan\AppData\Local\Temp\ccWZGwQN.s 			page 37


 2134 0000 2DE9F043 		push	{r4, r5, r6, r7, r8, r9, lr}
 2135 0004 C9B0     		sub	sp, sp, #292
 2136 0006 1746     		mov	r7, r2
 2137 0008 C0EBC004 		rsb	r4, r0, r0, lsl #3
 2138 000c 04F10109 		add	r9, r4, #1
 2139 0010 02AE     		add	r6, sp, #8
 2140 0012 0DF10708 		add	r8, sp, #7
 2141 0016 0025     		movs	r5, #0
 2142 0018 8DF80750 		strb	r5, [sp, #7]
 2143 001c 8DF80800 		strb	r0, [sp, #8]
 2144 0020 2246     		mov	r2, r4
 2145 0022 0DF10900 		add	r0, sp, #9
 2146 0026 FFF7FEFF 		bl	Osal_MemCpy
 2147 002a 06F80970 		strb	r7, [r6, r9]
 2148 002e 0234     		adds	r4, r4, #2
 2149 0030 1822     		movs	r2, #24
 2150 0032 2946     		mov	r1, r5
 2151 0034 42A8     		add	r0, sp, #264
 2152 0036 FFF7FEFF 		bl	Osal_MemSet
 2153 003a 3F23     		movs	r3, #63
 2154 003c ADF80831 		strh	r3, [sp, #264]	@ movhi
 2155 0040 AB23     		movs	r3, #171
 2156 0042 ADF80A31 		strh	r3, [sp, #266]	@ movhi
 2157 0046 4496     		str	r6, [sp, #272]
 2158 0048 4594     		str	r4, [sp, #276]
 2159 004a CDF81881 		str	r8, [sp, #280]
 2160 004e 0123     		movs	r3, #1
 2161 0050 4793     		str	r3, [sp, #284]
 2162 0052 2946     		mov	r1, r5
 2163 0054 42A8     		add	r0, sp, #264
 2164 0056 FFF7FEFF 		bl	hci_send_req
 2165 005a A842     		cmp	r0, r5
 2166 005c 04DB     		blt	.L166
 2167 005e 9DF80700 		ldrb	r0, [sp, #7]	@ zero_extendqisi2
 2168              	.L165:
 2169 0062 49B0     		add	sp, sp, #292
 2170              		@ sp needed
 2171 0064 BDE8F083 		pop	{r4, r5, r6, r7, r8, r9, pc}
 2172              	.L166:
 2173 0068 FF20     		movs	r0, #255
 2174 006a FAE7     		b	.L165
 2176              		.section	.text.aci_gap_pairing_request_reply,"ax",%progbits
 2177              		.align	1
 2178              		.global	aci_gap_pairing_request_reply
 2179              		.syntax unified
 2180              		.thumb
 2181              		.thumb_func
 2183              	aci_gap_pairing_request_reply:
 2184              		@ args = 0, pretend = 0, frame = 288
 2185              		@ frame_needed = 0, uses_anonymous_args = 0
 2186 0000 70B5     		push	{r4, r5, r6, lr}
 2187 0002 C8B0     		sub	sp, sp, #288
 2188 0004 0DF10706 		add	r6, sp, #7
 2189 0008 0024     		movs	r4, #0
 2190 000a 8DF80740 		strb	r4, [sp, #7]
 2191 000e 02AD     		add	r5, sp, #8
 2192 0010 ADF80800 		strh	r0, [sp, #8]	@ movhi
ARM GAS  C:\Users\Nathan\AppData\Local\Temp\ccWZGwQN.s 			page 38


 2193 0014 8DF80A10 		strb	r1, [sp, #10]
 2194 0018 1822     		movs	r2, #24
 2195 001a 2146     		mov	r1, r4
 2196 001c 42A8     		add	r0, sp, #264
 2197 001e FFF7FEFF 		bl	Osal_MemSet
 2198 0022 3F23     		movs	r3, #63
 2199 0024 ADF80831 		strh	r3, [sp, #264]	@ movhi
 2200 0028 AD23     		movs	r3, #173
 2201 002a ADF80A31 		strh	r3, [sp, #266]	@ movhi
 2202 002e 4495     		str	r5, [sp, #272]
 2203 0030 0323     		movs	r3, #3
 2204 0032 4593     		str	r3, [sp, #276]
 2205 0034 4696     		str	r6, [sp, #280]
 2206 0036 0123     		movs	r3, #1
 2207 0038 4793     		str	r3, [sp, #284]
 2208 003a 2146     		mov	r1, r4
 2209 003c 42A8     		add	r0, sp, #264
 2210 003e FFF7FEFF 		bl	hci_send_req
 2211 0042 A042     		cmp	r0, r4
 2212 0044 03DB     		blt	.L170
 2213 0046 9DF80700 		ldrb	r0, [sp, #7]	@ zero_extendqisi2
 2214              	.L169:
 2215 004a 48B0     		add	sp, sp, #288
 2216              		@ sp needed
 2217 004c 70BD     		pop	{r4, r5, r6, pc}
 2218              	.L170:
 2219 004e FF20     		movs	r0, #255
 2220 0050 FBE7     		b	.L169
 2222              		.section	.text.aci_gap_additional_beacon_start,"ax",%progbits
 2223              		.align	1
 2224              		.global	aci_gap_additional_beacon_start
 2225              		.syntax unified
 2226              		.thumb
 2227              		.thumb_func
 2229              	aci_gap_additional_beacon_start:
 2230              		@ args = 8, pretend = 0, frame = 288
 2231              		@ frame_needed = 0, uses_anonymous_args = 0
 2232 0000 70B5     		push	{r4, r5, r6, lr}
 2233 0002 C8B0     		sub	sp, sp, #288
 2234 0004 0DF10706 		add	r6, sp, #7
 2235 0008 0025     		movs	r5, #0
 2236 000a 8DF80750 		strb	r5, [sp, #7]
 2237 000e 02AC     		add	r4, sp, #8
 2238 0010 ADF80800 		strh	r0, [sp, #8]	@ movhi
 2239 0014 ADF80A10 		strh	r1, [sp, #10]	@ movhi
 2240 0018 8DF80C20 		strb	r2, [sp, #12]
 2241 001c 8DF80D30 		strb	r3, [sp, #13]
 2242 0020 0622     		movs	r2, #6
 2243 0022 4C99     		ldr	r1, [sp, #304]
 2244 0024 0DF10E00 		add	r0, sp, #14
 2245 0028 FFF7FEFF 		bl	Osal_MemCpy
 2246 002c 9DF83431 		ldrb	r3, [sp, #308]	@ zero_extendqisi2
 2247 0030 8DF81430 		strb	r3, [sp, #20]
 2248 0034 1822     		movs	r2, #24
 2249 0036 2946     		mov	r1, r5
 2250 0038 42A8     		add	r0, sp, #264
 2251 003a FFF7FEFF 		bl	Osal_MemSet
ARM GAS  C:\Users\Nathan\AppData\Local\Temp\ccWZGwQN.s 			page 39


 2252 003e 3F23     		movs	r3, #63
 2253 0040 ADF80831 		strh	r3, [sp, #264]	@ movhi
 2254 0044 B023     		movs	r3, #176
 2255 0046 ADF80A31 		strh	r3, [sp, #266]	@ movhi
 2256 004a 4494     		str	r4, [sp, #272]
 2257 004c 0D23     		movs	r3, #13
 2258 004e 4593     		str	r3, [sp, #276]
 2259 0050 4696     		str	r6, [sp, #280]
 2260 0052 0123     		movs	r3, #1
 2261 0054 4793     		str	r3, [sp, #284]
 2262 0056 2946     		mov	r1, r5
 2263 0058 42A8     		add	r0, sp, #264
 2264 005a FFF7FEFF 		bl	hci_send_req
 2265 005e A842     		cmp	r0, r5
 2266 0060 03DB     		blt	.L174
 2267 0062 9DF80700 		ldrb	r0, [sp, #7]	@ zero_extendqisi2
 2268              	.L173:
 2269 0066 48B0     		add	sp, sp, #288
 2270              		@ sp needed
 2271 0068 70BD     		pop	{r4, r5, r6, pc}
 2272              	.L174:
 2273 006a FF20     		movs	r0, #255
 2274 006c FBE7     		b	.L173
 2276              		.section	.text.aci_gap_additional_beacon_stop,"ax",%progbits
 2277              		.align	1
 2278              		.global	aci_gap_additional_beacon_stop
 2279              		.syntax unified
 2280              		.thumb
 2281              		.thumb_func
 2283              	aci_gap_additional_beacon_stop:
 2284              		@ args = 0, pretend = 0, frame = 32
 2285              		@ frame_needed = 0, uses_anonymous_args = 0
 2286 0000 10B5     		push	{r4, lr}
 2287 0002 88B0     		sub	sp, sp, #32
 2288 0004 0024     		movs	r4, #0
 2289 0006 8DF80740 		strb	r4, [sp, #7]
 2290 000a 1822     		movs	r2, #24
 2291 000c 2146     		mov	r1, r4
 2292 000e 02A8     		add	r0, sp, #8
 2293 0010 FFF7FEFF 		bl	Osal_MemSet
 2294 0014 3F23     		movs	r3, #63
 2295 0016 ADF80830 		strh	r3, [sp, #8]	@ movhi
 2296 001a B123     		movs	r3, #177
 2297 001c ADF80A30 		strh	r3, [sp, #10]	@ movhi
 2298 0020 0DF10703 		add	r3, sp, #7
 2299 0024 0693     		str	r3, [sp, #24]
 2300 0026 0123     		movs	r3, #1
 2301 0028 0793     		str	r3, [sp, #28]
 2302 002a 2146     		mov	r1, r4
 2303 002c 02A8     		add	r0, sp, #8
 2304 002e FFF7FEFF 		bl	hci_send_req
 2305 0032 A042     		cmp	r0, r4
 2306 0034 03DB     		blt	.L178
 2307 0036 9DF80700 		ldrb	r0, [sp, #7]	@ zero_extendqisi2
 2308              	.L177:
 2309 003a 08B0     		add	sp, sp, #32
 2310              		@ sp needed
ARM GAS  C:\Users\Nathan\AppData\Local\Temp\ccWZGwQN.s 			page 40


 2311 003c 10BD     		pop	{r4, pc}
 2312              	.L178:
 2313 003e FF20     		movs	r0, #255
 2314 0040 FBE7     		b	.L177
 2316              		.section	.text.aci_gap_additional_beacon_set_data,"ax",%progbits
 2317              		.align	1
 2318              		.global	aci_gap_additional_beacon_set_data
 2319              		.syntax unified
 2320              		.thumb
 2321              		.thumb_func
 2323              	aci_gap_additional_beacon_set_data:
 2324              		@ args = 0, pretend = 0, frame = 288
 2325              		@ frame_needed = 0, uses_anonymous_args = 0
 2326 0000 F0B5     		push	{r4, r5, r6, r7, lr}
 2327 0002 C9B0     		sub	sp, sp, #292
 2328 0004 0446     		mov	r4, r0
 2329 0006 0DF10706 		add	r6, sp, #7
 2330 000a 0025     		movs	r5, #0
 2331 000c 8DF80750 		strb	r5, [sp, #7]
 2332 0010 02AF     		add	r7, sp, #8
 2333 0012 8DF80800 		strb	r0, [sp, #8]
 2334 0016 0246     		mov	r2, r0
 2335 0018 0DF10900 		add	r0, sp, #9
 2336 001c FFF7FEFF 		bl	Osal_MemCpy
 2337 0020 0134     		adds	r4, r4, #1
 2338 0022 1822     		movs	r2, #24
 2339 0024 2946     		mov	r1, r5
 2340 0026 42A8     		add	r0, sp, #264
 2341 0028 FFF7FEFF 		bl	Osal_MemSet
 2342 002c 3F23     		movs	r3, #63
 2343 002e ADF80831 		strh	r3, [sp, #264]	@ movhi
 2344 0032 B223     		movs	r3, #178
 2345 0034 ADF80A31 		strh	r3, [sp, #266]	@ movhi
 2346 0038 4497     		str	r7, [sp, #272]
 2347 003a 4594     		str	r4, [sp, #276]
 2348 003c 4696     		str	r6, [sp, #280]
 2349 003e 0123     		movs	r3, #1
 2350 0040 4793     		str	r3, [sp, #284]
 2351 0042 2946     		mov	r1, r5
 2352 0044 42A8     		add	r0, sp, #264
 2353 0046 FFF7FEFF 		bl	hci_send_req
 2354 004a A842     		cmp	r0, r5
 2355 004c 03DB     		blt	.L182
 2356 004e 9DF80700 		ldrb	r0, [sp, #7]	@ zero_extendqisi2
 2357              	.L181:
 2358 0052 49B0     		add	sp, sp, #292
 2359              		@ sp needed
 2360 0054 F0BD     		pop	{r4, r5, r6, r7, pc}
 2361              	.L182:
 2362 0056 FF20     		movs	r0, #255
 2363 0058 FBE7     		b	.L181
 2365              		.section	.text.aci_gap_adv_set_configuration,"ax",%progbits
 2366              		.align	1
 2367              		.global	aci_gap_adv_set_configuration
 2368              		.syntax unified
 2369              		.thumb
 2370              		.thumb_func
ARM GAS  C:\Users\Nathan\AppData\Local\Temp\ccWZGwQN.s 			page 41


 2372              	aci_gap_adv_set_configuration:
 2373              		@ args = 44, pretend = 0, frame = 288
 2374              		@ frame_needed = 0, uses_anonymous_args = 0
 2375 0000 70B5     		push	{r4, r5, r6, lr}
 2376 0002 C8B0     		sub	sp, sp, #288
 2377 0004 0DF10706 		add	r6, sp, #7
 2378 0008 0025     		movs	r5, #0
 2379 000a 8DF80750 		strb	r5, [sp, #7]
 2380 000e 02AC     		add	r4, sp, #8
 2381 0010 8DF80800 		strb	r0, [sp, #8]
 2382 0014 8DF80910 		strb	r1, [sp, #9]
 2383 0018 ADF80A20 		strh	r2, [sp, #10]	@ movhi
 2384 001c 0393     		str	r3, [sp, #12]
 2385 001e 4C9B     		ldr	r3, [sp, #304]
 2386 0020 0493     		str	r3, [sp, #16]
 2387 0022 9DF83431 		ldrb	r3, [sp, #308]	@ zero_extendqisi2
 2388 0026 8DF81430 		strb	r3, [sp, #20]
 2389 002a 9DF83831 		ldrb	r3, [sp, #312]	@ zero_extendqisi2
 2390 002e 8DF81530 		strb	r3, [sp, #21]
 2391 0032 9DF83C31 		ldrb	r3, [sp, #316]	@ zero_extendqisi2
 2392 0036 8DF81630 		strb	r3, [sp, #22]
 2393 003a 0622     		movs	r2, #6
 2394 003c 5099     		ldr	r1, [sp, #320]
 2395 003e 0DF11700 		add	r0, sp, #23
 2396 0042 FFF7FEFF 		bl	Osal_MemCpy
 2397 0046 9DF84431 		ldrb	r3, [sp, #324]	@ zero_extendqisi2
 2398 004a 8DF81D30 		strb	r3, [sp, #29]
 2399 004e 9DF84831 		ldrb	r3, [sp, #328]	@ zero_extendqisi2
 2400 0052 8DF81E30 		strb	r3, [sp, #30]
 2401 0056 9DF84C31 		ldrb	r3, [sp, #332]	@ zero_extendqisi2
 2402 005a 8DF81F30 		strb	r3, [sp, #31]
 2403 005e 9DF85031 		ldrb	r3, [sp, #336]	@ zero_extendqisi2
 2404 0062 8DF82030 		strb	r3, [sp, #32]
 2405 0066 9DF85431 		ldrb	r3, [sp, #340]	@ zero_extendqisi2
 2406 006a 8DF82130 		strb	r3, [sp, #33]
 2407 006e 9DF85831 		ldrb	r3, [sp, #344]	@ zero_extendqisi2
 2408 0072 8DF82230 		strb	r3, [sp, #34]
 2409 0076 1822     		movs	r2, #24
 2410 0078 2946     		mov	r1, r5
 2411 007a 42A8     		add	r0, sp, #264
 2412 007c FFF7FEFF 		bl	Osal_MemSet
 2413 0080 3F23     		movs	r3, #63
 2414 0082 ADF80831 		strh	r3, [sp, #264]	@ movhi
 2415 0086 C023     		movs	r3, #192
 2416 0088 ADF80A31 		strh	r3, [sp, #266]	@ movhi
 2417 008c 4494     		str	r4, [sp, #272]
 2418 008e 1B23     		movs	r3, #27
 2419 0090 4593     		str	r3, [sp, #276]
 2420 0092 4696     		str	r6, [sp, #280]
 2421 0094 0123     		movs	r3, #1
 2422 0096 4793     		str	r3, [sp, #284]
 2423 0098 2946     		mov	r1, r5
 2424 009a 42A8     		add	r0, sp, #264
 2425 009c FFF7FEFF 		bl	hci_send_req
 2426 00a0 A842     		cmp	r0, r5
 2427 00a2 03DB     		blt	.L186
 2428 00a4 9DF80700 		ldrb	r0, [sp, #7]	@ zero_extendqisi2
ARM GAS  C:\Users\Nathan\AppData\Local\Temp\ccWZGwQN.s 			page 42


 2429              	.L185:
 2430 00a8 48B0     		add	sp, sp, #288
 2431              		@ sp needed
 2432 00aa 70BD     		pop	{r4, r5, r6, pc}
 2433              	.L186:
 2434 00ac FF20     		movs	r0, #255
 2435 00ae FBE7     		b	.L185
 2437              		.section	.text.aci_gap_adv_set_enable,"ax",%progbits
 2438              		.align	1
 2439              		.global	aci_gap_adv_set_enable
 2440              		.syntax unified
 2441              		.thumb
 2442              		.thumb_func
 2444              	aci_gap_adv_set_enable:
 2445              		@ args = 0, pretend = 0, frame = 288
 2446              		@ frame_needed = 0, uses_anonymous_args = 0
 2447 0000 F0B5     		push	{r4, r5, r6, r7, lr}
 2448 0002 C9B0     		sub	sp, sp, #292
 2449 0004 0C46     		mov	r4, r1
 2450 0006 1146     		mov	r1, r2
 2451 0008 0DF10707 		add	r7, sp, #7
 2452 000c 0025     		movs	r5, #0
 2453 000e 8DF80750 		strb	r5, [sp, #7]
 2454 0012 02AE     		add	r6, sp, #8
 2455 0014 8DF80800 		strb	r0, [sp, #8]
 2456 0018 8DF80940 		strb	r4, [sp, #9]
 2457 001c A400     		lsls	r4, r4, #2
 2458 001e 2246     		mov	r2, r4
 2459 0020 0DF10A00 		add	r0, sp, #10
 2460 0024 FFF7FEFF 		bl	Osal_MemCpy
 2461 0028 0234     		adds	r4, r4, #2
 2462 002a 1822     		movs	r2, #24
 2463 002c 2946     		mov	r1, r5
 2464 002e 42A8     		add	r0, sp, #264
 2465 0030 FFF7FEFF 		bl	Osal_MemSet
 2466 0034 3F23     		movs	r3, #63
 2467 0036 ADF80831 		strh	r3, [sp, #264]	@ movhi
 2468 003a C123     		movs	r3, #193
 2469 003c ADF80A31 		strh	r3, [sp, #266]	@ movhi
 2470 0040 4496     		str	r6, [sp, #272]
 2471 0042 4594     		str	r4, [sp, #276]
 2472 0044 4697     		str	r7, [sp, #280]
 2473 0046 0123     		movs	r3, #1
 2474 0048 4793     		str	r3, [sp, #284]
 2475 004a 2946     		mov	r1, r5
 2476 004c 42A8     		add	r0, sp, #264
 2477 004e FFF7FEFF 		bl	hci_send_req
 2478 0052 A842     		cmp	r0, r5
 2479 0054 03DB     		blt	.L190
 2480 0056 9DF80700 		ldrb	r0, [sp, #7]	@ zero_extendqisi2
 2481              	.L189:
 2482 005a 49B0     		add	sp, sp, #292
 2483              		@ sp needed
 2484 005c F0BD     		pop	{r4, r5, r6, r7, pc}
 2485              	.L190:
 2486 005e FF20     		movs	r0, #255
 2487 0060 FBE7     		b	.L189
ARM GAS  C:\Users\Nathan\AppData\Local\Temp\ccWZGwQN.s 			page 43


 2489              		.section	.text.aci_gap_adv_set_adv_data,"ax",%progbits
 2490              		.align	1
 2491              		.global	aci_gap_adv_set_adv_data
 2492              		.syntax unified
 2493              		.thumb
 2494              		.thumb_func
 2496              	aci_gap_adv_set_adv_data:
 2497              		@ args = 4, pretend = 0, frame = 288
 2498              		@ frame_needed = 0, uses_anonymous_args = 0
 2499 0000 F0B5     		push	{r4, r5, r6, r7, lr}
 2500 0002 C9B0     		sub	sp, sp, #292
 2501 0004 1C46     		mov	r4, r3
 2502 0006 0DF10707 		add	r7, sp, #7
 2503 000a 0026     		movs	r6, #0
 2504 000c 8DF80760 		strb	r6, [sp, #7]
 2505 0010 02AD     		add	r5, sp, #8
 2506 0012 8DF80800 		strb	r0, [sp, #8]
 2507 0016 8DF80910 		strb	r1, [sp, #9]
 2508 001a 8DF80A20 		strb	r2, [sp, #10]
 2509 001e 8DF80B30 		strb	r3, [sp, #11]
 2510 0022 1A46     		mov	r2, r3
 2511 0024 4E99     		ldr	r1, [sp, #312]
 2512 0026 03A8     		add	r0, sp, #12
 2513 0028 FFF7FEFF 		bl	Osal_MemCpy
 2514 002c 0434     		adds	r4, r4, #4
 2515 002e 1822     		movs	r2, #24
 2516 0030 3146     		mov	r1, r6
 2517 0032 42A8     		add	r0, sp, #264
 2518 0034 FFF7FEFF 		bl	Osal_MemSet
 2519 0038 3F23     		movs	r3, #63
 2520 003a ADF80831 		strh	r3, [sp, #264]	@ movhi
 2521 003e C223     		movs	r3, #194
 2522 0040 ADF80A31 		strh	r3, [sp, #266]	@ movhi
 2523 0044 4495     		str	r5, [sp, #272]
 2524 0046 4594     		str	r4, [sp, #276]
 2525 0048 4697     		str	r7, [sp, #280]
 2526 004a 0123     		movs	r3, #1
 2527 004c 4793     		str	r3, [sp, #284]
 2528 004e 3146     		mov	r1, r6
 2529 0050 42A8     		add	r0, sp, #264
 2530 0052 FFF7FEFF 		bl	hci_send_req
 2531 0056 B042     		cmp	r0, r6
 2532 0058 03DB     		blt	.L194
 2533 005a 9DF80700 		ldrb	r0, [sp, #7]	@ zero_extendqisi2
 2534              	.L193:
 2535 005e 49B0     		add	sp, sp, #292
 2536              		@ sp needed
 2537 0060 F0BD     		pop	{r4, r5, r6, r7, pc}
 2538              	.L194:
 2539 0062 FF20     		movs	r0, #255
 2540 0064 FBE7     		b	.L193
 2542              		.section	.text.aci_gap_adv_set_scan_resp_data,"ax",%progbits
 2543              		.align	1
 2544              		.global	aci_gap_adv_set_scan_resp_data
 2545              		.syntax unified
 2546              		.thumb
 2547              		.thumb_func
ARM GAS  C:\Users\Nathan\AppData\Local\Temp\ccWZGwQN.s 			page 44


 2549              	aci_gap_adv_set_scan_resp_data:
 2550              		@ args = 4, pretend = 0, frame = 288
 2551              		@ frame_needed = 0, uses_anonymous_args = 0
 2552 0000 F0B5     		push	{r4, r5, r6, r7, lr}
 2553 0002 C9B0     		sub	sp, sp, #292
 2554 0004 1C46     		mov	r4, r3
 2555 0006 0DF10707 		add	r7, sp, #7
 2556 000a 0026     		movs	r6, #0
 2557 000c 8DF80760 		strb	r6, [sp, #7]
 2558 0010 02AD     		add	r5, sp, #8
 2559 0012 8DF80800 		strb	r0, [sp, #8]
 2560 0016 8DF80910 		strb	r1, [sp, #9]
 2561 001a 8DF80A20 		strb	r2, [sp, #10]
 2562 001e 8DF80B30 		strb	r3, [sp, #11]
 2563 0022 1A46     		mov	r2, r3
 2564 0024 4E99     		ldr	r1, [sp, #312]
 2565 0026 03A8     		add	r0, sp, #12
 2566 0028 FFF7FEFF 		bl	Osal_MemCpy
 2567 002c 0434     		adds	r4, r4, #4
 2568 002e 1822     		movs	r2, #24
 2569 0030 3146     		mov	r1, r6
 2570 0032 42A8     		add	r0, sp, #264
 2571 0034 FFF7FEFF 		bl	Osal_MemSet
 2572 0038 3F23     		movs	r3, #63
 2573 003a ADF80831 		strh	r3, [sp, #264]	@ movhi
 2574 003e C323     		movs	r3, #195
 2575 0040 ADF80A31 		strh	r3, [sp, #266]	@ movhi
 2576 0044 4495     		str	r5, [sp, #272]
 2577 0046 4594     		str	r4, [sp, #276]
 2578 0048 4697     		str	r7, [sp, #280]
 2579 004a 0123     		movs	r3, #1
 2580 004c 4793     		str	r3, [sp, #284]
 2581 004e 3146     		mov	r1, r6
 2582 0050 42A8     		add	r0, sp, #264
 2583 0052 FFF7FEFF 		bl	hci_send_req
 2584 0056 B042     		cmp	r0, r6
 2585 0058 03DB     		blt	.L198
 2586 005a 9DF80700 		ldrb	r0, [sp, #7]	@ zero_extendqisi2
 2587              	.L197:
 2588 005e 49B0     		add	sp, sp, #292
 2589              		@ sp needed
 2590 0060 F0BD     		pop	{r4, r5, r6, r7, pc}
 2591              	.L198:
 2592 0062 FF20     		movs	r0, #255
 2593 0064 FBE7     		b	.L197
 2595              		.section	.text.aci_gap_adv_remove_set,"ax",%progbits
 2596              		.align	1
 2597              		.global	aci_gap_adv_remove_set
 2598              		.syntax unified
 2599              		.thumb
 2600              		.thumb_func
 2602              	aci_gap_adv_remove_set:
 2603              		@ args = 0, pretend = 0, frame = 288
 2604              		@ frame_needed = 0, uses_anonymous_args = 0
 2605 0000 70B5     		push	{r4, r5, r6, lr}
 2606 0002 C8B0     		sub	sp, sp, #288
 2607 0004 0DF10705 		add	r5, sp, #7
ARM GAS  C:\Users\Nathan\AppData\Local\Temp\ccWZGwQN.s 			page 45


 2608 0008 0024     		movs	r4, #0
 2609 000a 8DF80740 		strb	r4, [sp, #7]
 2610 000e 02AE     		add	r6, sp, #8
 2611 0010 8DF80800 		strb	r0, [sp, #8]
 2612 0014 1822     		movs	r2, #24
 2613 0016 2146     		mov	r1, r4
 2614 0018 42A8     		add	r0, sp, #264
 2615 001a FFF7FEFF 		bl	Osal_MemSet
 2616 001e 3F23     		movs	r3, #63
 2617 0020 ADF80831 		strh	r3, [sp, #264]	@ movhi
 2618 0024 C423     		movs	r3, #196
 2619 0026 ADF80A31 		strh	r3, [sp, #266]	@ movhi
 2620 002a 4496     		str	r6, [sp, #272]
 2621 002c 0123     		movs	r3, #1
 2622 002e 4593     		str	r3, [sp, #276]
 2623 0030 4695     		str	r5, [sp, #280]
 2624 0032 4793     		str	r3, [sp, #284]
 2625 0034 2146     		mov	r1, r4
 2626 0036 42A8     		add	r0, sp, #264
 2627 0038 FFF7FEFF 		bl	hci_send_req
 2628 003c A042     		cmp	r0, r4
 2629 003e 03DB     		blt	.L202
 2630 0040 9DF80700 		ldrb	r0, [sp, #7]	@ zero_extendqisi2
 2631              	.L201:
 2632 0044 48B0     		add	sp, sp, #288
 2633              		@ sp needed
 2634 0046 70BD     		pop	{r4, r5, r6, pc}
 2635              	.L202:
 2636 0048 FF20     		movs	r0, #255
 2637 004a FBE7     		b	.L201
 2639              		.section	.text.aci_gap_adv_clear_sets,"ax",%progbits
 2640              		.align	1
 2641              		.global	aci_gap_adv_clear_sets
 2642              		.syntax unified
 2643              		.thumb
 2644              		.thumb_func
 2646              	aci_gap_adv_clear_sets:
 2647              		@ args = 0, pretend = 0, frame = 32
 2648              		@ frame_needed = 0, uses_anonymous_args = 0
 2649 0000 10B5     		push	{r4, lr}
 2650 0002 88B0     		sub	sp, sp, #32
 2651 0004 0024     		movs	r4, #0
 2652 0006 8DF80740 		strb	r4, [sp, #7]
 2653 000a 1822     		movs	r2, #24
 2654 000c 2146     		mov	r1, r4
 2655 000e 02A8     		add	r0, sp, #8
 2656 0010 FFF7FEFF 		bl	Osal_MemSet
 2657 0014 3F23     		movs	r3, #63
 2658 0016 ADF80830 		strh	r3, [sp, #8]	@ movhi
 2659 001a C523     		movs	r3, #197
 2660 001c ADF80A30 		strh	r3, [sp, #10]	@ movhi
 2661 0020 0DF10703 		add	r3, sp, #7
 2662 0024 0693     		str	r3, [sp, #24]
 2663 0026 0123     		movs	r3, #1
 2664 0028 0793     		str	r3, [sp, #28]
 2665 002a 2146     		mov	r1, r4
 2666 002c 02A8     		add	r0, sp, #8
ARM GAS  C:\Users\Nathan\AppData\Local\Temp\ccWZGwQN.s 			page 46


 2667 002e FFF7FEFF 		bl	hci_send_req
 2668 0032 A042     		cmp	r0, r4
 2669 0034 03DB     		blt	.L206
 2670 0036 9DF80700 		ldrb	r0, [sp, #7]	@ zero_extendqisi2
 2671              	.L205:
 2672 003a 08B0     		add	sp, sp, #32
 2673              		@ sp needed
 2674 003c 10BD     		pop	{r4, pc}
 2675              	.L206:
 2676 003e FF20     		movs	r0, #255
 2677 0040 FBE7     		b	.L205
 2679              		.section	.text.aci_gap_adv_set_random_address,"ax",%progbits
 2680              		.align	1
 2681              		.global	aci_gap_adv_set_random_address
 2682              		.syntax unified
 2683              		.thumb
 2684              		.thumb_func
 2686              	aci_gap_adv_set_random_address:
 2687              		@ args = 0, pretend = 0, frame = 288
 2688              		@ frame_needed = 0, uses_anonymous_args = 0
 2689 0000 70B5     		push	{r4, r5, r6, lr}
 2690 0002 C8B0     		sub	sp, sp, #288
 2691 0004 0DF10705 		add	r5, sp, #7
 2692 0008 0024     		movs	r4, #0
 2693 000a 8DF80740 		strb	r4, [sp, #7]
 2694 000e 02AE     		add	r6, sp, #8
 2695 0010 8DF80800 		strb	r0, [sp, #8]
 2696 0014 0622     		movs	r2, #6
 2697 0016 0DF10900 		add	r0, sp, #9
 2698 001a FFF7FEFF 		bl	Osal_MemCpy
 2699 001e 1822     		movs	r2, #24
 2700 0020 2146     		mov	r1, r4
 2701 0022 42A8     		add	r0, sp, #264
 2702 0024 FFF7FEFF 		bl	Osal_MemSet
 2703 0028 3F23     		movs	r3, #63
 2704 002a ADF80831 		strh	r3, [sp, #264]	@ movhi
 2705 002e C623     		movs	r3, #198
 2706 0030 ADF80A31 		strh	r3, [sp, #266]	@ movhi
 2707 0034 4496     		str	r6, [sp, #272]
 2708 0036 0723     		movs	r3, #7
 2709 0038 4593     		str	r3, [sp, #276]
 2710 003a 4695     		str	r5, [sp, #280]
 2711 003c 0123     		movs	r3, #1
 2712 003e 4793     		str	r3, [sp, #284]
 2713 0040 2146     		mov	r1, r4
 2714 0042 42A8     		add	r0, sp, #264
 2715 0044 FFF7FEFF 		bl	hci_send_req
 2716 0048 A042     		cmp	r0, r4
 2717 004a 03DB     		blt	.L210
 2718 004c 9DF80700 		ldrb	r0, [sp, #7]	@ zero_extendqisi2
 2719              	.L209:
 2720 0050 48B0     		add	sp, sp, #288
 2721              		@ sp needed
 2722 0052 70BD     		pop	{r4, r5, r6, pc}
 2723              	.L210:
 2724 0054 FF20     		movs	r0, #255
 2725 0056 FBE7     		b	.L209
ARM GAS  C:\Users\Nathan\AppData\Local\Temp\ccWZGwQN.s 			page 47


 2727              		.section	.text.aci_gap_ext_start_scan,"ax",%progbits
 2728              		.align	1
 2729              		.global	aci_gap_ext_start_scan
 2730              		.syntax unified
 2731              		.thumb
 2732              		.thumb_func
 2734              	aci_gap_ext_start_scan:
 2735              		@ args = 20, pretend = 0, frame = 288
 2736              		@ frame_needed = 0, uses_anonymous_args = 0
 2737 0000 70B5     		push	{r4, r5, r6, lr}
 2738 0002 C8B0     		sub	sp, sp, #288
 2739 0004 0DF10706 		add	r6, sp, #7
 2740 0008 0025     		movs	r5, #0
 2741 000a 8DF80750 		strb	r5, [sp, #7]
 2742 000e 02AC     		add	r4, sp, #8
 2743 0010 8DF80800 		strb	r0, [sp, #8]
 2744 0014 8DF80910 		strb	r1, [sp, #9]
 2745 0018 8DF80A20 		strb	r2, [sp, #10]
 2746 001c 8DF80B30 		strb	r3, [sp, #11]
 2747 0020 BDF83031 		ldrh	r3, [sp, #304]
 2748 0024 ADF80C30 		strh	r3, [sp, #12]	@ movhi
 2749 0028 BDF83431 		ldrh	r3, [sp, #308]
 2750 002c ADF80E30 		strh	r3, [sp, #14]	@ movhi
 2751 0030 9DF83831 		ldrb	r3, [sp, #312]	@ zero_extendqisi2
 2752 0034 8DF81030 		strb	r3, [sp, #16]
 2753 0038 9DF83C31 		ldrb	r3, [sp, #316]	@ zero_extendqisi2
 2754 003c 8DF81130 		strb	r3, [sp, #17]
 2755 0040 0A22     		movs	r2, #10
 2756 0042 5099     		ldr	r1, [sp, #320]
 2757 0044 0DF11200 		add	r0, sp, #18
 2758 0048 FFF7FEFF 		bl	Osal_MemCpy
 2759 004c 1822     		movs	r2, #24
 2760 004e 2946     		mov	r1, r5
 2761 0050 42A8     		add	r0, sp, #264
 2762 0052 FFF7FEFF 		bl	Osal_MemSet
 2763 0056 3F23     		movs	r3, #63
 2764 0058 ADF80831 		strh	r3, [sp, #264]	@ movhi
 2765 005c D023     		movs	r3, #208
 2766 005e ADF80A31 		strh	r3, [sp, #266]	@ movhi
 2767 0062 0F23     		movs	r3, #15
 2768 0064 4393     		str	r3, [sp, #268]
 2769 0066 4494     		str	r4, [sp, #272]
 2770 0068 1423     		movs	r3, #20
 2771 006a 4593     		str	r3, [sp, #276]
 2772 006c 4696     		str	r6, [sp, #280]
 2773 006e 0123     		movs	r3, #1
 2774 0070 4793     		str	r3, [sp, #284]
 2775 0072 2946     		mov	r1, r5
 2776 0074 42A8     		add	r0, sp, #264
 2777 0076 FFF7FEFF 		bl	hci_send_req
 2778 007a A842     		cmp	r0, r5
 2779 007c 03DB     		blt	.L214
 2780 007e 9DF80700 		ldrb	r0, [sp, #7]	@ zero_extendqisi2
 2781              	.L213:
 2782 0082 48B0     		add	sp, sp, #288
 2783              		@ sp needed
 2784 0084 70BD     		pop	{r4, r5, r6, pc}
ARM GAS  C:\Users\Nathan\AppData\Local\Temp\ccWZGwQN.s 			page 48


 2785              	.L214:
 2786 0086 FF20     		movs	r0, #255
 2787 0088 FBE7     		b	.L213
 2789              		.section	.text.aci_gap_ext_create_connection,"ax",%progbits
 2790              		.align	1
 2791              		.global	aci_gap_ext_create_connection
 2792              		.syntax unified
 2793              		.thumb
 2794              		.thumb_func
 2796              	aci_gap_ext_create_connection:
 2797              		@ args = 24, pretend = 0, frame = 288
 2798              		@ frame_needed = 0, uses_anonymous_args = 0
 2799 0000 70B5     		push	{r4, r5, r6, lr}
 2800 0002 C8B0     		sub	sp, sp, #288
 2801 0004 0DF10706 		add	r6, sp, #7
 2802 0008 0025     		movs	r5, #0
 2803 000a 8DF80750 		strb	r5, [sp, #7]
 2804 000e 02AC     		add	r4, sp, #8
 2805 0010 8DF80800 		strb	r0, [sp, #8]
 2806 0014 8DF80910 		strb	r1, [sp, #9]
 2807 0018 8DF80A20 		strb	r2, [sp, #10]
 2808 001c 8DF80B30 		strb	r3, [sp, #11]
 2809 0020 0622     		movs	r2, #6
 2810 0022 4C99     		ldr	r1, [sp, #304]
 2811 0024 03A8     		add	r0, sp, #12
 2812 0026 FFF7FEFF 		bl	Osal_MemCpy
 2813 002a 9DF83431 		ldrb	r3, [sp, #308]	@ zero_extendqisi2
 2814 002e 8DF81230 		strb	r3, [sp, #18]
 2815 0032 9DF83831 		ldrb	r3, [sp, #312]	@ zero_extendqisi2
 2816 0036 8DF81330 		strb	r3, [sp, #19]
 2817 003a 9DF83C31 		ldrb	r3, [sp, #316]	@ zero_extendqisi2
 2818 003e 8DF81430 		strb	r3, [sp, #20]
 2819 0042 9DF84031 		ldrb	r3, [sp, #320]	@ zero_extendqisi2
 2820 0046 8DF81530 		strb	r3, [sp, #21]
 2821 004a 3022     		movs	r2, #48
 2822 004c 5199     		ldr	r1, [sp, #324]
 2823 004e 0DF11600 		add	r0, sp, #22
 2824 0052 FFF7FEFF 		bl	Osal_MemCpy
 2825 0056 1822     		movs	r2, #24
 2826 0058 2946     		mov	r1, r5
 2827 005a 42A8     		add	r0, sp, #264
 2828 005c FFF7FEFF 		bl	Osal_MemSet
 2829 0060 3F23     		movs	r3, #63
 2830 0062 ADF80831 		strh	r3, [sp, #264]	@ movhi
 2831 0066 D123     		movs	r3, #209
 2832 0068 ADF80A31 		strh	r3, [sp, #266]	@ movhi
 2833 006c 0F23     		movs	r3, #15
 2834 006e 4393     		str	r3, [sp, #268]
 2835 0070 4494     		str	r4, [sp, #272]
 2836 0072 3E23     		movs	r3, #62
 2837 0074 4593     		str	r3, [sp, #276]
 2838 0076 4696     		str	r6, [sp, #280]
 2839 0078 0123     		movs	r3, #1
 2840 007a 4793     		str	r3, [sp, #284]
 2841 007c 2946     		mov	r1, r5
 2842 007e 42A8     		add	r0, sp, #264
 2843 0080 FFF7FEFF 		bl	hci_send_req
ARM GAS  C:\Users\Nathan\AppData\Local\Temp\ccWZGwQN.s 			page 49


 2844 0084 A842     		cmp	r0, r5
 2845 0086 03DB     		blt	.L218
 2846 0088 9DF80700 		ldrb	r0, [sp, #7]	@ zero_extendqisi2
 2847              	.L217:
 2848 008c 48B0     		add	sp, sp, #288
 2849              		@ sp needed
 2850 008e 70BD     		pop	{r4, r5, r6, pc}
 2851              	.L218:
 2852 0090 FF20     		movs	r0, #255
 2853 0092 FBE7     		b	.L217
 2855              		.ident	"GCC: (Arm GNU Toolchain 13.3.Rel1 (Build arm-13.24)) 13.3.1 20240614"
ARM GAS  C:\Users\Nathan\AppData\Local\Temp\ccWZGwQN.s 			page 50

