ARM GAS  C:\Users\Nathan\AppData\Local\Temp\ccClhu5O.s 			page 1


   1              		.cpu cortex-m4
   2              		.arch armv7e-m
   3              		.fpu fpv4-sp-d16
   4              		.eabi_attribute 27, 1
   5              		.eabi_attribute 28, 1
   6              		.eabi_attribute 20, 1
   7              		.eabi_attribute 21, 1
   8              		.eabi_attribute 23, 3
   9              		.eabi_attribute 24, 1
  10              		.eabi_attribute 25, 1
  11              		.eabi_attribute 26, 1
  12              		.eabi_attribute 30, 1
  13              		.eabi_attribute 34, 1
  14              		.eabi_attribute 18, 4
  15              		.file	"hw_timerserver.c"
  16              		.text
  17              		.section	.text.ReadRtcSsrValue,"ax",%progbits
  18              		.align	1
  19              		.syntax unified
  20              		.thumb
  21              		.thumb_func
  23              	ReadRtcSsrValue:
  24              		@ args = 0, pretend = 0, frame = 0
  25              		@ frame_needed = 0, uses_anonymous_args = 0
  26              		@ link register save eliminated.
  27 0000 064A     		ldr	r2, .L4
  28 0002 936A     		ldr	r3, [r2, #40]
  29 0004 9BB2     		uxth	r3, r3
  30 0006 906A     		ldr	r0, [r2, #40]
  31 0008 80B2     		uxth	r0, r0
  32 000a 03E0     		b	.L2
  33              	.L3:
  34 000c 034B     		ldr	r3, .L4
  35 000e 9A6A     		ldr	r2, [r3, #40]
  36 0010 0346     		mov	r3, r0
  37 0012 90B2     		uxth	r0, r2
  38              	.L2:
  39 0014 8342     		cmp	r3, r0
  40 0016 F9D1     		bne	.L3
  41 0018 7047     		bx	lr
  42              	.L5:
  43 001a 00BF     		.align	2
  44              	.L4:
  45 001c 00280040 		.word	1073752064
  47              		.section	.text.LinkTimerAfter,"ax",%progbits
  48              		.align	1
  49              		.syntax unified
  50              		.thumb
  51              		.thumb_func
  53              	LinkTimerAfter:
  54              		@ args = 0, pretend = 0, frame = 0
  55              		@ frame_needed = 0, uses_anonymous_args = 0
  56              		@ link register save eliminated.
  57 0000 01EB4102 		add	r2, r1, r1, lsl #1
  58 0004 0D4B     		ldr	r3, .L8
  59 0006 03EBC203 		add	r3, r3, r2, lsl #3
  60 000a 5B7D     		ldrb	r3, [r3, #21]	@ zero_extendqisi2
ARM GAS  C:\Users\Nathan\AppData\Local\Temp\ccClhu5O.s 			page 2


  61 000c DBB2     		uxtb	r3, r3
  62 000e 062B     		cmp	r3, #6
  63 0010 05D0     		beq	.L7
  64 0012 03EB430C 		add	ip, r3, r3, lsl #1
  65 0016 094A     		ldr	r2, .L8
  66 0018 02EBCC02 		add	r2, r2, ip, lsl #3
  67 001c 1075     		strb	r0, [r2, #20]
  68              	.L7:
  69 001e 074A     		ldr	r2, .L8
  70 0020 00EB400C 		add	ip, r0, r0, lsl #1
  71 0024 02EBCC0C 		add	ip, r2, ip, lsl #3
  72 0028 8CF81530 		strb	r3, [ip, #21]
  73 002c 8CF81410 		strb	r1, [ip, #20]
  74 0030 01EB4101 		add	r1, r1, r1, lsl #1
  75 0034 02EBC102 		add	r2, r2, r1, lsl #3
  76 0038 5075     		strb	r0, [r2, #21]
  77 003a 7047     		bx	lr
  78              	.L9:
  79              		.align	2
  80              	.L8:
  81 003c 00000000 		.word	aTimerContext
  83              		.section	.text.LinkTimerBefore,"ax",%progbits
  84              		.align	1
  85              		.syntax unified
  86              		.thumb
  87              		.thumb_func
  89              	LinkTimerBefore:
  90              		@ args = 0, pretend = 0, frame = 0
  91              		@ frame_needed = 0, uses_anonymous_args = 0
  92              		@ link register save eliminated.
  93 0000 174B     		ldr	r3, .L13
  94 0002 1B78     		ldrb	r3, [r3]	@ zero_extendqisi2
  95 0004 DBB2     		uxtb	r3, r3
  96 0006 8B42     		cmp	r3, r1
  97 0008 1DD0     		beq	.L11
  98 000a 164B     		ldr	r3, .L13+4
  99 000c 01EB4102 		add	r2, r1, r1, lsl #1
 100 0010 03EBC202 		add	r2, r3, r2, lsl #3
 101 0014 127D     		ldrb	r2, [r2, #20]	@ zero_extendqisi2
 102 0016 5FFA82FC 		uxtb	ip, r2
 103 001a 02EB4202 		add	r2, r2, r2, lsl #1
 104 001e 03EBC202 		add	r2, r3, r2, lsl #3
 105 0022 5075     		strb	r0, [r2, #21]
 106 0024 00EB4002 		add	r2, r0, r0, lsl #1
 107 0028 03EBC202 		add	r2, r3, r2, lsl #3
 108 002c 5175     		strb	r1, [r2, #21]
 109 002e 00EB4002 		add	r2, r0, r0, lsl #1
 110 0032 03EBC202 		add	r2, r3, r2, lsl #3
 111 0036 82F814C0 		strb	ip, [r2, #20]
 112 003a 01EB4101 		add	r1, r1, r1, lsl #1
 113 003e 03EBC103 		add	r3, r3, r1, lsl #3
 114 0042 1875     		strb	r0, [r3, #20]
 115 0044 7047     		bx	lr
 116              	.L11:
 117 0046 074B     		ldr	r3, .L13+4
 118 0048 00EB4002 		add	r2, r0, r0, lsl #1
 119 004c 03EBC202 		add	r2, r3, r2, lsl #3
ARM GAS  C:\Users\Nathan\AppData\Local\Temp\ccClhu5O.s 			page 3


 120 0050 5175     		strb	r1, [r2, #21]
 121 0052 01EB4101 		add	r1, r1, r1, lsl #1
 122 0056 03EBC103 		add	r3, r3, r1, lsl #3
 123 005a 1875     		strb	r0, [r3, #20]
 124 005c 7047     		bx	lr
 125              	.L14:
 126 005e 00BF     		.align	2
 127              	.L13:
 128 0060 00000000 		.word	CurrentRunningTimerID
 129 0064 00000000 		.word	aTimerContext
 131              		.section	.text.UnlinkTimer,"ax",%progbits
 132              		.align	1
 133              		.syntax unified
 134              		.thumb
 135              		.thumb_func
 137              	UnlinkTimer:
 138              		@ args = 0, pretend = 0, frame = 0
 139              		@ frame_needed = 0, uses_anonymous_args = 0
 140              		@ link register save eliminated.
 141 0000 10B4     		push	{r4}
 142 0002 234B     		ldr	r3, .L22
 143 0004 1B78     		ldrb	r3, [r3]	@ zero_extendqisi2
 144 0006 DBB2     		uxtb	r3, r3
 145 0008 8342     		cmp	r3, r0
 146 000a 2CD0     		beq	.L20
 147 000c 214C     		ldr	r4, .L22+4
 148 000e 00EB4002 		add	r2, r0, r0, lsl #1
 149 0012 04EBC202 		add	r2, r4, r2, lsl #3
 150 0016 92F814C0 		ldrb	ip, [r2, #20]	@ zero_extendqisi2
 151 001a 537D     		ldrb	r3, [r2, #21]	@ zero_extendqisi2
 152 001c DBB2     		uxtb	r3, r3
 153 001e 527D     		ldrb	r2, [r2, #21]	@ zero_extendqisi2
 154 0020 D2B2     		uxtb	r2, r2
 155 0022 0CEB4C0C 		add	ip, ip, ip, lsl #1
 156 0026 04EBCC04 		add	r4, r4, ip, lsl #3
 157 002a 6275     		strb	r2, [r4, #21]
 158 002c 062B     		cmp	r3, #6
 159 002e 0BD0     		beq	.L17
 160 0030 184A     		ldr	r2, .L22+4
 161 0032 00EB4004 		add	r4, r0, r0, lsl #1
 162 0036 02EBC404 		add	r4, r2, r4, lsl #3
 163 003a 247D     		ldrb	r4, [r4, #20]	@ zero_extendqisi2
 164 003c E4B2     		uxtb	r4, r4
 165 003e 03EB4303 		add	r3, r3, r3, lsl #1
 166 0042 02EBC302 		add	r2, r2, r3, lsl #3
 167 0046 1475     		strb	r4, [r2, #20]
 168              	.L17:
 169 0048 00EB4000 		add	r0, r0, r0, lsl #1
 170 004c 114B     		ldr	r3, .L22+4
 171 004e 03EBC003 		add	r3, r3, r0, lsl #3
 172 0052 0122     		movs	r2, #1
 173 0054 1A73     		strb	r2, [r3, #12]
 174 0056 0E4B     		ldr	r3, .L22
 175 0058 1B78     		ldrb	r3, [r3]	@ zero_extendqisi2
 176 005a DBB2     		uxtb	r3, r3
 177 005c 062B     		cmp	r3, #6
 178 005e 10D0     		beq	.L21
ARM GAS  C:\Users\Nathan\AppData\Local\Temp\ccClhu5O.s 			page 4


 179              	.L15:
 180 0060 5DF8044B 		ldr	r4, [sp], #4
 181 0064 7047     		bx	lr
 182              	.L20:
 183 0066 0A4C     		ldr	r4, .L22
 184 0068 2378     		ldrb	r3, [r4]	@ zero_extendqisi2
 185 006a DBB2     		uxtb	r3, r3
 186 006c 0A4A     		ldr	r2, .L22+8
 187 006e 1370     		strb	r3, [r2]
 188 0070 00EB4002 		add	r2, r0, r0, lsl #1
 189 0074 074B     		ldr	r3, .L22+4
 190 0076 03EBC203 		add	r3, r3, r2, lsl #3
 191 007a 5B7D     		ldrb	r3, [r3, #21]	@ zero_extendqisi2
 192 007c DBB2     		uxtb	r3, r3
 193 007e 2370     		strb	r3, [r4]
 194 0080 E2E7     		b	.L17
 195              	.L21:
 196 0082 0029     		cmp	r1, #0
 197 0084 ECD1     		bne	.L15
 198 0086 054B     		ldr	r3, .L22+12
 199 0088 4FF0FF32 		mov	r2, #-1
 200 008c 1A60     		str	r2, [r3]
 201 008e E7E7     		b	.L15
 202              	.L23:
 203              		.align	2
 204              	.L22:
 205 0090 00000000 		.word	CurrentRunningTimerID
 206 0094 00000000 		.word	aTimerContext
 207 0098 00000000 		.word	PreviousRunningTimerID
 208 009c 00000000 		.word	SSRValueOnLastSetup
 210              		.section	.text.ReturnTimeElapsed,"ax",%progbits
 211              		.align	1
 212              		.syntax unified
 213              		.thumb
 214              		.thumb_func
 216              	ReturnTimeElapsed:
 217              		@ args = 0, pretend = 0, frame = 0
 218              		@ frame_needed = 0, uses_anonymous_args = 0
 219 0000 08B5     		push	{r3, lr}
 220 0002 104B     		ldr	r3, .L31
 221 0004 1B68     		ldr	r3, [r3]
 222 0006 B3F1FF3F 		cmp	r3, #-1
 223 000a 02D1     		bne	.L30
 224 000c 0020     		movs	r0, #0
 225              	.L25:
 226 000e 80B2     		uxth	r0, r0
 227 0010 08BD     		pop	{r3, pc}
 228              	.L30:
 229 0012 FFF7FEFF 		bl	ReadRtcSsrValue
 230 0016 0B4B     		ldr	r3, .L31
 231 0018 1B68     		ldr	r3, [r3]
 232 001a 8342     		cmp	r3, r0
 233 001c 0AD3     		bcc	.L26
 234 001e 094B     		ldr	r3, .L31
 235 0020 1B68     		ldr	r3, [r3]
 236 0022 1B1A     		subs	r3, r3, r0
 237              	.L27:
ARM GAS  C:\Users\Nathan\AppData\Local\Temp\ccClhu5O.s 			page 5


 238 0024 084A     		ldr	r2, .L31+4
 239 0026 1078     		ldrb	r0, [r2]	@ zero_extendqisi2
 240 0028 03FB00F0 		mul	r0, r3, r0
 241 002c 074B     		ldr	r3, .L31+8
 242 002e 1B78     		ldrb	r3, [r3]	@ zero_extendqisi2
 243 0030 D840     		lsrs	r0, r0, r3
 244 0032 ECE7     		b	.L25
 245              	.L26:
 246 0034 064B     		ldr	r3, .L31+12
 247 0036 1A88     		ldrh	r2, [r3]
 248 0038 121A     		subs	r2, r2, r0
 249 003a 024B     		ldr	r3, .L31
 250 003c 1B68     		ldr	r3, [r3]
 251 003e 1344     		add	r3, r3, r2
 252 0040 F0E7     		b	.L27
 253              	.L32:
 254 0042 00BF     		.align	2
 255              	.L31:
 256 0044 00000000 		.word	SSRValueOnLastSetup
 257 0048 00000000 		.word	AsynchPrescalerUserConfig
 258 004c 00000000 		.word	WakeupTimerDivider
 259 0050 00000000 		.word	SynchPrescalerUserConfig
 261              		.section	.text.linkTimer,"ax",%progbits
 262              		.align	1
 263              		.syntax unified
 264              		.thumb
 265              		.thumb_func
 267              	linkTimer:
 268              		@ args = 0, pretend = 0, frame = 0
 269              		@ frame_needed = 0, uses_anonymous_args = 0
 270 0000 70B5     		push	{r4, r5, r6, lr}
 271 0002 0446     		mov	r4, r0
 272 0004 314B     		ldr	r3, .L41
 273 0006 1B78     		ldrb	r3, [r3]	@ zero_extendqisi2
 274 0008 DBB2     		uxtb	r3, r3
 275 000a 062B     		cmp	r3, #6
 276 000c 13D1     		bne	.L34
 277 000e 2F4A     		ldr	r2, .L41
 278 0010 1378     		ldrb	r3, [r2]	@ zero_extendqisi2
 279 0012 DBB2     		uxtb	r3, r3
 280 0014 2E49     		ldr	r1, .L41+4
 281 0016 0B70     		strb	r3, [r1]
 282 0018 1070     		strb	r0, [r2]
 283 001a 00EB4004 		add	r4, r0, r0, lsl #1
 284 001e 2D4B     		ldr	r3, .L41+8
 285 0020 03EBC404 		add	r4, r3, r4, lsl #3
 286 0024 0623     		movs	r3, #6
 287 0026 6375     		strb	r3, [r4, #21]
 288 0028 2B4B     		ldr	r3, .L41+12
 289 002a 4FF0FF32 		mov	r2, #-1
 290 002e 1A60     		str	r2, [r3]
 291 0030 0025     		movs	r5, #0
 292              	.L35:
 293 0032 2846     		mov	r0, r5
 294 0034 70BD     		pop	{r4, r5, r6, pc}
 295              	.L34:
 296 0036 FFF7FEFF 		bl	ReturnTimeElapsed
ARM GAS  C:\Users\Nathan\AppData\Local\Temp\ccClhu5O.s 			page 6


 297 003a 0546     		mov	r5, r0
 298 003c 254B     		ldr	r3, .L41+8
 299 003e 04EB4402 		add	r2, r4, r4, lsl #1
 300 0042 03EBC202 		add	r2, r3, r2, lsl #3
 301 0046 9168     		ldr	r1, [r2, #8]
 302 0048 0144     		add	r1, r1, r0
 303 004a 9160     		str	r1, [r2, #8]
 304 004c 04EB4402 		add	r2, r4, r4, lsl #1
 305 0050 03EBC202 		add	r2, r3, r2, lsl #3
 306 0054 9068     		ldr	r0, [r2, #8]
 307 0056 1D4A     		ldr	r2, .L41
 308 0058 1278     		ldrb	r2, [r2]	@ zero_extendqisi2
 309 005a 02EB4202 		add	r2, r2, r2, lsl #1
 310 005e 03EBC203 		add	r3, r3, r2, lsl #3
 311 0062 9B68     		ldr	r3, [r3, #8]
 312 0064 8342     		cmp	r3, r0
 313 0066 25D8     		bhi	.L36
 314 0068 184B     		ldr	r3, .L41
 315 006a 1B78     		ldrb	r3, [r3]	@ zero_extendqisi2
 316 006c D9B2     		uxtb	r1, r3
 317 006e 03EB4303 		add	r3, r3, r3, lsl #1
 318 0072 184A     		ldr	r2, .L41+8
 319 0074 02EBC303 		add	r3, r2, r3, lsl #3
 320 0078 5B7D     		ldrb	r3, [r3, #21]	@ zero_extendqisi2
 321 007a DBB2     		uxtb	r3, r3
 322 007c 0CE0     		b	.L37
 323              	.L39:
 324 007e 154A     		ldr	r2, .L41+8
 325 0080 01EB4101 		add	r1, r1, r1, lsl #1
 326 0084 02EBC101 		add	r1, r2, r1, lsl #3
 327 0088 4B7D     		ldrb	r3, [r1, #21]	@ zero_extendqisi2
 328 008a D9B2     		uxtb	r1, r3
 329 008c 03EB4303 		add	r3, r3, r3, lsl #1
 330 0090 02EBC302 		add	r2, r2, r3, lsl #3
 331 0094 537D     		ldrb	r3, [r2, #21]	@ zero_extendqisi2
 332 0096 DBB2     		uxtb	r3, r3
 333              	.L37:
 334 0098 062B     		cmp	r3, #6
 335 009a 07D0     		beq	.L38
 336 009c 03EB4303 		add	r3, r3, r3, lsl #1
 337 00a0 0C4A     		ldr	r2, .L41+8
 338 00a2 02EBC303 		add	r3, r2, r3, lsl #3
 339 00a6 9B68     		ldr	r3, [r3, #8]
 340 00a8 8342     		cmp	r3, r0
 341 00aa E8D9     		bls	.L39
 342              	.L38:
 343 00ac 2046     		mov	r0, r4
 344 00ae FFF7FEFF 		bl	LinkTimerAfter
 345 00b2 BEE7     		b	.L35
 346              	.L36:
 347 00b4 054E     		ldr	r6, .L41
 348 00b6 3178     		ldrb	r1, [r6]	@ zero_extendqisi2
 349 00b8 2046     		mov	r0, r4
 350 00ba FFF7FEFF 		bl	LinkTimerBefore
 351 00be 3378     		ldrb	r3, [r6]	@ zero_extendqisi2
 352 00c0 DBB2     		uxtb	r3, r3
 353 00c2 034A     		ldr	r2, .L41+4
ARM GAS  C:\Users\Nathan\AppData\Local\Temp\ccClhu5O.s 			page 7


 354 00c4 1370     		strb	r3, [r2]
 355 00c6 3470     		strb	r4, [r6]
 356 00c8 B3E7     		b	.L35
 357              	.L42:
 358 00ca 00BF     		.align	2
 359              	.L41:
 360 00cc 00000000 		.word	CurrentRunningTimerID
 361 00d0 00000000 		.word	PreviousRunningTimerID
 362 00d4 00000000 		.word	aTimerContext
 363 00d8 00000000 		.word	SSRValueOnLastSetup
 365              		.section	.text.RestartWakeupCounter,"ax",%progbits
 366              		.align	1
 367              		.syntax unified
 368              		.thumb
 369              		.thumb_func
 371              	RestartWakeupCounter:
 372              		@ args = 0, pretend = 0, frame = 0
 373              		@ frame_needed = 0, uses_anonymous_args = 0
 374 0000 10B5     		push	{r4, lr}
 375 0002 48B3     		cbz	r0, .L50
 376 0004 0446     		mov	r4, r0
 377 0006 0128     		cmp	r0, #1
 378 0008 2ED9     		bls	.L51
 379              	.L46:
 380 000a 013C     		subs	r4, r4, #1
 381 000c A4B2     		uxth	r4, r4
 382              	.L48:
 383 000e 194B     		ldr	r3, .L52
 384 0010 1B68     		ldr	r3, [r3]
 385 0012 DA68     		ldr	r2, [r3, #12]
 386 0014 12F0040F 		tst	r2, #4
 387 0018 F9D0     		beq	.L48
 388 001a DA68     		ldr	r2, [r3, #12]
 389 001c D2B2     		uxtb	r2, r2
 390 001e 62F49062 		orn	r2, r2, #1152
 391 0022 DA60     		str	r2, [r3, #12]
 392 0024 144B     		ldr	r3, .L52+4
 393 0026 4FF40022 		mov	r2, #524288
 394 002a DA60     		str	r2, [r3, #12]
 395 002c 0320     		movs	r0, #3
 396 002e FFF7FEFF 		bl	HAL_NVIC_ClearPendingIRQ
 397 0032 124A     		ldr	r2, .L52+8
 398 0034 5369     		ldr	r3, [r2, #20]
 399 0036 6FF30F03 		bfc	r3, #0, #16
 400 003a 1C43     		orrs	r4, r4, r3
 401 003c 5461     		str	r4, [r2, #20]
 402 003e FFF7FEFF 		bl	ReadRtcSsrValue
 403 0042 0F4B     		ldr	r3, .L52+12
 404 0044 1860     		str	r0, [r3]
 405 0046 0B4B     		ldr	r3, .L52
 406 0048 1A68     		ldr	r2, [r3]
 407 004a 9368     		ldr	r3, [r2, #8]
 408 004c 43F48063 		orr	r3, r3, #1024
 409 0050 9360     		str	r3, [r2, #8]
 410 0052 FFF7FEFF 		bl	HW_TS_RTC_CountUpdated_AppNot
 411              	.L43:
 412 0056 10BD     		pop	{r4, pc}
ARM GAS  C:\Users\Nathan\AppData\Local\Temp\ccClhu5O.s 			page 8


 413              	.L50:
 414 0058 FFF7FEFF 		bl	ReadRtcSsrValue
 415 005c 084B     		ldr	r3, .L52+12
 416 005e 1860     		str	r0, [r3]
 417 0060 0320     		movs	r0, #3
 418 0062 FFF7FEFF 		bl	HAL_NVIC_SetPendingIRQ
 419 0066 F6E7     		b	.L43
 420              	.L51:
 421 0068 064B     		ldr	r3, .L52+16
 422 006a 1B78     		ldrb	r3, [r3]	@ zero_extendqisi2
 423 006c 012B     		cmp	r3, #1
 424 006e CCD1     		bne	.L46
 425 0070 CDE7     		b	.L48
 426              	.L53:
 427 0072 00BF     		.align	2
 428              	.L52:
 429 0074 00000000 		.word	hrtc
 430 0078 00080058 		.word	1476397056
 431 007c 00280040 		.word	1073752064
 432 0080 00000000 		.word	SSRValueOnLastSetup
 433 0084 00000000 		.word	WakeupTimerDivider
 435              		.section	.text.RescheduleTimerList,"ax",%progbits
 436              		.align	1
 437              		.syntax unified
 438              		.thumb
 439              		.thumb_func
 441              	RescheduleTimerList:
 442              		@ args = 0, pretend = 0, frame = 0
 443              		@ frame_needed = 0, uses_anonymous_args = 0
 444 0000 38B5     		push	{r3, r4, r5, lr}
 445 0002 2E4B     		ldr	r3, .L66
 446 0004 9B68     		ldr	r3, [r3, #8]
 447 0006 13F4806F 		tst	r3, #1024
 448 000a 05D0     		beq	.L55
 449              	.L56:
 450 000c 2C4B     		ldr	r3, .L66+4
 451 000e 1B68     		ldr	r3, [r3]
 452 0010 DB68     		ldr	r3, [r3, #12]
 453 0012 13F0040F 		tst	r3, #4
 454 0016 F9D1     		bne	.L56
 455              	.L55:
 456 0018 294B     		ldr	r3, .L66+4
 457 001a 1A68     		ldr	r2, [r3]
 458 001c 9368     		ldr	r3, [r2, #8]
 459 001e 23F48063 		bic	r3, r3, #1024
 460 0022 9360     		str	r3, [r2, #8]
 461 0024 274B     		ldr	r3, .L66+8
 462 0026 1B78     		ldrb	r3, [r3]	@ zero_extendqisi2
 463 0028 DCB2     		uxtb	r4, r3
 464 002a 03EB4303 		add	r3, r3, r3, lsl #1
 465 002e 264A     		ldr	r2, .L66+12
 466 0030 02EBC303 		add	r3, r2, r3, lsl #3
 467 0034 9D68     		ldr	r5, [r3, #8]
 468 0036 FFF7FEFF 		bl	ReturnTimeElapsed
 469 003a 8446     		mov	ip, r0
 470 003c A842     		cmp	r0, r5
 471 003e 04D9     		bls	.L57
ARM GAS  C:\Users\Nathan\AppData\Local\Temp\ccClhu5O.s 			page 9


 472 0040 224B     		ldr	r3, .L66+16
 473 0042 0122     		movs	r2, #1
 474 0044 1A70     		strb	r2, [r3]
 475 0046 0020     		movs	r0, #0
 476 0048 24E0     		b	.L62
 477              	.L57:
 478 004a 214B     		ldr	r3, .L66+20
 479 004c 1B88     		ldrh	r3, [r3]
 480 004e 10FA83F3 		uxtah	r3, r0, r3
 481 0052 AB42     		cmp	r3, r5
 482 0054 06D2     		bcs	.L59
 483 0056 1E4B     		ldr	r3, .L66+20
 484 0058 1888     		ldrh	r0, [r3]
 485 005a 80B2     		uxth	r0, r0
 486 005c 1B4B     		ldr	r3, .L66+16
 487 005e 0022     		movs	r2, #0
 488 0060 1A70     		strb	r2, [r3]
 489 0062 17E0     		b	.L62
 490              	.L59:
 491 0064 A8B2     		uxth	r0, r5
 492 0066 A0EB0C00 		sub	r0, r0, ip
 493 006a 80B2     		uxth	r0, r0
 494 006c 174B     		ldr	r3, .L66+16
 495 006e 0122     		movs	r2, #1
 496 0070 1A70     		strb	r2, [r3]
 497 0072 0FE0     		b	.L62
 498              	.L60:
 499 0074 04EB4404 		add	r4, r4, r4, lsl #1
 500 0078 134A     		ldr	r2, .L66+12
 501 007a 02EBC404 		add	r4, r2, r4, lsl #3
 502 007e A268     		ldr	r2, [r4, #8]
 503 0080 A2EB0C02 		sub	r2, r2, ip
 504 0084 A260     		str	r2, [r4, #8]
 505              	.L61:
 506 0086 03EB4303 		add	r3, r3, r3, lsl #1
 507 008a 0F4A     		ldr	r2, .L66+12
 508 008c 02EBC303 		add	r3, r2, r3, lsl #3
 509 0090 5C7D     		ldrb	r4, [r3, #21]	@ zero_extendqisi2
 510 0092 E4B2     		uxtb	r4, r4
 511              	.L62:
 512 0094 062C     		cmp	r4, #6
 513 0096 0ED0     		beq	.L65
 514 0098 2346     		mov	r3, r4
 515 009a 04EB4401 		add	r1, r4, r4, lsl #1
 516 009e 0A4A     		ldr	r2, .L66+12
 517 00a0 02EBC102 		add	r2, r2, r1, lsl #3
 518 00a4 9268     		ldr	r2, [r2, #8]
 519 00a6 9445     		cmp	ip, r2
 520 00a8 E4D9     		bls	.L60
 521 00aa 074A     		ldr	r2, .L66+12
 522 00ac 02EBC104 		add	r4, r2, r1, lsl #3
 523 00b0 0022     		movs	r2, #0
 524 00b2 A260     		str	r2, [r4, #8]
 525 00b4 E7E7     		b	.L61
 526              	.L65:
 527 00b6 FFF7FEFF 		bl	RestartWakeupCounter
 528 00ba 38BD     		pop	{r3, r4, r5, pc}
ARM GAS  C:\Users\Nathan\AppData\Local\Temp\ccClhu5O.s 			page 10


 529              	.L67:
 530              		.align	2
 531              	.L66:
 532 00bc 00280040 		.word	1073752064
 533 00c0 00000000 		.word	hrtc
 534 00c4 00000000 		.word	CurrentRunningTimerID
 535 00c8 00000000 		.word	aTimerContext
 536 00cc 00000000 		.word	WakeupTimerLimitation
 537 00d0 00000000 		.word	MaxWakeupTimerSetup
 539              		.section	.text.HW_TS_Init,"ax",%progbits
 540              		.align	1
 541              		.global	HW_TS_Init
 542              		.syntax unified
 543              		.thumb
 544              		.thumb_func
 546              	HW_TS_Init:
 547              		@ args = 0, pretend = 0, frame = 0
 548              		@ frame_needed = 0, uses_anonymous_args = 0
 549 0000 10B5     		push	{r4, lr}
 550 0002 484B     		ldr	r3, .L78
 551 0004 1B68     		ldr	r3, [r3]
 552 0006 CA22     		movs	r2, #202
 553 0008 5A62     		str	r2, [r3, #36]
 554 000a 5322     		movs	r2, #83
 555 000c 5A62     		str	r2, [r3, #36]
 556 000e 464B     		ldr	r3, .L78+4
 557 0010 9A68     		ldr	r2, [r3, #8]
 558 0012 42F02002 		orr	r2, r2, #32
 559 0016 9A60     		str	r2, [r3, #8]
 560 0018 9A68     		ldr	r2, [r3, #8]
 561 001a 02F00702 		and	r2, r2, #7
 562 001e C2F10402 		rsb	r2, r2, #4
 563 0022 D2B2     		uxtb	r2, r2
 564 0024 4149     		ldr	r1, .L78+8
 565 0026 0A70     		strb	r2, [r1]
 566 0028 1B69     		ldr	r3, [r3, #16]
 567 002a 03F4FE03 		and	r3, r3, #8323072
 568 002e 4FF4FE01 		mov	r1, #8323072
 569              		.syntax unified
 570              	@ 1055 "Drivers/CMSIS/Include/cmsis_gcc.h" 1
 571 0032 91FAA1F1 		rbit r1, r1
 572              	@ 0 "" 2
 573              		.thumb
 574              		.syntax unified
 575 0036 0029     		cmp	r1, #0
 576 0038 31D0     		beq	.L76
 577 003a B1FA81F1 		clz	r1, r1
 578              	.L69:
 579 003e CB40     		lsrs	r3, r3, r1
 580 0040 DBB2     		uxtb	r3, r3
 581 0042 0133     		adds	r3, r3, #1
 582 0044 DBB2     		uxtb	r3, r3
 583 0046 3A49     		ldr	r1, .L78+12
 584 0048 0B70     		strb	r3, [r1]
 585 004a 3749     		ldr	r1, .L78+4
 586 004c 0969     		ldr	r1, [r1, #16]
 587 004e C1F30E01 		ubfx	r1, r1, #0, #15
ARM GAS  C:\Users\Nathan\AppData\Local\Temp\ccClhu5O.s 			page 11


 588 0052 0131     		adds	r1, r1, #1
 589 0054 374C     		ldr	r4, .L78+16
 590 0056 2180     		strh	r1, [r4]	@ movhi
 591 0058 0139     		subs	r1, r1, #1
 592 005a 01FB03F3 		mul	r3, r1, r3
 593 005e A3F5A073 		sub	r3, r3, #320
 594 0062 D340     		lsrs	r3, r3, r2
 595 0064 4FF6FE72 		movw	r2, #65534
 596 0068 9342     		cmp	r3, r2
 597 006a 1AD9     		bls	.L70
 598 006c 324B     		ldr	r3, .L78+20
 599 006e 4FF6FF72 		movw	r2, #65535
 600 0072 1A80     		strh	r2, [r3]	@ movhi
 601              	.L71:
 602 0074 314B     		ldr	r3, .L78+24
 603 0076 1A68     		ldr	r2, [r3]
 604 0078 42F40022 		orr	r2, r2, #524288
 605 007c 1A60     		str	r2, [r3]
 606 007e D3F88020 		ldr	r2, [r3, #128]
 607 0082 42F40022 		orr	r2, r2, #524288
 608 0086 C3F88020 		str	r2, [r3, #128]
 609 008a 0028     		cmp	r0, #0
 610 008c 3FD1     		bne	.L72
 611 008e 2C4B     		ldr	r3, .L78+28
 612 0090 0122     		movs	r2, #1
 613 0092 1A70     		strb	r2, [r3]
 614 0094 2B4B     		ldr	r3, .L78+32
 615 0096 4FF0FF32 		mov	r2, #-1
 616 009a 1A60     		str	r2, [r3]
 617 009c 0EE0     		b	.L73
 618              	.L76:
 619 009e 2021     		movs	r1, #32
 620 00a0 CDE7     		b	.L69
 621              	.L70:
 622 00a2 9BB2     		uxth	r3, r3
 623 00a4 244A     		ldr	r2, .L78+20
 624 00a6 1380     		strh	r3, [r2]	@ movhi
 625 00a8 E4E7     		b	.L71
 626              	.L74:
 627 00aa 00EB4002 		add	r2, r0, r0, lsl #1
 628 00ae 264B     		ldr	r3, .L78+36
 629 00b0 03EBC203 		add	r3, r3, r2, lsl #3
 630 00b4 0022     		movs	r2, #0
 631 00b6 1A73     		strb	r2, [r3, #12]
 632 00b8 0130     		adds	r0, r0, #1
 633 00ba C0B2     		uxtb	r0, r0
 634              	.L73:
 635 00bc 0528     		cmp	r0, #5
 636 00be F4D9     		bls	.L74
 637 00c0 224B     		ldr	r3, .L78+40
 638 00c2 0622     		movs	r2, #6
 639 00c4 1A70     		strb	r2, [r3]
 640 00c6 174C     		ldr	r4, .L78
 641 00c8 2268     		ldr	r2, [r4]
 642 00ca 9368     		ldr	r3, [r2, #8]
 643 00cc 23F48063 		bic	r3, r3, #1024
 644 00d0 9360     		str	r3, [r2, #8]
ARM GAS  C:\Users\Nathan\AppData\Local\Temp\ccClhu5O.s 			page 12


 645 00d2 D368     		ldr	r3, [r2, #12]
 646 00d4 DBB2     		uxtb	r3, r3
 647 00d6 63F49063 		orn	r3, r3, #1152
 648 00da D360     		str	r3, [r2, #12]
 649 00dc 174B     		ldr	r3, .L78+24
 650 00de 4FF40022 		mov	r2, #524288
 651 00e2 DA60     		str	r2, [r3, #12]
 652 00e4 0320     		movs	r0, #3
 653 00e6 FFF7FEFF 		bl	HAL_NVIC_ClearPendingIRQ
 654 00ea 2268     		ldr	r2, [r4]
 655 00ec 9368     		ldr	r3, [r2, #8]
 656 00ee 43F48043 		orr	r3, r3, #16384
 657 00f2 9360     		str	r3, [r2, #8]
 658              	.L75:
 659 00f4 0B4B     		ldr	r3, .L78
 660 00f6 1B68     		ldr	r3, [r3]
 661 00f8 FF22     		movs	r2, #255
 662 00fa 5A62     		str	r2, [r3, #36]
 663 00fc 0022     		movs	r2, #0
 664 00fe 0321     		movs	r1, #3
 665 0100 0846     		mov	r0, r1
 666 0102 FFF7FEFF 		bl	HAL_NVIC_SetPriority
 667 0106 0320     		movs	r0, #3
 668 0108 FFF7FEFF 		bl	HAL_NVIC_EnableIRQ
 669 010c 10BD     		pop	{r4, pc}
 670              	.L72:
 671 010e 054B     		ldr	r3, .L78
 672 0110 1B68     		ldr	r3, [r3]
 673 0112 DB68     		ldr	r3, [r3, #12]
 674 0114 13F4806F 		tst	r3, #1024
 675 0118 ECD0     		beq	.L75
 676 011a 0320     		movs	r0, #3
 677 011c FFF7FEFF 		bl	HAL_NVIC_SetPendingIRQ
 678 0120 E8E7     		b	.L75
 679              	.L79:
 680 0122 00BF     		.align	2
 681              	.L78:
 682 0124 00000000 		.word	hrtc
 683 0128 00280040 		.word	1073752064
 684 012c 00000000 		.word	WakeupTimerDivider
 685 0130 00000000 		.word	AsynchPrescalerUserConfig
 686 0134 00000000 		.word	SynchPrescalerUserConfig
 687 0138 00000000 		.word	MaxWakeupTimerSetup
 688 013c 00080058 		.word	1476397056
 689 0140 00000000 		.word	WakeupTimerLimitation
 690 0144 00000000 		.word	SSRValueOnLastSetup
 691 0148 00000000 		.word	aTimerContext
 692 014c 00000000 		.word	CurrentRunningTimerID
 694              		.section	.text.HW_TS_Create,"ax",%progbits
 695              		.align	1
 696              		.global	HW_TS_Create
 697              		.syntax unified
 698              		.thumb
 699              		.thumb_func
 701              	HW_TS_Create:
 702              		@ args = 0, pretend = 0, frame = 0
 703              		@ frame_needed = 0, uses_anonymous_args = 0
ARM GAS  C:\Users\Nathan\AppData\Local\Temp\ccClhu5O.s 			page 13


 704 0000 F0B5     		push	{r4, r5, r6, r7, lr}
 705              		.syntax unified
 706              	@ 453 "Drivers/CMSIS/Include/cmsis_gcc.h" 1
 707 0002 EFF31085 		MRS r5, primask
 708              	@ 0 "" 2
 709              	@ 209 "Drivers/CMSIS/Include/cmsis_gcc.h" 1
 710 0006 72B6     		cpsid i
 711              	@ 0 "" 2
 712              		.thumb
 713              		.syntax unified
 714 0008 4FF0000C 		mov	ip, #0
 715              	.L81:
 716 000c BCF1050F 		cmp	ip, #5
 717 0010 0CD8     		bhi	.L82
 718 0012 0CEB4C0E 		add	lr, ip, ip, lsl #1
 719 0016 154C     		ldr	r4, .L87
 720 0018 04EBCE0E 		add	lr, r4, lr, lsl #3
 721 001c 9EF80C40 		ldrb	r4, [lr, #12]	@ zero_extendqisi2
 722 0020 24B1     		cbz	r4, .L82
 723 0022 0CF1010C 		add	ip, ip, #1
 724 0026 5FFA8CFC 		uxtb	ip, ip
 725 002a EFE7     		b	.L81
 726              	.L82:
 727 002c BCF1060F 		cmp	ip, #6
 728 0030 17D0     		beq	.L84
 729 0032 0E4E     		ldr	r6, .L87
 730 0034 4FEA4C04 		lsl	r4, ip, #1
 731 0038 0CEB4C0E 		add	lr, ip, ip, lsl #1
 732 003c 06EBCE0E 		add	lr, r6, lr, lsl #3
 733 0040 0127     		movs	r7, #1
 734 0042 8EF80C70 		strb	r7, [lr, #12]
 735              		.syntax unified
 736              	@ 481 "Drivers/CMSIS/Include/cmsis_gcc.h" 1
 737 0046 85F31088 		MSR primask, r5
 738              	@ 0 "" 2
 739              		.thumb
 740              		.syntax unified
 741 004a CEF81000 		str	r0, [lr, #16]
 742 004e 8EF80D20 		strb	r2, [lr, #13]
 743 0052 04EB0C02 		add	r2, r4, ip
 744 0056 D200     		lsls	r2, r2, #3
 745 0058 B350     		str	r3, [r6, r2]
 746 005a 81F800C0 		strb	ip, [r1]
 747 005e 0020     		movs	r0, #0
 748              	.L85:
 749 0060 F0BD     		pop	{r4, r5, r6, r7, pc}
 750              	.L84:
 751              		.syntax unified
 752              	@ 481 "Drivers/CMSIS/Include/cmsis_gcc.h" 1
 753 0062 85F31088 		MSR primask, r5
 754              	@ 0 "" 2
 755              		.thumb
 756              		.syntax unified
 757 0066 0120     		movs	r0, #1
 758 0068 FAE7     		b	.L85
 759              	.L88:
 760 006a 00BF     		.align	2
ARM GAS  C:\Users\Nathan\AppData\Local\Temp\ccClhu5O.s 			page 14


 761              	.L87:
 762 006c 00000000 		.word	aTimerContext
 764              		.section	.text.HW_TS_Stop,"ax",%progbits
 765              		.align	1
 766              		.global	HW_TS_Stop
 767              		.syntax unified
 768              		.thumb
 769              		.thumb_func
 771              	HW_TS_Stop:
 772              		@ args = 0, pretend = 0, frame = 0
 773              		@ frame_needed = 0, uses_anonymous_args = 0
 774 0000 38B5     		push	{r3, r4, r5, lr}
 775 0002 0446     		mov	r4, r0
 776              		.syntax unified
 777              	@ 453 "Drivers/CMSIS/Include/cmsis_gcc.h" 1
 778 0004 EFF31085 		MRS r5, primask
 779              	@ 0 "" 2
 780              	@ 209 "Drivers/CMSIS/Include/cmsis_gcc.h" 1
 781 0008 72B6     		cpsid i
 782              	@ 0 "" 2
 783              		.thumb
 784              		.syntax unified
 785 000a 0320     		movs	r0, #3
 786 000c FFF7FEFF 		bl	HAL_NVIC_DisableIRQ
 787 0010 254B     		ldr	r3, .L98
 788 0012 1B68     		ldr	r3, [r3]
 789 0014 CA22     		movs	r2, #202
 790 0016 5A62     		str	r2, [r3, #36]
 791 0018 5322     		movs	r2, #83
 792 001a 5A62     		str	r2, [r3, #36]
 793 001c 04EB4402 		add	r2, r4, r4, lsl #1
 794 0020 224B     		ldr	r3, .L98+4
 795 0022 03EBC203 		add	r3, r3, r2, lsl #3
 796 0026 1B7B     		ldrb	r3, [r3, #12]	@ zero_extendqisi2
 797 0028 DBB2     		uxtb	r3, r3
 798 002a 022B     		cmp	r3, #2
 799 002c 09D0     		beq	.L96
 800              	.L90:
 801 002e 1E4B     		ldr	r3, .L98
 802 0030 1B68     		ldr	r3, [r3]
 803 0032 FF22     		movs	r2, #255
 804 0034 5A62     		str	r2, [r3, #36]
 805 0036 0320     		movs	r0, #3
 806 0038 FFF7FEFF 		bl	HAL_NVIC_EnableIRQ
 807              		.syntax unified
 808              	@ 481 "Drivers/CMSIS/Include/cmsis_gcc.h" 1
 809 003c 85F31088 		MSR primask, r5
 810              	@ 0 "" 2
 811              		.thumb
 812              		.syntax unified
 813 0040 38BD     		pop	{r3, r4, r5, pc}
 814              	.L96:
 815 0042 0021     		movs	r1, #0
 816 0044 2046     		mov	r0, r4
 817 0046 FFF7FEFF 		bl	UnlinkTimer
 818 004a 194B     		ldr	r3, .L98+8
 819 004c 1B78     		ldrb	r3, [r3]	@ zero_extendqisi2
ARM GAS  C:\Users\Nathan\AppData\Local\Temp\ccClhu5O.s 			page 15


 820 004e DBB2     		uxtb	r3, r3
 821 0050 062B     		cmp	r3, #6
 822 0052 07D0     		beq	.L97
 823 0054 174A     		ldr	r2, .L98+12
 824 0056 1278     		ldrb	r2, [r2]	@ zero_extendqisi2
 825 0058 D2B2     		uxtb	r2, r2
 826 005a 9A42     		cmp	r2, r3
 827 005c E7D0     		beq	.L90
 828 005e FFF7FEFF 		bl	RescheduleTimerList
 829 0062 E4E7     		b	.L90
 830              	.L97:
 831 0064 144B     		ldr	r3, .L98+16
 832 0066 9B68     		ldr	r3, [r3, #8]
 833 0068 13F4806F 		tst	r3, #1024
 834 006c 05D0     		beq	.L92
 835              	.L93:
 836 006e 0E4B     		ldr	r3, .L98
 837 0070 1B68     		ldr	r3, [r3]
 838 0072 DB68     		ldr	r3, [r3, #12]
 839 0074 13F0040F 		tst	r3, #4
 840 0078 F9D1     		bne	.L93
 841              	.L92:
 842 007a 0B4B     		ldr	r3, .L98
 843 007c 1A68     		ldr	r2, [r3]
 844 007e 9368     		ldr	r3, [r2, #8]
 845 0080 23F48063 		bic	r3, r3, #1024
 846 0084 9360     		str	r3, [r2, #8]
 847              	.L94:
 848 0086 D368     		ldr	r3, [r2, #12]
 849 0088 13F0040F 		tst	r3, #4
 850 008c FBD0     		beq	.L94
 851 008e D368     		ldr	r3, [r2, #12]
 852 0090 DBB2     		uxtb	r3, r3
 853 0092 63F49063 		orn	r3, r3, #1152
 854 0096 D360     		str	r3, [r2, #12]
 855 0098 084B     		ldr	r3, .L98+20
 856 009a 4FF40022 		mov	r2, #524288
 857 009e DA60     		str	r2, [r3, #12]
 858 00a0 0320     		movs	r0, #3
 859 00a2 FFF7FEFF 		bl	HAL_NVIC_ClearPendingIRQ
 860 00a6 C2E7     		b	.L90
 861              	.L99:
 862              		.align	2
 863              	.L98:
 864 00a8 00000000 		.word	hrtc
 865 00ac 00000000 		.word	aTimerContext
 866 00b0 00000000 		.word	CurrentRunningTimerID
 867 00b4 00000000 		.word	PreviousRunningTimerID
 868 00b8 00280040 		.word	1073752064
 869 00bc 00080058 		.word	1476397056
 871              		.section	.text.HW_TS_Delete,"ax",%progbits
 872              		.align	1
 873              		.global	HW_TS_Delete
 874              		.syntax unified
 875              		.thumb
 876              		.thumb_func
 878              	HW_TS_Delete:
ARM GAS  C:\Users\Nathan\AppData\Local\Temp\ccClhu5O.s 			page 16


 879              		@ args = 0, pretend = 0, frame = 0
 880              		@ frame_needed = 0, uses_anonymous_args = 0
 881 0000 10B5     		push	{r4, lr}
 882 0002 0446     		mov	r4, r0
 883 0004 FFF7FEFF 		bl	HW_TS_Stop
 884 0008 04EB4404 		add	r4, r4, r4, lsl #1
 885 000c 024B     		ldr	r3, .L102
 886 000e 03EBC403 		add	r3, r3, r4, lsl #3
 887 0012 0022     		movs	r2, #0
 888 0014 1A73     		strb	r2, [r3, #12]
 889 0016 10BD     		pop	{r4, pc}
 890              	.L103:
 891              		.align	2
 892              	.L102:
 893 0018 00000000 		.word	aTimerContext
 895              		.section	.text.HW_TS_Start,"ax",%progbits
 896              		.align	1
 897              		.global	HW_TS_Start
 898              		.syntax unified
 899              		.thumb
 900              		.thumb_func
 902              	HW_TS_Start:
 903              		@ args = 0, pretend = 0, frame = 0
 904              		@ frame_needed = 0, uses_anonymous_args = 0
 905 0000 70B5     		push	{r4, r5, r6, lr}
 906 0002 0446     		mov	r4, r0
 907 0004 0D46     		mov	r5, r1
 908 0006 00EB4002 		add	r2, r0, r0, lsl #1
 909 000a 214B     		ldr	r3, .L111
 910 000c 03EBC203 		add	r3, r3, r2, lsl #3
 911 0010 1B7B     		ldrb	r3, [r3, #12]	@ zero_extendqisi2
 912 0012 DBB2     		uxtb	r3, r3
 913 0014 022B     		cmp	r3, #2
 914 0016 35D0     		beq	.L109
 915              	.L105:
 916              		.syntax unified
 917              	@ 453 "Drivers/CMSIS/Include/cmsis_gcc.h" 1
 918 0018 EFF31086 		MRS r6, primask
 919              	@ 0 "" 2
 920              	@ 209 "Drivers/CMSIS/Include/cmsis_gcc.h" 1
 921 001c 72B6     		cpsid i
 922              	@ 0 "" 2
 923              		.thumb
 924              		.syntax unified
 925 001e 0320     		movs	r0, #3
 926 0020 FFF7FEFF 		bl	HAL_NVIC_DisableIRQ
 927 0024 1B4B     		ldr	r3, .L111+4
 928 0026 1B68     		ldr	r3, [r3]
 929 0028 CA22     		movs	r2, #202
 930 002a 5A62     		str	r2, [r3, #36]
 931 002c 5322     		movs	r2, #83
 932 002e 5A62     		str	r2, [r3, #36]
 933 0030 04EB4402 		add	r2, r4, r4, lsl #1
 934 0034 164B     		ldr	r3, .L111
 935 0036 03EBC203 		add	r3, r3, r2, lsl #3
 936 003a 0222     		movs	r2, #2
 937 003c 1A73     		strb	r2, [r3, #12]
ARM GAS  C:\Users\Nathan\AppData\Local\Temp\ccClhu5O.s 			page 17


 938 003e 9D60     		str	r5, [r3, #8]
 939 0040 5D60     		str	r5, [r3, #4]
 940 0042 2046     		mov	r0, r4
 941 0044 FFF7FEFF 		bl	linkTimer
 942 0048 134B     		ldr	r3, .L111+8
 943 004a 1B78     		ldrb	r3, [r3]	@ zero_extendqisi2
 944 004c DBB2     		uxtb	r3, r3
 945 004e 134A     		ldr	r2, .L111+12
 946 0050 1278     		ldrb	r2, [r2]	@ zero_extendqisi2
 947 0052 D2B2     		uxtb	r2, r2
 948 0054 9A42     		cmp	r2, r3
 949 0056 18D1     		bne	.L110
 950 0058 0D4B     		ldr	r3, .L111
 951 005a 04EB4402 		add	r2, r4, r4, lsl #1
 952 005e 03EBC202 		add	r2, r3, r2, lsl #3
 953 0062 9268     		ldr	r2, [r2, #8]
 954 0064 121A     		subs	r2, r2, r0
 955 0066 04EB4404 		add	r4, r4, r4, lsl #1
 956 006a 03EBC403 		add	r3, r3, r4, lsl #3
 957 006e 9A60     		str	r2, [r3, #8]
 958              	.L107:
 959 0070 084B     		ldr	r3, .L111+4
 960 0072 1B68     		ldr	r3, [r3]
 961 0074 FF22     		movs	r2, #255
 962 0076 5A62     		str	r2, [r3, #36]
 963 0078 0320     		movs	r0, #3
 964 007a FFF7FEFF 		bl	HAL_NVIC_EnableIRQ
 965              		.syntax unified
 966              	@ 481 "Drivers/CMSIS/Include/cmsis_gcc.h" 1
 967 007e 86F31088 		MSR primask, r6
 968              	@ 0 "" 2
 969              		.thumb
 970              		.syntax unified
 971 0082 70BD     		pop	{r4, r5, r6, pc}
 972              	.L109:
 973 0084 FFF7FEFF 		bl	HW_TS_Stop
 974 0088 C6E7     		b	.L105
 975              	.L110:
 976 008a FFF7FEFF 		bl	RescheduleTimerList
 977 008e EFE7     		b	.L107
 978              	.L112:
 979              		.align	2
 980              	.L111:
 981 0090 00000000 		.word	aTimerContext
 982 0094 00000000 		.word	hrtc
 983 0098 00000000 		.word	CurrentRunningTimerID
 984 009c 00000000 		.word	PreviousRunningTimerID
 986              		.section	.text.HW_TS_RTC_ReadLeftTicksToCount,"ax",%progbits
 987              		.align	1
 988              		.global	HW_TS_RTC_ReadLeftTicksToCount
 989              		.syntax unified
 990              		.thumb
 991              		.thumb_func
 993              	HW_TS_RTC_ReadLeftTicksToCount:
 994              		@ args = 0, pretend = 0, frame = 0
 995              		@ frame_needed = 0, uses_anonymous_args = 0
 996 0000 38B5     		push	{r3, r4, r5, lr}
ARM GAS  C:\Users\Nathan\AppData\Local\Temp\ccClhu5O.s 			page 18


 997              		.syntax unified
 998              	@ 453 "Drivers/CMSIS/Include/cmsis_gcc.h" 1
 999 0002 EFF31085 		MRS r5, primask
 1000              	@ 0 "" 2
 1001              	@ 209 "Drivers/CMSIS/Include/cmsis_gcc.h" 1
 1002 0006 72B6     		cpsid i
 1003              	@ 0 "" 2
 1004              		.thumb
 1005              		.syntax unified
 1006 0008 0A4B     		ldr	r3, .L119
 1007 000a 9B68     		ldr	r3, [r3, #8]
 1008 000c 13F4806F 		tst	r3, #1024
 1009 0010 04D1     		bne	.L118
 1010 0012 4FF6FF70 		movw	r0, #65535
 1011              	.L114:
 1012              		.syntax unified
 1013              	@ 481 "Drivers/CMSIS/Include/cmsis_gcc.h" 1
 1014 0016 85F31088 		MSR primask, r5
 1015              	@ 0 "" 2
 1016              		.thumb
 1017              		.syntax unified
 1018 001a 38BD     		pop	{r3, r4, r5, pc}
 1019              	.L118:
 1020 001c 054B     		ldr	r3, .L119
 1021 001e 5C69     		ldr	r4, [r3, #20]
 1022 0020 A4B2     		uxth	r4, r4
 1023 0022 FFF7FEFF 		bl	ReturnTimeElapsed
 1024 0026 8442     		cmp	r4, r0
 1025 0028 02D9     		bls	.L116
 1026 002a 201A     		subs	r0, r4, r0
 1027 002c 80B2     		uxth	r0, r0
 1028 002e F2E7     		b	.L114
 1029              	.L116:
 1030 0030 0020     		movs	r0, #0
 1031 0032 F0E7     		b	.L114
 1032              	.L120:
 1033              		.align	2
 1034              	.L119:
 1035 0034 00280040 		.word	1073752064
 1037              		.section	.text.HW_TS_RTC_Int_AppNot,"ax",%progbits
 1038              		.align	1
 1039              		.weak	HW_TS_RTC_Int_AppNot
 1040              		.syntax unified
 1041              		.thumb
 1042              		.thumb_func
 1044              	HW_TS_RTC_Int_AppNot:
 1045              		@ args = 0, pretend = 0, frame = 0
 1046              		@ frame_needed = 0, uses_anonymous_args = 0
 1047 0000 08B5     		push	{r3, lr}
 1048 0002 9047     		blx	r2
 1049 0004 08BD     		pop	{r3, pc}
 1051              		.section	.text.HW_TS_RTC_Wakeup_Handler,"ax",%progbits
 1052              		.align	1
 1053              		.global	HW_TS_RTC_Wakeup_Handler
 1054              		.syntax unified
 1055              		.thumb
 1056              		.thumb_func
ARM GAS  C:\Users\Nathan\AppData\Local\Temp\ccClhu5O.s 			page 19


 1058              	HW_TS_RTC_Wakeup_Handler:
 1059              		@ args = 0, pretend = 0, frame = 0
 1060              		@ frame_needed = 0, uses_anonymous_args = 0
 1061 0000 F8B5     		push	{r3, r4, r5, r6, r7, lr}
 1062              		.syntax unified
 1063              	@ 453 "Drivers/CMSIS/Include/cmsis_gcc.h" 1
 1064 0002 EFF31085 		MRS r5, primask
 1065              	@ 0 "" 2
 1066              	@ 209 "Drivers/CMSIS/Include/cmsis_gcc.h" 1
 1067 0006 72B6     		cpsid i
 1068              	@ 0 "" 2
 1069              		.thumb
 1070              		.syntax unified
 1071 0008 314B     		ldr	r3, .L132
 1072 000a 1B68     		ldr	r3, [r3]
 1073 000c CA22     		movs	r2, #202
 1074 000e 5A62     		str	r2, [r3, #36]
 1075 0010 5322     		movs	r2, #83
 1076 0012 5A62     		str	r2, [r3, #36]
 1077 0014 9A68     		ldr	r2, [r3, #8]
 1078 0016 22F48062 		bic	r2, r2, #1024
 1079 001a 9A60     		str	r2, [r3, #8]
 1080 001c 2D4A     		ldr	r2, .L132+4
 1081 001e 1478     		ldrb	r4, [r2]	@ zero_extendqisi2
 1082 0020 E4B2     		uxtb	r4, r4
 1083 0022 04EB4402 		add	r2, r4, r4, lsl #1
 1084 0026 D100     		lsls	r1, r2, #3
 1085 0028 2B4A     		ldr	r2, .L132+8
 1086 002a 0A44     		add	r2, r2, r1
 1087 002c 127B     		ldrb	r2, [r2, #12]	@ zero_extendqisi2
 1088 002e D2B2     		uxtb	r2, r2
 1089 0030 022A     		cmp	r2, #2
 1090 0032 13D0     		beq	.L130
 1091              	.L124:
 1092 0034 DA68     		ldr	r2, [r3, #12]
 1093 0036 12F0040F 		tst	r2, #4
 1094 003a FBD0     		beq	.L124
 1095 003c DA68     		ldr	r2, [r3, #12]
 1096 003e D2B2     		uxtb	r2, r2
 1097 0040 62F49062 		orn	r2, r2, #1152
 1098 0044 DA60     		str	r2, [r3, #12]
 1099 0046 254B     		ldr	r3, .L132+12
 1100 0048 4FF40022 		mov	r2, #524288
 1101 004c DA60     		str	r2, [r3, #12]
 1102              		.syntax unified
 1103              	@ 481 "Drivers/CMSIS/Include/cmsis_gcc.h" 1
 1104 004e 85F31088 		MSR primask, r5
 1105              	@ 0 "" 2
 1106              		.thumb
 1107              		.syntax unified
 1108              	.L128:
 1109 0052 1F4B     		ldr	r3, .L132
 1110 0054 1B68     		ldr	r3, [r3]
 1111 0056 FF22     		movs	r2, #255
 1112 0058 5A62     		str	r2, [r3, #36]
 1113 005a F8BD     		pop	{r3, r4, r5, r6, r7, pc}
 1114              	.L130:
ARM GAS  C:\Users\Nathan\AppData\Local\Temp\ccClhu5O.s 			page 20


 1115 005c 1E4A     		ldr	r2, .L132+8
 1116 005e 04EB4401 		add	r1, r4, r4, lsl #1
 1117 0062 CB00     		lsls	r3, r1, #3
 1118 0064 D118     		adds	r1, r2, r3
 1119 0066 D758     		ldr	r7, [r2, r3]
 1120 0068 0E69     		ldr	r6, [r1, #16]
 1121 006a 1D4B     		ldr	r3, .L132+16
 1122 006c 1B78     		ldrb	r3, [r3]	@ zero_extendqisi2
 1123 006e 53B3     		cbz	r3, .L125
 1124 0070 4B7B     		ldrb	r3, [r1, #13]	@ zero_extendqisi2
 1125 0072 DBB2     		uxtb	r3, r3
 1126 0074 012B     		cmp	r3, #1
 1127 0076 10D0     		beq	.L131
 1128              		.syntax unified
 1129              	@ 481 "Drivers/CMSIS/Include/cmsis_gcc.h" 1
 1130 0078 85F31088 		MSR primask, r5
 1131              	@ 0 "" 2
 1132              		.thumb
 1133              		.syntax unified
 1134 007c 2046     		mov	r0, r4
 1135 007e FFF7FEFF 		bl	HW_TS_Stop
 1136 0082 134B     		ldr	r3, .L132
 1137 0084 1B68     		ldr	r3, [r3]
 1138 0086 CA22     		movs	r2, #202
 1139 0088 5A62     		str	r2, [r3, #36]
 1140 008a 5322     		movs	r2, #83
 1141 008c 5A62     		str	r2, [r3, #36]
 1142              	.L127:
 1143 008e 3A46     		mov	r2, r7
 1144 0090 2146     		mov	r1, r4
 1145 0092 3046     		mov	r0, r6
 1146 0094 FFF7FEFF 		bl	HW_TS_RTC_Int_AppNot
 1147 0098 DBE7     		b	.L128
 1148              	.L131:
 1149 009a 0121     		movs	r1, #1
 1150 009c 2046     		mov	r0, r4
 1151 009e FFF7FEFF 		bl	UnlinkTimer
 1152              		.syntax unified
 1153              	@ 481 "Drivers/CMSIS/Include/cmsis_gcc.h" 1
 1154 00a2 85F31088 		MSR primask, r5
 1155              	@ 0 "" 2
 1156              		.thumb
 1157              		.syntax unified
 1158 00a6 04EB4403 		add	r3, r4, r4, lsl #1
 1159 00aa DA00     		lsls	r2, r3, #3
 1160 00ac 0A4B     		ldr	r3, .L132+8
 1161 00ae 1344     		add	r3, r3, r2
 1162 00b0 5968     		ldr	r1, [r3, #4]
 1163 00b2 2046     		mov	r0, r4
 1164 00b4 FFF7FEFF 		bl	HW_TS_Start
 1165 00b8 054B     		ldr	r3, .L132
 1166 00ba 1B68     		ldr	r3, [r3]
 1167 00bc CA22     		movs	r2, #202
 1168 00be 5A62     		str	r2, [r3, #36]
 1169 00c0 5322     		movs	r2, #83
 1170 00c2 5A62     		str	r2, [r3, #36]
 1171 00c4 E3E7     		b	.L127
ARM GAS  C:\Users\Nathan\AppData\Local\Temp\ccClhu5O.s 			page 21


 1172              	.L125:
 1173 00c6 FFF7FEFF 		bl	RescheduleTimerList
 1174              		.syntax unified
 1175              	@ 481 "Drivers/CMSIS/Include/cmsis_gcc.h" 1
 1176 00ca 85F31088 		MSR primask, r5
 1177              	@ 0 "" 2
 1178              		.thumb
 1179              		.syntax unified
 1180 00ce C0E7     		b	.L128
 1181              	.L133:
 1182              		.align	2
 1183              	.L132:
 1184 00d0 00000000 		.word	hrtc
 1185 00d4 00000000 		.word	CurrentRunningTimerID
 1186 00d8 00000000 		.word	aTimerContext
 1187 00dc 00080058 		.word	1476397056
 1188 00e0 00000000 		.word	WakeupTimerLimitation
 1190              		.section	.bss.MaxWakeupTimerSetup,"aw",%nobits
 1191              		.align	1
 1194              	MaxWakeupTimerSetup:
 1195 0000 0000     		.space	2
 1196              		.section	.bss.SynchPrescalerUserConfig,"aw",%nobits
 1197              		.align	1
 1200              	SynchPrescalerUserConfig:
 1201 0000 0000     		.space	2
 1202              		.section	.bss.AsynchPrescalerUserConfig,"aw",%nobits
 1205              	AsynchPrescalerUserConfig:
 1206 0000 00       		.space	1
 1207              		.section	.bss.WakeupTimerDivider,"aw",%nobits
 1210              	WakeupTimerDivider:
 1211 0000 00       		.space	1
 1212              		.section	.bss.WakeupTimerLimitation,"aw",%nobits
 1215              	WakeupTimerLimitation:
 1216 0000 00       		.space	1
 1217              		.section	.bss.SSRValueOnLastSetup,"aw",%nobits
 1218              		.align	2
 1221              	SSRValueOnLastSetup:
 1222 0000 00000000 		.space	4
 1223              		.section	.bss.PreviousRunningTimerID,"aw",%nobits
 1226              	PreviousRunningTimerID:
 1227 0000 00       		.space	1
 1228              		.section	.bss.CurrentRunningTimerID,"aw",%nobits
 1231              	CurrentRunningTimerID:
 1232 0000 00       		.space	1
 1233              		.section	.bss.aTimerContext,"aw",%nobits
 1234              		.align	2
 1237              	aTimerContext:
 1238 0000 00000000 		.space	144
 1238      00000000 
 1238      00000000 
 1238      00000000 
 1238      00000000 
 1239              		.weak	HW_TS_RTC_CountUpdated_AppNot
 1240              		.ident	"GCC: (Arm GNU Toolchain 13.3.Rel1 (Build arm-13.24)) 13.3.1 20240614"
ARM GAS  C:\Users\Nathan\AppData\Local\Temp\ccClhu5O.s 			page 22

