ARM GAS  C:\Users\Nathan\AppData\Local\Temp\ccYqErEb.s 			page 1


   1              		.cpu cortex-m4
   2              		.arch armv7e-m
   3              		.fpu fpv4-sp-d16
   4              		.eabi_attribute 27, 1
   5              		.eabi_attribute 28, 1
   6              		.eabi_attribute 20, 1
   7              		.eabi_attribute 21, 1
   8              		.eabi_attribute 23, 3
   9              		.eabi_attribute 24, 1
  10              		.eabi_attribute 25, 1
  11              		.eabi_attribute 26, 1
  12              		.eabi_attribute 30, 1
  13              		.eabi_attribute 34, 1
  14              		.eabi_attribute 18, 4
  15              		.file	"p2p_stm.c"
  16              		.text
  17              		.section	.text.PeerToPeer_Event_Handler,"ax",%progbits
  18              		.align	1
  19              		.syntax unified
  20              		.thumb
  21              		.thumb_func
  23              	PeerToPeer_Event_Handler:
  24              		@ args = 0, pretend = 0, frame = 16
  25              		@ frame_needed = 0, uses_anonymous_args = 0
  26 0000 4378     		ldrb	r3, [r0, #1]	@ zero_extendqisi2
  27 0002 FF2B     		cmp	r3, #255
  28 0004 01D0     		beq	.L12
  29 0006 0020     		movs	r0, #0
  30 0008 7047     		bx	lr
  31              	.L12:
  32 000a B0F80320 		ldrh	r2, [r0, #3]	@ unaligned
  33 000e 40F60143 		movw	r3, #3073
  34 0012 9A42     		cmp	r2, r3
  35 0014 01D0     		beq	.L13
  36 0016 0020     		movs	r0, #0
  37 0018 7047     		bx	lr
  38              	.L13:
  39 001a 10B5     		push	{r4, lr}
  40 001c 84B0     		sub	sp, sp, #16
  41 001e B0F80720 		ldrh	r2, [r0, #7]	@ unaligned
  42 0022 174B     		ldr	r3, .L16
  43 0024 9B88     		ldrh	r3, [r3, #4]
  44 0026 0233     		adds	r3, r3, #2
  45 0028 9A42     		cmp	r2, r3
  46 002a 07D0     		beq	.L14
  47 002c 144B     		ldr	r3, .L16
  48 002e 5B88     		ldrh	r3, [r3, #2]
  49 0030 0133     		adds	r3, r3, #1
  50 0032 9A42     		cmp	r2, r3
  51 0034 16D0     		beq	.L15
  52 0036 0020     		movs	r0, #0
  53              	.L2:
  54 0038 04B0     		add	sp, sp, #16
  55              		@ sp needed
  56 003a 10BD     		pop	{r4, pc}
  57              	.L14:
  58 003c 437B     		ldrb	r3, [r0, #13]	@ zero_extendqisi2
ARM GAS  C:\Users\Nathan\AppData\Local\Temp\ccYqErEb.s 			page 2


  59 003e 13F0010F 		tst	r3, #1
  60 0042 07D0     		beq	.L4
  61 0044 0023     		movs	r3, #0
  62 0046 8DF80030 		strb	r3, [sp]
  63 004a 6846     		mov	r0, sp
  64 004c FFF7FEFF 		bl	P2PS_STM_App_Notification
  65 0050 0120     		movs	r0, #1
  66 0052 F1E7     		b	.L2
  67              	.L4:
  68 0054 0124     		movs	r4, #1
  69 0056 8DF80040 		strb	r4, [sp]
  70 005a 6846     		mov	r0, sp
  71 005c FFF7FEFF 		bl	P2PS_STM_App_Notification
  72 0060 2046     		mov	r0, r4
  73 0062 E9E7     		b	.L2
  74              	.L15:
  75 0064 0323     		movs	r3, #3
  76 0066 8DF80030 		strb	r3, [sp]
  77 006a B0F80B30 		ldrh	r3, [r0, #11]	@ unaligned
  78 006e 8DF80830 		strb	r3, [sp, #8]
  79 0072 0D30     		adds	r0, r0, #13
  80 0074 0190     		str	r0, [sp, #4]
  81 0076 6846     		mov	r0, sp
  82 0078 FFF7FEFF 		bl	P2PS_STM_App_Notification
  83 007c 0020     		movs	r0, #0
  84 007e DBE7     		b	.L2
  85              	.L17:
  86              		.align	2
  87              	.L16:
  88 0080 00000000 		.word	aPeerToPeerContext
  90              		.section	.text.P2PS_STM_Init,"ax",%progbits
  91              		.align	1
  92              		.global	P2PS_STM_Init
  93              		.syntax unified
  94              		.thumb
  95              		.thumb_func
  97              	P2PS_STM_Init:
  98              		@ args = 0, pretend = 0, frame = 16
  99              		@ frame_needed = 0, uses_anonymous_args = 0
 100 0000 2DE9F04F 		push	{r4, r5, r6, r7, r8, r9, r10, fp, lr}
 101 0004 8BB0     		sub	sp, sp, #44
 102 0006 6248     		ldr	r0, .L20
 103 0008 FFF7FEFF 		bl	SVCCTL_RegisterSvcHandler
 104 000c 8F23     		movs	r3, #143
 105 000e 8DF81830 		strb	r3, [sp, #24]
 106 0012 E523     		movs	r3, #229
 107 0014 8DF81930 		strb	r3, [sp, #25]
 108 0018 B323     		movs	r3, #179
 109 001a 8DF81A30 		strb	r3, [sp, #26]
 110 001e D523     		movs	r3, #213
 111 0020 8DF81B30 		strb	r3, [sp, #27]
 112 0024 2E23     		movs	r3, #46
 113 0026 8DF81C30 		strb	r3, [sp, #28]
 114 002a 7F23     		movs	r3, #127
 115 002c 8DF81D30 		strb	r3, [sp, #29]
 116 0030 4A23     		movs	r3, #74
 117 0032 8DF81E30 		strb	r3, [sp, #30]
ARM GAS  C:\Users\Nathan\AppData\Local\Temp\ccYqErEb.s 			page 3


 118 0036 9823     		movs	r3, #152
 119 0038 8DF81F30 		strb	r3, [sp, #31]
 120 003c 2A23     		movs	r3, #42
 121 003e 8DF82030 		strb	r3, [sp, #32]
 122 0042 4823     		movs	r3, #72
 123 0044 8DF82130 		strb	r3, [sp, #33]
 124 0048 7A23     		movs	r3, #122
 125 004a 8DF82230 		strb	r3, [sp, #34]
 126 004e CC23     		movs	r3, #204
 127 0050 8DF82330 		strb	r3, [sp, #35]
 128 0054 4023     		movs	r3, #64
 129 0056 8DF82430 		strb	r3, [sp, #36]
 130 005a FE27     		movs	r7, #254
 131 005c 8DF82570 		strb	r7, [sp, #37]
 132 0060 0024     		movs	r4, #0
 133 0062 8DF82640 		strb	r4, [sp, #38]
 134 0066 8DF82740 		strb	r4, [sp, #39]
 135 006a 4A4B     		ldr	r3, .L20+4
 136 006c 0093     		str	r3, [sp]
 137 006e 0623     		movs	r3, #6
 138 0070 0122     		movs	r2, #1
 139 0072 06A9     		add	r1, sp, #24
 140 0074 0220     		movs	r0, #2
 141 0076 FFF7FEFF 		bl	aci_gatt_add_service
 142 007a 4FF0190B 		mov	fp, #25
 143 007e 8DF818B0 		strb	fp, [sp, #24]
 144 0082 ED26     		movs	r6, #237
 145 0084 8DF81960 		strb	r6, [sp, #25]
 146 0088 4FF0820A 		mov	r10, #130
 147 008c 8DF81AA0 		strb	r10, [sp, #26]
 148 0090 6FF05103 		mvn	r3, #81
 149 0094 8DF81B30 		strb	r3, [sp, #27]
 150 0098 8DF81C60 		strb	r6, [sp, #28]
 151 009c 4FF02102 		mov	r2, #33
 152 00a0 8DF81D20 		strb	r2, [sp, #29]
 153 00a4 4FF04C01 		mov	r1, #76
 154 00a8 8DF81E10 		strb	r1, [sp, #30]
 155 00ac 6FF06200 		mvn	r0, #98
 156 00b0 8DF81F00 		strb	r0, [sp, #31]
 157 00b4 4FF04108 		mov	r8, #65
 158 00b8 8DF82080 		strb	r8, [sp, #32]
 159 00bc 4FF04505 		mov	r5, #69
 160 00c0 8DF82150 		strb	r5, [sp, #33]
 161 00c4 4FF0220C 		mov	ip, #34
 162 00c8 8DF822C0 		strb	ip, [sp, #34]
 163 00cc 4FF08E09 		mov	r9, #142
 164 00d0 8DF82390 		strb	r9, [sp, #35]
 165 00d4 8DF82480 		strb	r8, [sp, #36]
 166 00d8 8DF82570 		strb	r7, [sp, #37]
 167 00dc 8DF82640 		strb	r4, [sp, #38]
 168 00e0 8DF82740 		strb	r4, [sp, #39]
 169 00e4 2B4B     		ldr	r3, .L20+4
 170 00e6 33F8020B 		ldrh	r0, [r3], #2
 171 00ea 0593     		str	r3, [sp, #20]
 172 00ec 0125     		movs	r5, #1
 173 00ee 0495     		str	r5, [sp, #16]
 174 00f0 4FF00A0E 		mov	lr, #10
ARM GAS  C:\Users\Nathan\AppData\Local\Temp\ccYqErEb.s 			page 4


 175 00f4 CDF80CE0 		str	lr, [sp, #12]
 176 00f8 0295     		str	r5, [sp, #8]
 177 00fa 0194     		str	r4, [sp, #4]
 178 00fc 0623     		movs	r3, #6
 179 00fe 0093     		str	r3, [sp]
 180 0100 0223     		movs	r3, #2
 181 0102 0DF1180E 		add	lr, sp, #24
 182 0106 7246     		mov	r2, lr
 183 0108 1946     		mov	r1, r3
 184 010a FFF7FEFF 		bl	aci_gatt_add_char
 185 010e 8DF818B0 		strb	fp, [sp, #24]
 186 0112 8DF81960 		strb	r6, [sp, #25]
 187 0116 8DF81AA0 		strb	r10, [sp, #26]
 188 011a 6FF05103 		mvn	r3, #81
 189 011e 8DF81B30 		strb	r3, [sp, #27]
 190 0122 8DF81C60 		strb	r6, [sp, #28]
 191 0126 4FF02102 		mov	r2, #33
 192 012a 8DF81D20 		strb	r2, [sp, #29]
 193 012e 4FF04C01 		mov	r1, #76
 194 0132 8DF81E10 		strb	r1, [sp, #30]
 195 0136 6FF06200 		mvn	r0, #98
 196 013a 8DF81F00 		strb	r0, [sp, #31]
 197 013e 8DF82080 		strb	r8, [sp, #32]
 198 0142 4FF04503 		mov	r3, #69
 199 0146 8DF82130 		strb	r3, [sp, #33]
 200 014a 4FF0220C 		mov	ip, #34
 201 014e 8DF822C0 		strb	ip, [sp, #34]
 202 0152 8DF82390 		strb	r9, [sp, #35]
 203 0156 4223     		movs	r3, #66
 204 0158 8DF82430 		strb	r3, [sp, #36]
 205 015c 8DF82570 		strb	r7, [sp, #37]
 206 0160 8DF82640 		strb	r4, [sp, #38]
 207 0164 8DF82740 		strb	r4, [sp, #39]
 208 0168 0A4B     		ldr	r3, .L20+4
 209 016a 33F8040B 		ldrh	r0, [r3], #4
 210 016e 0593     		str	r3, [sp, #20]
 211 0170 0495     		str	r5, [sp, #16]
 212 0172 0A23     		movs	r3, #10
 213 0174 0393     		str	r3, [sp, #12]
 214 0176 0295     		str	r5, [sp, #8]
 215 0178 0194     		str	r4, [sp, #4]
 216 017a 1023     		movs	r3, #16
 217 017c 0093     		str	r3, [sp]
 218 017e 0223     		movs	r3, #2
 219 0180 06AA     		add	r2, sp, #24
 220 0182 1946     		mov	r1, r3
 221 0184 FFF7FEFF 		bl	aci_gatt_add_char
 222 0188 0BB0     		add	sp, sp, #44
 223              		@ sp needed
 224 018a BDE8F08F 		pop	{r4, r5, r6, r7, r8, r9, r10, fp, pc}
 225              	.L21:
 226 018e 00BF     		.align	2
 227              	.L20:
 228 0190 00000000 		.word	PeerToPeer_Event_Handler
 229 0194 00000000 		.word	aPeerToPeerContext
 231              		.section	.text.P2PS_STM_App_Update_Char,"ax",%progbits
 232              		.align	1
ARM GAS  C:\Users\Nathan\AppData\Local\Temp\ccYqErEb.s 			page 5


 233              		.global	P2PS_STM_App_Update_Char
 234              		.syntax unified
 235              		.thumb
 236              		.thumb_func
 238              	P2PS_STM_App_Update_Char:
 239              		@ args = 0, pretend = 0, frame = 0
 240              		@ frame_needed = 0, uses_anonymous_args = 0
 241 0000 4FF64263 		movw	r3, #65090
 242 0004 9842     		cmp	r0, r3
 243 0006 01D0     		beq	.L29
 244 0008 9220     		movs	r0, #146
 245 000a 7047     		bx	lr
 246              	.L29:
 247 000c 00B5     		push	{lr}
 248 000e 83B0     		sub	sp, sp, #12
 249 0010 0548     		ldr	r0, .L30
 250 0012 0091     		str	r1, [sp]
 251 0014 0223     		movs	r3, #2
 252 0016 0022     		movs	r2, #0
 253 0018 8188     		ldrh	r1, [r0, #4]
 254 001a 0088     		ldrh	r0, [r0]
 255 001c FFF7FEFF 		bl	aci_gatt_update_char_value
 256 0020 03B0     		add	sp, sp, #12
 257              		@ sp needed
 258 0022 5DF804FB 		ldr	pc, [sp], #4
 259              	.L31:
 260 0026 00BF     		.align	2
 261              	.L30:
 262 0028 00000000 		.word	aPeerToPeerContext
 264              		.section	BLE_DRIVER_CONTEXT,"aw"
 265              		.align	2
 268              	aPeerToPeerContext:
 269 0000 00000000 		.space	6
 269      0000
 270              		.ident	"GCC: (Arm GNU Toolchain 13.3.Rel1 (Build arm-13.24)) 13.3.1 20240614"
ARM GAS  C:\Users\Nathan\AppData\Local\Temp\ccYqErEb.s 			page 6

