ARM GAS  C:\Users\Nathan\AppData\Local\Temp\cc4n5sqf.s 			page 1


   1              		.cpu cortex-m4
   2              		.arch armv7e-m
   3              		.fpu fpv4-sp-d16
   4              		.eabi_attribute 27, 1
   5              		.eabi_attribute 28, 1
   6              		.eabi_attribute 20, 1
   7              		.eabi_attribute 21, 1
   8              		.eabi_attribute 23, 3
   9              		.eabi_attribute 24, 1
  10              		.eabi_attribute 25, 1
  11              		.eabi_attribute 26, 1
  12              		.eabi_attribute 30, 1
  13              		.eabi_attribute 34, 1
  14              		.eabi_attribute 18, 4
  15              		.file	"shci.c"
  16              		.text
  17              		.section	.text.SHCI_C2_FUS_GetState,"ax",%progbits
  18              		.align	1
  19              		.global	SHCI_C2_FUS_GetState
  20              		.syntax unified
  21              		.thumb
  22              		.thumb_func
  24              	SHCI_C2_FUS_GetState:
  25              		@ args = 0, pretend = 0, frame = 24
  26              		@ frame_needed = 0, uses_anonymous_args = 0
  27 0000 10B5     		push	{r4, lr}
  28 0002 86B0     		sub	sp, sp, #24
  29 0004 0446     		mov	r4, r0
  30 0006 01AB     		add	r3, sp, #4
  31 0008 0022     		movs	r2, #0
  32 000a 1146     		mov	r1, r2
  33 000c 4FF65240 		movw	r0, #64594
  34 0010 FFF7FEFF 		bl	shci_send
  35 0014 14B1     		cbz	r4, .L2
  36 0016 9DF81330 		ldrb	r3, [sp, #19]	@ zero_extendqisi2
  37 001a 2370     		strb	r3, [r4]
  38              	.L2:
  39 001c 9DF81200 		ldrb	r0, [sp, #18]	@ zero_extendqisi2
  40 0020 06B0     		add	sp, sp, #24
  41              		@ sp needed
  42 0022 10BD     		pop	{r4, pc}
  44              		.section	.text.SHCI_C2_FUS_FwUpgrade,"ax",%progbits
  45              		.align	1
  46              		.global	SHCI_C2_FUS_FwUpgrade
  47              		.syntax unified
  48              		.thumb
  49              		.thumb_func
  51              	SHCI_C2_FUS_FwUpgrade:
  52              		@ args = 0, pretend = 0, frame = 16
  53              		@ frame_needed = 0, uses_anonymous_args = 0
  54 0000 00B5     		push	{lr}
  55 0002 85B0     		sub	sp, sp, #20
  56 0004 0B46     		mov	r3, r1
  57 0006 80B1     		cbz	r0, .L7
  58 0008 0090     		str	r0, [sp]
  59 000a 0421     		movs	r1, #4
  60              	.L5:
ARM GAS  C:\Users\Nathan\AppData\Local\Temp\cc4n5sqf.s 			page 2


  61 000c 13B1     		cbz	r3, .L6
  62 000e 0193     		str	r3, [sp, #4]
  63 0010 0431     		adds	r1, r1, #4
  64 0012 C9B2     		uxtb	r1, r1
  65              	.L6:
  66 0014 6B46     		mov	r3, sp
  67 0016 6A46     		mov	r2, sp
  68 0018 4FF65440 		movw	r0, #64596
  69 001c FFF7FEFF 		bl	shci_send
  70 0020 9DF80E00 		ldrb	r0, [sp, #14]	@ zero_extendqisi2
  71 0024 05B0     		add	sp, sp, #20
  72              		@ sp needed
  73 0026 5DF804FB 		ldr	pc, [sp], #4
  74              	.L7:
  75 002a 0021     		movs	r1, #0
  76 002c EEE7     		b	.L5
  78              		.section	.text.SHCI_C2_FUS_FwDelete,"ax",%progbits
  79              		.align	1
  80              		.global	SHCI_C2_FUS_FwDelete
  81              		.syntax unified
  82              		.thumb
  83              		.thumb_func
  85              	SHCI_C2_FUS_FwDelete:
  86              		@ args = 0, pretend = 0, frame = 16
  87              		@ frame_needed = 0, uses_anonymous_args = 0
  88 0000 00B5     		push	{lr}
  89 0002 85B0     		sub	sp, sp, #20
  90 0004 6B46     		mov	r3, sp
  91 0006 0022     		movs	r2, #0
  92 0008 1146     		mov	r1, r2
  93 000a 4FF65540 		movw	r0, #64597
  94 000e FFF7FEFF 		bl	shci_send
  95 0012 9DF80E00 		ldrb	r0, [sp, #14]	@ zero_extendqisi2
  96 0016 05B0     		add	sp, sp, #20
  97              		@ sp needed
  98 0018 5DF804FB 		ldr	pc, [sp], #4
 100              		.section	.text.SHCI_C2_FUS_UpdateAuthKey,"ax",%progbits
 101              		.align	1
 102              		.global	SHCI_C2_FUS_UpdateAuthKey
 103              		.syntax unified
 104              		.thumb
 105              		.thumb_func
 107              	SHCI_C2_FUS_UpdateAuthKey:
 108              		@ args = 0, pretend = 0, frame = 16
 109              		@ frame_needed = 0, uses_anonymous_args = 0
 110 0000 00B5     		push	{lr}
 111 0002 85B0     		sub	sp, sp, #20
 112 0004 0246     		mov	r2, r0
 113 0006 6B46     		mov	r3, sp
 114 0008 4121     		movs	r1, #65
 115 000a 4FF65640 		movw	r0, #64598
 116 000e FFF7FEFF 		bl	shci_send
 117 0012 9DF80E00 		ldrb	r0, [sp, #14]	@ zero_extendqisi2
 118 0016 05B0     		add	sp, sp, #20
 119              		@ sp needed
 120 0018 5DF804FB 		ldr	pc, [sp], #4
 122              		.section	.text.SHCI_C2_FUS_LockAuthKey,"ax",%progbits
ARM GAS  C:\Users\Nathan\AppData\Local\Temp\cc4n5sqf.s 			page 3


 123              		.align	1
 124              		.global	SHCI_C2_FUS_LockAuthKey
 125              		.syntax unified
 126              		.thumb
 127              		.thumb_func
 129              	SHCI_C2_FUS_LockAuthKey:
 130              		@ args = 0, pretend = 0, frame = 16
 131              		@ frame_needed = 0, uses_anonymous_args = 0
 132 0000 00B5     		push	{lr}
 133 0002 85B0     		sub	sp, sp, #20
 134 0004 6B46     		mov	r3, sp
 135 0006 0022     		movs	r2, #0
 136 0008 1146     		mov	r1, r2
 137 000a 4FF65740 		movw	r0, #64599
 138 000e FFF7FEFF 		bl	shci_send
 139 0012 9DF80E00 		ldrb	r0, [sp, #14]	@ zero_extendqisi2
 140 0016 05B0     		add	sp, sp, #20
 141              		@ sp needed
 142 0018 5DF804FB 		ldr	pc, [sp], #4
 144              		.section	.text.SHCI_C2_FUS_StoreUsrKey,"ax",%progbits
 145              		.align	1
 146              		.global	SHCI_C2_FUS_StoreUsrKey
 147              		.syntax unified
 148              		.thumb
 149              		.thumb_func
 151              	SHCI_C2_FUS_StoreUsrKey:
 152              		@ args = 0, pretend = 0, frame = 24
 153              		@ frame_needed = 0, uses_anonymous_args = 0
 154 0000 10B5     		push	{r4, lr}
 155 0002 86B0     		sub	sp, sp, #24
 156 0004 0246     		mov	r2, r0
 157 0006 0C46     		mov	r4, r1
 158 0008 0378     		ldrb	r3, [r0]	@ zero_extendqisi2
 159 000a 032B     		cmp	r3, #3
 160 000c 0ED0     		beq	.L19
 161 000e 4378     		ldrb	r3, [r0, #1]	@ zero_extendqisi2
 162 0010 0233     		adds	r3, r3, #2
 163 0012 D9B2     		uxtb	r1, r3
 164              	.L17:
 165 0014 01AB     		add	r3, sp, #4
 166 0016 4FF65840 		movw	r0, #64600
 167 001a FFF7FEFF 		bl	shci_send
 168 001e 9DF81330 		ldrb	r3, [sp, #19]	@ zero_extendqisi2
 169 0022 2370     		strb	r3, [r4]
 170 0024 9DF81200 		ldrb	r0, [sp, #18]	@ zero_extendqisi2
 171 0028 06B0     		add	sp, sp, #24
 172              		@ sp needed
 173 002a 10BD     		pop	{r4, pc}
 174              	.L19:
 175 002c 4378     		ldrb	r3, [r0, #1]	@ zero_extendqisi2
 176 002e 0E33     		adds	r3, r3, #14
 177 0030 D9B2     		uxtb	r1, r3
 178 0032 EFE7     		b	.L17
 180              		.section	.text.SHCI_C2_FUS_LoadUsrKey,"ax",%progbits
 181              		.align	1
 182              		.global	SHCI_C2_FUS_LoadUsrKey
 183              		.syntax unified
ARM GAS  C:\Users\Nathan\AppData\Local\Temp\cc4n5sqf.s 			page 4


 184              		.thumb
 185              		.thumb_func
 187              	SHCI_C2_FUS_LoadUsrKey:
 188              		@ args = 0, pretend = 0, frame = 16
 189              		@ frame_needed = 0, uses_anonymous_args = 0
 190 0000 00B5     		push	{lr}
 191 0002 85B0     		sub	sp, sp, #20
 192 0004 8DF80000 		strb	r0, [sp]
 193 0008 6B46     		mov	r3, sp
 194 000a 6A46     		mov	r2, sp
 195 000c 0121     		movs	r1, #1
 196 000e 4FF65940 		movw	r0, #64601
 197 0012 FFF7FEFF 		bl	shci_send
 198 0016 9DF80E00 		ldrb	r0, [sp, #14]	@ zero_extendqisi2
 199 001a 05B0     		add	sp, sp, #20
 200              		@ sp needed
 201 001c 5DF804FB 		ldr	pc, [sp], #4
 203              		.section	.text.SHCI_C2_FUS_StartWs,"ax",%progbits
 204              		.align	1
 205              		.global	SHCI_C2_FUS_StartWs
 206              		.syntax unified
 207              		.thumb
 208              		.thumb_func
 210              	SHCI_C2_FUS_StartWs:
 211              		@ args = 0, pretend = 0, frame = 16
 212              		@ frame_needed = 0, uses_anonymous_args = 0
 213 0000 00B5     		push	{lr}
 214 0002 85B0     		sub	sp, sp, #20
 215 0004 6B46     		mov	r3, sp
 216 0006 0022     		movs	r2, #0
 217 0008 1146     		mov	r1, r2
 218 000a 4FF65A40 		movw	r0, #64602
 219 000e FFF7FEFF 		bl	shci_send
 220 0012 9DF80E00 		ldrb	r0, [sp, #14]	@ zero_extendqisi2
 221 0016 05B0     		add	sp, sp, #20
 222              		@ sp needed
 223 0018 5DF804FB 		ldr	pc, [sp], #4
 225              		.section	.text.SHCI_C2_FUS_LockUsrKey,"ax",%progbits
 226              		.align	1
 227              		.global	SHCI_C2_FUS_LockUsrKey
 228              		.syntax unified
 229              		.thumb
 230              		.thumb_func
 232              	SHCI_C2_FUS_LockUsrKey:
 233              		@ args = 0, pretend = 0, frame = 16
 234              		@ frame_needed = 0, uses_anonymous_args = 0
 235 0000 00B5     		push	{lr}
 236 0002 85B0     		sub	sp, sp, #20
 237 0004 8DF80000 		strb	r0, [sp]
 238 0008 6B46     		mov	r3, sp
 239 000a 6A46     		mov	r2, sp
 240 000c 0121     		movs	r1, #1
 241 000e 4FF65D40 		movw	r0, #64605
 242 0012 FFF7FEFF 		bl	shci_send
 243 0016 9DF80E00 		ldrb	r0, [sp, #14]	@ zero_extendqisi2
 244 001a 05B0     		add	sp, sp, #20
 245              		@ sp needed
ARM GAS  C:\Users\Nathan\AppData\Local\Temp\cc4n5sqf.s 			page 5


 246 001c 5DF804FB 		ldr	pc, [sp], #4
 248              		.section	.text.SHCI_C2_FUS_UnloadUsrKey,"ax",%progbits
 249              		.align	1
 250              		.global	SHCI_C2_FUS_UnloadUsrKey
 251              		.syntax unified
 252              		.thumb
 253              		.thumb_func
 255              	SHCI_C2_FUS_UnloadUsrKey:
 256              		@ args = 0, pretend = 0, frame = 16
 257              		@ frame_needed = 0, uses_anonymous_args = 0
 258 0000 00B5     		push	{lr}
 259 0002 85B0     		sub	sp, sp, #20
 260 0004 8DF80000 		strb	r0, [sp]
 261 0008 6B46     		mov	r3, sp
 262 000a 6A46     		mov	r2, sp
 263 000c 0121     		movs	r1, #1
 264 000e 4FF65E40 		movw	r0, #64606
 265 0012 FFF7FEFF 		bl	shci_send
 266 0016 9DF80E00 		ldrb	r0, [sp, #14]	@ zero_extendqisi2
 267 001a 05B0     		add	sp, sp, #20
 268              		@ sp needed
 269 001c 5DF804FB 		ldr	pc, [sp], #4
 271              		.section	.text.SHCI_C2_FUS_ActivateAntiRollback,"ax",%progbits
 272              		.align	1
 273              		.global	SHCI_C2_FUS_ActivateAntiRollback
 274              		.syntax unified
 275              		.thumb
 276              		.thumb_func
 278              	SHCI_C2_FUS_ActivateAntiRollback:
 279              		@ args = 0, pretend = 0, frame = 16
 280              		@ frame_needed = 0, uses_anonymous_args = 0
 281 0000 00B5     		push	{lr}
 282 0002 85B0     		sub	sp, sp, #20
 283 0004 6B46     		mov	r3, sp
 284 0006 0022     		movs	r2, #0
 285 0008 1146     		mov	r1, r2
 286 000a 4FF65F40 		movw	r0, #64607
 287 000e FFF7FEFF 		bl	shci_send
 288 0012 9DF80E00 		ldrb	r0, [sp, #14]	@ zero_extendqisi2
 289 0016 05B0     		add	sp, sp, #20
 290              		@ sp needed
 291 0018 5DF804FB 		ldr	pc, [sp], #4
 293              		.section	.text.SHCI_C2_BLE_Init,"ax",%progbits
 294              		.align	1
 295              		.global	SHCI_C2_BLE_Init
 296              		.syntax unified
 297              		.thumb
 298              		.thumb_func
 300              	SHCI_C2_BLE_Init:
 301              		@ args = 0, pretend = 0, frame = 16
 302              		@ frame_needed = 0, uses_anonymous_args = 0
 303 0000 00B5     		push	{lr}
 304 0002 85B0     		sub	sp, sp, #20
 305 0004 6B46     		mov	r3, sp
 306 0006 00F10C02 		add	r2, r0, #12
 307 000a 2E21     		movs	r1, #46
 308 000c 4FF66640 		movw	r0, #64614
ARM GAS  C:\Users\Nathan\AppData\Local\Temp\cc4n5sqf.s 			page 6


 309 0010 FFF7FEFF 		bl	shci_send
 310 0014 9DF80E00 		ldrb	r0, [sp, #14]	@ zero_extendqisi2
 311 0018 05B0     		add	sp, sp, #20
 312              		@ sp needed
 313 001a 5DF804FB 		ldr	pc, [sp], #4
 315              		.section	.text.SHCI_C2_THREAD_Init,"ax",%progbits
 316              		.align	1
 317              		.global	SHCI_C2_THREAD_Init
 318              		.syntax unified
 319              		.thumb
 320              		.thumb_func
 322              	SHCI_C2_THREAD_Init:
 323              		@ args = 0, pretend = 0, frame = 16
 324              		@ frame_needed = 0, uses_anonymous_args = 0
 325 0000 00B5     		push	{lr}
 326 0002 85B0     		sub	sp, sp, #20
 327 0004 6B46     		mov	r3, sp
 328 0006 0022     		movs	r2, #0
 329 0008 1146     		mov	r1, r2
 330 000a 4FF66740 		movw	r0, #64615
 331 000e FFF7FEFF 		bl	shci_send
 332 0012 9DF80E00 		ldrb	r0, [sp, #14]	@ zero_extendqisi2
 333 0016 05B0     		add	sp, sp, #20
 334              		@ sp needed
 335 0018 5DF804FB 		ldr	pc, [sp], #4
 337              		.section	.text.SHCI_C2_LLDTESTS_Init,"ax",%progbits
 338              		.align	1
 339              		.global	SHCI_C2_LLDTESTS_Init
 340              		.syntax unified
 341              		.thumb
 342              		.thumb_func
 344              	SHCI_C2_LLDTESTS_Init:
 345              		@ args = 0, pretend = 0, frame = 16
 346              		@ frame_needed = 0, uses_anonymous_args = 0
 347 0000 00B5     		push	{lr}
 348 0002 85B0     		sub	sp, sp, #20
 349 0004 0A46     		mov	r2, r1
 350 0006 6B46     		mov	r3, sp
 351 0008 0146     		mov	r1, r0
 352 000a 4FF67140 		movw	r0, #64625
 353 000e FFF7FEFF 		bl	shci_send
 354 0012 9DF80E00 		ldrb	r0, [sp, #14]	@ zero_extendqisi2
 355 0016 05B0     		add	sp, sp, #20
 356              		@ sp needed
 357 0018 5DF804FB 		ldr	pc, [sp], #4
 359              		.section	.text.SHCI_C2_BLE_LLD_Init,"ax",%progbits
 360              		.align	1
 361              		.global	SHCI_C2_BLE_LLD_Init
 362              		.syntax unified
 363              		.thumb
 364              		.thumb_func
 366              	SHCI_C2_BLE_LLD_Init:
 367              		@ args = 0, pretend = 0, frame = 16
 368              		@ frame_needed = 0, uses_anonymous_args = 0
 369 0000 00B5     		push	{lr}
 370 0002 85B0     		sub	sp, sp, #20
 371 0004 0A46     		mov	r2, r1
ARM GAS  C:\Users\Nathan\AppData\Local\Temp\cc4n5sqf.s 			page 7


 372 0006 6B46     		mov	r3, sp
 373 0008 0146     		mov	r1, r0
 374 000a 4FF67440 		movw	r0, #64628
 375 000e FFF7FEFF 		bl	shci_send
 376 0012 9DF80E00 		ldrb	r0, [sp, #14]	@ zero_extendqisi2
 377 0016 05B0     		add	sp, sp, #20
 378              		@ sp needed
 379 0018 5DF804FB 		ldr	pc, [sp], #4
 381              		.section	.text.SHCI_C2_ZIGBEE_Init,"ax",%progbits
 382              		.align	1
 383              		.global	SHCI_C2_ZIGBEE_Init
 384              		.syntax unified
 385              		.thumb
 386              		.thumb_func
 388              	SHCI_C2_ZIGBEE_Init:
 389              		@ args = 0, pretend = 0, frame = 16
 390              		@ frame_needed = 0, uses_anonymous_args = 0
 391 0000 00B5     		push	{lr}
 392 0002 85B0     		sub	sp, sp, #20
 393 0004 6B46     		mov	r3, sp
 394 0006 0022     		movs	r2, #0
 395 0008 1146     		mov	r1, r2
 396 000a 4FF67040 		movw	r0, #64624
 397 000e FFF7FEFF 		bl	shci_send
 398 0012 9DF80E00 		ldrb	r0, [sp, #14]	@ zero_extendqisi2
 399 0016 05B0     		add	sp, sp, #20
 400              		@ sp needed
 401 0018 5DF804FB 		ldr	pc, [sp], #4
 403              		.section	.text.SHCI_C2_DEBUG_Init,"ax",%progbits
 404              		.align	1
 405              		.global	SHCI_C2_DEBUG_Init
 406              		.syntax unified
 407              		.thumb
 408              		.thumb_func
 410              	SHCI_C2_DEBUG_Init:
 411              		@ args = 0, pretend = 0, frame = 16
 412              		@ frame_needed = 0, uses_anonymous_args = 0
 413 0000 00B5     		push	{lr}
 414 0002 85B0     		sub	sp, sp, #20
 415 0004 6B46     		mov	r3, sp
 416 0006 00F10C02 		add	r2, r0, #12
 417 000a 0F21     		movs	r1, #15
 418 000c 4FF66840 		movw	r0, #64616
 419 0010 FFF7FEFF 		bl	shci_send
 420 0014 9DF80E00 		ldrb	r0, [sp, #14]	@ zero_extendqisi2
 421 0018 05B0     		add	sp, sp, #20
 422              		@ sp needed
 423 001a 5DF804FB 		ldr	pc, [sp], #4
 425              		.section	.text.SHCI_C2_FLASH_EraseActivity,"ax",%progbits
 426              		.align	1
 427              		.global	SHCI_C2_FLASH_EraseActivity
 428              		.syntax unified
 429              		.thumb
 430              		.thumb_func
 432              	SHCI_C2_FLASH_EraseActivity:
 433              		@ args = 0, pretend = 0, frame = 16
 434              		@ frame_needed = 0, uses_anonymous_args = 0
ARM GAS  C:\Users\Nathan\AppData\Local\Temp\cc4n5sqf.s 			page 8


 435 0000 00B5     		push	{lr}
 436 0002 85B0     		sub	sp, sp, #20
 437 0004 8DF80000 		strb	r0, [sp]
 438 0008 6B46     		mov	r3, sp
 439 000a 6A46     		mov	r2, sp
 440 000c 0121     		movs	r1, #1
 441 000e 4FF66940 		movw	r0, #64617
 442 0012 FFF7FEFF 		bl	shci_send
 443 0016 9DF80E00 		ldrb	r0, [sp, #14]	@ zero_extendqisi2
 444 001a 05B0     		add	sp, sp, #20
 445              		@ sp needed
 446 001c 5DF804FB 		ldr	pc, [sp], #4
 448              		.section	.text.SHCI_C2_CONCURRENT_SetMode,"ax",%progbits
 449              		.align	1
 450              		.global	SHCI_C2_CONCURRENT_SetMode
 451              		.syntax unified
 452              		.thumb
 453              		.thumb_func
 455              	SHCI_C2_CONCURRENT_SetMode:
 456              		@ args = 0, pretend = 0, frame = 16
 457              		@ frame_needed = 0, uses_anonymous_args = 0
 458 0000 00B5     		push	{lr}
 459 0002 85B0     		sub	sp, sp, #20
 460 0004 8DF80000 		strb	r0, [sp]
 461 0008 6B46     		mov	r3, sp
 462 000a 6A46     		mov	r2, sp
 463 000c 0121     		movs	r1, #1
 464 000e 4FF66A40 		movw	r0, #64618
 465 0012 FFF7FEFF 		bl	shci_send
 466 0016 9DF80E00 		ldrb	r0, [sp, #14]	@ zero_extendqisi2
 467 001a 05B0     		add	sp, sp, #20
 468              		@ sp needed
 469 001c 5DF804FB 		ldr	pc, [sp], #4
 471              		.section	.text.SHCI_C2_CONCURRENT_GetNextBleEvtTime,"ax",%progbits
 472              		.align	1
 473              		.global	SHCI_C2_CONCURRENT_GetNextBleEvtTime
 474              		.syntax unified
 475              		.thumb
 476              		.thumb_func
 478              	SHCI_C2_CONCURRENT_GetNextBleEvtTime:
 479              		@ args = 0, pretend = 0, frame = 24
 480              		@ frame_needed = 0, uses_anonymous_args = 0
 481 0000 10B5     		push	{r4, lr}
 482 0002 86B0     		sub	sp, sp, #24
 483 0004 0446     		mov	r4, r0
 484 0006 01AB     		add	r3, sp, #4
 485 0008 0022     		movs	r2, #0
 486 000a 1146     		mov	r1, r2
 487 000c 4FF67640 		movw	r0, #64630
 488 0010 FFF7FEFF 		bl	shci_send
 489 0014 DDF81330 		ldr	r3, [sp, #19]	@ unaligned
 490 0018 2360     		str	r3, [r4]	@ unaligned
 491 001a 9DF81200 		ldrb	r0, [sp, #18]	@ zero_extendqisi2
 492 001e 06B0     		add	sp, sp, #24
 493              		@ sp needed
 494 0020 10BD     		pop	{r4, pc}
 496              		.section	.text.SHCI_C2_CONCURRENT_EnableNext_802154_EvtNotification,"ax",%progbits
ARM GAS  C:\Users\Nathan\AppData\Local\Temp\cc4n5sqf.s 			page 9


 497              		.align	1
 498              		.global	SHCI_C2_CONCURRENT_EnableNext_802154_EvtNotification
 499              		.syntax unified
 500              		.thumb
 501              		.thumb_func
 503              	SHCI_C2_CONCURRENT_EnableNext_802154_EvtNotification:
 504              		@ args = 0, pretend = 0, frame = 16
 505              		@ frame_needed = 0, uses_anonymous_args = 0
 506 0000 00B5     		push	{lr}
 507 0002 85B0     		sub	sp, sp, #20
 508 0004 6B46     		mov	r3, sp
 509 0006 0022     		movs	r2, #0
 510 0008 1146     		mov	r1, r2
 511 000a 4FF67740 		movw	r0, #64631
 512 000e FFF7FEFF 		bl	shci_send
 513 0012 9DF80E00 		ldrb	r0, [sp, #14]	@ zero_extendqisi2
 514 0016 05B0     		add	sp, sp, #20
 515              		@ sp needed
 516 0018 5DF804FB 		ldr	pc, [sp], #4
 518              		.section	.text.SHCI_C2_FLASH_StoreData,"ax",%progbits
 519              		.align	1
 520              		.global	SHCI_C2_FLASH_StoreData
 521              		.syntax unified
 522              		.thumb
 523              		.thumb_func
 525              	SHCI_C2_FLASH_StoreData:
 526              		@ args = 0, pretend = 0, frame = 16
 527              		@ frame_needed = 0, uses_anonymous_args = 0
 528 0000 00B5     		push	{lr}
 529 0002 85B0     		sub	sp, sp, #20
 530 0004 8DF80000 		strb	r0, [sp]
 531 0008 6B46     		mov	r3, sp
 532 000a 6A46     		mov	r2, sp
 533 000c 0121     		movs	r1, #1
 534 000e 4FF66B40 		movw	r0, #64619
 535 0012 FFF7FEFF 		bl	shci_send
 536 0016 9DF80E00 		ldrb	r0, [sp, #14]	@ zero_extendqisi2
 537 001a 05B0     		add	sp, sp, #20
 538              		@ sp needed
 539 001c 5DF804FB 		ldr	pc, [sp], #4
 541              		.section	.text.SHCI_C2_FLASH_EraseData,"ax",%progbits
 542              		.align	1
 543              		.global	SHCI_C2_FLASH_EraseData
 544              		.syntax unified
 545              		.thumb
 546              		.thumb_func
 548              	SHCI_C2_FLASH_EraseData:
 549              		@ args = 0, pretend = 0, frame = 16
 550              		@ frame_needed = 0, uses_anonymous_args = 0
 551 0000 00B5     		push	{lr}
 552 0002 85B0     		sub	sp, sp, #20
 553 0004 8DF80000 		strb	r0, [sp]
 554 0008 6B46     		mov	r3, sp
 555 000a 6A46     		mov	r2, sp
 556 000c 0121     		movs	r1, #1
 557 000e 4FF66C40 		movw	r0, #64620
 558 0012 FFF7FEFF 		bl	shci_send
ARM GAS  C:\Users\Nathan\AppData\Local\Temp\cc4n5sqf.s 			page 10


 559 0016 9DF80E00 		ldrb	r0, [sp, #14]	@ zero_extendqisi2
 560 001a 05B0     		add	sp, sp, #20
 561              		@ sp needed
 562 001c 5DF804FB 		ldr	pc, [sp], #4
 564              		.section	.text.SHCI_C2_RADIO_AllowLowPower,"ax",%progbits
 565              		.align	1
 566              		.global	SHCI_C2_RADIO_AllowLowPower
 567              		.syntax unified
 568              		.thumb
 569              		.thumb_func
 571              	SHCI_C2_RADIO_AllowLowPower:
 572              		@ args = 0, pretend = 0, frame = 16
 573              		@ frame_needed = 0, uses_anonymous_args = 0
 574 0000 00B5     		push	{lr}
 575 0002 85B0     		sub	sp, sp, #20
 576 0004 8DF80000 		strb	r0, [sp]
 577 0008 8DF80110 		strb	r1, [sp, #1]
 578 000c 6B46     		mov	r3, sp
 579 000e 6A46     		mov	r2, sp
 580 0010 0221     		movs	r1, #2
 581 0012 4FF66D40 		movw	r0, #64621
 582 0016 FFF7FEFF 		bl	shci_send
 583 001a 9DF80E00 		ldrb	r0, [sp, #14]	@ zero_extendqisi2
 584 001e 05B0     		add	sp, sp, #20
 585              		@ sp needed
 586 0020 5DF804FB 		ldr	pc, [sp], #4
 588              		.section	.text.SHCI_C2_MAC_802_15_4_Init,"ax",%progbits
 589              		.align	1
 590              		.global	SHCI_C2_MAC_802_15_4_Init
 591              		.syntax unified
 592              		.thumb
 593              		.thumb_func
 595              	SHCI_C2_MAC_802_15_4_Init:
 596              		@ args = 0, pretend = 0, frame = 16
 597              		@ frame_needed = 0, uses_anonymous_args = 0
 598 0000 00B5     		push	{lr}
 599 0002 85B0     		sub	sp, sp, #20
 600 0004 6B46     		mov	r3, sp
 601 0006 0022     		movs	r2, #0
 602 0008 1146     		mov	r1, r2
 603 000a 4FF66E40 		movw	r0, #64622
 604 000e FFF7FEFF 		bl	shci_send
 605 0012 9DF80E00 		ldrb	r0, [sp, #14]	@ zero_extendqisi2
 606 0016 05B0     		add	sp, sp, #20
 607              		@ sp needed
 608 0018 5DF804FB 		ldr	pc, [sp], #4
 610              		.section	.text.SHCI_C2_Reinit,"ax",%progbits
 611              		.align	1
 612              		.global	SHCI_C2_Reinit
 613              		.syntax unified
 614              		.thumb
 615              		.thumb_func
 617              	SHCI_C2_Reinit:
 618              		@ args = 0, pretend = 0, frame = 16
 619              		@ frame_needed = 0, uses_anonymous_args = 0
 620 0000 00B5     		push	{lr}
 621 0002 85B0     		sub	sp, sp, #20
ARM GAS  C:\Users\Nathan\AppData\Local\Temp\cc4n5sqf.s 			page 11


 622 0004 6B46     		mov	r3, sp
 623 0006 0022     		movs	r2, #0
 624 0008 1146     		mov	r1, r2
 625 000a 4FF66F40 		movw	r0, #64623
 626 000e FFF7FEFF 		bl	shci_send
 627 0012 9DF80E00 		ldrb	r0, [sp, #14]	@ zero_extendqisi2
 628 0016 05B0     		add	sp, sp, #20
 629              		@ sp needed
 630 0018 5DF804FB 		ldr	pc, [sp], #4
 632              		.section	.text.SHCI_C2_ExtpaConfig,"ax",%progbits
 633              		.align	1
 634              		.global	SHCI_C2_ExtpaConfig
 635              		.syntax unified
 636              		.thumb
 637              		.thumb_func
 639              	SHCI_C2_ExtpaConfig:
 640              		@ args = 0, pretend = 0, frame = 16
 641              		@ frame_needed = 0, uses_anonymous_args = 0
 642 0000 00B5     		push	{lr}
 643 0002 85B0     		sub	sp, sp, #20
 644 0004 0090     		str	r0, [sp]
 645 0006 ADF80410 		strh	r1, [sp, #4]	@ movhi
 646 000a 8DF80620 		strb	r2, [sp, #6]
 647 000e 8DF80730 		strb	r3, [sp, #7]
 648 0012 6B46     		mov	r3, sp
 649 0014 6A46     		mov	r2, sp
 650 0016 0821     		movs	r1, #8
 651 0018 4FF67240 		movw	r0, #64626
 652 001c FFF7FEFF 		bl	shci_send
 653 0020 9DF80E00 		ldrb	r0, [sp, #14]	@ zero_extendqisi2
 654 0024 05B0     		add	sp, sp, #20
 655              		@ sp needed
 656 0026 5DF804FB 		ldr	pc, [sp], #4
 658              		.section	.text.SHCI_C2_SetFlashActivityControl,"ax",%progbits
 659              		.align	1
 660              		.global	SHCI_C2_SetFlashActivityControl
 661              		.syntax unified
 662              		.thumb
 663              		.thumb_func
 665              	SHCI_C2_SetFlashActivityControl:
 666              		@ args = 0, pretend = 0, frame = 16
 667              		@ frame_needed = 0, uses_anonymous_args = 0
 668 0000 00B5     		push	{lr}
 669 0002 85B0     		sub	sp, sp, #20
 670 0004 8DF80000 		strb	r0, [sp]
 671 0008 6B46     		mov	r3, sp
 672 000a 6A46     		mov	r2, sp
 673 000c 0121     		movs	r1, #1
 674 000e 4FF67340 		movw	r0, #64627
 675 0012 FFF7FEFF 		bl	shci_send
 676 0016 9DF80E00 		ldrb	r0, [sp, #14]	@ zero_extendqisi2
 677 001a 05B0     		add	sp, sp, #20
 678              		@ sp needed
 679 001c 5DF804FB 		ldr	pc, [sp], #4
 681              		.section	.text.SHCI_C2_Config,"ax",%progbits
 682              		.align	1
 683              		.global	SHCI_C2_Config
ARM GAS  C:\Users\Nathan\AppData\Local\Temp\cc4n5sqf.s 			page 12


 684              		.syntax unified
 685              		.thumb
 686              		.thumb_func
 688              	SHCI_C2_Config:
 689              		@ args = 0, pretend = 0, frame = 16
 690              		@ frame_needed = 0, uses_anonymous_args = 0
 691 0000 00B5     		push	{lr}
 692 0002 85B0     		sub	sp, sp, #20
 693 0004 0246     		mov	r2, r0
 694 0006 6B46     		mov	r3, sp
 695 0008 1021     		movs	r1, #16
 696 000a 4FF67540 		movw	r0, #64629
 697 000e FFF7FEFF 		bl	shci_send
 698 0012 9DF80E00 		ldrb	r0, [sp, #14]	@ zero_extendqisi2
 699 0016 05B0     		add	sp, sp, #20
 700              		@ sp needed
 701 0018 5DF804FB 		ldr	pc, [sp], #4
 703              		.section	.text.SHCI_C2_802_15_4_DeInit,"ax",%progbits
 704              		.align	1
 705              		.global	SHCI_C2_802_15_4_DeInit
 706              		.syntax unified
 707              		.thumb
 708              		.thumb_func
 710              	SHCI_C2_802_15_4_DeInit:
 711              		@ args = 0, pretend = 0, frame = 16
 712              		@ frame_needed = 0, uses_anonymous_args = 0
 713 0000 00B5     		push	{lr}
 714 0002 85B0     		sub	sp, sp, #20
 715 0004 6B46     		mov	r3, sp
 716 0006 0022     		movs	r2, #0
 717 0008 1146     		mov	r1, r2
 718 000a 4FF67840 		movw	r0, #64632
 719 000e FFF7FEFF 		bl	shci_send
 720 0012 9DF80E00 		ldrb	r0, [sp, #14]	@ zero_extendqisi2
 721 0016 05B0     		add	sp, sp, #20
 722              		@ sp needed
 723 0018 5DF804FB 		ldr	pc, [sp], #4
 725              		.section	.text.SHCI_C2_SetSystemClock,"ax",%progbits
 726              		.align	1
 727              		.global	SHCI_C2_SetSystemClock
 728              		.syntax unified
 729              		.thumb
 730              		.thumb_func
 732              	SHCI_C2_SetSystemClock:
 733              		@ args = 0, pretend = 0, frame = 16
 734              		@ frame_needed = 0, uses_anonymous_args = 0
 735 0000 00B5     		push	{lr}
 736 0002 85B0     		sub	sp, sp, #20
 737 0004 8DF80000 		strb	r0, [sp]
 738 0008 6B46     		mov	r3, sp
 739 000a 6A46     		mov	r2, sp
 740 000c 0121     		movs	r1, #1
 741 000e 4FF67940 		movw	r0, #64633
 742 0012 FFF7FEFF 		bl	shci_send
 743 0016 9DF80E00 		ldrb	r0, [sp, #14]	@ zero_extendqisi2
 744 001a 05B0     		add	sp, sp, #20
 745              		@ sp needed
ARM GAS  C:\Users\Nathan\AppData\Local\Temp\cc4n5sqf.s 			page 13


 746 001c 5DF804FB 		ldr	pc, [sp], #4
 748              		.section	.text.SHCI_GetWirelessFwInfo,"ax",%progbits
 749              		.align	1
 750              		.global	SHCI_GetWirelessFwInfo
 751              		.syntax unified
 752              		.thumb
 753              		.thumb_func
 755              	SHCI_GetWirelessFwInfo:
 756              		@ args = 0, pretend = 0, frame = 0
 757              		@ frame_needed = 0, uses_anonymous_args = 0
 758              		@ link register save eliminated.
 759 0000 30B4     		push	{r4, r5}
 760 0002 214B     		ldr	r3, .L75
 761 0004 DB6B     		ldr	r3, [r3, #60]
 762 0006 C3F30D03 		ubfx	r3, r3, #0, #14
 763 000a 9B00     		lsls	r3, r3, #2
 764 000c 03F10053 		add	r3, r3, #536870912
 765 0010 03F54033 		add	r3, r3, #196608
 766 0014 1A68     		ldr	r2, [r3]
 767 0016 1168     		ldr	r1, [r2]
 768 0018 1C4B     		ldr	r3, .L75+4
 769 001a 9942     		cmp	r1, r3
 770 001c 2DD0     		beq	.L74
 771 001e 1369     		ldr	r3, [r2, #16]	@ unaligned
 772 0020 5469     		ldr	r4, [r2, #20]	@ unaligned
 773 0022 9569     		ldr	r5, [r2, #24]	@ unaligned
 774 0024 5168     		ldr	r1, [r2, #4]	@ unaligned
 775 0026 9268     		ldr	r2, [r2, #8]	@ unaligned
 776              	.L72:
 777 0028 4FEA136C 		lsr	ip, r3, #24
 778 002c 80F800C0 		strb	ip, [r0]
 779 0030 4FEA134C 		lsr	ip, r3, #16
 780 0034 80F801C0 		strb	ip, [r0, #1]
 781 0038 4FEA132C 		lsr	ip, r3, #8
 782 003c 80F802C0 		strb	ip, [r0, #2]
 783 0040 C3F3031C 		ubfx	ip, r3, #4, #4
 784 0044 80F803C0 		strb	ip, [r0, #3]
 785 0048 03F00F03 		and	r3, r3, #15
 786 004c 0371     		strb	r3, [r0, #4]
 787 004e 230E     		lsrs	r3, r4, #24
 788 0050 4371     		strb	r3, [r0, #5]
 789 0052 230C     		lsrs	r3, r4, #16
 790 0054 8371     		strb	r3, [r0, #6]
 791 0056 230A     		lsrs	r3, r4, #8
 792 0058 C371     		strb	r3, [r0, #7]
 793 005a 0472     		strb	r4, [r0, #8]
 794 005c 4572     		strb	r5, [r0, #9]
 795 005e 0B0E     		lsrs	r3, r1, #24
 796 0060 8372     		strb	r3, [r0, #10]
 797 0062 0B0C     		lsrs	r3, r1, #16
 798 0064 C372     		strb	r3, [r0, #11]
 799 0066 090A     		lsrs	r1, r1, #8
 800 0068 0173     		strb	r1, [r0, #12]
 801 006a 130E     		lsrs	r3, r2, #24
 802 006c 4373     		strb	r3, [r0, #13]
 803 006e 130C     		lsrs	r3, r2, #16
 804 0070 8373     		strb	r3, [r0, #14]
ARM GAS  C:\Users\Nathan\AppData\Local\Temp\cc4n5sqf.s 			page 14


 805 0072 C273     		strb	r2, [r0, #15]
 806 0074 0020     		movs	r0, #0
 807 0076 30BC     		pop	{r4, r5}
 808 0078 7047     		bx	lr
 809              	.L74:
 810 007a 5369     		ldr	r3, [r2, #20]
 811 007c 9469     		ldr	r4, [r2, #24]
 812 007e D569     		ldr	r5, [r2, #28]
 813 0080 D168     		ldr	r1, [r2, #12]
 814 0082 1269     		ldr	r2, [r2, #16]
 815 0084 D0E7     		b	.L72
 816              	.L76:
 817 0086 00BF     		.align	2
 818              	.L75:
 819 0088 00400058 		.word	1476411392
 820 008c B95646A9 		.word	-1455008071
 822              		.ident	"GCC: (Arm GNU Toolchain 13.3.Rel1 (Build arm-13.24)) 13.3.1 20240614"
ARM GAS  C:\Users\Nathan\AppData\Local\Temp\cc4n5sqf.s 			page 15

