ARM GAS  C:\Users\Nathan\AppData\Local\Temp\ccuUV3Of.s 			page 1


   1              		.cpu cortex-m4
   2              		.arch armv7e-m
   3              		.fpu fpv4-sp-d16
   4              		.eabi_attribute 27, 1
   5              		.eabi_attribute 28, 1
   6              		.eabi_attribute 20, 1
   7              		.eabi_attribute 21, 1
   8              		.eabi_attribute 23, 3
   9              		.eabi_attribute 24, 1
  10              		.eabi_attribute 25, 1
  11              		.eabi_attribute 26, 1
  12              		.eabi_attribute 30, 1
  13              		.eabi_attribute 34, 1
  14              		.eabi_attribute 18, 4
  15              		.file	"stm32wbxx_hal_uart.c"
  16              		.text
  17              		.section	.text.UART_EndTxTransfer,"ax",%progbits
  18              		.align	1
  19              		.syntax unified
  20              		.thumb
  21              		.thumb_func
  23              	UART_EndTxTransfer:
  24              		@ args = 0, pretend = 0, frame = 0
  25              		@ frame_needed = 0, uses_anonymous_args = 0
  26              		@ link register save eliminated.
  27              	.L2:
  28 0000 0268     		ldr	r2, [r0]
  29              		.syntax unified
  30              	@ 1155 "Drivers/CMSIS/Include/cmsis_gcc.h" 1
  31 0002 52E8003F 		ldrex r3, [r2]
  32              	@ 0 "" 2
  33              		.thumb
  34              		.syntax unified
  35 0006 23F0C003 		bic	r3, r3, #192
  36              		.syntax unified
  37              	@ 1206 "Drivers/CMSIS/Include/cmsis_gcc.h" 1
  38 000a 42E80031 		strex r1, r3, [r2]
  39              	@ 0 "" 2
  40              		.thumb
  41              		.syntax unified
  42 000e 0029     		cmp	r1, #0
  43 0010 F6D1     		bne	.L2
  44              	.L3:
  45 0012 0268     		ldr	r2, [r0]
  46 0014 02F10803 		add	r3, r2, #8
  47              		.syntax unified
  48              	@ 1155 "Drivers/CMSIS/Include/cmsis_gcc.h" 1
  49 0018 53E8003F 		ldrex r3, [r3]
  50              	@ 0 "" 2
  51              		.thumb
  52              		.syntax unified
  53 001c 23F40003 		bic	r3, r3, #8388608
  54 0020 0832     		adds	r2, r2, #8
  55              		.syntax unified
  56              	@ 1206 "Drivers/CMSIS/Include/cmsis_gcc.h" 1
  57 0022 42E80031 		strex r1, r3, [r2]
  58              	@ 0 "" 2
ARM GAS  C:\Users\Nathan\AppData\Local\Temp\ccuUV3Of.s 			page 2


  59              		.thumb
  60              		.syntax unified
  61 0026 0029     		cmp	r1, #0
  62 0028 F3D1     		bne	.L3
  63 002a 2023     		movs	r3, #32
  64 002c C0F88830 		str	r3, [r0, #136]
  65 0030 7047     		bx	lr
  67              		.section	.text.UART_EndRxTransfer,"ax",%progbits
  68              		.align	1
  69              		.syntax unified
  70              		.thumb
  71              		.thumb_func
  73              	UART_EndRxTransfer:
  74              		@ args = 0, pretend = 0, frame = 0
  75              		@ frame_needed = 0, uses_anonymous_args = 0
  76              		@ link register save eliminated.
  77              	.L5:
  78 0000 0268     		ldr	r2, [r0]
  79              		.syntax unified
  80              	@ 1155 "Drivers/CMSIS/Include/cmsis_gcc.h" 1
  81 0002 52E8003F 		ldrex r3, [r2]
  82              	@ 0 "" 2
  83              		.thumb
  84              		.syntax unified
  85 0006 23F49073 		bic	r3, r3, #288
  86              		.syntax unified
  87              	@ 1206 "Drivers/CMSIS/Include/cmsis_gcc.h" 1
  88 000a 42E80031 		strex r1, r3, [r2]
  89              	@ 0 "" 2
  90              		.thumb
  91              		.syntax unified
  92 000e 0029     		cmp	r1, #0
  93 0010 F6D1     		bne	.L5
  94              	.L6:
  95 0012 0268     		ldr	r2, [r0]
  96 0014 02F10803 		add	r3, r2, #8
  97              		.syntax unified
  98              	@ 1155 "Drivers/CMSIS/Include/cmsis_gcc.h" 1
  99 0018 53E8003F 		ldrex r3, [r3]
 100              	@ 0 "" 2
 101              		.thumb
 102              		.syntax unified
 103 001c 23F08053 		bic	r3, r3, #268435456
 104 0020 23F00103 		bic	r3, r3, #1
 105 0024 0832     		adds	r2, r2, #8
 106              		.syntax unified
 107              	@ 1206 "Drivers/CMSIS/Include/cmsis_gcc.h" 1
 108 0026 42E80031 		strex r1, r3, [r2]
 109              	@ 0 "" 2
 110              		.thumb
 111              		.syntax unified
 112 002a 0029     		cmp	r1, #0
 113 002c F1D1     		bne	.L6
 114 002e C36E     		ldr	r3, [r0, #108]
 115 0030 012B     		cmp	r3, #1
 116 0032 06D0     		beq	.L8
 117              	.L7:
ARM GAS  C:\Users\Nathan\AppData\Local\Temp\ccuUV3Of.s 			page 3


 118 0034 2023     		movs	r3, #32
 119 0036 C0F88C30 		str	r3, [r0, #140]
 120 003a 0023     		movs	r3, #0
 121 003c C366     		str	r3, [r0, #108]
 122 003e 4367     		str	r3, [r0, #116]
 123 0040 7047     		bx	lr
 124              	.L8:
 125 0042 0268     		ldr	r2, [r0]
 126              		.syntax unified
 127              	@ 1155 "Drivers/CMSIS/Include/cmsis_gcc.h" 1
 128 0044 52E8003F 		ldrex r3, [r2]
 129              	@ 0 "" 2
 130              		.thumb
 131              		.syntax unified
 132 0048 23F01003 		bic	r3, r3, #16
 133              		.syntax unified
 134              	@ 1206 "Drivers/CMSIS/Include/cmsis_gcc.h" 1
 135 004c 42E80031 		strex r1, r3, [r2]
 136              	@ 0 "" 2
 137              		.thumb
 138              		.syntax unified
 139 0050 0029     		cmp	r1, #0
 140 0052 F6D1     		bne	.L8
 141 0054 EEE7     		b	.L7
 143              		.section	.text.UART_TxISR_8BIT,"ax",%progbits
 144              		.align	1
 145              		.syntax unified
 146              		.thumb
 147              		.thumb_func
 149              	UART_TxISR_8BIT:
 150              		@ args = 0, pretend = 0, frame = 0
 151              		@ frame_needed = 0, uses_anonymous_args = 0
 152              		@ link register save eliminated.
 153 0000 D0F88830 		ldr	r3, [r0, #136]
 154 0004 212B     		cmp	r3, #33
 155 0006 00D0     		beq	.L14
 156              	.L9:
 157 0008 7047     		bx	lr
 158              	.L14:
 159 000a B0F85630 		ldrh	r3, [r0, #86]
 160 000e 9BB2     		uxth	r3, r3
 161 0010 93B9     		cbnz	r3, .L11
 162              	.L12:
 163 0012 0268     		ldr	r2, [r0]
 164              		.syntax unified
 165              	@ 1155 "Drivers/CMSIS/Include/cmsis_gcc.h" 1
 166 0014 52E8003F 		ldrex r3, [r2]
 167              	@ 0 "" 2
 168              		.thumb
 169              		.syntax unified
 170 0018 23F08003 		bic	r3, r3, #128
 171              		.syntax unified
 172              	@ 1206 "Drivers/CMSIS/Include/cmsis_gcc.h" 1
 173 001c 42E80031 		strex r1, r3, [r2]
 174              	@ 0 "" 2
 175              		.thumb
 176              		.syntax unified
ARM GAS  C:\Users\Nathan\AppData\Local\Temp\ccuUV3Of.s 			page 4


 177 0020 0029     		cmp	r1, #0
 178 0022 F6D1     		bne	.L12
 179              	.L13:
 180 0024 0268     		ldr	r2, [r0]
 181              		.syntax unified
 182              	@ 1155 "Drivers/CMSIS/Include/cmsis_gcc.h" 1
 183 0026 52E8003F 		ldrex r3, [r2]
 184              	@ 0 "" 2
 185              		.thumb
 186              		.syntax unified
 187 002a 43F04003 		orr	r3, r3, #64
 188              		.syntax unified
 189              	@ 1206 "Drivers/CMSIS/Include/cmsis_gcc.h" 1
 190 002e 42E80031 		strex r1, r3, [r2]
 191              	@ 0 "" 2
 192              		.thumb
 193              		.syntax unified
 194 0032 0029     		cmp	r1, #0
 195 0034 F6D1     		bne	.L13
 196 0036 7047     		bx	lr
 197              	.L11:
 198 0038 036D     		ldr	r3, [r0, #80]
 199 003a 1A78     		ldrb	r2, [r3]	@ zero_extendqisi2
 200 003c 0368     		ldr	r3, [r0]
 201 003e 9A62     		str	r2, [r3, #40]
 202 0040 036D     		ldr	r3, [r0, #80]
 203 0042 0133     		adds	r3, r3, #1
 204 0044 0365     		str	r3, [r0, #80]
 205 0046 B0F85630 		ldrh	r3, [r0, #86]
 206 004a 9BB2     		uxth	r3, r3
 207 004c 013B     		subs	r3, r3, #1
 208 004e 9BB2     		uxth	r3, r3
 209 0050 A0F85630 		strh	r3, [r0, #86]	@ movhi
 210 0054 D8E7     		b	.L9
 212              		.section	.text.UART_TxISR_16BIT,"ax",%progbits
 213              		.align	1
 214              		.syntax unified
 215              		.thumb
 216              		.thumb_func
 218              	UART_TxISR_16BIT:
 219              		@ args = 0, pretend = 0, frame = 0
 220              		@ frame_needed = 0, uses_anonymous_args = 0
 221              		@ link register save eliminated.
 222 0000 D0F88830 		ldr	r3, [r0, #136]
 223 0004 212B     		cmp	r3, #33
 224 0006 00D0     		beq	.L20
 225              	.L15:
 226 0008 7047     		bx	lr
 227              	.L20:
 228 000a B0F85630 		ldrh	r3, [r0, #86]
 229 000e 9BB2     		uxth	r3, r3
 230 0010 93B9     		cbnz	r3, .L17
 231              	.L18:
 232 0012 0268     		ldr	r2, [r0]
 233              		.syntax unified
 234              	@ 1155 "Drivers/CMSIS/Include/cmsis_gcc.h" 1
 235 0014 52E8003F 		ldrex r3, [r2]
ARM GAS  C:\Users\Nathan\AppData\Local\Temp\ccuUV3Of.s 			page 5


 236              	@ 0 "" 2
 237              		.thumb
 238              		.syntax unified
 239 0018 23F08003 		bic	r3, r3, #128
 240              		.syntax unified
 241              	@ 1206 "Drivers/CMSIS/Include/cmsis_gcc.h" 1
 242 001c 42E80031 		strex r1, r3, [r2]
 243              	@ 0 "" 2
 244              		.thumb
 245              		.syntax unified
 246 0020 0029     		cmp	r1, #0
 247 0022 F6D1     		bne	.L18
 248              	.L19:
 249 0024 0268     		ldr	r2, [r0]
 250              		.syntax unified
 251              	@ 1155 "Drivers/CMSIS/Include/cmsis_gcc.h" 1
 252 0026 52E8003F 		ldrex r3, [r2]
 253              	@ 0 "" 2
 254              		.thumb
 255              		.syntax unified
 256 002a 43F04003 		orr	r3, r3, #64
 257              		.syntax unified
 258              	@ 1206 "Drivers/CMSIS/Include/cmsis_gcc.h" 1
 259 002e 42E80031 		strex r1, r3, [r2]
 260              	@ 0 "" 2
 261              		.thumb
 262              		.syntax unified
 263 0032 0029     		cmp	r1, #0
 264 0034 F6D1     		bne	.L19
 265 0036 7047     		bx	lr
 266              	.L17:
 267 0038 036D     		ldr	r3, [r0, #80]
 268 003a 1B88     		ldrh	r3, [r3]
 269 003c 0268     		ldr	r2, [r0]
 270 003e C3F30803 		ubfx	r3, r3, #0, #9
 271 0042 9362     		str	r3, [r2, #40]
 272 0044 036D     		ldr	r3, [r0, #80]
 273 0046 0233     		adds	r3, r3, #2
 274 0048 0365     		str	r3, [r0, #80]
 275 004a B0F85630 		ldrh	r3, [r0, #86]
 276 004e 9BB2     		uxth	r3, r3
 277 0050 013B     		subs	r3, r3, #1
 278 0052 9BB2     		uxth	r3, r3
 279 0054 A0F85630 		strh	r3, [r0, #86]	@ movhi
 280 0058 D6E7     		b	.L15
 282              		.section	.text.UART_TxISR_8BIT_FIFOEN,"ax",%progbits
 283              		.align	1
 284              		.syntax unified
 285              		.thumb
 286              		.thumb_func
 288              	UART_TxISR_8BIT_FIFOEN:
 289              		@ args = 0, pretend = 0, frame = 0
 290              		@ frame_needed = 0, uses_anonymous_args = 0
 291              		@ link register save eliminated.
 292 0000 D0F88830 		ldr	r3, [r0, #136]
 293 0004 212B     		cmp	r3, #33
 294 0006 00D0     		beq	.L29
ARM GAS  C:\Users\Nathan\AppData\Local\Temp\ccuUV3Of.s 			page 6


 295              	.L21:
 296 0008 7047     		bx	lr
 297              	.L29:
 298 000a B0F86A30 		ldrh	r3, [r0, #106]
 299 000e 17E0     		b	.L23
 300              	.L25:
 301 0010 0268     		ldr	r2, [r0]
 302 0012 02F10803 		add	r3, r2, #8
 303              		.syntax unified
 304              	@ 1155 "Drivers/CMSIS/Include/cmsis_gcc.h" 1
 305 0016 53E8003F 		ldrex r3, [r3]
 306              	@ 0 "" 2
 307              		.thumb
 308              		.syntax unified
 309 001a 23F40003 		bic	r3, r3, #8388608
 310 001e 0832     		adds	r2, r2, #8
 311              		.syntax unified
 312              	@ 1206 "Drivers/CMSIS/Include/cmsis_gcc.h" 1
 313 0020 42E80031 		strex r1, r3, [r2]
 314              	@ 0 "" 2
 315              		.thumb
 316              		.syntax unified
 317 0024 0029     		cmp	r1, #0
 318 0026 F3D1     		bne	.L25
 319              	.L26:
 320 0028 0268     		ldr	r2, [r0]
 321              		.syntax unified
 322              	@ 1155 "Drivers/CMSIS/Include/cmsis_gcc.h" 1
 323 002a 52E8003F 		ldrex r3, [r2]
 324              	@ 0 "" 2
 325              		.thumb
 326              		.syntax unified
 327 002e 43F04003 		orr	r3, r3, #64
 328              		.syntax unified
 329              	@ 1206 "Drivers/CMSIS/Include/cmsis_gcc.h" 1
 330 0032 42E80031 		strex r1, r3, [r2]
 331              	@ 0 "" 2
 332              		.thumb
 333              		.syntax unified
 334 0036 0029     		cmp	r1, #0
 335 0038 F6D1     		bne	.L26
 336 003a 7047     		bx	lr
 337              	.L27:
 338 003c 013B     		subs	r3, r3, #1
 339 003e 9BB2     		uxth	r3, r3
 340              	.L23:
 341 0040 002B     		cmp	r3, #0
 342 0042 E1D0     		beq	.L21
 343 0044 B0F85620 		ldrh	r2, [r0, #86]
 344 0048 92B2     		uxth	r2, r2
 345 004a 002A     		cmp	r2, #0
 346 004c E0D0     		beq	.L25
 347 004e 0268     		ldr	r2, [r0]
 348 0050 D169     		ldr	r1, [r2, #28]
 349 0052 11F0800F 		tst	r1, #128
 350 0056 F1D0     		beq	.L27
 351 0058 016D     		ldr	r1, [r0, #80]
ARM GAS  C:\Users\Nathan\AppData\Local\Temp\ccuUV3Of.s 			page 7


 352 005a 0978     		ldrb	r1, [r1]	@ zero_extendqisi2
 353 005c 9162     		str	r1, [r2, #40]
 354 005e 026D     		ldr	r2, [r0, #80]
 355 0060 0132     		adds	r2, r2, #1
 356 0062 0265     		str	r2, [r0, #80]
 357 0064 B0F85620 		ldrh	r2, [r0, #86]
 358 0068 92B2     		uxth	r2, r2
 359 006a 013A     		subs	r2, r2, #1
 360 006c 92B2     		uxth	r2, r2
 361 006e A0F85620 		strh	r2, [r0, #86]	@ movhi
 362 0072 E3E7     		b	.L27
 364              		.section	.text.UART_TxISR_16BIT_FIFOEN,"ax",%progbits
 365              		.align	1
 366              		.syntax unified
 367              		.thumb
 368              		.thumb_func
 370              	UART_TxISR_16BIT_FIFOEN:
 371              		@ args = 0, pretend = 0, frame = 0
 372              		@ frame_needed = 0, uses_anonymous_args = 0
 373              		@ link register save eliminated.
 374 0000 D0F88830 		ldr	r3, [r0, #136]
 375 0004 212B     		cmp	r3, #33
 376 0006 00D0     		beq	.L38
 377              	.L30:
 378 0008 7047     		bx	lr
 379              	.L38:
 380 000a B0F86A30 		ldrh	r3, [r0, #106]
 381 000e 17E0     		b	.L32
 382              	.L34:
 383 0010 0268     		ldr	r2, [r0]
 384 0012 02F10803 		add	r3, r2, #8
 385              		.syntax unified
 386              	@ 1155 "Drivers/CMSIS/Include/cmsis_gcc.h" 1
 387 0016 53E8003F 		ldrex r3, [r3]
 388              	@ 0 "" 2
 389              		.thumb
 390              		.syntax unified
 391 001a 23F40003 		bic	r3, r3, #8388608
 392 001e 0832     		adds	r2, r2, #8
 393              		.syntax unified
 394              	@ 1206 "Drivers/CMSIS/Include/cmsis_gcc.h" 1
 395 0020 42E80031 		strex r1, r3, [r2]
 396              	@ 0 "" 2
 397              		.thumb
 398              		.syntax unified
 399 0024 0029     		cmp	r1, #0
 400 0026 F3D1     		bne	.L34
 401              	.L35:
 402 0028 0268     		ldr	r2, [r0]
 403              		.syntax unified
 404              	@ 1155 "Drivers/CMSIS/Include/cmsis_gcc.h" 1
 405 002a 52E8003F 		ldrex r3, [r2]
 406              	@ 0 "" 2
 407              		.thumb
 408              		.syntax unified
 409 002e 43F04003 		orr	r3, r3, #64
 410              		.syntax unified
ARM GAS  C:\Users\Nathan\AppData\Local\Temp\ccuUV3Of.s 			page 8


 411              	@ 1206 "Drivers/CMSIS/Include/cmsis_gcc.h" 1
 412 0032 42E80031 		strex r1, r3, [r2]
 413              	@ 0 "" 2
 414              		.thumb
 415              		.syntax unified
 416 0036 0029     		cmp	r1, #0
 417 0038 F6D1     		bne	.L35
 418 003a 7047     		bx	lr
 419              	.L36:
 420 003c 013B     		subs	r3, r3, #1
 421 003e 9BB2     		uxth	r3, r3
 422              	.L32:
 423 0040 002B     		cmp	r3, #0
 424 0042 E1D0     		beq	.L30
 425 0044 B0F85620 		ldrh	r2, [r0, #86]
 426 0048 92B2     		uxth	r2, r2
 427 004a 002A     		cmp	r2, #0
 428 004c E0D0     		beq	.L34
 429 004e 0268     		ldr	r2, [r0]
 430 0050 D169     		ldr	r1, [r2, #28]
 431 0052 11F0800F 		tst	r1, #128
 432 0056 F1D0     		beq	.L36
 433 0058 016D     		ldr	r1, [r0, #80]
 434 005a 0988     		ldrh	r1, [r1]
 435 005c C1F30801 		ubfx	r1, r1, #0, #9
 436 0060 9162     		str	r1, [r2, #40]
 437 0062 026D     		ldr	r2, [r0, #80]
 438 0064 0232     		adds	r2, r2, #2
 439 0066 0265     		str	r2, [r0, #80]
 440 0068 B0F85620 		ldrh	r2, [r0, #86]
 441 006c 92B2     		uxth	r2, r2
 442 006e 013A     		subs	r2, r2, #1
 443 0070 92B2     		uxth	r2, r2
 444 0072 A0F85620 		strh	r2, [r0, #86]	@ movhi
 445 0076 E1E7     		b	.L36
 447              		.section	.text.HAL_UART_MspInit,"ax",%progbits
 448              		.align	1
 449              		.weak	HAL_UART_MspInit
 450              		.syntax unified
 451              		.thumb
 452              		.thumb_func
 454              	HAL_UART_MspInit:
 455              		@ args = 0, pretend = 0, frame = 0
 456              		@ frame_needed = 0, uses_anonymous_args = 0
 457              		@ link register save eliminated.
 458 0000 7047     		bx	lr
 460              		.section	.text.HAL_UART_MspDeInit,"ax",%progbits
 461              		.align	1
 462              		.weak	HAL_UART_MspDeInit
 463              		.syntax unified
 464              		.thumb
 465              		.thumb_func
 467              	HAL_UART_MspDeInit:
 468              		@ args = 0, pretend = 0, frame = 0
 469              		@ frame_needed = 0, uses_anonymous_args = 0
 470              		@ link register save eliminated.
 471 0000 7047     		bx	lr
ARM GAS  C:\Users\Nathan\AppData\Local\Temp\ccuUV3Of.s 			page 9


 473              		.section	.text.HAL_UART_DeInit,"ax",%progbits
 474              		.align	1
 475              		.global	HAL_UART_DeInit
 476              		.syntax unified
 477              		.thumb
 478              		.thumb_func
 480              	HAL_UART_DeInit:
 481              		@ args = 0, pretend = 0, frame = 0
 482              		@ frame_needed = 0, uses_anonymous_args = 0
 483 0000 F0B1     		cbz	r0, .L43
 484 0002 38B5     		push	{r3, r4, r5, lr}
 485 0004 0546     		mov	r5, r0
 486 0006 2423     		movs	r3, #36
 487 0008 C0F88830 		str	r3, [r0, #136]
 488 000c 0268     		ldr	r2, [r0]
 489 000e 1368     		ldr	r3, [r2]
 490 0010 23F00103 		bic	r3, r3, #1
 491 0014 1360     		str	r3, [r2]
 492 0016 0368     		ldr	r3, [r0]
 493 0018 0024     		movs	r4, #0
 494 001a 1C60     		str	r4, [r3]
 495 001c 0368     		ldr	r3, [r0]
 496 001e 5C60     		str	r4, [r3, #4]
 497 0020 0368     		ldr	r3, [r0]
 498 0022 9C60     		str	r4, [r3, #8]
 499 0024 FFF7FEFF 		bl	HAL_UART_MspDeInit
 500 0028 C5F89040 		str	r4, [r5, #144]
 501 002c C5F88840 		str	r4, [r5, #136]
 502 0030 C5F88C40 		str	r4, [r5, #140]
 503 0034 EC66     		str	r4, [r5, #108]
 504 0036 2C67     		str	r4, [r5, #112]
 505 0038 85F88440 		strb	r4, [r5, #132]
 506 003c 2046     		mov	r0, r4
 507 003e 38BD     		pop	{r3, r4, r5, pc}
 508              	.L43:
 509 0040 0120     		movs	r0, #1
 510 0042 7047     		bx	lr
 512              		.section	.text.HAL_UART_Transmit_IT,"ax",%progbits
 513              		.align	1
 514              		.global	HAL_UART_Transmit_IT
 515              		.syntax unified
 516              		.thumb
 517              		.thumb_func
 519              	HAL_UART_Transmit_IT:
 520              		@ args = 0, pretend = 0, frame = 0
 521              		@ frame_needed = 0, uses_anonymous_args = 0
 522              		@ link register save eliminated.
 523 0000 D0F88830 		ldr	r3, [r0, #136]
 524 0004 202B     		cmp	r3, #32
 525 0006 43D1     		bne	.L58
 526 0008 0029     		cmp	r1, #0
 527 000a 43D0     		beq	.L59
 528 000c 002A     		cmp	r2, #0
 529 000e 43D0     		beq	.L60
 530 0010 0165     		str	r1, [r0, #80]
 531 0012 A0F85420 		strh	r2, [r0, #84]	@ movhi
 532 0016 A0F85620 		strh	r2, [r0, #86]	@ movhi
ARM GAS  C:\Users\Nathan\AppData\Local\Temp\ccuUV3Of.s 			page 10


 533 001a 0023     		movs	r3, #0
 534 001c 8367     		str	r3, [r0, #120]
 535 001e C0F89030 		str	r3, [r0, #144]
 536 0022 2123     		movs	r3, #33
 537 0024 C0F88830 		str	r3, [r0, #136]
 538 0028 436E     		ldr	r3, [r0, #100]
 539 002a B3F1005F 		cmp	r3, #536870912
 540 002e 10D0     		beq	.L61
 541 0030 8368     		ldr	r3, [r0, #8]
 542 0032 B3F5805F 		cmp	r3, #4096
 543 0036 25D0     		beq	.L62
 544              	.L55:
 545 0038 184B     		ldr	r3, .L64
 546 003a 8367     		str	r3, [r0, #120]
 547              	.L57:
 548 003c 0268     		ldr	r2, [r0]
 549              		.syntax unified
 550              	@ 1155 "Drivers/CMSIS/Include/cmsis_gcc.h" 1
 551 003e 52E8003F 		ldrex r3, [r2]
 552              	@ 0 "" 2
 553              		.thumb
 554              		.syntax unified
 555 0042 43F08003 		orr	r3, r3, #128
 556              		.syntax unified
 557              	@ 1206 "Drivers/CMSIS/Include/cmsis_gcc.h" 1
 558 0046 42E80031 		strex r1, r3, [r2]
 559              	@ 0 "" 2
 560              		.thumb
 561              		.syntax unified
 562 004a 0029     		cmp	r1, #0
 563 004c F6D1     		bne	.L57
 564              	.L54:
 565 004e 0020     		movs	r0, #0
 566 0050 7047     		bx	lr
 567              	.L61:
 568 0052 8368     		ldr	r3, [r0, #8]
 569 0054 B3F5805F 		cmp	r3, #4096
 570 0058 0ED0     		beq	.L63
 571              	.L51:
 572 005a 114B     		ldr	r3, .L64+4
 573 005c 8367     		str	r3, [r0, #120]
 574              	.L53:
 575 005e 0268     		ldr	r2, [r0]
 576 0060 02F10803 		add	r3, r2, #8
 577              		.syntax unified
 578              	@ 1155 "Drivers/CMSIS/Include/cmsis_gcc.h" 1
 579 0064 53E8003F 		ldrex r3, [r3]
 580              	@ 0 "" 2
 581              		.thumb
 582              		.syntax unified
 583 0068 43F40003 		orr	r3, r3, #8388608
 584 006c 0832     		adds	r2, r2, #8
 585              		.syntax unified
 586              	@ 1206 "Drivers/CMSIS/Include/cmsis_gcc.h" 1
 587 006e 42E80031 		strex r1, r3, [r2]
 588              	@ 0 "" 2
 589              		.thumb
ARM GAS  C:\Users\Nathan\AppData\Local\Temp\ccuUV3Of.s 			page 11


 590              		.syntax unified
 591 0072 0029     		cmp	r1, #0
 592 0074 F3D1     		bne	.L53
 593 0076 EAE7     		b	.L54
 594              	.L63:
 595 0078 0369     		ldr	r3, [r0, #16]
 596 007a 002B     		cmp	r3, #0
 597 007c EDD1     		bne	.L51
 598 007e 094B     		ldr	r3, .L64+8
 599 0080 8367     		str	r3, [r0, #120]
 600 0082 ECE7     		b	.L53
 601              	.L62:
 602 0084 0369     		ldr	r3, [r0, #16]
 603 0086 002B     		cmp	r3, #0
 604 0088 D6D1     		bne	.L55
 605 008a 074B     		ldr	r3, .L64+12
 606 008c 8367     		str	r3, [r0, #120]
 607 008e D5E7     		b	.L57
 608              	.L58:
 609 0090 0220     		movs	r0, #2
 610 0092 7047     		bx	lr
 611              	.L59:
 612 0094 0120     		movs	r0, #1
 613 0096 7047     		bx	lr
 614              	.L60:
 615 0098 0120     		movs	r0, #1
 616 009a 7047     		bx	lr
 617              	.L65:
 618              		.align	2
 619              	.L64:
 620 009c 00000000 		.word	UART_TxISR_8BIT
 621 00a0 00000000 		.word	UART_TxISR_8BIT_FIFOEN
 622 00a4 00000000 		.word	UART_TxISR_16BIT_FIFOEN
 623 00a8 00000000 		.word	UART_TxISR_16BIT
 625              		.section	.text.HAL_UART_Transmit_DMA,"ax",%progbits
 626              		.align	1
 627              		.global	HAL_UART_Transmit_DMA
 628              		.syntax unified
 629              		.thumb
 630              		.thumb_func
 632              	HAL_UART_Transmit_DMA:
 633              		@ args = 0, pretend = 0, frame = 0
 634              		@ frame_needed = 0, uses_anonymous_args = 0
 635 0000 1346     		mov	r3, r2
 636 0002 D0F88820 		ldr	r2, [r0, #136]
 637 0006 202A     		cmp	r2, #32
 638 0008 3DD1     		bne	.L70
 639 000a 10B5     		push	{r4, lr}
 640 000c 0446     		mov	r4, r0
 641 000e 0029     		cmp	r1, #0
 642 0010 3BD0     		beq	.L71
 643 0012 002B     		cmp	r3, #0
 644 0014 3BD0     		beq	.L72
 645 0016 0165     		str	r1, [r0, #80]
 646 0018 A0F85430 		strh	r3, [r0, #84]	@ movhi
 647 001c A0F85630 		strh	r3, [r0, #86]	@ movhi
 648 0020 0022     		movs	r2, #0
ARM GAS  C:\Users\Nathan\AppData\Local\Temp\ccuUV3Of.s 			page 12


 649 0022 C0F89020 		str	r2, [r0, #144]
 650 0026 2122     		movs	r2, #33
 651 0028 C0F88820 		str	r2, [r0, #136]
 652 002c C26F     		ldr	r2, [r0, #124]
 653 002e CAB1     		cbz	r2, .L68
 654 0030 1849     		ldr	r1, .L77
 655 0032 D162     		str	r1, [r2, #44]
 656 0034 C26F     		ldr	r2, [r0, #124]
 657 0036 1849     		ldr	r1, .L77+4
 658 0038 1163     		str	r1, [r2, #48]
 659 003a C26F     		ldr	r2, [r0, #124]
 660 003c 1749     		ldr	r1, .L77+8
 661 003e 5163     		str	r1, [r2, #52]
 662 0040 C26F     		ldr	r2, [r0, #124]
 663 0042 0021     		movs	r1, #0
 664 0044 9163     		str	r1, [r2, #56]
 665 0046 0268     		ldr	r2, [r0]
 666 0048 2832     		adds	r2, r2, #40
 667 004a 016D     		ldr	r1, [r0, #80]
 668 004c C06F     		ldr	r0, [r0, #124]
 669 004e FFF7FEFF 		bl	HAL_DMA_Start_IT
 670 0052 38B1     		cbz	r0, .L68
 671 0054 1023     		movs	r3, #16
 672 0056 C4F89030 		str	r3, [r4, #144]
 673 005a 2023     		movs	r3, #32
 674 005c C4F88830 		str	r3, [r4, #136]
 675 0060 0120     		movs	r0, #1
 676 0062 0FE0     		b	.L67
 677              	.L68:
 678 0064 2368     		ldr	r3, [r4]
 679 0066 4022     		movs	r2, #64
 680 0068 1A62     		str	r2, [r3, #32]
 681              	.L69:
 682 006a 2268     		ldr	r2, [r4]
 683 006c 02F10803 		add	r3, r2, #8
 684              		.syntax unified
 685              	@ 1155 "Drivers/CMSIS/Include/cmsis_gcc.h" 1
 686 0070 53E8003F 		ldrex r3, [r3]
 687              	@ 0 "" 2
 688              		.thumb
 689              		.syntax unified
 690 0074 43F08003 		orr	r3, r3, #128
 691 0078 0832     		adds	r2, r2, #8
 692              		.syntax unified
 693              	@ 1206 "Drivers/CMSIS/Include/cmsis_gcc.h" 1
 694 007a 42E80031 		strex r1, r3, [r2]
 695              	@ 0 "" 2
 696              		.thumb
 697              		.syntax unified
 698 007e 0029     		cmp	r1, #0
 699 0080 F3D1     		bne	.L69
 700 0082 0020     		movs	r0, #0
 701              	.L67:
 702 0084 10BD     		pop	{r4, pc}
 703              	.L70:
 704 0086 0220     		movs	r0, #2
 705 0088 7047     		bx	lr
ARM GAS  C:\Users\Nathan\AppData\Local\Temp\ccuUV3Of.s 			page 13


 706              	.L71:
 707 008a 0120     		movs	r0, #1
 708 008c FAE7     		b	.L67
 709              	.L72:
 710 008e 0120     		movs	r0, #1
 711 0090 F8E7     		b	.L67
 712              	.L78:
 713 0092 00BF     		.align	2
 714              	.L77:
 715 0094 00000000 		.word	UART_DMATransmitCplt
 716 0098 00000000 		.word	UART_DMATxHalfCplt
 717 009c 00000000 		.word	UART_DMAError
 719              		.section	.text.HAL_UART_DMAPause,"ax",%progbits
 720              		.align	1
 721              		.global	HAL_UART_DMAPause
 722              		.syntax unified
 723              		.thumb
 724              		.thumb_func
 726              	HAL_UART_DMAPause:
 727              		@ args = 0, pretend = 0, frame = 0
 728              		@ frame_needed = 0, uses_anonymous_args = 0
 729              		@ link register save eliminated.
 730 0000 10B4     		push	{r4}
 731 0002 D0F88820 		ldr	r2, [r0, #136]
 732 0006 D0F88C40 		ldr	r4, [r0, #140]
 733 000a 0368     		ldr	r3, [r0]
 734 000c 9B68     		ldr	r3, [r3, #8]
 735 000e 13F0800F 		tst	r3, #128
 736 0012 01D0     		beq	.L80
 737 0014 212A     		cmp	r2, #33
 738 0016 0AD0     		beq	.L81
 739              	.L80:
 740 0018 0368     		ldr	r3, [r0]
 741 001a 9B68     		ldr	r3, [r3, #8]
 742 001c 13F0400F 		tst	r3, #64
 743 0020 01D0     		beq	.L82
 744 0022 222C     		cmp	r4, #34
 745 0024 10D0     		beq	.L83
 746              	.L82:
 747 0026 0020     		movs	r0, #0
 748 0028 5DF8044B 		ldr	r4, [sp], #4
 749 002c 7047     		bx	lr
 750              	.L81:
 751 002e 0268     		ldr	r2, [r0]
 752 0030 02F10803 		add	r3, r2, #8
 753              		.syntax unified
 754              	@ 1155 "Drivers/CMSIS/Include/cmsis_gcc.h" 1
 755 0034 53E8003F 		ldrex r3, [r3]
 756              	@ 0 "" 2
 757              		.thumb
 758              		.syntax unified
 759 0038 23F08003 		bic	r3, r3, #128
 760 003c 0832     		adds	r2, r2, #8
 761              		.syntax unified
 762              	@ 1206 "Drivers/CMSIS/Include/cmsis_gcc.h" 1
 763 003e 42E80031 		strex r1, r3, [r2]
 764              	@ 0 "" 2
ARM GAS  C:\Users\Nathan\AppData\Local\Temp\ccuUV3Of.s 			page 14


 765              		.thumb
 766              		.syntax unified
 767 0042 0029     		cmp	r1, #0
 768 0044 F3D1     		bne	.L81
 769 0046 E7E7     		b	.L80
 770              	.L83:
 771 0048 0268     		ldr	r2, [r0]
 772              		.syntax unified
 773              	@ 1155 "Drivers/CMSIS/Include/cmsis_gcc.h" 1
 774 004a 52E8003F 		ldrex r3, [r2]
 775              	@ 0 "" 2
 776              		.thumb
 777              		.syntax unified
 778 004e 23F48073 		bic	r3, r3, #256
 779              		.syntax unified
 780              	@ 1206 "Drivers/CMSIS/Include/cmsis_gcc.h" 1
 781 0052 42E80031 		strex r1, r3, [r2]
 782              	@ 0 "" 2
 783              		.thumb
 784              		.syntax unified
 785 0056 0029     		cmp	r1, #0
 786 0058 F6D1     		bne	.L83
 787              	.L84:
 788 005a 0268     		ldr	r2, [r0]
 789 005c 02F10803 		add	r3, r2, #8
 790              		.syntax unified
 791              	@ 1155 "Drivers/CMSIS/Include/cmsis_gcc.h" 1
 792 0060 53E8003F 		ldrex r3, [r3]
 793              	@ 0 "" 2
 794              		.thumb
 795              		.syntax unified
 796 0064 23F00103 		bic	r3, r3, #1
 797 0068 0832     		adds	r2, r2, #8
 798              		.syntax unified
 799              	@ 1206 "Drivers/CMSIS/Include/cmsis_gcc.h" 1
 800 006a 42E80031 		strex r1, r3, [r2]
 801              	@ 0 "" 2
 802              		.thumb
 803              		.syntax unified
 804 006e 0029     		cmp	r1, #0
 805 0070 F3D1     		bne	.L84
 806              	.L85:
 807 0072 0268     		ldr	r2, [r0]
 808 0074 02F10803 		add	r3, r2, #8
 809              		.syntax unified
 810              	@ 1155 "Drivers/CMSIS/Include/cmsis_gcc.h" 1
 811 0078 53E8003F 		ldrex r3, [r3]
 812              	@ 0 "" 2
 813              		.thumb
 814              		.syntax unified
 815 007c 23F04003 		bic	r3, r3, #64
 816 0080 0832     		adds	r2, r2, #8
 817              		.syntax unified
 818              	@ 1206 "Drivers/CMSIS/Include/cmsis_gcc.h" 1
 819 0082 42E80031 		strex r1, r3, [r2]
 820              	@ 0 "" 2
 821              		.thumb
ARM GAS  C:\Users\Nathan\AppData\Local\Temp\ccuUV3Of.s 			page 15


 822              		.syntax unified
 823 0086 0029     		cmp	r1, #0
 824 0088 F3D1     		bne	.L85
 825 008a CCE7     		b	.L82
 827              		.section	.text.HAL_UART_DMAResume,"ax",%progbits
 828              		.align	1
 829              		.global	HAL_UART_DMAResume
 830              		.syntax unified
 831              		.thumb
 832              		.thumb_func
 834              	HAL_UART_DMAResume:
 835              		@ args = 0, pretend = 0, frame = 0
 836              		@ frame_needed = 0, uses_anonymous_args = 0
 837              		@ link register save eliminated.
 838 0000 D0F88830 		ldr	r3, [r0, #136]
 839 0004 212B     		cmp	r3, #33
 840 0006 05D0     		beq	.L89
 841              	.L88:
 842 0008 D0F88C30 		ldr	r3, [r0, #140]
 843 000c 222B     		cmp	r3, #34
 844 000e 0ED0     		beq	.L95
 845              	.L90:
 846 0010 0020     		movs	r0, #0
 847 0012 7047     		bx	lr
 848              	.L89:
 849 0014 0268     		ldr	r2, [r0]
 850 0016 02F10803 		add	r3, r2, #8
 851              		.syntax unified
 852              	@ 1155 "Drivers/CMSIS/Include/cmsis_gcc.h" 1
 853 001a 53E8003F 		ldrex r3, [r3]
 854              	@ 0 "" 2
 855              		.thumb
 856              		.syntax unified
 857 001e 43F08003 		orr	r3, r3, #128
 858 0022 0832     		adds	r2, r2, #8
 859              		.syntax unified
 860              	@ 1206 "Drivers/CMSIS/Include/cmsis_gcc.h" 1
 861 0024 42E80031 		strex r1, r3, [r2]
 862              	@ 0 "" 2
 863              		.thumb
 864              		.syntax unified
 865 0028 0029     		cmp	r1, #0
 866 002a F3D1     		bne	.L89
 867 002c ECE7     		b	.L88
 868              	.L95:
 869 002e 0368     		ldr	r3, [r0]
 870 0030 0822     		movs	r2, #8
 871 0032 1A62     		str	r2, [r3, #32]
 872 0034 0369     		ldr	r3, [r0, #16]
 873 0036 43B1     		cbz	r3, .L93
 874              	.L92:
 875 0038 0268     		ldr	r2, [r0]
 876              		.syntax unified
 877              	@ 1155 "Drivers/CMSIS/Include/cmsis_gcc.h" 1
 878 003a 52E8003F 		ldrex r3, [r2]
 879              	@ 0 "" 2
 880              		.thumb
ARM GAS  C:\Users\Nathan\AppData\Local\Temp\ccuUV3Of.s 			page 16


 881              		.syntax unified
 882 003e 43F48073 		orr	r3, r3, #256
 883              		.syntax unified
 884              	@ 1206 "Drivers/CMSIS/Include/cmsis_gcc.h" 1
 885 0042 42E80031 		strex r1, r3, [r2]
 886              	@ 0 "" 2
 887              		.thumb
 888              		.syntax unified
 889 0046 0029     		cmp	r1, #0
 890 0048 F6D1     		bne	.L92
 891              	.L93:
 892 004a 0268     		ldr	r2, [r0]
 893 004c 02F10803 		add	r3, r2, #8
 894              		.syntax unified
 895              	@ 1155 "Drivers/CMSIS/Include/cmsis_gcc.h" 1
 896 0050 53E8003F 		ldrex r3, [r3]
 897              	@ 0 "" 2
 898              		.thumb
 899              		.syntax unified
 900 0054 43F00103 		orr	r3, r3, #1
 901 0058 0832     		adds	r2, r2, #8
 902              		.syntax unified
 903              	@ 1206 "Drivers/CMSIS/Include/cmsis_gcc.h" 1
 904 005a 42E80031 		strex r1, r3, [r2]
 905              	@ 0 "" 2
 906              		.thumb
 907              		.syntax unified
 908 005e 0029     		cmp	r1, #0
 909 0060 F3D1     		bne	.L93
 910              	.L94:
 911 0062 0268     		ldr	r2, [r0]
 912 0064 02F10803 		add	r3, r2, #8
 913              		.syntax unified
 914              	@ 1155 "Drivers/CMSIS/Include/cmsis_gcc.h" 1
 915 0068 53E8003F 		ldrex r3, [r3]
 916              	@ 0 "" 2
 917              		.thumb
 918              		.syntax unified
 919 006c 43F04003 		orr	r3, r3, #64
 920 0070 0832     		adds	r2, r2, #8
 921              		.syntax unified
 922              	@ 1206 "Drivers/CMSIS/Include/cmsis_gcc.h" 1
 923 0072 42E80031 		strex r1, r3, [r2]
 924              	@ 0 "" 2
 925              		.thumb
 926              		.syntax unified
 927 0076 0029     		cmp	r1, #0
 928 0078 F3D1     		bne	.L94
 929 007a C9E7     		b	.L90
 931              		.section	.text.HAL_UART_DMAStop,"ax",%progbits
 932              		.align	1
 933              		.global	HAL_UART_DMAStop
 934              		.syntax unified
 935              		.thumb
 936              		.thumb_func
 938              	HAL_UART_DMAStop:
 939              		@ args = 0, pretend = 0, frame = 0
ARM GAS  C:\Users\Nathan\AppData\Local\Temp\ccuUV3Of.s 			page 17


 940              		@ frame_needed = 0, uses_anonymous_args = 0
 941 0000 38B5     		push	{r3, r4, r5, lr}
 942 0002 0446     		mov	r4, r0
 943 0004 D0F88820 		ldr	r2, [r0, #136]
 944 0008 D0F88C50 		ldr	r5, [r0, #140]
 945 000c 0368     		ldr	r3, [r0]
 946 000e 9B68     		ldr	r3, [r3, #8]
 947 0010 13F0800F 		tst	r3, #128
 948 0014 01D0     		beq	.L97
 949 0016 212A     		cmp	r2, #33
 950 0018 08D0     		beq	.L98
 951              	.L97:
 952 001a 2368     		ldr	r3, [r4]
 953 001c 9B68     		ldr	r3, [r3, #8]
 954 001e 13F0400F 		tst	r3, #64
 955 0022 44D0     		beq	.L103
 956 0024 222D     		cmp	r5, #34
 957 0026 20D0     		beq	.L101
 958 0028 0020     		movs	r0, #0
 959 002a 41E0     		b	.L100
 960              	.L98:
 961 002c 2268     		ldr	r2, [r4]
 962 002e 02F10803 		add	r3, r2, #8
 963              		.syntax unified
 964              	@ 1155 "Drivers/CMSIS/Include/cmsis_gcc.h" 1
 965 0032 53E8003F 		ldrex r3, [r3]
 966              	@ 0 "" 2
 967              		.thumb
 968              		.syntax unified
 969 0036 23F08003 		bic	r3, r3, #128
 970 003a 0832     		adds	r2, r2, #8
 971              		.syntax unified
 972              	@ 1206 "Drivers/CMSIS/Include/cmsis_gcc.h" 1
 973 003c 42E80031 		strex r1, r3, [r2]
 974              	@ 0 "" 2
 975              		.thumb
 976              		.syntax unified
 977 0040 0029     		cmp	r1, #0
 978 0042 F3D1     		bne	.L98
 979 0044 E06F     		ldr	r0, [r4, #124]
 980 0046 10B1     		cbz	r0, .L99
 981 0048 FFF7FEFF 		bl	HAL_DMA_Abort
 982 004c 18B9     		cbnz	r0, .L106
 983              	.L99:
 984 004e 2046     		mov	r0, r4
 985 0050 FFF7FEFF 		bl	UART_EndTxTransfer
 986 0054 E1E7     		b	.L97
 987              	.L106:
 988 0056 E06F     		ldr	r0, [r4, #124]
 989 0058 FFF7FEFF 		bl	HAL_DMA_GetError
 990 005c 2028     		cmp	r0, #32
 991 005e F6D1     		bne	.L99
 992 0060 1023     		movs	r3, #16
 993 0062 C4F89030 		str	r3, [r4, #144]
 994 0066 0320     		movs	r0, #3
 995 0068 22E0     		b	.L100
 996              	.L101:
ARM GAS  C:\Users\Nathan\AppData\Local\Temp\ccuUV3Of.s 			page 18


 997 006a 2268     		ldr	r2, [r4]
 998 006c 02F10803 		add	r3, r2, #8
 999              		.syntax unified
 1000              	@ 1155 "Drivers/CMSIS/Include/cmsis_gcc.h" 1
 1001 0070 53E8003F 		ldrex r3, [r3]
 1002              	@ 0 "" 2
 1003              		.thumb
 1004              		.syntax unified
 1005 0074 23F04003 		bic	r3, r3, #64
 1006 0078 0832     		adds	r2, r2, #8
 1007              		.syntax unified
 1008              	@ 1206 "Drivers/CMSIS/Include/cmsis_gcc.h" 1
 1009 007a 42E80031 		strex r1, r3, [r2]
 1010              	@ 0 "" 2
 1011              		.thumb
 1012              		.syntax unified
 1013 007e 0029     		cmp	r1, #0
 1014 0080 F3D1     		bne	.L101
 1015 0082 D4F88000 		ldr	r0, [r4, #128]
 1016 0086 10B1     		cbz	r0, .L102
 1017 0088 FFF7FEFF 		bl	HAL_DMA_Abort
 1018 008c 20B9     		cbnz	r0, .L107
 1019              	.L102:
 1020 008e 2046     		mov	r0, r4
 1021 0090 FFF7FEFF 		bl	UART_EndRxTransfer
 1022 0094 0020     		movs	r0, #0
 1023 0096 0BE0     		b	.L100
 1024              	.L107:
 1025 0098 D4F88000 		ldr	r0, [r4, #128]
 1026 009c FFF7FEFF 		bl	HAL_DMA_GetError
 1027 00a0 2028     		cmp	r0, #32
 1028 00a2 F4D1     		bne	.L102
 1029 00a4 1023     		movs	r3, #16
 1030 00a6 C4F89030 		str	r3, [r4, #144]
 1031 00aa 0320     		movs	r0, #3
 1032 00ac 00E0     		b	.L100
 1033              	.L103:
 1034 00ae 0020     		movs	r0, #0
 1035              	.L100:
 1036 00b0 38BD     		pop	{r3, r4, r5, pc}
 1038              		.section	.text.HAL_UART_Abort,"ax",%progbits
 1039              		.align	1
 1040              		.global	HAL_UART_Abort
 1041              		.syntax unified
 1042              		.thumb
 1043              		.thumb_func
 1045              	HAL_UART_Abort:
 1046              		@ args = 0, pretend = 0, frame = 0
 1047              		@ frame_needed = 0, uses_anonymous_args = 0
 1048 0000 10B5     		push	{r4, lr}
 1049 0002 0446     		mov	r4, r0
 1050              	.L109:
 1051 0004 2268     		ldr	r2, [r4]
 1052              		.syntax unified
 1053              	@ 1155 "Drivers/CMSIS/Include/cmsis_gcc.h" 1
 1054 0006 52E8003F 		ldrex r3, [r2]
 1055              	@ 0 "" 2
ARM GAS  C:\Users\Nathan\AppData\Local\Temp\ccuUV3Of.s 			page 19


 1056              		.thumb
 1057              		.syntax unified
 1058 000a 23F4F073 		bic	r3, r3, #480
 1059              		.syntax unified
 1060              	@ 1206 "Drivers/CMSIS/Include/cmsis_gcc.h" 1
 1061 000e 42E80031 		strex r1, r3, [r2]
 1062              	@ 0 "" 2
 1063              		.thumb
 1064              		.syntax unified
 1065 0012 0029     		cmp	r1, #0
 1066 0014 F6D1     		bne	.L109
 1067              	.L110:
 1068 0016 2268     		ldr	r2, [r4]
 1069 0018 02F10803 		add	r3, r2, #8
 1070              		.syntax unified
 1071              	@ 1155 "Drivers/CMSIS/Include/cmsis_gcc.h" 1
 1072 001c 53E8003F 		ldrex r3, [r3]
 1073              	@ 0 "" 2
 1074              		.thumb
 1075              		.syntax unified
 1076 0020 23F08453 		bic	r3, r3, #276824064
 1077 0024 23F00103 		bic	r3, r3, #1
 1078 0028 0832     		adds	r2, r2, #8
 1079              		.syntax unified
 1080              	@ 1206 "Drivers/CMSIS/Include/cmsis_gcc.h" 1
 1081 002a 42E80031 		strex r1, r3, [r2]
 1082              	@ 0 "" 2
 1083              		.thumb
 1084              		.syntax unified
 1085 002e 0029     		cmp	r1, #0
 1086 0030 F1D1     		bne	.L110
 1087 0032 E36E     		ldr	r3, [r4, #108]
 1088 0034 012B     		cmp	r3, #1
 1089 0036 4FD0     		beq	.L112
 1090              	.L111:
 1091 0038 2368     		ldr	r3, [r4]
 1092 003a 9B68     		ldr	r3, [r3, #8]
 1093 003c 13F0800F 		tst	r3, #128
 1094 0040 14D0     		beq	.L113
 1095              	.L114:
 1096 0042 2268     		ldr	r2, [r4]
 1097 0044 02F10803 		add	r3, r2, #8
 1098              		.syntax unified
 1099              	@ 1155 "Drivers/CMSIS/Include/cmsis_gcc.h" 1
 1100 0048 53E8003F 		ldrex r3, [r3]
 1101              	@ 0 "" 2
 1102              		.thumb
 1103              		.syntax unified
 1104 004c 23F08003 		bic	r3, r3, #128
 1105 0050 0832     		adds	r2, r2, #8
 1106              		.syntax unified
 1107              	@ 1206 "Drivers/CMSIS/Include/cmsis_gcc.h" 1
 1108 0052 42E80031 		strex r1, r3, [r2]
 1109              	@ 0 "" 2
 1110              		.thumb
 1111              		.syntax unified
 1112 0056 0029     		cmp	r1, #0
ARM GAS  C:\Users\Nathan\AppData\Local\Temp\ccuUV3Of.s 			page 20


 1113 0058 F3D1     		bne	.L114
 1114 005a E36F     		ldr	r3, [r4, #124]
 1115 005c 33B1     		cbz	r3, .L113
 1116 005e 0022     		movs	r2, #0
 1117 0060 9A63     		str	r2, [r3, #56]
 1118 0062 E06F     		ldr	r0, [r4, #124]
 1119 0064 FFF7FEFF 		bl	HAL_DMA_Abort
 1120 0068 0028     		cmp	r0, #0
 1121 006a 3FD1     		bne	.L120
 1122              	.L113:
 1123 006c 2368     		ldr	r3, [r4]
 1124 006e 9B68     		ldr	r3, [r3, #8]
 1125 0070 13F0400F 		tst	r3, #64
 1126 0074 15D0     		beq	.L116
 1127              	.L117:
 1128 0076 2268     		ldr	r2, [r4]
 1129 0078 02F10803 		add	r3, r2, #8
 1130              		.syntax unified
 1131              	@ 1155 "Drivers/CMSIS/Include/cmsis_gcc.h" 1
 1132 007c 53E8003F 		ldrex r3, [r3]
 1133              	@ 0 "" 2
 1134              		.thumb
 1135              		.syntax unified
 1136 0080 23F04003 		bic	r3, r3, #64
 1137 0084 0832     		adds	r2, r2, #8
 1138              		.syntax unified
 1139              	@ 1206 "Drivers/CMSIS/Include/cmsis_gcc.h" 1
 1140 0086 42E80031 		strex r1, r3, [r2]
 1141              	@ 0 "" 2
 1142              		.thumb
 1143              		.syntax unified
 1144 008a 0029     		cmp	r1, #0
 1145 008c F3D1     		bne	.L117
 1146 008e D4F88030 		ldr	r3, [r4, #128]
 1147 0092 33B1     		cbz	r3, .L116
 1148 0094 0022     		movs	r2, #0
 1149 0096 9A63     		str	r2, [r3, #56]
 1150 0098 D4F88000 		ldr	r0, [r4, #128]
 1151 009c FFF7FEFF 		bl	HAL_DMA_Abort
 1152 00a0 70BB     		cbnz	r0, .L121
 1153              	.L116:
 1154 00a2 0023     		movs	r3, #0
 1155 00a4 A4F85630 		strh	r3, [r4, #86]	@ movhi
 1156 00a8 A4F85E30 		strh	r3, [r4, #94]	@ movhi
 1157 00ac 2368     		ldr	r3, [r4]
 1158 00ae 0F22     		movs	r2, #15
 1159 00b0 1A62     		str	r2, [r3, #32]
 1160 00b2 636E     		ldr	r3, [r4, #100]
 1161 00b4 B3F1005F 		cmp	r3, #536870912
 1162 00b8 2DD0     		beq	.L122
 1163              	.L118:
 1164 00ba 2268     		ldr	r2, [r4]
 1165 00bc 9369     		ldr	r3, [r2, #24]
 1166 00be 43F00803 		orr	r3, r3, #8
 1167 00c2 9361     		str	r3, [r2, #24]
 1168 00c4 2023     		movs	r3, #32
 1169 00c6 C4F88830 		str	r3, [r4, #136]
ARM GAS  C:\Users\Nathan\AppData\Local\Temp\ccuUV3Of.s 			page 21


 1170 00ca C4F88C30 		str	r3, [r4, #140]
 1171 00ce 0020     		movs	r0, #0
 1172 00d0 E066     		str	r0, [r4, #108]
 1173 00d2 C4F89000 		str	r0, [r4, #144]
 1174              	.L115:
 1175 00d6 10BD     		pop	{r4, pc}
 1176              	.L112:
 1177 00d8 2268     		ldr	r2, [r4]
 1178              		.syntax unified
 1179              	@ 1155 "Drivers/CMSIS/Include/cmsis_gcc.h" 1
 1180 00da 52E8003F 		ldrex r3, [r2]
 1181              	@ 0 "" 2
 1182              		.thumb
 1183              		.syntax unified
 1184 00de 23F01003 		bic	r3, r3, #16
 1185              		.syntax unified
 1186              	@ 1206 "Drivers/CMSIS/Include/cmsis_gcc.h" 1
 1187 00e2 42E80031 		strex r1, r3, [r2]
 1188              	@ 0 "" 2
 1189              		.thumb
 1190              		.syntax unified
 1191 00e6 0029     		cmp	r1, #0
 1192 00e8 F6D1     		bne	.L112
 1193 00ea A5E7     		b	.L111
 1194              	.L120:
 1195 00ec E06F     		ldr	r0, [r4, #124]
 1196 00ee FFF7FEFF 		bl	HAL_DMA_GetError
 1197 00f2 2028     		cmp	r0, #32
 1198 00f4 BAD1     		bne	.L113
 1199 00f6 1023     		movs	r3, #16
 1200 00f8 C4F89030 		str	r3, [r4, #144]
 1201 00fc 0320     		movs	r0, #3
 1202 00fe EAE7     		b	.L115
 1203              	.L121:
 1204 0100 D4F88000 		ldr	r0, [r4, #128]
 1205 0104 FFF7FEFF 		bl	HAL_DMA_GetError
 1206 0108 2028     		cmp	r0, #32
 1207 010a CAD1     		bne	.L116
 1208 010c 1023     		movs	r3, #16
 1209 010e C4F89030 		str	r3, [r4, #144]
 1210 0112 0320     		movs	r0, #3
 1211 0114 DFE7     		b	.L115
 1212              	.L122:
 1213 0116 2268     		ldr	r2, [r4]
 1214 0118 9369     		ldr	r3, [r2, #24]
 1215 011a 43F01003 		orr	r3, r3, #16
 1216 011e 9361     		str	r3, [r2, #24]
 1217 0120 CBE7     		b	.L118
 1219              		.section	.text.HAL_UART_AbortTransmit,"ax",%progbits
 1220              		.align	1
 1221              		.global	HAL_UART_AbortTransmit
 1222              		.syntax unified
 1223              		.thumb
 1224              		.thumb_func
 1226              	HAL_UART_AbortTransmit:
 1227              		@ args = 0, pretend = 0, frame = 0
 1228              		@ frame_needed = 0, uses_anonymous_args = 0
ARM GAS  C:\Users\Nathan\AppData\Local\Temp\ccuUV3Of.s 			page 22


 1229 0000 10B5     		push	{r4, lr}
 1230 0002 0446     		mov	r4, r0
 1231              	.L124:
 1232 0004 2268     		ldr	r2, [r4]
 1233              		.syntax unified
 1234              	@ 1155 "Drivers/CMSIS/Include/cmsis_gcc.h" 1
 1235 0006 52E8003F 		ldrex r3, [r2]
 1236              	@ 0 "" 2
 1237              		.thumb
 1238              		.syntax unified
 1239 000a 23F0C003 		bic	r3, r3, #192
 1240              		.syntax unified
 1241              	@ 1206 "Drivers/CMSIS/Include/cmsis_gcc.h" 1
 1242 000e 42E80031 		strex r1, r3, [r2]
 1243              	@ 0 "" 2
 1244              		.thumb
 1245              		.syntax unified
 1246 0012 0029     		cmp	r1, #0
 1247 0014 F6D1     		bne	.L124
 1248              	.L125:
 1249 0016 2268     		ldr	r2, [r4]
 1250 0018 02F10803 		add	r3, r2, #8
 1251              		.syntax unified
 1252              	@ 1155 "Drivers/CMSIS/Include/cmsis_gcc.h" 1
 1253 001c 53E8003F 		ldrex r3, [r3]
 1254              	@ 0 "" 2
 1255              		.thumb
 1256              		.syntax unified
 1257 0020 23F40003 		bic	r3, r3, #8388608
 1258 0024 0832     		adds	r2, r2, #8
 1259              		.syntax unified
 1260              	@ 1206 "Drivers/CMSIS/Include/cmsis_gcc.h" 1
 1261 0026 42E80031 		strex r1, r3, [r2]
 1262              	@ 0 "" 2
 1263              		.thumb
 1264              		.syntax unified
 1265 002a 0029     		cmp	r1, #0
 1266 002c F3D1     		bne	.L125
 1267 002e 2368     		ldr	r3, [r4]
 1268 0030 9B68     		ldr	r3, [r3, #8]
 1269 0032 13F0800F 		tst	r3, #128
 1270 0036 13D0     		beq	.L126
 1271              	.L127:
 1272 0038 2268     		ldr	r2, [r4]
 1273 003a 02F10803 		add	r3, r2, #8
 1274              		.syntax unified
 1275              	@ 1155 "Drivers/CMSIS/Include/cmsis_gcc.h" 1
 1276 003e 53E8003F 		ldrex r3, [r3]
 1277              	@ 0 "" 2
 1278              		.thumb
 1279              		.syntax unified
 1280 0042 23F08003 		bic	r3, r3, #128
 1281 0046 0832     		adds	r2, r2, #8
 1282              		.syntax unified
 1283              	@ 1206 "Drivers/CMSIS/Include/cmsis_gcc.h" 1
 1284 0048 42E80031 		strex r1, r3, [r2]
 1285              	@ 0 "" 2
ARM GAS  C:\Users\Nathan\AppData\Local\Temp\ccuUV3Of.s 			page 23


 1286              		.thumb
 1287              		.syntax unified
 1288 004c 0029     		cmp	r1, #0
 1289 004e F3D1     		bne	.L127
 1290 0050 E36F     		ldr	r3, [r4, #124]
 1291 0052 2BB1     		cbz	r3, .L126
 1292 0054 0022     		movs	r2, #0
 1293 0056 9A63     		str	r2, [r3, #56]
 1294 0058 E06F     		ldr	r0, [r4, #124]
 1295 005a FFF7FEFF 		bl	HAL_DMA_Abort
 1296 005e 58B9     		cbnz	r0, .L131
 1297              	.L126:
 1298 0060 0023     		movs	r3, #0
 1299 0062 A4F85630 		strh	r3, [r4, #86]	@ movhi
 1300 0066 636E     		ldr	r3, [r4, #100]
 1301 0068 B3F1005F 		cmp	r3, #536870912
 1302 006c 0ED0     		beq	.L132
 1303              	.L129:
 1304 006e 2023     		movs	r3, #32
 1305 0070 C4F88830 		str	r3, [r4, #136]
 1306 0074 0020     		movs	r0, #0
 1307              	.L128:
 1308 0076 10BD     		pop	{r4, pc}
 1309              	.L131:
 1310 0078 E06F     		ldr	r0, [r4, #124]
 1311 007a FFF7FEFF 		bl	HAL_DMA_GetError
 1312 007e 2028     		cmp	r0, #32
 1313 0080 EED1     		bne	.L126
 1314 0082 1023     		movs	r3, #16
 1315 0084 C4F89030 		str	r3, [r4, #144]
 1316 0088 0320     		movs	r0, #3
 1317 008a F4E7     		b	.L128
 1318              	.L132:
 1319 008c 2268     		ldr	r2, [r4]
 1320 008e 9369     		ldr	r3, [r2, #24]
 1321 0090 43F01003 		orr	r3, r3, #16
 1322 0094 9361     		str	r3, [r2, #24]
 1323 0096 EAE7     		b	.L129
 1325              		.section	.text.HAL_UART_AbortReceive,"ax",%progbits
 1326              		.align	1
 1327              		.global	HAL_UART_AbortReceive
 1328              		.syntax unified
 1329              		.thumb
 1330              		.thumb_func
 1332              	HAL_UART_AbortReceive:
 1333              		@ args = 0, pretend = 0, frame = 0
 1334              		@ frame_needed = 0, uses_anonymous_args = 0
 1335 0000 10B5     		push	{r4, lr}
 1336 0002 0446     		mov	r4, r0
 1337              	.L134:
 1338 0004 2268     		ldr	r2, [r4]
 1339              		.syntax unified
 1340              	@ 1155 "Drivers/CMSIS/Include/cmsis_gcc.h" 1
 1341 0006 52E8003F 		ldrex r3, [r2]
 1342              	@ 0 "" 2
 1343              		.thumb
 1344              		.syntax unified
ARM GAS  C:\Users\Nathan\AppData\Local\Temp\ccuUV3Of.s 			page 24


 1345 000a 23F49073 		bic	r3, r3, #288
 1346              		.syntax unified
 1347              	@ 1206 "Drivers/CMSIS/Include/cmsis_gcc.h" 1
 1348 000e 42E80031 		strex r1, r3, [r2]
 1349              	@ 0 "" 2
 1350              		.thumb
 1351              		.syntax unified
 1352 0012 0029     		cmp	r1, #0
 1353 0014 F6D1     		bne	.L134
 1354              	.L135:
 1355 0016 2268     		ldr	r2, [r4]
 1356 0018 02F10803 		add	r3, r2, #8
 1357              		.syntax unified
 1358              	@ 1155 "Drivers/CMSIS/Include/cmsis_gcc.h" 1
 1359 001c 53E8003F 		ldrex r3, [r3]
 1360              	@ 0 "" 2
 1361              		.thumb
 1362              		.syntax unified
 1363 0020 23F08053 		bic	r3, r3, #268435456
 1364 0024 23F00103 		bic	r3, r3, #1
 1365 0028 0832     		adds	r2, r2, #8
 1366              		.syntax unified
 1367              	@ 1206 "Drivers/CMSIS/Include/cmsis_gcc.h" 1
 1368 002a 42E80031 		strex r1, r3, [r2]
 1369              	@ 0 "" 2
 1370              		.thumb
 1371              		.syntax unified
 1372 002e 0029     		cmp	r1, #0
 1373 0030 F1D1     		bne	.L135
 1374 0032 E36E     		ldr	r3, [r4, #108]
 1375 0034 012B     		cmp	r3, #1
 1376 0036 2AD0     		beq	.L137
 1377              	.L136:
 1378 0038 2368     		ldr	r3, [r4]
 1379 003a 9B68     		ldr	r3, [r3, #8]
 1380 003c 13F0400F 		tst	r3, #64
 1381 0040 15D0     		beq	.L138
 1382              	.L139:
 1383 0042 2268     		ldr	r2, [r4]
 1384 0044 02F10803 		add	r3, r2, #8
 1385              		.syntax unified
 1386              	@ 1155 "Drivers/CMSIS/Include/cmsis_gcc.h" 1
 1387 0048 53E8003F 		ldrex r3, [r3]
 1388              	@ 0 "" 2
 1389              		.thumb
 1390              		.syntax unified
 1391 004c 23F04003 		bic	r3, r3, #64
 1392 0050 0832     		adds	r2, r2, #8
 1393              		.syntax unified
 1394              	@ 1206 "Drivers/CMSIS/Include/cmsis_gcc.h" 1
 1395 0052 42E80031 		strex r1, r3, [r2]
 1396              	@ 0 "" 2
 1397              		.thumb
 1398              		.syntax unified
 1399 0056 0029     		cmp	r1, #0
 1400 0058 F3D1     		bne	.L139
 1401 005a D4F88030 		ldr	r3, [r4, #128]
ARM GAS  C:\Users\Nathan\AppData\Local\Temp\ccuUV3Of.s 			page 25


 1402 005e 33B1     		cbz	r3, .L138
 1403 0060 0022     		movs	r2, #0
 1404 0062 9A63     		str	r2, [r3, #56]
 1405 0064 D4F88000 		ldr	r0, [r4, #128]
 1406 0068 FFF7FEFF 		bl	HAL_DMA_Abort
 1407 006c C8B9     		cbnz	r0, .L142
 1408              	.L138:
 1409 006e 0020     		movs	r0, #0
 1410 0070 A4F85E00 		strh	r0, [r4, #94]	@ movhi
 1411 0074 2368     		ldr	r3, [r4]
 1412 0076 0F22     		movs	r2, #15
 1413 0078 1A62     		str	r2, [r3, #32]
 1414 007a 2268     		ldr	r2, [r4]
 1415 007c 9369     		ldr	r3, [r2, #24]
 1416 007e 43F00803 		orr	r3, r3, #8
 1417 0082 9361     		str	r3, [r2, #24]
 1418 0084 2023     		movs	r3, #32
 1419 0086 C4F88C30 		str	r3, [r4, #140]
 1420 008a E066     		str	r0, [r4, #108]
 1421              	.L140:
 1422 008c 10BD     		pop	{r4, pc}
 1423              	.L137:
 1424 008e 2268     		ldr	r2, [r4]
 1425              		.syntax unified
 1426              	@ 1155 "Drivers/CMSIS/Include/cmsis_gcc.h" 1
 1427 0090 52E8003F 		ldrex r3, [r2]
 1428              	@ 0 "" 2
 1429              		.thumb
 1430              		.syntax unified
 1431 0094 23F01003 		bic	r3, r3, #16
 1432              		.syntax unified
 1433              	@ 1206 "Drivers/CMSIS/Include/cmsis_gcc.h" 1
 1434 0098 42E80031 		strex r1, r3, [r2]
 1435              	@ 0 "" 2
 1436              		.thumb
 1437              		.syntax unified
 1438 009c 0029     		cmp	r1, #0
 1439 009e F6D1     		bne	.L137
 1440 00a0 CAE7     		b	.L136
 1441              	.L142:
 1442 00a2 D4F88000 		ldr	r0, [r4, #128]
 1443 00a6 FFF7FEFF 		bl	HAL_DMA_GetError
 1444 00aa 2028     		cmp	r0, #32
 1445 00ac DFD1     		bne	.L138
 1446 00ae 1023     		movs	r3, #16
 1447 00b0 C4F89030 		str	r3, [r4, #144]
 1448 00b4 0320     		movs	r0, #3
 1449 00b6 E9E7     		b	.L140
 1451              		.section	.text.HAL_UART_TxCpltCallback,"ax",%progbits
 1452              		.align	1
 1453              		.weak	HAL_UART_TxCpltCallback
 1454              		.syntax unified
 1455              		.thumb
 1456              		.thumb_func
 1458              	HAL_UART_TxCpltCallback:
 1459              		@ args = 0, pretend = 0, frame = 0
 1460              		@ frame_needed = 0, uses_anonymous_args = 0
ARM GAS  C:\Users\Nathan\AppData\Local\Temp\ccuUV3Of.s 			page 26


 1461              		@ link register save eliminated.
 1462 0000 7047     		bx	lr
 1464              		.section	.text.UART_DMATransmitCplt,"ax",%progbits
 1465              		.align	1
 1466              		.syntax unified
 1467              		.thumb
 1468              		.thumb_func
 1470              	UART_DMATransmitCplt:
 1471              		@ args = 0, pretend = 0, frame = 0
 1472              		@ frame_needed = 0, uses_anonymous_args = 0
 1473 0000 08B5     		push	{r3, lr}
 1474 0002 0346     		mov	r3, r0
 1475 0004 806A     		ldr	r0, [r0, #40]
 1476 0006 1B68     		ldr	r3, [r3]
 1477 0008 1B68     		ldr	r3, [r3]
 1478 000a 13F0200F 		tst	r3, #32
 1479 000e 18D1     		bne	.L145
 1480 0010 0023     		movs	r3, #0
 1481 0012 A0F85630 		strh	r3, [r0, #86]	@ movhi
 1482              	.L146:
 1483 0016 0268     		ldr	r2, [r0]
 1484 0018 02F10803 		add	r3, r2, #8
 1485              		.syntax unified
 1486              	@ 1155 "Drivers/CMSIS/Include/cmsis_gcc.h" 1
 1487 001c 53E8003F 		ldrex r3, [r3]
 1488              	@ 0 "" 2
 1489              		.thumb
 1490              		.syntax unified
 1491 0020 23F08003 		bic	r3, r3, #128
 1492 0024 0832     		adds	r2, r2, #8
 1493              		.syntax unified
 1494              	@ 1206 "Drivers/CMSIS/Include/cmsis_gcc.h" 1
 1495 0026 42E80031 		strex r1, r3, [r2]
 1496              	@ 0 "" 2
 1497              		.thumb
 1498              		.syntax unified
 1499 002a 0029     		cmp	r1, #0
 1500 002c F3D1     		bne	.L146
 1501              	.L147:
 1502 002e 0268     		ldr	r2, [r0]
 1503              		.syntax unified
 1504              	@ 1155 "Drivers/CMSIS/Include/cmsis_gcc.h" 1
 1505 0030 52E8003F 		ldrex r3, [r2]
 1506              	@ 0 "" 2
 1507              		.thumb
 1508              		.syntax unified
 1509 0034 43F04003 		orr	r3, r3, #64
 1510              		.syntax unified
 1511              	@ 1206 "Drivers/CMSIS/Include/cmsis_gcc.h" 1
 1512 0038 42E80031 		strex r1, r3, [r2]
 1513              	@ 0 "" 2
 1514              		.thumb
 1515              		.syntax unified
 1516 003c 0029     		cmp	r1, #0
 1517 003e F6D1     		bne	.L147
 1518              	.L144:
 1519 0040 08BD     		pop	{r3, pc}
ARM GAS  C:\Users\Nathan\AppData\Local\Temp\ccuUV3Of.s 			page 27


 1520              	.L145:
 1521 0042 FFF7FEFF 		bl	HAL_UART_TxCpltCallback
 1522 0046 FBE7     		b	.L144
 1524              		.section	.text.UART_EndTransmit_IT,"ax",%progbits
 1525              		.align	1
 1526              		.syntax unified
 1527              		.thumb
 1528              		.thumb_func
 1530              	UART_EndTransmit_IT:
 1531              		@ args = 0, pretend = 0, frame = 0
 1532              		@ frame_needed = 0, uses_anonymous_args = 0
 1533 0000 08B5     		push	{r3, lr}
 1534              	.L151:
 1535 0002 0268     		ldr	r2, [r0]
 1536              		.syntax unified
 1537              	@ 1155 "Drivers/CMSIS/Include/cmsis_gcc.h" 1
 1538 0004 52E8003F 		ldrex r3, [r2]
 1539              	@ 0 "" 2
 1540              		.thumb
 1541              		.syntax unified
 1542 0008 23F04003 		bic	r3, r3, #64
 1543              		.syntax unified
 1544              	@ 1206 "Drivers/CMSIS/Include/cmsis_gcc.h" 1
 1545 000c 42E80031 		strex r1, r3, [r2]
 1546              	@ 0 "" 2
 1547              		.thumb
 1548              		.syntax unified
 1549 0010 0029     		cmp	r1, #0
 1550 0012 F6D1     		bne	.L151
 1551 0014 2023     		movs	r3, #32
 1552 0016 C0F88830 		str	r3, [r0, #136]
 1553 001a 0023     		movs	r3, #0
 1554 001c 8367     		str	r3, [r0, #120]
 1555 001e FFF7FEFF 		bl	HAL_UART_TxCpltCallback
 1556 0022 08BD     		pop	{r3, pc}
 1558              		.section	.text.HAL_UART_TxHalfCpltCallback,"ax",%progbits
 1559              		.align	1
 1560              		.weak	HAL_UART_TxHalfCpltCallback
 1561              		.syntax unified
 1562              		.thumb
 1563              		.thumb_func
 1565              	HAL_UART_TxHalfCpltCallback:
 1566              		@ args = 0, pretend = 0, frame = 0
 1567              		@ frame_needed = 0, uses_anonymous_args = 0
 1568              		@ link register save eliminated.
 1569 0000 7047     		bx	lr
 1571              		.section	.text.UART_DMATxHalfCplt,"ax",%progbits
 1572              		.align	1
 1573              		.syntax unified
 1574              		.thumb
 1575              		.thumb_func
 1577              	UART_DMATxHalfCplt:
 1578              		@ args = 0, pretend = 0, frame = 0
 1579              		@ frame_needed = 0, uses_anonymous_args = 0
 1580 0000 08B5     		push	{r3, lr}
 1581 0002 806A     		ldr	r0, [r0, #40]
 1582 0004 FFF7FEFF 		bl	HAL_UART_TxHalfCpltCallback
ARM GAS  C:\Users\Nathan\AppData\Local\Temp\ccuUV3Of.s 			page 28


 1583 0008 08BD     		pop	{r3, pc}
 1585              		.section	.text.HAL_UART_RxCpltCallback,"ax",%progbits
 1586              		.align	1
 1587              		.weak	HAL_UART_RxCpltCallback
 1588              		.syntax unified
 1589              		.thumb
 1590              		.thumb_func
 1592              	HAL_UART_RxCpltCallback:
 1593              		@ args = 0, pretend = 0, frame = 0
 1594              		@ frame_needed = 0, uses_anonymous_args = 0
 1595              		@ link register save eliminated.
 1596 0000 7047     		bx	lr
 1598              		.section	.text.HAL_UART_RxHalfCpltCallback,"ax",%progbits
 1599              		.align	1
 1600              		.weak	HAL_UART_RxHalfCpltCallback
 1601              		.syntax unified
 1602              		.thumb
 1603              		.thumb_func
 1605              	HAL_UART_RxHalfCpltCallback:
 1606              		@ args = 0, pretend = 0, frame = 0
 1607              		@ frame_needed = 0, uses_anonymous_args = 0
 1608              		@ link register save eliminated.
 1609 0000 7047     		bx	lr
 1611              		.section	.text.HAL_UART_ErrorCallback,"ax",%progbits
 1612              		.align	1
 1613              		.weak	HAL_UART_ErrorCallback
 1614              		.syntax unified
 1615              		.thumb
 1616              		.thumb_func
 1618              	HAL_UART_ErrorCallback:
 1619              		@ args = 0, pretend = 0, frame = 0
 1620              		@ frame_needed = 0, uses_anonymous_args = 0
 1621              		@ link register save eliminated.
 1622 0000 7047     		bx	lr
 1624              		.section	.text.UART_DMAError,"ax",%progbits
 1625              		.align	1
 1626              		.syntax unified
 1627              		.thumb
 1628              		.thumb_func
 1630              	UART_DMAError:
 1631              		@ args = 0, pretend = 0, frame = 0
 1632              		@ frame_needed = 0, uses_anonymous_args = 0
 1633 0000 38B5     		push	{r3, r4, r5, lr}
 1634 0002 846A     		ldr	r4, [r0, #40]
 1635 0004 D4F88820 		ldr	r2, [r4, #136]
 1636 0008 D4F88C50 		ldr	r5, [r4, #140]
 1637 000c 2368     		ldr	r3, [r4]
 1638 000e 9B68     		ldr	r3, [r3, #8]
 1639 0010 13F0800F 		tst	r3, #128
 1640 0014 01D0     		beq	.L160
 1641 0016 212A     		cmp	r2, #33
 1642 0018 10D0     		beq	.L163
 1643              	.L160:
 1644 001a 2368     		ldr	r3, [r4]
 1645 001c 9B68     		ldr	r3, [r3, #8]
 1646 001e 13F0400F 		tst	r3, #64
 1647 0022 01D0     		beq	.L161
ARM GAS  C:\Users\Nathan\AppData\Local\Temp\ccuUV3Of.s 			page 29


 1648 0024 222D     		cmp	r5, #34
 1649 0026 10D0     		beq	.L164
 1650              	.L161:
 1651 0028 D4F89030 		ldr	r3, [r4, #144]
 1652 002c 43F01003 		orr	r3, r3, #16
 1653 0030 C4F89030 		str	r3, [r4, #144]
 1654 0034 2046     		mov	r0, r4
 1655 0036 FFF7FEFF 		bl	HAL_UART_ErrorCallback
 1656 003a 38BD     		pop	{r3, r4, r5, pc}
 1657              	.L163:
 1658 003c 0023     		movs	r3, #0
 1659 003e A4F85630 		strh	r3, [r4, #86]	@ movhi
 1660 0042 2046     		mov	r0, r4
 1661 0044 FFF7FEFF 		bl	UART_EndTxTransfer
 1662 0048 E7E7     		b	.L160
 1663              	.L164:
 1664 004a 0023     		movs	r3, #0
 1665 004c A4F85E30 		strh	r3, [r4, #94]	@ movhi
 1666 0050 2046     		mov	r0, r4
 1667 0052 FFF7FEFF 		bl	UART_EndRxTransfer
 1668 0056 E7E7     		b	.L161
 1670              		.section	.text.UART_DMAAbortOnError,"ax",%progbits
 1671              		.align	1
 1672              		.syntax unified
 1673              		.thumb
 1674              		.thumb_func
 1676              	UART_DMAAbortOnError:
 1677              		@ args = 0, pretend = 0, frame = 0
 1678              		@ frame_needed = 0, uses_anonymous_args = 0
 1679 0000 08B5     		push	{r3, lr}
 1680 0002 806A     		ldr	r0, [r0, #40]
 1681 0004 0023     		movs	r3, #0
 1682 0006 A0F85E30 		strh	r3, [r0, #94]	@ movhi
 1683 000a FFF7FEFF 		bl	HAL_UART_ErrorCallback
 1684 000e 08BD     		pop	{r3, pc}
 1686              		.section	.text.HAL_UART_AbortCpltCallback,"ax",%progbits
 1687              		.align	1
 1688              		.weak	HAL_UART_AbortCpltCallback
 1689              		.syntax unified
 1690              		.thumb
 1691              		.thumb_func
 1693              	HAL_UART_AbortCpltCallback:
 1694              		@ args = 0, pretend = 0, frame = 0
 1695              		@ frame_needed = 0, uses_anonymous_args = 0
 1696              		@ link register save eliminated.
 1697 0000 7047     		bx	lr
 1699              		.section	.text.HAL_UART_Abort_IT,"ax",%progbits
 1700              		.align	1
 1701              		.global	HAL_UART_Abort_IT
 1702              		.syntax unified
 1703              		.thumb
 1704              		.thumb_func
 1706              	HAL_UART_Abort_IT:
 1707              		@ args = 0, pretend = 0, frame = 0
 1708              		@ frame_needed = 0, uses_anonymous_args = 0
 1709 0000 38B5     		push	{r3, r4, r5, lr}
 1710 0002 0446     		mov	r4, r0
ARM GAS  C:\Users\Nathan\AppData\Local\Temp\ccuUV3Of.s 			page 30


 1711              	.L169:
 1712 0004 2268     		ldr	r2, [r4]
 1713              		.syntax unified
 1714              	@ 1155 "Drivers/CMSIS/Include/cmsis_gcc.h" 1
 1715 0006 52E8003F 		ldrex r3, [r2]
 1716              	@ 0 "" 2
 1717              		.thumb
 1718              		.syntax unified
 1719 000a 23F4F073 		bic	r3, r3, #480
 1720              		.syntax unified
 1721              	@ 1206 "Drivers/CMSIS/Include/cmsis_gcc.h" 1
 1722 000e 42E80031 		strex r1, r3, [r2]
 1723              	@ 0 "" 2
 1724              		.thumb
 1725              		.syntax unified
 1726 0012 0029     		cmp	r1, #0
 1727 0014 F6D1     		bne	.L169
 1728              	.L170:
 1729 0016 2268     		ldr	r2, [r4]
 1730 0018 02F10803 		add	r3, r2, #8
 1731              		.syntax unified
 1732              	@ 1155 "Drivers/CMSIS/Include/cmsis_gcc.h" 1
 1733 001c 53E8003F 		ldrex r3, [r3]
 1734              	@ 0 "" 2
 1735              		.thumb
 1736              		.syntax unified
 1737 0020 23F08453 		bic	r3, r3, #276824064
 1738 0024 23F00103 		bic	r3, r3, #1
 1739 0028 0832     		adds	r2, r2, #8
 1740              		.syntax unified
 1741              	@ 1206 "Drivers/CMSIS/Include/cmsis_gcc.h" 1
 1742 002a 42E80031 		strex r1, r3, [r2]
 1743              	@ 0 "" 2
 1744              		.thumb
 1745              		.syntax unified
 1746 002e 0029     		cmp	r1, #0
 1747 0030 F1D1     		bne	.L170
 1748 0032 E36E     		ldr	r3, [r4, #108]
 1749 0034 012B     		cmp	r3, #1
 1750 0036 2FD0     		beq	.L172
 1751              	.L171:
 1752 0038 E36F     		ldr	r3, [r4, #124]
 1753 003a 33B1     		cbz	r3, .L173
 1754 003c 2268     		ldr	r2, [r4]
 1755 003e 9268     		ldr	r2, [r2, #8]
 1756 0040 12F0800F 		tst	r2, #128
 1757 0044 32D0     		beq	.L174
 1758 0046 404A     		ldr	r2, .L188
 1759 0048 9A63     		str	r2, [r3, #56]
 1760              	.L173:
 1761 004a D4F88030 		ldr	r3, [r4, #128]
 1762 004e 33B1     		cbz	r3, .L175
 1763 0050 2268     		ldr	r2, [r4]
 1764 0052 9268     		ldr	r2, [r2, #8]
 1765 0054 12F0400F 		tst	r2, #64
 1766 0058 2BD0     		beq	.L176
 1767 005a 3C4A     		ldr	r2, .L188+4
ARM GAS  C:\Users\Nathan\AppData\Local\Temp\ccuUV3Of.s 			page 31


 1768 005c 9A63     		str	r2, [r3, #56]
 1769              	.L175:
 1770 005e 2368     		ldr	r3, [r4]
 1771 0060 9B68     		ldr	r3, [r3, #8]
 1772 0062 13F0800F 		tst	r3, #128
 1773 0066 27D0     		beq	.L184
 1774              	.L178:
 1775 0068 2168     		ldr	r1, [r4]
 1776 006a 01F10803 		add	r3, r1, #8
 1777              		.syntax unified
 1778              	@ 1155 "Drivers/CMSIS/Include/cmsis_gcc.h" 1
 1779 006e 53E8003F 		ldrex r3, [r3]
 1780              	@ 0 "" 2
 1781              		.thumb
 1782              		.syntax unified
 1783 0072 23F08003 		bic	r3, r3, #128
 1784 0076 0831     		adds	r1, r1, #8
 1785              		.syntax unified
 1786              	@ 1206 "Drivers/CMSIS/Include/cmsis_gcc.h" 1
 1787 0078 41E80032 		strex r2, r3, [r1]
 1788              	@ 0 "" 2
 1789              		.thumb
 1790              		.syntax unified
 1791 007c 1546     		mov	r5, r2
 1792 007e 002A     		cmp	r2, #0
 1793 0080 F2D1     		bne	.L178
 1794 0082 E06F     		ldr	r0, [r4, #124]
 1795 0084 0028     		cmp	r0, #0
 1796 0086 53D0     		beq	.L185
 1797 0088 FFF7FEFF 		bl	HAL_DMA_Abort_IT
 1798 008c A8B1     		cbz	r0, .L177
 1799 008e E36F     		ldr	r3, [r4, #124]
 1800 0090 0022     		movs	r2, #0
 1801 0092 9A63     		str	r2, [r3, #56]
 1802 0094 0125     		movs	r5, #1
 1803 0096 10E0     		b	.L177
 1804              	.L172:
 1805 0098 2268     		ldr	r2, [r4]
 1806              		.syntax unified
 1807              	@ 1155 "Drivers/CMSIS/Include/cmsis_gcc.h" 1
 1808 009a 52E8003F 		ldrex r3, [r2]
 1809              	@ 0 "" 2
 1810              		.thumb
 1811              		.syntax unified
 1812 009e 23F01003 		bic	r3, r3, #16
 1813              		.syntax unified
 1814              	@ 1206 "Drivers/CMSIS/Include/cmsis_gcc.h" 1
 1815 00a2 42E80031 		strex r1, r3, [r2]
 1816              	@ 0 "" 2
 1817              		.thumb
 1818              		.syntax unified
 1819 00a6 0029     		cmp	r1, #0
 1820 00a8 F6D1     		bne	.L172
 1821 00aa C5E7     		b	.L171
 1822              	.L174:
 1823 00ac 0022     		movs	r2, #0
 1824 00ae 9A63     		str	r2, [r3, #56]
ARM GAS  C:\Users\Nathan\AppData\Local\Temp\ccuUV3Of.s 			page 32


 1825 00b0 CBE7     		b	.L173
 1826              	.L176:
 1827 00b2 0022     		movs	r2, #0
 1828 00b4 9A63     		str	r2, [r3, #56]
 1829 00b6 D2E7     		b	.L175
 1830              	.L184:
 1831 00b8 0125     		movs	r5, #1
 1832              	.L177:
 1833 00ba 2368     		ldr	r3, [r4]
 1834 00bc 9B68     		ldr	r3, [r3, #8]
 1835 00be 13F0400F 		tst	r3, #64
 1836 00c2 37D0     		beq	.L179
 1837              	.L180:
 1838 00c4 2268     		ldr	r2, [r4]
 1839 00c6 02F10803 		add	r3, r2, #8
 1840              		.syntax unified
 1841              	@ 1155 "Drivers/CMSIS/Include/cmsis_gcc.h" 1
 1842 00ca 53E8003F 		ldrex r3, [r3]
 1843              	@ 0 "" 2
 1844              		.thumb
 1845              		.syntax unified
 1846 00ce 23F04003 		bic	r3, r3, #64
 1847 00d2 0832     		adds	r2, r2, #8
 1848              		.syntax unified
 1849              	@ 1206 "Drivers/CMSIS/Include/cmsis_gcc.h" 1
 1850 00d4 42E80031 		strex r1, r3, [r2]
 1851              	@ 0 "" 2
 1852              		.thumb
 1853              		.syntax unified
 1854 00d8 0029     		cmp	r1, #0
 1855 00da F3D1     		bne	.L180
 1856 00dc D4F88000 		ldr	r0, [r4, #128]
 1857 00e0 40B3     		cbz	r0, .L179
 1858 00e2 FFF7FEFF 		bl	HAL_DMA_Abort_IT
 1859 00e6 38B3     		cbz	r0, .L181
 1860 00e8 D4F88030 		ldr	r3, [r4, #128]
 1861 00ec 0022     		movs	r2, #0
 1862 00ee 9A63     		str	r2, [r3, #56]
 1863              	.L182:
 1864 00f0 0023     		movs	r3, #0
 1865 00f2 A4F85630 		strh	r3, [r4, #86]	@ movhi
 1866 00f6 A4F85E30 		strh	r3, [r4, #94]	@ movhi
 1867 00fa 6367     		str	r3, [r4, #116]
 1868 00fc A367     		str	r3, [r4, #120]
 1869 00fe C4F89030 		str	r3, [r4, #144]
 1870 0102 2368     		ldr	r3, [r4]
 1871 0104 0F22     		movs	r2, #15
 1872 0106 1A62     		str	r2, [r3, #32]
 1873 0108 636E     		ldr	r3, [r4, #100]
 1874 010a B3F1005F 		cmp	r3, #536870912
 1875 010e 15D0     		beq	.L187
 1876              	.L183:
 1877 0110 2268     		ldr	r2, [r4]
 1878 0112 9369     		ldr	r3, [r2, #24]
 1879 0114 43F00803 		orr	r3, r3, #8
 1880 0118 9361     		str	r3, [r2, #24]
 1881 011a 2023     		movs	r3, #32
ARM GAS  C:\Users\Nathan\AppData\Local\Temp\ccuUV3Of.s 			page 33


 1882 011c C4F88830 		str	r3, [r4, #136]
 1883 0120 C4F88C30 		str	r3, [r4, #140]
 1884 0124 0023     		movs	r3, #0
 1885 0126 E366     		str	r3, [r4, #108]
 1886 0128 2046     		mov	r0, r4
 1887 012a FFF7FEFF 		bl	HAL_UART_AbortCpltCallback
 1888 012e 03E0     		b	.L181
 1889              	.L185:
 1890 0130 0125     		movs	r5, #1
 1891 0132 C2E7     		b	.L177
 1892              	.L179:
 1893 0134 012D     		cmp	r5, #1
 1894 0136 DBD0     		beq	.L182
 1895              	.L181:
 1896 0138 0020     		movs	r0, #0
 1897 013a 38BD     		pop	{r3, r4, r5, pc}
 1898              	.L187:
 1899 013c 2268     		ldr	r2, [r4]
 1900 013e 9369     		ldr	r3, [r2, #24]
 1901 0140 43F01003 		orr	r3, r3, #16
 1902 0144 9361     		str	r3, [r2, #24]
 1903 0146 E3E7     		b	.L183
 1904              	.L189:
 1905              		.align	2
 1906              	.L188:
 1907 0148 00000000 		.word	UART_DMATxAbortCallback
 1908 014c 00000000 		.word	UART_DMARxAbortCallback
 1910              		.section	.text.UART_DMARxAbortCallback,"ax",%progbits
 1911              		.align	1
 1912              		.syntax unified
 1913              		.thumb
 1914              		.thumb_func
 1916              	UART_DMARxAbortCallback:
 1917              		@ args = 0, pretend = 0, frame = 0
 1918              		@ frame_needed = 0, uses_anonymous_args = 0
 1919 0000 08B5     		push	{r3, lr}
 1920 0002 806A     		ldr	r0, [r0, #40]
 1921 0004 D0F88030 		ldr	r3, [r0, #128]
 1922 0008 0022     		movs	r2, #0
 1923 000a 9A63     		str	r2, [r3, #56]
 1924 000c C36F     		ldr	r3, [r0, #124]
 1925 000e 0BB1     		cbz	r3, .L191
 1926 0010 9B6B     		ldr	r3, [r3, #56]
 1927 0012 B3B9     		cbnz	r3, .L190
 1928              	.L191:
 1929 0014 0023     		movs	r3, #0
 1930 0016 A0F85630 		strh	r3, [r0, #86]	@ movhi
 1931 001a A0F85E30 		strh	r3, [r0, #94]	@ movhi
 1932 001e C0F89030 		str	r3, [r0, #144]
 1933 0022 0268     		ldr	r2, [r0]
 1934 0024 0F21     		movs	r1, #15
 1935 0026 1162     		str	r1, [r2, #32]
 1936 0028 0168     		ldr	r1, [r0]
 1937 002a 8A69     		ldr	r2, [r1, #24]
 1938 002c 42F00802 		orr	r2, r2, #8
 1939 0030 8A61     		str	r2, [r1, #24]
 1940 0032 2022     		movs	r2, #32
ARM GAS  C:\Users\Nathan\AppData\Local\Temp\ccuUV3Of.s 			page 34


 1941 0034 C0F88820 		str	r2, [r0, #136]
 1942 0038 C0F88C20 		str	r2, [r0, #140]
 1943 003c C366     		str	r3, [r0, #108]
 1944 003e FFF7FEFF 		bl	HAL_UART_AbortCpltCallback
 1945              	.L190:
 1946 0042 08BD     		pop	{r3, pc}
 1948              		.section	.text.UART_DMATxAbortCallback,"ax",%progbits
 1949              		.align	1
 1950              		.syntax unified
 1951              		.thumb
 1952              		.thumb_func
 1954              	UART_DMATxAbortCallback:
 1955              		@ args = 0, pretend = 0, frame = 0
 1956              		@ frame_needed = 0, uses_anonymous_args = 0
 1957 0000 08B5     		push	{r3, lr}
 1958 0002 806A     		ldr	r0, [r0, #40]
 1959 0004 C36F     		ldr	r3, [r0, #124]
 1960 0006 0022     		movs	r2, #0
 1961 0008 9A63     		str	r2, [r3, #56]
 1962 000a D0F88030 		ldr	r3, [r0, #128]
 1963 000e 0BB1     		cbz	r3, .L195
 1964 0010 9B6B     		ldr	r3, [r3, #56]
 1965 0012 B3B9     		cbnz	r3, .L194
 1966              	.L195:
 1967 0014 0023     		movs	r3, #0
 1968 0016 A0F85630 		strh	r3, [r0, #86]	@ movhi
 1969 001a A0F85E30 		strh	r3, [r0, #94]	@ movhi
 1970 001e C0F89030 		str	r3, [r0, #144]
 1971 0022 0368     		ldr	r3, [r0]
 1972 0024 0F22     		movs	r2, #15
 1973 0026 1A62     		str	r2, [r3, #32]
 1974 0028 436E     		ldr	r3, [r0, #100]
 1975 002a B3F1005F 		cmp	r3, #536870912
 1976 002e 09D0     		beq	.L199
 1977              	.L197:
 1978 0030 2023     		movs	r3, #32
 1979 0032 C0F88830 		str	r3, [r0, #136]
 1980 0036 C0F88C30 		str	r3, [r0, #140]
 1981 003a 0023     		movs	r3, #0
 1982 003c C366     		str	r3, [r0, #108]
 1983 003e FFF7FEFF 		bl	HAL_UART_AbortCpltCallback
 1984              	.L194:
 1985 0042 08BD     		pop	{r3, pc}
 1986              	.L199:
 1987 0044 0268     		ldr	r2, [r0]
 1988 0046 9369     		ldr	r3, [r2, #24]
 1989 0048 43F01003 		orr	r3, r3, #16
 1990 004c 9361     		str	r3, [r2, #24]
 1991 004e EFE7     		b	.L197
 1993              		.section	.text.HAL_UART_AbortTransmitCpltCallback,"ax",%progbits
 1994              		.align	1
 1995              		.weak	HAL_UART_AbortTransmitCpltCallback
 1996              		.syntax unified
 1997              		.thumb
 1998              		.thumb_func
 2000              	HAL_UART_AbortTransmitCpltCallback:
 2001              		@ args = 0, pretend = 0, frame = 0
ARM GAS  C:\Users\Nathan\AppData\Local\Temp\ccuUV3Of.s 			page 35


 2002              		@ frame_needed = 0, uses_anonymous_args = 0
 2003              		@ link register save eliminated.
 2004 0000 7047     		bx	lr
 2006              		.section	.text.HAL_UART_AbortTransmit_IT,"ax",%progbits
 2007              		.align	1
 2008              		.global	HAL_UART_AbortTransmit_IT
 2009              		.syntax unified
 2010              		.thumb
 2011              		.thumb_func
 2013              	HAL_UART_AbortTransmit_IT:
 2014              		@ args = 0, pretend = 0, frame = 0
 2015              		@ frame_needed = 0, uses_anonymous_args = 0
 2016 0000 10B5     		push	{r4, lr}
 2017 0002 0446     		mov	r4, r0
 2018              	.L202:
 2019 0004 2268     		ldr	r2, [r4]
 2020              		.syntax unified
 2021              	@ 1155 "Drivers/CMSIS/Include/cmsis_gcc.h" 1
 2022 0006 52E8003F 		ldrex r3, [r2]
 2023              	@ 0 "" 2
 2024              		.thumb
 2025              		.syntax unified
 2026 000a 23F0C003 		bic	r3, r3, #192
 2027              		.syntax unified
 2028              	@ 1206 "Drivers/CMSIS/Include/cmsis_gcc.h" 1
 2029 000e 42E80031 		strex r1, r3, [r2]
 2030              	@ 0 "" 2
 2031              		.thumb
 2032              		.syntax unified
 2033 0012 0029     		cmp	r1, #0
 2034 0014 F6D1     		bne	.L202
 2035              	.L203:
 2036 0016 2268     		ldr	r2, [r4]
 2037 0018 02F10803 		add	r3, r2, #8
 2038              		.syntax unified
 2039              	@ 1155 "Drivers/CMSIS/Include/cmsis_gcc.h" 1
 2040 001c 53E8003F 		ldrex r3, [r3]
 2041              	@ 0 "" 2
 2042              		.thumb
 2043              		.syntax unified
 2044 0020 23F40003 		bic	r3, r3, #8388608
 2045 0024 0832     		adds	r2, r2, #8
 2046              		.syntax unified
 2047              	@ 1206 "Drivers/CMSIS/Include/cmsis_gcc.h" 1
 2048 0026 42E80031 		strex r1, r3, [r2]
 2049              	@ 0 "" 2
 2050              		.thumb
 2051              		.syntax unified
 2052 002a 0029     		cmp	r1, #0
 2053 002c F3D1     		bne	.L203
 2054 002e 2368     		ldr	r3, [r4]
 2055 0030 9A68     		ldr	r2, [r3, #8]
 2056 0032 12F0800F 		tst	r2, #128
 2057 0036 22D0     		beq	.L204
 2058              	.L205:
 2059 0038 2268     		ldr	r2, [r4]
 2060 003a 02F10803 		add	r3, r2, #8
ARM GAS  C:\Users\Nathan\AppData\Local\Temp\ccuUV3Of.s 			page 36


 2061              		.syntax unified
 2062              	@ 1155 "Drivers/CMSIS/Include/cmsis_gcc.h" 1
 2063 003e 53E8003F 		ldrex r3, [r3]
 2064              	@ 0 "" 2
 2065              		.thumb
 2066              		.syntax unified
 2067 0042 23F08003 		bic	r3, r3, #128
 2068 0046 0832     		adds	r2, r2, #8
 2069              		.syntax unified
 2070              	@ 1206 "Drivers/CMSIS/Include/cmsis_gcc.h" 1
 2071 0048 42E80031 		strex r1, r3, [r2]
 2072              	@ 0 "" 2
 2073              		.thumb
 2074              		.syntax unified
 2075 004c 0029     		cmp	r1, #0
 2076 004e F3D1     		bne	.L205
 2077 0050 E36F     		ldr	r3, [r4, #124]
 2078 0052 4BB1     		cbz	r3, .L206
 2079 0054 144A     		ldr	r2, .L211
 2080 0056 9A63     		str	r2, [r3, #56]
 2081 0058 E06F     		ldr	r0, [r4, #124]
 2082 005a FFF7FEFF 		bl	HAL_DMA_Abort_IT
 2083 005e E0B1     		cbz	r0, .L207
 2084 0060 E06F     		ldr	r0, [r4, #124]
 2085 0062 836B     		ldr	r3, [r0, #56]
 2086 0064 9847     		blx	r3
 2087 0066 18E0     		b	.L207
 2088              	.L206:
 2089 0068 0023     		movs	r3, #0
 2090 006a A4F85630 		strh	r3, [r4, #86]	@ movhi
 2091 006e A367     		str	r3, [r4, #120]
 2092 0070 2023     		movs	r3, #32
 2093 0072 C4F88830 		str	r3, [r4, #136]
 2094 0076 2046     		mov	r0, r4
 2095 0078 FFF7FEFF 		bl	HAL_UART_AbortTransmitCpltCallback
 2096 007c 0DE0     		b	.L207
 2097              	.L204:
 2098 007e 0022     		movs	r2, #0
 2099 0080 A4F85620 		strh	r2, [r4, #86]	@ movhi
 2100 0084 A267     		str	r2, [r4, #120]
 2101 0086 626E     		ldr	r2, [r4, #100]
 2102 0088 B2F1005F 		cmp	r2, #536870912
 2103 008c 07D0     		beq	.L210
 2104              	.L208:
 2105 008e 2023     		movs	r3, #32
 2106 0090 C4F88830 		str	r3, [r4, #136]
 2107 0094 2046     		mov	r0, r4
 2108 0096 FFF7FEFF 		bl	HAL_UART_AbortTransmitCpltCallback
 2109              	.L207:
 2110 009a 0020     		movs	r0, #0
 2111 009c 10BD     		pop	{r4, pc}
 2112              	.L210:
 2113 009e 9A69     		ldr	r2, [r3, #24]
 2114 00a0 42F01002 		orr	r2, r2, #16
 2115 00a4 9A61     		str	r2, [r3, #24]
 2116 00a6 F2E7     		b	.L208
 2117              	.L212:
ARM GAS  C:\Users\Nathan\AppData\Local\Temp\ccuUV3Of.s 			page 37


 2118              		.align	2
 2119              	.L211:
 2120 00a8 00000000 		.word	UART_DMATxOnlyAbortCallback
 2122              		.section	.text.UART_DMATxOnlyAbortCallback,"ax",%progbits
 2123              		.align	1
 2124              		.syntax unified
 2125              		.thumb
 2126              		.thumb_func
 2128              	UART_DMATxOnlyAbortCallback:
 2129              		@ args = 0, pretend = 0, frame = 0
 2130              		@ frame_needed = 0, uses_anonymous_args = 0
 2131 0000 08B5     		push	{r3, lr}
 2132 0002 806A     		ldr	r0, [r0, #40]
 2133 0004 0023     		movs	r3, #0
 2134 0006 A0F85630 		strh	r3, [r0, #86]	@ movhi
 2135 000a 436E     		ldr	r3, [r0, #100]
 2136 000c B3F1005F 		cmp	r3, #536870912
 2137 0010 05D0     		beq	.L216
 2138              	.L214:
 2139 0012 2023     		movs	r3, #32
 2140 0014 C0F88830 		str	r3, [r0, #136]
 2141 0018 FFF7FEFF 		bl	HAL_UART_AbortTransmitCpltCallback
 2142 001c 08BD     		pop	{r3, pc}
 2143              	.L216:
 2144 001e 0268     		ldr	r2, [r0]
 2145 0020 9369     		ldr	r3, [r2, #24]
 2146 0022 43F01003 		orr	r3, r3, #16
 2147 0026 9361     		str	r3, [r2, #24]
 2148 0028 F3E7     		b	.L214
 2150              		.section	.text.HAL_UART_AbortReceiveCpltCallback,"ax",%progbits
 2151              		.align	1
 2152              		.weak	HAL_UART_AbortReceiveCpltCallback
 2153              		.syntax unified
 2154              		.thumb
 2155              		.thumb_func
 2157              	HAL_UART_AbortReceiveCpltCallback:
 2158              		@ args = 0, pretend = 0, frame = 0
 2159              		@ frame_needed = 0, uses_anonymous_args = 0
 2160              		@ link register save eliminated.
 2161 0000 7047     		bx	lr
 2163              		.section	.text.HAL_UART_AbortReceive_IT,"ax",%progbits
 2164              		.align	1
 2165              		.global	HAL_UART_AbortReceive_IT
 2166              		.syntax unified
 2167              		.thumb
 2168              		.thumb_func
 2170              	HAL_UART_AbortReceive_IT:
 2171              		@ args = 0, pretend = 0, frame = 0
 2172              		@ frame_needed = 0, uses_anonymous_args = 0
 2173 0000 10B5     		push	{r4, lr}
 2174 0002 0446     		mov	r4, r0
 2175              	.L219:
 2176 0004 2268     		ldr	r2, [r4]
 2177              		.syntax unified
 2178              	@ 1155 "Drivers/CMSIS/Include/cmsis_gcc.h" 1
 2179 0006 52E8003F 		ldrex r3, [r2]
 2180              	@ 0 "" 2
ARM GAS  C:\Users\Nathan\AppData\Local\Temp\ccuUV3Of.s 			page 38


 2181              		.thumb
 2182              		.syntax unified
 2183 000a 23F49073 		bic	r3, r3, #288
 2184              		.syntax unified
 2185              	@ 1206 "Drivers/CMSIS/Include/cmsis_gcc.h" 1
 2186 000e 42E80031 		strex r1, r3, [r2]
 2187              	@ 0 "" 2
 2188              		.thumb
 2189              		.syntax unified
 2190 0012 0029     		cmp	r1, #0
 2191 0014 F6D1     		bne	.L219
 2192              	.L220:
 2193 0016 2268     		ldr	r2, [r4]
 2194 0018 02F10803 		add	r3, r2, #8
 2195              		.syntax unified
 2196              	@ 1155 "Drivers/CMSIS/Include/cmsis_gcc.h" 1
 2197 001c 53E8003F 		ldrex r3, [r3]
 2198              	@ 0 "" 2
 2199              		.thumb
 2200              		.syntax unified
 2201 0020 23F08053 		bic	r3, r3, #268435456
 2202 0024 23F00103 		bic	r3, r3, #1
 2203 0028 0832     		adds	r2, r2, #8
 2204              		.syntax unified
 2205              	@ 1206 "Drivers/CMSIS/Include/cmsis_gcc.h" 1
 2206 002a 42E80031 		strex r1, r3, [r2]
 2207              	@ 0 "" 2
 2208              		.thumb
 2209              		.syntax unified
 2210 002e 0029     		cmp	r1, #0
 2211 0030 F1D1     		bne	.L220
 2212 0032 E36E     		ldr	r3, [r4, #108]
 2213 0034 012B     		cmp	r3, #1
 2214 0036 1FD0     		beq	.L222
 2215              	.L221:
 2216 0038 2368     		ldr	r3, [r4]
 2217 003a 9A68     		ldr	r2, [r3, #8]
 2218 003c 12F0400F 		tst	r2, #64
 2219 0040 38D0     		beq	.L223
 2220              	.L224:
 2221 0042 2268     		ldr	r2, [r4]
 2222 0044 02F10803 		add	r3, r2, #8
 2223              		.syntax unified
 2224              	@ 1155 "Drivers/CMSIS/Include/cmsis_gcc.h" 1
 2225 0048 53E8003F 		ldrex r3, [r3]
 2226              	@ 0 "" 2
 2227              		.thumb
 2228              		.syntax unified
 2229 004c 23F04003 		bic	r3, r3, #64
 2230 0050 0832     		adds	r2, r2, #8
 2231              		.syntax unified
 2232              	@ 1206 "Drivers/CMSIS/Include/cmsis_gcc.h" 1
 2233 0052 42E80031 		strex r1, r3, [r2]
 2234              	@ 0 "" 2
 2235              		.thumb
 2236              		.syntax unified
 2237 0056 0029     		cmp	r1, #0
ARM GAS  C:\Users\Nathan\AppData\Local\Temp\ccuUV3Of.s 			page 39


 2238 0058 F3D1     		bne	.L224
 2239 005a D4F88030 		ldr	r3, [r4, #128]
 2240 005e ABB1     		cbz	r3, .L225
 2241 0060 1C4A     		ldr	r2, .L228
 2242 0062 9A63     		str	r2, [r3, #56]
 2243 0064 D4F88000 		ldr	r0, [r4, #128]
 2244 0068 FFF7FEFF 		bl	HAL_DMA_Abort_IT
 2245 006c 78B3     		cbz	r0, .L226
 2246 006e D4F88000 		ldr	r0, [r4, #128]
 2247 0072 836B     		ldr	r3, [r0, #56]
 2248 0074 9847     		blx	r3
 2249 0076 2AE0     		b	.L226
 2250              	.L222:
 2251 0078 2268     		ldr	r2, [r4]
 2252              		.syntax unified
 2253              	@ 1155 "Drivers/CMSIS/Include/cmsis_gcc.h" 1
 2254 007a 52E8003F 		ldrex r3, [r2]
 2255              	@ 0 "" 2
 2256              		.thumb
 2257              		.syntax unified
 2258 007e 23F01003 		bic	r3, r3, #16
 2259              		.syntax unified
 2260              	@ 1206 "Drivers/CMSIS/Include/cmsis_gcc.h" 1
 2261 0082 42E80031 		strex r1, r3, [r2]
 2262              	@ 0 "" 2
 2263              		.thumb
 2264              		.syntax unified
 2265 0086 0029     		cmp	r1, #0
 2266 0088 F6D1     		bne	.L222
 2267 008a D5E7     		b	.L221
 2268              	.L225:
 2269 008c 0023     		movs	r3, #0
 2270 008e A4F85E30 		strh	r3, [r4, #94]	@ movhi
 2271 0092 A365     		str	r3, [r4, #88]
 2272 0094 2268     		ldr	r2, [r4]
 2273 0096 0F21     		movs	r1, #15
 2274 0098 1162     		str	r1, [r2, #32]
 2275 009a 2168     		ldr	r1, [r4]
 2276 009c 8A69     		ldr	r2, [r1, #24]
 2277 009e 42F00802 		orr	r2, r2, #8
 2278 00a2 8A61     		str	r2, [r1, #24]
 2279 00a4 2022     		movs	r2, #32
 2280 00a6 C4F88C20 		str	r2, [r4, #140]
 2281 00aa E366     		str	r3, [r4, #108]
 2282 00ac 2046     		mov	r0, r4
 2283 00ae FFF7FEFF 		bl	HAL_UART_AbortReceiveCpltCallback
 2284 00b2 0CE0     		b	.L226
 2285              	.L223:
 2286 00b4 0022     		movs	r2, #0
 2287 00b6 A4F85E20 		strh	r2, [r4, #94]	@ movhi
 2288 00ba A265     		str	r2, [r4, #88]
 2289 00bc 0F21     		movs	r1, #15
 2290 00be 1962     		str	r1, [r3, #32]
 2291 00c0 2023     		movs	r3, #32
 2292 00c2 C4F88C30 		str	r3, [r4, #140]
 2293 00c6 E266     		str	r2, [r4, #108]
 2294 00c8 2046     		mov	r0, r4
ARM GAS  C:\Users\Nathan\AppData\Local\Temp\ccuUV3Of.s 			page 40


 2295 00ca FFF7FEFF 		bl	HAL_UART_AbortReceiveCpltCallback
 2296              	.L226:
 2297 00ce 0020     		movs	r0, #0
 2298 00d0 10BD     		pop	{r4, pc}
 2299              	.L229:
 2300 00d2 00BF     		.align	2
 2301              	.L228:
 2302 00d4 00000000 		.word	UART_DMARxOnlyAbortCallback
 2304              		.section	.text.UART_DMARxOnlyAbortCallback,"ax",%progbits
 2305              		.align	1
 2306              		.syntax unified
 2307              		.thumb
 2308              		.thumb_func
 2310              	UART_DMARxOnlyAbortCallback:
 2311              		@ args = 0, pretend = 0, frame = 0
 2312              		@ frame_needed = 0, uses_anonymous_args = 0
 2313 0000 08B5     		push	{r3, lr}
 2314 0002 806A     		ldr	r0, [r0, #40]
 2315 0004 0022     		movs	r2, #0
 2316 0006 A0F85E20 		strh	r2, [r0, #94]	@ movhi
 2317 000a 0368     		ldr	r3, [r0]
 2318 000c 0F21     		movs	r1, #15
 2319 000e 1962     		str	r1, [r3, #32]
 2320 0010 0168     		ldr	r1, [r0]
 2321 0012 8B69     		ldr	r3, [r1, #24]
 2322 0014 43F00803 		orr	r3, r3, #8
 2323 0018 8B61     		str	r3, [r1, #24]
 2324 001a 2023     		movs	r3, #32
 2325 001c C0F88C30 		str	r3, [r0, #140]
 2326 0020 C266     		str	r2, [r0, #108]
 2327 0022 FFF7FEFF 		bl	HAL_UART_AbortReceiveCpltCallback
 2328 0026 08BD     		pop	{r3, pc}
 2330              		.section	.text.HAL_UARTEx_RxEventCallback,"ax",%progbits
 2331              		.align	1
 2332              		.weak	HAL_UARTEx_RxEventCallback
 2333              		.syntax unified
 2334              		.thumb
 2335              		.thumb_func
 2337              	HAL_UARTEx_RxEventCallback:
 2338              		@ args = 0, pretend = 0, frame = 0
 2339              		@ frame_needed = 0, uses_anonymous_args = 0
 2340              		@ link register save eliminated.
 2341 0000 7047     		bx	lr
 2343              		.section	.text.HAL_UART_IRQHandler,"ax",%progbits
 2344              		.align	1
 2345              		.global	HAL_UART_IRQHandler
 2346              		.syntax unified
 2347              		.thumb
 2348              		.thumb_func
 2350              	HAL_UART_IRQHandler:
 2351              		@ args = 0, pretend = 0, frame = 0
 2352              		@ frame_needed = 0, uses_anonymous_args = 0
 2353 0000 70B5     		push	{r4, r5, r6, lr}
 2354 0002 0446     		mov	r4, r0
 2355 0004 0268     		ldr	r2, [r0]
 2356 0006 D369     		ldr	r3, [r2, #28]
 2357 0008 1068     		ldr	r0, [r2]
ARM GAS  C:\Users\Nathan\AppData\Local\Temp\ccuUV3Of.s 			page 41


 2358 000a 9168     		ldr	r1, [r2, #8]
 2359 000c 40F60F0C 		movw	ip, #2063
 2360 0010 13EA0C0F 		tst	r3, ip
 2361 0014 0DD1     		bne	.L234
 2362 0016 13F0200F 		tst	r3, #32
 2363 001a 10D0     		beq	.L235
 2364 001c 10F0200F 		tst	r0, #32
 2365 0020 02D1     		bne	.L236
 2366 0022 11F0805F 		tst	r1, #268435456
 2367 0026 0AD0     		beq	.L235
 2368              	.L236:
 2369 0028 636F     		ldr	r3, [r4, #116]
 2370 002a 93B3     		cbz	r3, .L233
 2371 002c 2046     		mov	r0, r4
 2372 002e 9847     		blx	r3
 2373 0030 2FE0     		b	.L233
 2374              	.L234:
 2375 0032 9D4D     		ldr	r5, .L279
 2376 0034 0D40     		ands	r5, r1, r5
 2377 0036 2DD1     		bne	.L239
 2378 0038 9C4E     		ldr	r6, .L279+4
 2379 003a 3042     		tst	r0, r6
 2380 003c 2AD1     		bne	.L239
 2381              	.L235:
 2382 003e E56E     		ldr	r5, [r4, #108]
 2383 0040 012D     		cmp	r5, #1
 2384 0042 00F0C080 		beq	.L274
 2385              	.L254:
 2386 0046 13F4801F 		tst	r3, #1048576
 2387 004a 03D0     		beq	.L267
 2388 004c 11F4800F 		tst	r1, #4194304
 2389 0050 40F06C81 		bne	.L275
 2390              	.L267:
 2391 0054 13F0800F 		tst	r3, #128
 2392 0058 07D0     		beq	.L268
 2393 005a 10F0800F 		tst	r0, #128
 2394 005e 40F06C81 		bne	.L269
 2395 0062 11F4000F 		tst	r1, #8388608
 2396 0066 40F06881 		bne	.L269
 2397              	.L268:
 2398 006a 13F0400F 		tst	r3, #64
 2399 006e 03D0     		beq	.L271
 2400 0070 10F0400F 		tst	r0, #64
 2401 0074 40F06881 		bne	.L276
 2402              	.L271:
 2403 0078 13F4000F 		tst	r3, #8388608
 2404 007c 03D0     		beq	.L272
 2405 007e 10F0804F 		tst	r0, #1073741824
 2406 0082 40F06581 		bne	.L277
 2407              	.L272:
 2408 0086 13F0807F 		tst	r3, #16777216
 2409 008a 02D0     		beq	.L233
 2410 008c 0028     		cmp	r0, #0
 2411 008e C0F26381 		blt	.L278
 2412              	.L233:
 2413 0092 70BD     		pop	{r4, r5, r6, pc}
 2414              	.L239:
ARM GAS  C:\Users\Nathan\AppData\Local\Temp\ccuUV3Of.s 			page 42


 2415 0094 13F0010F 		tst	r3, #1
 2416 0098 09D0     		beq	.L240
 2417 009a 10F4807F 		tst	r0, #256
 2418 009e 06D0     		beq	.L240
 2419 00a0 0126     		movs	r6, #1
 2420 00a2 1662     		str	r6, [r2, #32]
 2421 00a4 D4F89020 		ldr	r2, [r4, #144]
 2422 00a8 3243     		orrs	r2, r2, r6
 2423 00aa C4F89020 		str	r2, [r4, #144]
 2424              	.L240:
 2425 00ae 13F0020F 		tst	r3, #2
 2426 00b2 0BD0     		beq	.L241
 2427 00b4 11F0010F 		tst	r1, #1
 2428 00b8 08D0     		beq	.L241
 2429 00ba 2268     		ldr	r2, [r4]
 2430 00bc 0226     		movs	r6, #2
 2431 00be 1662     		str	r6, [r2, #32]
 2432 00c0 D4F89020 		ldr	r2, [r4, #144]
 2433 00c4 42F00402 		orr	r2, r2, #4
 2434 00c8 C4F89020 		str	r2, [r4, #144]
 2435              	.L241:
 2436 00cc 13F0040F 		tst	r3, #4
 2437 00d0 0BD0     		beq	.L242
 2438 00d2 11F0010F 		tst	r1, #1
 2439 00d6 08D0     		beq	.L242
 2440 00d8 2268     		ldr	r2, [r4]
 2441 00da 0426     		movs	r6, #4
 2442 00dc 1662     		str	r6, [r2, #32]
 2443 00de D4F89020 		ldr	r2, [r4, #144]
 2444 00e2 42F00202 		orr	r2, r2, #2
 2445 00e6 C4F89020 		str	r2, [r4, #144]
 2446              	.L242:
 2447 00ea 13F0080F 		tst	r3, #8
 2448 00ee 0BD0     		beq	.L243
 2449 00f0 10F0200F 		tst	r0, #32
 2450 00f4 00D1     		bne	.L244
 2451 00f6 3DB1     		cbz	r5, .L243
 2452              	.L244:
 2453 00f8 2268     		ldr	r2, [r4]
 2454 00fa 0825     		movs	r5, #8
 2455 00fc 1562     		str	r5, [r2, #32]
 2456 00fe D4F89020 		ldr	r2, [r4, #144]
 2457 0102 2A43     		orrs	r2, r2, r5
 2458 0104 C4F89020 		str	r2, [r4, #144]
 2459              	.L243:
 2460 0108 13F4006F 		tst	r3, #2048
 2461 010c 0CD0     		beq	.L245
 2462 010e 10F0806F 		tst	r0, #67108864
 2463 0112 09D0     		beq	.L245
 2464 0114 2268     		ldr	r2, [r4]
 2465 0116 4FF40065 		mov	r5, #2048
 2466 011a 1562     		str	r5, [r2, #32]
 2467 011c D4F89020 		ldr	r2, [r4, #144]
 2468 0120 42F02002 		orr	r2, r2, #32
 2469 0124 C4F89020 		str	r2, [r4, #144]
 2470              	.L245:
 2471 0128 D4F89020 		ldr	r2, [r4, #144]
ARM GAS  C:\Users\Nathan\AppData\Local\Temp\ccuUV3Of.s 			page 43


 2472 012c 002A     		cmp	r2, #0
 2473 012e B0D0     		beq	.L233
 2474 0130 13F0200F 		tst	r3, #32
 2475 0134 09D0     		beq	.L247
 2476 0136 10F0200F 		tst	r0, #32
 2477 013a 02D1     		bne	.L248
 2478 013c 11F0805F 		tst	r1, #268435456
 2479 0140 03D0     		beq	.L247
 2480              	.L248:
 2481 0142 636F     		ldr	r3, [r4, #116]
 2482 0144 0BB1     		cbz	r3, .L247
 2483 0146 2046     		mov	r0, r4
 2484 0148 9847     		blx	r3
 2485              	.L247:
 2486 014a D4F89020 		ldr	r2, [r4, #144]
 2487 014e 2368     		ldr	r3, [r4]
 2488 0150 9B68     		ldr	r3, [r3, #8]
 2489 0152 13F0400F 		tst	r3, #64
 2490 0156 02D1     		bne	.L249
 2491 0158 12F0280F 		tst	r2, #40
 2492 015c 2CD0     		beq	.L250
 2493              	.L249:
 2494 015e 2046     		mov	r0, r4
 2495 0160 FFF7FEFF 		bl	UART_EndRxTransfer
 2496 0164 2368     		ldr	r3, [r4]
 2497 0166 9B68     		ldr	r3, [r3, #8]
 2498 0168 13F0400F 		tst	r3, #64
 2499 016c 20D0     		beq	.L251
 2500              	.L252:
 2501 016e 2268     		ldr	r2, [r4]
 2502 0170 02F10803 		add	r3, r2, #8
 2503              		.syntax unified
 2504              	@ 1155 "Drivers/CMSIS/Include/cmsis_gcc.h" 1
 2505 0174 53E8003F 		ldrex r3, [r3]
 2506              	@ 0 "" 2
 2507              		.thumb
 2508              		.syntax unified
 2509 0178 23F04003 		bic	r3, r3, #64
 2510 017c 0832     		adds	r2, r2, #8
 2511              		.syntax unified
 2512              	@ 1206 "Drivers/CMSIS/Include/cmsis_gcc.h" 1
 2513 017e 42E80031 		strex r1, r3, [r2]
 2514              	@ 0 "" 2
 2515              		.thumb
 2516              		.syntax unified
 2517 0182 0029     		cmp	r1, #0
 2518 0184 F3D1     		bne	.L252
 2519 0186 D4F88030 		ldr	r3, [r4, #128]
 2520 018a 6BB1     		cbz	r3, .L253
 2521 018c 484A     		ldr	r2, .L279+8
 2522 018e 9A63     		str	r2, [r3, #56]
 2523 0190 D4F88000 		ldr	r0, [r4, #128]
 2524 0194 FFF7FEFF 		bl	HAL_DMA_Abort_IT
 2525 0198 0028     		cmp	r0, #0
 2526 019a 3FF47AAF 		beq	.L233
 2527 019e D4F88000 		ldr	r0, [r4, #128]
 2528 01a2 836B     		ldr	r3, [r0, #56]
ARM GAS  C:\Users\Nathan\AppData\Local\Temp\ccuUV3Of.s 			page 44


 2529 01a4 9847     		blx	r3
 2530 01a6 74E7     		b	.L233
 2531              	.L253:
 2532 01a8 2046     		mov	r0, r4
 2533 01aa FFF7FEFF 		bl	HAL_UART_ErrorCallback
 2534 01ae 70E7     		b	.L233
 2535              	.L251:
 2536 01b0 2046     		mov	r0, r4
 2537 01b2 FFF7FEFF 		bl	HAL_UART_ErrorCallback
 2538 01b6 6CE7     		b	.L233
 2539              	.L250:
 2540 01b8 2046     		mov	r0, r4
 2541 01ba FFF7FEFF 		bl	HAL_UART_ErrorCallback
 2542 01be 0023     		movs	r3, #0
 2543 01c0 C4F89030 		str	r3, [r4, #144]
 2544 01c4 65E7     		b	.L233
 2545              	.L274:
 2546 01c6 13F0100F 		tst	r3, #16
 2547 01ca 3FF43CAF 		beq	.L254
 2548 01ce 10F0100F 		tst	r0, #16
 2549 01d2 3FF438AF 		beq	.L254
 2550 01d6 1023     		movs	r3, #16
 2551 01d8 1362     		str	r3, [r2, #32]
 2552 01da 2368     		ldr	r3, [r4]
 2553 01dc 9B68     		ldr	r3, [r3, #8]
 2554 01de 13F0400F 		tst	r3, #64
 2555 01e2 67D0     		beq	.L255
 2556 01e4 D4F88010 		ldr	r1, [r4, #128]
 2557 01e8 0A68     		ldr	r2, [r1]
 2558 01ea 5368     		ldr	r3, [r2, #4]
 2559 01ec 9BB2     		uxth	r3, r3
 2560 01ee 002B     		cmp	r3, #0
 2561 01f0 4AD0     		beq	.L256
 2562 01f2 B4F85C00 		ldrh	r0, [r4, #92]
 2563 01f6 9842     		cmp	r0, r3
 2564 01f8 46D9     		bls	.L256
 2565 01fa A4F85E30 		strh	r3, [r4, #94]	@ movhi
 2566 01fe 0B68     		ldr	r3, [r1]
 2567 0200 1B68     		ldr	r3, [r3]
 2568 0202 13F0200F 		tst	r3, #32
 2569 0206 32D1     		bne	.L257
 2570              	.L258:
 2571 0208 2268     		ldr	r2, [r4]
 2572              		.syntax unified
 2573              	@ 1155 "Drivers/CMSIS/Include/cmsis_gcc.h" 1
 2574 020a 52E8003F 		ldrex r3, [r2]
 2575              	@ 0 "" 2
 2576              		.thumb
 2577              		.syntax unified
 2578 020e 23F48073 		bic	r3, r3, #256
 2579              		.syntax unified
 2580              	@ 1206 "Drivers/CMSIS/Include/cmsis_gcc.h" 1
 2581 0212 42E80031 		strex r1, r3, [r2]
 2582              	@ 0 "" 2
 2583              		.thumb
 2584              		.syntax unified
 2585 0216 0029     		cmp	r1, #0
ARM GAS  C:\Users\Nathan\AppData\Local\Temp\ccuUV3Of.s 			page 45


 2586 0218 F6D1     		bne	.L258
 2587              	.L259:
 2588 021a 2268     		ldr	r2, [r4]
 2589 021c 02F10803 		add	r3, r2, #8
 2590              		.syntax unified
 2591              	@ 1155 "Drivers/CMSIS/Include/cmsis_gcc.h" 1
 2592 0220 53E8003F 		ldrex r3, [r3]
 2593              	@ 0 "" 2
 2594              		.thumb
 2595              		.syntax unified
 2596 0224 23F00103 		bic	r3, r3, #1
 2597 0228 0832     		adds	r2, r2, #8
 2598              		.syntax unified
 2599              	@ 1206 "Drivers/CMSIS/Include/cmsis_gcc.h" 1
 2600 022a 42E80031 		strex r1, r3, [r2]
 2601              	@ 0 "" 2
 2602              		.thumb
 2603              		.syntax unified
 2604 022e 0029     		cmp	r1, #0
 2605 0230 F3D1     		bne	.L259
 2606              	.L260:
 2607 0232 2268     		ldr	r2, [r4]
 2608 0234 02F10803 		add	r3, r2, #8
 2609              		.syntax unified
 2610              	@ 1155 "Drivers/CMSIS/Include/cmsis_gcc.h" 1
 2611 0238 53E8003F 		ldrex r3, [r3]
 2612              	@ 0 "" 2
 2613              		.thumb
 2614              		.syntax unified
 2615 023c 23F04003 		bic	r3, r3, #64
 2616 0240 0832     		adds	r2, r2, #8
 2617              		.syntax unified
 2618              	@ 1206 "Drivers/CMSIS/Include/cmsis_gcc.h" 1
 2619 0242 42E80031 		strex r1, r3, [r2]
 2620              	@ 0 "" 2
 2621              		.thumb
 2622              		.syntax unified
 2623 0246 0029     		cmp	r1, #0
 2624 0248 F3D1     		bne	.L260
 2625 024a 2023     		movs	r3, #32
 2626 024c C4F88C30 		str	r3, [r4, #140]
 2627 0250 0023     		movs	r3, #0
 2628 0252 E366     		str	r3, [r4, #108]
 2629              	.L261:
 2630 0254 2268     		ldr	r2, [r4]
 2631              		.syntax unified
 2632              	@ 1155 "Drivers/CMSIS/Include/cmsis_gcc.h" 1
 2633 0256 52E8003F 		ldrex r3, [r2]
 2634              	@ 0 "" 2
 2635              		.thumb
 2636              		.syntax unified
 2637 025a 23F01003 		bic	r3, r3, #16
 2638              		.syntax unified
 2639              	@ 1206 "Drivers/CMSIS/Include/cmsis_gcc.h" 1
 2640 025e 42E80031 		strex r1, r3, [r2]
 2641              	@ 0 "" 2
 2642              		.thumb
ARM GAS  C:\Users\Nathan\AppData\Local\Temp\ccuUV3Of.s 			page 46


 2643              		.syntax unified
 2644 0262 0029     		cmp	r1, #0
 2645 0264 F6D1     		bne	.L261
 2646 0266 D4F88000 		ldr	r0, [r4, #128]
 2647 026a FFF7FEFF 		bl	HAL_DMA_Abort
 2648              	.L257:
 2649 026e 0223     		movs	r3, #2
 2650 0270 2367     		str	r3, [r4, #112]
 2651 0272 B4F85C10 		ldrh	r1, [r4, #92]
 2652 0276 B4F85E30 		ldrh	r3, [r4, #94]
 2653 027a 9BB2     		uxth	r3, r3
 2654 027c C91A     		subs	r1, r1, r3
 2655 027e 89B2     		uxth	r1, r1
 2656 0280 2046     		mov	r0, r4
 2657 0282 FFF7FEFF 		bl	HAL_UARTEx_RxEventCallback
 2658 0286 04E7     		b	.L233
 2659              	.L256:
 2660 0288 B4F85C10 		ldrh	r1, [r4, #92]
 2661 028c 9942     		cmp	r1, r3
 2662 028e 7FF400AF 		bne	.L233
 2663 0292 1368     		ldr	r3, [r2]
 2664 0294 13F0200F 		tst	r3, #32
 2665 0298 3FF4FBAE 		beq	.L233
 2666 029c 0223     		movs	r3, #2
 2667 029e 2367     		str	r3, [r4, #112]
 2668 02a0 2046     		mov	r0, r4
 2669 02a2 FFF7FEFF 		bl	HAL_UARTEx_RxEventCallback
 2670 02a6 F4E6     		b	.L233
 2671              	.L280:
 2672              		.align	2
 2673              	.L279:
 2674 02a8 01000010 		.word	268435457
 2675 02ac 20010004 		.word	67109152
 2676 02b0 00000000 		.word	UART_DMAAbortOnError
 2677              	.L255:
 2678 02b4 B4F85C10 		ldrh	r1, [r4, #92]
 2679 02b8 B4F85E30 		ldrh	r3, [r4, #94]
 2680 02bc 9BB2     		uxth	r3, r3
 2681 02be C91A     		subs	r1, r1, r3
 2682 02c0 89B2     		uxth	r1, r1
 2683 02c2 B4F85E30 		ldrh	r3, [r4, #94]
 2684 02c6 9BB2     		uxth	r3, r3
 2685 02c8 002B     		cmp	r3, #0
 2686 02ca 3FF4E2AE 		beq	.L233
 2687 02ce 0029     		cmp	r1, #0
 2688 02d0 3FF4DFAE 		beq	.L233
 2689              	.L264:
 2690 02d4 2268     		ldr	r2, [r4]
 2691              		.syntax unified
 2692              	@ 1155 "Drivers/CMSIS/Include/cmsis_gcc.h" 1
 2693 02d6 52E8003F 		ldrex r3, [r2]
 2694              	@ 0 "" 2
 2695              		.thumb
 2696              		.syntax unified
 2697 02da 23F49073 		bic	r3, r3, #288
 2698              		.syntax unified
 2699              	@ 1206 "Drivers/CMSIS/Include/cmsis_gcc.h" 1
ARM GAS  C:\Users\Nathan\AppData\Local\Temp\ccuUV3Of.s 			page 47


 2700 02de 42E80030 		strex r0, r3, [r2]
 2701              	@ 0 "" 2
 2702              		.thumb
 2703              		.syntax unified
 2704 02e2 0028     		cmp	r0, #0
 2705 02e4 F6D1     		bne	.L264
 2706              	.L265:
 2707 02e6 2268     		ldr	r2, [r4]
 2708 02e8 02F10803 		add	r3, r2, #8
 2709              		.syntax unified
 2710              	@ 1155 "Drivers/CMSIS/Include/cmsis_gcc.h" 1
 2711 02ec 53E8003F 		ldrex r3, [r3]
 2712              	@ 0 "" 2
 2713              		.thumb
 2714              		.syntax unified
 2715 02f0 23F08053 		bic	r3, r3, #268435456
 2716 02f4 23F00103 		bic	r3, r3, #1
 2717 02f8 0832     		adds	r2, r2, #8
 2718              		.syntax unified
 2719              	@ 1206 "Drivers/CMSIS/Include/cmsis_gcc.h" 1
 2720 02fa 42E80030 		strex r0, r3, [r2]
 2721              	@ 0 "" 2
 2722              		.thumb
 2723              		.syntax unified
 2724 02fe 0028     		cmp	r0, #0
 2725 0300 F1D1     		bne	.L265
 2726 0302 2023     		movs	r3, #32
 2727 0304 C4F88C30 		str	r3, [r4, #140]
 2728 0308 0023     		movs	r3, #0
 2729 030a E366     		str	r3, [r4, #108]
 2730 030c 6367     		str	r3, [r4, #116]
 2731              	.L266:
 2732 030e 2268     		ldr	r2, [r4]
 2733              		.syntax unified
 2734              	@ 1155 "Drivers/CMSIS/Include/cmsis_gcc.h" 1
 2735 0310 52E8003F 		ldrex r3, [r2]
 2736              	@ 0 "" 2
 2737              		.thumb
 2738              		.syntax unified
 2739 0314 23F01003 		bic	r3, r3, #16
 2740              		.syntax unified
 2741              	@ 1206 "Drivers/CMSIS/Include/cmsis_gcc.h" 1
 2742 0318 42E80030 		strex r0, r3, [r2]
 2743              	@ 0 "" 2
 2744              		.thumb
 2745              		.syntax unified
 2746 031c 0028     		cmp	r0, #0
 2747 031e F6D1     		bne	.L266
 2748 0320 0223     		movs	r3, #2
 2749 0322 2367     		str	r3, [r4, #112]
 2750 0324 2046     		mov	r0, r4
 2751 0326 FFF7FEFF 		bl	HAL_UARTEx_RxEventCallback
 2752 032a B2E6     		b	.L233
 2753              	.L275:
 2754 032c 4FF48013 		mov	r3, #1048576
 2755 0330 1362     		str	r3, [r2, #32]
 2756 0332 2046     		mov	r0, r4
ARM GAS  C:\Users\Nathan\AppData\Local\Temp\ccuUV3Of.s 			page 48


 2757 0334 FFF7FEFF 		bl	HAL_UARTEx_WakeupCallback
 2758 0338 ABE6     		b	.L233
 2759              	.L269:
 2760 033a A36F     		ldr	r3, [r4, #120]
 2761 033c 002B     		cmp	r3, #0
 2762 033e 3FF4A8AE 		beq	.L233
 2763 0342 2046     		mov	r0, r4
 2764 0344 9847     		blx	r3
 2765 0346 A4E6     		b	.L233
 2766              	.L276:
 2767 0348 2046     		mov	r0, r4
 2768 034a FFF7FEFF 		bl	UART_EndTransmit_IT
 2769 034e A0E6     		b	.L233
 2770              	.L277:
 2771 0350 2046     		mov	r0, r4
 2772 0352 FFF7FEFF 		bl	HAL_UARTEx_TxFifoEmptyCallback
 2773 0356 9CE6     		b	.L233
 2774              	.L278:
 2775 0358 2046     		mov	r0, r4
 2776 035a FFF7FEFF 		bl	HAL_UARTEx_RxFifoFullCallback
 2777 035e 98E6     		b	.L233
 2779              		.section	.text.UART_RxISR_8BIT,"ax",%progbits
 2780              		.align	1
 2781              		.syntax unified
 2782              		.thumb
 2783              		.thumb_func
 2785              	UART_RxISR_8BIT:
 2786              		@ args = 0, pretend = 0, frame = 0
 2787              		@ frame_needed = 0, uses_anonymous_args = 0
 2788 0000 08B5     		push	{r3, lr}
 2789 0002 B0F86030 		ldrh	r3, [r0, #96]
 2790 0006 D0F88C20 		ldr	r2, [r0, #140]
 2791 000a 222A     		cmp	r2, #34
 2792 000c 05D0     		beq	.L292
 2793 000e 0268     		ldr	r2, [r0]
 2794 0010 9369     		ldr	r3, [r2, #24]
 2795 0012 43F00803 		orr	r3, r3, #8
 2796 0016 9361     		str	r3, [r2, #24]
 2797              	.L281:
 2798 0018 08BD     		pop	{r3, pc}
 2799              	.L292:
 2800 001a 0268     		ldr	r2, [r0]
 2801 001c 516A     		ldr	r1, [r2, #36]
 2802 001e DBB2     		uxtb	r3, r3
 2803 0020 826D     		ldr	r2, [r0, #88]
 2804 0022 0B40     		ands	r3, r3, r1
 2805 0024 1370     		strb	r3, [r2]
 2806 0026 836D     		ldr	r3, [r0, #88]
 2807 0028 0133     		adds	r3, r3, #1
 2808 002a 8365     		str	r3, [r0, #88]
 2809 002c B0F85E30 		ldrh	r3, [r0, #94]
 2810 0030 9BB2     		uxth	r3, r3
 2811 0032 013B     		subs	r3, r3, #1
 2812 0034 9BB2     		uxth	r3, r3
 2813 0036 A0F85E30 		strh	r3, [r0, #94]	@ movhi
 2814 003a B0F85E30 		ldrh	r3, [r0, #94]
 2815 003e 9BB2     		uxth	r3, r3
ARM GAS  C:\Users\Nathan\AppData\Local\Temp\ccuUV3Of.s 			page 49


 2816 0040 002B     		cmp	r3, #0
 2817 0042 E9D1     		bne	.L281
 2818              	.L284:
 2819 0044 0268     		ldr	r2, [r0]
 2820              		.syntax unified
 2821              	@ 1155 "Drivers/CMSIS/Include/cmsis_gcc.h" 1
 2822 0046 52E8003F 		ldrex r3, [r2]
 2823              	@ 0 "" 2
 2824              		.thumb
 2825              		.syntax unified
 2826 004a 23F49073 		bic	r3, r3, #288
 2827              		.syntax unified
 2828              	@ 1206 "Drivers/CMSIS/Include/cmsis_gcc.h" 1
 2829 004e 42E80031 		strex r1, r3, [r2]
 2830              	@ 0 "" 2
 2831              		.thumb
 2832              		.syntax unified
 2833 0052 0029     		cmp	r1, #0
 2834 0054 F6D1     		bne	.L284
 2835              	.L285:
 2836 0056 0268     		ldr	r2, [r0]
 2837 0058 02F10803 		add	r3, r2, #8
 2838              		.syntax unified
 2839              	@ 1155 "Drivers/CMSIS/Include/cmsis_gcc.h" 1
 2840 005c 53E8003F 		ldrex r3, [r3]
 2841              	@ 0 "" 2
 2842              		.thumb
 2843              		.syntax unified
 2844 0060 23F00103 		bic	r3, r3, #1
 2845 0064 0832     		adds	r2, r2, #8
 2846              		.syntax unified
 2847              	@ 1206 "Drivers/CMSIS/Include/cmsis_gcc.h" 1
 2848 0066 42E80031 		strex r1, r3, [r2]
 2849              	@ 0 "" 2
 2850              		.thumb
 2851              		.syntax unified
 2852 006a 0029     		cmp	r1, #0
 2853 006c F3D1     		bne	.L285
 2854 006e 2023     		movs	r3, #32
 2855 0070 C0F88C30 		str	r3, [r0, #140]
 2856 0074 0023     		movs	r3, #0
 2857 0076 4367     		str	r3, [r0, #116]
 2858 0078 0367     		str	r3, [r0, #112]
 2859 007a 0368     		ldr	r3, [r0]
 2860 007c 164A     		ldr	r2, .L293
 2861 007e 9342     		cmp	r3, r2
 2862 0080 0CD0     		beq	.L286
 2863 0082 5B68     		ldr	r3, [r3, #4]
 2864 0084 13F4000F 		tst	r3, #8388608
 2865 0088 08D0     		beq	.L286
 2866              	.L287:
 2867 008a 0268     		ldr	r2, [r0]
 2868              		.syntax unified
 2869              	@ 1155 "Drivers/CMSIS/Include/cmsis_gcc.h" 1
 2870 008c 52E8003F 		ldrex r3, [r2]
 2871              	@ 0 "" 2
 2872              		.thumb
ARM GAS  C:\Users\Nathan\AppData\Local\Temp\ccuUV3Of.s 			page 50


 2873              		.syntax unified
 2874 0090 23F08063 		bic	r3, r3, #67108864
 2875              		.syntax unified
 2876              	@ 1206 "Drivers/CMSIS/Include/cmsis_gcc.h" 1
 2877 0094 42E80031 		strex r1, r3, [r2]
 2878              	@ 0 "" 2
 2879              		.thumb
 2880              		.syntax unified
 2881 0098 0029     		cmp	r1, #0
 2882 009a F6D1     		bne	.L287
 2883              	.L286:
 2884 009c C36E     		ldr	r3, [r0, #108]
 2885 009e 012B     		cmp	r3, #1
 2886 00a0 16D1     		bne	.L288
 2887 00a2 0023     		movs	r3, #0
 2888 00a4 C366     		str	r3, [r0, #108]
 2889              	.L289:
 2890 00a6 0268     		ldr	r2, [r0]
 2891              		.syntax unified
 2892              	@ 1155 "Drivers/CMSIS/Include/cmsis_gcc.h" 1
 2893 00a8 52E8003F 		ldrex r3, [r2]
 2894              	@ 0 "" 2
 2895              		.thumb
 2896              		.syntax unified
 2897 00ac 23F01003 		bic	r3, r3, #16
 2898              		.syntax unified
 2899              	@ 1206 "Drivers/CMSIS/Include/cmsis_gcc.h" 1
 2900 00b0 42E80031 		strex r1, r3, [r2]
 2901              	@ 0 "" 2
 2902              		.thumb
 2903              		.syntax unified
 2904 00b4 0029     		cmp	r1, #0
 2905 00b6 F6D1     		bne	.L289
 2906 00b8 0368     		ldr	r3, [r0]
 2907 00ba DA69     		ldr	r2, [r3, #28]
 2908 00bc 12F0100F 		tst	r2, #16
 2909 00c0 01D0     		beq	.L290
 2910 00c2 1022     		movs	r2, #16
 2911 00c4 1A62     		str	r2, [r3, #32]
 2912              	.L290:
 2913 00c6 B0F85C10 		ldrh	r1, [r0, #92]
 2914 00ca FFF7FEFF 		bl	HAL_UARTEx_RxEventCallback
 2915 00ce A3E7     		b	.L281
 2916              	.L288:
 2917 00d0 FFF7FEFF 		bl	HAL_UART_RxCpltCallback
 2918 00d4 A0E7     		b	.L281
 2919              	.L294:
 2920 00d6 00BF     		.align	2
 2921              	.L293:
 2922 00d8 00800040 		.word	1073774592
 2924              		.section	.text.UART_RxISR_16BIT,"ax",%progbits
 2925              		.align	1
 2926              		.syntax unified
 2927              		.thumb
 2928              		.thumb_func
 2930              	UART_RxISR_16BIT:
 2931              		@ args = 0, pretend = 0, frame = 0
ARM GAS  C:\Users\Nathan\AppData\Local\Temp\ccuUV3Of.s 			page 51


 2932              		@ frame_needed = 0, uses_anonymous_args = 0
 2933 0000 08B5     		push	{r3, lr}
 2934 0002 B0F86020 		ldrh	r2, [r0, #96]
 2935 0006 D0F88C30 		ldr	r3, [r0, #140]
 2936 000a 222B     		cmp	r3, #34
 2937 000c 05D0     		beq	.L306
 2938 000e 0268     		ldr	r2, [r0]
 2939 0010 9369     		ldr	r3, [r2, #24]
 2940 0012 43F00803 		orr	r3, r3, #8
 2941 0016 9361     		str	r3, [r2, #24]
 2942              	.L295:
 2943 0018 08BD     		pop	{r3, pc}
 2944              	.L306:
 2945 001a 0368     		ldr	r3, [r0]
 2946 001c 5B6A     		ldr	r3, [r3, #36]
 2947 001e 816D     		ldr	r1, [r0, #88]
 2948 0020 1340     		ands	r3, r3, r2
 2949 0022 0B80     		strh	r3, [r1]	@ movhi
 2950 0024 836D     		ldr	r3, [r0, #88]
 2951 0026 0233     		adds	r3, r3, #2
 2952 0028 8365     		str	r3, [r0, #88]
 2953 002a B0F85E30 		ldrh	r3, [r0, #94]
 2954 002e 9BB2     		uxth	r3, r3
 2955 0030 013B     		subs	r3, r3, #1
 2956 0032 9BB2     		uxth	r3, r3
 2957 0034 A0F85E30 		strh	r3, [r0, #94]	@ movhi
 2958 0038 B0F85E30 		ldrh	r3, [r0, #94]
 2959 003c 9BB2     		uxth	r3, r3
 2960 003e 002B     		cmp	r3, #0
 2961 0040 EAD1     		bne	.L295
 2962              	.L298:
 2963 0042 0268     		ldr	r2, [r0]
 2964              		.syntax unified
 2965              	@ 1155 "Drivers/CMSIS/Include/cmsis_gcc.h" 1
 2966 0044 52E8003F 		ldrex r3, [r2]
 2967              	@ 0 "" 2
 2968              		.thumb
 2969              		.syntax unified
 2970 0048 23F49073 		bic	r3, r3, #288
 2971              		.syntax unified
 2972              	@ 1206 "Drivers/CMSIS/Include/cmsis_gcc.h" 1
 2973 004c 42E80031 		strex r1, r3, [r2]
 2974              	@ 0 "" 2
 2975              		.thumb
 2976              		.syntax unified
 2977 0050 0029     		cmp	r1, #0
 2978 0052 F6D1     		bne	.L298
 2979              	.L299:
 2980 0054 0268     		ldr	r2, [r0]
 2981 0056 02F10803 		add	r3, r2, #8
 2982              		.syntax unified
 2983              	@ 1155 "Drivers/CMSIS/Include/cmsis_gcc.h" 1
 2984 005a 53E8003F 		ldrex r3, [r3]
 2985              	@ 0 "" 2
 2986              		.thumb
 2987              		.syntax unified
 2988 005e 23F00103 		bic	r3, r3, #1
ARM GAS  C:\Users\Nathan\AppData\Local\Temp\ccuUV3Of.s 			page 52


 2989 0062 0832     		adds	r2, r2, #8
 2990              		.syntax unified
 2991              	@ 1206 "Drivers/CMSIS/Include/cmsis_gcc.h" 1
 2992 0064 42E80031 		strex r1, r3, [r2]
 2993              	@ 0 "" 2
 2994              		.thumb
 2995              		.syntax unified
 2996 0068 0029     		cmp	r1, #0
 2997 006a F3D1     		bne	.L299
 2998 006c 2023     		movs	r3, #32
 2999 006e C0F88C30 		str	r3, [r0, #140]
 3000 0072 0023     		movs	r3, #0
 3001 0074 4367     		str	r3, [r0, #116]
 3002 0076 0367     		str	r3, [r0, #112]
 3003 0078 0368     		ldr	r3, [r0]
 3004 007a 164A     		ldr	r2, .L307
 3005 007c 9342     		cmp	r3, r2
 3006 007e 0CD0     		beq	.L300
 3007 0080 5B68     		ldr	r3, [r3, #4]
 3008 0082 13F4000F 		tst	r3, #8388608
 3009 0086 08D0     		beq	.L300
 3010              	.L301:
 3011 0088 0268     		ldr	r2, [r0]
 3012              		.syntax unified
 3013              	@ 1155 "Drivers/CMSIS/Include/cmsis_gcc.h" 1
 3014 008a 52E8003F 		ldrex r3, [r2]
 3015              	@ 0 "" 2
 3016              		.thumb
 3017              		.syntax unified
 3018 008e 23F08063 		bic	r3, r3, #67108864
 3019              		.syntax unified
 3020              	@ 1206 "Drivers/CMSIS/Include/cmsis_gcc.h" 1
 3021 0092 42E80031 		strex r1, r3, [r2]
 3022              	@ 0 "" 2
 3023              		.thumb
 3024              		.syntax unified
 3025 0096 0029     		cmp	r1, #0
 3026 0098 F6D1     		bne	.L301
 3027              	.L300:
 3028 009a C36E     		ldr	r3, [r0, #108]
 3029 009c 012B     		cmp	r3, #1
 3030 009e 16D1     		bne	.L302
 3031 00a0 0023     		movs	r3, #0
 3032 00a2 C366     		str	r3, [r0, #108]
 3033              	.L303:
 3034 00a4 0268     		ldr	r2, [r0]
 3035              		.syntax unified
 3036              	@ 1155 "Drivers/CMSIS/Include/cmsis_gcc.h" 1
 3037 00a6 52E8003F 		ldrex r3, [r2]
 3038              	@ 0 "" 2
 3039              		.thumb
 3040              		.syntax unified
 3041 00aa 23F01003 		bic	r3, r3, #16
 3042              		.syntax unified
 3043              	@ 1206 "Drivers/CMSIS/Include/cmsis_gcc.h" 1
 3044 00ae 42E80031 		strex r1, r3, [r2]
 3045              	@ 0 "" 2
ARM GAS  C:\Users\Nathan\AppData\Local\Temp\ccuUV3Of.s 			page 53


 3046              		.thumb
 3047              		.syntax unified
 3048 00b2 0029     		cmp	r1, #0
 3049 00b4 F6D1     		bne	.L303
 3050 00b6 0368     		ldr	r3, [r0]
 3051 00b8 DA69     		ldr	r2, [r3, #28]
 3052 00ba 12F0100F 		tst	r2, #16
 3053 00be 01D0     		beq	.L304
 3054 00c0 1022     		movs	r2, #16
 3055 00c2 1A62     		str	r2, [r3, #32]
 3056              	.L304:
 3057 00c4 B0F85C10 		ldrh	r1, [r0, #92]
 3058 00c8 FFF7FEFF 		bl	HAL_UARTEx_RxEventCallback
 3059 00cc A4E7     		b	.L295
 3060              	.L302:
 3061 00ce FFF7FEFF 		bl	HAL_UART_RxCpltCallback
 3062 00d2 A1E7     		b	.L295
 3063              	.L308:
 3064              		.align	2
 3065              	.L307:
 3066 00d4 00800040 		.word	1073774592
 3068              		.section	.text.UART_RxISR_8BIT_FIFOEN,"ax",%progbits
 3069              		.align	1
 3070              		.syntax unified
 3071              		.thumb
 3072              		.thumb_func
 3074              	UART_RxISR_8BIT_FIFOEN:
 3075              		@ args = 0, pretend = 0, frame = 0
 3076              		@ frame_needed = 0, uses_anonymous_args = 0
 3077 0000 2DE9F843 		push	{r3, r4, r5, r6, r7, r8, r9, lr}
 3078 0004 B0F86050 		ldrh	r5, [r0, #96]
 3079 0008 0368     		ldr	r3, [r0]
 3080 000a D3F81C90 		ldr	r9, [r3, #28]
 3081 000e D3F80080 		ldr	r8, [r3]
 3082 0012 9F68     		ldr	r7, [r3, #8]
 3083 0014 D0F88C20 		ldr	r2, [r0, #140]
 3084 0018 222A     		cmp	r2, #34
 3085 001a 05D0     		beq	.L329
 3086 001c 9A69     		ldr	r2, [r3, #24]
 3087 001e 42F00802 		orr	r2, r2, #8
 3088 0022 9A61     		str	r2, [r3, #24]
 3089              	.L309:
 3090 0024 BDE8F883 		pop	{r3, r4, r5, r6, r7, r8, r9, pc}
 3091              	.L329:
 3092 0028 0446     		mov	r4, r0
 3093 002a B0F86860 		ldrh	r6, [r0, #104]
 3094 002e 08E0     		b	.L311
 3095              	.L315:
 3096 0030 D4F89030 		ldr	r3, [r4, #144]
 3097 0034 002B     		cmp	r3, #0
 3098 0036 4DD1     		bne	.L330
 3099              	.L312:
 3100 0038 B4F85E30 		ldrh	r3, [r4, #94]
 3101 003c 9BB2     		uxth	r3, r3
 3102 003e 002B     		cmp	r3, #0
 3103 0040 4FD0     		beq	.L316
 3104              	.L311:
ARM GAS  C:\Users\Nathan\AppData\Local\Temp\ccuUV3Of.s 			page 54


 3105 0042 002E     		cmp	r6, #0
 3106 0044 00F09580 		beq	.L323
 3107 0048 19F0200F 		tst	r9, #32
 3108 004c 00F09180 		beq	.L323
 3109 0050 2368     		ldr	r3, [r4]
 3110 0052 596A     		ldr	r1, [r3, #36]
 3111 0054 EBB2     		uxtb	r3, r5
 3112 0056 A26D     		ldr	r2, [r4, #88]
 3113 0058 0B40     		ands	r3, r3, r1
 3114 005a 1370     		strb	r3, [r2]
 3115 005c A36D     		ldr	r3, [r4, #88]
 3116 005e 0133     		adds	r3, r3, #1
 3117 0060 A365     		str	r3, [r4, #88]
 3118 0062 B4F85E30 		ldrh	r3, [r4, #94]
 3119 0066 9BB2     		uxth	r3, r3
 3120 0068 013B     		subs	r3, r3, #1
 3121 006a 9BB2     		uxth	r3, r3
 3122 006c A4F85E30 		strh	r3, [r4, #94]	@ movhi
 3123 0070 2368     		ldr	r3, [r4]
 3124 0072 D3F81C90 		ldr	r9, [r3, #28]
 3125 0076 19F0070F 		tst	r9, #7
 3126 007a DDD0     		beq	.L312
 3127 007c 19F0010F 		tst	r9, #1
 3128 0080 09D0     		beq	.L313
 3129 0082 18F4807F 		tst	r8, #256
 3130 0086 06D0     		beq	.L313
 3131 0088 0122     		movs	r2, #1
 3132 008a 1A62     		str	r2, [r3, #32]
 3133 008c D4F89030 		ldr	r3, [r4, #144]
 3134 0090 1343     		orrs	r3, r3, r2
 3135 0092 C4F89030 		str	r3, [r4, #144]
 3136              	.L313:
 3137 0096 19F0020F 		tst	r9, #2
 3138 009a 0BD0     		beq	.L314
 3139 009c 17F0010F 		tst	r7, #1
 3140 00a0 08D0     		beq	.L314
 3141 00a2 2368     		ldr	r3, [r4]
 3142 00a4 0222     		movs	r2, #2
 3143 00a6 1A62     		str	r2, [r3, #32]
 3144 00a8 D4F89030 		ldr	r3, [r4, #144]
 3145 00ac 43F00403 		orr	r3, r3, #4
 3146 00b0 C4F89030 		str	r3, [r4, #144]
 3147              	.L314:
 3148 00b4 19F0040F 		tst	r9, #4
 3149 00b8 BAD0     		beq	.L315
 3150 00ba 17F0010F 		tst	r7, #1
 3151 00be B7D0     		beq	.L315
 3152 00c0 2368     		ldr	r3, [r4]
 3153 00c2 0422     		movs	r2, #4
 3154 00c4 1A62     		str	r2, [r3, #32]
 3155 00c6 D4F89030 		ldr	r3, [r4, #144]
 3156 00ca 43F00203 		orr	r3, r3, #2
 3157 00ce C4F89030 		str	r3, [r4, #144]
 3158 00d2 ADE7     		b	.L315
 3159              	.L330:
 3160 00d4 2046     		mov	r0, r4
 3161 00d6 FFF7FEFF 		bl	HAL_UART_ErrorCallback
ARM GAS  C:\Users\Nathan\AppData\Local\Temp\ccuUV3Of.s 			page 55


 3162 00da 0023     		movs	r3, #0
 3163 00dc C4F89030 		str	r3, [r4, #144]
 3164 00e0 AAE7     		b	.L312
 3165              	.L316:
 3166 00e2 2268     		ldr	r2, [r4]
 3167              		.syntax unified
 3168              	@ 1155 "Drivers/CMSIS/Include/cmsis_gcc.h" 1
 3169 00e4 52E8003F 		ldrex r3, [r2]
 3170              	@ 0 "" 2
 3171              		.thumb
 3172              		.syntax unified
 3173 00e8 23F48073 		bic	r3, r3, #256
 3174              		.syntax unified
 3175              	@ 1206 "Drivers/CMSIS/Include/cmsis_gcc.h" 1
 3176 00ec 42E80031 		strex r1, r3, [r2]
 3177              	@ 0 "" 2
 3178              		.thumb
 3179              		.syntax unified
 3180 00f0 0029     		cmp	r1, #0
 3181 00f2 F6D1     		bne	.L316
 3182              	.L317:
 3183 00f4 2268     		ldr	r2, [r4]
 3184 00f6 02F10803 		add	r3, r2, #8
 3185              		.syntax unified
 3186              	@ 1155 "Drivers/CMSIS/Include/cmsis_gcc.h" 1
 3187 00fa 53E8003F 		ldrex r3, [r3]
 3188              	@ 0 "" 2
 3189              		.thumb
 3190              		.syntax unified
 3191 00fe 23F08053 		bic	r3, r3, #268435456
 3192 0102 23F00103 		bic	r3, r3, #1
 3193 0106 0832     		adds	r2, r2, #8
 3194              		.syntax unified
 3195              	@ 1206 "Drivers/CMSIS/Include/cmsis_gcc.h" 1
 3196 0108 42E80031 		strex r1, r3, [r2]
 3197              	@ 0 "" 2
 3198              		.thumb
 3199              		.syntax unified
 3200 010c 0029     		cmp	r1, #0
 3201 010e F1D1     		bne	.L317
 3202 0110 2023     		movs	r3, #32
 3203 0112 C4F88C30 		str	r3, [r4, #140]
 3204 0116 0023     		movs	r3, #0
 3205 0118 6367     		str	r3, [r4, #116]
 3206 011a 2367     		str	r3, [r4, #112]
 3207 011c 2368     		ldr	r3, [r4]
 3208 011e 284A     		ldr	r2, .L331
 3209 0120 9342     		cmp	r3, r2
 3210 0122 0CD0     		beq	.L318
 3211 0124 5B68     		ldr	r3, [r3, #4]
 3212 0126 13F4000F 		tst	r3, #8388608
 3213 012a 08D0     		beq	.L318
 3214              	.L319:
 3215 012c 2268     		ldr	r2, [r4]
 3216              		.syntax unified
 3217              	@ 1155 "Drivers/CMSIS/Include/cmsis_gcc.h" 1
 3218 012e 52E8003F 		ldrex r3, [r2]
ARM GAS  C:\Users\Nathan\AppData\Local\Temp\ccuUV3Of.s 			page 56


 3219              	@ 0 "" 2
 3220              		.thumb
 3221              		.syntax unified
 3222 0132 23F08063 		bic	r3, r3, #67108864
 3223              		.syntax unified
 3224              	@ 1206 "Drivers/CMSIS/Include/cmsis_gcc.h" 1
 3225 0136 42E80031 		strex r1, r3, [r2]
 3226              	@ 0 "" 2
 3227              		.thumb
 3228              		.syntax unified
 3229 013a 0029     		cmp	r1, #0
 3230 013c F6D1     		bne	.L319
 3231              	.L318:
 3232 013e E36E     		ldr	r3, [r4, #108]
 3233 0140 012B     		cmp	r3, #1
 3234 0142 39D1     		bne	.L320
 3235 0144 0023     		movs	r3, #0
 3236 0146 E366     		str	r3, [r4, #108]
 3237              	.L321:
 3238 0148 2268     		ldr	r2, [r4]
 3239              		.syntax unified
 3240              	@ 1155 "Drivers/CMSIS/Include/cmsis_gcc.h" 1
 3241 014a 52E8003F 		ldrex r3, [r2]
 3242              	@ 0 "" 2
 3243              		.thumb
 3244              		.syntax unified
 3245 014e 23F01003 		bic	r3, r3, #16
 3246              		.syntax unified
 3247              	@ 1206 "Drivers/CMSIS/Include/cmsis_gcc.h" 1
 3248 0152 42E80031 		strex r1, r3, [r2]
 3249              	@ 0 "" 2
 3250              		.thumb
 3251              		.syntax unified
 3252 0156 0029     		cmp	r1, #0
 3253 0158 F6D1     		bne	.L321
 3254 015a 2368     		ldr	r3, [r4]
 3255 015c DA69     		ldr	r2, [r3, #28]
 3256 015e 12F0100F 		tst	r2, #16
 3257 0162 01D0     		beq	.L322
 3258 0164 1022     		movs	r2, #16
 3259 0166 1A62     		str	r2, [r3, #32]
 3260              	.L322:
 3261 0168 B4F85C10 		ldrh	r1, [r4, #92]
 3262 016c 2046     		mov	r0, r4
 3263 016e FFF7FEFF 		bl	HAL_UARTEx_RxEventCallback
 3264              	.L323:
 3265 0172 B4F85E30 		ldrh	r3, [r4, #94]
 3266 0176 9BB2     		uxth	r3, r3
 3267 0178 002B     		cmp	r3, #0
 3268 017a 3FF453AF 		beq	.L309
 3269 017e B4F86820 		ldrh	r2, [r4, #104]
 3270 0182 9A42     		cmp	r2, r3
 3271 0184 7FF64EAF 		bls	.L309
 3272              	.L326:
 3273 0188 2268     		ldr	r2, [r4]
 3274 018a 02F10803 		add	r3, r2, #8
 3275              		.syntax unified
ARM GAS  C:\Users\Nathan\AppData\Local\Temp\ccuUV3Of.s 			page 57


 3276              	@ 1155 "Drivers/CMSIS/Include/cmsis_gcc.h" 1
 3277 018e 53E8003F 		ldrex r3, [r3]
 3278              	@ 0 "" 2
 3279              		.thumb
 3280              		.syntax unified
 3281 0192 23F08053 		bic	r3, r3, #268435456
 3282 0196 0832     		adds	r2, r2, #8
 3283              		.syntax unified
 3284              	@ 1206 "Drivers/CMSIS/Include/cmsis_gcc.h" 1
 3285 0198 42E80031 		strex r1, r3, [r2]
 3286              	@ 0 "" 2
 3287              		.thumb
 3288              		.syntax unified
 3289 019c 0029     		cmp	r1, #0
 3290 019e F3D1     		bne	.L326
 3291 01a0 084B     		ldr	r3, .L331+4
 3292 01a2 6367     		str	r3, [r4, #116]
 3293              	.L327:
 3294 01a4 2268     		ldr	r2, [r4]
 3295              		.syntax unified
 3296              	@ 1155 "Drivers/CMSIS/Include/cmsis_gcc.h" 1
 3297 01a6 52E8003F 		ldrex r3, [r2]
 3298              	@ 0 "" 2
 3299              		.thumb
 3300              		.syntax unified
 3301 01aa 43F02003 		orr	r3, r3, #32
 3302              		.syntax unified
 3303              	@ 1206 "Drivers/CMSIS/Include/cmsis_gcc.h" 1
 3304 01ae 42E80031 		strex r1, r3, [r2]
 3305              	@ 0 "" 2
 3306              		.thumb
 3307              		.syntax unified
 3308 01b2 0029     		cmp	r1, #0
 3309 01b4 F6D1     		bne	.L327
 3310 01b6 35E7     		b	.L309
 3311              	.L320:
 3312 01b8 2046     		mov	r0, r4
 3313 01ba FFF7FEFF 		bl	HAL_UART_RxCpltCallback
 3314 01be D8E7     		b	.L323
 3315              	.L332:
 3316              		.align	2
 3317              	.L331:
 3318 01c0 00800040 		.word	1073774592
 3319 01c4 00000000 		.word	UART_RxISR_8BIT
 3321              		.section	.text.UART_RxISR_16BIT_FIFOEN,"ax",%progbits
 3322              		.align	1
 3323              		.syntax unified
 3324              		.thumb
 3325              		.thumb_func
 3327              	UART_RxISR_16BIT_FIFOEN:
 3328              		@ args = 0, pretend = 0, frame = 0
 3329              		@ frame_needed = 0, uses_anonymous_args = 0
 3330 0000 2DE9F843 		push	{r3, r4, r5, r6, r7, r8, r9, lr}
 3331 0004 B0F86050 		ldrh	r5, [r0, #96]
 3332 0008 0368     		ldr	r3, [r0]
 3333 000a D3F81C90 		ldr	r9, [r3, #28]
 3334 000e D3F80080 		ldr	r8, [r3]
ARM GAS  C:\Users\Nathan\AppData\Local\Temp\ccuUV3Of.s 			page 58


 3335 0012 9F68     		ldr	r7, [r3, #8]
 3336 0014 D0F88C20 		ldr	r2, [r0, #140]
 3337 0018 222A     		cmp	r2, #34
 3338 001a 05D0     		beq	.L353
 3339 001c 9A69     		ldr	r2, [r3, #24]
 3340 001e 42F00802 		orr	r2, r2, #8
 3341 0022 9A61     		str	r2, [r3, #24]
 3342              	.L333:
 3343 0024 BDE8F883 		pop	{r3, r4, r5, r6, r7, r8, r9, pc}
 3344              	.L353:
 3345 0028 0446     		mov	r4, r0
 3346 002a B0F86860 		ldrh	r6, [r0, #104]
 3347 002e 08E0     		b	.L335
 3348              	.L339:
 3349 0030 D4F89030 		ldr	r3, [r4, #144]
 3350 0034 002B     		cmp	r3, #0
 3351 0036 4CD1     		bne	.L354
 3352              	.L336:
 3353 0038 B4F85E30 		ldrh	r3, [r4, #94]
 3354 003c 9BB2     		uxth	r3, r3
 3355 003e 002B     		cmp	r3, #0
 3356 0040 4ED0     		beq	.L340
 3357              	.L335:
 3358 0042 002E     		cmp	r6, #0
 3359 0044 00F09480 		beq	.L347
 3360 0048 19F0200F 		tst	r9, #32
 3361 004c 00F09080 		beq	.L347
 3362 0050 2368     		ldr	r3, [r4]
 3363 0052 5B6A     		ldr	r3, [r3, #36]
 3364 0054 A26D     		ldr	r2, [r4, #88]
 3365 0056 2B40     		ands	r3, r3, r5
 3366 0058 1380     		strh	r3, [r2]	@ movhi
 3367 005a A36D     		ldr	r3, [r4, #88]
 3368 005c 0233     		adds	r3, r3, #2
 3369 005e A365     		str	r3, [r4, #88]
 3370 0060 B4F85E30 		ldrh	r3, [r4, #94]
 3371 0064 9BB2     		uxth	r3, r3
 3372 0066 013B     		subs	r3, r3, #1
 3373 0068 9BB2     		uxth	r3, r3
 3374 006a A4F85E30 		strh	r3, [r4, #94]	@ movhi
 3375 006e 2368     		ldr	r3, [r4]
 3376 0070 D3F81C90 		ldr	r9, [r3, #28]
 3377 0074 19F0070F 		tst	r9, #7
 3378 0078 DED0     		beq	.L336
 3379 007a 19F0010F 		tst	r9, #1
 3380 007e 09D0     		beq	.L337
 3381 0080 18F4807F 		tst	r8, #256
 3382 0084 06D0     		beq	.L337
 3383 0086 0122     		movs	r2, #1
 3384 0088 1A62     		str	r2, [r3, #32]
 3385 008a D4F89030 		ldr	r3, [r4, #144]
 3386 008e 1343     		orrs	r3, r3, r2
 3387 0090 C4F89030 		str	r3, [r4, #144]
 3388              	.L337:
 3389 0094 19F0020F 		tst	r9, #2
 3390 0098 0BD0     		beq	.L338
 3391 009a 17F0010F 		tst	r7, #1
ARM GAS  C:\Users\Nathan\AppData\Local\Temp\ccuUV3Of.s 			page 59


 3392 009e 08D0     		beq	.L338
 3393 00a0 2368     		ldr	r3, [r4]
 3394 00a2 0222     		movs	r2, #2
 3395 00a4 1A62     		str	r2, [r3, #32]
 3396 00a6 D4F89030 		ldr	r3, [r4, #144]
 3397 00aa 43F00403 		orr	r3, r3, #4
 3398 00ae C4F89030 		str	r3, [r4, #144]
 3399              	.L338:
 3400 00b2 19F0040F 		tst	r9, #4
 3401 00b6 BBD0     		beq	.L339
 3402 00b8 17F0010F 		tst	r7, #1
 3403 00bc B8D0     		beq	.L339
 3404 00be 2368     		ldr	r3, [r4]
 3405 00c0 0422     		movs	r2, #4
 3406 00c2 1A62     		str	r2, [r3, #32]
 3407 00c4 D4F89030 		ldr	r3, [r4, #144]
 3408 00c8 43F00203 		orr	r3, r3, #2
 3409 00cc C4F89030 		str	r3, [r4, #144]
 3410 00d0 AEE7     		b	.L339
 3411              	.L354:
 3412 00d2 2046     		mov	r0, r4
 3413 00d4 FFF7FEFF 		bl	HAL_UART_ErrorCallback
 3414 00d8 0023     		movs	r3, #0
 3415 00da C4F89030 		str	r3, [r4, #144]
 3416 00de ABE7     		b	.L336
 3417              	.L340:
 3418 00e0 2268     		ldr	r2, [r4]
 3419              		.syntax unified
 3420              	@ 1155 "Drivers/CMSIS/Include/cmsis_gcc.h" 1
 3421 00e2 52E8003F 		ldrex r3, [r2]
 3422              	@ 0 "" 2
 3423              		.thumb
 3424              		.syntax unified
 3425 00e6 23F48073 		bic	r3, r3, #256
 3426              		.syntax unified
 3427              	@ 1206 "Drivers/CMSIS/Include/cmsis_gcc.h" 1
 3428 00ea 42E80031 		strex r1, r3, [r2]
 3429              	@ 0 "" 2
 3430              		.thumb
 3431              		.syntax unified
 3432 00ee 0029     		cmp	r1, #0
 3433 00f0 F6D1     		bne	.L340
 3434              	.L341:
 3435 00f2 2268     		ldr	r2, [r4]
 3436 00f4 02F10803 		add	r3, r2, #8
 3437              		.syntax unified
 3438              	@ 1155 "Drivers/CMSIS/Include/cmsis_gcc.h" 1
 3439 00f8 53E8003F 		ldrex r3, [r3]
 3440              	@ 0 "" 2
 3441              		.thumb
 3442              		.syntax unified
 3443 00fc 23F08053 		bic	r3, r3, #268435456
 3444 0100 23F00103 		bic	r3, r3, #1
 3445 0104 0832     		adds	r2, r2, #8
 3446              		.syntax unified
 3447              	@ 1206 "Drivers/CMSIS/Include/cmsis_gcc.h" 1
 3448 0106 42E80031 		strex r1, r3, [r2]
ARM GAS  C:\Users\Nathan\AppData\Local\Temp\ccuUV3Of.s 			page 60


 3449              	@ 0 "" 2
 3450              		.thumb
 3451              		.syntax unified
 3452 010a 0029     		cmp	r1, #0
 3453 010c F1D1     		bne	.L341
 3454 010e 2023     		movs	r3, #32
 3455 0110 C4F88C30 		str	r3, [r4, #140]
 3456 0114 0023     		movs	r3, #0
 3457 0116 6367     		str	r3, [r4, #116]
 3458 0118 2367     		str	r3, [r4, #112]
 3459 011a 2368     		ldr	r3, [r4]
 3460 011c 284A     		ldr	r2, .L355
 3461 011e 9342     		cmp	r3, r2
 3462 0120 0CD0     		beq	.L342
 3463 0122 5B68     		ldr	r3, [r3, #4]
 3464 0124 13F4000F 		tst	r3, #8388608
 3465 0128 08D0     		beq	.L342
 3466              	.L343:
 3467 012a 2268     		ldr	r2, [r4]
 3468              		.syntax unified
 3469              	@ 1155 "Drivers/CMSIS/Include/cmsis_gcc.h" 1
 3470 012c 52E8003F 		ldrex r3, [r2]
 3471              	@ 0 "" 2
 3472              		.thumb
 3473              		.syntax unified
 3474 0130 23F08063 		bic	r3, r3, #67108864
 3475              		.syntax unified
 3476              	@ 1206 "Drivers/CMSIS/Include/cmsis_gcc.h" 1
 3477 0134 42E80031 		strex r1, r3, [r2]
 3478              	@ 0 "" 2
 3479              		.thumb
 3480              		.syntax unified
 3481 0138 0029     		cmp	r1, #0
 3482 013a F6D1     		bne	.L343
 3483              	.L342:
 3484 013c E36E     		ldr	r3, [r4, #108]
 3485 013e 012B     		cmp	r3, #1
 3486 0140 39D1     		bne	.L344
 3487 0142 0023     		movs	r3, #0
 3488 0144 E366     		str	r3, [r4, #108]
 3489              	.L345:
 3490 0146 2268     		ldr	r2, [r4]
 3491              		.syntax unified
 3492              	@ 1155 "Drivers/CMSIS/Include/cmsis_gcc.h" 1
 3493 0148 52E8003F 		ldrex r3, [r2]
 3494              	@ 0 "" 2
 3495              		.thumb
 3496              		.syntax unified
 3497 014c 23F01003 		bic	r3, r3, #16
 3498              		.syntax unified
 3499              	@ 1206 "Drivers/CMSIS/Include/cmsis_gcc.h" 1
 3500 0150 42E80031 		strex r1, r3, [r2]
 3501              	@ 0 "" 2
 3502              		.thumb
 3503              		.syntax unified
 3504 0154 0029     		cmp	r1, #0
 3505 0156 F6D1     		bne	.L345
ARM GAS  C:\Users\Nathan\AppData\Local\Temp\ccuUV3Of.s 			page 61


 3506 0158 2368     		ldr	r3, [r4]
 3507 015a DA69     		ldr	r2, [r3, #28]
 3508 015c 12F0100F 		tst	r2, #16
 3509 0160 01D0     		beq	.L346
 3510 0162 1022     		movs	r2, #16
 3511 0164 1A62     		str	r2, [r3, #32]
 3512              	.L346:
 3513 0166 B4F85C10 		ldrh	r1, [r4, #92]
 3514 016a 2046     		mov	r0, r4
 3515 016c FFF7FEFF 		bl	HAL_UARTEx_RxEventCallback
 3516              	.L347:
 3517 0170 B4F85E30 		ldrh	r3, [r4, #94]
 3518 0174 9BB2     		uxth	r3, r3
 3519 0176 002B     		cmp	r3, #0
 3520 0178 3FF454AF 		beq	.L333
 3521 017c B4F86820 		ldrh	r2, [r4, #104]
 3522 0180 9A42     		cmp	r2, r3
 3523 0182 7FF64FAF 		bls	.L333
 3524              	.L350:
 3525 0186 2268     		ldr	r2, [r4]
 3526 0188 02F10803 		add	r3, r2, #8
 3527              		.syntax unified
 3528              	@ 1155 "Drivers/CMSIS/Include/cmsis_gcc.h" 1
 3529 018c 53E8003F 		ldrex r3, [r3]
 3530              	@ 0 "" 2
 3531              		.thumb
 3532              		.syntax unified
 3533 0190 23F08053 		bic	r3, r3, #268435456
 3534 0194 0832     		adds	r2, r2, #8
 3535              		.syntax unified
 3536              	@ 1206 "Drivers/CMSIS/Include/cmsis_gcc.h" 1
 3537 0196 42E80031 		strex r1, r3, [r2]
 3538              	@ 0 "" 2
 3539              		.thumb
 3540              		.syntax unified
 3541 019a 0029     		cmp	r1, #0
 3542 019c F3D1     		bne	.L350
 3543 019e 094B     		ldr	r3, .L355+4
 3544 01a0 6367     		str	r3, [r4, #116]
 3545              	.L351:
 3546 01a2 2268     		ldr	r2, [r4]
 3547              		.syntax unified
 3548              	@ 1155 "Drivers/CMSIS/Include/cmsis_gcc.h" 1
 3549 01a4 52E8003F 		ldrex r3, [r2]
 3550              	@ 0 "" 2
 3551              		.thumb
 3552              		.syntax unified
 3553 01a8 43F02003 		orr	r3, r3, #32
 3554              		.syntax unified
 3555              	@ 1206 "Drivers/CMSIS/Include/cmsis_gcc.h" 1
 3556 01ac 42E80031 		strex r1, r3, [r2]
 3557              	@ 0 "" 2
 3558              		.thumb
 3559              		.syntax unified
 3560 01b0 0029     		cmp	r1, #0
 3561 01b2 F6D1     		bne	.L351
 3562 01b4 36E7     		b	.L333
ARM GAS  C:\Users\Nathan\AppData\Local\Temp\ccuUV3Of.s 			page 62


 3563              	.L344:
 3564 01b6 2046     		mov	r0, r4
 3565 01b8 FFF7FEFF 		bl	HAL_UART_RxCpltCallback
 3566 01bc D8E7     		b	.L347
 3567              	.L356:
 3568 01be 00BF     		.align	2
 3569              	.L355:
 3570 01c0 00800040 		.word	1073774592
 3571 01c4 00000000 		.word	UART_RxISR_16BIT
 3573              		.section	.text.UART_DMARxHalfCplt,"ax",%progbits
 3574              		.align	1
 3575              		.syntax unified
 3576              		.thumb
 3577              		.thumb_func
 3579              	UART_DMARxHalfCplt:
 3580              		@ args = 0, pretend = 0, frame = 0
 3581              		@ frame_needed = 0, uses_anonymous_args = 0
 3582 0000 08B5     		push	{r3, lr}
 3583 0002 0346     		mov	r3, r0
 3584 0004 806A     		ldr	r0, [r0, #40]
 3585 0006 0122     		movs	r2, #1
 3586 0008 0267     		str	r2, [r0, #112]
 3587 000a C26E     		ldr	r2, [r0, #108]
 3588 000c 012A     		cmp	r2, #1
 3589 000e 13D1     		bne	.L358
 3590 0010 B0F85C10 		ldrh	r1, [r0, #92]
 3591 0014 4A08     		lsrs	r2, r1, #1
 3592 0016 A0F85E20 		strh	r2, [r0, #94]	@ movhi
 3593 001a 1B68     		ldr	r3, [r3]
 3594 001c 5B68     		ldr	r3, [r3, #4]
 3595 001e 9BB2     		uxth	r3, r3
 3596 0020 9942     		cmp	r1, r3
 3597 0022 01D3     		bcc	.L359
 3598 0024 A0F85E30 		strh	r3, [r0, #94]	@ movhi
 3599              	.L359:
 3600 0028 B0F85E30 		ldrh	r3, [r0, #94]
 3601 002c 9BB2     		uxth	r3, r3
 3602 002e C91A     		subs	r1, r1, r3
 3603 0030 89B2     		uxth	r1, r1
 3604 0032 FFF7FEFF 		bl	HAL_UARTEx_RxEventCallback
 3605              	.L357:
 3606 0036 08BD     		pop	{r3, pc}
 3607              	.L358:
 3608 0038 FFF7FEFF 		bl	HAL_UART_RxHalfCpltCallback
 3609 003c FBE7     		b	.L357
 3611              		.section	.text.UART_DMAReceiveCplt,"ax",%progbits
 3612              		.align	1
 3613              		.syntax unified
 3614              		.thumb
 3615              		.thumb_func
 3617              	UART_DMAReceiveCplt:
 3618              		@ args = 0, pretend = 0, frame = 0
 3619              		@ frame_needed = 0, uses_anonymous_args = 0
 3620 0000 08B5     		push	{r3, lr}
 3621 0002 8446     		mov	ip, r0
 3622 0004 806A     		ldr	r0, [r0, #40]
 3623 0006 DCF80030 		ldr	r3, [ip]
ARM GAS  C:\Users\Nathan\AppData\Local\Temp\ccuUV3Of.s 			page 63


 3624 000a 1B68     		ldr	r3, [r3]
 3625 000c 13F0200F 		tst	r3, #32
 3626 0010 29D1     		bne	.L363
 3627 0012 0023     		movs	r3, #0
 3628 0014 A0F85E30 		strh	r3, [r0, #94]	@ movhi
 3629              	.L364:
 3630 0018 0268     		ldr	r2, [r0]
 3631              		.syntax unified
 3632              	@ 1155 "Drivers/CMSIS/Include/cmsis_gcc.h" 1
 3633 001a 52E8003F 		ldrex r3, [r2]
 3634              	@ 0 "" 2
 3635              		.thumb
 3636              		.syntax unified
 3637 001e 23F48073 		bic	r3, r3, #256
 3638              		.syntax unified
 3639              	@ 1206 "Drivers/CMSIS/Include/cmsis_gcc.h" 1
 3640 0022 42E80031 		strex r1, r3, [r2]
 3641              	@ 0 "" 2
 3642              		.thumb
 3643              		.syntax unified
 3644 0026 0029     		cmp	r1, #0
 3645 0028 F6D1     		bne	.L364
 3646              	.L365:
 3647 002a 0268     		ldr	r2, [r0]
 3648 002c 02F10803 		add	r3, r2, #8
 3649              		.syntax unified
 3650              	@ 1155 "Drivers/CMSIS/Include/cmsis_gcc.h" 1
 3651 0030 53E8003F 		ldrex r3, [r3]
 3652              	@ 0 "" 2
 3653              		.thumb
 3654              		.syntax unified
 3655 0034 23F00103 		bic	r3, r3, #1
 3656 0038 0832     		adds	r2, r2, #8
 3657              		.syntax unified
 3658              	@ 1206 "Drivers/CMSIS/Include/cmsis_gcc.h" 1
 3659 003a 42E80031 		strex r1, r3, [r2]
 3660              	@ 0 "" 2
 3661              		.thumb
 3662              		.syntax unified
 3663 003e 0029     		cmp	r1, #0
 3664 0040 F3D1     		bne	.L365
 3665              	.L366:
 3666 0042 0268     		ldr	r2, [r0]
 3667 0044 02F10803 		add	r3, r2, #8
 3668              		.syntax unified
 3669              	@ 1155 "Drivers/CMSIS/Include/cmsis_gcc.h" 1
 3670 0048 53E8003F 		ldrex r3, [r3]
 3671              	@ 0 "" 2
 3672              		.thumb
 3673              		.syntax unified
 3674 004c 23F04003 		bic	r3, r3, #64
 3675 0050 0832     		adds	r2, r2, #8
 3676              		.syntax unified
 3677              	@ 1206 "Drivers/CMSIS/Include/cmsis_gcc.h" 1
 3678 0052 42E80031 		strex r1, r3, [r2]
 3679              	@ 0 "" 2
 3680              		.thumb
ARM GAS  C:\Users\Nathan\AppData\Local\Temp\ccuUV3Of.s 			page 64


 3681              		.syntax unified
 3682 0056 0029     		cmp	r1, #0
 3683 0058 F3D1     		bne	.L366
 3684 005a 2023     		movs	r3, #32
 3685 005c C0F88C30 		str	r3, [r0, #140]
 3686 0060 C36E     		ldr	r3, [r0, #108]
 3687 0062 012B     		cmp	r3, #1
 3688 0064 19D0     		beq	.L367
 3689              	.L363:
 3690 0066 0023     		movs	r3, #0
 3691 0068 0367     		str	r3, [r0, #112]
 3692 006a C36E     		ldr	r3, [r0, #108]
 3693 006c 012B     		cmp	r3, #1
 3694 006e 1ED1     		bne	.L368
 3695 0070 0023     		movs	r3, #0
 3696 0072 A0F85E30 		strh	r3, [r0, #94]	@ movhi
 3697 0076 DCF80030 		ldr	r3, [ip]
 3698 007a 5B68     		ldr	r3, [r3, #4]
 3699 007c 9BB2     		uxth	r3, r3
 3700 007e B0F85C10 		ldrh	r1, [r0, #92]
 3701 0082 9942     		cmp	r1, r3
 3702 0084 01D9     		bls	.L369
 3703 0086 A0F85E30 		strh	r3, [r0, #94]	@ movhi
 3704              	.L369:
 3705 008a B0F85E30 		ldrh	r3, [r0, #94]
 3706 008e 9BB2     		uxth	r3, r3
 3707 0090 C91A     		subs	r1, r1, r3
 3708 0092 89B2     		uxth	r1, r1
 3709 0094 FFF7FEFF 		bl	HAL_UARTEx_RxEventCallback
 3710              	.L362:
 3711 0098 08BD     		pop	{r3, pc}
 3712              	.L367:
 3713 009a 0268     		ldr	r2, [r0]
 3714              		.syntax unified
 3715              	@ 1155 "Drivers/CMSIS/Include/cmsis_gcc.h" 1
 3716 009c 52E8003F 		ldrex r3, [r2]
 3717              	@ 0 "" 2
 3718              		.thumb
 3719              		.syntax unified
 3720 00a0 23F01003 		bic	r3, r3, #16
 3721              		.syntax unified
 3722              	@ 1206 "Drivers/CMSIS/Include/cmsis_gcc.h" 1
 3723 00a4 42E80031 		strex r1, r3, [r2]
 3724              	@ 0 "" 2
 3725              		.thumb
 3726              		.syntax unified
 3727 00a8 0029     		cmp	r1, #0
 3728 00aa F6D1     		bne	.L367
 3729 00ac DBE7     		b	.L363
 3730              	.L368:
 3731 00ae FFF7FEFF 		bl	HAL_UART_RxCpltCallback
 3732 00b2 F1E7     		b	.L362
 3734              		.section	.text.HAL_UART_ReceiverTimeout_Config,"ax",%progbits
 3735              		.align	1
 3736              		.global	HAL_UART_ReceiverTimeout_Config
 3737              		.syntax unified
 3738              		.thumb
ARM GAS  C:\Users\Nathan\AppData\Local\Temp\ccuUV3Of.s 			page 65


 3739              		.thumb_func
 3741              	HAL_UART_ReceiverTimeout_Config:
 3742              		@ args = 0, pretend = 0, frame = 0
 3743              		@ frame_needed = 0, uses_anonymous_args = 0
 3744              		@ link register save eliminated.
 3745 0000 0268     		ldr	r2, [r0]
 3746 0002 044B     		ldr	r3, .L374
 3747 0004 9A42     		cmp	r2, r3
 3748 0006 04D0     		beq	.L372
 3749 0008 5369     		ldr	r3, [r2, #20]
 3750 000a 03F07F43 		and	r3, r3, #-16777216
 3751 000e 1943     		orrs	r1, r1, r3
 3752 0010 5161     		str	r1, [r2, #20]
 3753              	.L372:
 3754 0012 7047     		bx	lr
 3755              	.L375:
 3756              		.align	2
 3757              	.L374:
 3758 0014 00800040 		.word	1073774592
 3760              		.section	.text.HAL_UART_EnableReceiverTimeout,"ax",%progbits
 3761              		.align	1
 3762              		.global	HAL_UART_EnableReceiverTimeout
 3763              		.syntax unified
 3764              		.thumb
 3765              		.thumb_func
 3767              	HAL_UART_EnableReceiverTimeout:
 3768              		@ args = 0, pretend = 0, frame = 0
 3769              		@ frame_needed = 0, uses_anonymous_args = 0
 3770              		@ link register save eliminated.
 3771 0000 0368     		ldr	r3, [r0]
 3772 0002 114A     		ldr	r2, .L381
 3773 0004 9342     		cmp	r3, r2
 3774 0006 19D0     		beq	.L378
 3775 0008 D0F88820 		ldr	r2, [r0, #136]
 3776 000c 202A     		cmp	r2, #32
 3777 000e 17D1     		bne	.L379
 3778 0010 90F88420 		ldrb	r2, [r0, #132]	@ zero_extendqisi2
 3779 0014 012A     		cmp	r2, #1
 3780 0016 15D0     		beq	.L380
 3781 0018 0122     		movs	r2, #1
 3782 001a 80F88420 		strb	r2, [r0, #132]
 3783 001e 2422     		movs	r2, #36
 3784 0020 C0F88820 		str	r2, [r0, #136]
 3785 0024 5A68     		ldr	r2, [r3, #4]
 3786 0026 42F40002 		orr	r2, r2, #8388608
 3787 002a 5A60     		str	r2, [r3, #4]
 3788 002c 2023     		movs	r3, #32
 3789 002e C0F88830 		str	r3, [r0, #136]
 3790 0032 0023     		movs	r3, #0
 3791 0034 80F88430 		strb	r3, [r0, #132]
 3792 0038 1846     		mov	r0, r3
 3793 003a 7047     		bx	lr
 3794              	.L378:
 3795 003c 0120     		movs	r0, #1
 3796 003e 7047     		bx	lr
 3797              	.L379:
 3798 0040 0220     		movs	r0, #2
ARM GAS  C:\Users\Nathan\AppData\Local\Temp\ccuUV3Of.s 			page 66


 3799 0042 7047     		bx	lr
 3800              	.L380:
 3801 0044 0220     		movs	r0, #2
 3802 0046 7047     		bx	lr
 3803              	.L382:
 3804              		.align	2
 3805              	.L381:
 3806 0048 00800040 		.word	1073774592
 3808              		.section	.text.HAL_UART_DisableReceiverTimeout,"ax",%progbits
 3809              		.align	1
 3810              		.global	HAL_UART_DisableReceiverTimeout
 3811              		.syntax unified
 3812              		.thumb
 3813              		.thumb_func
 3815              	HAL_UART_DisableReceiverTimeout:
 3816              		@ args = 0, pretend = 0, frame = 0
 3817              		@ frame_needed = 0, uses_anonymous_args = 0
 3818              		@ link register save eliminated.
 3819 0000 0368     		ldr	r3, [r0]
 3820 0002 114A     		ldr	r2, .L388
 3821 0004 9342     		cmp	r3, r2
 3822 0006 19D0     		beq	.L385
 3823 0008 D0F88820 		ldr	r2, [r0, #136]
 3824 000c 202A     		cmp	r2, #32
 3825 000e 17D1     		bne	.L386
 3826 0010 90F88420 		ldrb	r2, [r0, #132]	@ zero_extendqisi2
 3827 0014 012A     		cmp	r2, #1
 3828 0016 15D0     		beq	.L387
 3829 0018 0122     		movs	r2, #1
 3830 001a 80F88420 		strb	r2, [r0, #132]
 3831 001e 2422     		movs	r2, #36
 3832 0020 C0F88820 		str	r2, [r0, #136]
 3833 0024 5A68     		ldr	r2, [r3, #4]
 3834 0026 22F40002 		bic	r2, r2, #8388608
 3835 002a 5A60     		str	r2, [r3, #4]
 3836 002c 2023     		movs	r3, #32
 3837 002e C0F88830 		str	r3, [r0, #136]
 3838 0032 0023     		movs	r3, #0
 3839 0034 80F88430 		strb	r3, [r0, #132]
 3840 0038 1846     		mov	r0, r3
 3841 003a 7047     		bx	lr
 3842              	.L385:
 3843 003c 0120     		movs	r0, #1
 3844 003e 7047     		bx	lr
 3845              	.L386:
 3846 0040 0220     		movs	r0, #2
 3847 0042 7047     		bx	lr
 3848              	.L387:
 3849 0044 0220     		movs	r0, #2
 3850 0046 7047     		bx	lr
 3851              	.L389:
 3852              		.align	2
 3853              	.L388:
 3854 0048 00800040 		.word	1073774592
 3856              		.section	.text.HAL_MultiProcessor_EnterMuteMode,"ax",%progbits
 3857              		.align	1
 3858              		.global	HAL_MultiProcessor_EnterMuteMode
ARM GAS  C:\Users\Nathan\AppData\Local\Temp\ccuUV3Of.s 			page 67


 3859              		.syntax unified
 3860              		.thumb
 3861              		.thumb_func
 3863              	HAL_MultiProcessor_EnterMuteMode:
 3864              		@ args = 0, pretend = 0, frame = 0
 3865              		@ frame_needed = 0, uses_anonymous_args = 0
 3866              		@ link register save eliminated.
 3867 0000 0268     		ldr	r2, [r0]
 3868 0002 9369     		ldr	r3, [r2, #24]
 3869 0004 43F00403 		orr	r3, r3, #4
 3870 0008 9361     		str	r3, [r2, #24]
 3871 000a 7047     		bx	lr
 3873              		.section	.text.HAL_HalfDuplex_EnableTransmitter,"ax",%progbits
 3874              		.align	1
 3875              		.global	HAL_HalfDuplex_EnableTransmitter
 3876              		.syntax unified
 3877              		.thumb
 3878              		.thumb_func
 3880              	HAL_HalfDuplex_EnableTransmitter:
 3881              		@ args = 0, pretend = 0, frame = 0
 3882              		@ frame_needed = 0, uses_anonymous_args = 0
 3883              		@ link register save eliminated.
 3884 0000 90F88430 		ldrb	r3, [r0, #132]	@ zero_extendqisi2
 3885 0004 012B     		cmp	r3, #1
 3886 0006 1FD0     		beq	.L395
 3887 0008 0123     		movs	r3, #1
 3888 000a 80F88430 		strb	r3, [r0, #132]
 3889 000e 2423     		movs	r3, #36
 3890 0010 C0F88830 		str	r3, [r0, #136]
 3891              	.L393:
 3892 0014 0268     		ldr	r2, [r0]
 3893              		.syntax unified
 3894              	@ 1155 "Drivers/CMSIS/Include/cmsis_gcc.h" 1
 3895 0016 52E8003F 		ldrex r3, [r2]
 3896              	@ 0 "" 2
 3897              		.thumb
 3898              		.syntax unified
 3899 001a 23F00C03 		bic	r3, r3, #12
 3900              		.syntax unified
 3901              	@ 1206 "Drivers/CMSIS/Include/cmsis_gcc.h" 1
 3902 001e 42E80031 		strex r1, r3, [r2]
 3903              	@ 0 "" 2
 3904              		.thumb
 3905              		.syntax unified
 3906 0022 0029     		cmp	r1, #0
 3907 0024 F6D1     		bne	.L393
 3908              	.L394:
 3909 0026 0268     		ldr	r2, [r0]
 3910              		.syntax unified
 3911              	@ 1155 "Drivers/CMSIS/Include/cmsis_gcc.h" 1
 3912 0028 52E8003F 		ldrex r3, [r2]
 3913              	@ 0 "" 2
 3914              		.thumb
 3915              		.syntax unified
 3916 002c 43F00803 		orr	r3, r3, #8
 3917              		.syntax unified
 3918              	@ 1206 "Drivers/CMSIS/Include/cmsis_gcc.h" 1
ARM GAS  C:\Users\Nathan\AppData\Local\Temp\ccuUV3Of.s 			page 68


 3919 0030 42E80031 		strex r1, r3, [r2]
 3920              	@ 0 "" 2
 3921              		.thumb
 3922              		.syntax unified
 3923 0034 0029     		cmp	r1, #0
 3924 0036 F6D1     		bne	.L394
 3925 0038 2023     		movs	r3, #32
 3926 003a C0F88830 		str	r3, [r0, #136]
 3927 003e 0023     		movs	r3, #0
 3928 0040 80F88430 		strb	r3, [r0, #132]
 3929 0044 1846     		mov	r0, r3
 3930 0046 7047     		bx	lr
 3931              	.L395:
 3932 0048 0220     		movs	r0, #2
 3933 004a 7047     		bx	lr
 3935              		.section	.text.HAL_HalfDuplex_EnableReceiver,"ax",%progbits
 3936              		.align	1
 3937              		.global	HAL_HalfDuplex_EnableReceiver
 3938              		.syntax unified
 3939              		.thumb
 3940              		.thumb_func
 3942              	HAL_HalfDuplex_EnableReceiver:
 3943              		@ args = 0, pretend = 0, frame = 0
 3944              		@ frame_needed = 0, uses_anonymous_args = 0
 3945              		@ link register save eliminated.
 3946 0000 90F88430 		ldrb	r3, [r0, #132]	@ zero_extendqisi2
 3947 0004 012B     		cmp	r3, #1
 3948 0006 1FD0     		beq	.L400
 3949 0008 0123     		movs	r3, #1
 3950 000a 80F88430 		strb	r3, [r0, #132]
 3951 000e 2423     		movs	r3, #36
 3952 0010 C0F88830 		str	r3, [r0, #136]
 3953              	.L398:
 3954 0014 0268     		ldr	r2, [r0]
 3955              		.syntax unified
 3956              	@ 1155 "Drivers/CMSIS/Include/cmsis_gcc.h" 1
 3957 0016 52E8003F 		ldrex r3, [r2]
 3958              	@ 0 "" 2
 3959              		.thumb
 3960              		.syntax unified
 3961 001a 23F00C03 		bic	r3, r3, #12
 3962              		.syntax unified
 3963              	@ 1206 "Drivers/CMSIS/Include/cmsis_gcc.h" 1
 3964 001e 42E80031 		strex r1, r3, [r2]
 3965              	@ 0 "" 2
 3966              		.thumb
 3967              		.syntax unified
 3968 0022 0029     		cmp	r1, #0
 3969 0024 F6D1     		bne	.L398
 3970              	.L399:
 3971 0026 0268     		ldr	r2, [r0]
 3972              		.syntax unified
 3973              	@ 1155 "Drivers/CMSIS/Include/cmsis_gcc.h" 1
 3974 0028 52E8003F 		ldrex r3, [r2]
 3975              	@ 0 "" 2
 3976              		.thumb
 3977              		.syntax unified
ARM GAS  C:\Users\Nathan\AppData\Local\Temp\ccuUV3Of.s 			page 69


 3978 002c 43F00403 		orr	r3, r3, #4
 3979              		.syntax unified
 3980              	@ 1206 "Drivers/CMSIS/Include/cmsis_gcc.h" 1
 3981 0030 42E80031 		strex r1, r3, [r2]
 3982              	@ 0 "" 2
 3983              		.thumb
 3984              		.syntax unified
 3985 0034 0029     		cmp	r1, #0
 3986 0036 F6D1     		bne	.L399
 3987 0038 2023     		movs	r3, #32
 3988 003a C0F88830 		str	r3, [r0, #136]
 3989 003e 0023     		movs	r3, #0
 3990 0040 80F88430 		strb	r3, [r0, #132]
 3991 0044 1846     		mov	r0, r3
 3992 0046 7047     		bx	lr
 3993              	.L400:
 3994 0048 0220     		movs	r0, #2
 3995 004a 7047     		bx	lr
 3997              		.section	.text.HAL_LIN_SendBreak,"ax",%progbits
 3998              		.align	1
 3999              		.global	HAL_LIN_SendBreak
 4000              		.syntax unified
 4001              		.thumb
 4002              		.thumb_func
 4004              	HAL_LIN_SendBreak:
 4005              		@ args = 0, pretend = 0, frame = 0
 4006              		@ frame_needed = 0, uses_anonymous_args = 0
 4007              		@ link register save eliminated.
 4008 0000 90F88430 		ldrb	r3, [r0, #132]	@ zero_extendqisi2
 4009 0004 012B     		cmp	r3, #1
 4010 0006 12D0     		beq	.L403
 4011 0008 0123     		movs	r3, #1
 4012 000a 80F88430 		strb	r3, [r0, #132]
 4013 000e 2423     		movs	r3, #36
 4014 0010 C0F88830 		str	r3, [r0, #136]
 4015 0014 0268     		ldr	r2, [r0]
 4016 0016 9369     		ldr	r3, [r2, #24]
 4017 0018 43F00203 		orr	r3, r3, #2
 4018 001c 9361     		str	r3, [r2, #24]
 4019 001e 2023     		movs	r3, #32
 4020 0020 C0F88830 		str	r3, [r0, #136]
 4021 0024 0023     		movs	r3, #0
 4022 0026 80F88430 		strb	r3, [r0, #132]
 4023 002a 1846     		mov	r0, r3
 4024 002c 7047     		bx	lr
 4025              	.L403:
 4026 002e 0220     		movs	r0, #2
 4027 0030 7047     		bx	lr
 4029              		.section	.text.HAL_UART_GetState,"ax",%progbits
 4030              		.align	1
 4031              		.global	HAL_UART_GetState
 4032              		.syntax unified
 4033              		.thumb
 4034              		.thumb_func
 4036              	HAL_UART_GetState:
 4037              		@ args = 0, pretend = 0, frame = 0
 4038              		@ frame_needed = 0, uses_anonymous_args = 0
ARM GAS  C:\Users\Nathan\AppData\Local\Temp\ccuUV3Of.s 			page 70


 4039              		@ link register save eliminated.
 4040 0000 D0F88820 		ldr	r2, [r0, #136]
 4041 0004 D0F88C00 		ldr	r0, [r0, #140]
 4042 0008 1043     		orrs	r0, r0, r2
 4043 000a 7047     		bx	lr
 4045              		.section	.text.HAL_UART_GetError,"ax",%progbits
 4046              		.align	1
 4047              		.global	HAL_UART_GetError
 4048              		.syntax unified
 4049              		.thumb
 4050              		.thumb_func
 4052              	HAL_UART_GetError:
 4053              		@ args = 0, pretend = 0, frame = 0
 4054              		@ frame_needed = 0, uses_anonymous_args = 0
 4055              		@ link register save eliminated.
 4056 0000 D0F89000 		ldr	r0, [r0, #144]
 4057 0004 7047     		bx	lr
 4059              		.global	__aeabi_uldivmod
 4060              		.section	.text.UART_SetConfig,"ax",%progbits
 4061              		.align	1
 4062              		.global	UART_SetConfig
 4063              		.syntax unified
 4064              		.thumb
 4065              		.thumb_func
 4067              	UART_SetConfig:
 4068              		@ args = 0, pretend = 0, frame = 0
 4069              		@ frame_needed = 0, uses_anonymous_args = 0
 4070 0000 70B5     		push	{r4, r5, r6, lr}
 4071 0002 0446     		mov	r4, r0
 4072 0004 8368     		ldr	r3, [r0, #8]
 4073 0006 0269     		ldr	r2, [r0, #16]
 4074 0008 1343     		orrs	r3, r3, r2
 4075 000a 4269     		ldr	r2, [r0, #20]
 4076 000c 1343     		orrs	r3, r3, r2
 4077 000e C269     		ldr	r2, [r0, #28]
 4078 0010 1343     		orrs	r3, r3, r2
 4079 0012 0168     		ldr	r1, [r0]
 4080 0014 0868     		ldr	r0, [r1]
 4081 0016 8B4A     		ldr	r2, .L462
 4082 0018 0240     		ands	r2, r2, r0
 4083 001a 1A43     		orrs	r2, r2, r3
 4084 001c 0A60     		str	r2, [r1]
 4085 001e 2268     		ldr	r2, [r4]
 4086 0020 5368     		ldr	r3, [r2, #4]
 4087 0022 23F44053 		bic	r3, r3, #12288
 4088 0026 E168     		ldr	r1, [r4, #12]
 4089 0028 0B43     		orrs	r3, r3, r1
 4090 002a 5360     		str	r3, [r2, #4]
 4091 002c A169     		ldr	r1, [r4, #24]
 4092 002e 2268     		ldr	r2, [r4]
 4093 0030 854B     		ldr	r3, .L462+4
 4094 0032 9A42     		cmp	r2, r3
 4095 0034 01D0     		beq	.L407
 4096 0036 236A     		ldr	r3, [r4, #32]
 4097 0038 1943     		orrs	r1, r1, r3
 4098              	.L407:
 4099 003a 9368     		ldr	r3, [r2, #8]
ARM GAS  C:\Users\Nathan\AppData\Local\Temp\ccuUV3Of.s 			page 71


 4100 003c 23F06E43 		bic	r3, r3, #-301989888
 4101 0040 23F43063 		bic	r3, r3, #2816
 4102 0044 0B43     		orrs	r3, r3, r1
 4103 0046 9360     		str	r3, [r2, #8]
 4104 0048 2268     		ldr	r2, [r4]
 4105 004a D36A     		ldr	r3, [r2, #44]
 4106 004c 23F00F03 		bic	r3, r3, #15
 4107 0050 616A     		ldr	r1, [r4, #36]
 4108 0052 0B43     		orrs	r3, r3, r1
 4109 0054 D362     		str	r3, [r2, #44]
 4110 0056 2268     		ldr	r2, [r4]
 4111 0058 7C4B     		ldr	r3, .L462+8
 4112 005a 9A42     		cmp	r2, r3
 4113 005c 14D0     		beq	.L458
 4114 005e 7A4B     		ldr	r3, .L462+4
 4115 0060 9A42     		cmp	r2, r3
 4116 0062 25D0     		beq	.L459
 4117 0064 1023     		movs	r3, #16
 4118              	.L412:
 4119 0066 7849     		ldr	r1, .L462+4
 4120 0068 8A42     		cmp	r2, r1
 4121 006a 40D0     		beq	.L460
 4122 006c E069     		ldr	r0, [r4, #28]
 4123 006e B0F5004F 		cmp	r0, #32768
 4124 0072 7AD0     		beq	.L461
 4125 0074 013B     		subs	r3, r3, #1
 4126 0076 072B     		cmp	r3, #7
 4127 0078 00F2D680 		bhi	.L452
 4128 007c DFE803F0 		tbb	[pc, r3]
 4129              	.L432:
 4130 0080 A5       		.byte	(.L435-.L432)/2
 4131 0081 A3       		.byte	(.L434-.L432)/2
 4132 0082 D4       		.byte	(.L452-.L432)/2
 4133 0083 BE       		.byte	(.L433-.L432)/2
 4134 0084 D4       		.byte	(.L452-.L432)/2
 4135 0085 D4       		.byte	(.L452-.L432)/2
 4136 0086 D4       		.byte	(.L452-.L432)/2
 4137 0087 C1       		.byte	(.L453-.L432)/2
 4138              		.p2align 1
 4139              	.L458:
 4140 0088 4FF0B043 		mov	r3, #1476395008
 4141 008c D3F88830 		ldr	r3, [r3, #136]
 4142 0090 03F00303 		and	r3, r3, #3
 4143 0094 032B     		cmp	r3, #3
 4144 0096 09D8     		bhi	.L409
 4145 0098 DFE803F0 		tbb	[pc, r3]
 4146              	.L411:
 4147 009c 02       		.byte	(.L414-.L411)/2
 4148 009d 04       		.byte	(.L413-.L411)/2
 4149 009e 1F       		.byte	(.L437-.L411)/2
 4150 009f 06       		.byte	(.L410-.L411)/2
 4151              		.p2align 1
 4152              	.L414:
 4153 00a0 0123     		movs	r3, #1
 4154 00a2 E0E7     		b	.L412
 4155              	.L413:
 4156 00a4 0423     		movs	r3, #4
ARM GAS  C:\Users\Nathan\AppData\Local\Temp\ccuUV3Of.s 			page 72


 4157 00a6 DEE7     		b	.L412
 4158              	.L410:
 4159 00a8 0823     		movs	r3, #8
 4160 00aa DCE7     		b	.L412
 4161              	.L409:
 4162 00ac 1023     		movs	r3, #16
 4163 00ae DAE7     		b	.L412
 4164              	.L459:
 4165 00b0 4FF0B043 		mov	r3, #1476395008
 4166 00b4 D3F88830 		ldr	r3, [r3, #136]
 4167 00b8 03F44063 		and	r3, r3, #3072
 4168 00bc B3F5006F 		cmp	r3, #2048
 4169 00c0 0DD0     		beq	.L439
 4170 00c2 05D8     		bhi	.L415
 4171 00c4 6BB1     		cbz	r3, .L440
 4172 00c6 B3F5806F 		cmp	r3, #1024
 4173 00ca 0CD1     		bne	.L441
 4174 00cc 0423     		movs	r3, #4
 4175 00ce CAE7     		b	.L412
 4176              	.L415:
 4177 00d0 B3F5406F 		cmp	r3, #3072
 4178 00d4 09D1     		bne	.L442
 4179 00d6 0823     		movs	r3, #8
 4180 00d8 C5E7     		b	.L412
 4181              	.L437:
 4182 00da 0223     		movs	r3, #2
 4183 00dc C3E7     		b	.L412
 4184              	.L439:
 4185 00de 0223     		movs	r3, #2
 4186 00e0 C1E7     		b	.L412
 4187              	.L440:
 4188 00e2 0023     		movs	r3, #0
 4189 00e4 BFE7     		b	.L412
 4190              	.L441:
 4191 00e6 1023     		movs	r3, #16
 4192 00e8 BDE7     		b	.L412
 4193              	.L442:
 4194 00ea 1023     		movs	r3, #16
 4195 00ec BBE7     		b	.L412
 4196              	.L460:
 4197 00ee 082B     		cmp	r3, #8
 4198 00f0 00F28A80 		bhi	.L443
 4199 00f4 DFE803F0 		tbb	[pc, r3]
 4200              	.L419:
 4201 00f8 08       		.byte	(.L422-.L419)/2
 4202 00f9 88       		.byte	(.L443-.L419)/2
 4203 00fa 37       		.byte	(.L444-.L419)/2
 4204 00fb 88       		.byte	(.L443-.L419)/2
 4205 00fc 34       		.byte	(.L420-.L419)/2
 4206 00fd 88       		.byte	(.L443-.L419)/2
 4207 00fe 88       		.byte	(.L443-.L419)/2
 4208 00ff 88       		.byte	(.L443-.L419)/2
 4209 0100 05       		.byte	(.L418-.L419)/2
 4210 0101 00       		.p2align 1
 4211              	.L418:
 4212 0102 4FF40040 		mov	r0, #32768
 4213 0106 03E0     		b	.L421
ARM GAS  C:\Users\Nathan\AppData\Local\Temp\ccuUV3Of.s 			page 73


 4214              	.L422:
 4215 0108 FFF7FEFF 		bl	HAL_RCC_GetPCLK1Freq
 4216              	.L423:
 4217 010c 0028     		cmp	r0, #0
 4218 010e 7DD0     		beq	.L445
 4219              	.L421:
 4220 0110 626A     		ldr	r2, [r4, #36]
 4221 0112 4F4B     		ldr	r3, .L462+12
 4222 0114 33F81220 		ldrh	r2, [r3, r2, lsl #1]
 4223 0118 B0FBF2F3 		udiv	r3, r0, r2
 4224 011c 6568     		ldr	r5, [r4, #4]
 4225 011e 05EB4501 		add	r1, r5, r5, lsl #1
 4226 0122 9942     		cmp	r1, r3
 4227 0124 74D8     		bhi	.L446
 4228 0126 B3EB053F 		cmp	r3, r5, lsl #12
 4229 012a 73D8     		bhi	.L447
 4230 012c 0026     		movs	r6, #0
 4231 012e 3346     		mov	r3, r6
 4232 0130 3146     		mov	r1, r6
 4233 0132 FFF7FEFF 		bl	__aeabi_uldivmod
 4234 0136 0902     		lsls	r1, r1, #8
 4235 0138 41EA1061 		orr	r1, r1, r0, lsr #24
 4236 013c 0002     		lsls	r0, r0, #8
 4237 013e 6B08     		lsrs	r3, r5, #1
 4238 0140 C018     		adds	r0, r0, r3
 4239 0142 2A46     		mov	r2, r5
 4240 0144 3346     		mov	r3, r6
 4241 0146 41F10001 		adc	r1, r1, #0
 4242 014a FFF7FEFF 		bl	__aeabi_uldivmod
 4243 014e A0F54072 		sub	r2, r0, #768
 4244 0152 404B     		ldr	r3, .L462+16
 4245 0154 9A42     		cmp	r2, r3
 4246 0156 5FD8     		bhi	.L448
 4247 0158 2368     		ldr	r3, [r4]
 4248 015a D860     		str	r0, [r3, #12]
 4249 015c 3046     		mov	r0, r6
 4250 015e 64E0     		b	.L417
 4251              	.L420:
 4252 0160 FFF7FEFF 		bl	HAL_RCC_GetSysClockFreq
 4253 0164 D2E7     		b	.L423
 4254              	.L444:
 4255 0166 3C48     		ldr	r0, .L462+20
 4256 0168 D2E7     		b	.L421
 4257              	.L461:
 4258 016a 013B     		subs	r3, r3, #1
 4259 016c 072B     		cmp	r3, #7
 4260 016e 55D8     		bhi	.L449
 4261 0170 DFE803F0 		tbb	[pc, r3]
 4262              	.L426:
 4263 0174 06       		.byte	(.L429-.L426)/2
 4264 0175 04       		.byte	(.L428-.L426)/2
 4265 0176 54       		.byte	(.L449-.L426)/2
 4266 0177 26       		.byte	(.L427-.L426)/2
 4267 0178 54       		.byte	(.L449-.L426)/2
 4268 0179 54       		.byte	(.L449-.L426)/2
 4269 017a 54       		.byte	(.L449-.L426)/2
 4270 017b 0A       		.byte	(.L425-.L426)/2
ARM GAS  C:\Users\Nathan\AppData\Local\Temp\ccuUV3Of.s 			page 74


 4271              		.p2align 1
 4272              	.L428:
 4273 017c 3648     		ldr	r0, .L462+20
 4274 017e 03E0     		b	.L425
 4275              	.L429:
 4276 0180 FFF7FEFF 		bl	HAL_RCC_GetPCLK2Freq
 4277              	.L430:
 4278 0184 0028     		cmp	r0, #0
 4279 0186 4BD0     		beq	.L450
 4280              	.L425:
 4281 0188 626A     		ldr	r2, [r4, #36]
 4282 018a 314B     		ldr	r3, .L462+12
 4283 018c 33F81230 		ldrh	r3, [r3, r2, lsl #1]
 4284 0190 B0FBF3F0 		udiv	r0, r0, r3
 4285 0194 6268     		ldr	r2, [r4, #4]
 4286 0196 5308     		lsrs	r3, r2, #1
 4287 0198 03EB4003 		add	r3, r3, r0, lsl #1
 4288 019c B3FBF2F3 		udiv	r3, r3, r2
 4289 01a0 A3F11001 		sub	r1, r3, #16
 4290 01a4 4FF6EF72 		movw	r2, #65519
 4291 01a8 9142     		cmp	r1, r2
 4292 01aa 3BD8     		bhi	.L451
 4293 01ac 9AB2     		uxth	r2, r3
 4294 01ae 22F00F02 		bic	r2, r2, #15
 4295 01b2 C3F34203 		ubfx	r3, r3, #1, #3
 4296 01b6 1343     		orrs	r3, r3, r2
 4297 01b8 2268     		ldr	r2, [r4]
 4298 01ba D360     		str	r3, [r2, #12]
 4299 01bc 0020     		movs	r0, #0
 4300 01be 34E0     		b	.L417
 4301              	.L427:
 4302 01c0 FFF7FEFF 		bl	HAL_RCC_GetSysClockFreq
 4303 01c4 DEE7     		b	.L430
 4304              	.L434:
 4305 01c6 2448     		ldr	r0, .L462+20
 4306 01c8 02E0     		b	.L431
 4307              	.L435:
 4308 01ca FFF7FEFF 		bl	HAL_RCC_GetPCLK2Freq
 4309              	.L436:
 4310 01ce A8B3     		cbz	r0, .L454
 4311              	.L431:
 4312 01d0 626A     		ldr	r2, [r4, #36]
 4313 01d2 1F4B     		ldr	r3, .L462+12
 4314 01d4 33F81230 		ldrh	r3, [r3, r2, lsl #1]
 4315 01d8 B0FBF3F0 		udiv	r0, r0, r3
 4316 01dc 6368     		ldr	r3, [r4, #4]
 4317 01de 00EB5300 		add	r0, r0, r3, lsr #1
 4318 01e2 B0FBF3F0 		udiv	r0, r0, r3
 4319 01e6 A0F11002 		sub	r2, r0, #16
 4320 01ea 4FF6EF73 		movw	r3, #65519
 4321 01ee 9A42     		cmp	r2, r3
 4322 01f0 26D8     		bhi	.L455
 4323 01f2 2368     		ldr	r3, [r4]
 4324 01f4 80B2     		uxth	r0, r0
 4325 01f6 D860     		str	r0, [r3, #12]
 4326 01f8 0020     		movs	r0, #0
 4327 01fa 16E0     		b	.L417
ARM GAS  C:\Users\Nathan\AppData\Local\Temp\ccuUV3Of.s 			page 75


 4328              	.L433:
 4329 01fc FFF7FEFF 		bl	HAL_RCC_GetSysClockFreq
 4330 0200 E5E7     		b	.L436
 4331              	.L453:
 4332 0202 4FF40040 		mov	r0, #32768
 4333 0206 E3E7     		b	.L431
 4334              	.L443:
 4335 0208 0120     		movs	r0, #1
 4336 020a 0EE0     		b	.L417
 4337              	.L445:
 4338 020c 0020     		movs	r0, #0
 4339 020e 0CE0     		b	.L417
 4340              	.L446:
 4341 0210 0120     		movs	r0, #1
 4342 0212 0AE0     		b	.L417
 4343              	.L447:
 4344 0214 0120     		movs	r0, #1
 4345 0216 08E0     		b	.L417
 4346              	.L448:
 4347 0218 0120     		movs	r0, #1
 4348 021a 06E0     		b	.L417
 4349              	.L449:
 4350 021c 0120     		movs	r0, #1
 4351 021e 04E0     		b	.L417
 4352              	.L450:
 4353 0220 0020     		movs	r0, #0
 4354 0222 02E0     		b	.L417
 4355              	.L451:
 4356 0224 0120     		movs	r0, #1
 4357 0226 00E0     		b	.L417
 4358              	.L452:
 4359 0228 0120     		movs	r0, #1
 4360              	.L417:
 4361 022a 0123     		movs	r3, #1
 4362 022c A4F86A30 		strh	r3, [r4, #106]	@ movhi
 4363 0230 A4F86830 		strh	r3, [r4, #104]	@ movhi
 4364 0234 0023     		movs	r3, #0
 4365 0236 6367     		str	r3, [r4, #116]
 4366 0238 A367     		str	r3, [r4, #120]
 4367 023a 70BD     		pop	{r4, r5, r6, pc}
 4368              	.L454:
 4369 023c 0020     		movs	r0, #0
 4370 023e F4E7     		b	.L417
 4371              	.L455:
 4372 0240 0120     		movs	r0, #1
 4373 0242 F2E7     		b	.L417
 4374              	.L463:
 4375              		.align	2
 4376              	.L462:
 4377 0244 F369FFCF 		.word	-805344781
 4378 0248 00800040 		.word	1073774592
 4379 024c 00380140 		.word	1073821696
 4380 0250 00000000 		.word	UARTPrescTable
 4381 0254 FFFC0F00 		.word	1047807
 4382 0258 0024F400 		.word	16000000
 4384              		.section	.text.UART_AdvFeatureConfig,"ax",%progbits
 4385              		.align	1
ARM GAS  C:\Users\Nathan\AppData\Local\Temp\ccuUV3Of.s 			page 76


 4386              		.global	UART_AdvFeatureConfig
 4387              		.syntax unified
 4388              		.thumb
 4389              		.thumb_func
 4391              	UART_AdvFeatureConfig:
 4392              		@ args = 0, pretend = 0, frame = 0
 4393              		@ frame_needed = 0, uses_anonymous_args = 0
 4394              		@ link register save eliminated.
 4395 0000 836A     		ldr	r3, [r0, #40]
 4396 0002 13F0080F 		tst	r3, #8
 4397 0006 06D0     		beq	.L465
 4398 0008 0268     		ldr	r2, [r0]
 4399 000a 5368     		ldr	r3, [r2, #4]
 4400 000c 23F40043 		bic	r3, r3, #32768
 4401 0010 816B     		ldr	r1, [r0, #56]
 4402 0012 0B43     		orrs	r3, r3, r1
 4403 0014 5360     		str	r3, [r2, #4]
 4404              	.L465:
 4405 0016 836A     		ldr	r3, [r0, #40]
 4406 0018 13F0010F 		tst	r3, #1
 4407 001c 06D0     		beq	.L466
 4408 001e 0268     		ldr	r2, [r0]
 4409 0020 5368     		ldr	r3, [r2, #4]
 4410 0022 23F40033 		bic	r3, r3, #131072
 4411 0026 C16A     		ldr	r1, [r0, #44]
 4412 0028 0B43     		orrs	r3, r3, r1
 4413 002a 5360     		str	r3, [r2, #4]
 4414              	.L466:
 4415 002c 836A     		ldr	r3, [r0, #40]
 4416 002e 13F0020F 		tst	r3, #2
 4417 0032 06D0     		beq	.L467
 4418 0034 0268     		ldr	r2, [r0]
 4419 0036 5368     		ldr	r3, [r2, #4]
 4420 0038 23F48033 		bic	r3, r3, #65536
 4421 003c 016B     		ldr	r1, [r0, #48]
 4422 003e 0B43     		orrs	r3, r3, r1
 4423 0040 5360     		str	r3, [r2, #4]
 4424              	.L467:
 4425 0042 836A     		ldr	r3, [r0, #40]
 4426 0044 13F0040F 		tst	r3, #4
 4427 0048 06D0     		beq	.L468
 4428 004a 0268     		ldr	r2, [r0]
 4429 004c 5368     		ldr	r3, [r2, #4]
 4430 004e 23F48023 		bic	r3, r3, #262144
 4431 0052 416B     		ldr	r1, [r0, #52]
 4432 0054 0B43     		orrs	r3, r3, r1
 4433 0056 5360     		str	r3, [r2, #4]
 4434              	.L468:
 4435 0058 836A     		ldr	r3, [r0, #40]
 4436 005a 13F0100F 		tst	r3, #16
 4437 005e 06D0     		beq	.L469
 4438 0060 0268     		ldr	r2, [r0]
 4439 0062 9368     		ldr	r3, [r2, #8]
 4440 0064 23F48053 		bic	r3, r3, #4096
 4441 0068 C16B     		ldr	r1, [r0, #60]
 4442 006a 0B43     		orrs	r3, r3, r1
 4443 006c 9360     		str	r3, [r2, #8]
ARM GAS  C:\Users\Nathan\AppData\Local\Temp\ccuUV3Of.s 			page 77


 4444              	.L469:
 4445 006e 836A     		ldr	r3, [r0, #40]
 4446 0070 13F0200F 		tst	r3, #32
 4447 0074 06D0     		beq	.L470
 4448 0076 0268     		ldr	r2, [r0]
 4449 0078 9368     		ldr	r3, [r2, #8]
 4450 007a 23F40053 		bic	r3, r3, #8192
 4451 007e 016C     		ldr	r1, [r0, #64]
 4452 0080 0B43     		orrs	r3, r3, r1
 4453 0082 9360     		str	r3, [r2, #8]
 4454              	.L470:
 4455 0084 836A     		ldr	r3, [r0, #40]
 4456 0086 13F0400F 		tst	r3, #64
 4457 008a 0AD0     		beq	.L471
 4458 008c 0268     		ldr	r2, [r0]
 4459 008e 5368     		ldr	r3, [r2, #4]
 4460 0090 23F48013 		bic	r3, r3, #1048576
 4461 0094 416C     		ldr	r1, [r0, #68]
 4462 0096 0B43     		orrs	r3, r3, r1
 4463 0098 5360     		str	r3, [r2, #4]
 4464 009a 436C     		ldr	r3, [r0, #68]
 4465 009c B3F5801F 		cmp	r3, #1048576
 4466 00a0 0BD0     		beq	.L473
 4467              	.L471:
 4468 00a2 836A     		ldr	r3, [r0, #40]
 4469 00a4 13F0800F 		tst	r3, #128
 4470 00a8 06D0     		beq	.L464
 4471 00aa 0268     		ldr	r2, [r0]
 4472 00ac 5368     		ldr	r3, [r2, #4]
 4473 00ae 23F40023 		bic	r3, r3, #524288
 4474 00b2 C16C     		ldr	r1, [r0, #76]
 4475 00b4 0B43     		orrs	r3, r3, r1
 4476 00b6 5360     		str	r3, [r2, #4]
 4477              	.L464:
 4478 00b8 7047     		bx	lr
 4479              	.L473:
 4480 00ba 0268     		ldr	r2, [r0]
 4481 00bc 5368     		ldr	r3, [r2, #4]
 4482 00be 23F4C003 		bic	r3, r3, #6291456
 4483 00c2 816C     		ldr	r1, [r0, #72]
 4484 00c4 0B43     		orrs	r3, r3, r1
 4485 00c6 5360     		str	r3, [r2, #4]
 4486 00c8 EBE7     		b	.L471
 4488              		.section	.text.UART_WaitOnFlagUntilTimeout,"ax",%progbits
 4489              		.align	1
 4490              		.global	UART_WaitOnFlagUntilTimeout
 4491              		.syntax unified
 4492              		.thumb
 4493              		.thumb_func
 4495              	UART_WaitOnFlagUntilTimeout:
 4496              		@ args = 4, pretend = 0, frame = 0
 4497              		@ frame_needed = 0, uses_anonymous_args = 0
 4498 0000 2DE9F843 		push	{r3, r4, r5, r6, r7, r8, r9, lr}
 4499 0004 0546     		mov	r5, r0
 4500 0006 0E46     		mov	r6, r1
 4501 0008 1746     		mov	r7, r2
 4502 000a 9946     		mov	r9, r3
ARM GAS  C:\Users\Nathan\AppData\Local\Temp\ccuUV3Of.s 			page 78


 4503 000c DDF82080 		ldr	r8, [sp, #32]
 4504              	.L476:
 4505 0010 2B68     		ldr	r3, [r5]
 4506 0012 DC69     		ldr	r4, [r3, #28]
 4507 0014 36EA0404 		bics	r4, r6, r4
 4508 0018 0CBF     		ite	eq
 4509 001a 0124     		moveq	r4, #1
 4510 001c 0024     		movne	r4, #0
 4511 001e BC42     		cmp	r4, r7
 4512 0020 36D1     		bne	.L483
 4513 0022 B8F1FF3F 		cmp	r8, #-1
 4514 0026 F3D0     		beq	.L476
 4515 0028 FFF7FEFF 		bl	HAL_GetTick
 4516 002c A0EB0900 		sub	r0, r0, r9
 4517 0030 4045     		cmp	r0, r8
 4518 0032 30D8     		bhi	.L480
 4519 0034 B8F1000F 		cmp	r8, #0
 4520 0038 2FD0     		beq	.L481
 4521 003a 2B68     		ldr	r3, [r5]
 4522 003c 1A68     		ldr	r2, [r3]
 4523 003e 12F0040F 		tst	r2, #4
 4524 0042 E5D0     		beq	.L476
 4525 0044 802E     		cmp	r6, #128
 4526 0046 E3D0     		beq	.L476
 4527 0048 402E     		cmp	r6, #64
 4528 004a E1D0     		beq	.L476
 4529 004c DA69     		ldr	r2, [r3, #28]
 4530 004e 12F0080F 		tst	r2, #8
 4531 0052 11D1     		bne	.L484
 4532 0054 DA69     		ldr	r2, [r3, #28]
 4533 0056 12F4006F 		tst	r2, #2048
 4534 005a D9D0     		beq	.L476
 4535 005c 4FF40062 		mov	r2, #2048
 4536 0060 1A62     		str	r2, [r3, #32]
 4537 0062 2846     		mov	r0, r5
 4538 0064 FFF7FEFF 		bl	UART_EndRxTransfer
 4539 0068 2023     		movs	r3, #32
 4540 006a C5F89030 		str	r3, [r5, #144]
 4541 006e 0023     		movs	r3, #0
 4542 0070 85F88430 		strb	r3, [r5, #132]
 4543 0074 0320     		movs	r0, #3
 4544 0076 0CE0     		b	.L477
 4545              	.L484:
 4546 0078 0824     		movs	r4, #8
 4547 007a 1C62     		str	r4, [r3, #32]
 4548 007c 2846     		mov	r0, r5
 4549 007e FFF7FEFF 		bl	UART_EndRxTransfer
 4550 0082 C5F89040 		str	r4, [r5, #144]
 4551 0086 0023     		movs	r3, #0
 4552 0088 85F88430 		strb	r3, [r5, #132]
 4553 008c 0120     		movs	r0, #1
 4554 008e 00E0     		b	.L477
 4555              	.L483:
 4556 0090 0020     		movs	r0, #0
 4557              	.L477:
 4558 0092 BDE8F883 		pop	{r3, r4, r5, r6, r7, r8, r9, pc}
 4559              	.L480:
ARM GAS  C:\Users\Nathan\AppData\Local\Temp\ccuUV3Of.s 			page 79


 4560 0096 0320     		movs	r0, #3
 4561 0098 FBE7     		b	.L477
 4562              	.L481:
 4563 009a 0320     		movs	r0, #3
 4564 009c F9E7     		b	.L477
 4566              		.section	.text.HAL_UART_Transmit,"ax",%progbits
 4567              		.align	1
 4568              		.global	HAL_UART_Transmit
 4569              		.syntax unified
 4570              		.thumb
 4571              		.thumb_func
 4573              	HAL_UART_Transmit:
 4574              		@ args = 0, pretend = 0, frame = 0
 4575              		@ frame_needed = 0, uses_anonymous_args = 0
 4576 0000 2DE9F041 		push	{r4, r5, r6, r7, r8, lr}
 4577 0004 82B0     		sub	sp, sp, #8
 4578 0006 1E46     		mov	r6, r3
 4579 0008 D0F88830 		ldr	r3, [r0, #136]
 4580 000c 202B     		cmp	r3, #32
 4581 000e 5AD1     		bne	.L494
 4582 0010 0446     		mov	r4, r0
 4583 0012 0D46     		mov	r5, r1
 4584 0014 9046     		mov	r8, r2
 4585 0016 0029     		cmp	r1, #0
 4586 0018 59D0     		beq	.L495
 4587 001a 0AB9     		cbnz	r2, .L500
 4588 001c 0120     		movs	r0, #1
 4589 001e 53E0     		b	.L486
 4590              	.L500:
 4591 0020 0023     		movs	r3, #0
 4592 0022 C0F89030 		str	r3, [r0, #144]
 4593 0026 2123     		movs	r3, #33
 4594 0028 C0F88830 		str	r3, [r0, #136]
 4595 002c FFF7FEFF 		bl	HAL_GetTick
 4596 0030 0746     		mov	r7, r0
 4597 0032 A4F85480 		strh	r8, [r4, #84]	@ movhi
 4598 0036 A4F85680 		strh	r8, [r4, #86]	@ movhi
 4599 003a A368     		ldr	r3, [r4, #8]
 4600 003c B3F5805F 		cmp	r3, #4096
 4601 0040 02D0     		beq	.L501
 4602 0042 4FF00008 		mov	r8, #0
 4603 0046 16E0     		b	.L491
 4604              	.L501:
 4605 0048 2369     		ldr	r3, [r4, #16]
 4606 004a 43B3     		cbz	r3, .L498
 4607 004c 4FF00008 		mov	r8, #0
 4608 0050 11E0     		b	.L491
 4609              	.L503:
 4610 0052 2023     		movs	r3, #32
 4611 0054 C4F88830 		str	r3, [r4, #136]
 4612 0058 0320     		movs	r0, #3
 4613 005a 35E0     		b	.L486
 4614              	.L504:
 4615 005c 38F8023B 		ldrh	r3, [r8], #2
 4616 0060 2268     		ldr	r2, [r4]
 4617 0062 C3F30803 		ubfx	r3, r3, #0, #9
 4618 0066 9362     		str	r3, [r2, #40]
ARM GAS  C:\Users\Nathan\AppData\Local\Temp\ccuUV3Of.s 			page 80


 4619              	.L490:
 4620 0068 B4F85620 		ldrh	r2, [r4, #86]
 4621 006c 92B2     		uxth	r2, r2
 4622 006e 013A     		subs	r2, r2, #1
 4623 0070 92B2     		uxth	r2, r2
 4624 0072 A4F85620 		strh	r2, [r4, #86]	@ movhi
 4625              	.L491:
 4626 0076 B4F85630 		ldrh	r3, [r4, #86]
 4627 007a 9BB2     		uxth	r3, r3
 4628 007c 93B1     		cbz	r3, .L502
 4629 007e 0096     		str	r6, [sp]
 4630 0080 3B46     		mov	r3, r7
 4631 0082 0022     		movs	r2, #0
 4632 0084 8021     		movs	r1, #128
 4633 0086 2046     		mov	r0, r4
 4634 0088 FFF7FEFF 		bl	UART_WaitOnFlagUntilTimeout
 4635 008c 0028     		cmp	r0, #0
 4636 008e E0D1     		bne	.L503
 4637 0090 002D     		cmp	r5, #0
 4638 0092 E3D0     		beq	.L504
 4639 0094 15F8012B 		ldrb	r2, [r5], #1	@ zero_extendqisi2
 4640 0098 2368     		ldr	r3, [r4]
 4641 009a 9A62     		str	r2, [r3, #40]
 4642 009c E4E7     		b	.L490
 4643              	.L498:
 4644 009e A846     		mov	r8, r5
 4645 00a0 0025     		movs	r5, #0
 4646 00a2 E8E7     		b	.L491
 4647              	.L502:
 4648 00a4 0096     		str	r6, [sp]
 4649 00a6 3B46     		mov	r3, r7
 4650 00a8 0022     		movs	r2, #0
 4651 00aa 4021     		movs	r1, #64
 4652 00ac 2046     		mov	r0, r4
 4653 00ae FFF7FEFF 		bl	UART_WaitOnFlagUntilTimeout
 4654 00b2 18B9     		cbnz	r0, .L505
 4655 00b4 2023     		movs	r3, #32
 4656 00b6 C4F88830 		str	r3, [r4, #136]
 4657 00ba 05E0     		b	.L486
 4658              	.L505:
 4659 00bc 2023     		movs	r3, #32
 4660 00be C4F88830 		str	r3, [r4, #136]
 4661 00c2 0320     		movs	r0, #3
 4662 00c4 00E0     		b	.L486
 4663              	.L494:
 4664 00c6 0220     		movs	r0, #2
 4665              	.L486:
 4666 00c8 02B0     		add	sp, sp, #8
 4667              		@ sp needed
 4668 00ca BDE8F081 		pop	{r4, r5, r6, r7, r8, pc}
 4669              	.L495:
 4670 00ce 0120     		movs	r0, #1
 4671 00d0 FAE7     		b	.L486
 4673              		.section	.text.HAL_UART_Receive,"ax",%progbits
 4674              		.align	1
 4675              		.global	HAL_UART_Receive
 4676              		.syntax unified
ARM GAS  C:\Users\Nathan\AppData\Local\Temp\ccuUV3Of.s 			page 81


 4677              		.thumb
 4678              		.thumb_func
 4680              	HAL_UART_Receive:
 4681              		@ args = 0, pretend = 0, frame = 0
 4682              		@ frame_needed = 0, uses_anonymous_args = 0
 4683 0000 2DE9F043 		push	{r4, r5, r6, r7, r8, r9, lr}
 4684 0004 83B0     		sub	sp, sp, #12
 4685 0006 1E46     		mov	r6, r3
 4686 0008 D0F88C30 		ldr	r3, [r0, #140]
 4687 000c 202B     		cmp	r3, #32
 4688 000e 7DD1     		bne	.L521
 4689 0010 0446     		mov	r4, r0
 4690 0012 0D46     		mov	r5, r1
 4691 0014 9046     		mov	r8, r2
 4692 0016 0029     		cmp	r1, #0
 4693 0018 7CD0     		beq	.L522
 4694 001a 0AB9     		cbnz	r2, .L527
 4695 001c 0120     		movs	r0, #1
 4696 001e 76E0     		b	.L507
 4697              	.L527:
 4698 0020 0023     		movs	r3, #0
 4699 0022 C0F89030 		str	r3, [r0, #144]
 4700 0026 2222     		movs	r2, #34
 4701 0028 C0F88C20 		str	r2, [r0, #140]
 4702 002c C366     		str	r3, [r0, #108]
 4703 002e FFF7FEFF 		bl	HAL_GetTick
 4704 0032 0746     		mov	r7, r0
 4705 0034 A4F85C80 		strh	r8, [r4, #92]	@ movhi
 4706 0038 A4F85E80 		strh	r8, [r4, #94]	@ movhi
 4707 003c A368     		ldr	r3, [r4, #8]
 4708 003e B3F5805F 		cmp	r3, #4096
 4709 0042 06D0     		beq	.L528
 4710 0044 A3B9     		cbnz	r3, .L511
 4711 0046 2269     		ldr	r2, [r4, #16]
 4712 0048 72B9     		cbnz	r2, .L512
 4713 004a FF22     		movs	r2, #255
 4714 004c A4F86020 		strh	r2, [r4, #96]	@ movhi
 4715 0050 14E0     		b	.L510
 4716              	.L528:
 4717 0052 2269     		ldr	r2, [r4, #16]
 4718 0054 22B9     		cbnz	r2, .L509
 4719 0056 40F2FF12 		movw	r2, #511
 4720 005a A4F86020 		strh	r2, [r4, #96]	@ movhi
 4721 005e 0DE0     		b	.L510
 4722              	.L509:
 4723 0060 FF22     		movs	r2, #255
 4724 0062 A4F86020 		strh	r2, [r4, #96]	@ movhi
 4725 0066 09E0     		b	.L510
 4726              	.L512:
 4727 0068 7F22     		movs	r2, #127
 4728 006a A4F86020 		strh	r2, [r4, #96]	@ movhi
 4729 006e 05E0     		b	.L510
 4730              	.L511:
 4731 0070 B3F1805F 		cmp	r3, #268435456
 4732 0074 0AD0     		beq	.L529
 4733 0076 0022     		movs	r2, #0
 4734 0078 A4F86020 		strh	r2, [r4, #96]	@ movhi
ARM GAS  C:\Users\Nathan\AppData\Local\Temp\ccuUV3Of.s 			page 82


 4735              	.L510:
 4736 007c B4F86080 		ldrh	r8, [r4, #96]
 4737 0080 B3F5805F 		cmp	r3, #4096
 4738 0084 0CD0     		beq	.L530
 4739 0086 4FF00009 		mov	r9, #0
 4740 008a 23E0     		b	.L516
 4741              	.L529:
 4742 008c 2269     		ldr	r2, [r4, #16]
 4743 008e 1AB9     		cbnz	r2, .L514
 4744 0090 7F22     		movs	r2, #127
 4745 0092 A4F86020 		strh	r2, [r4, #96]	@ movhi
 4746 0096 F1E7     		b	.L510
 4747              	.L514:
 4748 0098 3F22     		movs	r2, #63
 4749 009a A4F86020 		strh	r2, [r4, #96]	@ movhi
 4750 009e EDE7     		b	.L510
 4751              	.L530:
 4752 00a0 2369     		ldr	r3, [r4, #16]
 4753 00a2 13B1     		cbz	r3, .L525
 4754 00a4 4FF00009 		mov	r9, #0
 4755 00a8 14E0     		b	.L516
 4756              	.L525:
 4757 00aa A946     		mov	r9, r5
 4758 00ac 0025     		movs	r5, #0
 4759 00ae 11E0     		b	.L516
 4760              	.L532:
 4761 00b0 2023     		movs	r3, #32
 4762 00b2 C4F88C30 		str	r3, [r4, #140]
 4763 00b6 0320     		movs	r0, #3
 4764 00b8 29E0     		b	.L507
 4765              	.L533:
 4766 00ba 2368     		ldr	r3, [r4]
 4767 00bc 5B6A     		ldr	r3, [r3, #36]
 4768 00be 08EA0303 		and	r3, r8, r3
 4769 00c2 29F8023B 		strh	r3, [r9], #2	@ movhi
 4770              	.L519:
 4771 00c6 B4F85E20 		ldrh	r2, [r4, #94]
 4772 00ca 92B2     		uxth	r2, r2
 4773 00cc 013A     		subs	r2, r2, #1
 4774 00ce 92B2     		uxth	r2, r2
 4775 00d0 A4F85E20 		strh	r2, [r4, #94]	@ movhi
 4776              	.L516:
 4777 00d4 B4F85E30 		ldrh	r3, [r4, #94]
 4778 00d8 9BB2     		uxth	r3, r3
 4779 00da 93B1     		cbz	r3, .L531
 4780 00dc 0096     		str	r6, [sp]
 4781 00de 3B46     		mov	r3, r7
 4782 00e0 0022     		movs	r2, #0
 4783 00e2 2021     		movs	r1, #32
 4784 00e4 2046     		mov	r0, r4
 4785 00e6 FFF7FEFF 		bl	UART_WaitOnFlagUntilTimeout
 4786 00ea 0028     		cmp	r0, #0
 4787 00ec E0D1     		bne	.L532
 4788 00ee 002D     		cmp	r5, #0
 4789 00f0 E3D0     		beq	.L533
 4790 00f2 2368     		ldr	r3, [r4]
 4791 00f4 5A6A     		ldr	r2, [r3, #36]
ARM GAS  C:\Users\Nathan\AppData\Local\Temp\ccuUV3Of.s 			page 83


 4792 00f6 5FFA88F3 		uxtb	r3, r8
 4793 00fa 1340     		ands	r3, r3, r2
 4794 00fc 05F8013B 		strb	r3, [r5], #1
 4795 0100 E1E7     		b	.L519
 4796              	.L531:
 4797 0102 2023     		movs	r3, #32
 4798 0104 C4F88C30 		str	r3, [r4, #140]
 4799 0108 0020     		movs	r0, #0
 4800 010a 00E0     		b	.L507
 4801              	.L521:
 4802 010c 0220     		movs	r0, #2
 4803              	.L507:
 4804 010e 03B0     		add	sp, sp, #12
 4805              		@ sp needed
 4806 0110 BDE8F083 		pop	{r4, r5, r6, r7, r8, r9, pc}
 4807              	.L522:
 4808 0114 0120     		movs	r0, #1
 4809 0116 FAE7     		b	.L507
 4811              		.section	.text.UART_CheckIdleState,"ax",%progbits
 4812              		.align	1
 4813              		.global	UART_CheckIdleState
 4814              		.syntax unified
 4815              		.thumb
 4816              		.thumb_func
 4818              	UART_CheckIdleState:
 4819              		@ args = 0, pretend = 0, frame = 0
 4820              		@ frame_needed = 0, uses_anonymous_args = 0
 4821 0000 30B5     		push	{r4, r5, lr}
 4822 0002 83B0     		sub	sp, sp, #12
 4823 0004 0446     		mov	r4, r0
 4824 0006 0023     		movs	r3, #0
 4825 0008 C0F89030 		str	r3, [r0, #144]
 4826 000c FFF7FEFF 		bl	HAL_GetTick
 4827 0010 0546     		mov	r5, r0
 4828 0012 2268     		ldr	r2, [r4]
 4829 0014 1268     		ldr	r2, [r2]
 4830 0016 12F0080F 		tst	r2, #8
 4831 001a 10D1     		bne	.L542
 4832              	.L535:
 4833 001c 2368     		ldr	r3, [r4]
 4834 001e 1B68     		ldr	r3, [r3]
 4835 0020 13F0040F 		tst	r3, #4
 4836 0024 28D1     		bne	.L543
 4837              	.L538:
 4838 0026 2023     		movs	r3, #32
 4839 0028 C4F88830 		str	r3, [r4, #136]
 4840 002c C4F88C30 		str	r3, [r4, #140]
 4841 0030 0020     		movs	r0, #0
 4842 0032 E066     		str	r0, [r4, #108]
 4843 0034 2067     		str	r0, [r4, #112]
 4844 0036 84F88400 		strb	r0, [r4, #132]
 4845              	.L537:
 4846 003a 03B0     		add	sp, sp, #12
 4847              		@ sp needed
 4848 003c 30BD     		pop	{r4, r5, pc}
 4849              	.L542:
 4850 003e 6FF07E43 		mvn	r3, #-33554432
ARM GAS  C:\Users\Nathan\AppData\Local\Temp\ccuUV3Of.s 			page 84


 4851 0042 0093     		str	r3, [sp]
 4852 0044 0346     		mov	r3, r0
 4853 0046 0022     		movs	r2, #0
 4854 0048 4FF40011 		mov	r1, #2097152
 4855 004c 2046     		mov	r0, r4
 4856 004e FFF7FEFF 		bl	UART_WaitOnFlagUntilTimeout
 4857 0052 0028     		cmp	r0, #0
 4858 0054 E2D0     		beq	.L535
 4859              	.L536:
 4860 0056 2268     		ldr	r2, [r4]
 4861              		.syntax unified
 4862              	@ 1155 "Drivers/CMSIS/Include/cmsis_gcc.h" 1
 4863 0058 52E8003F 		ldrex r3, [r2]
 4864              	@ 0 "" 2
 4865              		.thumb
 4866              		.syntax unified
 4867 005c 23F08003 		bic	r3, r3, #128
 4868              		.syntax unified
 4869              	@ 1206 "Drivers/CMSIS/Include/cmsis_gcc.h" 1
 4870 0060 42E80031 		strex r1, r3, [r2]
 4871              	@ 0 "" 2
 4872              		.thumb
 4873              		.syntax unified
 4874 0064 0029     		cmp	r1, #0
 4875 0066 F6D1     		bne	.L536
 4876 0068 2023     		movs	r3, #32
 4877 006a C4F88830 		str	r3, [r4, #136]
 4878 006e 0023     		movs	r3, #0
 4879 0070 84F88430 		strb	r3, [r4, #132]
 4880 0074 0320     		movs	r0, #3
 4881 0076 E0E7     		b	.L537
 4882              	.L543:
 4883 0078 6FF07E43 		mvn	r3, #-33554432
 4884 007c 0093     		str	r3, [sp]
 4885 007e 2B46     		mov	r3, r5
 4886 0080 0022     		movs	r2, #0
 4887 0082 4FF48001 		mov	r1, #4194304
 4888 0086 2046     		mov	r0, r4
 4889 0088 FFF7FEFF 		bl	UART_WaitOnFlagUntilTimeout
 4890 008c 0028     		cmp	r0, #0
 4891 008e CAD0     		beq	.L538
 4892              	.L539:
 4893 0090 2268     		ldr	r2, [r4]
 4894              		.syntax unified
 4895              	@ 1155 "Drivers/CMSIS/Include/cmsis_gcc.h" 1
 4896 0092 52E8003F 		ldrex r3, [r2]
 4897              	@ 0 "" 2
 4898              		.thumb
 4899              		.syntax unified
 4900 0096 23F49073 		bic	r3, r3, #288
 4901              		.syntax unified
 4902              	@ 1206 "Drivers/CMSIS/Include/cmsis_gcc.h" 1
 4903 009a 42E80031 		strex r1, r3, [r2]
 4904              	@ 0 "" 2
 4905              		.thumb
 4906              		.syntax unified
 4907 009e 0029     		cmp	r1, #0
ARM GAS  C:\Users\Nathan\AppData\Local\Temp\ccuUV3Of.s 			page 85


 4908 00a0 F6D1     		bne	.L539
 4909              	.L540:
 4910 00a2 2268     		ldr	r2, [r4]
 4911 00a4 02F10803 		add	r3, r2, #8
 4912              		.syntax unified
 4913              	@ 1155 "Drivers/CMSIS/Include/cmsis_gcc.h" 1
 4914 00a8 53E8003F 		ldrex r3, [r3]
 4915              	@ 0 "" 2
 4916              		.thumb
 4917              		.syntax unified
 4918 00ac 23F00103 		bic	r3, r3, #1
 4919 00b0 0832     		adds	r2, r2, #8
 4920              		.syntax unified
 4921              	@ 1206 "Drivers/CMSIS/Include/cmsis_gcc.h" 1
 4922 00b2 42E80031 		strex r1, r3, [r2]
 4923              	@ 0 "" 2
 4924              		.thumb
 4925              		.syntax unified
 4926 00b6 0029     		cmp	r1, #0
 4927 00b8 F3D1     		bne	.L540
 4928 00ba 2023     		movs	r3, #32
 4929 00bc C4F88C30 		str	r3, [r4, #140]
 4930 00c0 0023     		movs	r3, #0
 4931 00c2 84F88430 		strb	r3, [r4, #132]
 4932 00c6 0320     		movs	r0, #3
 4933 00c8 B7E7     		b	.L537
 4935              		.section	.text.HAL_UART_Init,"ax",%progbits
 4936              		.align	1
 4937              		.global	HAL_UART_Init
 4938              		.syntax unified
 4939              		.thumb
 4940              		.thumb_func
 4942              	HAL_UART_Init:
 4943              		@ args = 0, pretend = 0, frame = 0
 4944              		@ frame_needed = 0, uses_anonymous_args = 0
 4945 0000 78B3     		cbz	r0, .L548
 4946 0002 10B5     		push	{r4, lr}
 4947 0004 0446     		mov	r4, r0
 4948 0006 D0F88830 		ldr	r3, [r0, #136]
 4949 000a 0BB3     		cbz	r3, .L553
 4950              	.L546:
 4951 000c 2423     		movs	r3, #36
 4952 000e C4F88830 		str	r3, [r4, #136]
 4953 0012 2268     		ldr	r2, [r4]
 4954 0014 1368     		ldr	r3, [r2]
 4955 0016 23F00103 		bic	r3, r3, #1
 4956 001a 1360     		str	r3, [r2]
 4957 001c A36A     		ldr	r3, [r4, #40]
 4958 001e E3B9     		cbnz	r3, .L554
 4959              	.L547:
 4960 0020 2046     		mov	r0, r4
 4961 0022 FFF7FEFF 		bl	UART_SetConfig
 4962 0026 0128     		cmp	r0, #1
 4963 0028 11D0     		beq	.L545
 4964 002a 2268     		ldr	r2, [r4]
 4965 002c 5368     		ldr	r3, [r2, #4]
 4966 002e 23F49043 		bic	r3, r3, #18432
ARM GAS  C:\Users\Nathan\AppData\Local\Temp\ccuUV3Of.s 			page 86


 4967 0032 5360     		str	r3, [r2, #4]
 4968 0034 2268     		ldr	r2, [r4]
 4969 0036 9368     		ldr	r3, [r2, #8]
 4970 0038 23F02A03 		bic	r3, r3, #42
 4971 003c 9360     		str	r3, [r2, #8]
 4972 003e 2268     		ldr	r2, [r4]
 4973 0040 1368     		ldr	r3, [r2]
 4974 0042 43F00103 		orr	r3, r3, #1
 4975 0046 1360     		str	r3, [r2]
 4976 0048 2046     		mov	r0, r4
 4977 004a FFF7FEFF 		bl	UART_CheckIdleState
 4978              	.L545:
 4979 004e 10BD     		pop	{r4, pc}
 4980              	.L553:
 4981 0050 80F88430 		strb	r3, [r0, #132]
 4982 0054 FFF7FEFF 		bl	HAL_UART_MspInit
 4983 0058 D8E7     		b	.L546
 4984              	.L554:
 4985 005a 2046     		mov	r0, r4
 4986 005c FFF7FEFF 		bl	UART_AdvFeatureConfig
 4987 0060 DEE7     		b	.L547
 4988              	.L548:
 4989 0062 0120     		movs	r0, #1
 4990 0064 7047     		bx	lr
 4992              		.section	.text.HAL_HalfDuplex_Init,"ax",%progbits
 4993              		.align	1
 4994              		.global	HAL_HalfDuplex_Init
 4995              		.syntax unified
 4996              		.thumb
 4997              		.thumb_func
 4999              	HAL_HalfDuplex_Init:
 5000              		@ args = 0, pretend = 0, frame = 0
 5001              		@ frame_needed = 0, uses_anonymous_args = 0
 5002 0000 0028     		cmp	r0, #0
 5003 0002 34D0     		beq	.L559
 5004 0004 10B5     		push	{r4, lr}
 5005 0006 0446     		mov	r4, r0
 5006 0008 D0F88830 		ldr	r3, [r0, #136]
 5007 000c 33B3     		cbz	r3, .L564
 5008              	.L557:
 5009 000e 2423     		movs	r3, #36
 5010 0010 C4F88830 		str	r3, [r4, #136]
 5011 0014 2268     		ldr	r2, [r4]
 5012 0016 1368     		ldr	r3, [r2]
 5013 0018 23F00103 		bic	r3, r3, #1
 5014 001c 1360     		str	r3, [r2]
 5015 001e A36A     		ldr	r3, [r4, #40]
 5016 0020 0BBB     		cbnz	r3, .L565
 5017              	.L558:
 5018 0022 2046     		mov	r0, r4
 5019 0024 FFF7FEFF 		bl	UART_SetConfig
 5020 0028 0128     		cmp	r0, #1
 5021 002a 16D0     		beq	.L556
 5022 002c 2268     		ldr	r2, [r4]
 5023 002e 5368     		ldr	r3, [r2, #4]
 5024 0030 23F49043 		bic	r3, r3, #18432
 5025 0034 5360     		str	r3, [r2, #4]
ARM GAS  C:\Users\Nathan\AppData\Local\Temp\ccuUV3Of.s 			page 87


 5026 0036 2268     		ldr	r2, [r4]
 5027 0038 9368     		ldr	r3, [r2, #8]
 5028 003a 23F02203 		bic	r3, r3, #34
 5029 003e 9360     		str	r3, [r2, #8]
 5030 0040 2268     		ldr	r2, [r4]
 5031 0042 9368     		ldr	r3, [r2, #8]
 5032 0044 43F00803 		orr	r3, r3, #8
 5033 0048 9360     		str	r3, [r2, #8]
 5034 004a 2268     		ldr	r2, [r4]
 5035 004c 1368     		ldr	r3, [r2]
 5036 004e 43F00103 		orr	r3, r3, #1
 5037 0052 1360     		str	r3, [r2]
 5038 0054 2046     		mov	r0, r4
 5039 0056 FFF7FEFF 		bl	UART_CheckIdleState
 5040              	.L556:
 5041 005a 10BD     		pop	{r4, pc}
 5042              	.L564:
 5043 005c 80F88430 		strb	r3, [r0, #132]
 5044 0060 FFF7FEFF 		bl	HAL_UART_MspInit
 5045 0064 D3E7     		b	.L557
 5046              	.L565:
 5047 0066 2046     		mov	r0, r4
 5048 0068 FFF7FEFF 		bl	UART_AdvFeatureConfig
 5049 006c D9E7     		b	.L558
 5050              	.L559:
 5051 006e 0120     		movs	r0, #1
 5052 0070 7047     		bx	lr
 5054              		.section	.text.HAL_LIN_Init,"ax",%progbits
 5055              		.align	1
 5056              		.global	HAL_LIN_Init
 5057              		.syntax unified
 5058              		.thumb
 5059              		.thumb_func
 5061              	HAL_LIN_Init:
 5062              		@ args = 0, pretend = 0, frame = 0
 5063              		@ frame_needed = 0, uses_anonymous_args = 0
 5064 0000 0028     		cmp	r0, #0
 5065 0002 42D0     		beq	.L570
 5066 0004 38B5     		push	{r3, r4, r5, lr}
 5067 0006 0D46     		mov	r5, r1
 5068 0008 0446     		mov	r4, r0
 5069 000a C369     		ldr	r3, [r0, #28]
 5070 000c B3F5004F 		cmp	r3, #32768
 5071 0010 3DD0     		beq	.L571
 5072 0012 8368     		ldr	r3, [r0, #8]
 5073 0014 002B     		cmp	r3, #0
 5074 0016 3CD1     		bne	.L572
 5075 0018 D0F88830 		ldr	r3, [r0, #136]
 5076 001c 63B3     		cbz	r3, .L577
 5077              	.L568:
 5078 001e 2423     		movs	r3, #36
 5079 0020 C4F88830 		str	r3, [r4, #136]
 5080 0024 2268     		ldr	r2, [r4]
 5081 0026 1368     		ldr	r3, [r2]
 5082 0028 23F00103 		bic	r3, r3, #1
 5083 002c 1360     		str	r3, [r2]
 5084 002e A36A     		ldr	r3, [r4, #40]
ARM GAS  C:\Users\Nathan\AppData\Local\Temp\ccuUV3Of.s 			page 88


 5085 0030 3BBB     		cbnz	r3, .L578
 5086              	.L569:
 5087 0032 2046     		mov	r0, r4
 5088 0034 FFF7FEFF 		bl	UART_SetConfig
 5089 0038 0128     		cmp	r0, #1
 5090 003a 1CD0     		beq	.L567
 5091 003c 2268     		ldr	r2, [r4]
 5092 003e 5368     		ldr	r3, [r2, #4]
 5093 0040 23F40063 		bic	r3, r3, #2048
 5094 0044 5360     		str	r3, [r2, #4]
 5095 0046 2268     		ldr	r2, [r4]
 5096 0048 9368     		ldr	r3, [r2, #8]
 5097 004a 23F02A03 		bic	r3, r3, #42
 5098 004e 9360     		str	r3, [r2, #8]
 5099 0050 2268     		ldr	r2, [r4]
 5100 0052 5368     		ldr	r3, [r2, #4]
 5101 0054 43F48043 		orr	r3, r3, #16384
 5102 0058 5360     		str	r3, [r2, #4]
 5103 005a 2268     		ldr	r2, [r4]
 5104 005c 5368     		ldr	r3, [r2, #4]
 5105 005e 23F02003 		bic	r3, r3, #32
 5106 0062 2B43     		orrs	r3, r3, r5
 5107 0064 5360     		str	r3, [r2, #4]
 5108 0066 2268     		ldr	r2, [r4]
 5109 0068 1368     		ldr	r3, [r2]
 5110 006a 43F00103 		orr	r3, r3, #1
 5111 006e 1360     		str	r3, [r2]
 5112 0070 2046     		mov	r0, r4
 5113 0072 FFF7FEFF 		bl	UART_CheckIdleState
 5114              	.L567:
 5115 0076 38BD     		pop	{r3, r4, r5, pc}
 5116              	.L577:
 5117 0078 80F88430 		strb	r3, [r0, #132]
 5118 007c FFF7FEFF 		bl	HAL_UART_MspInit
 5119 0080 CDE7     		b	.L568
 5120              	.L578:
 5121 0082 2046     		mov	r0, r4
 5122 0084 FFF7FEFF 		bl	UART_AdvFeatureConfig
 5123 0088 D3E7     		b	.L569
 5124              	.L570:
 5125 008a 0120     		movs	r0, #1
 5126 008c 7047     		bx	lr
 5127              	.L571:
 5128 008e 0120     		movs	r0, #1
 5129 0090 F1E7     		b	.L567
 5130              	.L572:
 5131 0092 0120     		movs	r0, #1
 5132 0094 EFE7     		b	.L567
 5134              		.section	.text.HAL_MultiProcessor_Init,"ax",%progbits
 5135              		.align	1
 5136              		.global	HAL_MultiProcessor_Init
 5137              		.syntax unified
 5138              		.thumb
 5139              		.thumb_func
 5141              	HAL_MultiProcessor_Init:
 5142              		@ args = 0, pretend = 0, frame = 0
 5143              		@ frame_needed = 0, uses_anonymous_args = 0
ARM GAS  C:\Users\Nathan\AppData\Local\Temp\ccuUV3Of.s 			page 89


 5144 0000 0028     		cmp	r0, #0
 5145 0002 42D0     		beq	.L584
 5146 0004 70B5     		push	{r4, r5, r6, lr}
 5147 0006 0E46     		mov	r6, r1
 5148 0008 1546     		mov	r5, r2
 5149 000a 0446     		mov	r4, r0
 5150 000c D0F88830 		ldr	r3, [r0, #136]
 5151 0010 53B3     		cbz	r3, .L589
 5152              	.L581:
 5153 0012 2423     		movs	r3, #36
 5154 0014 C4F88830 		str	r3, [r4, #136]
 5155 0018 2268     		ldr	r2, [r4]
 5156 001a 1368     		ldr	r3, [r2]
 5157 001c 23F00103 		bic	r3, r3, #1
 5158 0020 1360     		str	r3, [r2]
 5159 0022 A36A     		ldr	r3, [r4, #40]
 5160 0024 2BBB     		cbnz	r3, .L590
 5161              	.L582:
 5162 0026 2046     		mov	r0, r4
 5163 0028 FFF7FEFF 		bl	UART_SetConfig
 5164 002c 0128     		cmp	r0, #1
 5165 002e 1AD0     		beq	.L580
 5166 0030 2268     		ldr	r2, [r4]
 5167 0032 5368     		ldr	r3, [r2, #4]
 5168 0034 23F49043 		bic	r3, r3, #18432
 5169 0038 5360     		str	r3, [r2, #4]
 5170 003a 2268     		ldr	r2, [r4]
 5171 003c 9368     		ldr	r3, [r2, #8]
 5172 003e 23F02A03 		bic	r3, r3, #42
 5173 0042 9360     		str	r3, [r2, #8]
 5174 0044 B5F5006F 		cmp	r5, #2048
 5175 0048 17D0     		beq	.L591
 5176              	.L583:
 5177 004a 2268     		ldr	r2, [r4]
 5178 004c 1368     		ldr	r3, [r2]
 5179 004e 23F40063 		bic	r3, r3, #2048
 5180 0052 2B43     		orrs	r3, r3, r5
 5181 0054 1360     		str	r3, [r2]
 5182 0056 2268     		ldr	r2, [r4]
 5183 0058 1368     		ldr	r3, [r2]
 5184 005a 43F00103 		orr	r3, r3, #1
 5185 005e 1360     		str	r3, [r2]
 5186 0060 2046     		mov	r0, r4
 5187 0062 FFF7FEFF 		bl	UART_CheckIdleState
 5188              	.L580:
 5189 0066 70BD     		pop	{r4, r5, r6, pc}
 5190              	.L589:
 5191 0068 80F88430 		strb	r3, [r0, #132]
 5192 006c FFF7FEFF 		bl	HAL_UART_MspInit
 5193 0070 CFE7     		b	.L581
 5194              	.L590:
 5195 0072 2046     		mov	r0, r4
 5196 0074 FFF7FEFF 		bl	UART_AdvFeatureConfig
 5197 0078 D5E7     		b	.L582
 5198              	.L591:
 5199 007a 2268     		ldr	r2, [r4]
 5200 007c 5368     		ldr	r3, [r2, #4]
ARM GAS  C:\Users\Nathan\AppData\Local\Temp\ccuUV3Of.s 			page 90


 5201 007e 23F07F43 		bic	r3, r3, #-16777216
 5202 0082 43EA0663 		orr	r3, r3, r6, lsl #24
 5203 0086 5360     		str	r3, [r2, #4]
 5204 0088 DFE7     		b	.L583
 5205              	.L584:
 5206 008a 0120     		movs	r0, #1
 5207 008c 7047     		bx	lr
 5209              		.section	.text.HAL_MultiProcessor_EnableMuteMode,"ax",%progbits
 5210              		.align	1
 5211              		.global	HAL_MultiProcessor_EnableMuteMode
 5212              		.syntax unified
 5213              		.thumb
 5214              		.thumb_func
 5216              	HAL_MultiProcessor_EnableMuteMode:
 5217              		@ args = 0, pretend = 0, frame = 0
 5218              		@ frame_needed = 0, uses_anonymous_args = 0
 5219 0000 08B5     		push	{r3, lr}
 5220 0002 90F88430 		ldrb	r3, [r0, #132]	@ zero_extendqisi2
 5221 0006 012B     		cmp	r3, #1
 5222 0008 14D0     		beq	.L595
 5223 000a 0123     		movs	r3, #1
 5224 000c 80F88430 		strb	r3, [r0, #132]
 5225 0010 2423     		movs	r3, #36
 5226 0012 C0F88830 		str	r3, [r0, #136]
 5227              	.L594:
 5228 0016 0268     		ldr	r2, [r0]
 5229              		.syntax unified
 5230              	@ 1155 "Drivers/CMSIS/Include/cmsis_gcc.h" 1
 5231 0018 52E8003F 		ldrex r3, [r2]
 5232              	@ 0 "" 2
 5233              		.thumb
 5234              		.syntax unified
 5235 001c 43F40053 		orr	r3, r3, #8192
 5236              		.syntax unified
 5237              	@ 1206 "Drivers/CMSIS/Include/cmsis_gcc.h" 1
 5238 0020 42E80031 		strex r1, r3, [r2]
 5239              	@ 0 "" 2
 5240              		.thumb
 5241              		.syntax unified
 5242 0024 0029     		cmp	r1, #0
 5243 0026 F6D1     		bne	.L594
 5244 0028 2023     		movs	r3, #32
 5245 002a C0F88830 		str	r3, [r0, #136]
 5246 002e FFF7FEFF 		bl	UART_CheckIdleState
 5247              	.L593:
 5248 0032 08BD     		pop	{r3, pc}
 5249              	.L595:
 5250 0034 0220     		movs	r0, #2
 5251 0036 FCE7     		b	.L593
 5253              		.section	.text.HAL_MultiProcessor_DisableMuteMode,"ax",%progbits
 5254              		.align	1
 5255              		.global	HAL_MultiProcessor_DisableMuteMode
 5256              		.syntax unified
 5257              		.thumb
 5258              		.thumb_func
 5260              	HAL_MultiProcessor_DisableMuteMode:
 5261              		@ args = 0, pretend = 0, frame = 0
ARM GAS  C:\Users\Nathan\AppData\Local\Temp\ccuUV3Of.s 			page 91


 5262              		@ frame_needed = 0, uses_anonymous_args = 0
 5263 0000 08B5     		push	{r3, lr}
 5264 0002 90F88430 		ldrb	r3, [r0, #132]	@ zero_extendqisi2
 5265 0006 012B     		cmp	r3, #1
 5266 0008 14D0     		beq	.L600
 5267 000a 0123     		movs	r3, #1
 5268 000c 80F88430 		strb	r3, [r0, #132]
 5269 0010 2423     		movs	r3, #36
 5270 0012 C0F88830 		str	r3, [r0, #136]
 5271              	.L599:
 5272 0016 0268     		ldr	r2, [r0]
 5273              		.syntax unified
 5274              	@ 1155 "Drivers/CMSIS/Include/cmsis_gcc.h" 1
 5275 0018 52E8003F 		ldrex r3, [r2]
 5276              	@ 0 "" 2
 5277              		.thumb
 5278              		.syntax unified
 5279 001c 23F40053 		bic	r3, r3, #8192
 5280              		.syntax unified
 5281              	@ 1206 "Drivers/CMSIS/Include/cmsis_gcc.h" 1
 5282 0020 42E80031 		strex r1, r3, [r2]
 5283              	@ 0 "" 2
 5284              		.thumb
 5285              		.syntax unified
 5286 0024 0029     		cmp	r1, #0
 5287 0026 F6D1     		bne	.L599
 5288 0028 2023     		movs	r3, #32
 5289 002a C0F88830 		str	r3, [r0, #136]
 5290 002e FFF7FEFF 		bl	UART_CheckIdleState
 5291              	.L598:
 5292 0032 08BD     		pop	{r3, pc}
 5293              	.L600:
 5294 0034 0220     		movs	r0, #2
 5295 0036 FCE7     		b	.L598
 5297              		.section	.text.UART_Start_Receive_IT,"ax",%progbits
 5298              		.align	1
 5299              		.global	UART_Start_Receive_IT
 5300              		.syntax unified
 5301              		.thumb
 5302              		.thumb_func
 5304              	UART_Start_Receive_IT:
 5305              		@ args = 0, pretend = 0, frame = 0
 5306              		@ frame_needed = 0, uses_anonymous_args = 0
 5307              		@ link register save eliminated.
 5308 0000 10B4     		push	{r4}
 5309 0002 8165     		str	r1, [r0, #88]
 5310 0004 A0F85C20 		strh	r2, [r0, #92]	@ movhi
 5311 0008 A0F85E20 		strh	r2, [r0, #94]	@ movhi
 5312 000c 0023     		movs	r3, #0
 5313 000e 4367     		str	r3, [r0, #116]
 5314 0010 8368     		ldr	r3, [r0, #8]
 5315 0012 B3F5805F 		cmp	r3, #4096
 5316 0016 06D0     		beq	.L623
 5317 0018 A3B9     		cbnz	r3, .L606
 5318 001a 0369     		ldr	r3, [r0, #16]
 5319 001c 73B9     		cbnz	r3, .L607
 5320 001e FF23     		movs	r3, #255
ARM GAS  C:\Users\Nathan\AppData\Local\Temp\ccuUV3Of.s 			page 92


 5321 0020 A0F86030 		strh	r3, [r0, #96]	@ movhi
 5322 0024 14E0     		b	.L605
 5323              	.L623:
 5324 0026 0369     		ldr	r3, [r0, #16]
 5325 0028 23B9     		cbnz	r3, .L604
 5326 002a 40F2FF13 		movw	r3, #511
 5327 002e A0F86030 		strh	r3, [r0, #96]	@ movhi
 5328 0032 0DE0     		b	.L605
 5329              	.L604:
 5330 0034 FF23     		movs	r3, #255
 5331 0036 A0F86030 		strh	r3, [r0, #96]	@ movhi
 5332 003a 09E0     		b	.L605
 5333              	.L607:
 5334 003c 7F23     		movs	r3, #127
 5335 003e A0F86030 		strh	r3, [r0, #96]	@ movhi
 5336 0042 05E0     		b	.L605
 5337              	.L606:
 5338 0044 B3F1805F 		cmp	r3, #268435456
 5339 0048 2ED0     		beq	.L624
 5340 004a 0023     		movs	r3, #0
 5341 004c A0F86030 		strh	r3, [r0, #96]	@ movhi
 5342              	.L605:
 5343 0050 0023     		movs	r3, #0
 5344 0052 C0F89030 		str	r3, [r0, #144]
 5345 0056 2223     		movs	r3, #34
 5346 0058 C0F88C30 		str	r3, [r0, #140]
 5347              	.L610:
 5348 005c 0168     		ldr	r1, [r0]
 5349 005e 01F10803 		add	r3, r1, #8
 5350              		.syntax unified
 5351              	@ 1155 "Drivers/CMSIS/Include/cmsis_gcc.h" 1
 5352 0062 53E8003F 		ldrex r3, [r3]
 5353              	@ 0 "" 2
 5354              		.thumb
 5355              		.syntax unified
 5356 0066 43F00103 		orr	r3, r3, #1
 5357 006a 0831     		adds	r1, r1, #8
 5358              		.syntax unified
 5359              	@ 1206 "Drivers/CMSIS/Include/cmsis_gcc.h" 1
 5360 006c 41E80034 		strex r4, r3, [r1]
 5361              	@ 0 "" 2
 5362              		.thumb
 5363              		.syntax unified
 5364 0070 002C     		cmp	r4, #0
 5365 0072 F3D1     		bne	.L610
 5366 0074 436E     		ldr	r3, [r0, #100]
 5367 0076 B3F1005F 		cmp	r3, #536870912
 5368 007a 1FD0     		beq	.L625
 5369              	.L611:
 5370 007c 8368     		ldr	r3, [r0, #8]
 5371 007e B3F5805F 		cmp	r3, #4096
 5372 0082 43D0     		beq	.L626
 5373              	.L618:
 5374 0084 294B     		ldr	r3, .L628
 5375 0086 4367     		str	r3, [r0, #116]
 5376              	.L619:
 5377 0088 0369     		ldr	r3, [r0, #16]
ARM GAS  C:\Users\Nathan\AppData\Local\Temp\ccuUV3Of.s 			page 93


 5378 008a 002B     		cmp	r3, #0
 5379 008c 44D0     		beq	.L620
 5380              	.L621:
 5381 008e 0268     		ldr	r2, [r0]
 5382              		.syntax unified
 5383              	@ 1155 "Drivers/CMSIS/Include/cmsis_gcc.h" 1
 5384 0090 52E8003F 		ldrex r3, [r2]
 5385              	@ 0 "" 2
 5386              		.thumb
 5387              		.syntax unified
 5388 0094 43F49073 		orr	r3, r3, #288
 5389              		.syntax unified
 5390              	@ 1206 "Drivers/CMSIS/Include/cmsis_gcc.h" 1
 5391 0098 42E80031 		strex r1, r3, [r2]
 5392              	@ 0 "" 2
 5393              		.thumb
 5394              		.syntax unified
 5395 009c 0029     		cmp	r1, #0
 5396 009e F6D1     		bne	.L621
 5397              	.L617:
 5398 00a0 0020     		movs	r0, #0
 5399 00a2 5DF8044B 		ldr	r4, [sp], #4
 5400 00a6 7047     		bx	lr
 5401              	.L624:
 5402 00a8 0369     		ldr	r3, [r0, #16]
 5403 00aa 1BB9     		cbnz	r3, .L609
 5404 00ac 7F23     		movs	r3, #127
 5405 00ae A0F86030 		strh	r3, [r0, #96]	@ movhi
 5406 00b2 CDE7     		b	.L605
 5407              	.L609:
 5408 00b4 3F23     		movs	r3, #63
 5409 00b6 A0F86030 		strh	r3, [r0, #96]	@ movhi
 5410 00ba C9E7     		b	.L605
 5411              	.L625:
 5412 00bc B0F86830 		ldrh	r3, [r0, #104]
 5413 00c0 9342     		cmp	r3, r2
 5414 00c2 DBD8     		bhi	.L611
 5415 00c4 8368     		ldr	r3, [r0, #8]
 5416 00c6 B3F5805F 		cmp	r3, #4096
 5417 00ca 19D0     		beq	.L627
 5418              	.L612:
 5419 00cc 184B     		ldr	r3, .L628+4
 5420 00ce 4367     		str	r3, [r0, #116]
 5421              	.L613:
 5422 00d0 0369     		ldr	r3, [r0, #16]
 5423 00d2 43B1     		cbz	r3, .L616
 5424              	.L615:
 5425 00d4 0268     		ldr	r2, [r0]
 5426              		.syntax unified
 5427              	@ 1155 "Drivers/CMSIS/Include/cmsis_gcc.h" 1
 5428 00d6 52E8003F 		ldrex r3, [r2]
 5429              	@ 0 "" 2
 5430              		.thumb
 5431              		.syntax unified
 5432 00da 43F48073 		orr	r3, r3, #256
 5433              		.syntax unified
 5434              	@ 1206 "Drivers/CMSIS/Include/cmsis_gcc.h" 1
ARM GAS  C:\Users\Nathan\AppData\Local\Temp\ccuUV3Of.s 			page 94


 5435 00de 42E80031 		strex r1, r3, [r2]
 5436              	@ 0 "" 2
 5437              		.thumb
 5438              		.syntax unified
 5439 00e2 0029     		cmp	r1, #0
 5440 00e4 F6D1     		bne	.L615
 5441              	.L616:
 5442 00e6 0268     		ldr	r2, [r0]
 5443 00e8 02F10803 		add	r3, r2, #8
 5444              		.syntax unified
 5445              	@ 1155 "Drivers/CMSIS/Include/cmsis_gcc.h" 1
 5446 00ec 53E8003F 		ldrex r3, [r3]
 5447              	@ 0 "" 2
 5448              		.thumb
 5449              		.syntax unified
 5450 00f0 43F08053 		orr	r3, r3, #268435456
 5451 00f4 0832     		adds	r2, r2, #8
 5452              		.syntax unified
 5453              	@ 1206 "Drivers/CMSIS/Include/cmsis_gcc.h" 1
 5454 00f6 42E80031 		strex r1, r3, [r2]
 5455              	@ 0 "" 2
 5456              		.thumb
 5457              		.syntax unified
 5458 00fa 0029     		cmp	r1, #0
 5459 00fc F3D1     		bne	.L616
 5460 00fe CFE7     		b	.L617
 5461              	.L627:
 5462 0100 0369     		ldr	r3, [r0, #16]
 5463 0102 002B     		cmp	r3, #0
 5464 0104 E2D1     		bne	.L612
 5465 0106 0B4B     		ldr	r3, .L628+8
 5466 0108 4367     		str	r3, [r0, #116]
 5467 010a E1E7     		b	.L613
 5468              	.L626:
 5469 010c 0369     		ldr	r3, [r0, #16]
 5470 010e 002B     		cmp	r3, #0
 5471 0110 B8D1     		bne	.L618
 5472 0112 094B     		ldr	r3, .L628+12
 5473 0114 4367     		str	r3, [r0, #116]
 5474 0116 B7E7     		b	.L619
 5475              	.L620:
 5476 0118 0268     		ldr	r2, [r0]
 5477              		.syntax unified
 5478              	@ 1155 "Drivers/CMSIS/Include/cmsis_gcc.h" 1
 5479 011a 52E8003F 		ldrex r3, [r2]
 5480              	@ 0 "" 2
 5481              		.thumb
 5482              		.syntax unified
 5483 011e 43F02003 		orr	r3, r3, #32
 5484              		.syntax unified
 5485              	@ 1206 "Drivers/CMSIS/Include/cmsis_gcc.h" 1
 5486 0122 42E80031 		strex r1, r3, [r2]
 5487              	@ 0 "" 2
 5488              		.thumb
 5489              		.syntax unified
 5490 0126 0029     		cmp	r1, #0
 5491 0128 F6D1     		bne	.L620
ARM GAS  C:\Users\Nathan\AppData\Local\Temp\ccuUV3Of.s 			page 95


 5492 012a B9E7     		b	.L617
 5493              	.L629:
 5494              		.align	2
 5495              	.L628:
 5496 012c 00000000 		.word	UART_RxISR_8BIT
 5497 0130 00000000 		.word	UART_RxISR_8BIT_FIFOEN
 5498 0134 00000000 		.word	UART_RxISR_16BIT_FIFOEN
 5499 0138 00000000 		.word	UART_RxISR_16BIT
 5501              		.section	.text.HAL_UART_Receive_IT,"ax",%progbits
 5502              		.align	1
 5503              		.global	HAL_UART_Receive_IT
 5504              		.syntax unified
 5505              		.thumb
 5506              		.thumb_func
 5508              	HAL_UART_Receive_IT:
 5509              		@ args = 0, pretend = 0, frame = 0
 5510              		@ frame_needed = 0, uses_anonymous_args = 0
 5511 0000 38B5     		push	{r3, r4, r5, lr}
 5512 0002 D0F88C30 		ldr	r3, [r0, #140]
 5513 0006 202B     		cmp	r3, #32
 5514 0008 17D1     		bne	.L634
 5515 000a C1B1     		cbz	r1, .L635
 5516 000c CAB1     		cbz	r2, .L636
 5517 000e 0023     		movs	r3, #0
 5518 0010 C366     		str	r3, [r0, #108]
 5519 0012 0368     		ldr	r3, [r0]
 5520 0014 0C4C     		ldr	r4, .L638
 5521 0016 A342     		cmp	r3, r4
 5522 0018 0CD0     		beq	.L632
 5523 001a 5B68     		ldr	r3, [r3, #4]
 5524 001c 13F4000F 		tst	r3, #8388608
 5525 0020 08D0     		beq	.L632
 5526              	.L633:
 5527 0022 0468     		ldr	r4, [r0]
 5528              		.syntax unified
 5529              	@ 1155 "Drivers/CMSIS/Include/cmsis_gcc.h" 1
 5530 0024 54E8003F 		ldrex r3, [r4]
 5531              	@ 0 "" 2
 5532              		.thumb
 5533              		.syntax unified
 5534 0028 43F08063 		orr	r3, r3, #67108864
 5535              		.syntax unified
 5536              	@ 1206 "Drivers/CMSIS/Include/cmsis_gcc.h" 1
 5537 002c 44E80035 		strex r5, r3, [r4]
 5538              	@ 0 "" 2
 5539              		.thumb
 5540              		.syntax unified
 5541 0030 002D     		cmp	r5, #0
 5542 0032 F6D1     		bne	.L633
 5543              	.L632:
 5544 0034 FFF7FEFF 		bl	UART_Start_Receive_IT
 5545 0038 00E0     		b	.L631
 5546              	.L634:
 5547 003a 0220     		movs	r0, #2
 5548              	.L631:
 5549 003c 38BD     		pop	{r3, r4, r5, pc}
 5550              	.L635:
ARM GAS  C:\Users\Nathan\AppData\Local\Temp\ccuUV3Of.s 			page 96


 5551 003e 0120     		movs	r0, #1
 5552 0040 FCE7     		b	.L631
 5553              	.L636:
 5554 0042 0120     		movs	r0, #1
 5555 0044 FAE7     		b	.L631
 5556              	.L639:
 5557 0046 00BF     		.align	2
 5558              	.L638:
 5559 0048 00800040 		.word	1073774592
 5561              		.section	.text.UART_Start_Receive_DMA,"ax",%progbits
 5562              		.align	1
 5563              		.global	UART_Start_Receive_DMA
 5564              		.syntax unified
 5565              		.thumb
 5566              		.thumb_func
 5568              	UART_Start_Receive_DMA:
 5569              		@ args = 0, pretend = 0, frame = 0
 5570              		@ frame_needed = 0, uses_anonymous_args = 0
 5571 0000 10B5     		push	{r4, lr}
 5572 0002 0446     		mov	r4, r0
 5573 0004 1346     		mov	r3, r2
 5574 0006 8165     		str	r1, [r0, #88]
 5575 0008 A0F85C20 		strh	r2, [r0, #92]	@ movhi
 5576 000c 0022     		movs	r2, #0
 5577 000e C0F89020 		str	r2, [r0, #144]
 5578 0012 2222     		movs	r2, #34
 5579 0014 C0F88C20 		str	r2, [r0, #140]
 5580 0018 D0F88020 		ldr	r2, [r0, #128]
 5581 001c AAB1     		cbz	r2, .L641
 5582 001e 2149     		ldr	r1, .L649
 5583 0020 D162     		str	r1, [r2, #44]
 5584 0022 D0F88020 		ldr	r2, [r0, #128]
 5585 0026 2049     		ldr	r1, .L649+4
 5586 0028 1163     		str	r1, [r2, #48]
 5587 002a D0F88020 		ldr	r2, [r0, #128]
 5588 002e 1F49     		ldr	r1, .L649+8
 5589 0030 5163     		str	r1, [r2, #52]
 5590 0032 D0F88020 		ldr	r2, [r0, #128]
 5591 0036 0021     		movs	r1, #0
 5592 0038 9163     		str	r1, [r2, #56]
 5593 003a 0168     		ldr	r1, [r0]
 5594 003c 826D     		ldr	r2, [r0, #88]
 5595 003e 2431     		adds	r1, r1, #36
 5596 0040 D0F88000 		ldr	r0, [r0, #128]
 5597 0044 FFF7FEFF 		bl	HAL_DMA_Start_IT
 5598 0048 20BB     		cbnz	r0, .L648
 5599              	.L641:
 5600 004a 2369     		ldr	r3, [r4, #16]
 5601 004c 43B1     		cbz	r3, .L645
 5602              	.L644:
 5603 004e 2268     		ldr	r2, [r4]
 5604              		.syntax unified
 5605              	@ 1155 "Drivers/CMSIS/Include/cmsis_gcc.h" 1
 5606 0050 52E8003F 		ldrex r3, [r2]
 5607              	@ 0 "" 2
 5608              		.thumb
 5609              		.syntax unified
ARM GAS  C:\Users\Nathan\AppData\Local\Temp\ccuUV3Of.s 			page 97


 5610 0054 43F48073 		orr	r3, r3, #256
 5611              		.syntax unified
 5612              	@ 1206 "Drivers/CMSIS/Include/cmsis_gcc.h" 1
 5613 0058 42E80031 		strex r1, r3, [r2]
 5614              	@ 0 "" 2
 5615              		.thumb
 5616              		.syntax unified
 5617 005c 0029     		cmp	r1, #0
 5618 005e F6D1     		bne	.L644
 5619              	.L645:
 5620 0060 2268     		ldr	r2, [r4]
 5621 0062 02F10803 		add	r3, r2, #8
 5622              		.syntax unified
 5623              	@ 1155 "Drivers/CMSIS/Include/cmsis_gcc.h" 1
 5624 0066 53E8003F 		ldrex r3, [r3]
 5625              	@ 0 "" 2
 5626              		.thumb
 5627              		.syntax unified
 5628 006a 43F00103 		orr	r3, r3, #1
 5629 006e 0832     		adds	r2, r2, #8
 5630              		.syntax unified
 5631              	@ 1206 "Drivers/CMSIS/Include/cmsis_gcc.h" 1
 5632 0070 42E80031 		strex r1, r3, [r2]
 5633              	@ 0 "" 2
 5634              		.thumb
 5635              		.syntax unified
 5636 0074 0029     		cmp	r1, #0
 5637 0076 F3D1     		bne	.L645
 5638              	.L646:
 5639 0078 2268     		ldr	r2, [r4]
 5640 007a 02F10803 		add	r3, r2, #8
 5641              		.syntax unified
 5642              	@ 1155 "Drivers/CMSIS/Include/cmsis_gcc.h" 1
 5643 007e 53E8003F 		ldrex r3, [r3]
 5644              	@ 0 "" 2
 5645              		.thumb
 5646              		.syntax unified
 5647 0082 43F04003 		orr	r3, r3, #64
 5648 0086 0832     		adds	r2, r2, #8
 5649              		.syntax unified
 5650              	@ 1206 "Drivers/CMSIS/Include/cmsis_gcc.h" 1
 5651 0088 42E80031 		strex r1, r3, [r2]
 5652              	@ 0 "" 2
 5653              		.thumb
 5654              		.syntax unified
 5655 008c 0029     		cmp	r1, #0
 5656 008e F3D1     		bne	.L646
 5657 0090 0020     		movs	r0, #0
 5658              	.L642:
 5659 0092 10BD     		pop	{r4, pc}
 5660              	.L648:
 5661 0094 1023     		movs	r3, #16
 5662 0096 C4F89030 		str	r3, [r4, #144]
 5663 009a 2023     		movs	r3, #32
 5664 009c C4F88C30 		str	r3, [r4, #140]
 5665 00a0 0120     		movs	r0, #1
 5666 00a2 F6E7     		b	.L642
ARM GAS  C:\Users\Nathan\AppData\Local\Temp\ccuUV3Of.s 			page 98


 5667              	.L650:
 5668              		.align	2
 5669              	.L649:
 5670 00a4 00000000 		.word	UART_DMAReceiveCplt
 5671 00a8 00000000 		.word	UART_DMARxHalfCplt
 5672 00ac 00000000 		.word	UART_DMAError
 5674              		.section	.text.HAL_UART_Receive_DMA,"ax",%progbits
 5675              		.align	1
 5676              		.global	HAL_UART_Receive_DMA
 5677              		.syntax unified
 5678              		.thumb
 5679              		.thumb_func
 5681              	HAL_UART_Receive_DMA:
 5682              		@ args = 0, pretend = 0, frame = 0
 5683              		@ frame_needed = 0, uses_anonymous_args = 0
 5684 0000 38B5     		push	{r3, r4, r5, lr}
 5685 0002 D0F88C30 		ldr	r3, [r0, #140]
 5686 0006 202B     		cmp	r3, #32
 5687 0008 17D1     		bne	.L655
 5688 000a C1B1     		cbz	r1, .L656
 5689 000c CAB1     		cbz	r2, .L657
 5690 000e 0023     		movs	r3, #0
 5691 0010 C366     		str	r3, [r0, #108]
 5692 0012 0368     		ldr	r3, [r0]
 5693 0014 0C4C     		ldr	r4, .L659
 5694 0016 A342     		cmp	r3, r4
 5695 0018 0CD0     		beq	.L653
 5696 001a 5B68     		ldr	r3, [r3, #4]
 5697 001c 13F4000F 		tst	r3, #8388608
 5698 0020 08D0     		beq	.L653
 5699              	.L654:
 5700 0022 0468     		ldr	r4, [r0]
 5701              		.syntax unified
 5702              	@ 1155 "Drivers/CMSIS/Include/cmsis_gcc.h" 1
 5703 0024 54E8003F 		ldrex r3, [r4]
 5704              	@ 0 "" 2
 5705              		.thumb
 5706              		.syntax unified
 5707 0028 43F08063 		orr	r3, r3, #67108864
 5708              		.syntax unified
 5709              	@ 1206 "Drivers/CMSIS/Include/cmsis_gcc.h" 1
 5710 002c 44E80035 		strex r5, r3, [r4]
 5711              	@ 0 "" 2
 5712              		.thumb
 5713              		.syntax unified
 5714 0030 002D     		cmp	r5, #0
 5715 0032 F6D1     		bne	.L654
 5716              	.L653:
 5717 0034 FFF7FEFF 		bl	UART_Start_Receive_DMA
 5718 0038 00E0     		b	.L652
 5719              	.L655:
 5720 003a 0220     		movs	r0, #2
 5721              	.L652:
 5722 003c 38BD     		pop	{r3, r4, r5, pc}
 5723              	.L656:
 5724 003e 0120     		movs	r0, #1
 5725 0040 FCE7     		b	.L652
ARM GAS  C:\Users\Nathan\AppData\Local\Temp\ccuUV3Of.s 			page 99


 5726              	.L657:
 5727 0042 0120     		movs	r0, #1
 5728 0044 FAE7     		b	.L652
 5729              	.L660:
 5730 0046 00BF     		.align	2
 5731              	.L659:
 5732 0048 00800040 		.word	1073774592
 5734              		.global	UARTPrescTable
 5735              		.section	.rodata.UARTPrescTable,"a"
 5736              		.align	2
 5739              	UARTPrescTable:
 5740 0000 0100     		.short	1
 5741 0002 0200     		.short	2
 5742 0004 0400     		.short	4
 5743 0006 0600     		.short	6
 5744 0008 0800     		.short	8
 5745 000a 0A00     		.short	10
 5746 000c 0C00     		.short	12
 5747 000e 1000     		.short	16
 5748 0010 2000     		.short	32
 5749 0012 4000     		.short	64
 5750 0014 8000     		.short	128
 5751 0016 0001     		.short	256
 5752              		.ident	"GCC: (Arm GNU Toolchain 13.3.Rel1 (Build arm-13.24)) 13.3.1 20240614"
ARM GAS  C:\Users\Nathan\AppData\Local\Temp\ccuUV3Of.s 			page 100

