ARM GAS  C:\Users\Nathan\AppData\Local\Temp\ccPdMrK0.s 			page 1


   1              		.cpu cortex-m4
   2              		.arch armv7e-m
   3              		.fpu fpv4-sp-d16
   4              		.eabi_attribute 27, 1
   5              		.eabi_attribute 28, 1
   6              		.eabi_attribute 20, 1
   7              		.eabi_attribute 21, 1
   8              		.eabi_attribute 23, 3
   9              		.eabi_attribute 24, 1
  10              		.eabi_attribute 25, 1
  11              		.eabi_attribute 26, 1
  12              		.eabi_attribute 30, 1
  13              		.eabi_attribute 34, 1
  14              		.eabi_attribute 18, 4
  15              		.file	"stm32wbxx_hal_tim.c"
  16              		.text
  17              		.section	.text.TIM_OC1_SetConfig,"ax",%progbits
  18              		.align	1
  19              		.syntax unified
  20              		.thumb
  21              		.thumb_func
  23              	TIM_OC1_SetConfig:
  24              		@ args = 0, pretend = 0, frame = 0
  25              		@ frame_needed = 0, uses_anonymous_args = 0
  26              		@ link register save eliminated.
  27 0000 30B4     		push	{r4, r5}
  28 0002 026A     		ldr	r2, [r0, #32]
  29 0004 036A     		ldr	r3, [r0, #32]
  30 0006 23F00103 		bic	r3, r3, #1
  31 000a 0362     		str	r3, [r0, #32]
  32 000c 4468     		ldr	r4, [r0, #4]
  33 000e 8369     		ldr	r3, [r0, #24]
  34 0010 23F48033 		bic	r3, r3, #65536
  35 0014 23F07303 		bic	r3, r3, #115
  36 0018 0D68     		ldr	r5, [r1]
  37 001a 1D43     		orrs	r5, r5, r3
  38 001c 22F00202 		bic	r2, r2, #2
  39 0020 8B68     		ldr	r3, [r1, #8]
  40 0022 1343     		orrs	r3, r3, r2
  41 0024 144A     		ldr	r2, .L7
  42 0026 9042     		cmp	r0, r2
  43 0028 07D0     		beq	.L2
  44 002a 02F5E052 		add	r2, r2, #7168
  45 002e 9042     		cmp	r0, r2
  46 0030 03D0     		beq	.L2
  47 0032 A2F58062 		sub	r2, r2, #1024
  48 0036 9042     		cmp	r0, r2
  49 0038 05D1     		bne	.L3
  50              	.L2:
  51 003a 23F00803 		bic	r3, r3, #8
  52 003e CA68     		ldr	r2, [r1, #12]
  53 0040 1A43     		orrs	r2, r2, r3
  54 0042 22F00403 		bic	r3, r2, #4
  55              	.L3:
  56 0046 0C4A     		ldr	r2, .L7
  57 0048 9042     		cmp	r0, r2
  58 004a 07D0     		beq	.L4
ARM GAS  C:\Users\Nathan\AppData\Local\Temp\ccPdMrK0.s 			page 2


  59 004c 02F5C052 		add	r2, r2, #6144
  60 0050 9042     		cmp	r0, r2
  61 0052 03D0     		beq	.L4
  62 0054 02F58062 		add	r2, r2, #1024
  63 0058 9042     		cmp	r0, r2
  64 005a 05D1     		bne	.L5
  65              	.L4:
  66 005c 24F44074 		bic	r4, r4, #768
  67 0060 4A69     		ldr	r2, [r1, #20]
  68 0062 2243     		orrs	r2, r2, r4
  69 0064 8C69     		ldr	r4, [r1, #24]
  70 0066 1443     		orrs	r4, r4, r2
  71              	.L5:
  72 0068 4460     		str	r4, [r0, #4]
  73 006a 8561     		str	r5, [r0, #24]
  74 006c 4A68     		ldr	r2, [r1, #4]
  75 006e 4263     		str	r2, [r0, #52]
  76 0070 0362     		str	r3, [r0, #32]
  77 0072 30BC     		pop	{r4, r5}
  78 0074 7047     		bx	lr
  79              	.L8:
  80 0076 00BF     		.align	2
  81              	.L7:
  82 0078 002C0140 		.word	1073818624
  84              		.section	.text.TIM_OC3_SetConfig,"ax",%progbits
  85              		.align	1
  86              		.syntax unified
  87              		.thumb
  88              		.thumb_func
  90              	TIM_OC3_SetConfig:
  91              		@ args = 0, pretend = 0, frame = 0
  92              		@ frame_needed = 0, uses_anonymous_args = 0
  93              		@ link register save eliminated.
  94 0000 30B4     		push	{r4, r5}
  95 0002 036A     		ldr	r3, [r0, #32]
  96 0004 026A     		ldr	r2, [r0, #32]
  97 0006 22F48072 		bic	r2, r2, #256
  98 000a 0262     		str	r2, [r0, #32]
  99 000c 4468     		ldr	r4, [r0, #4]
 100 000e C269     		ldr	r2, [r0, #28]
 101 0010 22F48032 		bic	r2, r2, #65536
 102 0014 22F07302 		bic	r2, r2, #115
 103 0018 0D68     		ldr	r5, [r1]
 104 001a 1543     		orrs	r5, r5, r2
 105 001c 23F40073 		bic	r3, r3, #512
 106 0020 8A68     		ldr	r2, [r1, #8]
 107 0022 43EA0223 		orr	r3, r3, r2, lsl #8
 108 0026 104A     		ldr	r2, .L15
 109 0028 9042     		cmp	r0, r2
 110 002a 07D0     		beq	.L14
 111 002c 0F4A     		ldr	r2, .L15+4
 112 002e 9042     		cmp	r0, r2
 113 0030 0BD0     		beq	.L11
 114 0032 02F58062 		add	r2, r2, #1024
 115 0036 9042     		cmp	r0, r2
 116 0038 0FD1     		bne	.L12
 117 003a 06E0     		b	.L11
ARM GAS  C:\Users\Nathan\AppData\Local\Temp\ccPdMrK0.s 			page 3


 118              	.L14:
 119 003c 23F40063 		bic	r3, r3, #2048
 120 0040 CA68     		ldr	r2, [r1, #12]
 121 0042 43EA0223 		orr	r3, r3, r2, lsl #8
 122 0046 23F48063 		bic	r3, r3, #1024
 123              	.L11:
 124 004a 24F44054 		bic	r4, r4, #12288
 125 004e 4A69     		ldr	r2, [r1, #20]
 126 0050 44EA0214 		orr	r4, r4, r2, lsl #4
 127 0054 8A69     		ldr	r2, [r1, #24]
 128 0056 44EA0214 		orr	r4, r4, r2, lsl #4
 129              	.L12:
 130 005a 4460     		str	r4, [r0, #4]
 131 005c C561     		str	r5, [r0, #28]
 132 005e 4A68     		ldr	r2, [r1, #4]
 133 0060 C263     		str	r2, [r0, #60]
 134 0062 0362     		str	r3, [r0, #32]
 135 0064 30BC     		pop	{r4, r5}
 136 0066 7047     		bx	lr
 137              	.L16:
 138              		.align	2
 139              	.L15:
 140 0068 002C0140 		.word	1073818624
 141 006c 00440140 		.word	1073824768
 143              		.section	.text.TIM_OC4_SetConfig,"ax",%progbits
 144              		.align	1
 145              		.syntax unified
 146              		.thumb
 147              		.thumb_func
 149              	TIM_OC4_SetConfig:
 150              		@ args = 0, pretend = 0, frame = 0
 151              		@ frame_needed = 0, uses_anonymous_args = 0
 152              		@ link register save eliminated.
 153 0000 30B4     		push	{r4, r5}
 154 0002 026A     		ldr	r2, [r0, #32]
 155 0004 036A     		ldr	r3, [r0, #32]
 156 0006 23F48053 		bic	r3, r3, #4096
 157 000a 0362     		str	r3, [r0, #32]
 158 000c 4468     		ldr	r4, [r0, #4]
 159 000e C369     		ldr	r3, [r0, #28]
 160 0010 23F08073 		bic	r3, r3, #16777216
 161 0014 23F4E643 		bic	r3, r3, #29440
 162 0018 0D68     		ldr	r5, [r1]
 163 001a 43EA0523 		orr	r3, r3, r5, lsl #8
 164 001e 22F40052 		bic	r2, r2, #8192
 165 0022 8D68     		ldr	r5, [r1, #8]
 166 0024 42EA0532 		orr	r2, r2, r5, lsl #12
 167 0028 0B4D     		ldr	r5, .L21
 168 002a A842     		cmp	r0, r5
 169 002c 07D0     		beq	.L18
 170 002e 05F5C055 		add	r5, r5, #6144
 171 0032 A842     		cmp	r0, r5
 172 0034 03D0     		beq	.L18
 173 0036 05F58065 		add	r5, r5, #1024
 174 003a A842     		cmp	r0, r5
 175 003c 04D1     		bne	.L19
 176              	.L18:
ARM GAS  C:\Users\Nathan\AppData\Local\Temp\ccPdMrK0.s 			page 4


 177 003e 24F48044 		bic	r4, r4, #16384
 178 0042 4D69     		ldr	r5, [r1, #20]
 179 0044 44EA8514 		orr	r4, r4, r5, lsl #6
 180              	.L19:
 181 0048 4460     		str	r4, [r0, #4]
 182 004a C361     		str	r3, [r0, #28]
 183 004c 4B68     		ldr	r3, [r1, #4]
 184 004e 0364     		str	r3, [r0, #64]
 185 0050 0262     		str	r2, [r0, #32]
 186 0052 30BC     		pop	{r4, r5}
 187 0054 7047     		bx	lr
 188              	.L22:
 189 0056 00BF     		.align	2
 190              	.L21:
 191 0058 002C0140 		.word	1073818624
 193              		.section	.text.TIM_OC5_SetConfig,"ax",%progbits
 194              		.align	1
 195              		.syntax unified
 196              		.thumb
 197              		.thumb_func
 199              	TIM_OC5_SetConfig:
 200              		@ args = 0, pretend = 0, frame = 0
 201              		@ frame_needed = 0, uses_anonymous_args = 0
 202              		@ link register save eliminated.
 203 0000 30B4     		push	{r4, r5}
 204 0002 036A     		ldr	r3, [r0, #32]
 205 0004 026A     		ldr	r2, [r0, #32]
 206 0006 22F48032 		bic	r2, r2, #65536
 207 000a 0262     		str	r2, [r0, #32]
 208 000c 4468     		ldr	r4, [r0, #4]
 209 000e 426D     		ldr	r2, [r0, #84]
 210 0010 22F48032 		bic	r2, r2, #65536
 211 0014 22F07002 		bic	r2, r2, #112
 212 0018 0D68     		ldr	r5, [r1]
 213 001a 2A43     		orrs	r2, r2, r5
 214 001c 23F40033 		bic	r3, r3, #131072
 215 0020 8D68     		ldr	r5, [r1, #8]
 216 0022 43EA0543 		orr	r3, r3, r5, lsl #16
 217 0026 0B4D     		ldr	r5, .L27
 218 0028 A842     		cmp	r0, r5
 219 002a 07D0     		beq	.L24
 220 002c 05F5C055 		add	r5, r5, #6144
 221 0030 A842     		cmp	r0, r5
 222 0032 03D0     		beq	.L24
 223 0034 05F58065 		add	r5, r5, #1024
 224 0038 A842     		cmp	r0, r5
 225 003a 04D1     		bne	.L25
 226              	.L24:
 227 003c 24F48034 		bic	r4, r4, #65536
 228 0040 4D69     		ldr	r5, [r1, #20]
 229 0042 44EA0524 		orr	r4, r4, r5, lsl #8
 230              	.L25:
 231 0046 4460     		str	r4, [r0, #4]
 232 0048 4265     		str	r2, [r0, #84]
 233 004a 4A68     		ldr	r2, [r1, #4]
 234 004c 8265     		str	r2, [r0, #88]
 235 004e 0362     		str	r3, [r0, #32]
ARM GAS  C:\Users\Nathan\AppData\Local\Temp\ccPdMrK0.s 			page 5


 236 0050 30BC     		pop	{r4, r5}
 237 0052 7047     		bx	lr
 238              	.L28:
 239              		.align	2
 240              	.L27:
 241 0054 002C0140 		.word	1073818624
 243              		.section	.text.TIM_OC6_SetConfig,"ax",%progbits
 244              		.align	1
 245              		.syntax unified
 246              		.thumb
 247              		.thumb_func
 249              	TIM_OC6_SetConfig:
 250              		@ args = 0, pretend = 0, frame = 0
 251              		@ frame_needed = 0, uses_anonymous_args = 0
 252              		@ link register save eliminated.
 253 0000 30B4     		push	{r4, r5}
 254 0002 026A     		ldr	r2, [r0, #32]
 255 0004 036A     		ldr	r3, [r0, #32]
 256 0006 23F48013 		bic	r3, r3, #1048576
 257 000a 0362     		str	r3, [r0, #32]
 258 000c 4468     		ldr	r4, [r0, #4]
 259 000e 436D     		ldr	r3, [r0, #84]
 260 0010 23F08073 		bic	r3, r3, #16777216
 261 0014 23F4E043 		bic	r3, r3, #28672
 262 0018 0D68     		ldr	r5, [r1]
 263 001a 43EA0523 		orr	r3, r3, r5, lsl #8
 264 001e 22F40012 		bic	r2, r2, #2097152
 265 0022 8D68     		ldr	r5, [r1, #8]
 266 0024 42EA0552 		orr	r2, r2, r5, lsl #20
 267 0028 0B4D     		ldr	r5, .L33
 268 002a A842     		cmp	r0, r5
 269 002c 07D0     		beq	.L30
 270 002e 05F5C055 		add	r5, r5, #6144
 271 0032 A842     		cmp	r0, r5
 272 0034 03D0     		beq	.L30
 273 0036 05F58065 		add	r5, r5, #1024
 274 003a A842     		cmp	r0, r5
 275 003c 04D1     		bne	.L31
 276              	.L30:
 277 003e 24F48024 		bic	r4, r4, #262144
 278 0042 4D69     		ldr	r5, [r1, #20]
 279 0044 44EA8524 		orr	r4, r4, r5, lsl #10
 280              	.L31:
 281 0048 4460     		str	r4, [r0, #4]
 282 004a 4365     		str	r3, [r0, #84]
 283 004c 4B68     		ldr	r3, [r1, #4]
 284 004e C365     		str	r3, [r0, #92]
 285 0050 0262     		str	r2, [r0, #32]
 286 0052 30BC     		pop	{r4, r5}
 287 0054 7047     		bx	lr
 288              	.L34:
 289 0056 00BF     		.align	2
 290              	.L33:
 291 0058 002C0140 		.word	1073818624
 293              		.section	.text.TIM_TI1_ConfigInputStage,"ax",%progbits
 294              		.align	1
 295              		.syntax unified
ARM GAS  C:\Users\Nathan\AppData\Local\Temp\ccPdMrK0.s 			page 6


 296              		.thumb
 297              		.thumb_func
 299              	TIM_TI1_ConfigInputStage:
 300              		@ args = 0, pretend = 0, frame = 0
 301              		@ frame_needed = 0, uses_anonymous_args = 0
 302              		@ link register save eliminated.
 303 0000 10B4     		push	{r4}
 304 0002 036A     		ldr	r3, [r0, #32]
 305 0004 046A     		ldr	r4, [r0, #32]
 306 0006 24F00104 		bic	r4, r4, #1
 307 000a 0462     		str	r4, [r0, #32]
 308 000c 8469     		ldr	r4, [r0, #24]
 309 000e 24F0F00C 		bic	ip, r4, #240
 310 0012 4CEA0212 		orr	r2, ip, r2, lsl #4
 311 0016 23F00A03 		bic	r3, r3, #10
 312 001a 0B43     		orrs	r3, r3, r1
 313 001c 8261     		str	r2, [r0, #24]
 314 001e 0362     		str	r3, [r0, #32]
 315 0020 5DF8044B 		ldr	r4, [sp], #4
 316 0024 7047     		bx	lr
 318              		.section	.text.TIM_TI2_SetConfig,"ax",%progbits
 319              		.align	1
 320              		.syntax unified
 321              		.thumb
 322              		.thumb_func
 324              	TIM_TI2_SetConfig:
 325              		@ args = 0, pretend = 0, frame = 0
 326              		@ frame_needed = 0, uses_anonymous_args = 0
 327              		@ link register save eliminated.
 328 0000 30B4     		push	{r4, r5}
 329 0002 056A     		ldr	r5, [r0, #32]
 330 0004 046A     		ldr	r4, [r0, #32]
 331 0006 24F01004 		bic	r4, r4, #16
 332 000a 0462     		str	r4, [r0, #32]
 333 000c 8469     		ldr	r4, [r0, #24]
 334 000e 24F4407C 		bic	ip, r4, #768
 335 0012 4CEA022C 		orr	ip, ip, r2, lsl #8
 336 0016 2CF4704C 		bic	ip, ip, #61440
 337 001a 1B03     		lsls	r3, r3, #12
 338 001c 9BB2     		uxth	r3, r3
 339 001e 43EA0C03 		orr	r3, r3, ip
 340 0022 25F0A005 		bic	r5, r5, #160
 341 0026 0901     		lsls	r1, r1, #4
 342 0028 01F0A001 		and	r1, r1, #160
 343 002c 2943     		orrs	r1, r1, r5
 344 002e 8361     		str	r3, [r0, #24]
 345 0030 0162     		str	r1, [r0, #32]
 346 0032 30BC     		pop	{r4, r5}
 347 0034 7047     		bx	lr
 349              		.section	.text.TIM_TI2_ConfigInputStage,"ax",%progbits
 350              		.align	1
 351              		.syntax unified
 352              		.thumb
 353              		.thumb_func
 355              	TIM_TI2_ConfigInputStage:
 356              		@ args = 0, pretend = 0, frame = 0
 357              		@ frame_needed = 0, uses_anonymous_args = 0
ARM GAS  C:\Users\Nathan\AppData\Local\Temp\ccPdMrK0.s 			page 7


 358              		@ link register save eliminated.
 359 0000 10B4     		push	{r4}
 360 0002 036A     		ldr	r3, [r0, #32]
 361 0004 046A     		ldr	r4, [r0, #32]
 362 0006 24F01004 		bic	r4, r4, #16
 363 000a 0462     		str	r4, [r0, #32]
 364 000c 8469     		ldr	r4, [r0, #24]
 365 000e 24F4704C 		bic	ip, r4, #61440
 366 0012 4CEA0232 		orr	r2, ip, r2, lsl #12
 367 0016 23F0A003 		bic	r3, r3, #160
 368 001a 43EA0113 		orr	r3, r3, r1, lsl #4
 369 001e 8261     		str	r2, [r0, #24]
 370 0020 0362     		str	r3, [r0, #32]
 371 0022 5DF8044B 		ldr	r4, [sp], #4
 372 0026 7047     		bx	lr
 374              		.section	.text.TIM_TI3_SetConfig,"ax",%progbits
 375              		.align	1
 376              		.syntax unified
 377              		.thumb
 378              		.thumb_func
 380              	TIM_TI3_SetConfig:
 381              		@ args = 0, pretend = 0, frame = 0
 382              		@ frame_needed = 0, uses_anonymous_args = 0
 383              		@ link register save eliminated.
 384 0000 30B4     		push	{r4, r5}
 385 0002 056A     		ldr	r5, [r0, #32]
 386 0004 046A     		ldr	r4, [r0, #32]
 387 0006 24F48074 		bic	r4, r4, #256
 388 000a 0462     		str	r4, [r0, #32]
 389 000c C469     		ldr	r4, [r0, #28]
 390 000e 24F0030C 		bic	ip, r4, #3
 391 0012 4CEA020C 		orr	ip, ip, r2
 392 0016 2CF0F00C 		bic	ip, ip, #240
 393 001a 1B01     		lsls	r3, r3, #4
 394 001c DBB2     		uxtb	r3, r3
 395 001e 43EA0C03 		orr	r3, r3, ip
 396 0022 25F42065 		bic	r5, r5, #2560
 397 0026 0902     		lsls	r1, r1, #8
 398 0028 01F42061 		and	r1, r1, #2560
 399 002c 2943     		orrs	r1, r1, r5
 400 002e C361     		str	r3, [r0, #28]
 401 0030 0162     		str	r1, [r0, #32]
 402 0032 30BC     		pop	{r4, r5}
 403 0034 7047     		bx	lr
 405              		.section	.text.TIM_TI4_SetConfig,"ax",%progbits
 406              		.align	1
 407              		.syntax unified
 408              		.thumb
 409              		.thumb_func
 411              	TIM_TI4_SetConfig:
 412              		@ args = 0, pretend = 0, frame = 0
 413              		@ frame_needed = 0, uses_anonymous_args = 0
 414              		@ link register save eliminated.
 415 0000 30B4     		push	{r4, r5}
 416 0002 056A     		ldr	r5, [r0, #32]
 417 0004 046A     		ldr	r4, [r0, #32]
 418 0006 24F48054 		bic	r4, r4, #4096
ARM GAS  C:\Users\Nathan\AppData\Local\Temp\ccPdMrK0.s 			page 8


 419 000a 0462     		str	r4, [r0, #32]
 420 000c C469     		ldr	r4, [r0, #28]
 421 000e 24F4407C 		bic	ip, r4, #768
 422 0012 4CEA022C 		orr	ip, ip, r2, lsl #8
 423 0016 2CF4704C 		bic	ip, ip, #61440
 424 001a 1B03     		lsls	r3, r3, #12
 425 001c 9BB2     		uxth	r3, r3
 426 001e 43EA0C03 		orr	r3, r3, ip
 427 0022 25F42045 		bic	r5, r5, #40960
 428 0026 0903     		lsls	r1, r1, #12
 429 0028 01F42041 		and	r1, r1, #40960
 430 002c 2943     		orrs	r1, r1, r5
 431 002e C361     		str	r3, [r0, #28]
 432 0030 0162     		str	r1, [r0, #32]
 433 0032 30BC     		pop	{r4, r5}
 434 0034 7047     		bx	lr
 436              		.section	.text.TIM_ITRx_SetConfig,"ax",%progbits
 437              		.align	1
 438              		.syntax unified
 439              		.thumb
 440              		.thumb_func
 442              	TIM_ITRx_SetConfig:
 443              		@ args = 0, pretend = 0, frame = 0
 444              		@ frame_needed = 0, uses_anonymous_args = 0
 445              		@ link register save eliminated.
 446 0000 8368     		ldr	r3, [r0, #8]
 447 0002 23F44013 		bic	r3, r3, #3145728
 448 0006 23F07003 		bic	r3, r3, #112
 449 000a 0B43     		orrs	r3, r3, r1
 450 000c 43F00703 		orr	r3, r3, #7
 451 0010 8360     		str	r3, [r0, #8]
 452 0012 7047     		bx	lr
 454              		.section	.text.HAL_TIM_Base_MspInit,"ax",%progbits
 455              		.align	1
 456              		.weak	HAL_TIM_Base_MspInit
 457              		.syntax unified
 458              		.thumb
 459              		.thumb_func
 461              	HAL_TIM_Base_MspInit:
 462              		@ args = 0, pretend = 0, frame = 0
 463              		@ frame_needed = 0, uses_anonymous_args = 0
 464              		@ link register save eliminated.
 465 0000 7047     		bx	lr
 467              		.section	.text.HAL_TIM_Base_MspDeInit,"ax",%progbits
 468              		.align	1
 469              		.weak	HAL_TIM_Base_MspDeInit
 470              		.syntax unified
 471              		.thumb
 472              		.thumb_func
 474              	HAL_TIM_Base_MspDeInit:
 475              		@ args = 0, pretend = 0, frame = 0
 476              		@ frame_needed = 0, uses_anonymous_args = 0
 477              		@ link register save eliminated.
 478 0000 7047     		bx	lr
 480              		.section	.text.HAL_TIM_Base_DeInit,"ax",%progbits
 481              		.align	1
 482              		.global	HAL_TIM_Base_DeInit
ARM GAS  C:\Users\Nathan\AppData\Local\Temp\ccPdMrK0.s 			page 9


 483              		.syntax unified
 484              		.thumb
 485              		.thumb_func
 487              	HAL_TIM_Base_DeInit:
 488              		@ args = 0, pretend = 0, frame = 0
 489              		@ frame_needed = 0, uses_anonymous_args = 0
 490 0000 10B5     		push	{r4, lr}
 491 0002 0446     		mov	r4, r0
 492 0004 0223     		movs	r3, #2
 493 0006 80F83D30 		strb	r3, [r0, #61]
 494 000a 0268     		ldr	r2, [r0]
 495 000c 136A     		ldr	r3, [r2, #32]
 496 000e 03F01133 		and	r3, r3, #286331153
 497 0012 23F08853 		bic	r3, r3, #285212672
 498 0016 43B9     		cbnz	r3, .L49
 499 0018 116A     		ldr	r1, [r2, #32]
 500 001a 40F24443 		movw	r3, #1092
 501 001e 1942     		tst	r1, r3
 502 0020 03D1     		bne	.L49
 503 0022 1368     		ldr	r3, [r2]
 504 0024 23F00103 		bic	r3, r3, #1
 505 0028 1360     		str	r3, [r2]
 506              	.L49:
 507 002a 2046     		mov	r0, r4
 508 002c FFF7FEFF 		bl	HAL_TIM_Base_MspDeInit
 509 0030 0020     		movs	r0, #0
 510 0032 84F84800 		strb	r0, [r4, #72]
 511 0036 84F83E00 		strb	r0, [r4, #62]
 512 003a 84F83F00 		strb	r0, [r4, #63]
 513 003e 84F84000 		strb	r0, [r4, #64]
 514 0042 84F84100 		strb	r0, [r4, #65]
 515 0046 84F84200 		strb	r0, [r4, #66]
 516 004a 84F84300 		strb	r0, [r4, #67]
 517 004e 84F84400 		strb	r0, [r4, #68]
 518 0052 84F84500 		strb	r0, [r4, #69]
 519 0056 84F84600 		strb	r0, [r4, #70]
 520 005a 84F84700 		strb	r0, [r4, #71]
 521 005e 84F83D00 		strb	r0, [r4, #61]
 522 0062 84F83C00 		strb	r0, [r4, #60]
 523 0066 10BD     		pop	{r4, pc}
 525              		.section	.text.HAL_TIM_Base_Start,"ax",%progbits
 526              		.align	1
 527              		.global	HAL_TIM_Base_Start
 528              		.syntax unified
 529              		.thumb
 530              		.thumb_func
 532              	HAL_TIM_Base_Start:
 533              		@ args = 0, pretend = 0, frame = 0
 534              		@ frame_needed = 0, uses_anonymous_args = 0
 535              		@ link register save eliminated.
 536 0000 90F83D30 		ldrb	r3, [r0, #61]	@ zero_extendqisi2
 537 0004 DBB2     		uxtb	r3, r3
 538 0006 012B     		cmp	r3, #1
 539 0008 1DD1     		bne	.L55
 540 000a 0223     		movs	r3, #2
 541 000c 80F83D30 		strb	r3, [r0, #61]
 542 0010 0368     		ldr	r3, [r0]
ARM GAS  C:\Users\Nathan\AppData\Local\Temp\ccPdMrK0.s 			page 10


 543 0012 104A     		ldr	r2, .L58
 544 0014 9342     		cmp	r3, r2
 545 0016 08D0     		beq	.L53
 546 0018 B3F1804F 		cmp	r3, #1073741824
 547 001c 05D0     		beq	.L53
 548 001e 1A68     		ldr	r2, [r3]
 549 0020 42F00102 		orr	r2, r2, #1
 550 0024 1A60     		str	r2, [r3]
 551 0026 0020     		movs	r0, #0
 552 0028 7047     		bx	lr
 553              	.L53:
 554 002a 9968     		ldr	r1, [r3, #8]
 555 002c 0A4A     		ldr	r2, .L58+4
 556 002e 0A40     		ands	r2, r2, r1
 557 0030 062A     		cmp	r2, #6
 558 0032 0AD0     		beq	.L56
 559 0034 B2F5803F 		cmp	r2, #65536
 560 0038 09D0     		beq	.L57
 561 003a 1A68     		ldr	r2, [r3]
 562 003c 42F00102 		orr	r2, r2, #1
 563 0040 1A60     		str	r2, [r3]
 564 0042 0020     		movs	r0, #0
 565 0044 7047     		bx	lr
 566              	.L55:
 567 0046 0120     		movs	r0, #1
 568 0048 7047     		bx	lr
 569              	.L56:
 570 004a 0020     		movs	r0, #0
 571 004c 7047     		bx	lr
 572              	.L57:
 573 004e 0020     		movs	r0, #0
 574 0050 7047     		bx	lr
 575              	.L59:
 576 0052 00BF     		.align	2
 577              	.L58:
 578 0054 002C0140 		.word	1073818624
 579 0058 07000100 		.word	65543
 581              		.section	.text.HAL_TIM_Base_Stop,"ax",%progbits
 582              		.align	1
 583              		.global	HAL_TIM_Base_Stop
 584              		.syntax unified
 585              		.thumb
 586              		.thumb_func
 588              	HAL_TIM_Base_Stop:
 589              		@ args = 0, pretend = 0, frame = 0
 590              		@ frame_needed = 0, uses_anonymous_args = 0
 591              		@ link register save eliminated.
 592 0000 0268     		ldr	r2, [r0]
 593 0002 136A     		ldr	r3, [r2, #32]
 594 0004 03F01133 		and	r3, r3, #286331153
 595 0008 23F08853 		bic	r3, r3, #285212672
 596 000c 43B9     		cbnz	r3, .L61
 597 000e 116A     		ldr	r1, [r2, #32]
 598 0010 40F24443 		movw	r3, #1092
 599 0014 1942     		tst	r1, r3
 600 0016 03D1     		bne	.L61
 601 0018 1368     		ldr	r3, [r2]
ARM GAS  C:\Users\Nathan\AppData\Local\Temp\ccPdMrK0.s 			page 11


 602 001a 23F00103 		bic	r3, r3, #1
 603 001e 1360     		str	r3, [r2]
 604              	.L61:
 605 0020 0123     		movs	r3, #1
 606 0022 80F83D30 		strb	r3, [r0, #61]
 607 0026 0020     		movs	r0, #0
 608 0028 7047     		bx	lr
 610              		.section	.text.HAL_TIM_Base_Start_IT,"ax",%progbits
 611              		.align	1
 612              		.global	HAL_TIM_Base_Start_IT
 613              		.syntax unified
 614              		.thumb
 615              		.thumb_func
 617              	HAL_TIM_Base_Start_IT:
 618              		@ args = 0, pretend = 0, frame = 0
 619              		@ frame_needed = 0, uses_anonymous_args = 0
 620              		@ link register save eliminated.
 621 0000 90F83D30 		ldrb	r3, [r0, #61]	@ zero_extendqisi2
 622 0004 DBB2     		uxtb	r3, r3
 623 0006 012B     		cmp	r3, #1
 624 0008 22D1     		bne	.L66
 625 000a 0223     		movs	r3, #2
 626 000c 80F83D30 		strb	r3, [r0, #61]
 627 0010 0268     		ldr	r2, [r0]
 628 0012 D368     		ldr	r3, [r2, #12]
 629 0014 43F00103 		orr	r3, r3, #1
 630 0018 D360     		str	r3, [r2, #12]
 631 001a 0368     		ldr	r3, [r0]
 632 001c 0F4A     		ldr	r2, .L69
 633 001e 9342     		cmp	r3, r2
 634 0020 08D0     		beq	.L64
 635 0022 B3F1804F 		cmp	r3, #1073741824
 636 0026 05D0     		beq	.L64
 637 0028 1A68     		ldr	r2, [r3]
 638 002a 42F00102 		orr	r2, r2, #1
 639 002e 1A60     		str	r2, [r3]
 640 0030 0020     		movs	r0, #0
 641 0032 7047     		bx	lr
 642              	.L64:
 643 0034 9968     		ldr	r1, [r3, #8]
 644 0036 0A4A     		ldr	r2, .L69+4
 645 0038 0A40     		ands	r2, r2, r1
 646 003a 062A     		cmp	r2, #6
 647 003c 0AD0     		beq	.L67
 648 003e B2F5803F 		cmp	r2, #65536
 649 0042 09D0     		beq	.L68
 650 0044 1A68     		ldr	r2, [r3]
 651 0046 42F00102 		orr	r2, r2, #1
 652 004a 1A60     		str	r2, [r3]
 653 004c 0020     		movs	r0, #0
 654 004e 7047     		bx	lr
 655              	.L66:
 656 0050 0120     		movs	r0, #1
 657 0052 7047     		bx	lr
 658              	.L67:
 659 0054 0020     		movs	r0, #0
 660 0056 7047     		bx	lr
ARM GAS  C:\Users\Nathan\AppData\Local\Temp\ccPdMrK0.s 			page 12


 661              	.L68:
 662 0058 0020     		movs	r0, #0
 663 005a 7047     		bx	lr
 664              	.L70:
 665              		.align	2
 666              	.L69:
 667 005c 002C0140 		.word	1073818624
 668 0060 07000100 		.word	65543
 670              		.section	.text.HAL_TIM_Base_Stop_IT,"ax",%progbits
 671              		.align	1
 672              		.global	HAL_TIM_Base_Stop_IT
 673              		.syntax unified
 674              		.thumb
 675              		.thumb_func
 677              	HAL_TIM_Base_Stop_IT:
 678              		@ args = 0, pretend = 0, frame = 0
 679              		@ frame_needed = 0, uses_anonymous_args = 0
 680              		@ link register save eliminated.
 681 0000 0268     		ldr	r2, [r0]
 682 0002 D368     		ldr	r3, [r2, #12]
 683 0004 23F00103 		bic	r3, r3, #1
 684 0008 D360     		str	r3, [r2, #12]
 685 000a 0268     		ldr	r2, [r0]
 686 000c 136A     		ldr	r3, [r2, #32]
 687 000e 03F01133 		and	r3, r3, #286331153
 688 0012 23F08853 		bic	r3, r3, #285212672
 689 0016 43B9     		cbnz	r3, .L72
 690 0018 116A     		ldr	r1, [r2, #32]
 691 001a 40F24443 		movw	r3, #1092
 692 001e 1942     		tst	r1, r3
 693 0020 03D1     		bne	.L72
 694 0022 1368     		ldr	r3, [r2]
 695 0024 23F00103 		bic	r3, r3, #1
 696 0028 1360     		str	r3, [r2]
 697              	.L72:
 698 002a 0123     		movs	r3, #1
 699 002c 80F83D30 		strb	r3, [r0, #61]
 700 0030 0020     		movs	r0, #0
 701 0032 7047     		bx	lr
 703              		.section	.text.HAL_TIM_Base_Start_DMA,"ax",%progbits
 704              		.align	1
 705              		.global	HAL_TIM_Base_Start_DMA
 706              		.syntax unified
 707              		.thumb
 708              		.thumb_func
 710              	HAL_TIM_Base_Start_DMA:
 711              		@ args = 0, pretend = 0, frame = 0
 712              		@ frame_needed = 0, uses_anonymous_args = 0
 713 0000 38B5     		push	{r3, r4, r5, lr}
 714 0002 90F83D40 		ldrb	r4, [r0, #61]	@ zero_extendqisi2
 715 0006 E4B2     		uxtb	r4, r4
 716 0008 022C     		cmp	r4, #2
 717 000a 3FD0     		beq	.L74
 718 000c 0546     		mov	r5, r0
 719 000e 90F83D40 		ldrb	r4, [r0, #61]	@ zero_extendqisi2
 720 0012 E4B2     		uxtb	r4, r4
 721 0014 012C     		cmp	r4, #1
ARM GAS  C:\Users\Nathan\AppData\Local\Temp\ccPdMrK0.s 			page 13


 722 0016 38D1     		bne	.L77
 723 0018 0029     		cmp	r1, #0
 724 001a 37D0     		beq	.L74
 725 001c 002A     		cmp	r2, #0
 726 001e 35D0     		beq	.L74
 727 0020 0223     		movs	r3, #2
 728 0022 80F83D30 		strb	r3, [r0, #61]
 729 0026 036A     		ldr	r3, [r0, #32]
 730 0028 1B48     		ldr	r0, .L81
 731 002a D862     		str	r0, [r3, #44]
 732 002c 2B6A     		ldr	r3, [r5, #32]
 733 002e 1B48     		ldr	r0, .L81+4
 734 0030 1863     		str	r0, [r3, #48]
 735 0032 2B6A     		ldr	r3, [r5, #32]
 736 0034 1A48     		ldr	r0, .L81+8
 737 0036 5863     		str	r0, [r3, #52]
 738 0038 2868     		ldr	r0, [r5]
 739 003a 1346     		mov	r3, r2
 740 003c 00F12C02 		add	r2, r0, #44
 741 0040 286A     		ldr	r0, [r5, #32]
 742 0042 FFF7FEFF 		bl	HAL_DMA_Start_IT
 743 0046 0146     		mov	r1, r0
 744 0048 00BB     		cbnz	r0, .L74
 745 004a 2A68     		ldr	r2, [r5]
 746 004c D368     		ldr	r3, [r2, #12]
 747 004e 43F48073 		orr	r3, r3, #256
 748 0052 D360     		str	r3, [r2, #12]
 749 0054 2B68     		ldr	r3, [r5]
 750 0056 134A     		ldr	r2, .L81+12
 751 0058 9342     		cmp	r3, r2
 752 005a 08D0     		beq	.L75
 753 005c B3F1804F 		cmp	r3, #1073741824
 754 0060 05D0     		beq	.L75
 755 0062 1A68     		ldr	r2, [r3]
 756 0064 42F00102 		orr	r2, r2, #1
 757 0068 1A60     		str	r2, [r3]
 758 006a 0446     		mov	r4, r0
 759 006c 0EE0     		b	.L74
 760              	.L75:
 761 006e 9868     		ldr	r0, [r3, #8]
 762 0070 0D4A     		ldr	r2, .L81+16
 763 0072 0240     		ands	r2, r2, r0
 764 0074 062A     		cmp	r2, #6
 765 0076 0BD0     		beq	.L78
 766 0078 B2F5803F 		cmp	r2, #65536
 767 007c 0AD0     		beq	.L79
 768 007e 1A68     		ldr	r2, [r3]
 769 0080 42F00102 		orr	r2, r2, #1
 770 0084 1A60     		str	r2, [r3]
 771 0086 0C46     		mov	r4, r1
 772 0088 00E0     		b	.L74
 773              	.L77:
 774 008a 0124     		movs	r4, #1
 775              	.L74:
 776 008c 2046     		mov	r0, r4
 777 008e 38BD     		pop	{r3, r4, r5, pc}
 778              	.L78:
ARM GAS  C:\Users\Nathan\AppData\Local\Temp\ccPdMrK0.s 			page 14


 779 0090 0C46     		mov	r4, r1
 780 0092 FBE7     		b	.L74
 781              	.L79:
 782 0094 0C46     		mov	r4, r1
 783 0096 F9E7     		b	.L74
 784              	.L82:
 785              		.align	2
 786              	.L81:
 787 0098 00000000 		.word	TIM_DMAPeriodElapsedCplt
 788 009c 00000000 		.word	TIM_DMAPeriodElapsedHalfCplt
 789 00a0 00000000 		.word	TIM_DMAError
 790 00a4 002C0140 		.word	1073818624
 791 00a8 07000100 		.word	65543
 793              		.section	.text.HAL_TIM_Base_Stop_DMA,"ax",%progbits
 794              		.align	1
 795              		.global	HAL_TIM_Base_Stop_DMA
 796              		.syntax unified
 797              		.thumb
 798              		.thumb_func
 800              	HAL_TIM_Base_Stop_DMA:
 801              		@ args = 0, pretend = 0, frame = 0
 802              		@ frame_needed = 0, uses_anonymous_args = 0
 803 0000 10B5     		push	{r4, lr}
 804 0002 0446     		mov	r4, r0
 805 0004 0268     		ldr	r2, [r0]
 806 0006 D368     		ldr	r3, [r2, #12]
 807 0008 23F48073 		bic	r3, r3, #256
 808 000c D360     		str	r3, [r2, #12]
 809 000e 006A     		ldr	r0, [r0, #32]
 810 0010 FFF7FEFF 		bl	HAL_DMA_Abort_IT
 811 0014 2268     		ldr	r2, [r4]
 812 0016 136A     		ldr	r3, [r2, #32]
 813 0018 03F01133 		and	r3, r3, #286331153
 814 001c 23F08853 		bic	r3, r3, #285212672
 815 0020 43B9     		cbnz	r3, .L84
 816 0022 116A     		ldr	r1, [r2, #32]
 817 0024 40F24443 		movw	r3, #1092
 818 0028 1942     		tst	r1, r3
 819 002a 03D1     		bne	.L84
 820 002c 1368     		ldr	r3, [r2]
 821 002e 23F00103 		bic	r3, r3, #1
 822 0032 1360     		str	r3, [r2]
 823              	.L84:
 824 0034 0123     		movs	r3, #1
 825 0036 84F83D30 		strb	r3, [r4, #61]
 826 003a 0020     		movs	r0, #0
 827 003c 10BD     		pop	{r4, pc}
 829              		.section	.text.HAL_TIM_OC_MspInit,"ax",%progbits
 830              		.align	1
 831              		.weak	HAL_TIM_OC_MspInit
 832              		.syntax unified
 833              		.thumb
 834              		.thumb_func
 836              	HAL_TIM_OC_MspInit:
 837              		@ args = 0, pretend = 0, frame = 0
 838              		@ frame_needed = 0, uses_anonymous_args = 0
 839              		@ link register save eliminated.
ARM GAS  C:\Users\Nathan\AppData\Local\Temp\ccPdMrK0.s 			page 15


 840 0000 7047     		bx	lr
 842              		.section	.text.HAL_TIM_OC_MspDeInit,"ax",%progbits
 843              		.align	1
 844              		.weak	HAL_TIM_OC_MspDeInit
 845              		.syntax unified
 846              		.thumb
 847              		.thumb_func
 849              	HAL_TIM_OC_MspDeInit:
 850              		@ args = 0, pretend = 0, frame = 0
 851              		@ frame_needed = 0, uses_anonymous_args = 0
 852              		@ link register save eliminated.
 853 0000 7047     		bx	lr
 855              		.section	.text.HAL_TIM_OC_DeInit,"ax",%progbits
 856              		.align	1
 857              		.global	HAL_TIM_OC_DeInit
 858              		.syntax unified
 859              		.thumb
 860              		.thumb_func
 862              	HAL_TIM_OC_DeInit:
 863              		@ args = 0, pretend = 0, frame = 0
 864              		@ frame_needed = 0, uses_anonymous_args = 0
 865 0000 10B5     		push	{r4, lr}
 866 0002 0446     		mov	r4, r0
 867 0004 0223     		movs	r3, #2
 868 0006 80F83D30 		strb	r3, [r0, #61]
 869 000a 0268     		ldr	r2, [r0]
 870 000c 136A     		ldr	r3, [r2, #32]
 871 000e 03F01133 		and	r3, r3, #286331153
 872 0012 23F08853 		bic	r3, r3, #285212672
 873 0016 43B9     		cbnz	r3, .L89
 874 0018 116A     		ldr	r1, [r2, #32]
 875 001a 40F24443 		movw	r3, #1092
 876 001e 1942     		tst	r1, r3
 877 0020 03D1     		bne	.L89
 878 0022 1368     		ldr	r3, [r2]
 879 0024 23F00103 		bic	r3, r3, #1
 880 0028 1360     		str	r3, [r2]
 881              	.L89:
 882 002a 2046     		mov	r0, r4
 883 002c FFF7FEFF 		bl	HAL_TIM_OC_MspDeInit
 884 0030 0020     		movs	r0, #0
 885 0032 84F84800 		strb	r0, [r4, #72]
 886 0036 84F83E00 		strb	r0, [r4, #62]
 887 003a 84F83F00 		strb	r0, [r4, #63]
 888 003e 84F84000 		strb	r0, [r4, #64]
 889 0042 84F84100 		strb	r0, [r4, #65]
 890 0046 84F84200 		strb	r0, [r4, #66]
 891 004a 84F84300 		strb	r0, [r4, #67]
 892 004e 84F84400 		strb	r0, [r4, #68]
 893 0052 84F84500 		strb	r0, [r4, #69]
 894 0056 84F84600 		strb	r0, [r4, #70]
 895 005a 84F84700 		strb	r0, [r4, #71]
 896 005e 84F83D00 		strb	r0, [r4, #61]
 897 0062 84F83C00 		strb	r0, [r4, #60]
 898 0066 10BD     		pop	{r4, pc}
 900              		.section	.text.HAL_TIM_PWM_MspInit,"ax",%progbits
 901              		.align	1
ARM GAS  C:\Users\Nathan\AppData\Local\Temp\ccPdMrK0.s 			page 16


 902              		.weak	HAL_TIM_PWM_MspInit
 903              		.syntax unified
 904              		.thumb
 905              		.thumb_func
 907              	HAL_TIM_PWM_MspInit:
 908              		@ args = 0, pretend = 0, frame = 0
 909              		@ frame_needed = 0, uses_anonymous_args = 0
 910              		@ link register save eliminated.
 911 0000 7047     		bx	lr
 913              		.section	.text.HAL_TIM_PWM_MspDeInit,"ax",%progbits
 914              		.align	1
 915              		.weak	HAL_TIM_PWM_MspDeInit
 916              		.syntax unified
 917              		.thumb
 918              		.thumb_func
 920              	HAL_TIM_PWM_MspDeInit:
 921              		@ args = 0, pretend = 0, frame = 0
 922              		@ frame_needed = 0, uses_anonymous_args = 0
 923              		@ link register save eliminated.
 924 0000 7047     		bx	lr
 926              		.section	.text.HAL_TIM_PWM_DeInit,"ax",%progbits
 927              		.align	1
 928              		.global	HAL_TIM_PWM_DeInit
 929              		.syntax unified
 930              		.thumb
 931              		.thumb_func
 933              	HAL_TIM_PWM_DeInit:
 934              		@ args = 0, pretend = 0, frame = 0
 935              		@ frame_needed = 0, uses_anonymous_args = 0
 936 0000 10B5     		push	{r4, lr}
 937 0002 0446     		mov	r4, r0
 938 0004 0223     		movs	r3, #2
 939 0006 80F83D30 		strb	r3, [r0, #61]
 940 000a 0268     		ldr	r2, [r0]
 941 000c 136A     		ldr	r3, [r2, #32]
 942 000e 03F01133 		and	r3, r3, #286331153
 943 0012 23F08853 		bic	r3, r3, #285212672
 944 0016 43B9     		cbnz	r3, .L94
 945 0018 116A     		ldr	r1, [r2, #32]
 946 001a 40F24443 		movw	r3, #1092
 947 001e 1942     		tst	r1, r3
 948 0020 03D1     		bne	.L94
 949 0022 1368     		ldr	r3, [r2]
 950 0024 23F00103 		bic	r3, r3, #1
 951 0028 1360     		str	r3, [r2]
 952              	.L94:
 953 002a 2046     		mov	r0, r4
 954 002c FFF7FEFF 		bl	HAL_TIM_PWM_MspDeInit
 955 0030 0020     		movs	r0, #0
 956 0032 84F84800 		strb	r0, [r4, #72]
 957 0036 84F83E00 		strb	r0, [r4, #62]
 958 003a 84F83F00 		strb	r0, [r4, #63]
 959 003e 84F84000 		strb	r0, [r4, #64]
 960 0042 84F84100 		strb	r0, [r4, #65]
 961 0046 84F84200 		strb	r0, [r4, #66]
 962 004a 84F84300 		strb	r0, [r4, #67]
 963 004e 84F84400 		strb	r0, [r4, #68]
ARM GAS  C:\Users\Nathan\AppData\Local\Temp\ccPdMrK0.s 			page 17


 964 0052 84F84500 		strb	r0, [r4, #69]
 965 0056 84F84600 		strb	r0, [r4, #70]
 966 005a 84F84700 		strb	r0, [r4, #71]
 967 005e 84F83D00 		strb	r0, [r4, #61]
 968 0062 84F83C00 		strb	r0, [r4, #60]
 969 0066 10BD     		pop	{r4, pc}
 971              		.section	.text.HAL_TIM_IC_MspInit,"ax",%progbits
 972              		.align	1
 973              		.weak	HAL_TIM_IC_MspInit
 974              		.syntax unified
 975              		.thumb
 976              		.thumb_func
 978              	HAL_TIM_IC_MspInit:
 979              		@ args = 0, pretend = 0, frame = 0
 980              		@ frame_needed = 0, uses_anonymous_args = 0
 981              		@ link register save eliminated.
 982 0000 7047     		bx	lr
 984              		.section	.text.HAL_TIM_IC_MspDeInit,"ax",%progbits
 985              		.align	1
 986              		.weak	HAL_TIM_IC_MspDeInit
 987              		.syntax unified
 988              		.thumb
 989              		.thumb_func
 991              	HAL_TIM_IC_MspDeInit:
 992              		@ args = 0, pretend = 0, frame = 0
 993              		@ frame_needed = 0, uses_anonymous_args = 0
 994              		@ link register save eliminated.
 995 0000 7047     		bx	lr
 997              		.section	.text.HAL_TIM_IC_DeInit,"ax",%progbits
 998              		.align	1
 999              		.global	HAL_TIM_IC_DeInit
 1000              		.syntax unified
 1001              		.thumb
 1002              		.thumb_func
 1004              	HAL_TIM_IC_DeInit:
 1005              		@ args = 0, pretend = 0, frame = 0
 1006              		@ frame_needed = 0, uses_anonymous_args = 0
 1007 0000 10B5     		push	{r4, lr}
 1008 0002 0446     		mov	r4, r0
 1009 0004 0223     		movs	r3, #2
 1010 0006 80F83D30 		strb	r3, [r0, #61]
 1011 000a 0268     		ldr	r2, [r0]
 1012 000c 136A     		ldr	r3, [r2, #32]
 1013 000e 03F01133 		and	r3, r3, #286331153
 1014 0012 23F08853 		bic	r3, r3, #285212672
 1015 0016 43B9     		cbnz	r3, .L99
 1016 0018 116A     		ldr	r1, [r2, #32]
 1017 001a 40F24443 		movw	r3, #1092
 1018 001e 1942     		tst	r1, r3
 1019 0020 03D1     		bne	.L99
 1020 0022 1368     		ldr	r3, [r2]
 1021 0024 23F00103 		bic	r3, r3, #1
 1022 0028 1360     		str	r3, [r2]
 1023              	.L99:
 1024 002a 2046     		mov	r0, r4
 1025 002c FFF7FEFF 		bl	HAL_TIM_IC_MspDeInit
 1026 0030 0020     		movs	r0, #0
ARM GAS  C:\Users\Nathan\AppData\Local\Temp\ccPdMrK0.s 			page 18


 1027 0032 84F84800 		strb	r0, [r4, #72]
 1028 0036 84F83E00 		strb	r0, [r4, #62]
 1029 003a 84F83F00 		strb	r0, [r4, #63]
 1030 003e 84F84000 		strb	r0, [r4, #64]
 1031 0042 84F84100 		strb	r0, [r4, #65]
 1032 0046 84F84200 		strb	r0, [r4, #66]
 1033 004a 84F84300 		strb	r0, [r4, #67]
 1034 004e 84F84400 		strb	r0, [r4, #68]
 1035 0052 84F84500 		strb	r0, [r4, #69]
 1036 0056 84F84600 		strb	r0, [r4, #70]
 1037 005a 84F84700 		strb	r0, [r4, #71]
 1038 005e 84F83D00 		strb	r0, [r4, #61]
 1039 0062 84F83C00 		strb	r0, [r4, #60]
 1040 0066 10BD     		pop	{r4, pc}
 1042              		.section	.text.HAL_TIM_OnePulse_MspInit,"ax",%progbits
 1043              		.align	1
 1044              		.weak	HAL_TIM_OnePulse_MspInit
 1045              		.syntax unified
 1046              		.thumb
 1047              		.thumb_func
 1049              	HAL_TIM_OnePulse_MspInit:
 1050              		@ args = 0, pretend = 0, frame = 0
 1051              		@ frame_needed = 0, uses_anonymous_args = 0
 1052              		@ link register save eliminated.
 1053 0000 7047     		bx	lr
 1055              		.section	.text.HAL_TIM_OnePulse_MspDeInit,"ax",%progbits
 1056              		.align	1
 1057              		.weak	HAL_TIM_OnePulse_MspDeInit
 1058              		.syntax unified
 1059              		.thumb
 1060              		.thumb_func
 1062              	HAL_TIM_OnePulse_MspDeInit:
 1063              		@ args = 0, pretend = 0, frame = 0
 1064              		@ frame_needed = 0, uses_anonymous_args = 0
 1065              		@ link register save eliminated.
 1066 0000 7047     		bx	lr
 1068              		.section	.text.HAL_TIM_OnePulse_DeInit,"ax",%progbits
 1069              		.align	1
 1070              		.global	HAL_TIM_OnePulse_DeInit
 1071              		.syntax unified
 1072              		.thumb
 1073              		.thumb_func
 1075              	HAL_TIM_OnePulse_DeInit:
 1076              		@ args = 0, pretend = 0, frame = 0
 1077              		@ frame_needed = 0, uses_anonymous_args = 0
 1078 0000 10B5     		push	{r4, lr}
 1079 0002 0446     		mov	r4, r0
 1080 0004 0223     		movs	r3, #2
 1081 0006 80F83D30 		strb	r3, [r0, #61]
 1082 000a 0268     		ldr	r2, [r0]
 1083 000c 136A     		ldr	r3, [r2, #32]
 1084 000e 03F01133 		and	r3, r3, #286331153
 1085 0012 23F08853 		bic	r3, r3, #285212672
 1086 0016 43B9     		cbnz	r3, .L104
 1087 0018 116A     		ldr	r1, [r2, #32]
 1088 001a 40F24443 		movw	r3, #1092
 1089 001e 1942     		tst	r1, r3
ARM GAS  C:\Users\Nathan\AppData\Local\Temp\ccPdMrK0.s 			page 19


 1090 0020 03D1     		bne	.L104
 1091 0022 1368     		ldr	r3, [r2]
 1092 0024 23F00103 		bic	r3, r3, #1
 1093 0028 1360     		str	r3, [r2]
 1094              	.L104:
 1095 002a 2046     		mov	r0, r4
 1096 002c FFF7FEFF 		bl	HAL_TIM_OnePulse_MspDeInit
 1097 0030 0020     		movs	r0, #0
 1098 0032 84F84800 		strb	r0, [r4, #72]
 1099 0036 84F83E00 		strb	r0, [r4, #62]
 1100 003a 84F83F00 		strb	r0, [r4, #63]
 1101 003e 84F84400 		strb	r0, [r4, #68]
 1102 0042 84F84500 		strb	r0, [r4, #69]
 1103 0046 84F83D00 		strb	r0, [r4, #61]
 1104 004a 84F83C00 		strb	r0, [r4, #60]
 1105 004e 10BD     		pop	{r4, pc}
 1107              		.section	.text.HAL_TIM_Encoder_MspInit,"ax",%progbits
 1108              		.align	1
 1109              		.weak	HAL_TIM_Encoder_MspInit
 1110              		.syntax unified
 1111              		.thumb
 1112              		.thumb_func
 1114              	HAL_TIM_Encoder_MspInit:
 1115              		@ args = 0, pretend = 0, frame = 0
 1116              		@ frame_needed = 0, uses_anonymous_args = 0
 1117              		@ link register save eliminated.
 1118 0000 7047     		bx	lr
 1120              		.section	.text.HAL_TIM_Encoder_MspDeInit,"ax",%progbits
 1121              		.align	1
 1122              		.weak	HAL_TIM_Encoder_MspDeInit
 1123              		.syntax unified
 1124              		.thumb
 1125              		.thumb_func
 1127              	HAL_TIM_Encoder_MspDeInit:
 1128              		@ args = 0, pretend = 0, frame = 0
 1129              		@ frame_needed = 0, uses_anonymous_args = 0
 1130              		@ link register save eliminated.
 1131 0000 7047     		bx	lr
 1133              		.section	.text.HAL_TIM_Encoder_DeInit,"ax",%progbits
 1134              		.align	1
 1135              		.global	HAL_TIM_Encoder_DeInit
 1136              		.syntax unified
 1137              		.thumb
 1138              		.thumb_func
 1140              	HAL_TIM_Encoder_DeInit:
 1141              		@ args = 0, pretend = 0, frame = 0
 1142              		@ frame_needed = 0, uses_anonymous_args = 0
 1143 0000 10B5     		push	{r4, lr}
 1144 0002 0446     		mov	r4, r0
 1145 0004 0223     		movs	r3, #2
 1146 0006 80F83D30 		strb	r3, [r0, #61]
 1147 000a 0268     		ldr	r2, [r0]
 1148 000c 136A     		ldr	r3, [r2, #32]
 1149 000e 03F01133 		and	r3, r3, #286331153
 1150 0012 23F08853 		bic	r3, r3, #285212672
 1151 0016 43B9     		cbnz	r3, .L109
 1152 0018 116A     		ldr	r1, [r2, #32]
ARM GAS  C:\Users\Nathan\AppData\Local\Temp\ccPdMrK0.s 			page 20


 1153 001a 40F24443 		movw	r3, #1092
 1154 001e 1942     		tst	r1, r3
 1155 0020 03D1     		bne	.L109
 1156 0022 1368     		ldr	r3, [r2]
 1157 0024 23F00103 		bic	r3, r3, #1
 1158 0028 1360     		str	r3, [r2]
 1159              	.L109:
 1160 002a 2046     		mov	r0, r4
 1161 002c FFF7FEFF 		bl	HAL_TIM_Encoder_MspDeInit
 1162 0030 0020     		movs	r0, #0
 1163 0032 84F84800 		strb	r0, [r4, #72]
 1164 0036 84F83E00 		strb	r0, [r4, #62]
 1165 003a 84F83F00 		strb	r0, [r4, #63]
 1166 003e 84F84400 		strb	r0, [r4, #68]
 1167 0042 84F84500 		strb	r0, [r4, #69]
 1168 0046 84F83D00 		strb	r0, [r4, #61]
 1169 004a 84F83C00 		strb	r0, [r4, #60]
 1170 004e 10BD     		pop	{r4, pc}
 1172              		.section	.text.HAL_TIM_DMABurst_MultiWriteStart,"ax",%progbits
 1173              		.align	1
 1174              		.global	HAL_TIM_DMABurst_MultiWriteStart
 1175              		.syntax unified
 1176              		.thumb
 1177              		.thumb_func
 1179              	HAL_TIM_DMABurst_MultiWriteStart:
 1180              		@ args = 8, pretend = 0, frame = 0
 1181              		@ frame_needed = 0, uses_anonymous_args = 0
 1182 0000 70B5     		push	{r4, r5, r6, lr}
 1183 0002 0446     		mov	r4, r0
 1184 0004 90F84800 		ldrb	r0, [r0, #72]	@ zero_extendqisi2
 1185 0008 C0B2     		uxtb	r0, r0
 1186 000a 0228     		cmp	r0, #2
 1187 000c 2FD0     		beq	.L112
 1188 000e 0E46     		mov	r6, r1
 1189 0010 1546     		mov	r5, r2
 1190 0012 1946     		mov	r1, r3
 1191 0014 94F84800 		ldrb	r0, [r4, #72]	@ zero_extendqisi2
 1192 0018 C0B2     		uxtb	r0, r0
 1193 001a 0128     		cmp	r0, #1
 1194 001c 28D0     		beq	.L132
 1195              	.L113:
 1196 001e B5F5006F 		cmp	r5, #2048
 1197 0022 74D0     		beq	.L115
 1198 0024 2FD8     		bhi	.L116
 1199 0026 B5F5007F 		cmp	r5, #512
 1200 002a 4AD0     		beq	.L117
 1201 002c B5F5806F 		cmp	r5, #1024
 1202 0030 5AD0     		beq	.L118
 1203 0032 B5F5807F 		cmp	r5, #256
 1204 0036 24D1     		bne	.L133
 1205 0038 236A     		ldr	r3, [r4, #32]
 1206 003a 534A     		ldr	r2, .L137
 1207 003c DA62     		str	r2, [r3, #44]
 1208 003e 236A     		ldr	r3, [r4, #32]
 1209 0040 524A     		ldr	r2, .L137+4
 1210 0042 1A63     		str	r2, [r3, #48]
 1211 0044 236A     		ldr	r3, [r4, #32]
ARM GAS  C:\Users\Nathan\AppData\Local\Temp\ccPdMrK0.s 			page 21


 1212 0046 524A     		ldr	r2, .L137+8
 1213 0048 5A63     		str	r2, [r3, #52]
 1214 004a 2268     		ldr	r2, [r4]
 1215 004c 059B     		ldr	r3, [sp, #20]
 1216 004e 4C32     		adds	r2, r2, #76
 1217 0050 206A     		ldr	r0, [r4, #32]
 1218 0052 FFF7FEFF 		bl	HAL_DMA_Start_IT
 1219 0056 0028     		cmp	r0, #0
 1220 0058 40F09380 		bne	.L134
 1221              	.L123:
 1222 005c 2368     		ldr	r3, [r4]
 1223 005e 049A     		ldr	r2, [sp, #16]
 1224 0060 1643     		orrs	r6, r6, r2
 1225 0062 9E64     		str	r6, [r3, #72]
 1226 0064 2268     		ldr	r2, [r4]
 1227 0066 D368     		ldr	r3, [r2, #12]
 1228 0068 2B43     		orrs	r3, r3, r5
 1229 006a D360     		str	r3, [r2, #12]
 1230 006c 0020     		movs	r0, #0
 1231              	.L112:
 1232 006e 70BD     		pop	{r4, r5, r6, pc}
 1233              	.L132:
 1234 0070 1BB1     		cbz	r3, .L135
 1235              	.L114:
 1236 0072 0223     		movs	r3, #2
 1237 0074 84F84830 		strb	r3, [r4, #72]
 1238 0078 D1E7     		b	.L113
 1239              	.L135:
 1240 007a 049B     		ldr	r3, [sp, #16]
 1241 007c 002B     		cmp	r3, #0
 1242 007e F8D0     		beq	.L114
 1243 0080 F5E7     		b	.L112
 1244              	.L133:
 1245 0082 0120     		movs	r0, #1
 1246 0084 F3E7     		b	.L112
 1247              	.L116:
 1248 0086 B5F5005F 		cmp	r5, #8192
 1249 008a 53D0     		beq	.L120
 1250 008c B5F5804F 		cmp	r5, #16384
 1251 0090 63D0     		beq	.L121
 1252 0092 B5F5805F 		cmp	r5, #4096
 1253 0096 12D1     		bne	.L136
 1254 0098 236B     		ldr	r3, [r4, #48]
 1255 009a 3E4A     		ldr	r2, .L137+12
 1256 009c DA62     		str	r2, [r3, #44]
 1257 009e 236B     		ldr	r3, [r4, #48]
 1258 00a0 3D4A     		ldr	r2, .L137+16
 1259 00a2 1A63     		str	r2, [r3, #48]
 1260 00a4 236B     		ldr	r3, [r4, #48]
 1261 00a6 3A4A     		ldr	r2, .L137+8
 1262 00a8 5A63     		str	r2, [r3, #52]
 1263 00aa 2268     		ldr	r2, [r4]
 1264 00ac 059B     		ldr	r3, [sp, #20]
 1265 00ae 4C32     		adds	r2, r2, #76
 1266 00b0 206B     		ldr	r0, [r4, #48]
 1267 00b2 FFF7FEFF 		bl	HAL_DMA_Start_IT
 1268 00b6 0028     		cmp	r0, #0
ARM GAS  C:\Users\Nathan\AppData\Local\Temp\ccPdMrK0.s 			page 22


 1269 00b8 D0D0     		beq	.L123
 1270 00ba 0120     		movs	r0, #1
 1271 00bc D7E7     		b	.L112
 1272              	.L136:
 1273 00be 0120     		movs	r0, #1
 1274 00c0 D5E7     		b	.L112
 1275              	.L117:
 1276 00c2 636A     		ldr	r3, [r4, #36]
 1277 00c4 334A     		ldr	r2, .L137+12
 1278 00c6 DA62     		str	r2, [r3, #44]
 1279 00c8 636A     		ldr	r3, [r4, #36]
 1280 00ca 334A     		ldr	r2, .L137+16
 1281 00cc 1A63     		str	r2, [r3, #48]
 1282 00ce 636A     		ldr	r3, [r4, #36]
 1283 00d0 2F4A     		ldr	r2, .L137+8
 1284 00d2 5A63     		str	r2, [r3, #52]
 1285 00d4 2268     		ldr	r2, [r4]
 1286 00d6 059B     		ldr	r3, [sp, #20]
 1287 00d8 4C32     		adds	r2, r2, #76
 1288 00da 606A     		ldr	r0, [r4, #36]
 1289 00dc FFF7FEFF 		bl	HAL_DMA_Start_IT
 1290 00e0 0028     		cmp	r0, #0
 1291 00e2 BBD0     		beq	.L123
 1292 00e4 0120     		movs	r0, #1
 1293 00e6 C2E7     		b	.L112
 1294              	.L118:
 1295 00e8 A36A     		ldr	r3, [r4, #40]
 1296 00ea 2A4A     		ldr	r2, .L137+12
 1297 00ec DA62     		str	r2, [r3, #44]
 1298 00ee A36A     		ldr	r3, [r4, #40]
 1299 00f0 294A     		ldr	r2, .L137+16
 1300 00f2 1A63     		str	r2, [r3, #48]
 1301 00f4 A36A     		ldr	r3, [r4, #40]
 1302 00f6 264A     		ldr	r2, .L137+8
 1303 00f8 5A63     		str	r2, [r3, #52]
 1304 00fa 2268     		ldr	r2, [r4]
 1305 00fc 059B     		ldr	r3, [sp, #20]
 1306 00fe 4C32     		adds	r2, r2, #76
 1307 0100 A06A     		ldr	r0, [r4, #40]
 1308 0102 FFF7FEFF 		bl	HAL_DMA_Start_IT
 1309 0106 0028     		cmp	r0, #0
 1310 0108 A8D0     		beq	.L123
 1311 010a 0120     		movs	r0, #1
 1312 010c AFE7     		b	.L112
 1313              	.L115:
 1314 010e E36A     		ldr	r3, [r4, #44]
 1315 0110 204A     		ldr	r2, .L137+12
 1316 0112 DA62     		str	r2, [r3, #44]
 1317 0114 E36A     		ldr	r3, [r4, #44]
 1318 0116 204A     		ldr	r2, .L137+16
 1319 0118 1A63     		str	r2, [r3, #48]
 1320 011a E36A     		ldr	r3, [r4, #44]
 1321 011c 1C4A     		ldr	r2, .L137+8
 1322 011e 5A63     		str	r2, [r3, #52]
 1323 0120 2268     		ldr	r2, [r4]
 1324 0122 059B     		ldr	r3, [sp, #20]
 1325 0124 4C32     		adds	r2, r2, #76
ARM GAS  C:\Users\Nathan\AppData\Local\Temp\ccPdMrK0.s 			page 23


 1326 0126 E06A     		ldr	r0, [r4, #44]
 1327 0128 FFF7FEFF 		bl	HAL_DMA_Start_IT
 1328 012c 0028     		cmp	r0, #0
 1329 012e 95D0     		beq	.L123
 1330 0130 0120     		movs	r0, #1
 1331 0132 9CE7     		b	.L112
 1332              	.L120:
 1333 0134 636B     		ldr	r3, [r4, #52]
 1334 0136 194A     		ldr	r2, .L137+20
 1335 0138 DA62     		str	r2, [r3, #44]
 1336 013a 636B     		ldr	r3, [r4, #52]
 1337 013c 184A     		ldr	r2, .L137+24
 1338 013e 1A63     		str	r2, [r3, #48]
 1339 0140 636B     		ldr	r3, [r4, #52]
 1340 0142 134A     		ldr	r2, .L137+8
 1341 0144 5A63     		str	r2, [r3, #52]
 1342 0146 2268     		ldr	r2, [r4]
 1343 0148 059B     		ldr	r3, [sp, #20]
 1344 014a 4C32     		adds	r2, r2, #76
 1345 014c 606B     		ldr	r0, [r4, #52]
 1346 014e FFF7FEFF 		bl	HAL_DMA_Start_IT
 1347 0152 0028     		cmp	r0, #0
 1348 0154 82D0     		beq	.L123
 1349 0156 0120     		movs	r0, #1
 1350 0158 89E7     		b	.L112
 1351              	.L121:
 1352 015a A36B     		ldr	r3, [r4, #56]
 1353 015c 114A     		ldr	r2, .L137+28
 1354 015e DA62     		str	r2, [r3, #44]
 1355 0160 A36B     		ldr	r3, [r4, #56]
 1356 0162 114A     		ldr	r2, .L137+32
 1357 0164 1A63     		str	r2, [r3, #48]
 1358 0166 A36B     		ldr	r3, [r4, #56]
 1359 0168 094A     		ldr	r2, .L137+8
 1360 016a 5A63     		str	r2, [r3, #52]
 1361 016c 2268     		ldr	r2, [r4]
 1362 016e 059B     		ldr	r3, [sp, #20]
 1363 0170 4C32     		adds	r2, r2, #76
 1364 0172 A06B     		ldr	r0, [r4, #56]
 1365 0174 FFF7FEFF 		bl	HAL_DMA_Start_IT
 1366 0178 0028     		cmp	r0, #0
 1367 017a 3FF46FAF 		beq	.L123
 1368 017e 0120     		movs	r0, #1
 1369 0180 75E7     		b	.L112
 1370              	.L134:
 1371 0182 0120     		movs	r0, #1
 1372 0184 73E7     		b	.L112
 1373              	.L138:
 1374 0186 00BF     		.align	2
 1375              	.L137:
 1376 0188 00000000 		.word	TIM_DMAPeriodElapsedCplt
 1377 018c 00000000 		.word	TIM_DMAPeriodElapsedHalfCplt
 1378 0190 00000000 		.word	TIM_DMAError
 1379 0194 00000000 		.word	TIM_DMADelayPulseCplt
 1380 0198 00000000 		.word	TIM_DMADelayPulseHalfCplt
 1381 019c 00000000 		.word	TIMEx_DMACommutationCplt
 1382 01a0 00000000 		.word	TIMEx_DMACommutationHalfCplt
ARM GAS  C:\Users\Nathan\AppData\Local\Temp\ccPdMrK0.s 			page 24


 1383 01a4 00000000 		.word	TIM_DMATriggerCplt
 1384 01a8 00000000 		.word	TIM_DMATriggerHalfCplt
 1386              		.section	.text.HAL_TIM_DMABurst_WriteStart,"ax",%progbits
 1387              		.align	1
 1388              		.global	HAL_TIM_DMABurst_WriteStart
 1389              		.syntax unified
 1390              		.thumb
 1391              		.thumb_func
 1393              	HAL_TIM_DMABurst_WriteStart:
 1394              		@ args = 4, pretend = 0, frame = 0
 1395              		@ frame_needed = 0, uses_anonymous_args = 0
 1396 0000 30B5     		push	{r4, r5, lr}
 1397 0002 83B0     		sub	sp, sp, #12
 1398 0004 069D     		ldr	r5, [sp, #24]
 1399 0006 2C0A     		lsrs	r4, r5, #8
 1400 0008 0134     		adds	r4, r4, #1
 1401 000a 0194     		str	r4, [sp, #4]
 1402 000c 0095     		str	r5, [sp]
 1403 000e FFF7FEFF 		bl	HAL_TIM_DMABurst_MultiWriteStart
 1404 0012 03B0     		add	sp, sp, #12
 1405              		@ sp needed
 1406 0014 30BD     		pop	{r4, r5, pc}
 1408              		.section	.text.HAL_TIM_DMABurst_WriteStop,"ax",%progbits
 1409              		.align	1
 1410              		.global	HAL_TIM_DMABurst_WriteStop
 1411              		.syntax unified
 1412              		.thumb
 1413              		.thumb_func
 1415              	HAL_TIM_DMABurst_WriteStop:
 1416              		@ args = 0, pretend = 0, frame = 0
 1417              		@ frame_needed = 0, uses_anonymous_args = 0
 1418 0000 38B5     		push	{r3, r4, r5, lr}
 1419 0002 0546     		mov	r5, r0
 1420 0004 0C46     		mov	r4, r1
 1421 0006 B1F5006F 		cmp	r1, #2048
 1422 000a 2FD0     		beq	.L142
 1423 000c 17D8     		bhi	.L143
 1424 000e B1F5007F 		cmp	r1, #512
 1425 0012 23D0     		beq	.L144
 1426 0014 B1F5806F 		cmp	r1, #1024
 1427 0018 24D0     		beq	.L145
 1428 001a B1F5807F 		cmp	r1, #256
 1429 001e 0CD1     		bne	.L153
 1430 0020 006A     		ldr	r0, [r0, #32]
 1431 0022 FFF7FEFF 		bl	HAL_DMA_Abort_IT
 1432              	.L151:
 1433 0026 2A68     		ldr	r2, [r5]
 1434 0028 D368     		ldr	r3, [r2, #12]
 1435 002a 23EA0403 		bic	r3, r3, r4
 1436 002e D360     		str	r3, [r2, #12]
 1437 0030 0123     		movs	r3, #1
 1438 0032 85F84830 		strb	r3, [r5, #72]
 1439 0036 0020     		movs	r0, #0
 1440              	.L147:
 1441 0038 38BD     		pop	{r3, r4, r5, pc}
 1442              	.L153:
 1443 003a 0120     		movs	r0, #1
ARM GAS  C:\Users\Nathan\AppData\Local\Temp\ccPdMrK0.s 			page 25


 1444 003c FCE7     		b	.L147
 1445              	.L143:
 1446 003e B1F5005F 		cmp	r1, #8192
 1447 0042 17D0     		beq	.L148
 1448 0044 B1F5804F 		cmp	r1, #16384
 1449 0048 18D0     		beq	.L149
 1450 004a B1F5805F 		cmp	r1, #4096
 1451 004e 03D1     		bne	.L154
 1452 0050 006B     		ldr	r0, [r0, #48]
 1453 0052 FFF7FEFF 		bl	HAL_DMA_Abort_IT
 1454 0056 E6E7     		b	.L151
 1455              	.L154:
 1456 0058 0120     		movs	r0, #1
 1457 005a EDE7     		b	.L147
 1458              	.L144:
 1459 005c 406A     		ldr	r0, [r0, #36]
 1460 005e FFF7FEFF 		bl	HAL_DMA_Abort_IT
 1461 0062 E0E7     		b	.L151
 1462              	.L145:
 1463 0064 806A     		ldr	r0, [r0, #40]
 1464 0066 FFF7FEFF 		bl	HAL_DMA_Abort_IT
 1465 006a DCE7     		b	.L151
 1466              	.L142:
 1467 006c C06A     		ldr	r0, [r0, #44]
 1468 006e FFF7FEFF 		bl	HAL_DMA_Abort_IT
 1469 0072 D8E7     		b	.L151
 1470              	.L148:
 1471 0074 406B     		ldr	r0, [r0, #52]
 1472 0076 FFF7FEFF 		bl	HAL_DMA_Abort_IT
 1473 007a D4E7     		b	.L151
 1474              	.L149:
 1475 007c 806B     		ldr	r0, [r0, #56]
 1476 007e FFF7FEFF 		bl	HAL_DMA_Abort_IT
 1477 0082 D0E7     		b	.L151
 1479              		.section	.text.HAL_TIM_DMABurst_MultiReadStart,"ax",%progbits
 1480              		.align	1
 1481              		.global	HAL_TIM_DMABurst_MultiReadStart
 1482              		.syntax unified
 1483              		.thumb
 1484              		.thumb_func
 1486              	HAL_TIM_DMABurst_MultiReadStart:
 1487              		@ args = 8, pretend = 0, frame = 0
 1488              		@ frame_needed = 0, uses_anonymous_args = 0
 1489 0000 70B5     		push	{r4, r5, r6, lr}
 1490 0002 0446     		mov	r4, r0
 1491 0004 90F84800 		ldrb	r0, [r0, #72]	@ zero_extendqisi2
 1492 0008 C0B2     		uxtb	r0, r0
 1493 000a 0228     		cmp	r0, #2
 1494 000c 2FD0     		beq	.L156
 1495 000e 0E46     		mov	r6, r1
 1496 0010 1546     		mov	r5, r2
 1497 0012 1A46     		mov	r2, r3
 1498 0014 94F84800 		ldrb	r0, [r4, #72]	@ zero_extendqisi2
 1499 0018 C0B2     		uxtb	r0, r0
 1500 001a 0128     		cmp	r0, #1
 1501 001c 28D0     		beq	.L176
 1502              	.L157:
ARM GAS  C:\Users\Nathan\AppData\Local\Temp\ccPdMrK0.s 			page 26


 1503 001e B5F5006F 		cmp	r5, #2048
 1504 0022 74D0     		beq	.L159
 1505 0024 2FD8     		bhi	.L160
 1506 0026 B5F5007F 		cmp	r5, #512
 1507 002a 4AD0     		beq	.L161
 1508 002c B5F5806F 		cmp	r5, #1024
 1509 0030 5AD0     		beq	.L162
 1510 0032 B5F5807F 		cmp	r5, #256
 1511 0036 24D1     		bne	.L177
 1512 0038 236A     		ldr	r3, [r4, #32]
 1513 003a 5349     		ldr	r1, .L181
 1514 003c D962     		str	r1, [r3, #44]
 1515 003e 236A     		ldr	r3, [r4, #32]
 1516 0040 5249     		ldr	r1, .L181+4
 1517 0042 1963     		str	r1, [r3, #48]
 1518 0044 236A     		ldr	r3, [r4, #32]
 1519 0046 5249     		ldr	r1, .L181+8
 1520 0048 5963     		str	r1, [r3, #52]
 1521 004a 2168     		ldr	r1, [r4]
 1522 004c 059B     		ldr	r3, [sp, #20]
 1523 004e 4C31     		adds	r1, r1, #76
 1524 0050 206A     		ldr	r0, [r4, #32]
 1525 0052 FFF7FEFF 		bl	HAL_DMA_Start_IT
 1526 0056 0028     		cmp	r0, #0
 1527 0058 40F09380 		bne	.L178
 1528              	.L167:
 1529 005c 2368     		ldr	r3, [r4]
 1530 005e 049A     		ldr	r2, [sp, #16]
 1531 0060 1643     		orrs	r6, r6, r2
 1532 0062 9E64     		str	r6, [r3, #72]
 1533 0064 2268     		ldr	r2, [r4]
 1534 0066 D368     		ldr	r3, [r2, #12]
 1535 0068 2B43     		orrs	r3, r3, r5
 1536 006a D360     		str	r3, [r2, #12]
 1537 006c 0020     		movs	r0, #0
 1538              	.L156:
 1539 006e 70BD     		pop	{r4, r5, r6, pc}
 1540              	.L176:
 1541 0070 1BB1     		cbz	r3, .L179
 1542              	.L158:
 1543 0072 0223     		movs	r3, #2
 1544 0074 84F84830 		strb	r3, [r4, #72]
 1545 0078 D1E7     		b	.L157
 1546              	.L179:
 1547 007a 049B     		ldr	r3, [sp, #16]
 1548 007c 002B     		cmp	r3, #0
 1549 007e F8D0     		beq	.L158
 1550 0080 F5E7     		b	.L156
 1551              	.L177:
 1552 0082 0120     		movs	r0, #1
 1553 0084 F3E7     		b	.L156
 1554              	.L160:
 1555 0086 B5F5005F 		cmp	r5, #8192
 1556 008a 53D0     		beq	.L164
 1557 008c B5F5804F 		cmp	r5, #16384
 1558 0090 63D0     		beq	.L165
 1559 0092 B5F5805F 		cmp	r5, #4096
ARM GAS  C:\Users\Nathan\AppData\Local\Temp\ccPdMrK0.s 			page 27


 1560 0096 12D1     		bne	.L180
 1561 0098 236B     		ldr	r3, [r4, #48]
 1562 009a 3E49     		ldr	r1, .L181+12
 1563 009c D962     		str	r1, [r3, #44]
 1564 009e 236B     		ldr	r3, [r4, #48]
 1565 00a0 3D49     		ldr	r1, .L181+16
 1566 00a2 1963     		str	r1, [r3, #48]
 1567 00a4 236B     		ldr	r3, [r4, #48]
 1568 00a6 3A49     		ldr	r1, .L181+8
 1569 00a8 5963     		str	r1, [r3, #52]
 1570 00aa 2168     		ldr	r1, [r4]
 1571 00ac 059B     		ldr	r3, [sp, #20]
 1572 00ae 4C31     		adds	r1, r1, #76
 1573 00b0 206B     		ldr	r0, [r4, #48]
 1574 00b2 FFF7FEFF 		bl	HAL_DMA_Start_IT
 1575 00b6 0028     		cmp	r0, #0
 1576 00b8 D0D0     		beq	.L167
 1577 00ba 0120     		movs	r0, #1
 1578 00bc D7E7     		b	.L156
 1579              	.L180:
 1580 00be 0120     		movs	r0, #1
 1581 00c0 D5E7     		b	.L156
 1582              	.L161:
 1583 00c2 636A     		ldr	r3, [r4, #36]
 1584 00c4 3349     		ldr	r1, .L181+12
 1585 00c6 D962     		str	r1, [r3, #44]
 1586 00c8 636A     		ldr	r3, [r4, #36]
 1587 00ca 3349     		ldr	r1, .L181+16
 1588 00cc 1963     		str	r1, [r3, #48]
 1589 00ce 636A     		ldr	r3, [r4, #36]
 1590 00d0 2F49     		ldr	r1, .L181+8
 1591 00d2 5963     		str	r1, [r3, #52]
 1592 00d4 2168     		ldr	r1, [r4]
 1593 00d6 059B     		ldr	r3, [sp, #20]
 1594 00d8 4C31     		adds	r1, r1, #76
 1595 00da 606A     		ldr	r0, [r4, #36]
 1596 00dc FFF7FEFF 		bl	HAL_DMA_Start_IT
 1597 00e0 0028     		cmp	r0, #0
 1598 00e2 BBD0     		beq	.L167
 1599 00e4 0120     		movs	r0, #1
 1600 00e6 C2E7     		b	.L156
 1601              	.L162:
 1602 00e8 A36A     		ldr	r3, [r4, #40]
 1603 00ea 2A49     		ldr	r1, .L181+12
 1604 00ec D962     		str	r1, [r3, #44]
 1605 00ee A36A     		ldr	r3, [r4, #40]
 1606 00f0 2949     		ldr	r1, .L181+16
 1607 00f2 1963     		str	r1, [r3, #48]
 1608 00f4 A36A     		ldr	r3, [r4, #40]
 1609 00f6 2649     		ldr	r1, .L181+8
 1610 00f8 5963     		str	r1, [r3, #52]
 1611 00fa 2168     		ldr	r1, [r4]
 1612 00fc 059B     		ldr	r3, [sp, #20]
 1613 00fe 4C31     		adds	r1, r1, #76
 1614 0100 A06A     		ldr	r0, [r4, #40]
 1615 0102 FFF7FEFF 		bl	HAL_DMA_Start_IT
 1616 0106 0028     		cmp	r0, #0
ARM GAS  C:\Users\Nathan\AppData\Local\Temp\ccPdMrK0.s 			page 28


 1617 0108 A8D0     		beq	.L167
 1618 010a 0120     		movs	r0, #1
 1619 010c AFE7     		b	.L156
 1620              	.L159:
 1621 010e E36A     		ldr	r3, [r4, #44]
 1622 0110 2049     		ldr	r1, .L181+12
 1623 0112 D962     		str	r1, [r3, #44]
 1624 0114 E36A     		ldr	r3, [r4, #44]
 1625 0116 2049     		ldr	r1, .L181+16
 1626 0118 1963     		str	r1, [r3, #48]
 1627 011a E36A     		ldr	r3, [r4, #44]
 1628 011c 1C49     		ldr	r1, .L181+8
 1629 011e 5963     		str	r1, [r3, #52]
 1630 0120 2168     		ldr	r1, [r4]
 1631 0122 059B     		ldr	r3, [sp, #20]
 1632 0124 4C31     		adds	r1, r1, #76
 1633 0126 E06A     		ldr	r0, [r4, #44]
 1634 0128 FFF7FEFF 		bl	HAL_DMA_Start_IT
 1635 012c 0028     		cmp	r0, #0
 1636 012e 95D0     		beq	.L167
 1637 0130 0120     		movs	r0, #1
 1638 0132 9CE7     		b	.L156
 1639              	.L164:
 1640 0134 636B     		ldr	r3, [r4, #52]
 1641 0136 1949     		ldr	r1, .L181+20
 1642 0138 D962     		str	r1, [r3, #44]
 1643 013a 636B     		ldr	r3, [r4, #52]
 1644 013c 1849     		ldr	r1, .L181+24
 1645 013e 1963     		str	r1, [r3, #48]
 1646 0140 636B     		ldr	r3, [r4, #52]
 1647 0142 1349     		ldr	r1, .L181+8
 1648 0144 5963     		str	r1, [r3, #52]
 1649 0146 2168     		ldr	r1, [r4]
 1650 0148 059B     		ldr	r3, [sp, #20]
 1651 014a 4C31     		adds	r1, r1, #76
 1652 014c 606B     		ldr	r0, [r4, #52]
 1653 014e FFF7FEFF 		bl	HAL_DMA_Start_IT
 1654 0152 0028     		cmp	r0, #0
 1655 0154 82D0     		beq	.L167
 1656 0156 0120     		movs	r0, #1
 1657 0158 89E7     		b	.L156
 1658              	.L165:
 1659 015a A36B     		ldr	r3, [r4, #56]
 1660 015c 1149     		ldr	r1, .L181+28
 1661 015e D962     		str	r1, [r3, #44]
 1662 0160 A36B     		ldr	r3, [r4, #56]
 1663 0162 1149     		ldr	r1, .L181+32
 1664 0164 1963     		str	r1, [r3, #48]
 1665 0166 A36B     		ldr	r3, [r4, #56]
 1666 0168 0949     		ldr	r1, .L181+8
 1667 016a 5963     		str	r1, [r3, #52]
 1668 016c 2168     		ldr	r1, [r4]
 1669 016e 059B     		ldr	r3, [sp, #20]
 1670 0170 4C31     		adds	r1, r1, #76
 1671 0172 A06B     		ldr	r0, [r4, #56]
 1672 0174 FFF7FEFF 		bl	HAL_DMA_Start_IT
 1673 0178 0028     		cmp	r0, #0
ARM GAS  C:\Users\Nathan\AppData\Local\Temp\ccPdMrK0.s 			page 29


 1674 017a 3FF46FAF 		beq	.L167
 1675 017e 0120     		movs	r0, #1
 1676 0180 75E7     		b	.L156
 1677              	.L178:
 1678 0182 0120     		movs	r0, #1
 1679 0184 73E7     		b	.L156
 1680              	.L182:
 1681 0186 00BF     		.align	2
 1682              	.L181:
 1683 0188 00000000 		.word	TIM_DMAPeriodElapsedCplt
 1684 018c 00000000 		.word	TIM_DMAPeriodElapsedHalfCplt
 1685 0190 00000000 		.word	TIM_DMAError
 1686 0194 00000000 		.word	TIM_DMACaptureCplt
 1687 0198 00000000 		.word	TIM_DMACaptureHalfCplt
 1688 019c 00000000 		.word	TIMEx_DMACommutationCplt
 1689 01a0 00000000 		.word	TIMEx_DMACommutationHalfCplt
 1690 01a4 00000000 		.word	TIM_DMATriggerCplt
 1691 01a8 00000000 		.word	TIM_DMATriggerHalfCplt
 1693              		.section	.text.HAL_TIM_DMABurst_ReadStart,"ax",%progbits
 1694              		.align	1
 1695              		.global	HAL_TIM_DMABurst_ReadStart
 1696              		.syntax unified
 1697              		.thumb
 1698              		.thumb_func
 1700              	HAL_TIM_DMABurst_ReadStart:
 1701              		@ args = 4, pretend = 0, frame = 0
 1702              		@ frame_needed = 0, uses_anonymous_args = 0
 1703 0000 30B5     		push	{r4, r5, lr}
 1704 0002 83B0     		sub	sp, sp, #12
 1705 0004 069D     		ldr	r5, [sp, #24]
 1706 0006 2C0A     		lsrs	r4, r5, #8
 1707 0008 0134     		adds	r4, r4, #1
 1708 000a 0194     		str	r4, [sp, #4]
 1709 000c 0095     		str	r5, [sp]
 1710 000e FFF7FEFF 		bl	HAL_TIM_DMABurst_MultiReadStart
 1711 0012 03B0     		add	sp, sp, #12
 1712              		@ sp needed
 1713 0014 30BD     		pop	{r4, r5, pc}
 1715              		.section	.text.HAL_TIM_DMABurst_ReadStop,"ax",%progbits
 1716              		.align	1
 1717              		.global	HAL_TIM_DMABurst_ReadStop
 1718              		.syntax unified
 1719              		.thumb
 1720              		.thumb_func
 1722              	HAL_TIM_DMABurst_ReadStop:
 1723              		@ args = 0, pretend = 0, frame = 0
 1724              		@ frame_needed = 0, uses_anonymous_args = 0
 1725 0000 38B5     		push	{r3, r4, r5, lr}
 1726 0002 0546     		mov	r5, r0
 1727 0004 0C46     		mov	r4, r1
 1728 0006 B1F5006F 		cmp	r1, #2048
 1729 000a 2FD0     		beq	.L186
 1730 000c 17D8     		bhi	.L187
 1731 000e B1F5007F 		cmp	r1, #512
 1732 0012 23D0     		beq	.L188
 1733 0014 B1F5806F 		cmp	r1, #1024
 1734 0018 24D0     		beq	.L189
ARM GAS  C:\Users\Nathan\AppData\Local\Temp\ccPdMrK0.s 			page 30


 1735 001a B1F5807F 		cmp	r1, #256
 1736 001e 0CD1     		bne	.L197
 1737 0020 006A     		ldr	r0, [r0, #32]
 1738 0022 FFF7FEFF 		bl	HAL_DMA_Abort_IT
 1739              	.L195:
 1740 0026 2A68     		ldr	r2, [r5]
 1741 0028 D368     		ldr	r3, [r2, #12]
 1742 002a 23EA0403 		bic	r3, r3, r4
 1743 002e D360     		str	r3, [r2, #12]
 1744 0030 0123     		movs	r3, #1
 1745 0032 85F84830 		strb	r3, [r5, #72]
 1746 0036 0020     		movs	r0, #0
 1747              	.L191:
 1748 0038 38BD     		pop	{r3, r4, r5, pc}
 1749              	.L197:
 1750 003a 0120     		movs	r0, #1
 1751 003c FCE7     		b	.L191
 1752              	.L187:
 1753 003e B1F5005F 		cmp	r1, #8192
 1754 0042 17D0     		beq	.L192
 1755 0044 B1F5804F 		cmp	r1, #16384
 1756 0048 18D0     		beq	.L193
 1757 004a B1F5805F 		cmp	r1, #4096
 1758 004e 03D1     		bne	.L198
 1759 0050 006B     		ldr	r0, [r0, #48]
 1760 0052 FFF7FEFF 		bl	HAL_DMA_Abort_IT
 1761 0056 E6E7     		b	.L195
 1762              	.L198:
 1763 0058 0120     		movs	r0, #1
 1764 005a EDE7     		b	.L191
 1765              	.L188:
 1766 005c 406A     		ldr	r0, [r0, #36]
 1767 005e FFF7FEFF 		bl	HAL_DMA_Abort_IT
 1768 0062 E0E7     		b	.L195
 1769              	.L189:
 1770 0064 806A     		ldr	r0, [r0, #40]
 1771 0066 FFF7FEFF 		bl	HAL_DMA_Abort_IT
 1772 006a DCE7     		b	.L195
 1773              	.L186:
 1774 006c C06A     		ldr	r0, [r0, #44]
 1775 006e FFF7FEFF 		bl	HAL_DMA_Abort_IT
 1776 0072 D8E7     		b	.L195
 1777              	.L192:
 1778 0074 406B     		ldr	r0, [r0, #52]
 1779 0076 FFF7FEFF 		bl	HAL_DMA_Abort_IT
 1780 007a D4E7     		b	.L195
 1781              	.L193:
 1782 007c 806B     		ldr	r0, [r0, #56]
 1783 007e FFF7FEFF 		bl	HAL_DMA_Abort_IT
 1784 0082 D0E7     		b	.L195
 1786              		.section	.text.HAL_TIM_GenerateEvent,"ax",%progbits
 1787              		.align	1
 1788              		.global	HAL_TIM_GenerateEvent
 1789              		.syntax unified
 1790              		.thumb
 1791              		.thumb_func
 1793              	HAL_TIM_GenerateEvent:
ARM GAS  C:\Users\Nathan\AppData\Local\Temp\ccPdMrK0.s 			page 31


 1794              		@ args = 0, pretend = 0, frame = 0
 1795              		@ frame_needed = 0, uses_anonymous_args = 0
 1796              		@ link register save eliminated.
 1797 0000 90F83C30 		ldrb	r3, [r0, #60]	@ zero_extendqisi2
 1798 0004 012B     		cmp	r3, #1
 1799 0006 0ED0     		beq	.L201
 1800 0008 0123     		movs	r3, #1
 1801 000a 80F83C30 		strb	r3, [r0, #60]
 1802 000e 0222     		movs	r2, #2
 1803 0010 80F83D20 		strb	r2, [r0, #61]
 1804 0014 0268     		ldr	r2, [r0]
 1805 0016 5161     		str	r1, [r2, #20]
 1806 0018 80F83D30 		strb	r3, [r0, #61]
 1807 001c 0023     		movs	r3, #0
 1808 001e 80F83C30 		strb	r3, [r0, #60]
 1809 0022 1846     		mov	r0, r3
 1810 0024 7047     		bx	lr
 1811              	.L201:
 1812 0026 0220     		movs	r0, #2
 1813 0028 7047     		bx	lr
 1815              		.section	.text.HAL_TIM_ConfigTI1Input,"ax",%progbits
 1816              		.align	1
 1817              		.global	HAL_TIM_ConfigTI1Input
 1818              		.syntax unified
 1819              		.thumb
 1820              		.thumb_func
 1822              	HAL_TIM_ConfigTI1Input:
 1823              		@ args = 0, pretend = 0, frame = 0
 1824              		@ frame_needed = 0, uses_anonymous_args = 0
 1825              		@ link register save eliminated.
 1826 0000 0268     		ldr	r2, [r0]
 1827 0002 5368     		ldr	r3, [r2, #4]
 1828 0004 23F08003 		bic	r3, r3, #128
 1829 0008 0B43     		orrs	r3, r3, r1
 1830 000a 5360     		str	r3, [r2, #4]
 1831 000c 0020     		movs	r0, #0
 1832 000e 7047     		bx	lr
 1834              		.section	.text.HAL_TIM_ReadCapturedValue,"ax",%progbits
 1835              		.align	1
 1836              		.global	HAL_TIM_ReadCapturedValue
 1837              		.syntax unified
 1838              		.thumb
 1839              		.thumb_func
 1841              	HAL_TIM_ReadCapturedValue:
 1842              		@ args = 0, pretend = 0, frame = 0
 1843              		@ frame_needed = 0, uses_anonymous_args = 0
 1844              		@ link register save eliminated.
 1845 0000 0C29     		cmp	r1, #12
 1846 0002 14D8     		bhi	.L210
 1847 0004 DFE801F0 		tbb	[pc, r1]
 1848              	.L206:
 1849 0008 07       		.byte	(.L209-.L206)/2
 1850 0009 13       		.byte	(.L210-.L206)/2
 1851 000a 13       		.byte	(.L210-.L206)/2
 1852 000b 13       		.byte	(.L210-.L206)/2
 1853 000c 0A       		.byte	(.L208-.L206)/2
 1854 000d 13       		.byte	(.L210-.L206)/2
ARM GAS  C:\Users\Nathan\AppData\Local\Temp\ccPdMrK0.s 			page 32


 1855 000e 13       		.byte	(.L210-.L206)/2
 1856 000f 13       		.byte	(.L210-.L206)/2
 1857 0010 0D       		.byte	(.L207-.L206)/2
 1858 0011 13       		.byte	(.L210-.L206)/2
 1859 0012 13       		.byte	(.L210-.L206)/2
 1860 0013 13       		.byte	(.L210-.L206)/2
 1861 0014 10       		.byte	(.L205-.L206)/2
 1862 0015 00       		.p2align 1
 1863              	.L209:
 1864 0016 0368     		ldr	r3, [r0]
 1865 0018 586B     		ldr	r0, [r3, #52]
 1866 001a 7047     		bx	lr
 1867              	.L208:
 1868 001c 0368     		ldr	r3, [r0]
 1869 001e 986B     		ldr	r0, [r3, #56]
 1870 0020 7047     		bx	lr
 1871              	.L207:
 1872 0022 0368     		ldr	r3, [r0]
 1873 0024 D86B     		ldr	r0, [r3, #60]
 1874 0026 7047     		bx	lr
 1875              	.L205:
 1876 0028 0368     		ldr	r3, [r0]
 1877 002a 186C     		ldr	r0, [r3, #64]
 1878 002c 7047     		bx	lr
 1879              	.L210:
 1880 002e 0020     		movs	r0, #0
 1881 0030 7047     		bx	lr
 1883              		.section	.text.HAL_TIM_PeriodElapsedCallback,"ax",%progbits
 1884              		.align	1
 1885              		.weak	HAL_TIM_PeriodElapsedCallback
 1886              		.syntax unified
 1887              		.thumb
 1888              		.thumb_func
 1890              	HAL_TIM_PeriodElapsedCallback:
 1891              		@ args = 0, pretend = 0, frame = 0
 1892              		@ frame_needed = 0, uses_anonymous_args = 0
 1893              		@ link register save eliminated.
 1894 0000 7047     		bx	lr
 1896              		.section	.text.TIM_DMAPeriodElapsedCplt,"ax",%progbits
 1897              		.align	1
 1898              		.syntax unified
 1899              		.thumb
 1900              		.thumb_func
 1902              	TIM_DMAPeriodElapsedCplt:
 1903              		@ args = 0, pretend = 0, frame = 0
 1904              		@ frame_needed = 0, uses_anonymous_args = 0
 1905 0000 08B5     		push	{r3, lr}
 1906 0002 806A     		ldr	r0, [r0, #40]
 1907 0004 036A     		ldr	r3, [r0, #32]
 1908 0006 DB69     		ldr	r3, [r3, #28]
 1909 0008 13B9     		cbnz	r3, .L213
 1910 000a 0123     		movs	r3, #1
 1911 000c 80F83D30 		strb	r3, [r0, #61]
 1912              	.L213:
 1913 0010 FFF7FEFF 		bl	HAL_TIM_PeriodElapsedCallback
 1914 0014 08BD     		pop	{r3, pc}
 1916              		.section	.text.HAL_TIM_PeriodElapsedHalfCpltCallback,"ax",%progbits
ARM GAS  C:\Users\Nathan\AppData\Local\Temp\ccPdMrK0.s 			page 33


 1917              		.align	1
 1918              		.weak	HAL_TIM_PeriodElapsedHalfCpltCallback
 1919              		.syntax unified
 1920              		.thumb
 1921              		.thumb_func
 1923              	HAL_TIM_PeriodElapsedHalfCpltCallback:
 1924              		@ args = 0, pretend = 0, frame = 0
 1925              		@ frame_needed = 0, uses_anonymous_args = 0
 1926              		@ link register save eliminated.
 1927 0000 7047     		bx	lr
 1929              		.section	.text.TIM_DMAPeriodElapsedHalfCplt,"ax",%progbits
 1930              		.align	1
 1931              		.syntax unified
 1932              		.thumb
 1933              		.thumb_func
 1935              	TIM_DMAPeriodElapsedHalfCplt:
 1936              		@ args = 0, pretend = 0, frame = 0
 1937              		@ frame_needed = 0, uses_anonymous_args = 0
 1938 0000 08B5     		push	{r3, lr}
 1939 0002 806A     		ldr	r0, [r0, #40]
 1940 0004 FFF7FEFF 		bl	HAL_TIM_PeriodElapsedHalfCpltCallback
 1941 0008 08BD     		pop	{r3, pc}
 1943              		.section	.text.HAL_TIM_OC_DelayElapsedCallback,"ax",%progbits
 1944              		.align	1
 1945              		.weak	HAL_TIM_OC_DelayElapsedCallback
 1946              		.syntax unified
 1947              		.thumb
 1948              		.thumb_func
 1950              	HAL_TIM_OC_DelayElapsedCallback:
 1951              		@ args = 0, pretend = 0, frame = 0
 1952              		@ frame_needed = 0, uses_anonymous_args = 0
 1953              		@ link register save eliminated.
 1954 0000 7047     		bx	lr
 1956              		.section	.text.HAL_TIM_IC_CaptureCallback,"ax",%progbits
 1957              		.align	1
 1958              		.weak	HAL_TIM_IC_CaptureCallback
 1959              		.syntax unified
 1960              		.thumb
 1961              		.thumb_func
 1963              	HAL_TIM_IC_CaptureCallback:
 1964              		@ args = 0, pretend = 0, frame = 0
 1965              		@ frame_needed = 0, uses_anonymous_args = 0
 1966              		@ link register save eliminated.
 1967 0000 7047     		bx	lr
 1969              		.section	.text.TIM_DMACaptureCplt,"ax",%progbits
 1970              		.align	1
 1971              		.global	TIM_DMACaptureCplt
 1972              		.syntax unified
 1973              		.thumb
 1974              		.thumb_func
 1976              	TIM_DMACaptureCplt:
 1977              		@ args = 0, pretend = 0, frame = 0
 1978              		@ frame_needed = 0, uses_anonymous_args = 0
 1979 0000 10B5     		push	{r4, lr}
 1980 0002 846A     		ldr	r4, [r0, #40]
 1981 0004 636A     		ldr	r3, [r4, #36]
 1982 0006 8342     		cmp	r3, r0
ARM GAS  C:\Users\Nathan\AppData\Local\Temp\ccPdMrK0.s 			page 34


 1983 0008 0ED0     		beq	.L226
 1984 000a A36A     		ldr	r3, [r4, #40]
 1985 000c 8342     		cmp	r3, r0
 1986 000e 16D0     		beq	.L227
 1987 0010 E36A     		ldr	r3, [r4, #44]
 1988 0012 8342     		cmp	r3, r0
 1989 0014 1ED0     		beq	.L228
 1990 0016 236B     		ldr	r3, [r4, #48]
 1991 0018 8342     		cmp	r3, r0
 1992 001a 26D0     		beq	.L229
 1993              	.L222:
 1994 001c 2046     		mov	r0, r4
 1995 001e FFF7FEFF 		bl	HAL_TIM_IC_CaptureCallback
 1996 0022 0023     		movs	r3, #0
 1997 0024 2377     		strb	r3, [r4, #28]
 1998 0026 10BD     		pop	{r4, pc}
 1999              	.L226:
 2000 0028 0123     		movs	r3, #1
 2001 002a 2377     		strb	r3, [r4, #28]
 2002 002c C369     		ldr	r3, [r0, #28]
 2003 002e 002B     		cmp	r3, #0
 2004 0030 F4D1     		bne	.L222
 2005 0032 0123     		movs	r3, #1
 2006 0034 84F83E30 		strb	r3, [r4, #62]
 2007 0038 84F84430 		strb	r3, [r4, #68]
 2008 003c EEE7     		b	.L222
 2009              	.L227:
 2010 003e 0223     		movs	r3, #2
 2011 0040 2377     		strb	r3, [r4, #28]
 2012 0042 C369     		ldr	r3, [r0, #28]
 2013 0044 002B     		cmp	r3, #0
 2014 0046 E9D1     		bne	.L222
 2015 0048 0123     		movs	r3, #1
 2016 004a 84F83F30 		strb	r3, [r4, #63]
 2017 004e 84F84530 		strb	r3, [r4, #69]
 2018 0052 E3E7     		b	.L222
 2019              	.L228:
 2020 0054 0423     		movs	r3, #4
 2021 0056 2377     		strb	r3, [r4, #28]
 2022 0058 C369     		ldr	r3, [r0, #28]
 2023 005a 002B     		cmp	r3, #0
 2024 005c DED1     		bne	.L222
 2025 005e 0123     		movs	r3, #1
 2026 0060 84F84030 		strb	r3, [r4, #64]
 2027 0064 84F84630 		strb	r3, [r4, #70]
 2028 0068 D8E7     		b	.L222
 2029              	.L229:
 2030 006a 0823     		movs	r3, #8
 2031 006c 2377     		strb	r3, [r4, #28]
 2032 006e C369     		ldr	r3, [r0, #28]
 2033 0070 002B     		cmp	r3, #0
 2034 0072 D3D1     		bne	.L222
 2035 0074 0123     		movs	r3, #1
 2036 0076 84F84130 		strb	r3, [r4, #65]
 2037 007a 84F84730 		strb	r3, [r4, #71]
 2038 007e CDE7     		b	.L222
 2040              		.section	.text.HAL_TIM_IC_CaptureHalfCpltCallback,"ax",%progbits
ARM GAS  C:\Users\Nathan\AppData\Local\Temp\ccPdMrK0.s 			page 35


 2041              		.align	1
 2042              		.weak	HAL_TIM_IC_CaptureHalfCpltCallback
 2043              		.syntax unified
 2044              		.thumb
 2045              		.thumb_func
 2047              	HAL_TIM_IC_CaptureHalfCpltCallback:
 2048              		@ args = 0, pretend = 0, frame = 0
 2049              		@ frame_needed = 0, uses_anonymous_args = 0
 2050              		@ link register save eliminated.
 2051 0000 7047     		bx	lr
 2053              		.section	.text.TIM_DMACaptureHalfCplt,"ax",%progbits
 2054              		.align	1
 2055              		.global	TIM_DMACaptureHalfCplt
 2056              		.syntax unified
 2057              		.thumb
 2058              		.thumb_func
 2060              	TIM_DMACaptureHalfCplt:
 2061              		@ args = 0, pretend = 0, frame = 0
 2062              		@ frame_needed = 0, uses_anonymous_args = 0
 2063 0000 10B5     		push	{r4, lr}
 2064 0002 846A     		ldr	r4, [r0, #40]
 2065 0004 636A     		ldr	r3, [r4, #36]
 2066 0006 8342     		cmp	r3, r0
 2067 0008 0BD0     		beq	.L237
 2068 000a A36A     		ldr	r3, [r4, #40]
 2069 000c 8342     		cmp	r3, r0
 2070 000e 10D0     		beq	.L238
 2071 0010 E36A     		ldr	r3, [r4, #44]
 2072 0012 8342     		cmp	r3, r0
 2073 0014 10D0     		beq	.L239
 2074 0016 236B     		ldr	r3, [r4, #48]
 2075 0018 8342     		cmp	r3, r0
 2076 001a 04D1     		bne	.L233
 2077 001c 0823     		movs	r3, #8
 2078 001e 2377     		strb	r3, [r4, #28]
 2079 0020 01E0     		b	.L233
 2080              	.L237:
 2081 0022 0123     		movs	r3, #1
 2082 0024 2377     		strb	r3, [r4, #28]
 2083              	.L233:
 2084 0026 2046     		mov	r0, r4
 2085 0028 FFF7FEFF 		bl	HAL_TIM_IC_CaptureHalfCpltCallback
 2086 002c 0023     		movs	r3, #0
 2087 002e 2377     		strb	r3, [r4, #28]
 2088 0030 10BD     		pop	{r4, pc}
 2089              	.L238:
 2090 0032 0223     		movs	r3, #2
 2091 0034 2377     		strb	r3, [r4, #28]
 2092 0036 F6E7     		b	.L233
 2093              	.L239:
 2094 0038 0423     		movs	r3, #4
 2095 003a 2377     		strb	r3, [r4, #28]
 2096 003c F3E7     		b	.L233
 2098              		.section	.text.HAL_TIM_PWM_PulseFinishedCallback,"ax",%progbits
 2099              		.align	1
 2100              		.weak	HAL_TIM_PWM_PulseFinishedCallback
 2101              		.syntax unified
ARM GAS  C:\Users\Nathan\AppData\Local\Temp\ccPdMrK0.s 			page 36


 2102              		.thumb
 2103              		.thumb_func
 2105              	HAL_TIM_PWM_PulseFinishedCallback:
 2106              		@ args = 0, pretend = 0, frame = 0
 2107              		@ frame_needed = 0, uses_anonymous_args = 0
 2108              		@ link register save eliminated.
 2109 0000 7047     		bx	lr
 2111              		.section	.text.TIM_DMADelayPulseCplt,"ax",%progbits
 2112              		.align	1
 2113              		.syntax unified
 2114              		.thumb
 2115              		.thumb_func
 2117              	TIM_DMADelayPulseCplt:
 2118              		@ args = 0, pretend = 0, frame = 0
 2119              		@ frame_needed = 0, uses_anonymous_args = 0
 2120 0000 10B5     		push	{r4, lr}
 2121 0002 846A     		ldr	r4, [r0, #40]
 2122 0004 636A     		ldr	r3, [r4, #36]
 2123 0006 8342     		cmp	r3, r0
 2124 0008 0ED0     		beq	.L247
 2125 000a A36A     		ldr	r3, [r4, #40]
 2126 000c 8342     		cmp	r3, r0
 2127 000e 14D0     		beq	.L248
 2128 0010 E36A     		ldr	r3, [r4, #44]
 2129 0012 8342     		cmp	r3, r0
 2130 0014 1AD0     		beq	.L249
 2131 0016 236B     		ldr	r3, [r4, #48]
 2132 0018 8342     		cmp	r3, r0
 2133 001a 20D0     		beq	.L250
 2134              	.L243:
 2135 001c 2046     		mov	r0, r4
 2136 001e FFF7FEFF 		bl	HAL_TIM_PWM_PulseFinishedCallback
 2137 0022 0023     		movs	r3, #0
 2138 0024 2377     		strb	r3, [r4, #28]
 2139 0026 10BD     		pop	{r4, pc}
 2140              	.L247:
 2141 0028 0123     		movs	r3, #1
 2142 002a 2377     		strb	r3, [r4, #28]
 2143 002c C369     		ldr	r3, [r0, #28]
 2144 002e 002B     		cmp	r3, #0
 2145 0030 F4D1     		bne	.L243
 2146 0032 0123     		movs	r3, #1
 2147 0034 84F83E30 		strb	r3, [r4, #62]
 2148 0038 F0E7     		b	.L243
 2149              	.L248:
 2150 003a 0223     		movs	r3, #2
 2151 003c 2377     		strb	r3, [r4, #28]
 2152 003e C369     		ldr	r3, [r0, #28]
 2153 0040 002B     		cmp	r3, #0
 2154 0042 EBD1     		bne	.L243
 2155 0044 0123     		movs	r3, #1
 2156 0046 84F83F30 		strb	r3, [r4, #63]
 2157 004a E7E7     		b	.L243
 2158              	.L249:
 2159 004c 0423     		movs	r3, #4
 2160 004e 2377     		strb	r3, [r4, #28]
 2161 0050 C369     		ldr	r3, [r0, #28]
ARM GAS  C:\Users\Nathan\AppData\Local\Temp\ccPdMrK0.s 			page 37


 2162 0052 002B     		cmp	r3, #0
 2163 0054 E2D1     		bne	.L243
 2164 0056 0123     		movs	r3, #1
 2165 0058 84F84030 		strb	r3, [r4, #64]
 2166 005c DEE7     		b	.L243
 2167              	.L250:
 2168 005e 0823     		movs	r3, #8
 2169 0060 2377     		strb	r3, [r4, #28]
 2170 0062 C369     		ldr	r3, [r0, #28]
 2171 0064 002B     		cmp	r3, #0
 2172 0066 D9D1     		bne	.L243
 2173 0068 0123     		movs	r3, #1
 2174 006a 84F84130 		strb	r3, [r4, #65]
 2175 006e D5E7     		b	.L243
 2177              		.section	.text.HAL_TIM_PWM_PulseFinishedHalfCpltCallback,"ax",%progbits
 2178              		.align	1
 2179              		.weak	HAL_TIM_PWM_PulseFinishedHalfCpltCallback
 2180              		.syntax unified
 2181              		.thumb
 2182              		.thumb_func
 2184              	HAL_TIM_PWM_PulseFinishedHalfCpltCallback:
 2185              		@ args = 0, pretend = 0, frame = 0
 2186              		@ frame_needed = 0, uses_anonymous_args = 0
 2187              		@ link register save eliminated.
 2188 0000 7047     		bx	lr
 2190              		.section	.text.TIM_DMADelayPulseHalfCplt,"ax",%progbits
 2191              		.align	1
 2192              		.global	TIM_DMADelayPulseHalfCplt
 2193              		.syntax unified
 2194              		.thumb
 2195              		.thumb_func
 2197              	TIM_DMADelayPulseHalfCplt:
 2198              		@ args = 0, pretend = 0, frame = 0
 2199              		@ frame_needed = 0, uses_anonymous_args = 0
 2200 0000 10B5     		push	{r4, lr}
 2201 0002 846A     		ldr	r4, [r0, #40]
 2202 0004 636A     		ldr	r3, [r4, #36]
 2203 0006 8342     		cmp	r3, r0
 2204 0008 0BD0     		beq	.L258
 2205 000a A36A     		ldr	r3, [r4, #40]
 2206 000c 8342     		cmp	r3, r0
 2207 000e 10D0     		beq	.L259
 2208 0010 E36A     		ldr	r3, [r4, #44]
 2209 0012 8342     		cmp	r3, r0
 2210 0014 10D0     		beq	.L260
 2211 0016 236B     		ldr	r3, [r4, #48]
 2212 0018 8342     		cmp	r3, r0
 2213 001a 04D1     		bne	.L254
 2214 001c 0823     		movs	r3, #8
 2215 001e 2377     		strb	r3, [r4, #28]
 2216 0020 01E0     		b	.L254
 2217              	.L258:
 2218 0022 0123     		movs	r3, #1
 2219 0024 2377     		strb	r3, [r4, #28]
 2220              	.L254:
 2221 0026 2046     		mov	r0, r4
 2222 0028 FFF7FEFF 		bl	HAL_TIM_PWM_PulseFinishedHalfCpltCallback
ARM GAS  C:\Users\Nathan\AppData\Local\Temp\ccPdMrK0.s 			page 38


 2223 002c 0023     		movs	r3, #0
 2224 002e 2377     		strb	r3, [r4, #28]
 2225 0030 10BD     		pop	{r4, pc}
 2226              	.L259:
 2227 0032 0223     		movs	r3, #2
 2228 0034 2377     		strb	r3, [r4, #28]
 2229 0036 F6E7     		b	.L254
 2230              	.L260:
 2231 0038 0423     		movs	r3, #4
 2232 003a 2377     		strb	r3, [r4, #28]
 2233 003c F3E7     		b	.L254
 2235              		.section	.text.HAL_TIM_TriggerCallback,"ax",%progbits
 2236              		.align	1
 2237              		.weak	HAL_TIM_TriggerCallback
 2238              		.syntax unified
 2239              		.thumb
 2240              		.thumb_func
 2242              	HAL_TIM_TriggerCallback:
 2243              		@ args = 0, pretend = 0, frame = 0
 2244              		@ frame_needed = 0, uses_anonymous_args = 0
 2245              		@ link register save eliminated.
 2246 0000 7047     		bx	lr
 2248              		.section	.text.HAL_TIM_IRQHandler,"ax",%progbits
 2249              		.align	1
 2250              		.global	HAL_TIM_IRQHandler
 2251              		.syntax unified
 2252              		.thumb
 2253              		.thumb_func
 2255              	HAL_TIM_IRQHandler:
 2256              		@ args = 0, pretend = 0, frame = 0
 2257              		@ frame_needed = 0, uses_anonymous_args = 0
 2258 0000 70B5     		push	{r4, r5, r6, lr}
 2259 0002 0446     		mov	r4, r0
 2260 0004 0368     		ldr	r3, [r0]
 2261 0006 DE68     		ldr	r6, [r3, #12]
 2262 0008 1D69     		ldr	r5, [r3, #16]
 2263 000a 15F0020F 		tst	r5, #2
 2264 000e 10D0     		beq	.L263
 2265 0010 16F0020F 		tst	r6, #2
 2266 0014 0DD0     		beq	.L263
 2267 0016 6FF00202 		mvn	r2, #2
 2268 001a 1A61     		str	r2, [r3, #16]
 2269 001c 0123     		movs	r3, #1
 2270 001e 0377     		strb	r3, [r0, #28]
 2271 0020 0368     		ldr	r3, [r0]
 2272 0022 9B69     		ldr	r3, [r3, #24]
 2273 0024 13F0030F 		tst	r3, #3
 2274 0028 64D0     		beq	.L264
 2275 002a FFF7FEFF 		bl	HAL_TIM_IC_CaptureCallback
 2276              	.L265:
 2277 002e 0023     		movs	r3, #0
 2278 0030 2377     		strb	r3, [r4, #28]
 2279              	.L263:
 2280 0032 15F0040F 		tst	r5, #4
 2281 0036 12D0     		beq	.L266
 2282 0038 16F0040F 		tst	r6, #4
 2283 003c 0FD0     		beq	.L266
ARM GAS  C:\Users\Nathan\AppData\Local\Temp\ccPdMrK0.s 			page 39


 2284 003e 2368     		ldr	r3, [r4]
 2285 0040 6FF00402 		mvn	r2, #4
 2286 0044 1A61     		str	r2, [r3, #16]
 2287 0046 0223     		movs	r3, #2
 2288 0048 2377     		strb	r3, [r4, #28]
 2289 004a 2368     		ldr	r3, [r4]
 2290 004c 9B69     		ldr	r3, [r3, #24]
 2291 004e 13F4407F 		tst	r3, #768
 2292 0052 55D0     		beq	.L267
 2293 0054 2046     		mov	r0, r4
 2294 0056 FFF7FEFF 		bl	HAL_TIM_IC_CaptureCallback
 2295              	.L268:
 2296 005a 0023     		movs	r3, #0
 2297 005c 2377     		strb	r3, [r4, #28]
 2298              	.L266:
 2299 005e 15F0080F 		tst	r5, #8
 2300 0062 12D0     		beq	.L269
 2301 0064 16F0080F 		tst	r6, #8
 2302 0068 0FD0     		beq	.L269
 2303 006a 2368     		ldr	r3, [r4]
 2304 006c 6FF00802 		mvn	r2, #8
 2305 0070 1A61     		str	r2, [r3, #16]
 2306 0072 0423     		movs	r3, #4
 2307 0074 2377     		strb	r3, [r4, #28]
 2308 0076 2368     		ldr	r3, [r4]
 2309 0078 DB69     		ldr	r3, [r3, #28]
 2310 007a 13F0030F 		tst	r3, #3
 2311 007e 46D0     		beq	.L270
 2312 0080 2046     		mov	r0, r4
 2313 0082 FFF7FEFF 		bl	HAL_TIM_IC_CaptureCallback
 2314              	.L271:
 2315 0086 0023     		movs	r3, #0
 2316 0088 2377     		strb	r3, [r4, #28]
 2317              	.L269:
 2318 008a 15F0100F 		tst	r5, #16
 2319 008e 12D0     		beq	.L272
 2320 0090 16F0100F 		tst	r6, #16
 2321 0094 0FD0     		beq	.L272
 2322 0096 2368     		ldr	r3, [r4]
 2323 0098 6FF01002 		mvn	r2, #16
 2324 009c 1A61     		str	r2, [r3, #16]
 2325 009e 0823     		movs	r3, #8
 2326 00a0 2377     		strb	r3, [r4, #28]
 2327 00a2 2368     		ldr	r3, [r4]
 2328 00a4 DB69     		ldr	r3, [r3, #28]
 2329 00a6 13F4407F 		tst	r3, #768
 2330 00aa 37D0     		beq	.L273
 2331 00ac 2046     		mov	r0, r4
 2332 00ae FFF7FEFF 		bl	HAL_TIM_IC_CaptureCallback
 2333              	.L274:
 2334 00b2 0023     		movs	r3, #0
 2335 00b4 2377     		strb	r3, [r4, #28]
 2336              	.L272:
 2337 00b6 15F0010F 		tst	r5, #1
 2338 00ba 02D0     		beq	.L275
 2339 00bc 16F0010F 		tst	r6, #1
 2340 00c0 33D1     		bne	.L281
ARM GAS  C:\Users\Nathan\AppData\Local\Temp\ccPdMrK0.s 			page 40


 2341              	.L275:
 2342 00c2 15F4025F 		tst	r5, #8320
 2343 00c6 02D0     		beq	.L276
 2344 00c8 16F0800F 		tst	r6, #128
 2345 00cc 35D1     		bne	.L282
 2346              	.L276:
 2347 00ce 15F4807F 		tst	r5, #256
 2348 00d2 02D0     		beq	.L277
 2349 00d4 16F0800F 		tst	r6, #128
 2350 00d8 37D1     		bne	.L283
 2351              	.L277:
 2352 00da 15F0400F 		tst	r5, #64
 2353 00de 02D0     		beq	.L278
 2354 00e0 16F0400F 		tst	r6, #64
 2355 00e4 39D1     		bne	.L284
 2356              	.L278:
 2357 00e6 15F0200F 		tst	r5, #32
 2358 00ea 02D0     		beq	.L262
 2359 00ec 16F0200F 		tst	r6, #32
 2360 00f0 3BD1     		bne	.L285
 2361              	.L262:
 2362 00f2 70BD     		pop	{r4, r5, r6, pc}
 2363              	.L264:
 2364 00f4 FFF7FEFF 		bl	HAL_TIM_OC_DelayElapsedCallback
 2365 00f8 2046     		mov	r0, r4
 2366 00fa FFF7FEFF 		bl	HAL_TIM_PWM_PulseFinishedCallback
 2367 00fe 96E7     		b	.L265
 2368              	.L267:
 2369 0100 2046     		mov	r0, r4
 2370 0102 FFF7FEFF 		bl	HAL_TIM_OC_DelayElapsedCallback
 2371 0106 2046     		mov	r0, r4
 2372 0108 FFF7FEFF 		bl	HAL_TIM_PWM_PulseFinishedCallback
 2373 010c A5E7     		b	.L268
 2374              	.L270:
 2375 010e 2046     		mov	r0, r4
 2376 0110 FFF7FEFF 		bl	HAL_TIM_OC_DelayElapsedCallback
 2377 0114 2046     		mov	r0, r4
 2378 0116 FFF7FEFF 		bl	HAL_TIM_PWM_PulseFinishedCallback
 2379 011a B4E7     		b	.L271
 2380              	.L273:
 2381 011c 2046     		mov	r0, r4
 2382 011e FFF7FEFF 		bl	HAL_TIM_OC_DelayElapsedCallback
 2383 0122 2046     		mov	r0, r4
 2384 0124 FFF7FEFF 		bl	HAL_TIM_PWM_PulseFinishedCallback
 2385 0128 C3E7     		b	.L274
 2386              	.L281:
 2387 012a 2368     		ldr	r3, [r4]
 2388 012c 6FF00102 		mvn	r2, #1
 2389 0130 1A61     		str	r2, [r3, #16]
 2390 0132 2046     		mov	r0, r4
 2391 0134 FFF7FEFF 		bl	HAL_TIM_PeriodElapsedCallback
 2392 0138 C3E7     		b	.L275
 2393              	.L282:
 2394 013a 2368     		ldr	r3, [r4]
 2395 013c 6FF40252 		mvn	r2, #8320
 2396 0140 1A61     		str	r2, [r3, #16]
 2397 0142 2046     		mov	r0, r4
ARM GAS  C:\Users\Nathan\AppData\Local\Temp\ccPdMrK0.s 			page 41


 2398 0144 FFF7FEFF 		bl	HAL_TIMEx_BreakCallback
 2399 0148 C1E7     		b	.L276
 2400              	.L283:
 2401 014a 2368     		ldr	r3, [r4]
 2402 014c 6FF48072 		mvn	r2, #256
 2403 0150 1A61     		str	r2, [r3, #16]
 2404 0152 2046     		mov	r0, r4
 2405 0154 FFF7FEFF 		bl	HAL_TIMEx_Break2Callback
 2406 0158 BFE7     		b	.L277
 2407              	.L284:
 2408 015a 2368     		ldr	r3, [r4]
 2409 015c 6FF04002 		mvn	r2, #64
 2410 0160 1A61     		str	r2, [r3, #16]
 2411 0162 2046     		mov	r0, r4
 2412 0164 FFF7FEFF 		bl	HAL_TIM_TriggerCallback
 2413 0168 BDE7     		b	.L278
 2414              	.L285:
 2415 016a 2368     		ldr	r3, [r4]
 2416 016c 6FF02002 		mvn	r2, #32
 2417 0170 1A61     		str	r2, [r3, #16]
 2418 0172 2046     		mov	r0, r4
 2419 0174 FFF7FEFF 		bl	HAL_TIMEx_CommutCallback
 2420 0178 BBE7     		b	.L262
 2422              		.section	.text.TIM_DMATriggerCplt,"ax",%progbits
 2423              		.align	1
 2424              		.syntax unified
 2425              		.thumb
 2426              		.thumb_func
 2428              	TIM_DMATriggerCplt:
 2429              		@ args = 0, pretend = 0, frame = 0
 2430              		@ frame_needed = 0, uses_anonymous_args = 0
 2431 0000 08B5     		push	{r3, lr}
 2432 0002 806A     		ldr	r0, [r0, #40]
 2433 0004 836B     		ldr	r3, [r0, #56]
 2434 0006 DB69     		ldr	r3, [r3, #28]
 2435 0008 13B9     		cbnz	r3, .L287
 2436 000a 0123     		movs	r3, #1
 2437 000c 80F83D30 		strb	r3, [r0, #61]
 2438              	.L287:
 2439 0010 FFF7FEFF 		bl	HAL_TIM_TriggerCallback
 2440 0014 08BD     		pop	{r3, pc}
 2442              		.section	.text.HAL_TIM_TriggerHalfCpltCallback,"ax",%progbits
 2443              		.align	1
 2444              		.weak	HAL_TIM_TriggerHalfCpltCallback
 2445              		.syntax unified
 2446              		.thumb
 2447              		.thumb_func
 2449              	HAL_TIM_TriggerHalfCpltCallback:
 2450              		@ args = 0, pretend = 0, frame = 0
 2451              		@ frame_needed = 0, uses_anonymous_args = 0
 2452              		@ link register save eliminated.
 2453 0000 7047     		bx	lr
 2455              		.section	.text.TIM_DMATriggerHalfCplt,"ax",%progbits
 2456              		.align	1
 2457              		.syntax unified
 2458              		.thumb
 2459              		.thumb_func
ARM GAS  C:\Users\Nathan\AppData\Local\Temp\ccPdMrK0.s 			page 42


 2461              	TIM_DMATriggerHalfCplt:
 2462              		@ args = 0, pretend = 0, frame = 0
 2463              		@ frame_needed = 0, uses_anonymous_args = 0
 2464 0000 08B5     		push	{r3, lr}
 2465 0002 806A     		ldr	r0, [r0, #40]
 2466 0004 FFF7FEFF 		bl	HAL_TIM_TriggerHalfCpltCallback
 2467 0008 08BD     		pop	{r3, pc}
 2469              		.section	.text.HAL_TIM_ErrorCallback,"ax",%progbits
 2470              		.align	1
 2471              		.weak	HAL_TIM_ErrorCallback
 2472              		.syntax unified
 2473              		.thumb
 2474              		.thumb_func
 2476              	HAL_TIM_ErrorCallback:
 2477              		@ args = 0, pretend = 0, frame = 0
 2478              		@ frame_needed = 0, uses_anonymous_args = 0
 2479              		@ link register save eliminated.
 2480 0000 7047     		bx	lr
 2482              		.section	.text.TIM_DMAError,"ax",%progbits
 2483              		.align	1
 2484              		.global	TIM_DMAError
 2485              		.syntax unified
 2486              		.thumb
 2487              		.thumb_func
 2489              	TIM_DMAError:
 2490              		@ args = 0, pretend = 0, frame = 0
 2491              		@ frame_needed = 0, uses_anonymous_args = 0
 2492 0000 10B5     		push	{r4, lr}
 2493 0002 846A     		ldr	r4, [r0, #40]
 2494 0004 636A     		ldr	r3, [r4, #36]
 2495 0006 8342     		cmp	r3, r0
 2496 0008 0CD0     		beq	.L300
 2497 000a A36A     		ldr	r3, [r4, #40]
 2498 000c 8342     		cmp	r3, r0
 2499 000e 13D0     		beq	.L301
 2500 0010 E36A     		ldr	r3, [r4, #44]
 2501 0012 8342     		cmp	r3, r0
 2502 0014 16D0     		beq	.L302
 2503 0016 236B     		ldr	r3, [r4, #48]
 2504 0018 8342     		cmp	r3, r0
 2505 001a 19D0     		beq	.L303
 2506 001c 0123     		movs	r3, #1
 2507 001e 84F83D30 		strb	r3, [r4, #61]
 2508 0022 03E0     		b	.L295
 2509              	.L300:
 2510 0024 0123     		movs	r3, #1
 2511 0026 2377     		strb	r3, [r4, #28]
 2512 0028 84F83E30 		strb	r3, [r4, #62]
 2513              	.L295:
 2514 002c 2046     		mov	r0, r4
 2515 002e FFF7FEFF 		bl	HAL_TIM_ErrorCallback
 2516 0032 0023     		movs	r3, #0
 2517 0034 2377     		strb	r3, [r4, #28]
 2518 0036 10BD     		pop	{r4, pc}
 2519              	.L301:
 2520 0038 0223     		movs	r3, #2
 2521 003a 2377     		strb	r3, [r4, #28]
ARM GAS  C:\Users\Nathan\AppData\Local\Temp\ccPdMrK0.s 			page 43


 2522 003c 0123     		movs	r3, #1
 2523 003e 84F83F30 		strb	r3, [r4, #63]
 2524 0042 F3E7     		b	.L295
 2525              	.L302:
 2526 0044 0423     		movs	r3, #4
 2527 0046 2377     		strb	r3, [r4, #28]
 2528 0048 0123     		movs	r3, #1
 2529 004a 84F84030 		strb	r3, [r4, #64]
 2530 004e EDE7     		b	.L295
 2531              	.L303:
 2532 0050 0823     		movs	r3, #8
 2533 0052 2377     		strb	r3, [r4, #28]
 2534 0054 0123     		movs	r3, #1
 2535 0056 84F84130 		strb	r3, [r4, #65]
 2536 005a E7E7     		b	.L295
 2538              		.section	.text.HAL_TIM_Base_GetState,"ax",%progbits
 2539              		.align	1
 2540              		.global	HAL_TIM_Base_GetState
 2541              		.syntax unified
 2542              		.thumb
 2543              		.thumb_func
 2545              	HAL_TIM_Base_GetState:
 2546              		@ args = 0, pretend = 0, frame = 0
 2547              		@ frame_needed = 0, uses_anonymous_args = 0
 2548              		@ link register save eliminated.
 2549 0000 90F83D00 		ldrb	r0, [r0, #61]	@ zero_extendqisi2
 2550 0004 7047     		bx	lr
 2552              		.section	.text.HAL_TIM_OC_GetState,"ax",%progbits
 2553              		.align	1
 2554              		.global	HAL_TIM_OC_GetState
 2555              		.syntax unified
 2556              		.thumb
 2557              		.thumb_func
 2559              	HAL_TIM_OC_GetState:
 2560              		@ args = 0, pretend = 0, frame = 0
 2561              		@ frame_needed = 0, uses_anonymous_args = 0
 2562              		@ link register save eliminated.
 2563 0000 90F83D00 		ldrb	r0, [r0, #61]	@ zero_extendqisi2
 2564 0004 7047     		bx	lr
 2566              		.section	.text.HAL_TIM_PWM_GetState,"ax",%progbits
 2567              		.align	1
 2568              		.global	HAL_TIM_PWM_GetState
 2569              		.syntax unified
 2570              		.thumb
 2571              		.thumb_func
 2573              	HAL_TIM_PWM_GetState:
 2574              		@ args = 0, pretend = 0, frame = 0
 2575              		@ frame_needed = 0, uses_anonymous_args = 0
 2576              		@ link register save eliminated.
 2577 0000 90F83D00 		ldrb	r0, [r0, #61]	@ zero_extendqisi2
 2578 0004 7047     		bx	lr
 2580              		.section	.text.HAL_TIM_IC_GetState,"ax",%progbits
 2581              		.align	1
 2582              		.global	HAL_TIM_IC_GetState
 2583              		.syntax unified
 2584              		.thumb
 2585              		.thumb_func
ARM GAS  C:\Users\Nathan\AppData\Local\Temp\ccPdMrK0.s 			page 44


 2587              	HAL_TIM_IC_GetState:
 2588              		@ args = 0, pretend = 0, frame = 0
 2589              		@ frame_needed = 0, uses_anonymous_args = 0
 2590              		@ link register save eliminated.
 2591 0000 90F83D00 		ldrb	r0, [r0, #61]	@ zero_extendqisi2
 2592 0004 7047     		bx	lr
 2594              		.section	.text.HAL_TIM_OnePulse_GetState,"ax",%progbits
 2595              		.align	1
 2596              		.global	HAL_TIM_OnePulse_GetState
 2597              		.syntax unified
 2598              		.thumb
 2599              		.thumb_func
 2601              	HAL_TIM_OnePulse_GetState:
 2602              		@ args = 0, pretend = 0, frame = 0
 2603              		@ frame_needed = 0, uses_anonymous_args = 0
 2604              		@ link register save eliminated.
 2605 0000 90F83D00 		ldrb	r0, [r0, #61]	@ zero_extendqisi2
 2606 0004 7047     		bx	lr
 2608              		.section	.text.HAL_TIM_Encoder_GetState,"ax",%progbits
 2609              		.align	1
 2610              		.global	HAL_TIM_Encoder_GetState
 2611              		.syntax unified
 2612              		.thumb
 2613              		.thumb_func
 2615              	HAL_TIM_Encoder_GetState:
 2616              		@ args = 0, pretend = 0, frame = 0
 2617              		@ frame_needed = 0, uses_anonymous_args = 0
 2618              		@ link register save eliminated.
 2619 0000 90F83D00 		ldrb	r0, [r0, #61]	@ zero_extendqisi2
 2620 0004 7047     		bx	lr
 2622              		.section	.text.HAL_TIM_GetActiveChannel,"ax",%progbits
 2623              		.align	1
 2624              		.global	HAL_TIM_GetActiveChannel
 2625              		.syntax unified
 2626              		.thumb
 2627              		.thumb_func
 2629              	HAL_TIM_GetActiveChannel:
 2630              		@ args = 0, pretend = 0, frame = 0
 2631              		@ frame_needed = 0, uses_anonymous_args = 0
 2632              		@ link register save eliminated.
 2633 0000 007F     		ldrb	r0, [r0, #28]	@ zero_extendqisi2
 2634 0002 7047     		bx	lr
 2636              		.section	.text.HAL_TIM_GetChannelState,"ax",%progbits
 2637              		.align	1
 2638              		.global	HAL_TIM_GetChannelState
 2639              		.syntax unified
 2640              		.thumb
 2641              		.thumb_func
 2643              	HAL_TIM_GetChannelState:
 2644              		@ args = 0, pretend = 0, frame = 0
 2645              		@ frame_needed = 0, uses_anonymous_args = 0
 2646              		@ link register save eliminated.
 2647 0000 1029     		cmp	r1, #16
 2648 0002 1ED8     		bhi	.L312
 2649 0004 DFE801F0 		tbb	[pc, r1]
 2650              	.L314:
 2651 0008 09       		.byte	(.L318-.L314)/2
ARM GAS  C:\Users\Nathan\AppData\Local\Temp\ccPdMrK0.s 			page 45


 2652 0009 1D       		.byte	(.L312-.L314)/2
 2653 000a 1D       		.byte	(.L312-.L314)/2
 2654 000b 1D       		.byte	(.L312-.L314)/2
 2655 000c 0D       		.byte	(.L317-.L314)/2
 2656 000d 1D       		.byte	(.L312-.L314)/2
 2657 000e 1D       		.byte	(.L312-.L314)/2
 2658 000f 1D       		.byte	(.L312-.L314)/2
 2659 0010 11       		.byte	(.L316-.L314)/2
 2660 0011 1D       		.byte	(.L312-.L314)/2
 2661 0012 1D       		.byte	(.L312-.L314)/2
 2662 0013 1D       		.byte	(.L312-.L314)/2
 2663 0014 15       		.byte	(.L315-.L314)/2
 2664 0015 1D       		.byte	(.L312-.L314)/2
 2665 0016 1D       		.byte	(.L312-.L314)/2
 2666 0017 1D       		.byte	(.L312-.L314)/2
 2667 0018 19       		.byte	(.L313-.L314)/2
 2668 0019 00       		.p2align 1
 2669              	.L318:
 2670 001a 90F83E00 		ldrb	r0, [r0, #62]	@ zero_extendqisi2
 2671 001e C0B2     		uxtb	r0, r0
 2672 0020 7047     		bx	lr
 2673              	.L317:
 2674 0022 90F83F00 		ldrb	r0, [r0, #63]	@ zero_extendqisi2
 2675 0026 C0B2     		uxtb	r0, r0
 2676 0028 7047     		bx	lr
 2677              	.L316:
 2678 002a 90F84000 		ldrb	r0, [r0, #64]	@ zero_extendqisi2
 2679 002e C0B2     		uxtb	r0, r0
 2680 0030 7047     		bx	lr
 2681              	.L315:
 2682 0032 90F84100 		ldrb	r0, [r0, #65]	@ zero_extendqisi2
 2683 0036 C0B2     		uxtb	r0, r0
 2684 0038 7047     		bx	lr
 2685              	.L313:
 2686 003a 90F84200 		ldrb	r0, [r0, #66]	@ zero_extendqisi2
 2687 003e C0B2     		uxtb	r0, r0
 2688 0040 7047     		bx	lr
 2689              	.L312:
 2690 0042 90F84300 		ldrb	r0, [r0, #67]	@ zero_extendqisi2
 2691 0046 C0B2     		uxtb	r0, r0
 2692 0048 7047     		bx	lr
 2694              		.section	.text.HAL_TIM_DMABurstState,"ax",%progbits
 2695              		.align	1
 2696              		.global	HAL_TIM_DMABurstState
 2697              		.syntax unified
 2698              		.thumb
 2699              		.thumb_func
 2701              	HAL_TIM_DMABurstState:
 2702              		@ args = 0, pretend = 0, frame = 0
 2703              		@ frame_needed = 0, uses_anonymous_args = 0
 2704              		@ link register save eliminated.
 2705 0000 90F84800 		ldrb	r0, [r0, #72]	@ zero_extendqisi2
 2706 0004 7047     		bx	lr
 2708              		.section	.text.TIM_Base_SetConfig,"ax",%progbits
 2709              		.align	1
 2710              		.global	TIM_Base_SetConfig
 2711              		.syntax unified
ARM GAS  C:\Users\Nathan\AppData\Local\Temp\ccPdMrK0.s 			page 46


 2712              		.thumb
 2713              		.thumb_func
 2715              	TIM_Base_SetConfig:
 2716              		@ args = 0, pretend = 0, frame = 0
 2717              		@ frame_needed = 0, uses_anonymous_args = 0
 2718              		@ link register save eliminated.
 2719 0000 0368     		ldr	r3, [r0]
 2720 0002 1C4A     		ldr	r2, .L328
 2721 0004 9042     		cmp	r0, r2
 2722 0006 02D0     		beq	.L322
 2723 0008 B0F1804F 		cmp	r0, #1073741824
 2724 000c 03D1     		bne	.L323
 2725              	.L322:
 2726 000e 23F07003 		bic	r3, r3, #112
 2727 0012 4A68     		ldr	r2, [r1, #4]
 2728 0014 1343     		orrs	r3, r3, r2
 2729              	.L323:
 2730 0016 174A     		ldr	r2, .L328
 2731 0018 9042     		cmp	r0, r2
 2732 001a 0AD0     		beq	.L324
 2733 001c B0F1804F 		cmp	r0, #1073741824
 2734 0020 07D0     		beq	.L324
 2735 0022 02F5C052 		add	r2, r2, #6144
 2736 0026 9042     		cmp	r0, r2
 2737 0028 03D0     		beq	.L324
 2738 002a 02F58062 		add	r2, r2, #1024
 2739 002e 9042     		cmp	r0, r2
 2740 0030 03D1     		bne	.L325
 2741              	.L324:
 2742 0032 23F44073 		bic	r3, r3, #768
 2743 0036 CA68     		ldr	r2, [r1, #12]
 2744 0038 1343     		orrs	r3, r3, r2
 2745              	.L325:
 2746 003a 23F08003 		bic	r3, r3, #128
 2747 003e 4A69     		ldr	r2, [r1, #20]
 2748 0040 1343     		orrs	r3, r3, r2
 2749 0042 8A68     		ldr	r2, [r1, #8]
 2750 0044 C262     		str	r2, [r0, #44]
 2751 0046 0A68     		ldr	r2, [r1]
 2752 0048 8262     		str	r2, [r0, #40]
 2753 004a 0A4A     		ldr	r2, .L328
 2754 004c 9042     		cmp	r0, r2
 2755 004e 07D0     		beq	.L326
 2756 0050 02F5C052 		add	r2, r2, #6144
 2757 0054 9042     		cmp	r0, r2
 2758 0056 03D0     		beq	.L326
 2759 0058 02F58062 		add	r2, r2, #1024
 2760 005c 9042     		cmp	r0, r2
 2761 005e 01D1     		bne	.L327
 2762              	.L326:
 2763 0060 0A69     		ldr	r2, [r1, #16]
 2764 0062 0263     		str	r2, [r0, #48]
 2765              	.L327:
 2766 0064 0268     		ldr	r2, [r0]
 2767 0066 42F00402 		orr	r2, r2, #4
 2768 006a 0260     		str	r2, [r0]
 2769 006c 0122     		movs	r2, #1
ARM GAS  C:\Users\Nathan\AppData\Local\Temp\ccPdMrK0.s 			page 47


 2770 006e 4261     		str	r2, [r0, #20]
 2771 0070 0360     		str	r3, [r0]
 2772 0072 7047     		bx	lr
 2773              	.L329:
 2774              		.align	2
 2775              	.L328:
 2776 0074 002C0140 		.word	1073818624
 2778              		.section	.text.HAL_TIM_Base_Init,"ax",%progbits
 2779              		.align	1
 2780              		.global	HAL_TIM_Base_Init
 2781              		.syntax unified
 2782              		.thumb
 2783              		.thumb_func
 2785              	HAL_TIM_Base_Init:
 2786              		@ args = 0, pretend = 0, frame = 0
 2787              		@ frame_needed = 0, uses_anonymous_args = 0
 2788 0000 60B3     		cbz	r0, .L333
 2789 0002 10B5     		push	{r4, lr}
 2790 0004 0446     		mov	r4, r0
 2791 0006 90F83D30 		ldrb	r3, [r0, #61]	@ zero_extendqisi2
 2792 000a 13B3     		cbz	r3, .L338
 2793              	.L332:
 2794 000c 0223     		movs	r3, #2
 2795 000e 84F83D30 		strb	r3, [r4, #61]
 2796 0012 2146     		mov	r1, r4
 2797 0014 51F8040B 		ldr	r0, [r1], #4
 2798 0018 FFF7FEFF 		bl	TIM_Base_SetConfig
 2799 001c 0123     		movs	r3, #1
 2800 001e 84F84830 		strb	r3, [r4, #72]
 2801 0022 84F83E30 		strb	r3, [r4, #62]
 2802 0026 84F83F30 		strb	r3, [r4, #63]
 2803 002a 84F84030 		strb	r3, [r4, #64]
 2804 002e 84F84130 		strb	r3, [r4, #65]
 2805 0032 84F84230 		strb	r3, [r4, #66]
 2806 0036 84F84330 		strb	r3, [r4, #67]
 2807 003a 84F84430 		strb	r3, [r4, #68]
 2808 003e 84F84530 		strb	r3, [r4, #69]
 2809 0042 84F84630 		strb	r3, [r4, #70]
 2810 0046 84F84730 		strb	r3, [r4, #71]
 2811 004a 84F83D30 		strb	r3, [r4, #61]
 2812 004e 0020     		movs	r0, #0
 2813 0050 10BD     		pop	{r4, pc}
 2814              	.L338:
 2815 0052 80F83C30 		strb	r3, [r0, #60]
 2816 0056 FFF7FEFF 		bl	HAL_TIM_Base_MspInit
 2817 005a D7E7     		b	.L332
 2818              	.L333:
 2819 005c 0120     		movs	r0, #1
 2820 005e 7047     		bx	lr
 2822              		.section	.text.HAL_TIM_OC_Init,"ax",%progbits
 2823              		.align	1
 2824              		.global	HAL_TIM_OC_Init
 2825              		.syntax unified
 2826              		.thumb
 2827              		.thumb_func
 2829              	HAL_TIM_OC_Init:
 2830              		@ args = 0, pretend = 0, frame = 0
ARM GAS  C:\Users\Nathan\AppData\Local\Temp\ccPdMrK0.s 			page 48


 2831              		@ frame_needed = 0, uses_anonymous_args = 0
 2832 0000 60B3     		cbz	r0, .L342
 2833 0002 10B5     		push	{r4, lr}
 2834 0004 0446     		mov	r4, r0
 2835 0006 90F83D30 		ldrb	r3, [r0, #61]	@ zero_extendqisi2
 2836 000a 13B3     		cbz	r3, .L347
 2837              	.L341:
 2838 000c 0223     		movs	r3, #2
 2839 000e 84F83D30 		strb	r3, [r4, #61]
 2840 0012 2146     		mov	r1, r4
 2841 0014 51F8040B 		ldr	r0, [r1], #4
 2842 0018 FFF7FEFF 		bl	TIM_Base_SetConfig
 2843 001c 0123     		movs	r3, #1
 2844 001e 84F84830 		strb	r3, [r4, #72]
 2845 0022 84F83E30 		strb	r3, [r4, #62]
 2846 0026 84F83F30 		strb	r3, [r4, #63]
 2847 002a 84F84030 		strb	r3, [r4, #64]
 2848 002e 84F84130 		strb	r3, [r4, #65]
 2849 0032 84F84230 		strb	r3, [r4, #66]
 2850 0036 84F84330 		strb	r3, [r4, #67]
 2851 003a 84F84430 		strb	r3, [r4, #68]
 2852 003e 84F84530 		strb	r3, [r4, #69]
 2853 0042 84F84630 		strb	r3, [r4, #70]
 2854 0046 84F84730 		strb	r3, [r4, #71]
 2855 004a 84F83D30 		strb	r3, [r4, #61]
 2856 004e 0020     		movs	r0, #0
 2857 0050 10BD     		pop	{r4, pc}
 2858              	.L347:
 2859 0052 80F83C30 		strb	r3, [r0, #60]
 2860 0056 FFF7FEFF 		bl	HAL_TIM_OC_MspInit
 2861 005a D7E7     		b	.L341
 2862              	.L342:
 2863 005c 0120     		movs	r0, #1
 2864 005e 7047     		bx	lr
 2866              		.section	.text.HAL_TIM_PWM_Init,"ax",%progbits
 2867              		.align	1
 2868              		.global	HAL_TIM_PWM_Init
 2869              		.syntax unified
 2870              		.thumb
 2871              		.thumb_func
 2873              	HAL_TIM_PWM_Init:
 2874              		@ args = 0, pretend = 0, frame = 0
 2875              		@ frame_needed = 0, uses_anonymous_args = 0
 2876 0000 60B3     		cbz	r0, .L351
 2877 0002 10B5     		push	{r4, lr}
 2878 0004 0446     		mov	r4, r0
 2879 0006 90F83D30 		ldrb	r3, [r0, #61]	@ zero_extendqisi2
 2880 000a 13B3     		cbz	r3, .L356
 2881              	.L350:
 2882 000c 0223     		movs	r3, #2
 2883 000e 84F83D30 		strb	r3, [r4, #61]
 2884 0012 2146     		mov	r1, r4
 2885 0014 51F8040B 		ldr	r0, [r1], #4
 2886 0018 FFF7FEFF 		bl	TIM_Base_SetConfig
 2887 001c 0123     		movs	r3, #1
 2888 001e 84F84830 		strb	r3, [r4, #72]
 2889 0022 84F83E30 		strb	r3, [r4, #62]
ARM GAS  C:\Users\Nathan\AppData\Local\Temp\ccPdMrK0.s 			page 49


 2890 0026 84F83F30 		strb	r3, [r4, #63]
 2891 002a 84F84030 		strb	r3, [r4, #64]
 2892 002e 84F84130 		strb	r3, [r4, #65]
 2893 0032 84F84230 		strb	r3, [r4, #66]
 2894 0036 84F84330 		strb	r3, [r4, #67]
 2895 003a 84F84430 		strb	r3, [r4, #68]
 2896 003e 84F84530 		strb	r3, [r4, #69]
 2897 0042 84F84630 		strb	r3, [r4, #70]
 2898 0046 84F84730 		strb	r3, [r4, #71]
 2899 004a 84F83D30 		strb	r3, [r4, #61]
 2900 004e 0020     		movs	r0, #0
 2901 0050 10BD     		pop	{r4, pc}
 2902              	.L356:
 2903 0052 80F83C30 		strb	r3, [r0, #60]
 2904 0056 FFF7FEFF 		bl	HAL_TIM_PWM_MspInit
 2905 005a D7E7     		b	.L350
 2906              	.L351:
 2907 005c 0120     		movs	r0, #1
 2908 005e 7047     		bx	lr
 2910              		.section	.text.HAL_TIM_IC_Init,"ax",%progbits
 2911              		.align	1
 2912              		.global	HAL_TIM_IC_Init
 2913              		.syntax unified
 2914              		.thumb
 2915              		.thumb_func
 2917              	HAL_TIM_IC_Init:
 2918              		@ args = 0, pretend = 0, frame = 0
 2919              		@ frame_needed = 0, uses_anonymous_args = 0
 2920 0000 60B3     		cbz	r0, .L360
 2921 0002 10B5     		push	{r4, lr}
 2922 0004 0446     		mov	r4, r0
 2923 0006 90F83D30 		ldrb	r3, [r0, #61]	@ zero_extendqisi2
 2924 000a 13B3     		cbz	r3, .L365
 2925              	.L359:
 2926 000c 0223     		movs	r3, #2
 2927 000e 84F83D30 		strb	r3, [r4, #61]
 2928 0012 2146     		mov	r1, r4
 2929 0014 51F8040B 		ldr	r0, [r1], #4
 2930 0018 FFF7FEFF 		bl	TIM_Base_SetConfig
 2931 001c 0123     		movs	r3, #1
 2932 001e 84F84830 		strb	r3, [r4, #72]
 2933 0022 84F83E30 		strb	r3, [r4, #62]
 2934 0026 84F83F30 		strb	r3, [r4, #63]
 2935 002a 84F84030 		strb	r3, [r4, #64]
 2936 002e 84F84130 		strb	r3, [r4, #65]
 2937 0032 84F84230 		strb	r3, [r4, #66]
 2938 0036 84F84330 		strb	r3, [r4, #67]
 2939 003a 84F84430 		strb	r3, [r4, #68]
 2940 003e 84F84530 		strb	r3, [r4, #69]
 2941 0042 84F84630 		strb	r3, [r4, #70]
 2942 0046 84F84730 		strb	r3, [r4, #71]
 2943 004a 84F83D30 		strb	r3, [r4, #61]
 2944 004e 0020     		movs	r0, #0
 2945 0050 10BD     		pop	{r4, pc}
 2946              	.L365:
 2947 0052 80F83C30 		strb	r3, [r0, #60]
 2948 0056 FFF7FEFF 		bl	HAL_TIM_IC_MspInit
ARM GAS  C:\Users\Nathan\AppData\Local\Temp\ccPdMrK0.s 			page 50


 2949 005a D7E7     		b	.L359
 2950              	.L360:
 2951 005c 0120     		movs	r0, #1
 2952 005e 7047     		bx	lr
 2954              		.section	.text.HAL_TIM_OnePulse_Init,"ax",%progbits
 2955              		.align	1
 2956              		.global	HAL_TIM_OnePulse_Init
 2957              		.syntax unified
 2958              		.thumb
 2959              		.thumb_func
 2961              	HAL_TIM_OnePulse_Init:
 2962              		@ args = 0, pretend = 0, frame = 0
 2963              		@ frame_needed = 0, uses_anonymous_args = 0
 2964 0000 50B3     		cbz	r0, .L369
 2965 0002 38B5     		push	{r3, r4, r5, lr}
 2966 0004 0D46     		mov	r5, r1
 2967 0006 0446     		mov	r4, r0
 2968 0008 90F83D30 		ldrb	r3, [r0, #61]	@ zero_extendqisi2
 2969 000c FBB1     		cbz	r3, .L374
 2970              	.L368:
 2971 000e 0223     		movs	r3, #2
 2972 0010 84F83D30 		strb	r3, [r4, #61]
 2973 0014 2146     		mov	r1, r4
 2974 0016 51F8040B 		ldr	r0, [r1], #4
 2975 001a FFF7FEFF 		bl	TIM_Base_SetConfig
 2976 001e 2268     		ldr	r2, [r4]
 2977 0020 1368     		ldr	r3, [r2]
 2978 0022 23F00803 		bic	r3, r3, #8
 2979 0026 1360     		str	r3, [r2]
 2980 0028 2268     		ldr	r2, [r4]
 2981 002a 1368     		ldr	r3, [r2]
 2982 002c 2B43     		orrs	r3, r3, r5
 2983 002e 1360     		str	r3, [r2]
 2984 0030 0123     		movs	r3, #1
 2985 0032 84F84830 		strb	r3, [r4, #72]
 2986 0036 84F83E30 		strb	r3, [r4, #62]
 2987 003a 84F83F30 		strb	r3, [r4, #63]
 2988 003e 84F84430 		strb	r3, [r4, #68]
 2989 0042 84F84530 		strb	r3, [r4, #69]
 2990 0046 84F83D30 		strb	r3, [r4, #61]
 2991 004a 0020     		movs	r0, #0
 2992 004c 38BD     		pop	{r3, r4, r5, pc}
 2993              	.L374:
 2994 004e 80F83C30 		strb	r3, [r0, #60]
 2995 0052 FFF7FEFF 		bl	HAL_TIM_OnePulse_MspInit
 2996 0056 DAE7     		b	.L368
 2997              	.L369:
 2998 0058 0120     		movs	r0, #1
 2999 005a 7047     		bx	lr
 3001              		.section	.text.HAL_TIM_Encoder_Init,"ax",%progbits
 3002              		.align	1
 3003              		.global	HAL_TIM_Encoder_Init
 3004              		.syntax unified
 3005              		.thumb
 3006              		.thumb_func
 3008              	HAL_TIM_Encoder_Init:
 3009              		@ args = 0, pretend = 0, frame = 0
ARM GAS  C:\Users\Nathan\AppData\Local\Temp\ccPdMrK0.s 			page 51


 3010              		@ frame_needed = 0, uses_anonymous_args = 0
 3011 0000 0028     		cmp	r0, #0
 3012 0002 53D0     		beq	.L378
 3013 0004 F8B5     		push	{r3, r4, r5, r6, r7, lr}
 3014 0006 0D46     		mov	r5, r1
 3015 0008 0446     		mov	r4, r0
 3016 000a 90F83D30 		ldrb	r3, [r0, #61]	@ zero_extendqisi2
 3017 000e 002B     		cmp	r3, #0
 3018 0010 47D0     		beq	.L383
 3019              	.L377:
 3020 0012 0223     		movs	r3, #2
 3021 0014 84F83D30 		strb	r3, [r4, #61]
 3022 0018 2268     		ldr	r2, [r4]
 3023 001a 9368     		ldr	r3, [r2, #8]
 3024 001c 23F4A033 		bic	r3, r3, #81920
 3025 0020 23F00703 		bic	r3, r3, #7
 3026 0024 9360     		str	r3, [r2, #8]
 3027 0026 2146     		mov	r1, r4
 3028 0028 51F8040B 		ldr	r0, [r1], #4
 3029 002c FFF7FEFF 		bl	TIM_Base_SetConfig
 3030 0030 2168     		ldr	r1, [r4]
 3031 0032 8B68     		ldr	r3, [r1, #8]
 3032 0034 8A69     		ldr	r2, [r1, #24]
 3033 0036 0E6A     		ldr	r6, [r1, #32]
 3034 0038 2868     		ldr	r0, [r5]
 3035 003a 1843     		orrs	r0, r0, r3
 3036 003c 22F44072 		bic	r2, r2, #768
 3037 0040 22F00302 		bic	r2, r2, #3
 3038 0044 AB68     		ldr	r3, [r5, #8]
 3039 0046 AF69     		ldr	r7, [r5, #24]
 3040 0048 43EA0723 		orr	r3, r3, r7, lsl #8
 3041 004c 1343     		orrs	r3, r3, r2
 3042 004e 23F47C43 		bic	r3, r3, #64512
 3043 0052 23F0FC03 		bic	r3, r3, #252
 3044 0056 EA68     		ldr	r2, [r5, #12]
 3045 0058 EF69     		ldr	r7, [r5, #28]
 3046 005a 42EA0722 		orr	r2, r2, r7, lsl #8
 3047 005e 1A43     		orrs	r2, r2, r3
 3048 0060 2B6A     		ldr	r3, [r5, #32]
 3049 0062 1B03     		lsls	r3, r3, #12
 3050 0064 2F69     		ldr	r7, [r5, #16]
 3051 0066 43EA0713 		orr	r3, r3, r7, lsl #4
 3052 006a 1343     		orrs	r3, r3, r2
 3053 006c 26F0AA06 		bic	r6, r6, #170
 3054 0070 6A68     		ldr	r2, [r5, #4]
 3055 0072 6D69     		ldr	r5, [r5, #20]
 3056 0074 42EA0512 		orr	r2, r2, r5, lsl #4
 3057 0078 3243     		orrs	r2, r2, r6
 3058 007a 8860     		str	r0, [r1, #8]
 3059 007c 2168     		ldr	r1, [r4]
 3060 007e 8B61     		str	r3, [r1, #24]
 3061 0080 2368     		ldr	r3, [r4]
 3062 0082 1A62     		str	r2, [r3, #32]
 3063 0084 0123     		movs	r3, #1
 3064 0086 84F84830 		strb	r3, [r4, #72]
 3065 008a 84F83E30 		strb	r3, [r4, #62]
 3066 008e 84F83F30 		strb	r3, [r4, #63]
ARM GAS  C:\Users\Nathan\AppData\Local\Temp\ccPdMrK0.s 			page 52


 3067 0092 84F84430 		strb	r3, [r4, #68]
 3068 0096 84F84530 		strb	r3, [r4, #69]
 3069 009a 84F83D30 		strb	r3, [r4, #61]
 3070 009e 0020     		movs	r0, #0
 3071 00a0 F8BD     		pop	{r3, r4, r5, r6, r7, pc}
 3072              	.L383:
 3073 00a2 80F83C30 		strb	r3, [r0, #60]
 3074 00a6 FFF7FEFF 		bl	HAL_TIM_Encoder_MspInit
 3075 00aa B2E7     		b	.L377
 3076              	.L378:
 3077 00ac 0120     		movs	r0, #1
 3078 00ae 7047     		bx	lr
 3080              		.section	.text.TIM_OC2_SetConfig,"ax",%progbits
 3081              		.align	1
 3082              		.global	TIM_OC2_SetConfig
 3083              		.syntax unified
 3084              		.thumb
 3085              		.thumb_func
 3087              	TIM_OC2_SetConfig:
 3088              		@ args = 0, pretend = 0, frame = 0
 3089              		@ frame_needed = 0, uses_anonymous_args = 0
 3090              		@ link register save eliminated.
 3091 0000 30B4     		push	{r4, r5}
 3092 0002 036A     		ldr	r3, [r0, #32]
 3093 0004 026A     		ldr	r2, [r0, #32]
 3094 0006 22F01002 		bic	r2, r2, #16
 3095 000a 0262     		str	r2, [r0, #32]
 3096 000c 4468     		ldr	r4, [r0, #4]
 3097 000e 8269     		ldr	r2, [r0, #24]
 3098 0010 22F08072 		bic	r2, r2, #16777216
 3099 0014 22F4E642 		bic	r2, r2, #29440
 3100 0018 0D68     		ldr	r5, [r1]
 3101 001a 42EA0522 		orr	r2, r2, r5, lsl #8
 3102 001e 23F02003 		bic	r3, r3, #32
 3103 0022 8D68     		ldr	r5, [r1, #8]
 3104 0024 43EA0513 		orr	r3, r3, r5, lsl #4
 3105 0028 104D     		ldr	r5, .L390
 3106 002a A842     		cmp	r0, r5
 3107 002c 07D0     		beq	.L389
 3108 002e 104D     		ldr	r5, .L390+4
 3109 0030 A842     		cmp	r0, r5
 3110 0032 0BD0     		beq	.L386
 3111 0034 05F58065 		add	r5, r5, #1024
 3112 0038 A842     		cmp	r0, r5
 3113 003a 0FD1     		bne	.L387
 3114 003c 06E0     		b	.L386
 3115              	.L389:
 3116 003e 23F08003 		bic	r3, r3, #128
 3117 0042 CD68     		ldr	r5, [r1, #12]
 3118 0044 43EA0513 		orr	r3, r3, r5, lsl #4
 3119 0048 23F04003 		bic	r3, r3, #64
 3120              	.L386:
 3121 004c 24F44064 		bic	r4, r4, #3072
 3122 0050 4D69     		ldr	r5, [r1, #20]
 3123 0052 44EA8504 		orr	r4, r4, r5, lsl #2
 3124 0056 8D69     		ldr	r5, [r1, #24]
 3125 0058 44EA8504 		orr	r4, r4, r5, lsl #2
ARM GAS  C:\Users\Nathan\AppData\Local\Temp\ccPdMrK0.s 			page 53


 3126              	.L387:
 3127 005c 4460     		str	r4, [r0, #4]
 3128 005e 8261     		str	r2, [r0, #24]
 3129 0060 4A68     		ldr	r2, [r1, #4]
 3130 0062 8263     		str	r2, [r0, #56]
 3131 0064 0362     		str	r3, [r0, #32]
 3132 0066 30BC     		pop	{r4, r5}
 3133 0068 7047     		bx	lr
 3134              	.L391:
 3135 006a 00BF     		.align	2
 3136              	.L390:
 3137 006c 002C0140 		.word	1073818624
 3138 0070 00440140 		.word	1073824768
 3140              		.section	.text.HAL_TIM_OC_ConfigChannel,"ax",%progbits
 3141              		.align	1
 3142              		.global	HAL_TIM_OC_ConfigChannel
 3143              		.syntax unified
 3144              		.thumb
 3145              		.thumb_func
 3147              	HAL_TIM_OC_ConfigChannel:
 3148              		@ args = 0, pretend = 0, frame = 0
 3149              		@ frame_needed = 0, uses_anonymous_args = 0
 3150 0000 90F83C30 		ldrb	r3, [r0, #60]	@ zero_extendqisi2
 3151 0004 012B     		cmp	r3, #1
 3152 0006 36D0     		beq	.L402
 3153 0008 10B5     		push	{r4, lr}
 3154 000a 0446     		mov	r4, r0
 3155 000c 0123     		movs	r3, #1
 3156 000e 80F83C30 		strb	r3, [r0, #60]
 3157 0012 142A     		cmp	r2, #20
 3158 0014 2AD8     		bhi	.L403
 3159 0016 DFE802F0 		tbb	[pc, r2]
 3160              	.L396:
 3161 001a 0B       		.byte	(.L401-.L396)/2
 3162 001b 29       		.byte	(.L403-.L396)/2
 3163 001c 29       		.byte	(.L403-.L396)/2
 3164 001d 29       		.byte	(.L403-.L396)/2
 3165 001e 10       		.byte	(.L400-.L396)/2
 3166 001f 29       		.byte	(.L403-.L396)/2
 3167 0020 29       		.byte	(.L403-.L396)/2
 3168 0021 29       		.byte	(.L403-.L396)/2
 3169 0022 15       		.byte	(.L399-.L396)/2
 3170 0023 29       		.byte	(.L403-.L396)/2
 3171 0024 29       		.byte	(.L403-.L396)/2
 3172 0025 29       		.byte	(.L403-.L396)/2
 3173 0026 1A       		.byte	(.L398-.L396)/2
 3174 0027 29       		.byte	(.L403-.L396)/2
 3175 0028 29       		.byte	(.L403-.L396)/2
 3176 0029 29       		.byte	(.L403-.L396)/2
 3177 002a 1F       		.byte	(.L397-.L396)/2
 3178 002b 29       		.byte	(.L403-.L396)/2
 3179 002c 29       		.byte	(.L403-.L396)/2
 3180 002d 29       		.byte	(.L403-.L396)/2
 3181 002e 24       		.byte	(.L395-.L396)/2
 3182 002f 00       		.p2align 1
 3183              	.L401:
 3184 0030 0068     		ldr	r0, [r0]
ARM GAS  C:\Users\Nathan\AppData\Local\Temp\ccPdMrK0.s 			page 54


 3185 0032 FFF7FEFF 		bl	TIM_OC1_SetConfig
 3186 0036 0020     		movs	r0, #0
 3187 0038 19E0     		b	.L394
 3188              	.L400:
 3189 003a 0068     		ldr	r0, [r0]
 3190 003c FFF7FEFF 		bl	TIM_OC2_SetConfig
 3191 0040 0020     		movs	r0, #0
 3192 0042 14E0     		b	.L394
 3193              	.L399:
 3194 0044 0068     		ldr	r0, [r0]
 3195 0046 FFF7FEFF 		bl	TIM_OC3_SetConfig
 3196 004a 0020     		movs	r0, #0
 3197 004c 0FE0     		b	.L394
 3198              	.L398:
 3199 004e 0068     		ldr	r0, [r0]
 3200 0050 FFF7FEFF 		bl	TIM_OC4_SetConfig
 3201 0054 0020     		movs	r0, #0
 3202 0056 0AE0     		b	.L394
 3203              	.L397:
 3204 0058 0068     		ldr	r0, [r0]
 3205 005a FFF7FEFF 		bl	TIM_OC5_SetConfig
 3206 005e 0020     		movs	r0, #0
 3207 0060 05E0     		b	.L394
 3208              	.L395:
 3209 0062 0068     		ldr	r0, [r0]
 3210 0064 FFF7FEFF 		bl	TIM_OC6_SetConfig
 3211 0068 0020     		movs	r0, #0
 3212 006a 00E0     		b	.L394
 3213              	.L403:
 3214 006c 0120     		movs	r0, #1
 3215              	.L394:
 3216 006e 0023     		movs	r3, #0
 3217 0070 84F83C30 		strb	r3, [r4, #60]
 3218 0074 10BD     		pop	{r4, pc}
 3219              	.L402:
 3220 0076 0220     		movs	r0, #2
 3221 0078 7047     		bx	lr
 3223              		.section	.text.HAL_TIM_PWM_ConfigChannel,"ax",%progbits
 3224              		.align	1
 3225              		.global	HAL_TIM_PWM_ConfigChannel
 3226              		.syntax unified
 3227              		.thumb
 3228              		.thumb_func
 3230              	HAL_TIM_PWM_ConfigChannel:
 3231              		@ args = 0, pretend = 0, frame = 0
 3232              		@ frame_needed = 0, uses_anonymous_args = 0
 3233 0000 38B5     		push	{r3, r4, r5, lr}
 3234 0002 90F83C30 		ldrb	r3, [r0, #60]	@ zero_extendqisi2
 3235 0006 012B     		cmp	r3, #1
 3236 0008 00F09580 		beq	.L418
 3237 000c 0446     		mov	r4, r0
 3238 000e 0D46     		mov	r5, r1
 3239 0010 0123     		movs	r3, #1
 3240 0012 80F83C30 		strb	r3, [r0, #60]
 3241 0016 142A     		cmp	r2, #20
 3242 0018 00F28880 		bhi	.L419
 3243 001c DFE802F0 		tbb	[pc, r2]
ARM GAS  C:\Users\Nathan\AppData\Local\Temp\ccPdMrK0.s 			page 55


 3244              	.L412:
 3245 0020 0B       		.byte	(.L417-.L412)/2
 3246 0021 86       		.byte	(.L419-.L412)/2
 3247 0022 86       		.byte	(.L419-.L412)/2
 3248 0023 86       		.byte	(.L419-.L412)/2
 3249 0024 1F       		.byte	(.L416-.L412)/2
 3250 0025 86       		.byte	(.L419-.L412)/2
 3251 0026 86       		.byte	(.L419-.L412)/2
 3252 0027 86       		.byte	(.L419-.L412)/2
 3253 0028 34       		.byte	(.L415-.L412)/2
 3254 0029 86       		.byte	(.L419-.L412)/2
 3255 002a 86       		.byte	(.L419-.L412)/2
 3256 002b 86       		.byte	(.L419-.L412)/2
 3257 002c 48       		.byte	(.L414-.L412)/2
 3258 002d 86       		.byte	(.L419-.L412)/2
 3259 002e 86       		.byte	(.L419-.L412)/2
 3260 002f 86       		.byte	(.L419-.L412)/2
 3261 0030 5D       		.byte	(.L413-.L412)/2
 3262 0031 86       		.byte	(.L419-.L412)/2
 3263 0032 86       		.byte	(.L419-.L412)/2
 3264 0033 86       		.byte	(.L419-.L412)/2
 3265 0034 71       		.byte	(.L411-.L412)/2
 3266 0035 00       		.p2align 1
 3267              	.L417:
 3268 0036 0068     		ldr	r0, [r0]
 3269 0038 FFF7FEFF 		bl	TIM_OC1_SetConfig
 3270 003c 2268     		ldr	r2, [r4]
 3271 003e 9369     		ldr	r3, [r2, #24]
 3272 0040 43F00803 		orr	r3, r3, #8
 3273 0044 9361     		str	r3, [r2, #24]
 3274 0046 2268     		ldr	r2, [r4]
 3275 0048 9369     		ldr	r3, [r2, #24]
 3276 004a 23F00403 		bic	r3, r3, #4
 3277 004e 9361     		str	r3, [r2, #24]
 3278 0050 2268     		ldr	r2, [r4]
 3279 0052 9369     		ldr	r3, [r2, #24]
 3280 0054 2969     		ldr	r1, [r5, #16]
 3281 0056 0B43     		orrs	r3, r3, r1
 3282 0058 9361     		str	r3, [r2, #24]
 3283 005a 0020     		movs	r0, #0
 3284 005c 67E0     		b	.L410
 3285              	.L416:
 3286 005e 0068     		ldr	r0, [r0]
 3287 0060 FFF7FEFF 		bl	TIM_OC2_SetConfig
 3288 0064 2268     		ldr	r2, [r4]
 3289 0066 9369     		ldr	r3, [r2, #24]
 3290 0068 43F40063 		orr	r3, r3, #2048
 3291 006c 9361     		str	r3, [r2, #24]
 3292 006e 2268     		ldr	r2, [r4]
 3293 0070 9369     		ldr	r3, [r2, #24]
 3294 0072 23F48063 		bic	r3, r3, #1024
 3295 0076 9361     		str	r3, [r2, #24]
 3296 0078 2268     		ldr	r2, [r4]
 3297 007a 9369     		ldr	r3, [r2, #24]
 3298 007c 2969     		ldr	r1, [r5, #16]
 3299 007e 43EA0123 		orr	r3, r3, r1, lsl #8
 3300 0082 9361     		str	r3, [r2, #24]
ARM GAS  C:\Users\Nathan\AppData\Local\Temp\ccPdMrK0.s 			page 56


 3301 0084 0020     		movs	r0, #0
 3302 0086 52E0     		b	.L410
 3303              	.L415:
 3304 0088 0068     		ldr	r0, [r0]
 3305 008a FFF7FEFF 		bl	TIM_OC3_SetConfig
 3306 008e 2268     		ldr	r2, [r4]
 3307 0090 D369     		ldr	r3, [r2, #28]
 3308 0092 43F00803 		orr	r3, r3, #8
 3309 0096 D361     		str	r3, [r2, #28]
 3310 0098 2268     		ldr	r2, [r4]
 3311 009a D369     		ldr	r3, [r2, #28]
 3312 009c 23F00403 		bic	r3, r3, #4
 3313 00a0 D361     		str	r3, [r2, #28]
 3314 00a2 2268     		ldr	r2, [r4]
 3315 00a4 D369     		ldr	r3, [r2, #28]
 3316 00a6 2969     		ldr	r1, [r5, #16]
 3317 00a8 0B43     		orrs	r3, r3, r1
 3318 00aa D361     		str	r3, [r2, #28]
 3319 00ac 0020     		movs	r0, #0
 3320 00ae 3EE0     		b	.L410
 3321              	.L414:
 3322 00b0 0068     		ldr	r0, [r0]
 3323 00b2 FFF7FEFF 		bl	TIM_OC4_SetConfig
 3324 00b6 2268     		ldr	r2, [r4]
 3325 00b8 D369     		ldr	r3, [r2, #28]
 3326 00ba 43F40063 		orr	r3, r3, #2048
 3327 00be D361     		str	r3, [r2, #28]
 3328 00c0 2268     		ldr	r2, [r4]
 3329 00c2 D369     		ldr	r3, [r2, #28]
 3330 00c4 23F48063 		bic	r3, r3, #1024
 3331 00c8 D361     		str	r3, [r2, #28]
 3332 00ca 2268     		ldr	r2, [r4]
 3333 00cc D369     		ldr	r3, [r2, #28]
 3334 00ce 2969     		ldr	r1, [r5, #16]
 3335 00d0 43EA0123 		orr	r3, r3, r1, lsl #8
 3336 00d4 D361     		str	r3, [r2, #28]
 3337 00d6 0020     		movs	r0, #0
 3338 00d8 29E0     		b	.L410
 3339              	.L413:
 3340 00da 0068     		ldr	r0, [r0]
 3341 00dc FFF7FEFF 		bl	TIM_OC5_SetConfig
 3342 00e0 2268     		ldr	r2, [r4]
 3343 00e2 536D     		ldr	r3, [r2, #84]
 3344 00e4 43F00803 		orr	r3, r3, #8
 3345 00e8 5365     		str	r3, [r2, #84]
 3346 00ea 2268     		ldr	r2, [r4]
 3347 00ec 536D     		ldr	r3, [r2, #84]
 3348 00ee 23F00403 		bic	r3, r3, #4
 3349 00f2 5365     		str	r3, [r2, #84]
 3350 00f4 2268     		ldr	r2, [r4]
 3351 00f6 536D     		ldr	r3, [r2, #84]
 3352 00f8 2969     		ldr	r1, [r5, #16]
 3353 00fa 0B43     		orrs	r3, r3, r1
 3354 00fc 5365     		str	r3, [r2, #84]
 3355 00fe 0020     		movs	r0, #0
 3356 0100 15E0     		b	.L410
 3357              	.L411:
ARM GAS  C:\Users\Nathan\AppData\Local\Temp\ccPdMrK0.s 			page 57


 3358 0102 0068     		ldr	r0, [r0]
 3359 0104 FFF7FEFF 		bl	TIM_OC6_SetConfig
 3360 0108 2268     		ldr	r2, [r4]
 3361 010a 536D     		ldr	r3, [r2, #84]
 3362 010c 43F40063 		orr	r3, r3, #2048
 3363 0110 5365     		str	r3, [r2, #84]
 3364 0112 2268     		ldr	r2, [r4]
 3365 0114 536D     		ldr	r3, [r2, #84]
 3366 0116 23F48063 		bic	r3, r3, #1024
 3367 011a 5365     		str	r3, [r2, #84]
 3368 011c 2268     		ldr	r2, [r4]
 3369 011e 536D     		ldr	r3, [r2, #84]
 3370 0120 2969     		ldr	r1, [r5, #16]
 3371 0122 43EA0123 		orr	r3, r3, r1, lsl #8
 3372 0126 5365     		str	r3, [r2, #84]
 3373 0128 0020     		movs	r0, #0
 3374 012a 00E0     		b	.L410
 3375              	.L419:
 3376 012c 0120     		movs	r0, #1
 3377              	.L410:
 3378 012e 0023     		movs	r3, #0
 3379 0130 84F83C30 		strb	r3, [r4, #60]
 3380              	.L409:
 3381 0134 38BD     		pop	{r3, r4, r5, pc}
 3382              	.L418:
 3383 0136 0220     		movs	r0, #2
 3384 0138 FCE7     		b	.L409
 3386              		.section	.text.TIM_TI1_SetConfig,"ax",%progbits
 3387              		.align	1
 3388              		.global	TIM_TI1_SetConfig
 3389              		.syntax unified
 3390              		.thumb
 3391              		.thumb_func
 3393              	TIM_TI1_SetConfig:
 3394              		@ args = 0, pretend = 0, frame = 0
 3395              		@ frame_needed = 0, uses_anonymous_args = 0
 3396              		@ link register save eliminated.
 3397 0000 70B4     		push	{r4, r5, r6}
 3398 0002 056A     		ldr	r5, [r0, #32]
 3399 0004 046A     		ldr	r4, [r0, #32]
 3400 0006 24F00104 		bic	r4, r4, #1
 3401 000a 0462     		str	r4, [r0, #32]
 3402 000c 8469     		ldr	r4, [r0, #24]
 3403 000e 0D4E     		ldr	r6, .L425
 3404 0010 B042     		cmp	r0, r6
 3405 0012 05D0     		beq	.L422
 3406 0014 B0F1804F 		cmp	r0, #1073741824
 3407 0018 02D0     		beq	.L422
 3408 001a 44F00102 		orr	r2, r4, #1
 3409 001e 02E0     		b	.L423
 3410              	.L422:
 3411 0020 24F00304 		bic	r4, r4, #3
 3412 0024 2243     		orrs	r2, r2, r4
 3413              	.L423:
 3414 0026 22F0F002 		bic	r2, r2, #240
 3415 002a 1B01     		lsls	r3, r3, #4
 3416 002c DBB2     		uxtb	r3, r3
ARM GAS  C:\Users\Nathan\AppData\Local\Temp\ccPdMrK0.s 			page 58


 3417 002e 1343     		orrs	r3, r3, r2
 3418 0030 25F00A02 		bic	r2, r5, #10
 3419 0034 01F00A01 		and	r1, r1, #10
 3420 0038 1143     		orrs	r1, r1, r2
 3421 003a 8361     		str	r3, [r0, #24]
 3422 003c 0162     		str	r1, [r0, #32]
 3423 003e 70BC     		pop	{r4, r5, r6}
 3424 0040 7047     		bx	lr
 3425              	.L426:
 3426 0042 00BF     		.align	2
 3427              	.L425:
 3428 0044 002C0140 		.word	1073818624
 3430              		.section	.text.HAL_TIM_IC_ConfigChannel,"ax",%progbits
 3431              		.align	1
 3432              		.global	HAL_TIM_IC_ConfigChannel
 3433              		.syntax unified
 3434              		.thumb
 3435              		.thumb_func
 3437              	HAL_TIM_IC_ConfigChannel:
 3438              		@ args = 0, pretend = 0, frame = 0
 3439              		@ frame_needed = 0, uses_anonymous_args = 0
 3440 0000 38B5     		push	{r3, r4, r5, lr}
 3441 0002 90F83C30 		ldrb	r3, [r0, #60]	@ zero_extendqisi2
 3442 0006 012B     		cmp	r3, #1
 3443 0008 5ED0     		beq	.L435
 3444 000a 0446     		mov	r4, r0
 3445 000c 0D46     		mov	r5, r1
 3446 000e 0123     		movs	r3, #1
 3447 0010 80F83C30 		strb	r3, [r0, #60]
 3448 0014 0C2A     		cmp	r2, #12
 3449 0016 52D8     		bhi	.L436
 3450 0018 DFE802F0 		tbb	[pc, r2]
 3451              	.L431:
 3452 001c 07       		.byte	(.L434-.L431)/2
 3453 001d 51       		.byte	(.L436-.L431)/2
 3454 001e 51       		.byte	(.L436-.L431)/2
 3455 001f 51       		.byte	(.L436-.L431)/2
 3456 0020 19       		.byte	(.L433-.L431)/2
 3457 0021 51       		.byte	(.L436-.L431)/2
 3458 0022 51       		.byte	(.L436-.L431)/2
 3459 0023 51       		.byte	(.L436-.L431)/2
 3460 0024 2C       		.byte	(.L432-.L431)/2
 3461 0025 51       		.byte	(.L436-.L431)/2
 3462 0026 51       		.byte	(.L436-.L431)/2
 3463 0027 51       		.byte	(.L436-.L431)/2
 3464 0028 3E       		.byte	(.L430-.L431)/2
 3465 0029 00       		.p2align 1
 3466              	.L434:
 3467 002a CB68     		ldr	r3, [r1, #12]
 3468 002c 4A68     		ldr	r2, [r1, #4]
 3469 002e 0968     		ldr	r1, [r1]
 3470 0030 0068     		ldr	r0, [r0]
 3471 0032 FFF7FEFF 		bl	TIM_TI1_SetConfig
 3472 0036 2268     		ldr	r2, [r4]
 3473 0038 9369     		ldr	r3, [r2, #24]
 3474 003a 23F00C03 		bic	r3, r3, #12
 3475 003e 9361     		str	r3, [r2, #24]
ARM GAS  C:\Users\Nathan\AppData\Local\Temp\ccPdMrK0.s 			page 59


 3476 0040 2268     		ldr	r2, [r4]
 3477 0042 9369     		ldr	r3, [r2, #24]
 3478 0044 A968     		ldr	r1, [r5, #8]
 3479 0046 0B43     		orrs	r3, r3, r1
 3480 0048 9361     		str	r3, [r2, #24]
 3481 004a 0020     		movs	r0, #0
 3482 004c 38E0     		b	.L429
 3483              	.L433:
 3484 004e CB68     		ldr	r3, [r1, #12]
 3485 0050 4A68     		ldr	r2, [r1, #4]
 3486 0052 0968     		ldr	r1, [r1]
 3487 0054 0068     		ldr	r0, [r0]
 3488 0056 FFF7FEFF 		bl	TIM_TI2_SetConfig
 3489 005a 2268     		ldr	r2, [r4]
 3490 005c 9369     		ldr	r3, [r2, #24]
 3491 005e 23F44063 		bic	r3, r3, #3072
 3492 0062 9361     		str	r3, [r2, #24]
 3493 0064 2268     		ldr	r2, [r4]
 3494 0066 9369     		ldr	r3, [r2, #24]
 3495 0068 A968     		ldr	r1, [r5, #8]
 3496 006a 43EA0123 		orr	r3, r3, r1, lsl #8
 3497 006e 9361     		str	r3, [r2, #24]
 3498 0070 0020     		movs	r0, #0
 3499 0072 25E0     		b	.L429
 3500              	.L432:
 3501 0074 CB68     		ldr	r3, [r1, #12]
 3502 0076 4A68     		ldr	r2, [r1, #4]
 3503 0078 0968     		ldr	r1, [r1]
 3504 007a 0068     		ldr	r0, [r0]
 3505 007c FFF7FEFF 		bl	TIM_TI3_SetConfig
 3506 0080 2268     		ldr	r2, [r4]
 3507 0082 D369     		ldr	r3, [r2, #28]
 3508 0084 23F00C03 		bic	r3, r3, #12
 3509 0088 D361     		str	r3, [r2, #28]
 3510 008a 2268     		ldr	r2, [r4]
 3511 008c D369     		ldr	r3, [r2, #28]
 3512 008e A968     		ldr	r1, [r5, #8]
 3513 0090 0B43     		orrs	r3, r3, r1
 3514 0092 D361     		str	r3, [r2, #28]
 3515 0094 0020     		movs	r0, #0
 3516 0096 13E0     		b	.L429
 3517              	.L430:
 3518 0098 CB68     		ldr	r3, [r1, #12]
 3519 009a 4A68     		ldr	r2, [r1, #4]
 3520 009c 0968     		ldr	r1, [r1]
 3521 009e 0068     		ldr	r0, [r0]
 3522 00a0 FFF7FEFF 		bl	TIM_TI4_SetConfig
 3523 00a4 2268     		ldr	r2, [r4]
 3524 00a6 D369     		ldr	r3, [r2, #28]
 3525 00a8 23F44063 		bic	r3, r3, #3072
 3526 00ac D361     		str	r3, [r2, #28]
 3527 00ae 2268     		ldr	r2, [r4]
 3528 00b0 D369     		ldr	r3, [r2, #28]
 3529 00b2 A968     		ldr	r1, [r5, #8]
 3530 00b4 43EA0123 		orr	r3, r3, r1, lsl #8
 3531 00b8 D361     		str	r3, [r2, #28]
 3532 00ba 0020     		movs	r0, #0
ARM GAS  C:\Users\Nathan\AppData\Local\Temp\ccPdMrK0.s 			page 60


 3533 00bc 00E0     		b	.L429
 3534              	.L436:
 3535 00be 0120     		movs	r0, #1
 3536              	.L429:
 3537 00c0 0023     		movs	r3, #0
 3538 00c2 84F83C30 		strb	r3, [r4, #60]
 3539              	.L428:
 3540 00c6 38BD     		pop	{r3, r4, r5, pc}
 3541              	.L435:
 3542 00c8 0220     		movs	r0, #2
 3543 00ca FCE7     		b	.L428
 3545              		.section	.text.HAL_TIM_OnePulse_ConfigChannel,"ax",%progbits
 3546              		.align	1
 3547              		.global	HAL_TIM_OnePulse_ConfigChannel
 3548              		.syntax unified
 3549              		.thumb
 3550              		.thumb_func
 3552              	HAL_TIM_OnePulse_ConfigChannel:
 3553              		@ args = 0, pretend = 0, frame = 32
 3554              		@ frame_needed = 0, uses_anonymous_args = 0
 3555 0000 9A42     		cmp	r2, r3
 3556 0002 7ED0     		beq	.L446
 3557 0004 70B5     		push	{r4, r5, r6, lr}
 3558 0006 88B0     		sub	sp, sp, #32
 3559 0008 0446     		mov	r4, r0
 3560 000a 0D46     		mov	r5, r1
 3561 000c 1E46     		mov	r6, r3
 3562 000e 90F83C30 		ldrb	r3, [r0, #60]	@ zero_extendqisi2
 3563 0012 012B     		cmp	r3, #1
 3564 0014 77D0     		beq	.L447
 3565 0016 0123     		movs	r3, #1
 3566 0018 80F83C30 		strb	r3, [r0, #60]
 3567 001c 0223     		movs	r3, #2
 3568 001e 80F83D30 		strb	r3, [r0, #61]
 3569 0022 0B68     		ldr	r3, [r1]
 3570 0024 0193     		str	r3, [sp, #4]
 3571 0026 4B68     		ldr	r3, [r1, #4]
 3572 0028 0293     		str	r3, [sp, #8]
 3573 002a 8B68     		ldr	r3, [r1, #8]
 3574 002c 0393     		str	r3, [sp, #12]
 3575 002e CB68     		ldr	r3, [r1, #12]
 3576 0030 0493     		str	r3, [sp, #16]
 3577 0032 0B69     		ldr	r3, [r1, #16]
 3578 0034 0693     		str	r3, [sp, #24]
 3579 0036 4B69     		ldr	r3, [r1, #20]
 3580 0038 0793     		str	r3, [sp, #28]
 3581 003a 52B1     		cbz	r2, .L440
 3582 003c 042A     		cmp	r2, #4
 3583 003e 11D0     		beq	.L441
 3584 0040 0120     		movs	r0, #1
 3585              	.L442:
 3586 0042 0123     		movs	r3, #1
 3587 0044 84F83D30 		strb	r3, [r4, #61]
 3588 0048 0023     		movs	r3, #0
 3589 004a 84F83C30 		strb	r3, [r4, #60]
 3590              	.L439:
 3591 004e 08B0     		add	sp, sp, #32
ARM GAS  C:\Users\Nathan\AppData\Local\Temp\ccPdMrK0.s 			page 61


 3592              		@ sp needed
 3593 0050 70BD     		pop	{r4, r5, r6, pc}
 3594              	.L440:
 3595 0052 01A9     		add	r1, sp, #4
 3596 0054 0068     		ldr	r0, [r0]
 3597 0056 FFF7FEFF 		bl	TIM_OC1_SetConfig
 3598              	.L443:
 3599 005a 46B1     		cbz	r6, .L444
 3600 005c 042E     		cmp	r6, #4
 3601 005e 2BD0     		beq	.L445
 3602 0060 0120     		movs	r0, #1
 3603 0062 EEE7     		b	.L442
 3604              	.L441:
 3605 0064 01A9     		add	r1, sp, #4
 3606 0066 0068     		ldr	r0, [r0]
 3607 0068 FFF7FEFF 		bl	TIM_OC2_SetConfig
 3608 006c F5E7     		b	.L443
 3609              	.L444:
 3610 006e 2B6A     		ldr	r3, [r5, #32]
 3611 0070 EA69     		ldr	r2, [r5, #28]
 3612 0072 A969     		ldr	r1, [r5, #24]
 3613 0074 2068     		ldr	r0, [r4]
 3614 0076 FFF7FEFF 		bl	TIM_TI1_SetConfig
 3615 007a 2268     		ldr	r2, [r4]
 3616 007c 9369     		ldr	r3, [r2, #24]
 3617 007e 23F00C03 		bic	r3, r3, #12
 3618 0082 9361     		str	r3, [r2, #24]
 3619 0084 2268     		ldr	r2, [r4]
 3620 0086 9368     		ldr	r3, [r2, #8]
 3621 0088 23F44013 		bic	r3, r3, #3145728
 3622 008c 23F07003 		bic	r3, r3, #112
 3623 0090 9360     		str	r3, [r2, #8]
 3624 0092 2268     		ldr	r2, [r4]
 3625 0094 9368     		ldr	r3, [r2, #8]
 3626 0096 43F05003 		orr	r3, r3, #80
 3627 009a 9360     		str	r3, [r2, #8]
 3628 009c 2268     		ldr	r2, [r4]
 3629 009e 9368     		ldr	r3, [r2, #8]
 3630 00a0 23F48033 		bic	r3, r3, #65536
 3631 00a4 23F00703 		bic	r3, r3, #7
 3632 00a8 9360     		str	r3, [r2, #8]
 3633 00aa 2268     		ldr	r2, [r4]
 3634 00ac 9368     		ldr	r3, [r2, #8]
 3635 00ae 43F00603 		orr	r3, r3, #6
 3636 00b2 9360     		str	r3, [r2, #8]
 3637 00b4 0020     		movs	r0, #0
 3638 00b6 C4E7     		b	.L442
 3639              	.L445:
 3640 00b8 2B6A     		ldr	r3, [r5, #32]
 3641 00ba EA69     		ldr	r2, [r5, #28]
 3642 00bc A969     		ldr	r1, [r5, #24]
 3643 00be 2068     		ldr	r0, [r4]
 3644 00c0 FFF7FEFF 		bl	TIM_TI2_SetConfig
 3645 00c4 2268     		ldr	r2, [r4]
 3646 00c6 9369     		ldr	r3, [r2, #24]
 3647 00c8 23F44063 		bic	r3, r3, #3072
 3648 00cc 9361     		str	r3, [r2, #24]
ARM GAS  C:\Users\Nathan\AppData\Local\Temp\ccPdMrK0.s 			page 62


 3649 00ce 2268     		ldr	r2, [r4]
 3650 00d0 9368     		ldr	r3, [r2, #8]
 3651 00d2 23F44013 		bic	r3, r3, #3145728
 3652 00d6 23F07003 		bic	r3, r3, #112
 3653 00da 9360     		str	r3, [r2, #8]
 3654 00dc 2268     		ldr	r2, [r4]
 3655 00de 9368     		ldr	r3, [r2, #8]
 3656 00e0 43F06003 		orr	r3, r3, #96
 3657 00e4 9360     		str	r3, [r2, #8]
 3658 00e6 2268     		ldr	r2, [r4]
 3659 00e8 9368     		ldr	r3, [r2, #8]
 3660 00ea 23F48033 		bic	r3, r3, #65536
 3661 00ee 23F00703 		bic	r3, r3, #7
 3662 00f2 9360     		str	r3, [r2, #8]
 3663 00f4 2268     		ldr	r2, [r4]
 3664 00f6 9368     		ldr	r3, [r2, #8]
 3665 00f8 43F00603 		orr	r3, r3, #6
 3666 00fc 9360     		str	r3, [r2, #8]
 3667 00fe 0020     		movs	r0, #0
 3668 0100 9FE7     		b	.L442
 3669              	.L446:
 3670 0102 0120     		movs	r0, #1
 3671 0104 7047     		bx	lr
 3672              	.L447:
 3673 0106 0220     		movs	r0, #2
 3674 0108 A1E7     		b	.L439
 3676              		.section	.text.TIM_ETR_SetConfig,"ax",%progbits
 3677              		.align	1
 3678              		.global	TIM_ETR_SetConfig
 3679              		.syntax unified
 3680              		.thumb
 3681              		.thumb_func
 3683              	TIM_ETR_SetConfig:
 3684              		@ args = 0, pretend = 0, frame = 0
 3685              		@ frame_needed = 0, uses_anonymous_args = 0
 3686              		@ link register save eliminated.
 3687 0000 10B4     		push	{r4}
 3688 0002 8468     		ldr	r4, [r0, #8]
 3689 0004 24F47F4C 		bic	ip, r4, #65280
 3690 0008 42EA0322 		orr	r2, r2, r3, lsl #8
 3691 000c 0A43     		orrs	r2, r2, r1
 3692 000e 42EA0C02 		orr	r2, r2, ip
 3693 0012 8260     		str	r2, [r0, #8]
 3694 0014 5DF8044B 		ldr	r4, [sp], #4
 3695 0018 7047     		bx	lr
 3697              		.section	.text.HAL_TIM_ConfigOCrefClear,"ax",%progbits
 3698              		.align	1
 3699              		.global	HAL_TIM_ConfigOCrefClear
 3700              		.syntax unified
 3701              		.thumb
 3702              		.thumb_func
 3704              	HAL_TIM_ConfigOCrefClear:
 3705              		@ args = 0, pretend = 0, frame = 0
 3706              		@ frame_needed = 0, uses_anonymous_args = 0
 3707 0000 90F83C30 		ldrb	r3, [r0, #60]	@ zero_extendqisi2
 3708 0004 012B     		cmp	r3, #1
 3709 0006 00F0C380 		beq	.L476
ARM GAS  C:\Users\Nathan\AppData\Local\Temp\ccPdMrK0.s 			page 63


 3710 000a 70B5     		push	{r4, r5, r6, lr}
 3711 000c 0446     		mov	r4, r0
 3712 000e 0D46     		mov	r5, r1
 3713 0010 1646     		mov	r6, r2
 3714 0012 0123     		movs	r3, #1
 3715 0014 80F83C30 		strb	r3, [r0, #60]
 3716 0018 0223     		movs	r3, #2
 3717 001a 80F83D30 		strb	r3, [r0, #61]
 3718 001e 4B68     		ldr	r3, [r1, #4]
 3719 0020 012B     		cmp	r3, #1
 3720 0022 34D0     		beq	.L456
 3721 0024 1ED8     		bhi	.L457
 3722 0026 DBB9     		cbnz	r3, .L482
 3723 0028 0268     		ldr	r2, [r0]
 3724 002a 9368     		ldr	r3, [r2, #8]
 3725 002c 23F47F43 		bic	r3, r3, #65280
 3726 0030 23F00803 		bic	r3, r3, #8
 3727 0034 9360     		str	r3, [r2, #8]
 3728 0036 0268     		ldr	r2, [r0]
 3729 0038 136E     		ldr	r3, [r2, #96]
 3730 003a 23F4E033 		bic	r3, r3, #114688
 3731 003e 1366     		str	r3, [r2, #96]
 3732              	.L461:
 3733 0040 142E     		cmp	r6, #20
 3734 0042 00F29D80 		bhi	.L477
 3735 0046 DFE806F0 		tbb	[pc, r6]
 3736              	.L464:
 3737 004a 3B       		.byte	(.L469-.L464)/2
 3738 004b 9B       		.byte	(.L477-.L464)/2
 3739 004c 9B       		.byte	(.L477-.L464)/2
 3740 004d 9B       		.byte	(.L477-.L464)/2
 3741 004e 4B       		.byte	(.L468-.L464)/2
 3742 004f 9B       		.byte	(.L477-.L464)/2
 3743 0050 9B       		.byte	(.L477-.L464)/2
 3744 0051 9B       		.byte	(.L477-.L464)/2
 3745 0052 5B       		.byte	(.L467-.L464)/2
 3746 0053 9B       		.byte	(.L477-.L464)/2
 3747 0054 9B       		.byte	(.L477-.L464)/2
 3748 0055 9B       		.byte	(.L477-.L464)/2
 3749 0056 6B       		.byte	(.L466-.L464)/2
 3750 0057 9B       		.byte	(.L477-.L464)/2
 3751 0058 9B       		.byte	(.L477-.L464)/2
 3752 0059 9B       		.byte	(.L477-.L464)/2
 3753 005a 7B       		.byte	(.L465-.L464)/2
 3754 005b 9B       		.byte	(.L477-.L464)/2
 3755 005c 9B       		.byte	(.L477-.L464)/2
 3756 005d 9B       		.byte	(.L477-.L464)/2
 3757 005e 8B       		.byte	(.L463-.L464)/2
 3758 005f 00       		.p2align 1
 3759              	.L482:
 3760 0060 0120     		movs	r0, #1
 3761 0062 8EE0     		b	.L459
 3762              	.L457:
 3763 0064 B3F5804F 		cmp	r3, #16384
 3764 0068 04D0     		beq	.L460
 3765 006a B3F5004F 		cmp	r3, #32768
 3766 006e 01D0     		beq	.L460
ARM GAS  C:\Users\Nathan\AppData\Local\Temp\ccPdMrK0.s 			page 64


 3767 0070 0120     		movs	r0, #1
 3768 0072 86E0     		b	.L459
 3769              	.L460:
 3770 0074 2268     		ldr	r2, [r4]
 3771 0076 9368     		ldr	r3, [r2, #8]
 3772 0078 23F00803 		bic	r3, r3, #8
 3773 007c 9360     		str	r3, [r2, #8]
 3774 007e 2268     		ldr	r2, [r4]
 3775 0080 136E     		ldr	r3, [r2, #96]
 3776 0082 23F4E033 		bic	r3, r3, #114688
 3777 0086 6968     		ldr	r1, [r5, #4]
 3778 0088 0B43     		orrs	r3, r3, r1
 3779 008a 1366     		str	r3, [r2, #96]
 3780 008c D8E7     		b	.L461
 3781              	.L456:
 3782 008e C968     		ldr	r1, [r1, #12]
 3783 0090 31B1     		cbz	r1, .L462
 3784 0092 0120     		movs	r0, #1
 3785 0094 84F83D00 		strb	r0, [r4, #61]
 3786 0098 0023     		movs	r3, #0
 3787 009a 84F83C30 		strb	r3, [r4, #60]
 3788 009e 76E0     		b	.L455
 3789              	.L462:
 3790 00a0 2B69     		ldr	r3, [r5, #16]
 3791 00a2 AA68     		ldr	r2, [r5, #8]
 3792 00a4 0068     		ldr	r0, [r0]
 3793 00a6 FFF7FEFF 		bl	TIM_ETR_SetConfig
 3794 00aa 2268     		ldr	r2, [r4]
 3795 00ac 9368     		ldr	r3, [r2, #8]
 3796 00ae 43F00803 		orr	r3, r3, #8
 3797 00b2 9360     		str	r3, [r2, #8]
 3798 00b4 2268     		ldr	r2, [r4]
 3799 00b6 136E     		ldr	r3, [r2, #96]
 3800 00b8 23F4E033 		bic	r3, r3, #114688
 3801 00bc 1366     		str	r3, [r2, #96]
 3802 00be BFE7     		b	.L461
 3803              	.L469:
 3804 00c0 2B68     		ldr	r3, [r5]
 3805 00c2 33B1     		cbz	r3, .L470
 3806 00c4 2268     		ldr	r2, [r4]
 3807 00c6 9369     		ldr	r3, [r2, #24]
 3808 00c8 43F08003 		orr	r3, r3, #128
 3809 00cc 9361     		str	r3, [r2, #24]
 3810 00ce 0020     		movs	r0, #0
 3811 00d0 57E0     		b	.L459
 3812              	.L470:
 3813 00d2 2268     		ldr	r2, [r4]
 3814 00d4 9369     		ldr	r3, [r2, #24]
 3815 00d6 23F08003 		bic	r3, r3, #128
 3816 00da 9361     		str	r3, [r2, #24]
 3817 00dc 0020     		movs	r0, #0
 3818 00de 50E0     		b	.L459
 3819              	.L468:
 3820 00e0 2B68     		ldr	r3, [r5]
 3821 00e2 33B1     		cbz	r3, .L471
 3822 00e4 2268     		ldr	r2, [r4]
 3823 00e6 9369     		ldr	r3, [r2, #24]
ARM GAS  C:\Users\Nathan\AppData\Local\Temp\ccPdMrK0.s 			page 65


 3824 00e8 43F40043 		orr	r3, r3, #32768
 3825 00ec 9361     		str	r3, [r2, #24]
 3826 00ee 0020     		movs	r0, #0
 3827 00f0 47E0     		b	.L459
 3828              	.L471:
 3829 00f2 2268     		ldr	r2, [r4]
 3830 00f4 9369     		ldr	r3, [r2, #24]
 3831 00f6 23F40043 		bic	r3, r3, #32768
 3832 00fa 9361     		str	r3, [r2, #24]
 3833 00fc 0020     		movs	r0, #0
 3834 00fe 40E0     		b	.L459
 3835              	.L467:
 3836 0100 2B68     		ldr	r3, [r5]
 3837 0102 33B1     		cbz	r3, .L472
 3838 0104 2268     		ldr	r2, [r4]
 3839 0106 D369     		ldr	r3, [r2, #28]
 3840 0108 43F08003 		orr	r3, r3, #128
 3841 010c D361     		str	r3, [r2, #28]
 3842 010e 0020     		movs	r0, #0
 3843 0110 37E0     		b	.L459
 3844              	.L472:
 3845 0112 2268     		ldr	r2, [r4]
 3846 0114 D369     		ldr	r3, [r2, #28]
 3847 0116 23F08003 		bic	r3, r3, #128
 3848 011a D361     		str	r3, [r2, #28]
 3849 011c 0020     		movs	r0, #0
 3850 011e 30E0     		b	.L459
 3851              	.L466:
 3852 0120 2B68     		ldr	r3, [r5]
 3853 0122 33B1     		cbz	r3, .L473
 3854 0124 2268     		ldr	r2, [r4]
 3855 0126 D369     		ldr	r3, [r2, #28]
 3856 0128 43F40043 		orr	r3, r3, #32768
 3857 012c D361     		str	r3, [r2, #28]
 3858 012e 0020     		movs	r0, #0
 3859 0130 27E0     		b	.L459
 3860              	.L473:
 3861 0132 2268     		ldr	r2, [r4]
 3862 0134 D369     		ldr	r3, [r2, #28]
 3863 0136 23F40043 		bic	r3, r3, #32768
 3864 013a D361     		str	r3, [r2, #28]
 3865 013c 0020     		movs	r0, #0
 3866 013e 20E0     		b	.L459
 3867              	.L465:
 3868 0140 2B68     		ldr	r3, [r5]
 3869 0142 33B1     		cbz	r3, .L474
 3870 0144 2268     		ldr	r2, [r4]
 3871 0146 536D     		ldr	r3, [r2, #84]
 3872 0148 43F08003 		orr	r3, r3, #128
 3873 014c 5365     		str	r3, [r2, #84]
 3874 014e 0020     		movs	r0, #0
 3875 0150 17E0     		b	.L459
 3876              	.L474:
 3877 0152 2268     		ldr	r2, [r4]
 3878 0154 536D     		ldr	r3, [r2, #84]
 3879 0156 23F08003 		bic	r3, r3, #128
 3880 015a 5365     		str	r3, [r2, #84]
ARM GAS  C:\Users\Nathan\AppData\Local\Temp\ccPdMrK0.s 			page 66


 3881 015c 0020     		movs	r0, #0
 3882 015e 10E0     		b	.L459
 3883              	.L463:
 3884 0160 2B68     		ldr	r3, [r5]
 3885 0162 33B1     		cbz	r3, .L475
 3886 0164 2268     		ldr	r2, [r4]
 3887 0166 536D     		ldr	r3, [r2, #84]
 3888 0168 43F40043 		orr	r3, r3, #32768
 3889 016c 5365     		str	r3, [r2, #84]
 3890 016e 0020     		movs	r0, #0
 3891 0170 07E0     		b	.L459
 3892              	.L475:
 3893 0172 2268     		ldr	r2, [r4]
 3894 0174 536D     		ldr	r3, [r2, #84]
 3895 0176 23F40043 		bic	r3, r3, #32768
 3896 017a 5365     		str	r3, [r2, #84]
 3897 017c 0020     		movs	r0, #0
 3898 017e 00E0     		b	.L459
 3899              	.L477:
 3900 0180 0020     		movs	r0, #0
 3901              	.L459:
 3902 0182 0123     		movs	r3, #1
 3903 0184 84F83D30 		strb	r3, [r4, #61]
 3904 0188 0023     		movs	r3, #0
 3905 018a 84F83C30 		strb	r3, [r4, #60]
 3906              	.L455:
 3907 018e 70BD     		pop	{r4, r5, r6, pc}
 3908              	.L476:
 3909 0190 0220     		movs	r0, #2
 3910 0192 7047     		bx	lr
 3912              		.section	.text.HAL_TIM_ConfigClockSource,"ax",%progbits
 3913              		.align	1
 3914              		.global	HAL_TIM_ConfigClockSource
 3915              		.syntax unified
 3916              		.thumb
 3917              		.thumb_func
 3919              	HAL_TIM_ConfigClockSource:
 3920              		@ args = 0, pretend = 0, frame = 0
 3921              		@ frame_needed = 0, uses_anonymous_args = 0
 3922 0000 90F83C30 		ldrb	r3, [r0, #60]	@ zero_extendqisi2
 3923 0004 012B     		cmp	r3, #1
 3924 0006 76D0     		beq	.L494
 3925 0008 10B5     		push	{r4, lr}
 3926 000a 0446     		mov	r4, r0
 3927 000c 0123     		movs	r3, #1
 3928 000e 80F83C30 		strb	r3, [r0, #60]
 3929 0012 0223     		movs	r3, #2
 3930 0014 80F83D30 		strb	r3, [r0, #61]
 3931 0018 0268     		ldr	r2, [r0]
 3932 001a 9068     		ldr	r0, [r2, #8]
 3933 001c 374B     		ldr	r3, .L503
 3934 001e 0340     		ands	r3, r3, r0
 3935 0020 9360     		str	r3, [r2, #8]
 3936 0022 0B68     		ldr	r3, [r1]
 3937 0024 602B     		cmp	r3, #96
 3938 0026 4CD0     		beq	.L485
 3939 0028 23D8     		bhi	.L486
ARM GAS  C:\Users\Nathan\AppData\Local\Temp\ccPdMrK0.s 			page 67


 3940 002a 402B     		cmp	r3, #64
 3941 002c 54D0     		beq	.L487
 3942 002e 11D8     		bhi	.L488
 3943 0030 202B     		cmp	r3, #32
 3944 0032 03D0     		beq	.L489
 3945 0034 0AD8     		bhi	.L490
 3946 0036 0BB1     		cbz	r3, .L489
 3947 0038 102B     		cmp	r3, #16
 3948 003a 05D1     		bne	.L501
 3949              	.L489:
 3950 003c 1946     		mov	r1, r3
 3951 003e 2068     		ldr	r0, [r4]
 3952 0040 FFF7FEFF 		bl	TIM_ITRx_SetConfig
 3953 0044 0020     		movs	r0, #0
 3954 0046 28E0     		b	.L491
 3955              	.L501:
 3956 0048 0120     		movs	r0, #1
 3957 004a 26E0     		b	.L491
 3958              	.L490:
 3959 004c 302B     		cmp	r3, #48
 3960 004e F5D0     		beq	.L489
 3961 0050 0120     		movs	r0, #1
 3962 0052 22E0     		b	.L491
 3963              	.L488:
 3964 0054 502B     		cmp	r3, #80
 3965 0056 0AD1     		bne	.L502
 3966 0058 CA68     		ldr	r2, [r1, #12]
 3967 005a 4968     		ldr	r1, [r1, #4]
 3968 005c 2068     		ldr	r0, [r4]
 3969 005e FFF7FEFF 		bl	TIM_TI1_ConfigInputStage
 3970 0062 5021     		movs	r1, #80
 3971 0064 2068     		ldr	r0, [r4]
 3972 0066 FFF7FEFF 		bl	TIM_ITRx_SetConfig
 3973 006a 0020     		movs	r0, #0
 3974 006c 15E0     		b	.L491
 3975              	.L502:
 3976 006e 0120     		movs	r0, #1
 3977 0070 13E0     		b	.L491
 3978              	.L486:
 3979 0072 B3F5805F 		cmp	r3, #4096
 3980 0076 3AD0     		beq	.L495
 3981 0078 B3F5005F 		cmp	r3, #8192
 3982 007c 14D0     		beq	.L493
 3983 007e 702B     		cmp	r3, #112
 3984 0080 37D1     		bne	.L496
 3985 0082 CB68     		ldr	r3, [r1, #12]
 3986 0084 4A68     		ldr	r2, [r1, #4]
 3987 0086 8968     		ldr	r1, [r1, #8]
 3988 0088 2068     		ldr	r0, [r4]
 3989 008a FFF7FEFF 		bl	TIM_ETR_SetConfig
 3990 008e 2268     		ldr	r2, [r4]
 3991 0090 9368     		ldr	r3, [r2, #8]
 3992 0092 43F07703 		orr	r3, r3, #119
 3993 0096 9360     		str	r3, [r2, #8]
 3994 0098 0020     		movs	r0, #0
 3995              	.L491:
 3996 009a 0123     		movs	r3, #1
ARM GAS  C:\Users\Nathan\AppData\Local\Temp\ccPdMrK0.s 			page 68


 3997 009c 84F83D30 		strb	r3, [r4, #61]
 3998 00a0 0023     		movs	r3, #0
 3999 00a2 84F83C30 		strb	r3, [r4, #60]
 4000 00a6 10BD     		pop	{r4, pc}
 4001              	.L493:
 4002 00a8 CB68     		ldr	r3, [r1, #12]
 4003 00aa 4A68     		ldr	r2, [r1, #4]
 4004 00ac 8968     		ldr	r1, [r1, #8]
 4005 00ae 2068     		ldr	r0, [r4]
 4006 00b0 FFF7FEFF 		bl	TIM_ETR_SetConfig
 4007 00b4 2268     		ldr	r2, [r4]
 4008 00b6 9368     		ldr	r3, [r2, #8]
 4009 00b8 43F48043 		orr	r3, r3, #16384
 4010 00bc 9360     		str	r3, [r2, #8]
 4011 00be 0020     		movs	r0, #0
 4012 00c0 EBE7     		b	.L491
 4013              	.L485:
 4014 00c2 CA68     		ldr	r2, [r1, #12]
 4015 00c4 4968     		ldr	r1, [r1, #4]
 4016 00c6 2068     		ldr	r0, [r4]
 4017 00c8 FFF7FEFF 		bl	TIM_TI2_ConfigInputStage
 4018 00cc 6021     		movs	r1, #96
 4019 00ce 2068     		ldr	r0, [r4]
 4020 00d0 FFF7FEFF 		bl	TIM_ITRx_SetConfig
 4021 00d4 0020     		movs	r0, #0
 4022 00d6 E0E7     		b	.L491
 4023              	.L487:
 4024 00d8 CA68     		ldr	r2, [r1, #12]
 4025 00da 4968     		ldr	r1, [r1, #4]
 4026 00dc 2068     		ldr	r0, [r4]
 4027 00de FFF7FEFF 		bl	TIM_TI1_ConfigInputStage
 4028 00e2 4021     		movs	r1, #64
 4029 00e4 2068     		ldr	r0, [r4]
 4030 00e6 FFF7FEFF 		bl	TIM_ITRx_SetConfig
 4031 00ea 0020     		movs	r0, #0
 4032 00ec D5E7     		b	.L491
 4033              	.L495:
 4034 00ee 0020     		movs	r0, #0
 4035 00f0 D3E7     		b	.L491
 4036              	.L496:
 4037 00f2 0120     		movs	r0, #1
 4038 00f4 D1E7     		b	.L491
 4039              	.L494:
 4040 00f6 0220     		movs	r0, #2
 4041 00f8 7047     		bx	lr
 4042              	.L504:
 4043 00fa 00BF     		.align	2
 4044              	.L503:
 4045 00fc 8800CEFF 		.word	-3276664
 4047              		.section	.text.TIM_SlaveTimer_SetConfig,"ax",%progbits
 4048              		.align	1
 4049              		.syntax unified
 4050              		.thumb
 4051              		.thumb_func
 4053              	TIM_SlaveTimer_SetConfig:
 4054              		@ args = 0, pretend = 0, frame = 0
 4055              		@ frame_needed = 0, uses_anonymous_args = 0
ARM GAS  C:\Users\Nathan\AppData\Local\Temp\ccPdMrK0.s 			page 69


 4056 0000 10B5     		push	{r4, lr}
 4057 0002 0468     		ldr	r4, [r0]
 4058 0004 A268     		ldr	r2, [r4, #8]
 4059 0006 22F44012 		bic	r2, r2, #3145728
 4060 000a 22F07002 		bic	r2, r2, #112
 4061 000e 4B68     		ldr	r3, [r1, #4]
 4062 0010 1343     		orrs	r3, r3, r2
 4063 0012 23F48033 		bic	r3, r3, #65536
 4064 0016 23F00703 		bic	r3, r3, #7
 4065 001a 0A68     		ldr	r2, [r1]
 4066 001c 1A43     		orrs	r2, r2, r3
 4067 001e A260     		str	r2, [r4, #8]
 4068 0020 4B68     		ldr	r3, [r1, #4]
 4069 0022 502B     		cmp	r3, #80
 4070 0024 30D0     		beq	.L506
 4071 0026 0BD9     		bls	.L520
 4072 0028 602B     		cmp	r3, #96
 4073 002a 34D0     		beq	.L511
 4074 002c 702B     		cmp	r3, #112
 4075 002e 43D1     		bne	.L517
 4076 0030 0B69     		ldr	r3, [r1, #16]
 4077 0032 8A68     		ldr	r2, [r1, #8]
 4078 0034 C968     		ldr	r1, [r1, #12]
 4079 0036 0068     		ldr	r0, [r0]
 4080 0038 FFF7FEFF 		bl	TIM_ETR_SetConfig
 4081 003c 0020     		movs	r0, #0
 4082              	.L509:
 4083 003e 10BD     		pop	{r4, pc}
 4084              	.L520:
 4085 0040 402B     		cmp	r3, #64
 4086 0042 0CD0     		beq	.L508
 4087 0044 2ED8     		bhi	.L512
 4088 0046 202B     		cmp	r3, #32
 4089 0048 2ED0     		beq	.L513
 4090 004a 04D8     		bhi	.L510
 4091 004c 73B3     		cbz	r3, .L514
 4092 004e 102B     		cmp	r3, #16
 4093 0050 2ED1     		bne	.L515
 4094 0052 0020     		movs	r0, #0
 4095 0054 F3E7     		b	.L509
 4096              	.L510:
 4097 0056 302B     		cmp	r3, #48
 4098 0058 2CD1     		bne	.L516
 4099 005a 0020     		movs	r0, #0
 4100 005c EFE7     		b	.L509
 4101              	.L508:
 4102 005e 0B68     		ldr	r3, [r1]
 4103 0060 052B     		cmp	r3, #5
 4104 0062 2BD0     		beq	.L518
 4105 0064 0368     		ldr	r3, [r0]
 4106 0066 1C6A     		ldr	r4, [r3, #32]
 4107 0068 1A6A     		ldr	r2, [r3, #32]
 4108 006a 22F00102 		bic	r2, r2, #1
 4109 006e 1A62     		str	r2, [r3, #32]
 4110 0070 0268     		ldr	r2, [r0]
 4111 0072 9369     		ldr	r3, [r2, #24]
 4112 0074 23F0F003 		bic	r3, r3, #240
ARM GAS  C:\Users\Nathan\AppData\Local\Temp\ccPdMrK0.s 			page 70


 4113 0078 0969     		ldr	r1, [r1, #16]
 4114 007a 43EA0113 		orr	r3, r3, r1, lsl #4
 4115 007e 9361     		str	r3, [r2, #24]
 4116 0080 0368     		ldr	r3, [r0]
 4117 0082 1C62     		str	r4, [r3, #32]
 4118 0084 0020     		movs	r0, #0
 4119 0086 DAE7     		b	.L509
 4120              	.L506:
 4121 0088 0A69     		ldr	r2, [r1, #16]
 4122 008a 8968     		ldr	r1, [r1, #8]
 4123 008c 0068     		ldr	r0, [r0]
 4124 008e FFF7FEFF 		bl	TIM_TI1_ConfigInputStage
 4125 0092 0020     		movs	r0, #0
 4126 0094 D3E7     		b	.L509
 4127              	.L511:
 4128 0096 0A69     		ldr	r2, [r1, #16]
 4129 0098 8968     		ldr	r1, [r1, #8]
 4130 009a 0068     		ldr	r0, [r0]
 4131 009c FFF7FEFF 		bl	TIM_TI2_ConfigInputStage
 4132 00a0 0020     		movs	r0, #0
 4133 00a2 CCE7     		b	.L509
 4134              	.L512:
 4135 00a4 0120     		movs	r0, #1
 4136 00a6 CAE7     		b	.L509
 4137              	.L513:
 4138 00a8 0020     		movs	r0, #0
 4139 00aa C8E7     		b	.L509
 4140              	.L514:
 4141 00ac 0020     		movs	r0, #0
 4142 00ae C6E7     		b	.L509
 4143              	.L515:
 4144 00b0 0120     		movs	r0, #1
 4145 00b2 C4E7     		b	.L509
 4146              	.L516:
 4147 00b4 0120     		movs	r0, #1
 4148 00b6 C2E7     		b	.L509
 4149              	.L517:
 4150 00b8 0120     		movs	r0, #1
 4151 00ba C0E7     		b	.L509
 4152              	.L518:
 4153 00bc 0120     		movs	r0, #1
 4154 00be BEE7     		b	.L509
 4156              		.section	.text.HAL_TIM_SlaveConfigSynchro,"ax",%progbits
 4157              		.align	1
 4158              		.global	HAL_TIM_SlaveConfigSynchro
 4159              		.syntax unified
 4160              		.thumb
 4161              		.thumb_func
 4163              	HAL_TIM_SlaveConfigSynchro:
 4164              		@ args = 0, pretend = 0, frame = 0
 4165              		@ frame_needed = 0, uses_anonymous_args = 0
 4166 0000 90F83C30 		ldrb	r3, [r0, #60]	@ zero_extendqisi2
 4167 0004 012B     		cmp	r3, #1
 4168 0006 22D0     		beq	.L524
 4169 0008 10B5     		push	{r4, lr}
 4170 000a 0446     		mov	r4, r0
 4171 000c 0123     		movs	r3, #1
ARM GAS  C:\Users\Nathan\AppData\Local\Temp\ccPdMrK0.s 			page 71


 4172 000e 80F83C30 		strb	r3, [r0, #60]
 4173 0012 0223     		movs	r3, #2
 4174 0014 80F83D30 		strb	r3, [r0, #61]
 4175 0018 FFF7FEFF 		bl	TIM_SlaveTimer_SetConfig
 4176 001c 80B9     		cbnz	r0, .L529
 4177 001e 2268     		ldr	r2, [r4]
 4178 0020 D368     		ldr	r3, [r2, #12]
 4179 0022 23F04003 		bic	r3, r3, #64
 4180 0026 D360     		str	r3, [r2, #12]
 4181 0028 2268     		ldr	r2, [r4]
 4182 002a D368     		ldr	r3, [r2, #12]
 4183 002c 23F48043 		bic	r3, r3, #16384
 4184 0030 D360     		str	r3, [r2, #12]
 4185 0032 0123     		movs	r3, #1
 4186 0034 84F83D30 		strb	r3, [r4, #61]
 4187 0038 0023     		movs	r3, #0
 4188 003a 84F83C30 		strb	r3, [r4, #60]
 4189              	.L522:
 4190 003e 10BD     		pop	{r4, pc}
 4191              	.L529:
 4192 0040 0120     		movs	r0, #1
 4193 0042 84F83D00 		strb	r0, [r4, #61]
 4194 0046 0023     		movs	r3, #0
 4195 0048 84F83C30 		strb	r3, [r4, #60]
 4196 004c F7E7     		b	.L522
 4197              	.L524:
 4198 004e 0220     		movs	r0, #2
 4199 0050 7047     		bx	lr
 4201              		.section	.text.HAL_TIM_SlaveConfigSynchro_IT,"ax",%progbits
 4202              		.align	1
 4203              		.global	HAL_TIM_SlaveConfigSynchro_IT
 4204              		.syntax unified
 4205              		.thumb
 4206              		.thumb_func
 4208              	HAL_TIM_SlaveConfigSynchro_IT:
 4209              		@ args = 0, pretend = 0, frame = 0
 4210              		@ frame_needed = 0, uses_anonymous_args = 0
 4211 0000 90F83C30 		ldrb	r3, [r0, #60]	@ zero_extendqisi2
 4212 0004 012B     		cmp	r3, #1
 4213 0006 22D0     		beq	.L533
 4214 0008 10B5     		push	{r4, lr}
 4215 000a 0446     		mov	r4, r0
 4216 000c 0123     		movs	r3, #1
 4217 000e 80F83C30 		strb	r3, [r0, #60]
 4218 0012 0223     		movs	r3, #2
 4219 0014 80F83D30 		strb	r3, [r0, #61]
 4220 0018 FFF7FEFF 		bl	TIM_SlaveTimer_SetConfig
 4221 001c 80B9     		cbnz	r0, .L538
 4222 001e 2268     		ldr	r2, [r4]
 4223 0020 D368     		ldr	r3, [r2, #12]
 4224 0022 43F04003 		orr	r3, r3, #64
 4225 0026 D360     		str	r3, [r2, #12]
 4226 0028 2268     		ldr	r2, [r4]
 4227 002a D368     		ldr	r3, [r2, #12]
 4228 002c 23F48043 		bic	r3, r3, #16384
 4229 0030 D360     		str	r3, [r2, #12]
 4230 0032 0123     		movs	r3, #1
ARM GAS  C:\Users\Nathan\AppData\Local\Temp\ccPdMrK0.s 			page 72


 4231 0034 84F83D30 		strb	r3, [r4, #61]
 4232 0038 0023     		movs	r3, #0
 4233 003a 84F83C30 		strb	r3, [r4, #60]
 4234              	.L531:
 4235 003e 10BD     		pop	{r4, pc}
 4236              	.L538:
 4237 0040 0120     		movs	r0, #1
 4238 0042 84F83D00 		strb	r0, [r4, #61]
 4239 0046 0023     		movs	r3, #0
 4240 0048 84F83C30 		strb	r3, [r4, #60]
 4241 004c F7E7     		b	.L531
 4242              	.L533:
 4243 004e 0220     		movs	r0, #2
 4244 0050 7047     		bx	lr
 4246              		.section	.text.TIM_CCxChannelCmd,"ax",%progbits
 4247              		.align	1
 4248              		.global	TIM_CCxChannelCmd
 4249              		.syntax unified
 4250              		.thumb
 4251              		.thumb_func
 4253              	TIM_CCxChannelCmd:
 4254              		@ args = 0, pretend = 0, frame = 0
 4255              		@ frame_needed = 0, uses_anonymous_args = 0
 4256              		@ link register save eliminated.
 4257 0000 01F01F01 		and	r1, r1, #31
 4258 0004 4FF0010C 		mov	ip, #1
 4259 0008 0CFA01FC 		lsl	ip, ip, r1
 4260 000c 036A     		ldr	r3, [r0, #32]
 4261 000e 23EA0C03 		bic	r3, r3, ip
 4262 0012 0362     		str	r3, [r0, #32]
 4263 0014 036A     		ldr	r3, [r0, #32]
 4264 0016 8A40     		lsls	r2, r2, r1
 4265 0018 1343     		orrs	r3, r3, r2
 4266 001a 0362     		str	r3, [r0, #32]
 4267 001c 7047     		bx	lr
 4269              		.section	.text.HAL_TIM_OC_Start,"ax",%progbits
 4270              		.align	1
 4271              		.global	HAL_TIM_OC_Start
 4272              		.syntax unified
 4273              		.thumb
 4274              		.thumb_func
 4276              	HAL_TIM_OC_Start:
 4277              		@ args = 0, pretend = 0, frame = 0
 4278              		@ frame_needed = 0, uses_anonymous_args = 0
 4279 0000 10B5     		push	{r4, lr}
 4280 0002 0446     		mov	r4, r0
 4281 0004 1029     		cmp	r1, #16
 4282 0006 3BD8     		bhi	.L541
 4283 0008 DFE801F0 		tbb	[pc, r1]
 4284              	.L543:
 4285 000c 09       		.byte	(.L547-.L543)/2
 4286 000d 3A       		.byte	(.L541-.L543)/2
 4287 000e 3A       		.byte	(.L541-.L543)/2
 4288 000f 3A       		.byte	(.L541-.L543)/2
 4289 0010 1E       		.byte	(.L546-.L543)/2
 4290 0011 3A       		.byte	(.L541-.L543)/2
 4291 0012 3A       		.byte	(.L541-.L543)/2
ARM GAS  C:\Users\Nathan\AppData\Local\Temp\ccPdMrK0.s 			page 73


 4292 0013 3A       		.byte	(.L541-.L543)/2
 4293 0014 25       		.byte	(.L545-.L543)/2
 4294 0015 3A       		.byte	(.L541-.L543)/2
 4295 0016 3A       		.byte	(.L541-.L543)/2
 4296 0017 3A       		.byte	(.L541-.L543)/2
 4297 0018 2C       		.byte	(.L544-.L543)/2
 4298 0019 3A       		.byte	(.L541-.L543)/2
 4299 001a 3A       		.byte	(.L541-.L543)/2
 4300 001b 3A       		.byte	(.L541-.L543)/2
 4301 001c 33       		.byte	(.L542-.L543)/2
 4302 001d 00       		.p2align 1
 4303              	.L547:
 4304 001e 90F83E30 		ldrb	r3, [r0, #62]	@ zero_extendqisi2
 4305 0022 DBB2     		uxtb	r3, r3
 4306 0024 013B     		subs	r3, r3, #1
 4307 0026 18BF     		it	ne
 4308 0028 0123     		movne	r3, #1
 4309              	.L548:
 4310 002a 002B     		cmp	r3, #0
 4311 002c 75D1     		bne	.L562
 4312 002e 1029     		cmp	r1, #16
 4313 0030 61D8     		bhi	.L550
 4314 0032 DFE801F0 		tbb	[pc, r1]
 4315              	.L552:
 4316 0036 2C       		.byte	(.L556-.L552)/2
 4317 0037 60       		.byte	(.L550-.L552)/2
 4318 0038 60       		.byte	(.L550-.L552)/2
 4319 0039 60       		.byte	(.L550-.L552)/2
 4320 003a 50       		.byte	(.L555-.L552)/2
 4321 003b 60       		.byte	(.L550-.L552)/2
 4322 003c 60       		.byte	(.L550-.L552)/2
 4323 003d 60       		.byte	(.L550-.L552)/2
 4324 003e 54       		.byte	(.L554-.L552)/2
 4325 003f 60       		.byte	(.L550-.L552)/2
 4326 0040 60       		.byte	(.L550-.L552)/2
 4327 0041 60       		.byte	(.L550-.L552)/2
 4328 0042 58       		.byte	(.L553-.L552)/2
 4329 0043 60       		.byte	(.L550-.L552)/2
 4330 0044 60       		.byte	(.L550-.L552)/2
 4331 0045 60       		.byte	(.L550-.L552)/2
 4332 0046 5C       		.byte	(.L551-.L552)/2
 4333 0047 00       		.p2align 1
 4334              	.L546:
 4335 0048 90F83F30 		ldrb	r3, [r0, #63]	@ zero_extendqisi2
 4336 004c DBB2     		uxtb	r3, r3
 4337 004e 013B     		subs	r3, r3, #1
 4338 0050 18BF     		it	ne
 4339 0052 0123     		movne	r3, #1
 4340 0054 E9E7     		b	.L548
 4341              	.L545:
 4342 0056 90F84030 		ldrb	r3, [r0, #64]	@ zero_extendqisi2
 4343 005a DBB2     		uxtb	r3, r3
 4344 005c 013B     		subs	r3, r3, #1
 4345 005e 18BF     		it	ne
 4346 0060 0123     		movne	r3, #1
 4347 0062 E2E7     		b	.L548
 4348              	.L544:
ARM GAS  C:\Users\Nathan\AppData\Local\Temp\ccPdMrK0.s 			page 74


 4349 0064 90F84130 		ldrb	r3, [r0, #65]	@ zero_extendqisi2
 4350 0068 DBB2     		uxtb	r3, r3
 4351 006a 013B     		subs	r3, r3, #1
 4352 006c 18BF     		it	ne
 4353 006e 0123     		movne	r3, #1
 4354 0070 DBE7     		b	.L548
 4355              	.L542:
 4356 0072 90F84230 		ldrb	r3, [r0, #66]	@ zero_extendqisi2
 4357 0076 DBB2     		uxtb	r3, r3
 4358 0078 013B     		subs	r3, r3, #1
 4359 007a 18BF     		it	ne
 4360 007c 0123     		movne	r3, #1
 4361 007e D4E7     		b	.L548
 4362              	.L541:
 4363 0080 90F84330 		ldrb	r3, [r0, #67]	@ zero_extendqisi2
 4364 0084 DBB2     		uxtb	r3, r3
 4365 0086 013B     		subs	r3, r3, #1
 4366 0088 18BF     		it	ne
 4367 008a 0123     		movne	r3, #1
 4368 008c CDE7     		b	.L548
 4369              	.L556:
 4370 008e 0223     		movs	r3, #2
 4371 0090 84F83E30 		strb	r3, [r4, #62]
 4372              	.L557:
 4373 0094 0122     		movs	r2, #1
 4374 0096 2068     		ldr	r0, [r4]
 4375 0098 FFF7FEFF 		bl	TIM_CCxChannelCmd
 4376 009c 2368     		ldr	r3, [r4]
 4377 009e 224A     		ldr	r2, .L566
 4378 00a0 9342     		cmp	r3, r2
 4379 00a2 07D0     		beq	.L558
 4380 00a4 02F5C052 		add	r2, r2, #6144
 4381 00a8 9342     		cmp	r3, r2
 4382 00aa 03D0     		beq	.L558
 4383 00ac 02F58062 		add	r2, r2, #1024
 4384 00b0 9342     		cmp	r3, r2
 4385 00b2 03D1     		bne	.L559
 4386              	.L558:
 4387 00b4 5A6C     		ldr	r2, [r3, #68]
 4388 00b6 42F40042 		orr	r2, r2, #32768
 4389 00ba 5A64     		str	r2, [r3, #68]
 4390              	.L559:
 4391 00bc 2368     		ldr	r3, [r4]
 4392 00be 1A4A     		ldr	r2, .L566
 4393 00c0 9342     		cmp	r3, r2
 4394 00c2 1CD0     		beq	.L560
 4395 00c4 B3F1804F 		cmp	r3, #1073741824
 4396 00c8 19D0     		beq	.L560
 4397 00ca 1A68     		ldr	r2, [r3]
 4398 00cc 42F00102 		orr	r2, r2, #1
 4399 00d0 1A60     		str	r2, [r3]
 4400 00d2 0020     		movs	r0, #0
 4401 00d4 22E0     		b	.L549
 4402              	.L555:
 4403 00d6 0223     		movs	r3, #2
 4404 00d8 84F83F30 		strb	r3, [r4, #63]
 4405 00dc DAE7     		b	.L557
ARM GAS  C:\Users\Nathan\AppData\Local\Temp\ccPdMrK0.s 			page 75


 4406              	.L554:
 4407 00de 0223     		movs	r3, #2
 4408 00e0 84F84030 		strb	r3, [r4, #64]
 4409 00e4 D6E7     		b	.L557
 4410              	.L553:
 4411 00e6 0223     		movs	r3, #2
 4412 00e8 84F84130 		strb	r3, [r4, #65]
 4413 00ec D2E7     		b	.L557
 4414              	.L551:
 4415 00ee 0223     		movs	r3, #2
 4416 00f0 84F84230 		strb	r3, [r4, #66]
 4417 00f4 CEE7     		b	.L557
 4418              	.L550:
 4419 00f6 0223     		movs	r3, #2
 4420 00f8 84F84330 		strb	r3, [r4, #67]
 4421 00fc CAE7     		b	.L557
 4422              	.L560:
 4423 00fe 9968     		ldr	r1, [r3, #8]
 4424 0100 0A4A     		ldr	r2, .L566+4
 4425 0102 0A40     		ands	r2, r2, r1
 4426 0104 062A     		cmp	r2, #6
 4427 0106 0AD0     		beq	.L563
 4428 0108 B2F5803F 		cmp	r2, #65536
 4429 010c 09D0     		beq	.L564
 4430 010e 1A68     		ldr	r2, [r3]
 4431 0110 42F00102 		orr	r2, r2, #1
 4432 0114 1A60     		str	r2, [r3]
 4433 0116 0020     		movs	r0, #0
 4434 0118 00E0     		b	.L549
 4435              	.L562:
 4436 011a 0120     		movs	r0, #1
 4437              	.L549:
 4438 011c 10BD     		pop	{r4, pc}
 4439              	.L563:
 4440 011e 0020     		movs	r0, #0
 4441 0120 FCE7     		b	.L549
 4442              	.L564:
 4443 0122 0020     		movs	r0, #0
 4444 0124 FAE7     		b	.L549
 4445              	.L567:
 4446 0126 00BF     		.align	2
 4447              	.L566:
 4448 0128 002C0140 		.word	1073818624
 4449 012c 07000100 		.word	65543
 4451              		.section	.text.HAL_TIM_OC_Stop,"ax",%progbits
 4452              		.align	1
 4453              		.global	HAL_TIM_OC_Stop
 4454              		.syntax unified
 4455              		.thumb
 4456              		.thumb_func
 4458              	HAL_TIM_OC_Stop:
 4459              		@ args = 0, pretend = 0, frame = 0
 4460              		@ frame_needed = 0, uses_anonymous_args = 0
 4461 0000 38B5     		push	{r3, r4, r5, lr}
 4462 0002 0446     		mov	r4, r0
 4463 0004 0D46     		mov	r5, r1
 4464 0006 0022     		movs	r2, #0
ARM GAS  C:\Users\Nathan\AppData\Local\Temp\ccPdMrK0.s 			page 76


 4465 0008 0068     		ldr	r0, [r0]
 4466 000a FFF7FEFF 		bl	TIM_CCxChannelCmd
 4467 000e 2368     		ldr	r3, [r4]
 4468 0010 284A     		ldr	r2, .L581
 4469 0012 9342     		cmp	r3, r2
 4470 0014 24D0     		beq	.L569
 4471 0016 02F5C052 		add	r2, r2, #6144
 4472 001a 9342     		cmp	r3, r2
 4473 001c 20D0     		beq	.L569
 4474 001e 02F58062 		add	r2, r2, #1024
 4475 0022 9342     		cmp	r3, r2
 4476 0024 1CD0     		beq	.L569
 4477              	.L570:
 4478 0026 2268     		ldr	r2, [r4]
 4479 0028 136A     		ldr	r3, [r2, #32]
 4480 002a 03F01133 		and	r3, r3, #286331153
 4481 002e 23F08853 		bic	r3, r3, #285212672
 4482 0032 43B9     		cbnz	r3, .L571
 4483 0034 116A     		ldr	r1, [r2, #32]
 4484 0036 40F24443 		movw	r3, #1092
 4485 003a 1942     		tst	r1, r3
 4486 003c 03D1     		bne	.L571
 4487 003e 1368     		ldr	r3, [r2]
 4488 0040 23F00103 		bic	r3, r3, #1
 4489 0044 1360     		str	r3, [r2]
 4490              	.L571:
 4491 0046 102D     		cmp	r5, #16
 4492 0048 30D8     		bhi	.L572
 4493 004a DFE805F0 		tbb	[pc, r5]
 4494              	.L574:
 4495 004e 1A       		.byte	(.L578-.L574)/2
 4496 004f 2F       		.byte	(.L572-.L574)/2
 4497 0050 2F       		.byte	(.L572-.L574)/2
 4498 0051 2F       		.byte	(.L572-.L574)/2
 4499 0052 1F       		.byte	(.L577-.L574)/2
 4500 0053 2F       		.byte	(.L572-.L574)/2
 4501 0054 2F       		.byte	(.L572-.L574)/2
 4502 0055 2F       		.byte	(.L572-.L574)/2
 4503 0056 23       		.byte	(.L576-.L574)/2
 4504 0057 2F       		.byte	(.L572-.L574)/2
 4505 0058 2F       		.byte	(.L572-.L574)/2
 4506 0059 2F       		.byte	(.L572-.L574)/2
 4507 005a 27       		.byte	(.L575-.L574)/2
 4508 005b 2F       		.byte	(.L572-.L574)/2
 4509 005c 2F       		.byte	(.L572-.L574)/2
 4510 005d 2F       		.byte	(.L572-.L574)/2
 4511 005e 2B       		.byte	(.L573-.L574)/2
 4512 005f 00       		.p2align 1
 4513              	.L569:
 4514 0060 1A6A     		ldr	r2, [r3, #32]
 4515 0062 02F01132 		and	r2, r2, #286331153
 4516 0066 22F08852 		bic	r2, r2, #285212672
 4517 006a 002A     		cmp	r2, #0
 4518 006c DBD1     		bne	.L570
 4519 006e 196A     		ldr	r1, [r3, #32]
 4520 0070 40F24442 		movw	r2, #1092
 4521 0074 1142     		tst	r1, r2
ARM GAS  C:\Users\Nathan\AppData\Local\Temp\ccPdMrK0.s 			page 77


 4522 0076 D6D1     		bne	.L570
 4523 0078 5A6C     		ldr	r2, [r3, #68]
 4524 007a 22F40042 		bic	r2, r2, #32768
 4525 007e 5A64     		str	r2, [r3, #68]
 4526 0080 D1E7     		b	.L570
 4527              	.L578:
 4528 0082 0123     		movs	r3, #1
 4529 0084 84F83E30 		strb	r3, [r4, #62]
 4530              	.L579:
 4531 0088 0020     		movs	r0, #0
 4532 008a 38BD     		pop	{r3, r4, r5, pc}
 4533              	.L577:
 4534 008c 0123     		movs	r3, #1
 4535 008e 84F83F30 		strb	r3, [r4, #63]
 4536 0092 F9E7     		b	.L579
 4537              	.L576:
 4538 0094 0123     		movs	r3, #1
 4539 0096 84F84030 		strb	r3, [r4, #64]
 4540 009a F5E7     		b	.L579
 4541              	.L575:
 4542 009c 0123     		movs	r3, #1
 4543 009e 84F84130 		strb	r3, [r4, #65]
 4544 00a2 F1E7     		b	.L579
 4545              	.L573:
 4546 00a4 0123     		movs	r3, #1
 4547 00a6 84F84230 		strb	r3, [r4, #66]
 4548 00aa EDE7     		b	.L579
 4549              	.L572:
 4550 00ac 0123     		movs	r3, #1
 4551 00ae 84F84330 		strb	r3, [r4, #67]
 4552 00b2 E9E7     		b	.L579
 4553              	.L582:
 4554              		.align	2
 4555              	.L581:
 4556 00b4 002C0140 		.word	1073818624
 4558              		.section	.text.HAL_TIM_OC_Start_IT,"ax",%progbits
 4559              		.align	1
 4560              		.global	HAL_TIM_OC_Start_IT
 4561              		.syntax unified
 4562              		.thumb
 4563              		.thumb_func
 4565              	HAL_TIM_OC_Start_IT:
 4566              		@ args = 0, pretend = 0, frame = 0
 4567              		@ frame_needed = 0, uses_anonymous_args = 0
 4568 0000 10B5     		push	{r4, lr}
 4569 0002 0446     		mov	r4, r0
 4570 0004 1029     		cmp	r1, #16
 4571 0006 3CD8     		bhi	.L584
 4572 0008 DFE801F0 		tbb	[pc, r1]
 4573              	.L586:
 4574 000c 09       		.byte	(.L590-.L586)/2
 4575 000d 3B       		.byte	(.L584-.L586)/2
 4576 000e 3B       		.byte	(.L584-.L586)/2
 4577 000f 3B       		.byte	(.L584-.L586)/2
 4578 0010 1F       		.byte	(.L589-.L586)/2
 4579 0011 3B       		.byte	(.L584-.L586)/2
 4580 0012 3B       		.byte	(.L584-.L586)/2
ARM GAS  C:\Users\Nathan\AppData\Local\Temp\ccPdMrK0.s 			page 78


 4581 0013 3B       		.byte	(.L584-.L586)/2
 4582 0014 26       		.byte	(.L588-.L586)/2
 4583 0015 3B       		.byte	(.L584-.L586)/2
 4584 0016 3B       		.byte	(.L584-.L586)/2
 4585 0017 3B       		.byte	(.L584-.L586)/2
 4586 0018 2D       		.byte	(.L587-.L586)/2
 4587 0019 3B       		.byte	(.L584-.L586)/2
 4588 001a 3B       		.byte	(.L584-.L586)/2
 4589 001b 3B       		.byte	(.L584-.L586)/2
 4590 001c 34       		.byte	(.L585-.L586)/2
 4591 001d 00       		.p2align 1
 4592              	.L590:
 4593 001e 90F83E30 		ldrb	r3, [r0, #62]	@ zero_extendqisi2
 4594 0022 DBB2     		uxtb	r3, r3
 4595 0024 013B     		subs	r3, r3, #1
 4596 0026 18BF     		it	ne
 4597 0028 0123     		movne	r3, #1
 4598              	.L591:
 4599 002a 002B     		cmp	r3, #0
 4600 002c 40F0AA80 		bne	.L610
 4601 0030 1029     		cmp	r1, #16
 4602 0032 76D8     		bhi	.L593
 4603 0034 DFE801F0 		tbb	[pc, r1]
 4604              	.L595:
 4605 0038 2C       		.byte	(.L599-.L595)/2
 4606 0039 75       		.byte	(.L593-.L595)/2
 4607 003a 75       		.byte	(.L593-.L595)/2
 4608 003b 75       		.byte	(.L593-.L595)/2
 4609 003c 55       		.byte	(.L598-.L595)/2
 4610 003d 75       		.byte	(.L593-.L595)/2
 4611 003e 75       		.byte	(.L593-.L595)/2
 4612 003f 75       		.byte	(.L593-.L595)/2
 4613 0040 5E       		.byte	(.L597-.L595)/2
 4614 0041 75       		.byte	(.L593-.L595)/2
 4615 0042 75       		.byte	(.L593-.L595)/2
 4616 0043 75       		.byte	(.L593-.L595)/2
 4617 0044 67       		.byte	(.L596-.L595)/2
 4618 0045 75       		.byte	(.L593-.L595)/2
 4619 0046 75       		.byte	(.L593-.L595)/2
 4620 0047 75       		.byte	(.L593-.L595)/2
 4621 0048 70       		.byte	(.L594-.L595)/2
 4622 0049 00       		.p2align 1
 4623              	.L589:
 4624 004a 90F83F30 		ldrb	r3, [r0, #63]	@ zero_extendqisi2
 4625 004e DBB2     		uxtb	r3, r3
 4626 0050 013B     		subs	r3, r3, #1
 4627 0052 18BF     		it	ne
 4628 0054 0123     		movne	r3, #1
 4629 0056 E8E7     		b	.L591
 4630              	.L588:
 4631 0058 90F84030 		ldrb	r3, [r0, #64]	@ zero_extendqisi2
 4632 005c DBB2     		uxtb	r3, r3
 4633 005e 013B     		subs	r3, r3, #1
 4634 0060 18BF     		it	ne
 4635 0062 0123     		movne	r3, #1
 4636 0064 E1E7     		b	.L591
 4637              	.L587:
ARM GAS  C:\Users\Nathan\AppData\Local\Temp\ccPdMrK0.s 			page 79


 4638 0066 90F84130 		ldrb	r3, [r0, #65]	@ zero_extendqisi2
 4639 006a DBB2     		uxtb	r3, r3
 4640 006c 013B     		subs	r3, r3, #1
 4641 006e 18BF     		it	ne
 4642 0070 0123     		movne	r3, #1
 4643 0072 DAE7     		b	.L591
 4644              	.L585:
 4645 0074 90F84230 		ldrb	r3, [r0, #66]	@ zero_extendqisi2
 4646 0078 DBB2     		uxtb	r3, r3
 4647 007a 013B     		subs	r3, r3, #1
 4648 007c 18BF     		it	ne
 4649 007e 0123     		movne	r3, #1
 4650 0080 D3E7     		b	.L591
 4651              	.L584:
 4652 0082 90F84330 		ldrb	r3, [r0, #67]	@ zero_extendqisi2
 4653 0086 DBB2     		uxtb	r3, r3
 4654 0088 013B     		subs	r3, r3, #1
 4655 008a 18BF     		it	ne
 4656 008c 0123     		movne	r3, #1
 4657 008e CCE7     		b	.L591
 4658              	.L599:
 4659 0090 0223     		movs	r3, #2
 4660 0092 84F83E30 		strb	r3, [r4, #62]
 4661              	.L600:
 4662 0096 2268     		ldr	r2, [r4]
 4663 0098 D368     		ldr	r3, [r2, #12]
 4664 009a 43F00203 		orr	r3, r3, #2
 4665 009e D360     		str	r3, [r2, #12]
 4666              	.L605:
 4667 00a0 0122     		movs	r2, #1
 4668 00a2 2068     		ldr	r0, [r4]
 4669 00a4 FFF7FEFF 		bl	TIM_CCxChannelCmd
 4670 00a8 2368     		ldr	r3, [r4]
 4671 00aa 3A4A     		ldr	r2, .L619
 4672 00ac 9342     		cmp	r3, r2
 4673 00ae 07D0     		beq	.L606
 4674 00b0 02F5C052 		add	r2, r2, #6144
 4675 00b4 9342     		cmp	r3, r2
 4676 00b6 03D0     		beq	.L606
 4677 00b8 02F58062 		add	r2, r2, #1024
 4678 00bc 9342     		cmp	r3, r2
 4679 00be 03D1     		bne	.L607
 4680              	.L606:
 4681 00c0 5A6C     		ldr	r2, [r3, #68]
 4682 00c2 42F40042 		orr	r2, r2, #32768
 4683 00c6 5A64     		str	r2, [r3, #68]
 4684              	.L607:
 4685 00c8 2368     		ldr	r3, [r4]
 4686 00ca 324A     		ldr	r2, .L619
 4687 00cc 9342     		cmp	r3, r2
 4688 00ce 4BD0     		beq	.L608
 4689 00d0 B3F1804F 		cmp	r3, #1073741824
 4690 00d4 48D0     		beq	.L608
 4691 00d6 1A68     		ldr	r2, [r3]
 4692 00d8 42F00102 		orr	r2, r2, #1
 4693 00dc 1A60     		str	r2, [r3]
 4694 00de 0020     		movs	r0, #0
ARM GAS  C:\Users\Nathan\AppData\Local\Temp\ccPdMrK0.s 			page 80


 4695 00e0 51E0     		b	.L592
 4696              	.L598:
 4697 00e2 0223     		movs	r3, #2
 4698 00e4 84F83F30 		strb	r3, [r4, #63]
 4699              	.L601:
 4700 00e8 2268     		ldr	r2, [r4]
 4701 00ea D368     		ldr	r3, [r2, #12]
 4702 00ec 43F00403 		orr	r3, r3, #4
 4703 00f0 D360     		str	r3, [r2, #12]
 4704 00f2 D5E7     		b	.L605
 4705              	.L597:
 4706 00f4 0223     		movs	r3, #2
 4707 00f6 84F84030 		strb	r3, [r4, #64]
 4708              	.L602:
 4709 00fa 2268     		ldr	r2, [r4]
 4710 00fc D368     		ldr	r3, [r2, #12]
 4711 00fe 43F00803 		orr	r3, r3, #8
 4712 0102 D360     		str	r3, [r2, #12]
 4713 0104 CCE7     		b	.L605
 4714              	.L596:
 4715 0106 0223     		movs	r3, #2
 4716 0108 84F84130 		strb	r3, [r4, #65]
 4717              	.L603:
 4718 010c 2268     		ldr	r2, [r4]
 4719 010e D368     		ldr	r3, [r2, #12]
 4720 0110 43F01003 		orr	r3, r3, #16
 4721 0114 D360     		str	r3, [r2, #12]
 4722 0116 C3E7     		b	.L605
 4723              	.L594:
 4724 0118 0223     		movs	r3, #2
 4725 011a 84F84230 		strb	r3, [r4, #66]
 4726 011e 0120     		movs	r0, #1
 4727 0120 31E0     		b	.L592
 4728              	.L593:
 4729 0122 0223     		movs	r3, #2
 4730 0124 84F84330 		strb	r3, [r4, #67]
 4731 0128 0C29     		cmp	r1, #12
 4732 012a 2DD8     		bhi	.L611
 4733 012c 01A3     		adr	r3, .L604
 4734 012e 53F821F0 		ldr	pc, [r3, r1, lsl #2]
 4735 0132 00BF     		.p2align 2
 4736              	.L604:
 4737 0134 97000000 		.word	.L600+1
 4738 0138 89010000 		.word	.L611+1
 4739 013c 89010000 		.word	.L611+1
 4740 0140 89010000 		.word	.L611+1
 4741 0144 E9000000 		.word	.L601+1
 4742 0148 89010000 		.word	.L611+1
 4743 014c 89010000 		.word	.L611+1
 4744 0150 89010000 		.word	.L611+1
 4745 0154 FB000000 		.word	.L602+1
 4746 0158 89010000 		.word	.L611+1
 4747 015c 89010000 		.word	.L611+1
 4748 0160 89010000 		.word	.L611+1
 4749 0164 0D010000 		.word	.L603+1
 4750              		.p2align 1
 4751              	.L608:
ARM GAS  C:\Users\Nathan\AppData\Local\Temp\ccPdMrK0.s 			page 81


 4752 0168 9968     		ldr	r1, [r3, #8]
 4753 016a 0B4A     		ldr	r2, .L619+4
 4754 016c 0A40     		ands	r2, r2, r1
 4755 016e 062A     		cmp	r2, #6
 4756 0170 0CD0     		beq	.L612
 4757 0172 B2F5803F 		cmp	r2, #65536
 4758 0176 0BD0     		beq	.L613
 4759 0178 1A68     		ldr	r2, [r3]
 4760 017a 42F00102 		orr	r2, r2, #1
 4761 017e 1A60     		str	r2, [r3]
 4762 0180 0020     		movs	r0, #0
 4763 0182 00E0     		b	.L592
 4764              	.L610:
 4765 0184 0120     		movs	r0, #1
 4766              	.L592:
 4767 0186 10BD     		pop	{r4, pc}
 4768              	.L611:
 4769 0188 0120     		movs	r0, #1
 4770 018a FCE7     		b	.L592
 4771              	.L612:
 4772 018c 0020     		movs	r0, #0
 4773 018e FAE7     		b	.L592
 4774              	.L613:
 4775 0190 0020     		movs	r0, #0
 4776 0192 F8E7     		b	.L592
 4777              	.L620:
 4778              		.align	2
 4779              	.L619:
 4780 0194 002C0140 		.word	1073818624
 4781 0198 07000100 		.word	65543
 4783              		.section	.text.HAL_TIM_OC_Stop_IT,"ax",%progbits
 4784              		.align	1
 4785              		.global	HAL_TIM_OC_Stop_IT
 4786              		.syntax unified
 4787              		.thumb
 4788              		.thumb_func
 4790              	HAL_TIM_OC_Stop_IT:
 4791              		@ args = 0, pretend = 0, frame = 0
 4792              		@ frame_needed = 0, uses_anonymous_args = 0
 4793 0000 38B5     		push	{r3, r4, r5, lr}
 4794 0002 0546     		mov	r5, r0
 4795 0004 0C46     		mov	r4, r1
 4796 0006 0C29     		cmp	r1, #12
 4797 0008 7CD8     		bhi	.L639
 4798 000a DFE801F0 		tbb	[pc, r1]
 4799              	.L624:
 4800 000e 07       		.byte	(.L627-.L624)/2
 4801 000f 7B       		.byte	(.L639-.L624)/2
 4802 0010 7B       		.byte	(.L639-.L624)/2
 4803 0011 7B       		.byte	(.L639-.L624)/2
 4804 0012 3A       		.byte	(.L626-.L624)/2
 4805 0013 7B       		.byte	(.L639-.L624)/2
 4806 0014 7B       		.byte	(.L639-.L624)/2
 4807 0015 7B       		.byte	(.L639-.L624)/2
 4808 0016 40       		.byte	(.L625-.L624)/2
 4809 0017 7B       		.byte	(.L639-.L624)/2
 4810 0018 7B       		.byte	(.L639-.L624)/2
ARM GAS  C:\Users\Nathan\AppData\Local\Temp\ccPdMrK0.s 			page 82


 4811 0019 7B       		.byte	(.L639-.L624)/2
 4812 001a 46       		.byte	(.L623-.L624)/2
 4813 001b 00       		.p2align 1
 4814              	.L627:
 4815 001c 0268     		ldr	r2, [r0]
 4816 001e D368     		ldr	r3, [r2, #12]
 4817 0020 23F00203 		bic	r3, r3, #2
 4818 0024 D360     		str	r3, [r2, #12]
 4819              	.L628:
 4820 0026 0022     		movs	r2, #0
 4821 0028 2146     		mov	r1, r4
 4822 002a 2868     		ldr	r0, [r5]
 4823 002c FFF7FEFF 		bl	TIM_CCxChannelCmd
 4824 0030 2B68     		ldr	r3, [r5]
 4825 0032 354A     		ldr	r2, .L641
 4826 0034 9342     		cmp	r3, r2
 4827 0036 36D0     		beq	.L629
 4828 0038 02F5C052 		add	r2, r2, #6144
 4829 003c 9342     		cmp	r3, r2
 4830 003e 32D0     		beq	.L629
 4831 0040 02F58062 		add	r2, r2, #1024
 4832 0044 9342     		cmp	r3, r2
 4833 0046 2ED0     		beq	.L629
 4834              	.L630:
 4835 0048 2A68     		ldr	r2, [r5]
 4836 004a 136A     		ldr	r3, [r2, #32]
 4837 004c 03F01133 		and	r3, r3, #286331153
 4838 0050 23F08853 		bic	r3, r3, #285212672
 4839 0054 43B9     		cbnz	r3, .L631
 4840 0056 116A     		ldr	r1, [r2, #32]
 4841 0058 40F24443 		movw	r3, #1092
 4842 005c 1942     		tst	r1, r3
 4843 005e 03D1     		bne	.L631
 4844 0060 1368     		ldr	r3, [r2]
 4845 0062 23F00103 		bic	r3, r3, #1
 4846 0066 1360     		str	r3, [r2]
 4847              	.L631:
 4848 0068 102C     		cmp	r4, #16
 4849 006a 46D8     		bhi	.L632
 4850 006c DFE804F0 		tbb	[pc, r4]
 4851              	.L634:
 4852 0070 2C       		.byte	(.L638-.L634)/2
 4853 0071 45       		.byte	(.L632-.L634)/2
 4854 0072 45       		.byte	(.L632-.L634)/2
 4855 0073 45       		.byte	(.L632-.L634)/2
 4856 0074 31       		.byte	(.L637-.L634)/2
 4857 0075 45       		.byte	(.L632-.L634)/2
 4858 0076 45       		.byte	(.L632-.L634)/2
 4859 0077 45       		.byte	(.L632-.L634)/2
 4860 0078 36       		.byte	(.L636-.L634)/2
 4861 0079 45       		.byte	(.L632-.L634)/2
 4862 007a 45       		.byte	(.L632-.L634)/2
 4863 007b 45       		.byte	(.L632-.L634)/2
 4864 007c 3B       		.byte	(.L635-.L634)/2
 4865 007d 45       		.byte	(.L632-.L634)/2
 4866 007e 45       		.byte	(.L632-.L634)/2
 4867 007f 45       		.byte	(.L632-.L634)/2
ARM GAS  C:\Users\Nathan\AppData\Local\Temp\ccPdMrK0.s 			page 83


 4868 0080 40       		.byte	(.L633-.L634)/2
 4869 0081 00       		.p2align 1
 4870              	.L626:
 4871 0082 0268     		ldr	r2, [r0]
 4872 0084 D368     		ldr	r3, [r2, #12]
 4873 0086 23F00403 		bic	r3, r3, #4
 4874 008a D360     		str	r3, [r2, #12]
 4875 008c CBE7     		b	.L628
 4876              	.L625:
 4877 008e 0268     		ldr	r2, [r0]
 4878 0090 D368     		ldr	r3, [r2, #12]
 4879 0092 23F00803 		bic	r3, r3, #8
 4880 0096 D360     		str	r3, [r2, #12]
 4881 0098 C5E7     		b	.L628
 4882              	.L623:
 4883 009a 0268     		ldr	r2, [r0]
 4884 009c D368     		ldr	r3, [r2, #12]
 4885 009e 23F01003 		bic	r3, r3, #16
 4886 00a2 D360     		str	r3, [r2, #12]
 4887 00a4 BFE7     		b	.L628
 4888              	.L629:
 4889 00a6 1A6A     		ldr	r2, [r3, #32]
 4890 00a8 02F01132 		and	r2, r2, #286331153
 4891 00ac 22F08852 		bic	r2, r2, #285212672
 4892 00b0 002A     		cmp	r2, #0
 4893 00b2 C9D1     		bne	.L630
 4894 00b4 196A     		ldr	r1, [r3, #32]
 4895 00b6 40F24442 		movw	r2, #1092
 4896 00ba 1142     		tst	r1, r2
 4897 00bc C4D1     		bne	.L630
 4898 00be 5A6C     		ldr	r2, [r3, #68]
 4899 00c0 22F40042 		bic	r2, r2, #32768
 4900 00c4 5A64     		str	r2, [r3, #68]
 4901 00c6 BFE7     		b	.L630
 4902              	.L638:
 4903 00c8 0123     		movs	r3, #1
 4904 00ca 85F83E30 		strb	r3, [r5, #62]
 4905 00ce 0020     		movs	r0, #0
 4906 00d0 19E0     		b	.L622
 4907              	.L637:
 4908 00d2 0123     		movs	r3, #1
 4909 00d4 85F83F30 		strb	r3, [r5, #63]
 4910 00d8 0020     		movs	r0, #0
 4911 00da 14E0     		b	.L622
 4912              	.L636:
 4913 00dc 0123     		movs	r3, #1
 4914 00de 85F84030 		strb	r3, [r5, #64]
 4915 00e2 0020     		movs	r0, #0
 4916 00e4 0FE0     		b	.L622
 4917              	.L635:
 4918 00e6 0123     		movs	r3, #1
 4919 00e8 85F84130 		strb	r3, [r5, #65]
 4920 00ec 0020     		movs	r0, #0
 4921 00ee 0AE0     		b	.L622
 4922              	.L633:
 4923 00f0 0123     		movs	r3, #1
 4924 00f2 85F84230 		strb	r3, [r5, #66]
ARM GAS  C:\Users\Nathan\AppData\Local\Temp\ccPdMrK0.s 			page 84


 4925 00f6 0020     		movs	r0, #0
 4926 00f8 05E0     		b	.L622
 4927              	.L632:
 4928 00fa 0123     		movs	r3, #1
 4929 00fc 85F84330 		strb	r3, [r5, #67]
 4930 0100 0020     		movs	r0, #0
 4931 0102 00E0     		b	.L622
 4932              	.L639:
 4933 0104 0120     		movs	r0, #1
 4934              	.L622:
 4935 0106 38BD     		pop	{r3, r4, r5, pc}
 4936              	.L642:
 4937              		.align	2
 4938              	.L641:
 4939 0108 002C0140 		.word	1073818624
 4941              		.section	.text.HAL_TIM_OC_Start_DMA,"ax",%progbits
 4942              		.align	1
 4943              		.global	HAL_TIM_OC_Start_DMA
 4944              		.syntax unified
 4945              		.thumb
 4946              		.thumb_func
 4948              	HAL_TIM_OC_Start_DMA:
 4949              		@ args = 0, pretend = 0, frame = 0
 4950              		@ frame_needed = 0, uses_anonymous_args = 0
 4951 0000 38B5     		push	{r3, r4, r5, lr}
 4952 0002 0546     		mov	r5, r0
 4953 0004 0C46     		mov	r4, r1
 4954 0006 1146     		mov	r1, r2
 4955 0008 102C     		cmp	r4, #16
 4956 000a 41D8     		bhi	.L644
 4957 000c DFE804F0 		tbb	[pc, r4]
 4958              	.L646:
 4959 0010 09       		.byte	(.L650-.L646)/2
 4960 0011 40       		.byte	(.L644-.L646)/2
 4961 0012 40       		.byte	(.L644-.L646)/2
 4962 0013 40       		.byte	(.L644-.L646)/2
 4963 0014 20       		.byte	(.L649-.L646)/2
 4964 0015 40       		.byte	(.L644-.L646)/2
 4965 0016 40       		.byte	(.L644-.L646)/2
 4966 0017 40       		.byte	(.L644-.L646)/2
 4967 0018 28       		.byte	(.L648-.L646)/2
 4968 0019 40       		.byte	(.L644-.L646)/2
 4969 001a 40       		.byte	(.L644-.L646)/2
 4970 001b 40       		.byte	(.L644-.L646)/2
 4971 001c 30       		.byte	(.L647-.L646)/2
 4972 001d 40       		.byte	(.L644-.L646)/2
 4973 001e 40       		.byte	(.L644-.L646)/2
 4974 001f 40       		.byte	(.L644-.L646)/2
 4975 0020 38       		.byte	(.L645-.L646)/2
 4976 0021 00       		.p2align 1
 4977              	.L650:
 4978 0022 90F83E00 		ldrb	r0, [r0, #62]	@ zero_extendqisi2
 4979 0026 C0B2     		uxtb	r0, r0
 4980 0028 0228     		cmp	r0, #2
 4981 002a 14BF     		ite	ne
 4982 002c 0020     		movne	r0, #0
 4983 002e 0120     		moveq	r0, #1
ARM GAS  C:\Users\Nathan\AppData\Local\Temp\ccPdMrK0.s 			page 85


 4984              	.L651:
 4985 0030 0028     		cmp	r0, #0
 4986 0032 40F03F81 		bne	.L678
 4987 0036 102C     		cmp	r4, #16
 4988 0038 78D8     		bhi	.L653
 4989 003a DFE804F0 		tbb	[pc, r4]
 4990              	.L655:
 4991 003e 31       		.byte	(.L659-.L655)/2
 4992 003f 77       		.byte	(.L653-.L655)/2
 4993 0040 77       		.byte	(.L653-.L655)/2
 4994 0041 77       		.byte	(.L653-.L655)/2
 4995 0042 57       		.byte	(.L658-.L655)/2
 4996 0043 77       		.byte	(.L653-.L655)/2
 4997 0044 77       		.byte	(.L653-.L655)/2
 4998 0045 77       		.byte	(.L653-.L655)/2
 4999 0046 5F       		.byte	(.L657-.L655)/2
 5000 0047 77       		.byte	(.L653-.L655)/2
 5001 0048 77       		.byte	(.L653-.L655)/2
 5002 0049 77       		.byte	(.L653-.L655)/2
 5003 004a 67       		.byte	(.L656-.L655)/2
 5004 004b 77       		.byte	(.L653-.L655)/2
 5005 004c 77       		.byte	(.L653-.L655)/2
 5006 004d 77       		.byte	(.L653-.L655)/2
 5007 004e 6F       		.byte	(.L654-.L655)/2
 5008 004f 00       		.p2align 1
 5009              	.L649:
 5010 0050 90F83F00 		ldrb	r0, [r0, #63]	@ zero_extendqisi2
 5011 0054 C0B2     		uxtb	r0, r0
 5012 0056 0228     		cmp	r0, #2
 5013 0058 14BF     		ite	ne
 5014 005a 0020     		movne	r0, #0
 5015 005c 0120     		moveq	r0, #1
 5016 005e E7E7     		b	.L651
 5017              	.L648:
 5018 0060 90F84000 		ldrb	r0, [r0, #64]	@ zero_extendqisi2
 5019 0064 C0B2     		uxtb	r0, r0
 5020 0066 0228     		cmp	r0, #2
 5021 0068 14BF     		ite	ne
 5022 006a 0020     		movne	r0, #0
 5023 006c 0120     		moveq	r0, #1
 5024 006e DFE7     		b	.L651
 5025              	.L647:
 5026 0070 90F84100 		ldrb	r0, [r0, #65]	@ zero_extendqisi2
 5027 0074 C0B2     		uxtb	r0, r0
 5028 0076 0228     		cmp	r0, #2
 5029 0078 14BF     		ite	ne
 5030 007a 0020     		movne	r0, #0
 5031 007c 0120     		moveq	r0, #1
 5032 007e D7E7     		b	.L651
 5033              	.L645:
 5034 0080 90F84200 		ldrb	r0, [r0, #66]	@ zero_extendqisi2
 5035 0084 C0B2     		uxtb	r0, r0
 5036 0086 0228     		cmp	r0, #2
 5037 0088 14BF     		ite	ne
 5038 008a 0020     		movne	r0, #0
 5039 008c 0120     		moveq	r0, #1
 5040 008e CFE7     		b	.L651
ARM GAS  C:\Users\Nathan\AppData\Local\Temp\ccPdMrK0.s 			page 86


 5041              	.L644:
 5042 0090 90F84300 		ldrb	r0, [r0, #67]	@ zero_extendqisi2
 5043 0094 C0B2     		uxtb	r0, r0
 5044 0096 0228     		cmp	r0, #2
 5045 0098 14BF     		ite	ne
 5046 009a 0020     		movne	r0, #0
 5047 009c 0120     		moveq	r0, #1
 5048 009e C7E7     		b	.L651
 5049              	.L659:
 5050 00a0 95F83E20 		ldrb	r2, [r5, #62]	@ zero_extendqisi2
 5051 00a4 D2B2     		uxtb	r2, r2
 5052 00a6 012A     		cmp	r2, #1
 5053 00a8 14BF     		ite	ne
 5054 00aa 0022     		movne	r2, #0
 5055 00ac 0122     		moveq	r2, #1
 5056              	.L660:
 5057 00ae 002A     		cmp	r2, #0
 5058 00b0 00F00281 		beq	.L679
 5059 00b4 0029     		cmp	r1, #0
 5060 00b6 00F00181 		beq	.L680
 5061 00ba 002B     		cmp	r3, #0
 5062 00bc 00F00081 		beq	.L681
 5063 00c0 102C     		cmp	r4, #16
 5064 00c2 00F2C680 		bhi	.L661
 5065 00c6 DFE814F0 		tbh	[pc, r4, lsl #1]
 5066              	.L663:
 5067 00ca 3900     		.2byte	(.L667-.L663)/2
 5068 00cc C400     		.2byte	(.L661-.L663)/2
 5069 00ce C400     		.2byte	(.L661-.L663)/2
 5070 00d0 C400     		.2byte	(.L661-.L663)/2
 5071 00d2 7400     		.2byte	(.L666-.L663)/2
 5072 00d4 C400     		.2byte	(.L661-.L663)/2
 5073 00d6 C400     		.2byte	(.L661-.L663)/2
 5074 00d8 C400     		.2byte	(.L661-.L663)/2
 5075 00da 8D00     		.2byte	(.L665-.L663)/2
 5076 00dc C400     		.2byte	(.L661-.L663)/2
 5077 00de C400     		.2byte	(.L661-.L663)/2
 5078 00e0 C400     		.2byte	(.L661-.L663)/2
 5079 00e2 A600     		.2byte	(.L664-.L663)/2
 5080 00e4 C400     		.2byte	(.L661-.L663)/2
 5081 00e6 C400     		.2byte	(.L661-.L663)/2
 5082 00e8 C400     		.2byte	(.L661-.L663)/2
 5083 00ea BF00     		.2byte	(.L662-.L663)/2
 5084              		.p2align 1
 5085              	.L658:
 5086 00ec 95F83F20 		ldrb	r2, [r5, #63]	@ zero_extendqisi2
 5087 00f0 D2B2     		uxtb	r2, r2
 5088 00f2 012A     		cmp	r2, #1
 5089 00f4 14BF     		ite	ne
 5090 00f6 0022     		movne	r2, #0
 5091 00f8 0122     		moveq	r2, #1
 5092 00fa D8E7     		b	.L660
 5093              	.L657:
 5094 00fc 95F84020 		ldrb	r2, [r5, #64]	@ zero_extendqisi2
 5095 0100 D2B2     		uxtb	r2, r2
 5096 0102 012A     		cmp	r2, #1
 5097 0104 14BF     		ite	ne
ARM GAS  C:\Users\Nathan\AppData\Local\Temp\ccPdMrK0.s 			page 87


 5098 0106 0022     		movne	r2, #0
 5099 0108 0122     		moveq	r2, #1
 5100 010a D0E7     		b	.L660
 5101              	.L656:
 5102 010c 95F84120 		ldrb	r2, [r5, #65]	@ zero_extendqisi2
 5103 0110 D2B2     		uxtb	r2, r2
 5104 0112 012A     		cmp	r2, #1
 5105 0114 14BF     		ite	ne
 5106 0116 0022     		movne	r2, #0
 5107 0118 0122     		moveq	r2, #1
 5108 011a C8E7     		b	.L660
 5109              	.L654:
 5110 011c 95F84220 		ldrb	r2, [r5, #66]	@ zero_extendqisi2
 5111 0120 D2B2     		uxtb	r2, r2
 5112 0122 012A     		cmp	r2, #1
 5113 0124 14BF     		ite	ne
 5114 0126 0022     		movne	r2, #0
 5115 0128 0122     		moveq	r2, #1
 5116 012a C0E7     		b	.L660
 5117              	.L653:
 5118 012c 95F84320 		ldrb	r2, [r5, #67]	@ zero_extendqisi2
 5119 0130 D2B2     		uxtb	r2, r2
 5120 0132 012A     		cmp	r2, #1
 5121 0134 14BF     		ite	ne
 5122 0136 0022     		movne	r2, #0
 5123 0138 0122     		moveq	r2, #1
 5124 013a B8E7     		b	.L660
 5125              	.L667:
 5126 013c 0222     		movs	r2, #2
 5127 013e 85F83E20 		strb	r2, [r5, #62]
 5128              	.L668:
 5129 0142 6A6A     		ldr	r2, [r5, #36]
 5130 0144 6648     		ldr	r0, .L694
 5131 0146 D062     		str	r0, [r2, #44]
 5132 0148 6A6A     		ldr	r2, [r5, #36]
 5133 014a 6648     		ldr	r0, .L694+4
 5134 014c 1063     		str	r0, [r2, #48]
 5135 014e 6A6A     		ldr	r2, [r5, #36]
 5136 0150 6548     		ldr	r0, .L694+8
 5137 0152 5063     		str	r0, [r2, #52]
 5138 0154 2A68     		ldr	r2, [r5]
 5139 0156 3432     		adds	r2, r2, #52
 5140 0158 686A     		ldr	r0, [r5, #36]
 5141 015a FFF7FEFF 		bl	HAL_DMA_Start_IT
 5142 015e 0028     		cmp	r0, #0
 5143 0160 40F0B280 		bne	.L683
 5144 0164 2A68     		ldr	r2, [r5]
 5145 0166 D368     		ldr	r3, [r2, #12]
 5146 0168 43F40073 		orr	r3, r3, #512
 5147 016c D360     		str	r3, [r2, #12]
 5148              	.L673:
 5149 016e 0122     		movs	r2, #1
 5150 0170 2146     		mov	r1, r4
 5151 0172 2868     		ldr	r0, [r5]
 5152 0174 FFF7FEFF 		bl	TIM_CCxChannelCmd
 5153 0178 2B68     		ldr	r3, [r5]
 5154 017a 5C4A     		ldr	r2, .L694+12
ARM GAS  C:\Users\Nathan\AppData\Local\Temp\ccPdMrK0.s 			page 88


 5155 017c 9342     		cmp	r3, r2
 5156 017e 07D0     		beq	.L674
 5157 0180 02F5C052 		add	r2, r2, #6144
 5158 0184 9342     		cmp	r3, r2
 5159 0186 03D0     		beq	.L674
 5160 0188 02F58062 		add	r2, r2, #1024
 5161 018c 9342     		cmp	r3, r2
 5162 018e 03D1     		bne	.L675
 5163              	.L674:
 5164 0190 5A6C     		ldr	r2, [r3, #68]
 5165 0192 42F40042 		orr	r2, r2, #32768
 5166 0196 5A64     		str	r2, [r3, #68]
 5167              	.L675:
 5168 0198 2B68     		ldr	r3, [r5]
 5169 019a 544A     		ldr	r2, .L694+12
 5170 019c 9342     		cmp	r3, r2
 5171 019e 7BD0     		beq	.L676
 5172 01a0 B3F1804F 		cmp	r3, #1073741824
 5173 01a4 78D0     		beq	.L676
 5174 01a6 1A68     		ldr	r2, [r3]
 5175 01a8 42F00102 		orr	r2, r2, #1
 5176 01ac 1A60     		str	r2, [r3]
 5177 01ae 0020     		movs	r0, #0
 5178 01b0 83E0     		b	.L652
 5179              	.L666:
 5180 01b2 0222     		movs	r2, #2
 5181 01b4 85F83F20 		strb	r2, [r5, #63]
 5182              	.L669:
 5183 01b8 AA6A     		ldr	r2, [r5, #40]
 5184 01ba 4948     		ldr	r0, .L694
 5185 01bc D062     		str	r0, [r2, #44]
 5186 01be AA6A     		ldr	r2, [r5, #40]
 5187 01c0 4848     		ldr	r0, .L694+4
 5188 01c2 1063     		str	r0, [r2, #48]
 5189 01c4 AA6A     		ldr	r2, [r5, #40]
 5190 01c6 4848     		ldr	r0, .L694+8
 5191 01c8 5063     		str	r0, [r2, #52]
 5192 01ca 2A68     		ldr	r2, [r5]
 5193 01cc 3832     		adds	r2, r2, #56
 5194 01ce A86A     		ldr	r0, [r5, #40]
 5195 01d0 FFF7FEFF 		bl	HAL_DMA_Start_IT
 5196 01d4 0028     		cmp	r0, #0
 5197 01d6 79D1     		bne	.L684
 5198 01d8 2A68     		ldr	r2, [r5]
 5199 01da D368     		ldr	r3, [r2, #12]
 5200 01dc 43F48063 		orr	r3, r3, #1024
 5201 01e0 D360     		str	r3, [r2, #12]
 5202 01e2 C4E7     		b	.L673
 5203              	.L665:
 5204 01e4 0222     		movs	r2, #2
 5205 01e6 85F84020 		strb	r2, [r5, #64]
 5206              	.L670:
 5207 01ea EA6A     		ldr	r2, [r5, #44]
 5208 01ec 3C48     		ldr	r0, .L694
 5209 01ee D062     		str	r0, [r2, #44]
 5210 01f0 EA6A     		ldr	r2, [r5, #44]
 5211 01f2 3C48     		ldr	r0, .L694+4
ARM GAS  C:\Users\Nathan\AppData\Local\Temp\ccPdMrK0.s 			page 89


 5212 01f4 1063     		str	r0, [r2, #48]
 5213 01f6 EA6A     		ldr	r2, [r5, #44]
 5214 01f8 3B48     		ldr	r0, .L694+8
 5215 01fa 5063     		str	r0, [r2, #52]
 5216 01fc 2A68     		ldr	r2, [r5]
 5217 01fe 3C32     		adds	r2, r2, #60
 5218 0200 E86A     		ldr	r0, [r5, #44]
 5219 0202 FFF7FEFF 		bl	HAL_DMA_Start_IT
 5220 0206 0028     		cmp	r0, #0
 5221 0208 62D1     		bne	.L685
 5222 020a 2A68     		ldr	r2, [r5]
 5223 020c D368     		ldr	r3, [r2, #12]
 5224 020e 43F40063 		orr	r3, r3, #2048
 5225 0212 D360     		str	r3, [r2, #12]
 5226 0214 ABE7     		b	.L673
 5227              	.L664:
 5228 0216 0222     		movs	r2, #2
 5229 0218 85F84120 		strb	r2, [r5, #65]
 5230              	.L671:
 5231 021c 2A6B     		ldr	r2, [r5, #48]
 5232 021e 3048     		ldr	r0, .L694
 5233 0220 D062     		str	r0, [r2, #44]
 5234 0222 2A6B     		ldr	r2, [r5, #48]
 5235 0224 2F48     		ldr	r0, .L694+4
 5236 0226 1063     		str	r0, [r2, #48]
 5237 0228 2A6B     		ldr	r2, [r5, #48]
 5238 022a 2F48     		ldr	r0, .L694+8
 5239 022c 5063     		str	r0, [r2, #52]
 5240 022e 2A68     		ldr	r2, [r5]
 5241 0230 4032     		adds	r2, r2, #64
 5242 0232 286B     		ldr	r0, [r5, #48]
 5243 0234 FFF7FEFF 		bl	HAL_DMA_Start_IT
 5244 0238 0028     		cmp	r0, #0
 5245 023a 4BD1     		bne	.L686
 5246 023c 2A68     		ldr	r2, [r5]
 5247 023e D368     		ldr	r3, [r2, #12]
 5248 0240 43F48053 		orr	r3, r3, #4096
 5249 0244 D360     		str	r3, [r2, #12]
 5250 0246 92E7     		b	.L673
 5251              	.L662:
 5252 0248 0223     		movs	r3, #2
 5253 024a 85F84230 		strb	r3, [r5, #66]
 5254 024e 0120     		movs	r0, #1
 5255 0250 33E0     		b	.L652
 5256              	.L661:
 5257 0252 0222     		movs	r2, #2
 5258 0254 85F84320 		strb	r2, [r5, #67]
 5259 0258 0C2C     		cmp	r4, #12
 5260 025a 33D8     		bhi	.L682
 5261 025c 01A2     		adr	r2, .L672
 5262 025e 52F824F0 		ldr	pc, [r2, r4, lsl #2]
 5263 0262 00BF     		.p2align 2
 5264              	.L672:
 5265 0264 43010000 		.word	.L668+1
 5266 0268 C5020000 		.word	.L682+1
 5267 026c C5020000 		.word	.L682+1
 5268 0270 C5020000 		.word	.L682+1
ARM GAS  C:\Users\Nathan\AppData\Local\Temp\ccPdMrK0.s 			page 90


 5269 0274 B9010000 		.word	.L669+1
 5270 0278 C5020000 		.word	.L682+1
 5271 027c C5020000 		.word	.L682+1
 5272 0280 C5020000 		.word	.L682+1
 5273 0284 EB010000 		.word	.L670+1
 5274 0288 C5020000 		.word	.L682+1
 5275 028c C5020000 		.word	.L682+1
 5276 0290 C5020000 		.word	.L682+1
 5277 0294 1D020000 		.word	.L671+1
 5278              		.p2align 1
 5279              	.L676:
 5280 0298 9968     		ldr	r1, [r3, #8]
 5281 029a 154A     		ldr	r2, .L694+16
 5282 029c 0A40     		ands	r2, r2, r1
 5283 029e 062A     		cmp	r2, #6
 5284 02a0 1AD0     		beq	.L687
 5285 02a2 B2F5803F 		cmp	r2, #65536
 5286 02a6 19D0     		beq	.L688
 5287 02a8 1A68     		ldr	r2, [r3]
 5288 02aa 42F00102 		orr	r2, r2, #1
 5289 02ae 1A60     		str	r2, [r3]
 5290 02b0 0020     		movs	r0, #0
 5291 02b2 02E0     		b	.L652
 5292              	.L678:
 5293 02b4 0220     		movs	r0, #2
 5294 02b6 00E0     		b	.L652
 5295              	.L679:
 5296 02b8 0120     		movs	r0, #1
 5297              	.L652:
 5298 02ba 38BD     		pop	{r3, r4, r5, pc}
 5299              	.L680:
 5300 02bc 0120     		movs	r0, #1
 5301 02be FCE7     		b	.L652
 5302              	.L681:
 5303 02c0 0120     		movs	r0, #1
 5304 02c2 FAE7     		b	.L652
 5305              	.L682:
 5306 02c4 0120     		movs	r0, #1
 5307 02c6 F8E7     		b	.L652
 5308              	.L683:
 5309 02c8 0120     		movs	r0, #1
 5310 02ca F6E7     		b	.L652
 5311              	.L684:
 5312 02cc 0120     		movs	r0, #1
 5313 02ce F4E7     		b	.L652
 5314              	.L685:
 5315 02d0 0120     		movs	r0, #1
 5316 02d2 F2E7     		b	.L652
 5317              	.L686:
 5318 02d4 0120     		movs	r0, #1
 5319 02d6 F0E7     		b	.L652
 5320              	.L687:
 5321 02d8 0020     		movs	r0, #0
 5322 02da EEE7     		b	.L652
 5323              	.L688:
 5324 02dc 0020     		movs	r0, #0
 5325 02de ECE7     		b	.L652
ARM GAS  C:\Users\Nathan\AppData\Local\Temp\ccPdMrK0.s 			page 91


 5326              	.L695:
 5327              		.align	2
 5328              	.L694:
 5329 02e0 00000000 		.word	TIM_DMADelayPulseCplt
 5330 02e4 00000000 		.word	TIM_DMADelayPulseHalfCplt
 5331 02e8 00000000 		.word	TIM_DMAError
 5332 02ec 002C0140 		.word	1073818624
 5333 02f0 07000100 		.word	65543
 5335              		.section	.text.HAL_TIM_OC_Stop_DMA,"ax",%progbits
 5336              		.align	1
 5337              		.global	HAL_TIM_OC_Stop_DMA
 5338              		.syntax unified
 5339              		.thumb
 5340              		.thumb_func
 5342              	HAL_TIM_OC_Stop_DMA:
 5343              		@ args = 0, pretend = 0, frame = 0
 5344              		@ frame_needed = 0, uses_anonymous_args = 0
 5345 0000 38B5     		push	{r3, r4, r5, lr}
 5346 0002 0446     		mov	r4, r0
 5347 0004 0D46     		mov	r5, r1
 5348 0006 0C29     		cmp	r1, #12
 5349 0008 00F28980 		bhi	.L714
 5350 000c DFE801F0 		tbb	[pc, r1]
 5351              	.L699:
 5352 0010 07       		.byte	(.L702-.L699)/2
 5353 0011 87       		.byte	(.L714-.L699)/2
 5354 0012 87       		.byte	(.L714-.L699)/2
 5355 0013 87       		.byte	(.L714-.L699)/2
 5356 0014 3D       		.byte	(.L701-.L699)/2
 5357 0015 87       		.byte	(.L714-.L699)/2
 5358 0016 87       		.byte	(.L714-.L699)/2
 5359 0017 87       		.byte	(.L714-.L699)/2
 5360 0018 46       		.byte	(.L700-.L699)/2
 5361 0019 87       		.byte	(.L714-.L699)/2
 5362 001a 87       		.byte	(.L714-.L699)/2
 5363 001b 87       		.byte	(.L714-.L699)/2
 5364 001c 4F       		.byte	(.L698-.L699)/2
 5365 001d 00       		.p2align 1
 5366              	.L702:
 5367 001e 0268     		ldr	r2, [r0]
 5368 0020 D368     		ldr	r3, [r2, #12]
 5369 0022 23F40073 		bic	r3, r3, #512
 5370 0026 D360     		str	r3, [r2, #12]
 5371 0028 406A     		ldr	r0, [r0, #36]
 5372 002a FFF7FEFF 		bl	HAL_DMA_Abort_IT
 5373              	.L703:
 5374 002e 0022     		movs	r2, #0
 5375 0030 2946     		mov	r1, r5
 5376 0032 2068     		ldr	r0, [r4]
 5377 0034 FFF7FEFF 		bl	TIM_CCxChannelCmd
 5378 0038 2368     		ldr	r3, [r4]
 5379 003a 3A4A     		ldr	r2, .L716
 5380 003c 9342     		cmp	r3, r2
 5381 003e 3FD0     		beq	.L704
 5382 0040 02F5C052 		add	r2, r2, #6144
 5383 0044 9342     		cmp	r3, r2
 5384 0046 3BD0     		beq	.L704
ARM GAS  C:\Users\Nathan\AppData\Local\Temp\ccPdMrK0.s 			page 92


 5385 0048 02F58062 		add	r2, r2, #1024
 5386 004c 9342     		cmp	r3, r2
 5387 004e 37D0     		beq	.L704
 5388              	.L705:
 5389 0050 2268     		ldr	r2, [r4]
 5390 0052 136A     		ldr	r3, [r2, #32]
 5391 0054 03F01133 		and	r3, r3, #286331153
 5392 0058 23F08853 		bic	r3, r3, #285212672
 5393 005c 43B9     		cbnz	r3, .L706
 5394 005e 116A     		ldr	r1, [r2, #32]
 5395 0060 40F24443 		movw	r3, #1092
 5396 0064 1942     		tst	r1, r3
 5397 0066 03D1     		bne	.L706
 5398 0068 1368     		ldr	r3, [r2]
 5399 006a 23F00103 		bic	r3, r3, #1
 5400 006e 1360     		str	r3, [r2]
 5401              	.L706:
 5402 0070 102D     		cmp	r5, #16
 5403 0072 4FD8     		bhi	.L707
 5404 0074 DFE805F0 		tbb	[pc, r5]
 5405              	.L709:
 5406 0078 35       		.byte	(.L713-.L709)/2
 5407 0079 4E       		.byte	(.L707-.L709)/2
 5408 007a 4E       		.byte	(.L707-.L709)/2
 5409 007b 4E       		.byte	(.L707-.L709)/2
 5410 007c 3A       		.byte	(.L712-.L709)/2
 5411 007d 4E       		.byte	(.L707-.L709)/2
 5412 007e 4E       		.byte	(.L707-.L709)/2
 5413 007f 4E       		.byte	(.L707-.L709)/2
 5414 0080 3F       		.byte	(.L711-.L709)/2
 5415 0081 4E       		.byte	(.L707-.L709)/2
 5416 0082 4E       		.byte	(.L707-.L709)/2
 5417 0083 4E       		.byte	(.L707-.L709)/2
 5418 0084 44       		.byte	(.L710-.L709)/2
 5419 0085 4E       		.byte	(.L707-.L709)/2
 5420 0086 4E       		.byte	(.L707-.L709)/2
 5421 0087 4E       		.byte	(.L707-.L709)/2
 5422 0088 49       		.byte	(.L708-.L709)/2
 5423 0089 00       		.p2align 1
 5424              	.L701:
 5425 008a 0268     		ldr	r2, [r0]
 5426 008c D368     		ldr	r3, [r2, #12]
 5427 008e 23F48063 		bic	r3, r3, #1024
 5428 0092 D360     		str	r3, [r2, #12]
 5429 0094 806A     		ldr	r0, [r0, #40]
 5430 0096 FFF7FEFF 		bl	HAL_DMA_Abort_IT
 5431 009a C8E7     		b	.L703
 5432              	.L700:
 5433 009c 0268     		ldr	r2, [r0]
 5434 009e D368     		ldr	r3, [r2, #12]
 5435 00a0 23F40063 		bic	r3, r3, #2048
 5436 00a4 D360     		str	r3, [r2, #12]
 5437 00a6 C06A     		ldr	r0, [r0, #44]
 5438 00a8 FFF7FEFF 		bl	HAL_DMA_Abort_IT
 5439 00ac BFE7     		b	.L703
 5440              	.L698:
 5441 00ae 0268     		ldr	r2, [r0]
ARM GAS  C:\Users\Nathan\AppData\Local\Temp\ccPdMrK0.s 			page 93


 5442 00b0 D368     		ldr	r3, [r2, #12]
 5443 00b2 23F48053 		bic	r3, r3, #4096
 5444 00b6 D360     		str	r3, [r2, #12]
 5445 00b8 006B     		ldr	r0, [r0, #48]
 5446 00ba FFF7FEFF 		bl	HAL_DMA_Abort_IT
 5447 00be B6E7     		b	.L703
 5448              	.L704:
 5449 00c0 1A6A     		ldr	r2, [r3, #32]
 5450 00c2 02F01132 		and	r2, r2, #286331153
 5451 00c6 22F08852 		bic	r2, r2, #285212672
 5452 00ca 002A     		cmp	r2, #0
 5453 00cc C0D1     		bne	.L705
 5454 00ce 196A     		ldr	r1, [r3, #32]
 5455 00d0 40F24442 		movw	r2, #1092
 5456 00d4 1142     		tst	r1, r2
 5457 00d6 BBD1     		bne	.L705
 5458 00d8 5A6C     		ldr	r2, [r3, #68]
 5459 00da 22F40042 		bic	r2, r2, #32768
 5460 00de 5A64     		str	r2, [r3, #68]
 5461 00e0 B6E7     		b	.L705
 5462              	.L713:
 5463 00e2 0123     		movs	r3, #1
 5464 00e4 84F83E30 		strb	r3, [r4, #62]
 5465 00e8 0020     		movs	r0, #0
 5466 00ea 19E0     		b	.L697
 5467              	.L712:
 5468 00ec 0123     		movs	r3, #1
 5469 00ee 84F83F30 		strb	r3, [r4, #63]
 5470 00f2 0020     		movs	r0, #0
 5471 00f4 14E0     		b	.L697
 5472              	.L711:
 5473 00f6 0123     		movs	r3, #1
 5474 00f8 84F84030 		strb	r3, [r4, #64]
 5475 00fc 0020     		movs	r0, #0
 5476 00fe 0FE0     		b	.L697
 5477              	.L710:
 5478 0100 0123     		movs	r3, #1
 5479 0102 84F84130 		strb	r3, [r4, #65]
 5480 0106 0020     		movs	r0, #0
 5481 0108 0AE0     		b	.L697
 5482              	.L708:
 5483 010a 0123     		movs	r3, #1
 5484 010c 84F84230 		strb	r3, [r4, #66]
 5485 0110 0020     		movs	r0, #0
 5486 0112 05E0     		b	.L697
 5487              	.L707:
 5488 0114 0123     		movs	r3, #1
 5489 0116 84F84330 		strb	r3, [r4, #67]
 5490 011a 0020     		movs	r0, #0
 5491 011c 00E0     		b	.L697
 5492              	.L714:
 5493 011e 0120     		movs	r0, #1
 5494              	.L697:
 5495 0120 38BD     		pop	{r3, r4, r5, pc}
 5496              	.L717:
 5497 0122 00BF     		.align	2
 5498              	.L716:
ARM GAS  C:\Users\Nathan\AppData\Local\Temp\ccPdMrK0.s 			page 94


 5499 0124 002C0140 		.word	1073818624
 5501              		.section	.text.HAL_TIM_PWM_Start,"ax",%progbits
 5502              		.align	1
 5503              		.global	HAL_TIM_PWM_Start
 5504              		.syntax unified
 5505              		.thumb
 5506              		.thumb_func
 5508              	HAL_TIM_PWM_Start:
 5509              		@ args = 0, pretend = 0, frame = 0
 5510              		@ frame_needed = 0, uses_anonymous_args = 0
 5511 0000 10B5     		push	{r4, lr}
 5512 0002 0446     		mov	r4, r0
 5513 0004 1029     		cmp	r1, #16
 5514 0006 3BD8     		bhi	.L719
 5515 0008 DFE801F0 		tbb	[pc, r1]
 5516              	.L721:
 5517 000c 09       		.byte	(.L725-.L721)/2
 5518 000d 3A       		.byte	(.L719-.L721)/2
 5519 000e 3A       		.byte	(.L719-.L721)/2
 5520 000f 3A       		.byte	(.L719-.L721)/2
 5521 0010 1E       		.byte	(.L724-.L721)/2
 5522 0011 3A       		.byte	(.L719-.L721)/2
 5523 0012 3A       		.byte	(.L719-.L721)/2
 5524 0013 3A       		.byte	(.L719-.L721)/2
 5525 0014 25       		.byte	(.L723-.L721)/2
 5526 0015 3A       		.byte	(.L719-.L721)/2
 5527 0016 3A       		.byte	(.L719-.L721)/2
 5528 0017 3A       		.byte	(.L719-.L721)/2
 5529 0018 2C       		.byte	(.L722-.L721)/2
 5530 0019 3A       		.byte	(.L719-.L721)/2
 5531 001a 3A       		.byte	(.L719-.L721)/2
 5532 001b 3A       		.byte	(.L719-.L721)/2
 5533 001c 33       		.byte	(.L720-.L721)/2
 5534 001d 00       		.p2align 1
 5535              	.L725:
 5536 001e 90F83E30 		ldrb	r3, [r0, #62]	@ zero_extendqisi2
 5537 0022 DBB2     		uxtb	r3, r3
 5538 0024 013B     		subs	r3, r3, #1
 5539 0026 18BF     		it	ne
 5540 0028 0123     		movne	r3, #1
 5541              	.L726:
 5542 002a 002B     		cmp	r3, #0
 5543 002c 75D1     		bne	.L740
 5544 002e 1029     		cmp	r1, #16
 5545 0030 61D8     		bhi	.L728
 5546 0032 DFE801F0 		tbb	[pc, r1]
 5547              	.L730:
 5548 0036 2C       		.byte	(.L734-.L730)/2
 5549 0037 60       		.byte	(.L728-.L730)/2
 5550 0038 60       		.byte	(.L728-.L730)/2
 5551 0039 60       		.byte	(.L728-.L730)/2
 5552 003a 50       		.byte	(.L733-.L730)/2
 5553 003b 60       		.byte	(.L728-.L730)/2
 5554 003c 60       		.byte	(.L728-.L730)/2
 5555 003d 60       		.byte	(.L728-.L730)/2
 5556 003e 54       		.byte	(.L732-.L730)/2
 5557 003f 60       		.byte	(.L728-.L730)/2
ARM GAS  C:\Users\Nathan\AppData\Local\Temp\ccPdMrK0.s 			page 95


 5558 0040 60       		.byte	(.L728-.L730)/2
 5559 0041 60       		.byte	(.L728-.L730)/2
 5560 0042 58       		.byte	(.L731-.L730)/2
 5561 0043 60       		.byte	(.L728-.L730)/2
 5562 0044 60       		.byte	(.L728-.L730)/2
 5563 0045 60       		.byte	(.L728-.L730)/2
 5564 0046 5C       		.byte	(.L729-.L730)/2
 5565 0047 00       		.p2align 1
 5566              	.L724:
 5567 0048 90F83F30 		ldrb	r3, [r0, #63]	@ zero_extendqisi2
 5568 004c DBB2     		uxtb	r3, r3
 5569 004e 013B     		subs	r3, r3, #1
 5570 0050 18BF     		it	ne
 5571 0052 0123     		movne	r3, #1
 5572 0054 E9E7     		b	.L726
 5573              	.L723:
 5574 0056 90F84030 		ldrb	r3, [r0, #64]	@ zero_extendqisi2
 5575 005a DBB2     		uxtb	r3, r3
 5576 005c 013B     		subs	r3, r3, #1
 5577 005e 18BF     		it	ne
 5578 0060 0123     		movne	r3, #1
 5579 0062 E2E7     		b	.L726
 5580              	.L722:
 5581 0064 90F84130 		ldrb	r3, [r0, #65]	@ zero_extendqisi2
 5582 0068 DBB2     		uxtb	r3, r3
 5583 006a 013B     		subs	r3, r3, #1
 5584 006c 18BF     		it	ne
 5585 006e 0123     		movne	r3, #1
 5586 0070 DBE7     		b	.L726
 5587              	.L720:
 5588 0072 90F84230 		ldrb	r3, [r0, #66]	@ zero_extendqisi2
 5589 0076 DBB2     		uxtb	r3, r3
 5590 0078 013B     		subs	r3, r3, #1
 5591 007a 18BF     		it	ne
 5592 007c 0123     		movne	r3, #1
 5593 007e D4E7     		b	.L726
 5594              	.L719:
 5595 0080 90F84330 		ldrb	r3, [r0, #67]	@ zero_extendqisi2
 5596 0084 DBB2     		uxtb	r3, r3
 5597 0086 013B     		subs	r3, r3, #1
 5598 0088 18BF     		it	ne
 5599 008a 0123     		movne	r3, #1
 5600 008c CDE7     		b	.L726
 5601              	.L734:
 5602 008e 0223     		movs	r3, #2
 5603 0090 84F83E30 		strb	r3, [r4, #62]
 5604              	.L735:
 5605 0094 0122     		movs	r2, #1
 5606 0096 2068     		ldr	r0, [r4]
 5607 0098 FFF7FEFF 		bl	TIM_CCxChannelCmd
 5608 009c 2368     		ldr	r3, [r4]
 5609 009e 224A     		ldr	r2, .L744
 5610 00a0 9342     		cmp	r3, r2
 5611 00a2 07D0     		beq	.L736
 5612 00a4 02F5C052 		add	r2, r2, #6144
 5613 00a8 9342     		cmp	r3, r2
 5614 00aa 03D0     		beq	.L736
ARM GAS  C:\Users\Nathan\AppData\Local\Temp\ccPdMrK0.s 			page 96


 5615 00ac 02F58062 		add	r2, r2, #1024
 5616 00b0 9342     		cmp	r3, r2
 5617 00b2 03D1     		bne	.L737
 5618              	.L736:
 5619 00b4 5A6C     		ldr	r2, [r3, #68]
 5620 00b6 42F40042 		orr	r2, r2, #32768
 5621 00ba 5A64     		str	r2, [r3, #68]
 5622              	.L737:
 5623 00bc 2368     		ldr	r3, [r4]
 5624 00be 1A4A     		ldr	r2, .L744
 5625 00c0 9342     		cmp	r3, r2
 5626 00c2 1CD0     		beq	.L738
 5627 00c4 B3F1804F 		cmp	r3, #1073741824
 5628 00c8 19D0     		beq	.L738
 5629 00ca 1A68     		ldr	r2, [r3]
 5630 00cc 42F00102 		orr	r2, r2, #1
 5631 00d0 1A60     		str	r2, [r3]
 5632 00d2 0020     		movs	r0, #0
 5633 00d4 22E0     		b	.L727
 5634              	.L733:
 5635 00d6 0223     		movs	r3, #2
 5636 00d8 84F83F30 		strb	r3, [r4, #63]
 5637 00dc DAE7     		b	.L735
 5638              	.L732:
 5639 00de 0223     		movs	r3, #2
 5640 00e0 84F84030 		strb	r3, [r4, #64]
 5641 00e4 D6E7     		b	.L735
 5642              	.L731:
 5643 00e6 0223     		movs	r3, #2
 5644 00e8 84F84130 		strb	r3, [r4, #65]
 5645 00ec D2E7     		b	.L735
 5646              	.L729:
 5647 00ee 0223     		movs	r3, #2
 5648 00f0 84F84230 		strb	r3, [r4, #66]
 5649 00f4 CEE7     		b	.L735
 5650              	.L728:
 5651 00f6 0223     		movs	r3, #2
 5652 00f8 84F84330 		strb	r3, [r4, #67]
 5653 00fc CAE7     		b	.L735
 5654              	.L738:
 5655 00fe 9968     		ldr	r1, [r3, #8]
 5656 0100 0A4A     		ldr	r2, .L744+4
 5657 0102 0A40     		ands	r2, r2, r1
 5658 0104 062A     		cmp	r2, #6
 5659 0106 0AD0     		beq	.L741
 5660 0108 B2F5803F 		cmp	r2, #65536
 5661 010c 09D0     		beq	.L742
 5662 010e 1A68     		ldr	r2, [r3]
 5663 0110 42F00102 		orr	r2, r2, #1
 5664 0114 1A60     		str	r2, [r3]
 5665 0116 0020     		movs	r0, #0
 5666 0118 00E0     		b	.L727
 5667              	.L740:
 5668 011a 0120     		movs	r0, #1
 5669              	.L727:
 5670 011c 10BD     		pop	{r4, pc}
 5671              	.L741:
ARM GAS  C:\Users\Nathan\AppData\Local\Temp\ccPdMrK0.s 			page 97


 5672 011e 0020     		movs	r0, #0
 5673 0120 FCE7     		b	.L727
 5674              	.L742:
 5675 0122 0020     		movs	r0, #0
 5676 0124 FAE7     		b	.L727
 5677              	.L745:
 5678 0126 00BF     		.align	2
 5679              	.L744:
 5680 0128 002C0140 		.word	1073818624
 5681 012c 07000100 		.word	65543
 5683              		.section	.text.HAL_TIM_PWM_Stop,"ax",%progbits
 5684              		.align	1
 5685              		.global	HAL_TIM_PWM_Stop
 5686              		.syntax unified
 5687              		.thumb
 5688              		.thumb_func
 5690              	HAL_TIM_PWM_Stop:
 5691              		@ args = 0, pretend = 0, frame = 0
 5692              		@ frame_needed = 0, uses_anonymous_args = 0
 5693 0000 38B5     		push	{r3, r4, r5, lr}
 5694 0002 0446     		mov	r4, r0
 5695 0004 0D46     		mov	r5, r1
 5696 0006 0022     		movs	r2, #0
 5697 0008 0068     		ldr	r0, [r0]
 5698 000a FFF7FEFF 		bl	TIM_CCxChannelCmd
 5699 000e 2368     		ldr	r3, [r4]
 5700 0010 284A     		ldr	r2, .L759
 5701 0012 9342     		cmp	r3, r2
 5702 0014 24D0     		beq	.L747
 5703 0016 02F5C052 		add	r2, r2, #6144
 5704 001a 9342     		cmp	r3, r2
 5705 001c 20D0     		beq	.L747
 5706 001e 02F58062 		add	r2, r2, #1024
 5707 0022 9342     		cmp	r3, r2
 5708 0024 1CD0     		beq	.L747
 5709              	.L748:
 5710 0026 2268     		ldr	r2, [r4]
 5711 0028 136A     		ldr	r3, [r2, #32]
 5712 002a 03F01133 		and	r3, r3, #286331153
 5713 002e 23F08853 		bic	r3, r3, #285212672
 5714 0032 43B9     		cbnz	r3, .L749
 5715 0034 116A     		ldr	r1, [r2, #32]
 5716 0036 40F24443 		movw	r3, #1092
 5717 003a 1942     		tst	r1, r3
 5718 003c 03D1     		bne	.L749
 5719 003e 1368     		ldr	r3, [r2]
 5720 0040 23F00103 		bic	r3, r3, #1
 5721 0044 1360     		str	r3, [r2]
 5722              	.L749:
 5723 0046 102D     		cmp	r5, #16
 5724 0048 30D8     		bhi	.L750
 5725 004a DFE805F0 		tbb	[pc, r5]
 5726              	.L752:
 5727 004e 1A       		.byte	(.L756-.L752)/2
 5728 004f 2F       		.byte	(.L750-.L752)/2
 5729 0050 2F       		.byte	(.L750-.L752)/2
 5730 0051 2F       		.byte	(.L750-.L752)/2
ARM GAS  C:\Users\Nathan\AppData\Local\Temp\ccPdMrK0.s 			page 98


 5731 0052 1F       		.byte	(.L755-.L752)/2
 5732 0053 2F       		.byte	(.L750-.L752)/2
 5733 0054 2F       		.byte	(.L750-.L752)/2
 5734 0055 2F       		.byte	(.L750-.L752)/2
 5735 0056 23       		.byte	(.L754-.L752)/2
 5736 0057 2F       		.byte	(.L750-.L752)/2
 5737 0058 2F       		.byte	(.L750-.L752)/2
 5738 0059 2F       		.byte	(.L750-.L752)/2
 5739 005a 27       		.byte	(.L753-.L752)/2
 5740 005b 2F       		.byte	(.L750-.L752)/2
 5741 005c 2F       		.byte	(.L750-.L752)/2
 5742 005d 2F       		.byte	(.L750-.L752)/2
 5743 005e 2B       		.byte	(.L751-.L752)/2
 5744 005f 00       		.p2align 1
 5745              	.L747:
 5746 0060 1A6A     		ldr	r2, [r3, #32]
 5747 0062 02F01132 		and	r2, r2, #286331153
 5748 0066 22F08852 		bic	r2, r2, #285212672
 5749 006a 002A     		cmp	r2, #0
 5750 006c DBD1     		bne	.L748
 5751 006e 196A     		ldr	r1, [r3, #32]
 5752 0070 40F24442 		movw	r2, #1092
 5753 0074 1142     		tst	r1, r2
 5754 0076 D6D1     		bne	.L748
 5755 0078 5A6C     		ldr	r2, [r3, #68]
 5756 007a 22F40042 		bic	r2, r2, #32768
 5757 007e 5A64     		str	r2, [r3, #68]
 5758 0080 D1E7     		b	.L748
 5759              	.L756:
 5760 0082 0123     		movs	r3, #1
 5761 0084 84F83E30 		strb	r3, [r4, #62]
 5762              	.L757:
 5763 0088 0020     		movs	r0, #0
 5764 008a 38BD     		pop	{r3, r4, r5, pc}
 5765              	.L755:
 5766 008c 0123     		movs	r3, #1
 5767 008e 84F83F30 		strb	r3, [r4, #63]
 5768 0092 F9E7     		b	.L757
 5769              	.L754:
 5770 0094 0123     		movs	r3, #1
 5771 0096 84F84030 		strb	r3, [r4, #64]
 5772 009a F5E7     		b	.L757
 5773              	.L753:
 5774 009c 0123     		movs	r3, #1
 5775 009e 84F84130 		strb	r3, [r4, #65]
 5776 00a2 F1E7     		b	.L757
 5777              	.L751:
 5778 00a4 0123     		movs	r3, #1
 5779 00a6 84F84230 		strb	r3, [r4, #66]
 5780 00aa EDE7     		b	.L757
 5781              	.L750:
 5782 00ac 0123     		movs	r3, #1
 5783 00ae 84F84330 		strb	r3, [r4, #67]
 5784 00b2 E9E7     		b	.L757
 5785              	.L760:
 5786              		.align	2
 5787              	.L759:
ARM GAS  C:\Users\Nathan\AppData\Local\Temp\ccPdMrK0.s 			page 99


 5788 00b4 002C0140 		.word	1073818624
 5790              		.section	.text.HAL_TIM_PWM_Start_IT,"ax",%progbits
 5791              		.align	1
 5792              		.global	HAL_TIM_PWM_Start_IT
 5793              		.syntax unified
 5794              		.thumb
 5795              		.thumb_func
 5797              	HAL_TIM_PWM_Start_IT:
 5798              		@ args = 0, pretend = 0, frame = 0
 5799              		@ frame_needed = 0, uses_anonymous_args = 0
 5800 0000 10B5     		push	{r4, lr}
 5801 0002 0446     		mov	r4, r0
 5802 0004 1029     		cmp	r1, #16
 5803 0006 3CD8     		bhi	.L762
 5804 0008 DFE801F0 		tbb	[pc, r1]
 5805              	.L764:
 5806 000c 09       		.byte	(.L768-.L764)/2
 5807 000d 3B       		.byte	(.L762-.L764)/2
 5808 000e 3B       		.byte	(.L762-.L764)/2
 5809 000f 3B       		.byte	(.L762-.L764)/2
 5810 0010 1F       		.byte	(.L767-.L764)/2
 5811 0011 3B       		.byte	(.L762-.L764)/2
 5812 0012 3B       		.byte	(.L762-.L764)/2
 5813 0013 3B       		.byte	(.L762-.L764)/2
 5814 0014 26       		.byte	(.L766-.L764)/2
 5815 0015 3B       		.byte	(.L762-.L764)/2
 5816 0016 3B       		.byte	(.L762-.L764)/2
 5817 0017 3B       		.byte	(.L762-.L764)/2
 5818 0018 2D       		.byte	(.L765-.L764)/2
 5819 0019 3B       		.byte	(.L762-.L764)/2
 5820 001a 3B       		.byte	(.L762-.L764)/2
 5821 001b 3B       		.byte	(.L762-.L764)/2
 5822 001c 34       		.byte	(.L763-.L764)/2
 5823 001d 00       		.p2align 1
 5824              	.L768:
 5825 001e 90F83E30 		ldrb	r3, [r0, #62]	@ zero_extendqisi2
 5826 0022 DBB2     		uxtb	r3, r3
 5827 0024 013B     		subs	r3, r3, #1
 5828 0026 18BF     		it	ne
 5829 0028 0123     		movne	r3, #1
 5830              	.L769:
 5831 002a 002B     		cmp	r3, #0
 5832 002c 40F0AA80 		bne	.L788
 5833 0030 1029     		cmp	r1, #16
 5834 0032 76D8     		bhi	.L771
 5835 0034 DFE801F0 		tbb	[pc, r1]
 5836              	.L773:
 5837 0038 2C       		.byte	(.L777-.L773)/2
 5838 0039 75       		.byte	(.L771-.L773)/2
 5839 003a 75       		.byte	(.L771-.L773)/2
 5840 003b 75       		.byte	(.L771-.L773)/2
 5841 003c 55       		.byte	(.L776-.L773)/2
 5842 003d 75       		.byte	(.L771-.L773)/2
 5843 003e 75       		.byte	(.L771-.L773)/2
 5844 003f 75       		.byte	(.L771-.L773)/2
 5845 0040 5E       		.byte	(.L775-.L773)/2
 5846 0041 75       		.byte	(.L771-.L773)/2
ARM GAS  C:\Users\Nathan\AppData\Local\Temp\ccPdMrK0.s 			page 100


 5847 0042 75       		.byte	(.L771-.L773)/2
 5848 0043 75       		.byte	(.L771-.L773)/2
 5849 0044 67       		.byte	(.L774-.L773)/2
 5850 0045 75       		.byte	(.L771-.L773)/2
 5851 0046 75       		.byte	(.L771-.L773)/2
 5852 0047 75       		.byte	(.L771-.L773)/2
 5853 0048 70       		.byte	(.L772-.L773)/2
 5854 0049 00       		.p2align 1
 5855              	.L767:
 5856 004a 90F83F30 		ldrb	r3, [r0, #63]	@ zero_extendqisi2
 5857 004e DBB2     		uxtb	r3, r3
 5858 0050 013B     		subs	r3, r3, #1
 5859 0052 18BF     		it	ne
 5860 0054 0123     		movne	r3, #1
 5861 0056 E8E7     		b	.L769
 5862              	.L766:
 5863 0058 90F84030 		ldrb	r3, [r0, #64]	@ zero_extendqisi2
 5864 005c DBB2     		uxtb	r3, r3
 5865 005e 013B     		subs	r3, r3, #1
 5866 0060 18BF     		it	ne
 5867 0062 0123     		movne	r3, #1
 5868 0064 E1E7     		b	.L769
 5869              	.L765:
 5870 0066 90F84130 		ldrb	r3, [r0, #65]	@ zero_extendqisi2
 5871 006a DBB2     		uxtb	r3, r3
 5872 006c 013B     		subs	r3, r3, #1
 5873 006e 18BF     		it	ne
 5874 0070 0123     		movne	r3, #1
 5875 0072 DAE7     		b	.L769
 5876              	.L763:
 5877 0074 90F84230 		ldrb	r3, [r0, #66]	@ zero_extendqisi2
 5878 0078 DBB2     		uxtb	r3, r3
 5879 007a 013B     		subs	r3, r3, #1
 5880 007c 18BF     		it	ne
 5881 007e 0123     		movne	r3, #1
 5882 0080 D3E7     		b	.L769
 5883              	.L762:
 5884 0082 90F84330 		ldrb	r3, [r0, #67]	@ zero_extendqisi2
 5885 0086 DBB2     		uxtb	r3, r3
 5886 0088 013B     		subs	r3, r3, #1
 5887 008a 18BF     		it	ne
 5888 008c 0123     		movne	r3, #1
 5889 008e CCE7     		b	.L769
 5890              	.L777:
 5891 0090 0223     		movs	r3, #2
 5892 0092 84F83E30 		strb	r3, [r4, #62]
 5893              	.L778:
 5894 0096 2268     		ldr	r2, [r4]
 5895 0098 D368     		ldr	r3, [r2, #12]
 5896 009a 43F00203 		orr	r3, r3, #2
 5897 009e D360     		str	r3, [r2, #12]
 5898              	.L783:
 5899 00a0 0122     		movs	r2, #1
 5900 00a2 2068     		ldr	r0, [r4]
 5901 00a4 FFF7FEFF 		bl	TIM_CCxChannelCmd
 5902 00a8 2368     		ldr	r3, [r4]
 5903 00aa 3A4A     		ldr	r2, .L797
ARM GAS  C:\Users\Nathan\AppData\Local\Temp\ccPdMrK0.s 			page 101


 5904 00ac 9342     		cmp	r3, r2
 5905 00ae 07D0     		beq	.L784
 5906 00b0 02F5C052 		add	r2, r2, #6144
 5907 00b4 9342     		cmp	r3, r2
 5908 00b6 03D0     		beq	.L784
 5909 00b8 02F58062 		add	r2, r2, #1024
 5910 00bc 9342     		cmp	r3, r2
 5911 00be 03D1     		bne	.L785
 5912              	.L784:
 5913 00c0 5A6C     		ldr	r2, [r3, #68]
 5914 00c2 42F40042 		orr	r2, r2, #32768
 5915 00c6 5A64     		str	r2, [r3, #68]
 5916              	.L785:
 5917 00c8 2368     		ldr	r3, [r4]
 5918 00ca 324A     		ldr	r2, .L797
 5919 00cc 9342     		cmp	r3, r2
 5920 00ce 4BD0     		beq	.L786
 5921 00d0 B3F1804F 		cmp	r3, #1073741824
 5922 00d4 48D0     		beq	.L786
 5923 00d6 1A68     		ldr	r2, [r3]
 5924 00d8 42F00102 		orr	r2, r2, #1
 5925 00dc 1A60     		str	r2, [r3]
 5926 00de 0020     		movs	r0, #0
 5927 00e0 51E0     		b	.L770
 5928              	.L776:
 5929 00e2 0223     		movs	r3, #2
 5930 00e4 84F83F30 		strb	r3, [r4, #63]
 5931              	.L779:
 5932 00e8 2268     		ldr	r2, [r4]
 5933 00ea D368     		ldr	r3, [r2, #12]
 5934 00ec 43F00403 		orr	r3, r3, #4
 5935 00f0 D360     		str	r3, [r2, #12]
 5936 00f2 D5E7     		b	.L783
 5937              	.L775:
 5938 00f4 0223     		movs	r3, #2
 5939 00f6 84F84030 		strb	r3, [r4, #64]
 5940              	.L780:
 5941 00fa 2268     		ldr	r2, [r4]
 5942 00fc D368     		ldr	r3, [r2, #12]
 5943 00fe 43F00803 		orr	r3, r3, #8
 5944 0102 D360     		str	r3, [r2, #12]
 5945 0104 CCE7     		b	.L783
 5946              	.L774:
 5947 0106 0223     		movs	r3, #2
 5948 0108 84F84130 		strb	r3, [r4, #65]
 5949              	.L781:
 5950 010c 2268     		ldr	r2, [r4]
 5951 010e D368     		ldr	r3, [r2, #12]
 5952 0110 43F01003 		orr	r3, r3, #16
 5953 0114 D360     		str	r3, [r2, #12]
 5954 0116 C3E7     		b	.L783
 5955              	.L772:
 5956 0118 0223     		movs	r3, #2
 5957 011a 84F84230 		strb	r3, [r4, #66]
 5958 011e 0120     		movs	r0, #1
 5959 0120 31E0     		b	.L770
 5960              	.L771:
ARM GAS  C:\Users\Nathan\AppData\Local\Temp\ccPdMrK0.s 			page 102


 5961 0122 0223     		movs	r3, #2
 5962 0124 84F84330 		strb	r3, [r4, #67]
 5963 0128 0C29     		cmp	r1, #12
 5964 012a 2DD8     		bhi	.L789
 5965 012c 01A3     		adr	r3, .L782
 5966 012e 53F821F0 		ldr	pc, [r3, r1, lsl #2]
 5967 0132 00BF     		.p2align 2
 5968              	.L782:
 5969 0134 97000000 		.word	.L778+1
 5970 0138 89010000 		.word	.L789+1
 5971 013c 89010000 		.word	.L789+1
 5972 0140 89010000 		.word	.L789+1
 5973 0144 E9000000 		.word	.L779+1
 5974 0148 89010000 		.word	.L789+1
 5975 014c 89010000 		.word	.L789+1
 5976 0150 89010000 		.word	.L789+1
 5977 0154 FB000000 		.word	.L780+1
 5978 0158 89010000 		.word	.L789+1
 5979 015c 89010000 		.word	.L789+1
 5980 0160 89010000 		.word	.L789+1
 5981 0164 0D010000 		.word	.L781+1
 5982              		.p2align 1
 5983              	.L786:
 5984 0168 9968     		ldr	r1, [r3, #8]
 5985 016a 0B4A     		ldr	r2, .L797+4
 5986 016c 0A40     		ands	r2, r2, r1
 5987 016e 062A     		cmp	r2, #6
 5988 0170 0CD0     		beq	.L790
 5989 0172 B2F5803F 		cmp	r2, #65536
 5990 0176 0BD0     		beq	.L791
 5991 0178 1A68     		ldr	r2, [r3]
 5992 017a 42F00102 		orr	r2, r2, #1
 5993 017e 1A60     		str	r2, [r3]
 5994 0180 0020     		movs	r0, #0
 5995 0182 00E0     		b	.L770
 5996              	.L788:
 5997 0184 0120     		movs	r0, #1
 5998              	.L770:
 5999 0186 10BD     		pop	{r4, pc}
 6000              	.L789:
 6001 0188 0120     		movs	r0, #1
 6002 018a FCE7     		b	.L770
 6003              	.L790:
 6004 018c 0020     		movs	r0, #0
 6005 018e FAE7     		b	.L770
 6006              	.L791:
 6007 0190 0020     		movs	r0, #0
 6008 0192 F8E7     		b	.L770
 6009              	.L798:
 6010              		.align	2
 6011              	.L797:
 6012 0194 002C0140 		.word	1073818624
 6013 0198 07000100 		.word	65543
 6015              		.section	.text.HAL_TIM_PWM_Stop_IT,"ax",%progbits
 6016              		.align	1
 6017              		.global	HAL_TIM_PWM_Stop_IT
 6018              		.syntax unified
ARM GAS  C:\Users\Nathan\AppData\Local\Temp\ccPdMrK0.s 			page 103


 6019              		.thumb
 6020              		.thumb_func
 6022              	HAL_TIM_PWM_Stop_IT:
 6023              		@ args = 0, pretend = 0, frame = 0
 6024              		@ frame_needed = 0, uses_anonymous_args = 0
 6025 0000 38B5     		push	{r3, r4, r5, lr}
 6026 0002 0546     		mov	r5, r0
 6027 0004 0C46     		mov	r4, r1
 6028 0006 0C29     		cmp	r1, #12
 6029 0008 7CD8     		bhi	.L817
 6030 000a DFE801F0 		tbb	[pc, r1]
 6031              	.L802:
 6032 000e 07       		.byte	(.L805-.L802)/2
 6033 000f 7B       		.byte	(.L817-.L802)/2
 6034 0010 7B       		.byte	(.L817-.L802)/2
 6035 0011 7B       		.byte	(.L817-.L802)/2
 6036 0012 3A       		.byte	(.L804-.L802)/2
 6037 0013 7B       		.byte	(.L817-.L802)/2
 6038 0014 7B       		.byte	(.L817-.L802)/2
 6039 0015 7B       		.byte	(.L817-.L802)/2
 6040 0016 40       		.byte	(.L803-.L802)/2
 6041 0017 7B       		.byte	(.L817-.L802)/2
 6042 0018 7B       		.byte	(.L817-.L802)/2
 6043 0019 7B       		.byte	(.L817-.L802)/2
 6044 001a 46       		.byte	(.L801-.L802)/2
 6045 001b 00       		.p2align 1
 6046              	.L805:
 6047 001c 0268     		ldr	r2, [r0]
 6048 001e D368     		ldr	r3, [r2, #12]
 6049 0020 23F00203 		bic	r3, r3, #2
 6050 0024 D360     		str	r3, [r2, #12]
 6051              	.L806:
 6052 0026 0022     		movs	r2, #0
 6053 0028 2146     		mov	r1, r4
 6054 002a 2868     		ldr	r0, [r5]
 6055 002c FFF7FEFF 		bl	TIM_CCxChannelCmd
 6056 0030 2B68     		ldr	r3, [r5]
 6057 0032 354A     		ldr	r2, .L819
 6058 0034 9342     		cmp	r3, r2
 6059 0036 36D0     		beq	.L807
 6060 0038 02F5C052 		add	r2, r2, #6144
 6061 003c 9342     		cmp	r3, r2
 6062 003e 32D0     		beq	.L807
 6063 0040 02F58062 		add	r2, r2, #1024
 6064 0044 9342     		cmp	r3, r2
 6065 0046 2ED0     		beq	.L807
 6066              	.L808:
 6067 0048 2A68     		ldr	r2, [r5]
 6068 004a 136A     		ldr	r3, [r2, #32]
 6069 004c 03F01133 		and	r3, r3, #286331153
 6070 0050 23F08853 		bic	r3, r3, #285212672
 6071 0054 43B9     		cbnz	r3, .L809
 6072 0056 116A     		ldr	r1, [r2, #32]
 6073 0058 40F24443 		movw	r3, #1092
 6074 005c 1942     		tst	r1, r3
 6075 005e 03D1     		bne	.L809
 6076 0060 1368     		ldr	r3, [r2]
ARM GAS  C:\Users\Nathan\AppData\Local\Temp\ccPdMrK0.s 			page 104


 6077 0062 23F00103 		bic	r3, r3, #1
 6078 0066 1360     		str	r3, [r2]
 6079              	.L809:
 6080 0068 102C     		cmp	r4, #16
 6081 006a 46D8     		bhi	.L810
 6082 006c DFE804F0 		tbb	[pc, r4]
 6083              	.L812:
 6084 0070 2C       		.byte	(.L816-.L812)/2
 6085 0071 45       		.byte	(.L810-.L812)/2
 6086 0072 45       		.byte	(.L810-.L812)/2
 6087 0073 45       		.byte	(.L810-.L812)/2
 6088 0074 31       		.byte	(.L815-.L812)/2
 6089 0075 45       		.byte	(.L810-.L812)/2
 6090 0076 45       		.byte	(.L810-.L812)/2
 6091 0077 45       		.byte	(.L810-.L812)/2
 6092 0078 36       		.byte	(.L814-.L812)/2
 6093 0079 45       		.byte	(.L810-.L812)/2
 6094 007a 45       		.byte	(.L810-.L812)/2
 6095 007b 45       		.byte	(.L810-.L812)/2
 6096 007c 3B       		.byte	(.L813-.L812)/2
 6097 007d 45       		.byte	(.L810-.L812)/2
 6098 007e 45       		.byte	(.L810-.L812)/2
 6099 007f 45       		.byte	(.L810-.L812)/2
 6100 0080 40       		.byte	(.L811-.L812)/2
 6101 0081 00       		.p2align 1
 6102              	.L804:
 6103 0082 0268     		ldr	r2, [r0]
 6104 0084 D368     		ldr	r3, [r2, #12]
 6105 0086 23F00403 		bic	r3, r3, #4
 6106 008a D360     		str	r3, [r2, #12]
 6107 008c CBE7     		b	.L806
 6108              	.L803:
 6109 008e 0268     		ldr	r2, [r0]
 6110 0090 D368     		ldr	r3, [r2, #12]
 6111 0092 23F00803 		bic	r3, r3, #8
 6112 0096 D360     		str	r3, [r2, #12]
 6113 0098 C5E7     		b	.L806
 6114              	.L801:
 6115 009a 0268     		ldr	r2, [r0]
 6116 009c D368     		ldr	r3, [r2, #12]
 6117 009e 23F01003 		bic	r3, r3, #16
 6118 00a2 D360     		str	r3, [r2, #12]
 6119 00a4 BFE7     		b	.L806
 6120              	.L807:
 6121 00a6 1A6A     		ldr	r2, [r3, #32]
 6122 00a8 02F01132 		and	r2, r2, #286331153
 6123 00ac 22F08852 		bic	r2, r2, #285212672
 6124 00b0 002A     		cmp	r2, #0
 6125 00b2 C9D1     		bne	.L808
 6126 00b4 196A     		ldr	r1, [r3, #32]
 6127 00b6 40F24442 		movw	r2, #1092
 6128 00ba 1142     		tst	r1, r2
 6129 00bc C4D1     		bne	.L808
 6130 00be 5A6C     		ldr	r2, [r3, #68]
 6131 00c0 22F40042 		bic	r2, r2, #32768
 6132 00c4 5A64     		str	r2, [r3, #68]
 6133 00c6 BFE7     		b	.L808
ARM GAS  C:\Users\Nathan\AppData\Local\Temp\ccPdMrK0.s 			page 105


 6134              	.L816:
 6135 00c8 0123     		movs	r3, #1
 6136 00ca 85F83E30 		strb	r3, [r5, #62]
 6137 00ce 0020     		movs	r0, #0
 6138 00d0 19E0     		b	.L800
 6139              	.L815:
 6140 00d2 0123     		movs	r3, #1
 6141 00d4 85F83F30 		strb	r3, [r5, #63]
 6142 00d8 0020     		movs	r0, #0
 6143 00da 14E0     		b	.L800
 6144              	.L814:
 6145 00dc 0123     		movs	r3, #1
 6146 00de 85F84030 		strb	r3, [r5, #64]
 6147 00e2 0020     		movs	r0, #0
 6148 00e4 0FE0     		b	.L800
 6149              	.L813:
 6150 00e6 0123     		movs	r3, #1
 6151 00e8 85F84130 		strb	r3, [r5, #65]
 6152 00ec 0020     		movs	r0, #0
 6153 00ee 0AE0     		b	.L800
 6154              	.L811:
 6155 00f0 0123     		movs	r3, #1
 6156 00f2 85F84230 		strb	r3, [r5, #66]
 6157 00f6 0020     		movs	r0, #0
 6158 00f8 05E0     		b	.L800
 6159              	.L810:
 6160 00fa 0123     		movs	r3, #1
 6161 00fc 85F84330 		strb	r3, [r5, #67]
 6162 0100 0020     		movs	r0, #0
 6163 0102 00E0     		b	.L800
 6164              	.L817:
 6165 0104 0120     		movs	r0, #1
 6166              	.L800:
 6167 0106 38BD     		pop	{r3, r4, r5, pc}
 6168              	.L820:
 6169              		.align	2
 6170              	.L819:
 6171 0108 002C0140 		.word	1073818624
 6173              		.section	.text.HAL_TIM_PWM_Start_DMA,"ax",%progbits
 6174              		.align	1
 6175              		.global	HAL_TIM_PWM_Start_DMA
 6176              		.syntax unified
 6177              		.thumb
 6178              		.thumb_func
 6180              	HAL_TIM_PWM_Start_DMA:
 6181              		@ args = 0, pretend = 0, frame = 0
 6182              		@ frame_needed = 0, uses_anonymous_args = 0
 6183 0000 38B5     		push	{r3, r4, r5, lr}
 6184 0002 0546     		mov	r5, r0
 6185 0004 0C46     		mov	r4, r1
 6186 0006 1146     		mov	r1, r2
 6187 0008 102C     		cmp	r4, #16
 6188 000a 41D8     		bhi	.L822
 6189 000c DFE804F0 		tbb	[pc, r4]
 6190              	.L824:
 6191 0010 09       		.byte	(.L828-.L824)/2
 6192 0011 40       		.byte	(.L822-.L824)/2
ARM GAS  C:\Users\Nathan\AppData\Local\Temp\ccPdMrK0.s 			page 106


 6193 0012 40       		.byte	(.L822-.L824)/2
 6194 0013 40       		.byte	(.L822-.L824)/2
 6195 0014 20       		.byte	(.L827-.L824)/2
 6196 0015 40       		.byte	(.L822-.L824)/2
 6197 0016 40       		.byte	(.L822-.L824)/2
 6198 0017 40       		.byte	(.L822-.L824)/2
 6199 0018 28       		.byte	(.L826-.L824)/2
 6200 0019 40       		.byte	(.L822-.L824)/2
 6201 001a 40       		.byte	(.L822-.L824)/2
 6202 001b 40       		.byte	(.L822-.L824)/2
 6203 001c 30       		.byte	(.L825-.L824)/2
 6204 001d 40       		.byte	(.L822-.L824)/2
 6205 001e 40       		.byte	(.L822-.L824)/2
 6206 001f 40       		.byte	(.L822-.L824)/2
 6207 0020 38       		.byte	(.L823-.L824)/2
 6208 0021 00       		.p2align 1
 6209              	.L828:
 6210 0022 90F83E00 		ldrb	r0, [r0, #62]	@ zero_extendqisi2
 6211 0026 C0B2     		uxtb	r0, r0
 6212 0028 0228     		cmp	r0, #2
 6213 002a 14BF     		ite	ne
 6214 002c 0020     		movne	r0, #0
 6215 002e 0120     		moveq	r0, #1
 6216              	.L829:
 6217 0030 0028     		cmp	r0, #0
 6218 0032 40F03F81 		bne	.L856
 6219 0036 102C     		cmp	r4, #16
 6220 0038 78D8     		bhi	.L831
 6221 003a DFE804F0 		tbb	[pc, r4]
 6222              	.L833:
 6223 003e 31       		.byte	(.L837-.L833)/2
 6224 003f 77       		.byte	(.L831-.L833)/2
 6225 0040 77       		.byte	(.L831-.L833)/2
 6226 0041 77       		.byte	(.L831-.L833)/2
 6227 0042 57       		.byte	(.L836-.L833)/2
 6228 0043 77       		.byte	(.L831-.L833)/2
 6229 0044 77       		.byte	(.L831-.L833)/2
 6230 0045 77       		.byte	(.L831-.L833)/2
 6231 0046 5F       		.byte	(.L835-.L833)/2
 6232 0047 77       		.byte	(.L831-.L833)/2
 6233 0048 77       		.byte	(.L831-.L833)/2
 6234 0049 77       		.byte	(.L831-.L833)/2
 6235 004a 67       		.byte	(.L834-.L833)/2
 6236 004b 77       		.byte	(.L831-.L833)/2
 6237 004c 77       		.byte	(.L831-.L833)/2
 6238 004d 77       		.byte	(.L831-.L833)/2
 6239 004e 6F       		.byte	(.L832-.L833)/2
 6240 004f 00       		.p2align 1
 6241              	.L827:
 6242 0050 90F83F00 		ldrb	r0, [r0, #63]	@ zero_extendqisi2
 6243 0054 C0B2     		uxtb	r0, r0
 6244 0056 0228     		cmp	r0, #2
 6245 0058 14BF     		ite	ne
 6246 005a 0020     		movne	r0, #0
 6247 005c 0120     		moveq	r0, #1
 6248 005e E7E7     		b	.L829
 6249              	.L826:
ARM GAS  C:\Users\Nathan\AppData\Local\Temp\ccPdMrK0.s 			page 107


 6250 0060 90F84000 		ldrb	r0, [r0, #64]	@ zero_extendqisi2
 6251 0064 C0B2     		uxtb	r0, r0
 6252 0066 0228     		cmp	r0, #2
 6253 0068 14BF     		ite	ne
 6254 006a 0020     		movne	r0, #0
 6255 006c 0120     		moveq	r0, #1
 6256 006e DFE7     		b	.L829
 6257              	.L825:
 6258 0070 90F84100 		ldrb	r0, [r0, #65]	@ zero_extendqisi2
 6259 0074 C0B2     		uxtb	r0, r0
 6260 0076 0228     		cmp	r0, #2
 6261 0078 14BF     		ite	ne
 6262 007a 0020     		movne	r0, #0
 6263 007c 0120     		moveq	r0, #1
 6264 007e D7E7     		b	.L829
 6265              	.L823:
 6266 0080 90F84200 		ldrb	r0, [r0, #66]	@ zero_extendqisi2
 6267 0084 C0B2     		uxtb	r0, r0
 6268 0086 0228     		cmp	r0, #2
 6269 0088 14BF     		ite	ne
 6270 008a 0020     		movne	r0, #0
 6271 008c 0120     		moveq	r0, #1
 6272 008e CFE7     		b	.L829
 6273              	.L822:
 6274 0090 90F84300 		ldrb	r0, [r0, #67]	@ zero_extendqisi2
 6275 0094 C0B2     		uxtb	r0, r0
 6276 0096 0228     		cmp	r0, #2
 6277 0098 14BF     		ite	ne
 6278 009a 0020     		movne	r0, #0
 6279 009c 0120     		moveq	r0, #1
 6280 009e C7E7     		b	.L829
 6281              	.L837:
 6282 00a0 95F83E20 		ldrb	r2, [r5, #62]	@ zero_extendqisi2
 6283 00a4 D2B2     		uxtb	r2, r2
 6284 00a6 012A     		cmp	r2, #1
 6285 00a8 14BF     		ite	ne
 6286 00aa 0022     		movne	r2, #0
 6287 00ac 0122     		moveq	r2, #1
 6288              	.L838:
 6289 00ae 002A     		cmp	r2, #0
 6290 00b0 00F00281 		beq	.L857
 6291 00b4 0029     		cmp	r1, #0
 6292 00b6 00F00181 		beq	.L858
 6293 00ba 002B     		cmp	r3, #0
 6294 00bc 00F00081 		beq	.L859
 6295 00c0 102C     		cmp	r4, #16
 6296 00c2 00F2C680 		bhi	.L839
 6297 00c6 DFE814F0 		tbh	[pc, r4, lsl #1]
 6298              	.L841:
 6299 00ca 3900     		.2byte	(.L845-.L841)/2
 6300 00cc C400     		.2byte	(.L839-.L841)/2
 6301 00ce C400     		.2byte	(.L839-.L841)/2
 6302 00d0 C400     		.2byte	(.L839-.L841)/2
 6303 00d2 7400     		.2byte	(.L844-.L841)/2
 6304 00d4 C400     		.2byte	(.L839-.L841)/2
 6305 00d6 C400     		.2byte	(.L839-.L841)/2
 6306 00d8 C400     		.2byte	(.L839-.L841)/2
ARM GAS  C:\Users\Nathan\AppData\Local\Temp\ccPdMrK0.s 			page 108


 6307 00da 8D00     		.2byte	(.L843-.L841)/2
 6308 00dc C400     		.2byte	(.L839-.L841)/2
 6309 00de C400     		.2byte	(.L839-.L841)/2
 6310 00e0 C400     		.2byte	(.L839-.L841)/2
 6311 00e2 A600     		.2byte	(.L842-.L841)/2
 6312 00e4 C400     		.2byte	(.L839-.L841)/2
 6313 00e6 C400     		.2byte	(.L839-.L841)/2
 6314 00e8 C400     		.2byte	(.L839-.L841)/2
 6315 00ea BF00     		.2byte	(.L840-.L841)/2
 6316              		.p2align 1
 6317              	.L836:
 6318 00ec 95F83F20 		ldrb	r2, [r5, #63]	@ zero_extendqisi2
 6319 00f0 D2B2     		uxtb	r2, r2
 6320 00f2 012A     		cmp	r2, #1
 6321 00f4 14BF     		ite	ne
 6322 00f6 0022     		movne	r2, #0
 6323 00f8 0122     		moveq	r2, #1
 6324 00fa D8E7     		b	.L838
 6325              	.L835:
 6326 00fc 95F84020 		ldrb	r2, [r5, #64]	@ zero_extendqisi2
 6327 0100 D2B2     		uxtb	r2, r2
 6328 0102 012A     		cmp	r2, #1
 6329 0104 14BF     		ite	ne
 6330 0106 0022     		movne	r2, #0
 6331 0108 0122     		moveq	r2, #1
 6332 010a D0E7     		b	.L838
 6333              	.L834:
 6334 010c 95F84120 		ldrb	r2, [r5, #65]	@ zero_extendqisi2
 6335 0110 D2B2     		uxtb	r2, r2
 6336 0112 012A     		cmp	r2, #1
 6337 0114 14BF     		ite	ne
 6338 0116 0022     		movne	r2, #0
 6339 0118 0122     		moveq	r2, #1
 6340 011a C8E7     		b	.L838
 6341              	.L832:
 6342 011c 95F84220 		ldrb	r2, [r5, #66]	@ zero_extendqisi2
 6343 0120 D2B2     		uxtb	r2, r2
 6344 0122 012A     		cmp	r2, #1
 6345 0124 14BF     		ite	ne
 6346 0126 0022     		movne	r2, #0
 6347 0128 0122     		moveq	r2, #1
 6348 012a C0E7     		b	.L838
 6349              	.L831:
 6350 012c 95F84320 		ldrb	r2, [r5, #67]	@ zero_extendqisi2
 6351 0130 D2B2     		uxtb	r2, r2
 6352 0132 012A     		cmp	r2, #1
 6353 0134 14BF     		ite	ne
 6354 0136 0022     		movne	r2, #0
 6355 0138 0122     		moveq	r2, #1
 6356 013a B8E7     		b	.L838
 6357              	.L845:
 6358 013c 0222     		movs	r2, #2
 6359 013e 85F83E20 		strb	r2, [r5, #62]
 6360              	.L846:
 6361 0142 6A6A     		ldr	r2, [r5, #36]
 6362 0144 6648     		ldr	r0, .L872
 6363 0146 D062     		str	r0, [r2, #44]
ARM GAS  C:\Users\Nathan\AppData\Local\Temp\ccPdMrK0.s 			page 109


 6364 0148 6A6A     		ldr	r2, [r5, #36]
 6365 014a 6648     		ldr	r0, .L872+4
 6366 014c 1063     		str	r0, [r2, #48]
 6367 014e 6A6A     		ldr	r2, [r5, #36]
 6368 0150 6548     		ldr	r0, .L872+8
 6369 0152 5063     		str	r0, [r2, #52]
 6370 0154 2A68     		ldr	r2, [r5]
 6371 0156 3432     		adds	r2, r2, #52
 6372 0158 686A     		ldr	r0, [r5, #36]
 6373 015a FFF7FEFF 		bl	HAL_DMA_Start_IT
 6374 015e 0028     		cmp	r0, #0
 6375 0160 40F0B280 		bne	.L861
 6376 0164 2A68     		ldr	r2, [r5]
 6377 0166 D368     		ldr	r3, [r2, #12]
 6378 0168 43F40073 		orr	r3, r3, #512
 6379 016c D360     		str	r3, [r2, #12]
 6380              	.L851:
 6381 016e 0122     		movs	r2, #1
 6382 0170 2146     		mov	r1, r4
 6383 0172 2868     		ldr	r0, [r5]
 6384 0174 FFF7FEFF 		bl	TIM_CCxChannelCmd
 6385 0178 2B68     		ldr	r3, [r5]
 6386 017a 5C4A     		ldr	r2, .L872+12
 6387 017c 9342     		cmp	r3, r2
 6388 017e 07D0     		beq	.L852
 6389 0180 02F5C052 		add	r2, r2, #6144
 6390 0184 9342     		cmp	r3, r2
 6391 0186 03D0     		beq	.L852
 6392 0188 02F58062 		add	r2, r2, #1024
 6393 018c 9342     		cmp	r3, r2
 6394 018e 03D1     		bne	.L853
 6395              	.L852:
 6396 0190 5A6C     		ldr	r2, [r3, #68]
 6397 0192 42F40042 		orr	r2, r2, #32768
 6398 0196 5A64     		str	r2, [r3, #68]
 6399              	.L853:
 6400 0198 2B68     		ldr	r3, [r5]
 6401 019a 544A     		ldr	r2, .L872+12
 6402 019c 9342     		cmp	r3, r2
 6403 019e 7BD0     		beq	.L854
 6404 01a0 B3F1804F 		cmp	r3, #1073741824
 6405 01a4 78D0     		beq	.L854
 6406 01a6 1A68     		ldr	r2, [r3]
 6407 01a8 42F00102 		orr	r2, r2, #1
 6408 01ac 1A60     		str	r2, [r3]
 6409 01ae 0020     		movs	r0, #0
 6410 01b0 83E0     		b	.L830
 6411              	.L844:
 6412 01b2 0222     		movs	r2, #2
 6413 01b4 85F83F20 		strb	r2, [r5, #63]
 6414              	.L847:
 6415 01b8 AA6A     		ldr	r2, [r5, #40]
 6416 01ba 4948     		ldr	r0, .L872
 6417 01bc D062     		str	r0, [r2, #44]
 6418 01be AA6A     		ldr	r2, [r5, #40]
 6419 01c0 4848     		ldr	r0, .L872+4
 6420 01c2 1063     		str	r0, [r2, #48]
ARM GAS  C:\Users\Nathan\AppData\Local\Temp\ccPdMrK0.s 			page 110


 6421 01c4 AA6A     		ldr	r2, [r5, #40]
 6422 01c6 4848     		ldr	r0, .L872+8
 6423 01c8 5063     		str	r0, [r2, #52]
 6424 01ca 2A68     		ldr	r2, [r5]
 6425 01cc 3832     		adds	r2, r2, #56
 6426 01ce A86A     		ldr	r0, [r5, #40]
 6427 01d0 FFF7FEFF 		bl	HAL_DMA_Start_IT
 6428 01d4 0028     		cmp	r0, #0
 6429 01d6 79D1     		bne	.L862
 6430 01d8 2A68     		ldr	r2, [r5]
 6431 01da D368     		ldr	r3, [r2, #12]
 6432 01dc 43F48063 		orr	r3, r3, #1024
 6433 01e0 D360     		str	r3, [r2, #12]
 6434 01e2 C4E7     		b	.L851
 6435              	.L843:
 6436 01e4 0222     		movs	r2, #2
 6437 01e6 85F84020 		strb	r2, [r5, #64]
 6438              	.L848:
 6439 01ea EA6A     		ldr	r2, [r5, #44]
 6440 01ec 3C48     		ldr	r0, .L872
 6441 01ee D062     		str	r0, [r2, #44]
 6442 01f0 EA6A     		ldr	r2, [r5, #44]
 6443 01f2 3C48     		ldr	r0, .L872+4
 6444 01f4 1063     		str	r0, [r2, #48]
 6445 01f6 EA6A     		ldr	r2, [r5, #44]
 6446 01f8 3B48     		ldr	r0, .L872+8
 6447 01fa 5063     		str	r0, [r2, #52]
 6448 01fc 2A68     		ldr	r2, [r5]
 6449 01fe 3C32     		adds	r2, r2, #60
 6450 0200 E86A     		ldr	r0, [r5, #44]
 6451 0202 FFF7FEFF 		bl	HAL_DMA_Start_IT
 6452 0206 0028     		cmp	r0, #0
 6453 0208 62D1     		bne	.L863
 6454 020a 2A68     		ldr	r2, [r5]
 6455 020c D368     		ldr	r3, [r2, #12]
 6456 020e 43F40063 		orr	r3, r3, #2048
 6457 0212 D360     		str	r3, [r2, #12]
 6458 0214 ABE7     		b	.L851
 6459              	.L842:
 6460 0216 0222     		movs	r2, #2
 6461 0218 85F84120 		strb	r2, [r5, #65]
 6462              	.L849:
 6463 021c 2A6B     		ldr	r2, [r5, #48]
 6464 021e 3048     		ldr	r0, .L872
 6465 0220 D062     		str	r0, [r2, #44]
 6466 0222 2A6B     		ldr	r2, [r5, #48]
 6467 0224 2F48     		ldr	r0, .L872+4
 6468 0226 1063     		str	r0, [r2, #48]
 6469 0228 2A6B     		ldr	r2, [r5, #48]
 6470 022a 2F48     		ldr	r0, .L872+8
 6471 022c 5063     		str	r0, [r2, #52]
 6472 022e 2A68     		ldr	r2, [r5]
 6473 0230 4032     		adds	r2, r2, #64
 6474 0232 286B     		ldr	r0, [r5, #48]
 6475 0234 FFF7FEFF 		bl	HAL_DMA_Start_IT
 6476 0238 0028     		cmp	r0, #0
 6477 023a 4BD1     		bne	.L864
ARM GAS  C:\Users\Nathan\AppData\Local\Temp\ccPdMrK0.s 			page 111


 6478 023c 2A68     		ldr	r2, [r5]
 6479 023e D368     		ldr	r3, [r2, #12]
 6480 0240 43F48053 		orr	r3, r3, #4096
 6481 0244 D360     		str	r3, [r2, #12]
 6482 0246 92E7     		b	.L851
 6483              	.L840:
 6484 0248 0223     		movs	r3, #2
 6485 024a 85F84230 		strb	r3, [r5, #66]
 6486 024e 0120     		movs	r0, #1
 6487 0250 33E0     		b	.L830
 6488              	.L839:
 6489 0252 0222     		movs	r2, #2
 6490 0254 85F84320 		strb	r2, [r5, #67]
 6491 0258 0C2C     		cmp	r4, #12
 6492 025a 33D8     		bhi	.L860
 6493 025c 01A2     		adr	r2, .L850
 6494 025e 52F824F0 		ldr	pc, [r2, r4, lsl #2]
 6495 0262 00BF     		.p2align 2
 6496              	.L850:
 6497 0264 43010000 		.word	.L846+1
 6498 0268 C5020000 		.word	.L860+1
 6499 026c C5020000 		.word	.L860+1
 6500 0270 C5020000 		.word	.L860+1
 6501 0274 B9010000 		.word	.L847+1
 6502 0278 C5020000 		.word	.L860+1
 6503 027c C5020000 		.word	.L860+1
 6504 0280 C5020000 		.word	.L860+1
 6505 0284 EB010000 		.word	.L848+1
 6506 0288 C5020000 		.word	.L860+1
 6507 028c C5020000 		.word	.L860+1
 6508 0290 C5020000 		.word	.L860+1
 6509 0294 1D020000 		.word	.L849+1
 6510              		.p2align 1
 6511              	.L854:
 6512 0298 9968     		ldr	r1, [r3, #8]
 6513 029a 154A     		ldr	r2, .L872+16
 6514 029c 0A40     		ands	r2, r2, r1
 6515 029e 062A     		cmp	r2, #6
 6516 02a0 1AD0     		beq	.L865
 6517 02a2 B2F5803F 		cmp	r2, #65536
 6518 02a6 19D0     		beq	.L866
 6519 02a8 1A68     		ldr	r2, [r3]
 6520 02aa 42F00102 		orr	r2, r2, #1
 6521 02ae 1A60     		str	r2, [r3]
 6522 02b0 0020     		movs	r0, #0
 6523 02b2 02E0     		b	.L830
 6524              	.L856:
 6525 02b4 0220     		movs	r0, #2
 6526 02b6 00E0     		b	.L830
 6527              	.L857:
 6528 02b8 0120     		movs	r0, #1
 6529              	.L830:
 6530 02ba 38BD     		pop	{r3, r4, r5, pc}
 6531              	.L858:
 6532 02bc 0120     		movs	r0, #1
 6533 02be FCE7     		b	.L830
 6534              	.L859:
ARM GAS  C:\Users\Nathan\AppData\Local\Temp\ccPdMrK0.s 			page 112


 6535 02c0 0120     		movs	r0, #1
 6536 02c2 FAE7     		b	.L830
 6537              	.L860:
 6538 02c4 0120     		movs	r0, #1
 6539 02c6 F8E7     		b	.L830
 6540              	.L861:
 6541 02c8 0120     		movs	r0, #1
 6542 02ca F6E7     		b	.L830
 6543              	.L862:
 6544 02cc 0120     		movs	r0, #1
 6545 02ce F4E7     		b	.L830
 6546              	.L863:
 6547 02d0 0120     		movs	r0, #1
 6548 02d2 F2E7     		b	.L830
 6549              	.L864:
 6550 02d4 0120     		movs	r0, #1
 6551 02d6 F0E7     		b	.L830
 6552              	.L865:
 6553 02d8 0020     		movs	r0, #0
 6554 02da EEE7     		b	.L830
 6555              	.L866:
 6556 02dc 0020     		movs	r0, #0
 6557 02de ECE7     		b	.L830
 6558              	.L873:
 6559              		.align	2
 6560              	.L872:
 6561 02e0 00000000 		.word	TIM_DMADelayPulseCplt
 6562 02e4 00000000 		.word	TIM_DMADelayPulseHalfCplt
 6563 02e8 00000000 		.word	TIM_DMAError
 6564 02ec 002C0140 		.word	1073818624
 6565 02f0 07000100 		.word	65543
 6567              		.section	.text.HAL_TIM_PWM_Stop_DMA,"ax",%progbits
 6568              		.align	1
 6569              		.global	HAL_TIM_PWM_Stop_DMA
 6570              		.syntax unified
 6571              		.thumb
 6572              		.thumb_func
 6574              	HAL_TIM_PWM_Stop_DMA:
 6575              		@ args = 0, pretend = 0, frame = 0
 6576              		@ frame_needed = 0, uses_anonymous_args = 0
 6577 0000 38B5     		push	{r3, r4, r5, lr}
 6578 0002 0446     		mov	r4, r0
 6579 0004 0D46     		mov	r5, r1
 6580 0006 0C29     		cmp	r1, #12
 6581 0008 00F28980 		bhi	.L892
 6582 000c DFE801F0 		tbb	[pc, r1]
 6583              	.L877:
 6584 0010 07       		.byte	(.L880-.L877)/2
 6585 0011 87       		.byte	(.L892-.L877)/2
 6586 0012 87       		.byte	(.L892-.L877)/2
 6587 0013 87       		.byte	(.L892-.L877)/2
 6588 0014 3D       		.byte	(.L879-.L877)/2
 6589 0015 87       		.byte	(.L892-.L877)/2
 6590 0016 87       		.byte	(.L892-.L877)/2
 6591 0017 87       		.byte	(.L892-.L877)/2
 6592 0018 46       		.byte	(.L878-.L877)/2
 6593 0019 87       		.byte	(.L892-.L877)/2
ARM GAS  C:\Users\Nathan\AppData\Local\Temp\ccPdMrK0.s 			page 113


 6594 001a 87       		.byte	(.L892-.L877)/2
 6595 001b 87       		.byte	(.L892-.L877)/2
 6596 001c 4F       		.byte	(.L876-.L877)/2
 6597 001d 00       		.p2align 1
 6598              	.L880:
 6599 001e 0268     		ldr	r2, [r0]
 6600 0020 D368     		ldr	r3, [r2, #12]
 6601 0022 23F40073 		bic	r3, r3, #512
 6602 0026 D360     		str	r3, [r2, #12]
 6603 0028 406A     		ldr	r0, [r0, #36]
 6604 002a FFF7FEFF 		bl	HAL_DMA_Abort_IT
