ARM GAS  C:\Users\Nathan\AppData\Local\Temp\ccHv7DkY.s 			page 1


   1              		.cpu cortex-m4
   2              		.arch armv7e-m
   3              		.fpu fpv4-sp-d16
   4              		.eabi_attribute 27, 1
   5              		.eabi_attribute 28, 1
   6              		.eabi_attribute 20, 1
   7              		.eabi_attribute 21, 1
   8              		.eabi_attribute 23, 3
   9              		.eabi_attribute 24, 1
  10              		.eabi_attribute 25, 1
  11              		.eabi_attribute 26, 1
  12              		.eabi_attribute 30, 1
  13              		.eabi_attribute 34, 1
  14              		.eabi_attribute 18, 4
  15              		.file	"stm32wbxx_hal_rtc.c"
  16              		.text
  17              		.section	.text.HAL_RTC_MspInit,"ax",%progbits
  18              		.align	1
  19              		.weak	HAL_RTC_MspInit
  20              		.syntax unified
  21              		.thumb
  22              		.thumb_func
  24              	HAL_RTC_MspInit:
  25              		@ args = 0, pretend = 0, frame = 0
  26              		@ frame_needed = 0, uses_anonymous_args = 0
  27              		@ link register save eliminated.
  28 0000 7047     		bx	lr
  30              		.section	.text.HAL_RTC_MspDeInit,"ax",%progbits
  31              		.align	1
  32              		.weak	HAL_RTC_MspDeInit
  33              		.syntax unified
  34              		.thumb
  35              		.thumb_func
  37              	HAL_RTC_MspDeInit:
  38              		@ args = 0, pretend = 0, frame = 0
  39              		@ frame_needed = 0, uses_anonymous_args = 0
  40              		@ link register save eliminated.
  41 0000 7047     		bx	lr
  43              		.section	.text.HAL_RTC_DeactivateAlarm,"ax",%progbits
  44              		.align	1
  45              		.global	HAL_RTC_DeactivateAlarm
  46              		.syntax unified
  47              		.thumb
  48              		.thumb_func
  50              	HAL_RTC_DeactivateAlarm:
  51              		@ args = 0, pretend = 0, frame = 0
  52              		@ frame_needed = 0, uses_anonymous_args = 0
  53 0000 38B5     		push	{r3, r4, r5, lr}
  54 0002 90F82030 		ldrb	r3, [r0, #32]	@ zero_extendqisi2
  55 0006 012B     		cmp	r3, #1
  56 0008 5DD0     		beq	.L11
  57 000a 0446     		mov	r4, r0
  58 000c 0123     		movs	r3, #1
  59 000e 80F82030 		strb	r3, [r0, #32]
  60 0012 0223     		movs	r3, #2
  61 0014 80F82130 		strb	r3, [r0, #33]
  62 0018 0368     		ldr	r3, [r0]
ARM GAS  C:\Users\Nathan\AppData\Local\Temp\ccHv7DkY.s 			page 2


  63 001a CA22     		movs	r2, #202
  64 001c 5A62     		str	r2, [r3, #36]
  65 001e 0368     		ldr	r3, [r0]
  66 0020 5322     		movs	r2, #83
  67 0022 5A62     		str	r2, [r3, #36]
  68 0024 B1F5807F 		cmp	r1, #256
  69 0028 21D0     		beq	.L13
  70 002a 0268     		ldr	r2, [r0]
  71 002c 9368     		ldr	r3, [r2, #8]
  72 002e 23F40073 		bic	r3, r3, #512
  73 0032 9360     		str	r3, [r2, #8]
  74 0034 0268     		ldr	r2, [r0]
  75 0036 9368     		ldr	r3, [r2, #8]
  76 0038 23F40053 		bic	r3, r3, #8192
  77 003c 9360     		str	r3, [r2, #8]
  78 003e FFF7FEFF 		bl	HAL_GetTick
  79 0042 0546     		mov	r5, r0
  80              	.L9:
  81 0044 2368     		ldr	r3, [r4]
  82 0046 DB68     		ldr	r3, [r3, #12]
  83 0048 13F0020F 		tst	r3, #2
  84 004c 31D1     		bne	.L8
  85 004e FFF7FEFF 		bl	HAL_GetTick
  86 0052 431B     		subs	r3, r0, r5
  87 0054 B3F57A7F 		cmp	r3, #1000
  88 0058 F4D9     		bls	.L9
  89 005a 2368     		ldr	r3, [r4]
  90 005c FF22     		movs	r2, #255
  91 005e 5A62     		str	r2, [r3, #36]
  92 0060 0320     		movs	r0, #3
  93 0062 84F82100 		strb	r0, [r4, #33]
  94 0066 0023     		movs	r3, #0
  95 0068 84F82030 		strb	r3, [r4, #32]
  96 006c 2AE0     		b	.L4
  97              	.L13:
  98 006e 0268     		ldr	r2, [r0]
  99 0070 9368     		ldr	r3, [r2, #8]
 100 0072 23F48073 		bic	r3, r3, #256
 101 0076 9360     		str	r3, [r2, #8]
 102 0078 0268     		ldr	r2, [r0]
 103 007a 9368     		ldr	r3, [r2, #8]
 104 007c 23F48053 		bic	r3, r3, #4096
 105 0080 9360     		str	r3, [r2, #8]
 106 0082 FFF7FEFF 		bl	HAL_GetTick
 107 0086 0546     		mov	r5, r0
 108              	.L6:
 109 0088 2368     		ldr	r3, [r4]
 110 008a DB68     		ldr	r3, [r3, #12]
 111 008c 13F0010F 		tst	r3, #1
 112 0090 0FD1     		bne	.L8
 113 0092 FFF7FEFF 		bl	HAL_GetTick
 114 0096 401B     		subs	r0, r0, r5
 115 0098 B0F57A7F 		cmp	r0, #1000
 116 009c F4D9     		bls	.L6
 117 009e 2368     		ldr	r3, [r4]
 118 00a0 FF22     		movs	r2, #255
 119 00a2 5A62     		str	r2, [r3, #36]
ARM GAS  C:\Users\Nathan\AppData\Local\Temp\ccHv7DkY.s 			page 3


 120 00a4 0320     		movs	r0, #3
 121 00a6 84F82100 		strb	r0, [r4, #33]
 122 00aa 0023     		movs	r3, #0
 123 00ac 84F82030 		strb	r3, [r4, #32]
 124 00b0 08E0     		b	.L4
 125              	.L8:
 126 00b2 2368     		ldr	r3, [r4]
 127 00b4 FF22     		movs	r2, #255
 128 00b6 5A62     		str	r2, [r3, #36]
 129 00b8 0123     		movs	r3, #1
 130 00ba 84F82130 		strb	r3, [r4, #33]
 131 00be 0020     		movs	r0, #0
 132 00c0 84F82000 		strb	r0, [r4, #32]
 133              	.L4:
 134 00c4 38BD     		pop	{r3, r4, r5, pc}
 135              	.L11:
 136 00c6 0220     		movs	r0, #2
 137 00c8 FCE7     		b	.L4
 139              		.section	.text.HAL_RTC_AlarmAEventCallback,"ax",%progbits
 140              		.align	1
 141              		.weak	HAL_RTC_AlarmAEventCallback
 142              		.syntax unified
 143              		.thumb
 144              		.thumb_func
 146              	HAL_RTC_AlarmAEventCallback:
 147              		@ args = 0, pretend = 0, frame = 0
 148              		@ frame_needed = 0, uses_anonymous_args = 0
 149              		@ link register save eliminated.
 150 0000 7047     		bx	lr
 152              		.section	.text.HAL_RTC_AlarmIRQHandler,"ax",%progbits
 153              		.align	1
 154              		.global	HAL_RTC_AlarmIRQHandler
 155              		.syntax unified
 156              		.thumb
 157              		.thumb_func
 159              	HAL_RTC_AlarmIRQHandler:
 160              		@ args = 0, pretend = 0, frame = 0
 161              		@ frame_needed = 0, uses_anonymous_args = 0
 162 0000 10B5     		push	{r4, lr}
 163 0002 0446     		mov	r4, r0
 164 0004 154B     		ldr	r3, .L21
 165 0006 4FF40032 		mov	r2, #131072
 166 000a DA60     		str	r2, [r3, #12]
 167 000c 0368     		ldr	r3, [r0]
 168 000e 9A68     		ldr	r2, [r3, #8]
 169 0010 12F4805F 		tst	r2, #4096
 170 0014 03D0     		beq	.L16
 171 0016 DA68     		ldr	r2, [r3, #12]
 172 0018 12F4807F 		tst	r2, #256
 173 001c 0CD1     		bne	.L19
 174              	.L16:
 175 001e 2368     		ldr	r3, [r4]
 176 0020 9A68     		ldr	r2, [r3, #8]
 177 0022 12F4005F 		tst	r2, #8192
 178 0026 03D0     		beq	.L17
 179 0028 DA68     		ldr	r2, [r3, #12]
 180 002a 12F4007F 		tst	r2, #512
ARM GAS  C:\Users\Nathan\AppData\Local\Temp\ccHv7DkY.s 			page 4


 181 002e 0BD1     		bne	.L20
 182              	.L17:
 183 0030 0123     		movs	r3, #1
 184 0032 84F82130 		strb	r3, [r4, #33]
 185 0036 10BD     		pop	{r4, pc}
 186              	.L19:
 187 0038 DA68     		ldr	r2, [r3, #12]
 188 003a D2B2     		uxtb	r2, r2
 189 003c 62F4C072 		orn	r2, r2, #384
 190 0040 DA60     		str	r2, [r3, #12]
 191 0042 FFF7FEFF 		bl	HAL_RTC_AlarmAEventCallback
 192 0046 EAE7     		b	.L16
 193              	.L20:
 194 0048 DA68     		ldr	r2, [r3, #12]
 195 004a D2B2     		uxtb	r2, r2
 196 004c 62F42072 		orn	r2, r2, #640
 197 0050 DA60     		str	r2, [r3, #12]
 198 0052 2046     		mov	r0, r4
 199 0054 FFF7FEFF 		bl	HAL_RTCEx_AlarmBEventCallback
 200 0058 EAE7     		b	.L17
 201              	.L22:
 202 005a 00BF     		.align	2
 203              	.L21:
 204 005c 00080058 		.word	1476397056
 206              		.section	.text.HAL_RTC_PollForAlarmAEvent,"ax",%progbits
 207              		.align	1
 208              		.global	HAL_RTC_PollForAlarmAEvent
 209              		.syntax unified
 210              		.thumb
 211              		.thumb_func
 213              	HAL_RTC_PollForAlarmAEvent:
 214              		@ args = 0, pretend = 0, frame = 0
 215              		@ frame_needed = 0, uses_anonymous_args = 0
 216 0000 70B5     		push	{r4, r5, r6, lr}
 217 0002 0446     		mov	r4, r0
 218 0004 0D46     		mov	r5, r1
 219 0006 FFF7FEFF 		bl	HAL_GetTick
 220 000a 0646     		mov	r6, r0
 221              	.L25:
 222 000c 2368     		ldr	r3, [r4]
 223 000e DA68     		ldr	r2, [r3, #12]
 224 0010 12F4807F 		tst	r2, #256
 225 0014 0CD1     		bne	.L30
 226 0016 B5F1FF3F 		cmp	r5, #-1
 227 001a F7D0     		beq	.L25
 228 001c 25B1     		cbz	r5, .L26
 229 001e FFF7FEFF 		bl	HAL_GetTick
 230 0022 801B     		subs	r0, r0, r6
 231 0024 A842     		cmp	r0, r5
 232 0026 F1D9     		bls	.L25
 233              	.L26:
 234 0028 0320     		movs	r0, #3
 235 002a 84F82100 		strb	r0, [r4, #33]
 236 002e 08E0     		b	.L27
 237              	.L30:
 238 0030 DA68     		ldr	r2, [r3, #12]
 239 0032 D2B2     		uxtb	r2, r2
ARM GAS  C:\Users\Nathan\AppData\Local\Temp\ccHv7DkY.s 			page 5


 240 0034 62F4C072 		orn	r2, r2, #384
 241 0038 DA60     		str	r2, [r3, #12]
 242 003a 0123     		movs	r3, #1
 243 003c 84F82130 		strb	r3, [r4, #33]
 244 0040 0020     		movs	r0, #0
 245              	.L27:
 246 0042 70BD     		pop	{r4, r5, r6, pc}
 248              		.section	.text.HAL_RTC_WaitForSynchro,"ax",%progbits
 249              		.align	1
 250              		.global	HAL_RTC_WaitForSynchro
 251              		.syntax unified
 252              		.thumb
 253              		.thumb_func
 255              	HAL_RTC_WaitForSynchro:
 256              		@ args = 0, pretend = 0, frame = 0
 257              		@ frame_needed = 0, uses_anonymous_args = 0
 258 0000 38B5     		push	{r3, r4, r5, lr}
 259 0002 0446     		mov	r4, r0
 260 0004 0368     		ldr	r3, [r0]
 261 0006 0A4A     		ldr	r2, .L38
 262 0008 DA60     		str	r2, [r3, #12]
 263 000a FFF7FEFF 		bl	HAL_GetTick
 264 000e 0546     		mov	r5, r0
 265              	.L32:
 266 0010 2368     		ldr	r3, [r4]
 267 0012 DB68     		ldr	r3, [r3, #12]
 268 0014 13F0200F 		tst	r3, #32
 269 0018 07D1     		bne	.L37
 270 001a FFF7FEFF 		bl	HAL_GetTick
 271 001e 401B     		subs	r0, r0, r5
 272 0020 B0F57A7F 		cmp	r0, #1000
 273 0024 F4D9     		bls	.L32
 274 0026 0320     		movs	r0, #3
 275 0028 00E0     		b	.L33
 276              	.L37:
 277 002a 0020     		movs	r0, #0
 278              	.L33:
 279 002c 38BD     		pop	{r3, r4, r5, pc}
 280              	.L39:
 281 002e 00BF     		.align	2
 282              	.L38:
 283 0030 5FFF0100 		.word	130911
 285              		.section	.text.HAL_RTC_DST_Add1Hour,"ax",%progbits
 286              		.align	1
 287              		.global	HAL_RTC_DST_Add1Hour
 288              		.syntax unified
 289              		.thumb
 290              		.thumb_func
 292              	HAL_RTC_DST_Add1Hour:
 293              		@ args = 0, pretend = 0, frame = 0
 294              		@ frame_needed = 0, uses_anonymous_args = 0
 295              		@ link register save eliminated.
 296 0000 0368     		ldr	r3, [r0]
 297 0002 CA22     		movs	r2, #202
 298 0004 5A62     		str	r2, [r3, #36]
 299 0006 0368     		ldr	r3, [r0]
 300 0008 5322     		movs	r2, #83
ARM GAS  C:\Users\Nathan\AppData\Local\Temp\ccHv7DkY.s 			page 6


 301 000a 5A62     		str	r2, [r3, #36]
 302 000c 0268     		ldr	r2, [r0]
 303 000e 9368     		ldr	r3, [r2, #8]
 304 0010 43F48033 		orr	r3, r3, #65536
 305 0014 9360     		str	r3, [r2, #8]
 306 0016 0368     		ldr	r3, [r0]
 307 0018 FF22     		movs	r2, #255
 308 001a 5A62     		str	r2, [r3, #36]
 309 001c 7047     		bx	lr
 311              		.section	.text.HAL_RTC_DST_Sub1Hour,"ax",%progbits
 312              		.align	1
 313              		.global	HAL_RTC_DST_Sub1Hour
 314              		.syntax unified
 315              		.thumb
 316              		.thumb_func
 318              	HAL_RTC_DST_Sub1Hour:
 319              		@ args = 0, pretend = 0, frame = 0
 320              		@ frame_needed = 0, uses_anonymous_args = 0
 321              		@ link register save eliminated.
 322 0000 0368     		ldr	r3, [r0]
 323 0002 CA22     		movs	r2, #202
 324 0004 5A62     		str	r2, [r3, #36]
 325 0006 0368     		ldr	r3, [r0]
 326 0008 5322     		movs	r2, #83
 327 000a 5A62     		str	r2, [r3, #36]
 328 000c 0268     		ldr	r2, [r0]
 329 000e 9368     		ldr	r3, [r2, #8]
 330 0010 43F40033 		orr	r3, r3, #131072
 331 0014 9360     		str	r3, [r2, #8]
 332 0016 0368     		ldr	r3, [r0]
 333 0018 FF22     		movs	r2, #255
 334 001a 5A62     		str	r2, [r3, #36]
 335 001c 7047     		bx	lr
 337              		.section	.text.HAL_RTC_DST_SetStoreOperation,"ax",%progbits
 338              		.align	1
 339              		.global	HAL_RTC_DST_SetStoreOperation
 340              		.syntax unified
 341              		.thumb
 342              		.thumb_func
 344              	HAL_RTC_DST_SetStoreOperation:
 345              		@ args = 0, pretend = 0, frame = 0
 346              		@ frame_needed = 0, uses_anonymous_args = 0
 347              		@ link register save eliminated.
 348 0000 0368     		ldr	r3, [r0]
 349 0002 CA22     		movs	r2, #202
 350 0004 5A62     		str	r2, [r3, #36]
 351 0006 0368     		ldr	r3, [r0]
 352 0008 5322     		movs	r2, #83
 353 000a 5A62     		str	r2, [r3, #36]
 354 000c 0268     		ldr	r2, [r0]
 355 000e 9368     		ldr	r3, [r2, #8]
 356 0010 43F48023 		orr	r3, r3, #262144
 357 0014 9360     		str	r3, [r2, #8]
 358 0016 0368     		ldr	r3, [r0]
 359 0018 FF22     		movs	r2, #255
 360 001a 5A62     		str	r2, [r3, #36]
 361 001c 7047     		bx	lr
ARM GAS  C:\Users\Nathan\AppData\Local\Temp\ccHv7DkY.s 			page 7


 363              		.section	.text.HAL_RTC_DST_ClearStoreOperation,"ax",%progbits
 364              		.align	1
 365              		.global	HAL_RTC_DST_ClearStoreOperation
 366              		.syntax unified
 367              		.thumb
 368              		.thumb_func
 370              	HAL_RTC_DST_ClearStoreOperation:
 371              		@ args = 0, pretend = 0, frame = 0
 372              		@ frame_needed = 0, uses_anonymous_args = 0
 373              		@ link register save eliminated.
 374 0000 0368     		ldr	r3, [r0]
 375 0002 CA22     		movs	r2, #202
 376 0004 5A62     		str	r2, [r3, #36]
 377 0006 0368     		ldr	r3, [r0]
 378 0008 5322     		movs	r2, #83
 379 000a 5A62     		str	r2, [r3, #36]
 380 000c 0268     		ldr	r2, [r0]
 381 000e 9368     		ldr	r3, [r2, #8]
 382 0010 23F48023 		bic	r3, r3, #262144
 383 0014 9360     		str	r3, [r2, #8]
 384 0016 0368     		ldr	r3, [r0]
 385 0018 FF22     		movs	r2, #255
 386 001a 5A62     		str	r2, [r3, #36]
 387 001c 7047     		bx	lr
 389              		.section	.text.HAL_RTC_DST_ReadStoreOperation,"ax",%progbits
 390              		.align	1
 391              		.global	HAL_RTC_DST_ReadStoreOperation
 392              		.syntax unified
 393              		.thumb
 394              		.thumb_func
 396              	HAL_RTC_DST_ReadStoreOperation:
 397              		@ args = 0, pretend = 0, frame = 0
 398              		@ frame_needed = 0, uses_anonymous_args = 0
 399              		@ link register save eliminated.
 400 0000 0368     		ldr	r3, [r0]
 401 0002 9868     		ldr	r0, [r3, #8]
 402 0004 00F48020 		and	r0, r0, #262144
 403 0008 7047     		bx	lr
 405              		.section	.text.HAL_RTC_GetState,"ax",%progbits
 406              		.align	1
 407              		.global	HAL_RTC_GetState
 408              		.syntax unified
 409              		.thumb
 410              		.thumb_func
 412              	HAL_RTC_GetState:
 413              		@ args = 0, pretend = 0, frame = 0
 414              		@ frame_needed = 0, uses_anonymous_args = 0
 415              		@ link register save eliminated.
 416 0000 90F82100 		ldrb	r0, [r0, #33]	@ zero_extendqisi2
 417 0004 7047     		bx	lr
 419              		.section	.text.RTC_EnterInitMode,"ax",%progbits
 420              		.align	1
 421              		.global	RTC_EnterInitMode
 422              		.syntax unified
 423              		.thumb
 424              		.thumb_func
 426              	RTC_EnterInitMode:
ARM GAS  C:\Users\Nathan\AppData\Local\Temp\ccHv7DkY.s 			page 8


 427              		@ args = 0, pretend = 0, frame = 0
 428              		@ frame_needed = 0, uses_anonymous_args = 0
 429 0000 70B5     		push	{r4, r5, r6, lr}
 430 0002 0368     		ldr	r3, [r0]
 431 0004 DA68     		ldr	r2, [r3, #12]
 432 0006 12F0400F 		tst	r2, #64
 433 000a 02D0     		beq	.L53
 434 000c 0025     		movs	r5, #0
 435              	.L47:
 436 000e 2846     		mov	r0, r5
 437 0010 70BD     		pop	{r4, r5, r6, pc}
 438              	.L53:
 439 0012 0446     		mov	r4, r0
 440 0014 DA68     		ldr	r2, [r3, #12]
 441 0016 42F08002 		orr	r2, r2, #128
 442 001a DA60     		str	r2, [r3, #12]
 443 001c FFF7FEFF 		bl	HAL_GetTick
 444 0020 0646     		mov	r6, r0
 445 0022 0025     		movs	r5, #0
 446              	.L49:
 447 0024 2368     		ldr	r3, [r4]
 448 0026 DB68     		ldr	r3, [r3, #12]
 449 0028 13F0400F 		tst	r3, #64
 450 002c EFD1     		bne	.L47
 451 002e 002D     		cmp	r5, #0
 452 0030 EDD1     		bne	.L47
 453 0032 FFF7FEFF 		bl	HAL_GetTick
 454 0036 831B     		subs	r3, r0, r6
 455 0038 B3F57A7F 		cmp	r3, #1000
 456 003c F2D9     		bls	.L49
 457 003e 0423     		movs	r3, #4
 458 0040 84F82130 		strb	r3, [r4, #33]
 459 0044 0125     		movs	r5, #1
 460 0046 EDE7     		b	.L49
 462              		.section	.text.RTC_ExitInitMode,"ax",%progbits
 463              		.align	1
 464              		.global	RTC_ExitInitMode
 465              		.syntax unified
 466              		.thumb
 467              		.thumb_func
 469              	RTC_ExitInitMode:
 470              		@ args = 0, pretend = 0, frame = 0
 471              		@ frame_needed = 0, uses_anonymous_args = 0
 472 0000 0268     		ldr	r2, [r0]
 473 0002 D368     		ldr	r3, [r2, #12]
 474 0004 23F08003 		bic	r3, r3, #128
 475 0008 D360     		str	r3, [r2, #12]
 476 000a 0368     		ldr	r3, [r0]
 477 000c 9B68     		ldr	r3, [r3, #8]
 478 000e 13F0200F 		tst	r3, #32
 479 0012 01D0     		beq	.L61
 480 0014 0020     		movs	r0, #0
 481 0016 7047     		bx	lr
 482              	.L61:
 483 0018 10B5     		push	{r4, lr}
 484 001a 0446     		mov	r4, r0
 485 001c FFF7FEFF 		bl	HAL_RTC_WaitForSynchro
ARM GAS  C:\Users\Nathan\AppData\Local\Temp\ccHv7DkY.s 			page 9


 486 0020 18B1     		cbz	r0, .L55
 487 0022 0423     		movs	r3, #4
 488 0024 84F82130 		strb	r3, [r4, #33]
 489 0028 0120     		movs	r0, #1
 490              	.L55:
 491 002a 10BD     		pop	{r4, pc}
 493              		.section	.text.HAL_RTC_Init,"ax",%progbits
 494              		.align	1
 495              		.global	HAL_RTC_Init
 496              		.syntax unified
 497              		.thumb
 498              		.thumb_func
 500              	HAL_RTC_Init:
 501              		@ args = 0, pretend = 0, frame = 0
 502              		@ frame_needed = 0, uses_anonymous_args = 0
 503 0000 0028     		cmp	r0, #0
 504 0002 50D0     		beq	.L67
 505 0004 38B5     		push	{r3, r4, r5, lr}
 506 0006 0446     		mov	r4, r0
 507 0008 90F82130 		ldrb	r3, [r0, #33]	@ zero_extendqisi2
 508 000c 63B1     		cbz	r3, .L73
 509              	.L64:
 510 000e 0223     		movs	r3, #2
 511 0010 84F82130 		strb	r3, [r4, #33]
 512 0014 2368     		ldr	r3, [r4]
 513 0016 DA68     		ldr	r2, [r3, #12]
 514 0018 12F0100F 		tst	r2, #16
 515 001c 09D0     		beq	.L74
 516 001e 0020     		movs	r0, #0
 517              	.L65:
 518 0020 0123     		movs	r3, #1
 519 0022 84F82130 		strb	r3, [r4, #33]
 520              	.L63:
 521 0026 38BD     		pop	{r3, r4, r5, pc}
 522              	.L73:
 523 0028 80F82030 		strb	r3, [r0, #32]
 524 002c FFF7FEFF 		bl	HAL_RTC_MspInit
 525 0030 EDE7     		b	.L64
 526              	.L74:
 527 0032 CA22     		movs	r2, #202
 528 0034 5A62     		str	r2, [r3, #36]
 529 0036 2368     		ldr	r3, [r4]
 530 0038 5322     		movs	r2, #83
 531 003a 5A62     		str	r2, [r3, #36]
 532 003c 2046     		mov	r0, r4
 533 003e FFF7FEFF 		bl	RTC_EnterInitMode
 534 0042 28B1     		cbz	r0, .L75
 535              	.L66:
 536 0044 2368     		ldr	r3, [r4]
 537 0046 FF22     		movs	r2, #255
 538 0048 5A62     		str	r2, [r3, #36]
 539 004a 0028     		cmp	r0, #0
 540 004c EBD1     		bne	.L63
 541 004e E7E7     		b	.L65
 542              	.L75:
 543 0050 2268     		ldr	r2, [r4]
 544 0052 9368     		ldr	r3, [r2, #8]
ARM GAS  C:\Users\Nathan\AppData\Local\Temp\ccHv7DkY.s 			page 10


 545 0054 23F4E003 		bic	r3, r3, #7340032
 546 0058 23F04003 		bic	r3, r3, #64
 547 005c 9360     		str	r3, [r2, #8]
 548 005e 2168     		ldr	r1, [r4]
 549 0060 8A68     		ldr	r2, [r1, #8]
 550 0062 6368     		ldr	r3, [r4, #4]
 551 0064 2069     		ldr	r0, [r4, #16]
 552 0066 0343     		orrs	r3, r3, r0
 553 0068 A069     		ldr	r0, [r4, #24]
 554 006a 0343     		orrs	r3, r3, r0
 555 006c 1343     		orrs	r3, r3, r2
 556 006e 8B60     		str	r3, [r1, #8]
 557 0070 2368     		ldr	r3, [r4]
 558 0072 E268     		ldr	r2, [r4, #12]
 559 0074 1A61     		str	r2, [r3, #16]
 560 0076 2268     		ldr	r2, [r4]
 561 0078 1369     		ldr	r3, [r2, #16]
 562 007a A168     		ldr	r1, [r4, #8]
 563 007c 43EA0143 		orr	r3, r3, r1, lsl #16
 564 0080 1361     		str	r3, [r2, #16]
 565 0082 2046     		mov	r0, r4
 566 0084 FFF7FEFF 		bl	RTC_ExitInitMode
 567 0088 0028     		cmp	r0, #0
 568 008a DBD1     		bne	.L66
 569 008c 2268     		ldr	r2, [r4]
 570 008e D36C     		ldr	r3, [r2, #76]
 571 0090 23F00303 		bic	r3, r3, #3
 572 0094 D364     		str	r3, [r2, #76]
 573 0096 2168     		ldr	r1, [r4]
 574 0098 CB6C     		ldr	r3, [r1, #76]
 575 009a E269     		ldr	r2, [r4, #28]
 576 009c 6569     		ldr	r5, [r4, #20]
 577 009e 2A43     		orrs	r2, r2, r5
 578 00a0 1343     		orrs	r3, r3, r2
 579 00a2 CB64     		str	r3, [r1, #76]
 580 00a4 CEE7     		b	.L66
 581              	.L67:
 582 00a6 0120     		movs	r0, #1
 583 00a8 7047     		bx	lr
 585              		.section	.text.HAL_RTC_DeInit,"ax",%progbits
 586              		.align	1
 587              		.global	HAL_RTC_DeInit
 588              		.syntax unified
 589              		.thumb
 590              		.thumb_func
 592              	HAL_RTC_DeInit:
 593              		@ args = 0, pretend = 0, frame = 0
 594              		@ frame_needed = 0, uses_anonymous_args = 0
 595 0000 70B5     		push	{r4, r5, r6, lr}
 596 0002 0446     		mov	r4, r0
 597 0004 0223     		movs	r3, #2
 598 0006 80F82130 		strb	r3, [r0, #33]
 599 000a 0368     		ldr	r3, [r0]
 600 000c CA22     		movs	r2, #202
 601 000e 5A62     		str	r2, [r3, #36]
 602 0010 0368     		ldr	r3, [r0]
 603 0012 5322     		movs	r2, #83
ARM GAS  C:\Users\Nathan\AppData\Local\Temp\ccHv7DkY.s 			page 11


 604 0014 5A62     		str	r2, [r3, #36]
 605 0016 FFF7FEFF 		bl	RTC_EnterInitMode
 606 001a 0546     		mov	r5, r0
 607 001c 40B1     		cbz	r0, .L80
 608              	.L77:
 609 001e 2368     		ldr	r3, [r4]
 610 0020 FF22     		movs	r2, #255
 611 0022 5A62     		str	r2, [r3, #36]
 612 0024 35B3     		cbz	r5, .L81
 613              	.L78:
 614 0026 0023     		movs	r3, #0
 615 0028 84F82030 		strb	r3, [r4, #32]
 616 002c 2846     		mov	r0, r5
 617 002e 70BD     		pop	{r4, r5, r6, pc}
 618              	.L80:
 619 0030 2268     		ldr	r2, [r4]
 620 0032 0023     		movs	r3, #0
 621 0034 1360     		str	r3, [r2]
 622 0036 2268     		ldr	r2, [r4]
 623 0038 42F20111 		movw	r1, #8449
 624 003c 5160     		str	r1, [r2, #4]
 625 003e 2268     		ldr	r2, [r4]
 626 0040 9168     		ldr	r1, [r2, #8]
 627 0042 9360     		str	r3, [r2, #8]
 628 0044 2268     		ldr	r2, [r4]
 629 0046 4FF6FF71 		movw	r1, #65535
 630 004a 5161     		str	r1, [r2, #20]
 631 004c 2268     		ldr	r2, [r4]
 632 004e 0F49     		ldr	r1, .L82
 633 0050 1161     		str	r1, [r2, #16]
 634 0052 2268     		ldr	r2, [r4]
 635 0054 D361     		str	r3, [r2, #28]
 636 0056 2268     		ldr	r2, [r4]
 637 0058 1362     		str	r3, [r2, #32]
 638 005a 2268     		ldr	r2, [r4]
 639 005c D363     		str	r3, [r2, #60]
 640 005e 2268     		ldr	r2, [r4]
 641 0060 D362     		str	r3, [r2, #44]
 642 0062 2268     		ldr	r2, [r4]
 643 0064 5364     		str	r3, [r2, #68]
 644 0066 2268     		ldr	r2, [r4]
 645 0068 9364     		str	r3, [r2, #72]
 646 006a 2046     		mov	r0, r4
 647 006c FFF7FEFF 		bl	RTC_ExitInitMode
 648 0070 0546     		mov	r5, r0
 649 0072 D4E7     		b	.L77
 650              	.L81:
 651 0074 2368     		ldr	r3, [r4]
 652 0076 0026     		movs	r6, #0
 653 0078 1E64     		str	r6, [r3, #64]
 654 007a 2368     		ldr	r3, [r4]
 655 007c DE64     		str	r6, [r3, #76]
 656 007e 2046     		mov	r0, r4
 657 0080 FFF7FEFF 		bl	HAL_RTC_MspDeInit
 658 0084 84F82160 		strb	r6, [r4, #33]
 659 0088 CDE7     		b	.L78
 660              	.L83:
ARM GAS  C:\Users\Nathan\AppData\Local\Temp\ccHv7DkY.s 			page 12


 661 008a 00BF     		.align	2
 662              	.L82:
 663 008c FF007F00 		.word	8323327
 665              		.section	.text.RTC_ByteToBcd2,"ax",%progbits
 666              		.align	1
 667              		.global	RTC_ByteToBcd2
 668              		.syntax unified
 669              		.thumb
 670              		.thumb_func
 672              	RTC_ByteToBcd2:
 673              		@ args = 0, pretend = 0, frame = 0
 674              		@ frame_needed = 0, uses_anonymous_args = 0
 675              		@ link register save eliminated.
 676 0000 0023     		movs	r3, #0
 677 0002 02E0     		b	.L85
 678              	.L86:
 679 0004 0133     		adds	r3, r3, #1
 680 0006 0A38     		subs	r0, r0, #10
 681 0008 C0B2     		uxtb	r0, r0
 682              	.L85:
 683 000a 0928     		cmp	r0, #9
 684 000c FAD8     		bhi	.L86
 685 000e 1B01     		lsls	r3, r3, #4
 686 0010 DBB2     		uxtb	r3, r3
 687 0012 1843     		orrs	r0, r0, r3
 688 0014 7047     		bx	lr
 690              		.section	.text.HAL_RTC_SetTime,"ax",%progbits
 691              		.align	1
 692              		.global	HAL_RTC_SetTime
 693              		.syntax unified
 694              		.thumb
 695              		.thumb_func
 697              	HAL_RTC_SetTime:
 698              		@ args = 0, pretend = 0, frame = 0
 699              		@ frame_needed = 0, uses_anonymous_args = 0
 700 0000 90F82030 		ldrb	r3, [r0, #32]	@ zero_extendqisi2
 701 0004 012B     		cmp	r3, #1
 702 0006 5ED0     		beq	.L94
 703 0008 70B5     		push	{r4, r5, r6, lr}
 704 000a 0446     		mov	r4, r0
 705 000c 0E46     		mov	r6, r1
 706 000e 0123     		movs	r3, #1
 707 0010 80F82030 		strb	r3, [r0, #32]
 708 0014 0223     		movs	r3, #2
 709 0016 80F82130 		strb	r3, [r0, #33]
 710 001a 3ABB     		cbnz	r2, .L89
 711 001c 0368     		ldr	r3, [r0]
 712 001e 9B68     		ldr	r3, [r3, #8]
 713 0020 13F0400F 		tst	r3, #64
 714 0024 01D1     		bne	.L90
 715 0026 0023     		movs	r3, #0
 716 0028 CB70     		strb	r3, [r1, #3]
 717              	.L90:
 718 002a 3078     		ldrb	r0, [r6]	@ zero_extendqisi2
 719 002c FFF7FEFF 		bl	RTC_ByteToBcd2
 720 0030 0504     		lsls	r5, r0, #16
 721 0032 7078     		ldrb	r0, [r6, #1]	@ zero_extendqisi2
ARM GAS  C:\Users\Nathan\AppData\Local\Temp\ccHv7DkY.s 			page 13


 722 0034 FFF7FEFF 		bl	RTC_ByteToBcd2
 723 0038 45EA0025 		orr	r5, r5, r0, lsl #8
 724 003c B078     		ldrb	r0, [r6, #2]	@ zero_extendqisi2
 725 003e FFF7FEFF 		bl	RTC_ByteToBcd2
 726 0042 0543     		orrs	r5, r5, r0
 727 0044 F378     		ldrb	r3, [r6, #3]	@ zero_extendqisi2
 728 0046 45EA8355 		orr	r5, r5, r3, lsl #22
 729              	.L91:
 730 004a 2368     		ldr	r3, [r4]
 731 004c CA22     		movs	r2, #202
 732 004e 5A62     		str	r2, [r3, #36]
 733 0050 2368     		ldr	r3, [r4]
 734 0052 5322     		movs	r2, #83
 735 0054 5A62     		str	r2, [r3, #36]
 736 0056 2046     		mov	r0, r4
 737 0058 FFF7FEFF 		bl	RTC_EnterInitMode
 738 005c C0B1     		cbz	r0, .L99
 739              	.L93:
 740 005e 2368     		ldr	r3, [r4]
 741 0060 FF22     		movs	r2, #255
 742 0062 5A62     		str	r2, [r3, #36]
 743 0064 0023     		movs	r3, #0
 744 0066 84F82030 		strb	r3, [r4, #32]
 745 006a 70BD     		pop	{r4, r5, r6, pc}
 746              	.L89:
 747 006c 0368     		ldr	r3, [r0]
 748 006e 9B68     		ldr	r3, [r3, #8]
 749 0070 13F0400F 		tst	r3, #64
 750 0074 01D1     		bne	.L92
 751 0076 0023     		movs	r3, #0
 752 0078 CB70     		strb	r3, [r1, #3]
 753              	.L92:
 754 007a 3378     		ldrb	r3, [r6]	@ zero_extendqisi2
 755 007c 7578     		ldrb	r5, [r6, #1]	@ zero_extendqisi2
 756 007e 2D02     		lsls	r5, r5, #8
 757 0080 45EA0345 		orr	r5, r5, r3, lsl #16
 758 0084 B378     		ldrb	r3, [r6, #2]	@ zero_extendqisi2
 759 0086 1D43     		orrs	r5, r5, r3
 760 0088 F378     		ldrb	r3, [r6, #3]	@ zero_extendqisi2
 761 008a 45EA8355 		orr	r5, r5, r3, lsl #22
 762 008e DCE7     		b	.L91
 763              	.L99:
 764 0090 2368     		ldr	r3, [r4]
 765 0092 05F07F35 		and	r5, r5, #2139062143
 766 0096 25F0FE45 		bic	r5, r5, #2130706432
 767 009a 1D60     		str	r5, [r3]
 768 009c 2268     		ldr	r2, [r4]
 769 009e 9368     		ldr	r3, [r2, #8]
 770 00a0 23F48023 		bic	r3, r3, #262144
 771 00a4 9360     		str	r3, [r2, #8]
 772 00a6 2168     		ldr	r1, [r4]
 773 00a8 8B68     		ldr	r3, [r1, #8]
 774 00aa F268     		ldr	r2, [r6, #12]
 775 00ac 3069     		ldr	r0, [r6, #16]
 776 00ae 0243     		orrs	r2, r2, r0
 777 00b0 1343     		orrs	r3, r3, r2
 778 00b2 8B60     		str	r3, [r1, #8]
ARM GAS  C:\Users\Nathan\AppData\Local\Temp\ccHv7DkY.s 			page 14


 779 00b4 2046     		mov	r0, r4
 780 00b6 FFF7FEFF 		bl	RTC_ExitInitMode
 781 00ba 0028     		cmp	r0, #0
 782 00bc CFD1     		bne	.L93
 783 00be 0123     		movs	r3, #1
 784 00c0 84F82130 		strb	r3, [r4, #33]
 785 00c4 CBE7     		b	.L93
 786              	.L94:
 787 00c6 0220     		movs	r0, #2
 788 00c8 7047     		bx	lr
 790              		.section	.text.HAL_RTC_SetDate,"ax",%progbits
 791              		.align	1
 792              		.global	HAL_RTC_SetDate
 793              		.syntax unified
 794              		.thumb
 795              		.thumb_func
 797              	HAL_RTC_SetDate:
 798              		@ args = 0, pretend = 0, frame = 0
 799              		@ frame_needed = 0, uses_anonymous_args = 0
 800 0000 90F82030 		ldrb	r3, [r0, #32]	@ zero_extendqisi2
 801 0004 012B     		cmp	r3, #1
 802 0006 4CD0     		beq	.L106
 803 0008 70B5     		push	{r4, r5, r6, lr}
 804 000a 0446     		mov	r4, r0
 805 000c 0E46     		mov	r6, r1
 806 000e 0123     		movs	r3, #1
 807 0010 80F82030 		strb	r3, [r0, #32]
 808 0014 0223     		movs	r3, #2
 809 0016 80F82130 		strb	r3, [r0, #33]
 810 001a D2B1     		cbz	r2, .L102
 811 001c CB78     		ldrb	r3, [r1, #3]	@ zero_extendqisi2
 812 001e 4D78     		ldrb	r5, [r1, #1]	@ zero_extendqisi2
 813 0020 2D02     		lsls	r5, r5, #8
 814 0022 45EA0345 		orr	r5, r5, r3, lsl #16
 815 0026 8B78     		ldrb	r3, [r1, #2]	@ zero_extendqisi2
 816 0028 1D43     		orrs	r5, r5, r3
 817 002a 0B78     		ldrb	r3, [r1]	@ zero_extendqisi2
 818 002c 45EA4335 		orr	r5, r5, r3, lsl #13
 819              	.L103:
 820 0030 2368     		ldr	r3, [r4]
 821 0032 CA22     		movs	r2, #202
 822 0034 5A62     		str	r2, [r3, #36]
 823 0036 2368     		ldr	r3, [r4]
 824 0038 5322     		movs	r2, #83
 825 003a 5A62     		str	r2, [r3, #36]
 826 003c 2046     		mov	r0, r4
 827 003e FFF7FEFF 		bl	RTC_EnterInitMode
 828 0042 F8B1     		cbz	r0, .L111
 829              	.L105:
 830 0044 2368     		ldr	r3, [r4]
 831 0046 FF22     		movs	r2, #255
 832 0048 5A62     		str	r2, [r3, #36]
 833 004a 0023     		movs	r3, #0
 834 004c 84F82030 		strb	r3, [r4, #32]
 835 0050 70BD     		pop	{r4, r5, r6, pc}
 836              	.L102:
 837 0052 4B78     		ldrb	r3, [r1, #1]	@ zero_extendqisi2
ARM GAS  C:\Users\Nathan\AppData\Local\Temp\ccHv7DkY.s 			page 15


 838 0054 13F0100F 		tst	r3, #16
 839 0058 03D0     		beq	.L104
 840 005a 03F0EF03 		and	r3, r3, #239
 841 005e 0A33     		adds	r3, r3, #10
 842 0060 4B70     		strb	r3, [r1, #1]
 843              	.L104:
 844 0062 F078     		ldrb	r0, [r6, #3]	@ zero_extendqisi2
 845 0064 FFF7FEFF 		bl	RTC_ByteToBcd2
 846 0068 0504     		lsls	r5, r0, #16
 847 006a 7078     		ldrb	r0, [r6, #1]	@ zero_extendqisi2
 848 006c FFF7FEFF 		bl	RTC_ByteToBcd2
 849 0070 45EA0025 		orr	r5, r5, r0, lsl #8
 850 0074 B078     		ldrb	r0, [r6, #2]	@ zero_extendqisi2
 851 0076 FFF7FEFF 		bl	RTC_ByteToBcd2
 852 007a 0543     		orrs	r5, r5, r0
 853 007c 3378     		ldrb	r3, [r6]	@ zero_extendqisi2
 854 007e 45EA4335 		orr	r5, r5, r3, lsl #13
 855 0082 D5E7     		b	.L103
 856              	.L111:
 857 0084 2368     		ldr	r3, [r4]
 858 0086 25F07F45 		bic	r5, r5, #-16777216
 859 008a 25F0C005 		bic	r5, r5, #192
 860 008e 5D60     		str	r5, [r3, #4]
 861 0090 2046     		mov	r0, r4
 862 0092 FFF7FEFF 		bl	RTC_ExitInitMode
 863 0096 0028     		cmp	r0, #0
 864 0098 D4D1     		bne	.L105
 865 009a 0123     		movs	r3, #1
 866 009c 84F82130 		strb	r3, [r4, #33]
 867 00a0 D0E7     		b	.L105
 868              	.L106:
 869 00a2 0220     		movs	r0, #2
 870 00a4 7047     		bx	lr
 872              		.section	.text.HAL_RTC_SetAlarm,"ax",%progbits
 873              		.align	1
 874              		.global	HAL_RTC_SetAlarm
 875              		.syntax unified
 876              		.thumb
 877              		.thumb_func
 879              	HAL_RTC_SetAlarm:
 880              		@ args = 0, pretend = 0, frame = 0
 881              		@ frame_needed = 0, uses_anonymous_args = 0
 882 0000 F8B5     		push	{r3, r4, r5, r6, r7, lr}
 883 0002 90F82030 		ldrb	r3, [r0, #32]	@ zero_extendqisi2
 884 0006 012B     		cmp	r3, #1
 885 0008 00F0BD80 		beq	.L124
 886 000c 0446     		mov	r4, r0
 887 000e 0E46     		mov	r6, r1
 888 0010 0123     		movs	r3, #1
 889 0012 80F82030 		strb	r3, [r0, #32]
 890 0016 0223     		movs	r3, #2
 891 0018 80F82130 		strb	r3, [r0, #33]
 892 001c 002A     		cmp	r2, #0
 893 001e 55D1     		bne	.L114
 894 0020 0368     		ldr	r3, [r0]
 895 0022 9B68     		ldr	r3, [r3, #8]
 896 0024 13F0400F 		tst	r3, #64
ARM GAS  C:\Users\Nathan\AppData\Local\Temp\ccHv7DkY.s 			page 16


 897 0028 01D1     		bne	.L115
 898 002a 0023     		movs	r3, #0
 899 002c CB70     		strb	r3, [r1, #3]
 900              	.L115:
 901 002e 3078     		ldrb	r0, [r6]	@ zero_extendqisi2
 902 0030 FFF7FEFF 		bl	RTC_ByteToBcd2
 903 0034 0504     		lsls	r5, r0, #16
 904 0036 7078     		ldrb	r0, [r6, #1]	@ zero_extendqisi2
 905 0038 FFF7FEFF 		bl	RTC_ByteToBcd2
 906 003c 45EA0025 		orr	r5, r5, r0, lsl #8
 907 0040 B078     		ldrb	r0, [r6, #2]	@ zero_extendqisi2
 908 0042 FFF7FEFF 		bl	RTC_ByteToBcd2
 909 0046 0543     		orrs	r5, r5, r0
 910 0048 F378     		ldrb	r3, [r6, #3]	@ zero_extendqisi2
 911 004a 45EA8355 		orr	r5, r5, r3, lsl #22
 912 004e 96F82000 		ldrb	r0, [r6, #32]	@ zero_extendqisi2
 913 0052 FFF7FEFF 		bl	RTC_ByteToBcd2
 914 0056 45EA0065 		orr	r5, r5, r0, lsl #24
 915 005a F369     		ldr	r3, [r6, #28]
 916 005c 1D43     		orrs	r5, r5, r3
 917 005e 7369     		ldr	r3, [r6, #20]
 918 0060 1D43     		orrs	r5, r5, r3
 919              	.L116:
 920 0062 7768     		ldr	r7, [r6, #4]
 921 0064 B369     		ldr	r3, [r6, #24]
 922 0066 1F43     		orrs	r7, r7, r3
 923 0068 2368     		ldr	r3, [r4]
 924 006a CA22     		movs	r2, #202
 925 006c 5A62     		str	r2, [r3, #36]
 926 006e 2368     		ldr	r3, [r4]
 927 0070 5322     		movs	r2, #83
 928 0072 5A62     		str	r2, [r3, #36]
 929 0074 736A     		ldr	r3, [r6, #36]
 930 0076 B3F5807F 		cmp	r3, #256
 931 007a 41D0     		beq	.L126
 932 007c 2268     		ldr	r2, [r4]
 933 007e 9368     		ldr	r3, [r2, #8]
 934 0080 23F40073 		bic	r3, r3, #512
 935 0084 9360     		str	r3, [r2, #8]
 936 0086 2268     		ldr	r2, [r4]
 937 0088 9368     		ldr	r3, [r2, #8]
 938 008a 23F40053 		bic	r3, r3, #8192
 939 008e 9360     		str	r3, [r2, #8]
 940 0090 2268     		ldr	r2, [r4]
 941 0092 D368     		ldr	r3, [r2, #12]
 942 0094 DBB2     		uxtb	r3, r3
 943 0096 63F42073 		orn	r3, r3, #640
 944 009a D360     		str	r3, [r2, #12]
 945 009c FFF7FEFF 		bl	HAL_GetTick
 946 00a0 0646     		mov	r6, r0
 947              	.L122:
 948 00a2 2368     		ldr	r3, [r4]
 949 00a4 DA68     		ldr	r2, [r3, #12]
 950 00a6 12F0020F 		tst	r2, #2
 951 00aa 5AD1     		bne	.L127
 952 00ac FFF7FEFF 		bl	HAL_GetTick
 953 00b0 801B     		subs	r0, r0, r6
ARM GAS  C:\Users\Nathan\AppData\Local\Temp\ccHv7DkY.s 			page 17


 954 00b2 B0F57A7F 		cmp	r0, #1000
 955 00b6 F4D9     		bls	.L122
 956 00b8 2368     		ldr	r3, [r4]
 957 00ba FF22     		movs	r2, #255
 958 00bc 5A62     		str	r2, [r3, #36]
 959 00be 0320     		movs	r0, #3
 960 00c0 84F82100 		strb	r0, [r4, #33]
 961 00c4 0023     		movs	r3, #0
 962 00c6 84F82030 		strb	r3, [r4, #32]
 963 00ca 5BE0     		b	.L113
 964              	.L114:
 965 00cc 0368     		ldr	r3, [r0]
 966 00ce 9B68     		ldr	r3, [r3, #8]
 967 00d0 13F0400F 		tst	r3, #64
 968 00d4 01D1     		bne	.L117
 969 00d6 0023     		movs	r3, #0
 970 00d8 CB70     		strb	r3, [r1, #3]
 971              	.L117:
 972 00da 3378     		ldrb	r3, [r6]	@ zero_extendqisi2
 973 00dc 7578     		ldrb	r5, [r6, #1]	@ zero_extendqisi2
 974 00de 2D02     		lsls	r5, r5, #8
 975 00e0 45EA0345 		orr	r5, r5, r3, lsl #16
 976 00e4 B378     		ldrb	r3, [r6, #2]	@ zero_extendqisi2
 977 00e6 1D43     		orrs	r5, r5, r3
 978 00e8 F378     		ldrb	r3, [r6, #3]	@ zero_extendqisi2
 979 00ea 45EA8355 		orr	r5, r5, r3, lsl #22
 980 00ee 96F82030 		ldrb	r3, [r6, #32]	@ zero_extendqisi2
 981 00f2 45EA0365 		orr	r5, r5, r3, lsl #24
 982 00f6 F369     		ldr	r3, [r6, #28]
 983 00f8 1D43     		orrs	r5, r5, r3
 984 00fa 7369     		ldr	r3, [r6, #20]
 985 00fc 1D43     		orrs	r5, r5, r3
 986 00fe B0E7     		b	.L116
 987              	.L126:
 988 0100 2268     		ldr	r2, [r4]
 989 0102 9368     		ldr	r3, [r2, #8]
 990 0104 23F48073 		bic	r3, r3, #256
 991 0108 9360     		str	r3, [r2, #8]
 992 010a 2268     		ldr	r2, [r4]
 993 010c 9368     		ldr	r3, [r2, #8]
 994 010e 23F48053 		bic	r3, r3, #4096
 995 0112 9360     		str	r3, [r2, #8]
 996 0114 2268     		ldr	r2, [r4]
 997 0116 D368     		ldr	r3, [r2, #12]
 998 0118 DBB2     		uxtb	r3, r3
 999 011a 63F4C073 		orn	r3, r3, #384
 1000 011e D360     		str	r3, [r2, #12]
 1001 0120 FFF7FEFF 		bl	HAL_GetTick
 1002 0124 0646     		mov	r6, r0
 1003              	.L119:
 1004 0126 2368     		ldr	r3, [r4]
 1005 0128 DA68     		ldr	r2, [r3, #12]
 1006 012a 12F0010F 		tst	r2, #1
 1007 012e 0FD1     		bne	.L128
 1008 0130 FFF7FEFF 		bl	HAL_GetTick
 1009 0134 801B     		subs	r0, r0, r6
 1010 0136 B0F57A7F 		cmp	r0, #1000
ARM GAS  C:\Users\Nathan\AppData\Local\Temp\ccHv7DkY.s 			page 18


 1011 013a F4D9     		bls	.L119
 1012 013c 2368     		ldr	r3, [r4]
 1013 013e FF22     		movs	r2, #255
 1014 0140 5A62     		str	r2, [r3, #36]
 1015 0142 0320     		movs	r0, #3
 1016 0144 84F82100 		strb	r0, [r4, #33]
 1017 0148 0023     		movs	r3, #0
 1018 014a 84F82030 		strb	r3, [r4, #32]
 1019 014e 19E0     		b	.L113
 1020              	.L128:
 1021 0150 DD61     		str	r5, [r3, #28]
 1022 0152 2368     		ldr	r3, [r4]
 1023 0154 5F64     		str	r7, [r3, #68]
 1024 0156 2268     		ldr	r2, [r4]
 1025 0158 9368     		ldr	r3, [r2, #8]
 1026 015a 43F48073 		orr	r3, r3, #256
 1027 015e 9360     		str	r3, [r2, #8]
 1028 0160 07E0     		b	.L121
 1029              	.L127:
 1030 0162 1D62     		str	r5, [r3, #32]
 1031 0164 2368     		ldr	r3, [r4]
 1032 0166 9F64     		str	r7, [r3, #72]
 1033 0168 2268     		ldr	r2, [r4]
 1034 016a 9368     		ldr	r3, [r2, #8]
 1035 016c 43F40073 		orr	r3, r3, #512
 1036 0170 9360     		str	r3, [r2, #8]
 1037              	.L121:
 1038 0172 2368     		ldr	r3, [r4]
 1039 0174 FF22     		movs	r2, #255
 1040 0176 5A62     		str	r2, [r3, #36]
 1041 0178 0123     		movs	r3, #1
 1042 017a 84F82130 		strb	r3, [r4, #33]
 1043 017e 0020     		movs	r0, #0
 1044 0180 84F82000 		strb	r0, [r4, #32]
 1045              	.L113:
 1046 0184 F8BD     		pop	{r3, r4, r5, r6, r7, pc}
 1047              	.L124:
 1048 0186 0220     		movs	r0, #2
 1049 0188 FCE7     		b	.L113
 1051              		.section	.text.HAL_RTC_SetAlarm_IT,"ax",%progbits
 1052              		.align	1
 1053              		.global	HAL_RTC_SetAlarm_IT
 1054              		.syntax unified
 1055              		.thumb
 1056              		.thumb_func
 1058              	HAL_RTC_SetAlarm_IT:
 1059              		@ args = 0, pretend = 0, frame = 8
 1060              		@ frame_needed = 0, uses_anonymous_args = 0
 1061 0000 70B5     		push	{r4, r5, r6, lr}
 1062 0002 82B0     		sub	sp, sp, #8
 1063 0004 0D46     		mov	r5, r1
 1064 0006 6F4B     		ldr	r3, .L146
 1065 0008 1B68     		ldr	r3, [r3]
 1066 000a 6F49     		ldr	r1, .L146+4
 1067 000c A1FB0313 		umull	r1, r3, r1, r3
 1068 0010 DB0A     		lsrs	r3, r3, #11
 1069 0012 4FF47A71 		mov	r1, #1000
ARM GAS  C:\Users\Nathan\AppData\Local\Temp\ccHv7DkY.s 			page 19


 1070 0016 01FB03F3 		mul	r3, r1, r3
 1071 001a 0193     		str	r3, [sp, #4]
 1072 001c 90F82030 		ldrb	r3, [r0, #32]	@ zero_extendqisi2
 1073 0020 012B     		cmp	r3, #1
 1074 0022 00F0CC80 		beq	.L141
 1075 0026 0446     		mov	r4, r0
 1076 0028 0123     		movs	r3, #1
 1077 002a 80F82030 		strb	r3, [r0, #32]
 1078 002e 0223     		movs	r3, #2
 1079 0030 80F82130 		strb	r3, [r0, #33]
 1080 0034 002A     		cmp	r2, #0
 1081 0036 71D1     		bne	.L131
 1082 0038 0368     		ldr	r3, [r0]
 1083 003a 9B68     		ldr	r3, [r3, #8]
 1084 003c 13F0400F 		tst	r3, #64
 1085 0040 01D1     		bne	.L132
 1086 0042 0023     		movs	r3, #0
 1087 0044 EB70     		strb	r3, [r5, #3]
 1088              	.L132:
 1089 0046 2878     		ldrb	r0, [r5]	@ zero_extendqisi2
 1090 0048 FFF7FEFF 		bl	RTC_ByteToBcd2
 1091 004c 0604     		lsls	r6, r0, #16
 1092 004e 6878     		ldrb	r0, [r5, #1]	@ zero_extendqisi2
 1093 0050 FFF7FEFF 		bl	RTC_ByteToBcd2
 1094 0054 46EA0026 		orr	r6, r6, r0, lsl #8
 1095 0058 A878     		ldrb	r0, [r5, #2]	@ zero_extendqisi2
 1096 005a FFF7FEFF 		bl	RTC_ByteToBcd2
 1097 005e 0643     		orrs	r6, r6, r0
 1098 0060 EB78     		ldrb	r3, [r5, #3]	@ zero_extendqisi2
 1099 0062 46EA8356 		orr	r6, r6, r3, lsl #22
 1100 0066 95F82000 		ldrb	r0, [r5, #32]	@ zero_extendqisi2
 1101 006a FFF7FEFF 		bl	RTC_ByteToBcd2
 1102 006e 46EA0062 		orr	r2, r6, r0, lsl #24
 1103 0072 EB69     		ldr	r3, [r5, #28]
 1104 0074 1A43     		orrs	r2, r2, r3
 1105 0076 6B69     		ldr	r3, [r5, #20]
 1106 0078 1A43     		orrs	r2, r2, r3
 1107              	.L133:
 1108 007a 6868     		ldr	r0, [r5, #4]
 1109 007c AB69     		ldr	r3, [r5, #24]
 1110 007e 1843     		orrs	r0, r0, r3
 1111 0080 2368     		ldr	r3, [r4]
 1112 0082 CA21     		movs	r1, #202
 1113 0084 5962     		str	r1, [r3, #36]
 1114 0086 2368     		ldr	r3, [r4]
 1115 0088 5321     		movs	r1, #83
 1116 008a 5962     		str	r1, [r3, #36]
 1117 008c 6B6A     		ldr	r3, [r5, #36]
 1118 008e B3F5807F 		cmp	r3, #256
 1119 0092 5DD0     		beq	.L143
 1120 0094 2168     		ldr	r1, [r4]
 1121 0096 8B68     		ldr	r3, [r1, #8]
 1122 0098 23F40073 		bic	r3, r3, #512
 1123 009c 8B60     		str	r3, [r1, #8]
 1124 009e 2168     		ldr	r1, [r4]
 1125 00a0 CB68     		ldr	r3, [r1, #12]
 1126 00a2 DBB2     		uxtb	r3, r3
ARM GAS  C:\Users\Nathan\AppData\Local\Temp\ccHv7DkY.s 			page 20


 1127 00a4 63F42073 		orn	r3, r3, #640
 1128 00a8 CB60     		str	r3, [r1, #12]
 1129 00aa 464B     		ldr	r3, .L146
 1130 00ac 1B68     		ldr	r3, [r3]
 1131 00ae 4649     		ldr	r1, .L146+4
 1132 00b0 A1FB0313 		umull	r1, r3, r1, r3
 1133 00b4 DB0A     		lsrs	r3, r3, #11
 1134 00b6 4FF47A71 		mov	r1, #1000
 1135 00ba 01FB03F3 		mul	r3, r1, r3
 1136 00be 0193     		str	r3, [sp, #4]
 1137              	.L140:
 1138 00c0 019B     		ldr	r3, [sp, #4]
 1139 00c2 013B     		subs	r3, r3, #1
 1140 00c4 0193     		str	r3, [sp, #4]
 1141 00c6 019B     		ldr	r3, [sp, #4]
 1142 00c8 002B     		cmp	r3, #0
 1143 00ca 6ED0     		beq	.L144
 1144 00cc 2368     		ldr	r3, [r4]
 1145 00ce D968     		ldr	r1, [r3, #12]
 1146 00d0 11F0020F 		tst	r1, #2
 1147 00d4 F4D0     		beq	.L140
 1148 00d6 1A62     		str	r2, [r3, #32]
 1149 00d8 2368     		ldr	r3, [r4]
 1150 00da 9864     		str	r0, [r3, #72]
 1151 00dc 2268     		ldr	r2, [r4]
 1152 00de 9368     		ldr	r3, [r2, #8]
 1153 00e0 43F40073 		orr	r3, r3, #512
 1154 00e4 9360     		str	r3, [r2, #8]
 1155 00e6 2268     		ldr	r2, [r4]
 1156 00e8 9368     		ldr	r3, [r2, #8]
 1157 00ea 43F40053 		orr	r3, r3, #8192
 1158 00ee 9360     		str	r3, [r2, #8]
 1159              	.L138:
 1160 00f0 364B     		ldr	r3, .L146+8
 1161 00f2 D3F88020 		ldr	r2, [r3, #128]
 1162 00f6 42F40032 		orr	r2, r2, #131072
 1163 00fa C3F88020 		str	r2, [r3, #128]
 1164 00fe 1A68     		ldr	r2, [r3]
 1165 0100 42F40032 		orr	r2, r2, #131072
 1166 0104 1A60     		str	r2, [r3]
 1167 0106 2368     		ldr	r3, [r4]
 1168 0108 FF22     		movs	r2, #255
 1169 010a 5A62     		str	r2, [r3, #36]
 1170 010c 0123     		movs	r3, #1
 1171 010e 84F82130 		strb	r3, [r4, #33]
 1172 0112 0020     		movs	r0, #0
 1173 0114 84F82000 		strb	r0, [r4, #32]
 1174              	.L130:
 1175 0118 02B0     		add	sp, sp, #8
 1176              		@ sp needed
 1177 011a 70BD     		pop	{r4, r5, r6, pc}
 1178              	.L131:
 1179 011c 0368     		ldr	r3, [r0]
 1180 011e 9B68     		ldr	r3, [r3, #8]
 1181 0120 13F0400F 		tst	r3, #64
 1182 0124 01D1     		bne	.L134
 1183 0126 0023     		movs	r3, #0
ARM GAS  C:\Users\Nathan\AppData\Local\Temp\ccHv7DkY.s 			page 21


 1184 0128 EB70     		strb	r3, [r5, #3]
 1185              	.L134:
 1186 012a 2B78     		ldrb	r3, [r5]	@ zero_extendqisi2
 1187 012c 6A78     		ldrb	r2, [r5, #1]	@ zero_extendqisi2
 1188 012e 1202     		lsls	r2, r2, #8
 1189 0130 42EA0342 		orr	r2, r2, r3, lsl #16
 1190 0134 AB78     		ldrb	r3, [r5, #2]	@ zero_extendqisi2
 1191 0136 1A43     		orrs	r2, r2, r3
 1192 0138 EB78     		ldrb	r3, [r5, #3]	@ zero_extendqisi2
 1193 013a 42EA8352 		orr	r2, r2, r3, lsl #22
 1194 013e 95F82030 		ldrb	r3, [r5, #32]	@ zero_extendqisi2
 1195 0142 42EA0362 		orr	r2, r2, r3, lsl #24
 1196 0146 EB69     		ldr	r3, [r5, #28]
 1197 0148 1A43     		orrs	r2, r2, r3
 1198 014a 6B69     		ldr	r3, [r5, #20]
 1199 014c 1A43     		orrs	r2, r2, r3
 1200 014e 94E7     		b	.L133
 1201              	.L143:
 1202 0150 2168     		ldr	r1, [r4]
 1203 0152 8B68     		ldr	r3, [r1, #8]
 1204 0154 23F48073 		bic	r3, r3, #256
 1205 0158 8B60     		str	r3, [r1, #8]
 1206 015a 2168     		ldr	r1, [r4]
 1207 015c CB68     		ldr	r3, [r1, #12]
 1208 015e DBB2     		uxtb	r3, r3
 1209 0160 63F4C073 		orn	r3, r3, #384
 1210 0164 CB60     		str	r3, [r1, #12]
 1211              	.L137:
 1212 0166 019B     		ldr	r3, [sp, #4]
 1213 0168 013B     		subs	r3, r3, #1
 1214 016a 0193     		str	r3, [sp, #4]
 1215 016c 019B     		ldr	r3, [sp, #4]
 1216 016e 93B1     		cbz	r3, .L145
 1217 0170 2368     		ldr	r3, [r4]
 1218 0172 D968     		ldr	r1, [r3, #12]
 1219 0174 11F0010F 		tst	r1, #1
 1220 0178 F5D0     		beq	.L137
 1221 017a DA61     		str	r2, [r3, #28]
 1222 017c 2368     		ldr	r3, [r4]
 1223 017e 5864     		str	r0, [r3, #68]
 1224 0180 2268     		ldr	r2, [r4]
 1225 0182 9368     		ldr	r3, [r2, #8]
 1226 0184 43F48073 		orr	r3, r3, #256
 1227 0188 9360     		str	r3, [r2, #8]
 1228 018a 2268     		ldr	r2, [r4]
 1229 018c 9368     		ldr	r3, [r2, #8]
 1230 018e 43F48053 		orr	r3, r3, #4096
 1231 0192 9360     		str	r3, [r2, #8]
 1232 0194 ACE7     		b	.L138
 1233              	.L145:
 1234 0196 2368     		ldr	r3, [r4]
 1235 0198 FF22     		movs	r2, #255
 1236 019a 5A62     		str	r2, [r3, #36]
 1237 019c 0320     		movs	r0, #3
 1238 019e 84F82100 		strb	r0, [r4, #33]
 1239 01a2 0023     		movs	r3, #0
 1240 01a4 84F82030 		strb	r3, [r4, #32]
ARM GAS  C:\Users\Nathan\AppData\Local\Temp\ccHv7DkY.s 			page 22


 1241 01a8 B6E7     		b	.L130
 1242              	.L144:
 1243 01aa 2368     		ldr	r3, [r4]
 1244 01ac FF22     		movs	r2, #255
 1245 01ae 5A62     		str	r2, [r3, #36]
 1246 01b0 0320     		movs	r0, #3
 1247 01b2 84F82100 		strb	r0, [r4, #33]
 1248 01b6 0023     		movs	r3, #0
 1249 01b8 84F82030 		strb	r3, [r4, #32]
 1250 01bc ACE7     		b	.L130
 1251              	.L141:
 1252 01be 0220     		movs	r0, #2
 1253 01c0 AAE7     		b	.L130
 1254              	.L147:
 1255 01c2 00BF     		.align	2
 1256              	.L146:
 1257 01c4 00000000 		.word	SystemCoreClock
 1258 01c8 D34D6210 		.word	274877907
 1259 01cc 00080058 		.word	1476397056
 1261              		.section	.text.RTC_Bcd2ToByte,"ax",%progbits
 1262              		.align	1
 1263              		.global	RTC_Bcd2ToByte
 1264              		.syntax unified
 1265              		.thumb
 1266              		.thumb_func
 1268              	RTC_Bcd2ToByte:
 1269              		@ args = 0, pretend = 0, frame = 0
 1270              		@ frame_needed = 0, uses_anonymous_args = 0
 1271              		@ link register save eliminated.
 1272 0000 0309     		lsrs	r3, r0, #4
 1273 0002 03EB8303 		add	r3, r3, r3, lsl #2
 1274 0006 00F00F00 		and	r0, r0, #15
 1275 000a 00EB4300 		add	r0, r0, r3, lsl #1
 1276 000e C0B2     		uxtb	r0, r0
 1277 0010 7047     		bx	lr
 1279              		.section	.text.HAL_RTC_GetTime,"ax",%progbits
 1280              		.align	1
 1281              		.global	HAL_RTC_GetTime
 1282              		.syntax unified
 1283              		.thumb
 1284              		.thumb_func
 1286              	HAL_RTC_GetTime:
 1287              		@ args = 0, pretend = 0, frame = 0
 1288              		@ frame_needed = 0, uses_anonymous_args = 0
 1289 0000 70B5     		push	{r4, r5, r6, lr}
 1290 0002 0368     		ldr	r3, [r0]
 1291 0004 9B6A     		ldr	r3, [r3, #40]
 1292 0006 4B60     		str	r3, [r1, #4]
 1293 0008 0368     		ldr	r3, [r0]
 1294 000a 1B69     		ldr	r3, [r3, #16]
 1295 000c C3F30E03 		ubfx	r3, r3, #0, #15
 1296 0010 8B60     		str	r3, [r1, #8]
 1297 0012 0368     		ldr	r3, [r0]
 1298 0014 1B68     		ldr	r3, [r3]
 1299 0016 C3F30540 		ubfx	r0, r3, #16, #6
 1300 001a 0870     		strb	r0, [r1]
 1301 001c C3F30626 		ubfx	r6, r3, #8, #7
ARM GAS  C:\Users\Nathan\AppData\Local\Temp\ccHv7DkY.s 			page 23


 1302 0020 4E70     		strb	r6, [r1, #1]
 1303 0022 03F07F05 		and	r5, r3, #127
 1304 0026 8D70     		strb	r5, [r1, #2]
 1305 0028 C3F38053 		ubfx	r3, r3, #22, #1
 1306 002c CB70     		strb	r3, [r1, #3]
 1307 002e 5AB9     		cbnz	r2, .L150
 1308 0030 0C46     		mov	r4, r1
 1309 0032 FFF7FEFF 		bl	RTC_Bcd2ToByte
 1310 0036 2070     		strb	r0, [r4]
 1311 0038 3046     		mov	r0, r6
 1312 003a FFF7FEFF 		bl	RTC_Bcd2ToByte
 1313 003e 6070     		strb	r0, [r4, #1]
 1314 0040 2846     		mov	r0, r5
 1315 0042 FFF7FEFF 		bl	RTC_Bcd2ToByte
 1316 0046 A070     		strb	r0, [r4, #2]
 1317              	.L150:
 1318 0048 0020     		movs	r0, #0
 1319 004a 70BD     		pop	{r4, r5, r6, pc}
 1321              		.section	.text.HAL_RTC_GetDate,"ax",%progbits
 1322              		.align	1
 1323              		.global	HAL_RTC_GetDate
 1324              		.syntax unified
 1325              		.thumb
 1326              		.thumb_func
 1328              	HAL_RTC_GetDate:
 1329              		@ args = 0, pretend = 0, frame = 0
 1330              		@ frame_needed = 0, uses_anonymous_args = 0
 1331 0000 70B5     		push	{r4, r5, r6, lr}
 1332 0002 0368     		ldr	r3, [r0]
 1333 0004 5B68     		ldr	r3, [r3, #4]
 1334 0006 C3F30740 		ubfx	r0, r3, #16, #8
 1335 000a C870     		strb	r0, [r1, #3]
 1336 000c C3F30426 		ubfx	r6, r3, #8, #5
 1337 0010 4E70     		strb	r6, [r1, #1]
 1338 0012 03F03F05 		and	r5, r3, #63
 1339 0016 8D70     		strb	r5, [r1, #2]
 1340 0018 C3F34233 		ubfx	r3, r3, #13, #3
 1341 001c 0B70     		strb	r3, [r1]
 1342 001e 5AB9     		cbnz	r2, .L153
 1343 0020 0C46     		mov	r4, r1
 1344 0022 FFF7FEFF 		bl	RTC_Bcd2ToByte
 1345 0026 E070     		strb	r0, [r4, #3]
 1346 0028 3046     		mov	r0, r6
 1347 002a FFF7FEFF 		bl	RTC_Bcd2ToByte
 1348 002e 6070     		strb	r0, [r4, #1]
 1349 0030 2846     		mov	r0, r5
 1350 0032 FFF7FEFF 		bl	RTC_Bcd2ToByte
 1351 0036 A070     		strb	r0, [r4, #2]
 1352              	.L153:
 1353 0038 0020     		movs	r0, #0
 1354 003a 70BD     		pop	{r4, r5, r6, pc}
 1356              		.section	.text.HAL_RTC_GetAlarm,"ax",%progbits
 1357              		.align	1
 1358              		.global	HAL_RTC_GetAlarm
 1359              		.syntax unified
 1360              		.thumb
 1361              		.thumb_func
ARM GAS  C:\Users\Nathan\AppData\Local\Temp\ccHv7DkY.s 			page 24


 1363              	HAL_RTC_GetAlarm:
 1364              		@ args = 0, pretend = 0, frame = 0
 1365              		@ frame_needed = 0, uses_anonymous_args = 0
 1366 0000 F8B5     		push	{r3, r4, r5, r6, r7, lr}
 1367 0002 0C46     		mov	r4, r1
 1368 0004 B2F5807F 		cmp	r2, #256
 1369 0008 31D0     		beq	.L160
 1370 000a 4FF40072 		mov	r2, #512
 1371 000e 4A62     		str	r2, [r1, #36]
 1372 0010 0168     		ldr	r1, [r0]
 1373 0012 0A6A     		ldr	r2, [r1, #32]
 1374 0014 896C     		ldr	r1, [r1, #72]
 1375 0016 C1F30E01 		ubfx	r1, r1, #0, #15
 1376              	.L157:
 1377 001a C2F30540 		ubfx	r0, r2, #16, #6
 1378 001e 2070     		strb	r0, [r4]
 1379 0020 C2F30627 		ubfx	r7, r2, #8, #7
 1380 0024 6770     		strb	r7, [r4, #1]
 1381 0026 02F07F06 		and	r6, r2, #127
 1382 002a A670     		strb	r6, [r4, #2]
 1383 002c C2F38055 		ubfx	r5, r2, #22, #1
 1384 0030 E570     		strb	r5, [r4, #3]
 1385 0032 6160     		str	r1, [r4, #4]
 1386 0034 C2F30565 		ubfx	r5, r2, #24, #6
 1387 0038 84F82050 		strb	r5, [r4, #32]
 1388 003c 02F08041 		and	r1, r2, #1073741824
 1389 0040 E161     		str	r1, [r4, #28]
 1390 0042 02F08032 		and	r2, r2, #-2139062144
 1391 0046 6261     		str	r2, [r4, #20]
 1392 0048 7BB9     		cbnz	r3, .L158
 1393 004a FFF7FEFF 		bl	RTC_Bcd2ToByte
 1394 004e 2070     		strb	r0, [r4]
 1395 0050 3846     		mov	r0, r7
 1396 0052 FFF7FEFF 		bl	RTC_Bcd2ToByte
 1397 0056 6070     		strb	r0, [r4, #1]
 1398 0058 3046     		mov	r0, r6
 1399 005a FFF7FEFF 		bl	RTC_Bcd2ToByte
 1400 005e A070     		strb	r0, [r4, #2]
 1401 0060 2846     		mov	r0, r5
 1402 0062 FFF7FEFF 		bl	RTC_Bcd2ToByte
 1403 0066 84F82000 		strb	r0, [r4, #32]
 1404              	.L158:
 1405 006a 0020     		movs	r0, #0
 1406 006c F8BD     		pop	{r3, r4, r5, r6, r7, pc}
 1407              	.L160:
 1408 006e 4A62     		str	r2, [r1, #36]
 1409 0070 0168     		ldr	r1, [r0]
 1410 0072 CA69     		ldr	r2, [r1, #28]
 1411 0074 496C     		ldr	r1, [r1, #68]
 1412 0076 C1F30E01 		ubfx	r1, r1, #0, #15
 1413 007a CEE7     		b	.L157
 1415              		.ident	"GCC: (Arm GNU Toolchain 13.3.Rel1 (Build arm-13.24)) 13.3.1 20240614"
ARM GAS  C:\Users\Nathan\AppData\Local\Temp\ccHv7DkY.s 			page 25

