ARM GAS  C:\Users\Nathan\AppData\Local\Temp\cc3CHxxq.s 			page 1


   1              		.cpu cortex-m4
   2              		.arch armv7e-m
   3              		.fpu fpv4-sp-d16
   4              		.eabi_attribute 27, 1
   5              		.eabi_attribute 28, 1
   6              		.eabi_attribute 20, 1
   7              		.eabi_attribute 21, 1
   8              		.eabi_attribute 23, 3
   9              		.eabi_attribute 24, 1
  10              		.eabi_attribute 25, 1
  11              		.eabi_attribute 26, 1
  12              		.eabi_attribute 30, 1
  13              		.eabi_attribute 34, 1
  14              		.eabi_attribute 18, 4
  15              		.file	"stm32wbxx_hal_exti.c"
  16              		.text
  17              		.section	.text.HAL_EXTI_SetConfigLine,"ax",%progbits
  18              		.align	1
  19              		.global	HAL_EXTI_SetConfigLine
  20              		.syntax unified
  21              		.thumb
  22              		.thumb_func
  24              	HAL_EXTI_SetConfigLine:
  25              		@ args = 0, pretend = 0, frame = 0
  26              		@ frame_needed = 0, uses_anonymous_args = 0
  27 0000 0028     		cmp	r0, #0
  28 0002 65D0     		beq	.L12
  29 0004 0029     		cmp	r1, #0
  30 0006 65D0     		beq	.L13
  31 0008 70B5     		push	{r4, r5, r6, lr}
  32 000a 0A68     		ldr	r2, [r1]
  33 000c 0260     		str	r2, [r0]
  34 000e C2F30043 		ubfx	r3, r2, #16, #1
  35 0012 02F01F0C 		and	ip, r2, #31
  36 0016 0120     		movs	r0, #1
  37 0018 00FA0CF0 		lsl	r0, r0, ip
  38 001c 12F0007F 		tst	r2, #33554432
  39 0020 1DD0     		beq	.L3
  40 0022 4FEA431E 		lsl	lr, r3, #5
  41 0026 0EF1B045 		add	r5, lr, #1476395008
  42 002a D5F80048 		ldr	r4, [r5, #2048]
  43 002e 8E68     		ldr	r6, [r1, #8]
  44 0030 16F0010F 		tst	r6, #1
  45 0034 2CD0     		beq	.L4
  46 0036 0443     		orrs	r4, r4, r0
  47              	.L5:
  48 0038 C5F80048 		str	r4, [r5, #2048]
  49 003c 0EF1B04E 		add	lr, lr, #1476395008
  50 0040 DEF80448 		ldr	r4, [lr, #2052]
  51 0044 8D68     		ldr	r5, [r1, #8]
  52 0046 15F0020F 		tst	r5, #2
  53 004a 24D0     		beq	.L6
  54 004c 0443     		orrs	r4, r4, r0
  55              	.L7:
  56 004e CEF80448 		str	r4, [lr, #2052]
  57 0052 0C68     		ldr	r4, [r1]
  58 0054 04F0C06E 		and	lr, r4, #100663296
ARM GAS  C:\Users\Nathan\AppData\Local\Temp\cc3CHxxq.s 			page 2


  59 0058 BEF1C06F 		cmp	lr, #100663296
  60 005c 1ED0     		beq	.L18
  61              	.L3:
  62 005e 1B01     		lsls	r3, r3, #4
  63 0060 03F1B04C 		add	ip, r3, #1476395008
  64 0064 DCF88028 		ldr	r2, [ip, #2176]
  65 0068 4C68     		ldr	r4, [r1, #4]
  66 006a 14F0010F 		tst	r4, #1
  67 006e 29D0     		beq	.L8
  68 0070 0243     		orrs	r2, r2, r0
  69              	.L9:
  70 0072 CCF88028 		str	r2, [ip, #2176]
  71 0076 03F1B043 		add	r3, r3, #1476395008
  72 007a D3F88428 		ldr	r2, [r3, #2180]
  73 007e 4968     		ldr	r1, [r1, #4]
  74 0080 11F0020F 		tst	r1, #2
  75 0084 21D0     		beq	.L10
  76 0086 0243     		orrs	r2, r2, r0
  77              	.L11:
  78 0088 C3F88428 		str	r2, [r3, #2180]
  79 008c 0020     		movs	r0, #0
  80 008e 70BD     		pop	{r4, r5, r6, pc}
  81              	.L4:
  82 0090 24EA0004 		bic	r4, r4, r0
  83 0094 D0E7     		b	.L5
  84              	.L6:
  85 0096 24EA0004 		bic	r4, r4, r0
  86 009a D8E7     		b	.L7
  87              	.L18:
  88 009c 4FEA9C0C 		lsr	ip, ip, #2
  89 00a0 0D4E     		ldr	r6, .L19
  90 00a2 0CF1020C 		add	ip, ip, #2
  91 00a6 56F82C50 		ldr	r5, [r6, ip, lsl #2]
  92 00aa 02F00302 		and	r2, r2, #3
  93 00ae 9200     		lsls	r2, r2, #2
  94 00b0 0724     		movs	r4, #7
  95 00b2 9440     		lsls	r4, r4, r2
  96 00b4 25EA0405 		bic	r5, r5, r4
  97 00b8 CC68     		ldr	r4, [r1, #12]
  98 00ba 9440     		lsls	r4, r4, r2
  99 00bc 2C43     		orrs	r4, r4, r5
 100 00be 46F82C40 		str	r4, [r6, ip, lsl #2]
 101 00c2 CCE7     		b	.L3
 102              	.L8:
 103 00c4 22EA0002 		bic	r2, r2, r0
 104 00c8 D3E7     		b	.L9
 105              	.L10:
 106 00ca 22EA0002 		bic	r2, r2, r0
 107 00ce DBE7     		b	.L11
 108              	.L12:
 109 00d0 0120     		movs	r0, #1
 110 00d2 7047     		bx	lr
 111              	.L13:
 112 00d4 0120     		movs	r0, #1
 113 00d6 7047     		bx	lr
 114              	.L20:
 115              		.align	2
ARM GAS  C:\Users\Nathan\AppData\Local\Temp\cc3CHxxq.s 			page 3


 116              	.L19:
 117 00d8 00000140 		.word	1073807360
 119              		.section	.text.HAL_EXTI_GetConfigLine,"ax",%progbits
 120              		.align	1
 121              		.global	HAL_EXTI_GetConfigLine
 122              		.syntax unified
 123              		.thumb
 124              		.thumb_func
 126              	HAL_EXTI_GetConfigLine:
 127              		@ args = 0, pretend = 0, frame = 0
 128              		@ frame_needed = 0, uses_anonymous_args = 0
 129 0000 0028     		cmp	r0, #0
 130 0002 53D0     		beq	.L28
 131 0004 0029     		cmp	r1, #0
 132 0006 53D0     		beq	.L29
 133 0008 10B5     		push	{r4, lr}
 134 000a 0368     		ldr	r3, [r0]
 135 000c 0B60     		str	r3, [r1]
 136 000e C3F30040 		ubfx	r0, r3, #16, #1
 137 0012 03F01F0E 		and	lr, r3, #31
 138 0016 0122     		movs	r2, #1
 139 0018 02FA0EF2 		lsl	r2, r2, lr
 140 001c 4FEA001C 		lsl	ip, r0, #4
 141 0020 0CF1B044 		add	r4, ip, #1476395008
 142 0024 D4F88048 		ldr	r4, [r4, #2176]
 143 0028 2242     		tst	r2, r4
 144 002a 2BD0     		beq	.L23
 145 002c 0124     		movs	r4, #1
 146 002e 4C60     		str	r4, [r1, #4]
 147              	.L24:
 148 0030 0CF1B04C 		add	ip, ip, #1476395008
 149 0034 DCF88448 		ldr	r4, [ip, #2180]
 150 0038 2242     		tst	r2, r4
 151 003a 03D0     		beq	.L25
 152 003c 4C68     		ldr	r4, [r1, #4]
 153 003e 44F00204 		orr	r4, r4, #2
 154 0042 4C60     		str	r4, [r1, #4]
 155              	.L25:
 156 0044 0024     		movs	r4, #0
 157 0046 8C60     		str	r4, [r1, #8]
 158 0048 CC60     		str	r4, [r1, #12]
 159 004a 13F0007F 		tst	r3, #33554432
 160 004e 31D0     		beq	.L30
 161 0050 4001     		lsls	r0, r0, #5
 162 0052 00F1B044 		add	r4, r0, #1476395008
 163 0056 D4F80048 		ldr	r4, [r4, #2048]
 164 005a 2242     		tst	r2, r4
 165 005c 01D0     		beq	.L26
 166 005e 0124     		movs	r4, #1
 167 0060 8C60     		str	r4, [r1, #8]
 168              	.L26:
 169 0062 00F1B040 		add	r0, r0, #1476395008
 170 0066 D0F80408 		ldr	r0, [r0, #2052]
 171 006a 0242     		tst	r2, r0
 172 006c 03D0     		beq	.L27
 173 006e 8A68     		ldr	r2, [r1, #8]
 174 0070 42F00202 		orr	r2, r2, #2
ARM GAS  C:\Users\Nathan\AppData\Local\Temp\cc3CHxxq.s 			page 4


 175 0074 8A60     		str	r2, [r1, #8]
 176              	.L27:
 177 0076 03F0C062 		and	r2, r3, #100663296
 178 007a B2F1C06F 		cmp	r2, #100663296
 179 007e 04D0     		beq	.L36
 180 0080 0020     		movs	r0, #0
 181 0082 18E0     		b	.L22
 182              	.L23:
 183 0084 0024     		movs	r4, #0
 184 0086 4C60     		str	r4, [r1, #4]
 185 0088 D2E7     		b	.L24
 186              	.L36:
 187 008a 4FEA9E0E 		lsr	lr, lr, #2
 188 008e 0EF1020E 		add	lr, lr, #2
 189 0092 094A     		ldr	r2, .L37
 190 0094 52F82E20 		ldr	r2, [r2, lr, lsl #2]
 191 0098 03F00303 		and	r3, r3, #3
 192 009c 9B00     		lsls	r3, r3, #2
 193 009e 22FA03F3 		lsr	r3, r2, r3
 194 00a2 03F00703 		and	r3, r3, #7
 195 00a6 CB60     		str	r3, [r1, #12]
 196 00a8 0020     		movs	r0, #0
 197 00aa 04E0     		b	.L22
 198              	.L28:
 199 00ac 0120     		movs	r0, #1
 200 00ae 7047     		bx	lr
 201              	.L29:
 202 00b0 0120     		movs	r0, #1
 203 00b2 7047     		bx	lr
 204              	.L30:
 205 00b4 0020     		movs	r0, #0
 206              	.L22:
 207 00b6 10BD     		pop	{r4, pc}
 208              	.L38:
 209              		.align	2
 210              	.L37:
 211 00b8 00000140 		.word	1073807360
 213              		.section	.text.HAL_EXTI_ClearConfigLine,"ax",%progbits
 214              		.align	1
 215              		.global	HAL_EXTI_ClearConfigLine
 216              		.syntax unified
 217              		.thumb
 218              		.thumb_func
 220              	HAL_EXTI_ClearConfigLine:
 221              		@ args = 0, pretend = 0, frame = 0
 222              		@ frame_needed = 0, uses_anonymous_args = 0
 223 0000 0028     		cmp	r0, #0
 224 0002 46D0     		beq	.L41
 225 0004 30B5     		push	{r4, r5, lr}
 226 0006 8446     		mov	ip, r0
 227 0008 0468     		ldr	r4, [r0]
 228 000a C4F30041 		ubfx	r1, r4, #16, #1
 229 000e 04F01F0E 		and	lr, r4, #31
 230 0012 0122     		movs	r2, #1
 231 0014 02FA0EF2 		lsl	r2, r2, lr
 232 0018 0B01     		lsls	r3, r1, #4
 233 001a 03F1B043 		add	r3, r3, #1476395008
ARM GAS  C:\Users\Nathan\AppData\Local\Temp\cc3CHxxq.s 			page 5


 234 001e D3F88008 		ldr	r0, [r3, #2176]
 235 0022 D543     		mvns	r5, r2
 236 0024 20EA0200 		bic	r0, r0, r2
 237 0028 C3F88008 		str	r0, [r3, #2176]
 238 002c D3F88408 		ldr	r0, [r3, #2180]
 239 0030 20EA0202 		bic	r2, r0, r2
 240 0034 C3F88428 		str	r2, [r3, #2180]
 241 0038 DCF80030 		ldr	r3, [ip]
 242 003c 13F0007F 		tst	r3, #33554432
 243 0040 29D0     		beq	.L42
 244 0042 4901     		lsls	r1, r1, #5
 245 0044 01F1B041 		add	r1, r1, #1476395008
 246 0048 D1F80038 		ldr	r3, [r1, #2048]
 247 004c 2B40     		ands	r3, r3, r5
 248 004e C1F80038 		str	r3, [r1, #2048]
 249 0052 D1F80438 		ldr	r3, [r1, #2052]
 250 0056 1D40     		ands	r5, r5, r3
 251 0058 C1F80458 		str	r5, [r1, #2052]
 252 005c DCF80030 		ldr	r3, [ip]
 253 0060 03F0C063 		and	r3, r3, #100663296
 254 0064 B3F1C06F 		cmp	r3, #100663296
 255 0068 01D0     		beq	.L48
 256 006a 0020     		movs	r0, #0
 257 006c 14E0     		b	.L40
 258              	.L48:
 259 006e 4FEA9E0E 		lsr	lr, lr, #2
 260 0072 0A49     		ldr	r1, .L49
 261 0074 0EF1020E 		add	lr, lr, #2
 262 0078 51F82E30 		ldr	r3, [r1, lr, lsl #2]
 263 007c 04F00304 		and	r4, r4, #3
 264 0080 A400     		lsls	r4, r4, #2
 265 0082 0722     		movs	r2, #7
 266 0084 A240     		lsls	r2, r2, r4
 267 0086 23EA0203 		bic	r3, r3, r2
 268 008a 41F82E30 		str	r3, [r1, lr, lsl #2]
 269 008e 0020     		movs	r0, #0
 270 0090 02E0     		b	.L40
 271              	.L41:
 272 0092 0120     		movs	r0, #1
 273 0094 7047     		bx	lr
 274              	.L42:
 275 0096 0020     		movs	r0, #0
 276              	.L40:
 277 0098 30BD     		pop	{r4, r5, pc}
 278              	.L50:
 279 009a 00BF     		.align	2
 280              	.L49:
 281 009c 00000140 		.word	1073807360
 283              		.section	.text.HAL_EXTI_RegisterCallback,"ax",%progbits
 284              		.align	1
 285              		.global	HAL_EXTI_RegisterCallback
 286              		.syntax unified
 287              		.thumb
 288              		.thumb_func
 290              	HAL_EXTI_RegisterCallback:
 291              		@ args = 0, pretend = 0, frame = 0
 292              		@ frame_needed = 0, uses_anonymous_args = 0
ARM GAS  C:\Users\Nathan\AppData\Local\Temp\cc3CHxxq.s 			page 6


 293              		@ link register save eliminated.
 294 0000 0346     		mov	r3, r0
 295 0002 0846     		mov	r0, r1
 296 0004 09B9     		cbnz	r1, .L53
 297 0006 5A60     		str	r2, [r3, #4]
 298 0008 7047     		bx	lr
 299              	.L53:
 300 000a 0120     		movs	r0, #1
 301 000c 7047     		bx	lr
 303              		.section	.text.HAL_EXTI_GetHandle,"ax",%progbits
 304              		.align	1
 305              		.global	HAL_EXTI_GetHandle
 306              		.syntax unified
 307              		.thumb
 308              		.thumb_func
 310              	HAL_EXTI_GetHandle:
 311              		@ args = 0, pretend = 0, frame = 0
 312              		@ frame_needed = 0, uses_anonymous_args = 0
 313              		@ link register save eliminated.
 314 0000 10B1     		cbz	r0, .L56
 315 0002 0160     		str	r1, [r0]
 316 0004 0020     		movs	r0, #0
 317 0006 7047     		bx	lr
 318              	.L56:
 319 0008 0120     		movs	r0, #1
 320 000a 7047     		bx	lr
 322              		.section	.text.HAL_EXTI_IRQHandler,"ax",%progbits
 323              		.align	1
 324              		.global	HAL_EXTI_IRQHandler
 325              		.syntax unified
 326              		.thumb
 327              		.thumb_func
 329              	HAL_EXTI_IRQHandler:
 330              		@ args = 0, pretend = 0, frame = 0
 331              		@ frame_needed = 0, uses_anonymous_args = 0
 332 0000 08B5     		push	{r3, lr}
 333 0002 0268     		ldr	r2, [r0]
 334 0004 C2F30043 		ubfx	r3, r2, #16, #1
 335 0008 02F01F02 		and	r2, r2, #31
 336 000c 0121     		movs	r1, #1
 337 000e 01FA02F2 		lsl	r2, r1, r2
 338 0012 5B01     		lsls	r3, r3, #5
 339 0014 03F1B043 		add	r3, r3, #1476395008
 340 0018 D3F80C18 		ldr	r1, [r3, #2060]
 341 001c 1142     		tst	r1, r2
 342 001e 04D0     		beq	.L57
 343 0020 C3F80C28 		str	r2, [r3, #2060]
 344 0024 4368     		ldr	r3, [r0, #4]
 345 0026 03B1     		cbz	r3, .L57
 346 0028 9847     		blx	r3
 347              	.L57:
 348 002a 08BD     		pop	{r3, pc}
 350              		.section	.text.HAL_EXTI_GetPending,"ax",%progbits
 351              		.align	1
 352              		.global	HAL_EXTI_GetPending
 353              		.syntax unified
 354              		.thumb
ARM GAS  C:\Users\Nathan\AppData\Local\Temp\cc3CHxxq.s 			page 7


 355              		.thumb_func
 357              	HAL_EXTI_GetPending:
 358              		@ args = 0, pretend = 0, frame = 0
 359              		@ frame_needed = 0, uses_anonymous_args = 0
 360              		@ link register save eliminated.
 361 0000 0368     		ldr	r3, [r0]
 362 0002 C3F30042 		ubfx	r2, r3, #16, #1
 363 0006 03F01F03 		and	r3, r3, #31
 364 000a 0121     		movs	r1, #1
 365 000c 9940     		lsls	r1, r1, r3
 366 000e 5201     		lsls	r2, r2, #5
 367 0010 02F1B042 		add	r2, r2, #1476395008
 368 0014 D2F80C08 		ldr	r0, [r2, #2060]
 369 0018 0840     		ands	r0, r0, r1
 370 001a D840     		lsrs	r0, r0, r3
 371 001c 7047     		bx	lr
 373              		.section	.text.HAL_EXTI_ClearPending,"ax",%progbits
 374              		.align	1
 375              		.global	HAL_EXTI_ClearPending
 376              		.syntax unified
 377              		.thumb
 378              		.thumb_func
 380              	HAL_EXTI_ClearPending:
 381              		@ args = 0, pretend = 0, frame = 0
 382              		@ frame_needed = 0, uses_anonymous_args = 0
 383              		@ link register save eliminated.
 384 0000 0268     		ldr	r2, [r0]
 385 0002 C2F30043 		ubfx	r3, r2, #16, #1
 386 0006 02F01F02 		and	r2, r2, #31
 387 000a 0121     		movs	r1, #1
 388 000c 01FA02F2 		lsl	r2, r1, r2
 389 0010 5B01     		lsls	r3, r3, #5
 390 0012 03F1B043 		add	r3, r3, #1476395008
 391 0016 C3F80C28 		str	r2, [r3, #2060]
 392 001a 7047     		bx	lr
 394              		.section	.text.HAL_EXTI_GenerateSWI,"ax",%progbits
 395              		.align	1
 396              		.global	HAL_EXTI_GenerateSWI
 397              		.syntax unified
 398              		.thumb
 399              		.thumb_func
 401              	HAL_EXTI_GenerateSWI:
 402              		@ args = 0, pretend = 0, frame = 0
 403              		@ frame_needed = 0, uses_anonymous_args = 0
 404              		@ link register save eliminated.
 405 0000 0268     		ldr	r2, [r0]
 406 0002 C2F30043 		ubfx	r3, r2, #16, #1
 407 0006 02F01F02 		and	r2, r2, #31
 408 000a 0121     		movs	r1, #1
 409 000c 01FA02F2 		lsl	r2, r1, r2
 410 0010 5B01     		lsls	r3, r3, #5
 411 0012 03F1B043 		add	r3, r3, #1476395008
 412 0016 C3F80828 		str	r2, [r3, #2056]
 413 001a 7047     		bx	lr
 415              		.ident	"GCC: (Arm GNU Toolchain 13.3.Rel1 (Build arm-13.24)) 13.3.1 20240614"
ARM GAS  C:\Users\Nathan\AppData\Local\Temp\cc3CHxxq.s 			page 8

