ARM GAS  C:\Users\Nathan\AppData\Local\Temp\ccvH3zRv.s 			page 1


   1              		.cpu cortex-m4
   2              		.arch armv7e-m
   3              		.fpu fpv4-sp-d16
   4              		.eabi_attribute 27, 1
   5              		.eabi_attribute 28, 1
   6              		.eabi_attribute 20, 1
   7              		.eabi_attribute 21, 1
   8              		.eabi_attribute 23, 3
   9              		.eabi_attribute 24, 1
  10              		.eabi_attribute 25, 1
  11              		.eabi_attribute 26, 1
  12              		.eabi_attribute 30, 1
  13              		.eabi_attribute 34, 1
  14              		.eabi_attribute 18, 4
  15              		.file	"stm32wbxx_hal_flash_ex.c"
  16              		.text
  17              		.section	.text.FLASH_FlushCaches,"ax",%progbits
  18              		.align	1
  19              		.syntax unified
  20              		.thumb
  21              		.thumb_func
  23              	FLASH_FlushCaches:
  24              		@ args = 0, pretend = 0, frame = 0
  25              		@ frame_needed = 0, uses_anonymous_args = 0
  26              		@ link register save eliminated.
  27 0000 164B     		ldr	r3, .L4
  28 0002 1B68     		ldr	r3, [r3]
  29 0004 13F4007F 		tst	r3, #512
  30 0008 10D0     		beq	.L2
  31 000a 144B     		ldr	r3, .L4
  32 000c 1A68     		ldr	r2, [r3]
  33 000e 22F40072 		bic	r2, r2, #512
  34 0012 1A60     		str	r2, [r3]
  35 0014 1A68     		ldr	r2, [r3]
  36 0016 42F40062 		orr	r2, r2, #2048
  37 001a 1A60     		str	r2, [r3]
  38 001c 1A68     		ldr	r2, [r3]
  39 001e 22F40062 		bic	r2, r2, #2048
  40 0022 1A60     		str	r2, [r3]
  41 0024 1A68     		ldr	r2, [r3]
  42 0026 42F40072 		orr	r2, r2, #512
  43 002a 1A60     		str	r2, [r3]
  44              	.L2:
  45 002c 0B4B     		ldr	r3, .L4
  46 002e 1B68     		ldr	r3, [r3]
  47 0030 13F4806F 		tst	r3, #1024
  48 0034 10D0     		beq	.L1
  49 0036 094B     		ldr	r3, .L4
  50 0038 1A68     		ldr	r2, [r3]
  51 003a 22F48062 		bic	r2, r2, #1024
  52 003e 1A60     		str	r2, [r3]
  53 0040 1A68     		ldr	r2, [r3]
  54 0042 42F48052 		orr	r2, r2, #4096
  55 0046 1A60     		str	r2, [r3]
  56 0048 1A68     		ldr	r2, [r3]
  57 004a 22F48052 		bic	r2, r2, #4096
  58 004e 1A60     		str	r2, [r3]
ARM GAS  C:\Users\Nathan\AppData\Local\Temp\ccvH3zRv.s 			page 2


  59 0050 1A68     		ldr	r2, [r3]
  60 0052 42F48062 		orr	r2, r2, #1024
  61 0056 1A60     		str	r2, [r3]
  62              	.L1:
  63 0058 7047     		bx	lr
  64              	.L5:
  65 005a 00BF     		.align	2
  66              	.L4:
  67 005c 00400058 		.word	1476411392
  69              		.section	.text.FLASH_AcknowledgePageErase,"ax",%progbits
  70              		.align	1
  71              		.syntax unified
  72              		.thumb
  73              		.thumb_func
  75              	FLASH_AcknowledgePageErase:
  76              		@ args = 0, pretend = 0, frame = 0
  77              		@ frame_needed = 0, uses_anonymous_args = 0
  78              		@ link register save eliminated.
  79 0000 034A     		ldr	r2, .L7
  80 0002 5369     		ldr	r3, [r2, #20]
  81 0004 23F4FF63 		bic	r3, r3, #2040
  82 0008 23F00203 		bic	r3, r3, #2
  83 000c 5361     		str	r3, [r2, #20]
  84 000e 7047     		bx	lr
  85              	.L8:
  86              		.align	2
  87              	.L7:
  88 0010 00400058 		.word	1476411392
  90              		.section	.text.FLASH_OB_WRPConfig,"ax",%progbits
  91              		.align	1
  92              		.syntax unified
  93              		.thumb
  94              		.thumb_func
  96              	FLASH_OB_WRPConfig:
  97              		@ args = 0, pretend = 0, frame = 0
  98              		@ frame_needed = 0, uses_anonymous_args = 0
  99              		@ link register save eliminated.
 100 0000 40B9     		cbnz	r0, .L10
 101 0002 0948     		ldr	r0, .L12
 102 0004 C36A     		ldr	r3, [r0, #44]
 103 0006 03F0FF23 		and	r3, r3, #-16711936
 104 000a 41EA0241 		orr	r1, r1, r2, lsl #16
 105 000e 0B43     		orrs	r3, r3, r1
 106 0010 C362     		str	r3, [r0, #44]
 107 0012 7047     		bx	lr
 108              	.L10:
 109 0014 0448     		ldr	r0, .L12
 110 0016 036B     		ldr	r3, [r0, #48]
 111 0018 03F0FF23 		and	r3, r3, #-16711936
 112 001c 41EA0241 		orr	r1, r1, r2, lsl #16
 113 0020 0B43     		orrs	r3, r3, r1
 114 0022 0363     		str	r3, [r0, #48]
 115 0024 7047     		bx	lr
 116              	.L13:
 117 0026 00BF     		.align	2
 118              	.L12:
 119 0028 00400058 		.word	1476411392
ARM GAS  C:\Users\Nathan\AppData\Local\Temp\ccvH3zRv.s 			page 3


 121              		.section	.text.FLASH_OB_OptrConfig,"ax",%progbits
 122              		.align	1
 123              		.syntax unified
 124              		.thumb
 125              		.thumb_func
 127              	FLASH_OB_OptrConfig:
 128              		@ args = 0, pretend = 0, frame = 0
 129              		@ frame_needed = 0, uses_anonymous_args = 0
 130              		@ link register save eliminated.
 131 0000 10B4     		push	{r4}
 132 0002 064C     		ldr	r4, .L16
 133 0004 236A     		ldr	r3, [r4, #32]
 134 0006 40F0FF00 		orr	r0, r0, #255
 135 000a 23EA0003 		bic	r3, r3, r0
 136 000e 0B43     		orrs	r3, r3, r1
 137 0010 1343     		orrs	r3, r3, r2
 138 0012 2362     		str	r3, [r4, #32]
 139 0014 5DF8044B 		ldr	r4, [sp], #4
 140 0018 7047     		bx	lr
 141              	.L17:
 142 001a 00BF     		.align	2
 143              	.L16:
 144 001c 00400058 		.word	1476411392
 146              		.section	.text.FLASH_OB_PCROP1AConfig,"ax",%progbits
 147              		.align	1
 148              		.syntax unified
 149              		.thumb
 150              		.thumb_func
 152              	FLASH_OB_PCROP1AConfig:
 153              		@ args = 0, pretend = 0, frame = 0
 154              		@ frame_needed = 0, uses_anonymous_args = 0
 155              		@ link register save eliminated.
 156 0000 114B     		ldr	r3, .L29
 157 0002 9B6A     		ldr	r3, [r3, #40]
 158 0004 10F0010F 		tst	r0, #1
 159 0008 15D0     		beq	.L22
 160 000a 10B4     		push	{r4}
 161 000c 01F17841 		add	r1, r1, #-134217728
 162 0010 C90A     		lsrs	r1, r1, #11
 163 0012 02F17842 		add	r2, r2, #-134217728
 164 0016 0C4C     		ldr	r4, .L29
 165 0018 6162     		str	r1, [r4, #36]
 166 001a 6FF30803 		bfc	r3, #0, #9
 167 001e 43EAD223 		orr	r3, r3, r2, lsr #11
 168 0022 0028     		cmp	r0, #0
 169 0024 04DB     		blt	.L27
 170              	.L20:
 171 0026 084A     		ldr	r2, .L29
 172 0028 9362     		str	r3, [r2, #40]
 173 002a 5DF8044B 		ldr	r4, [sp], #4
 174 002e 7047     		bx	lr
 175              	.L27:
 176 0030 43F00043 		orr	r3, r3, #-2147483648
 177 0034 F7E7     		b	.L20
 178              	.L22:
 179 0036 0028     		cmp	r0, #0
 180 0038 02DB     		blt	.L28
ARM GAS  C:\Users\Nathan\AppData\Local\Temp\ccvH3zRv.s 			page 4


 181              	.L24:
 182 003a 034A     		ldr	r2, .L29
 183 003c 9362     		str	r3, [r2, #40]
 184 003e 7047     		bx	lr
 185              	.L28:
 186 0040 43F00043 		orr	r3, r3, #-2147483648
 187 0044 F9E7     		b	.L24
 188              	.L30:
 189 0046 00BF     		.align	2
 190              	.L29:
 191 0048 00400058 		.word	1476411392
 193              		.section	.text.FLASH_OB_PCROP1BConfig,"ax",%progbits
 194              		.align	1
 195              		.syntax unified
 196              		.thumb
 197              		.thumb_func
 199              	FLASH_OB_PCROP1BConfig:
 200              		@ args = 0, pretend = 0, frame = 0
 201              		@ frame_needed = 0, uses_anonymous_args = 0
 202              		@ link register save eliminated.
 203 0000 00F17840 		add	r0, r0, #-134217728
 204 0004 C00A     		lsrs	r0, r0, #11
 205 0006 01F17841 		add	r1, r1, #-134217728
 206 000a C90A     		lsrs	r1, r1, #11
 207 000c 014B     		ldr	r3, .L32
 208 000e 5863     		str	r0, [r3, #52]
 209 0010 9963     		str	r1, [r3, #56]
 210 0012 7047     		bx	lr
 211              	.L33:
 212              		.align	2
 213              	.L32:
 214 0014 00400058 		.word	1476411392
 216              		.section	.text.FLASH_OB_IPCCBufferAddrConfig,"ax",%progbits
 217              		.align	1
 218              		.syntax unified
 219              		.thumb
 220              		.thumb_func
 222              	FLASH_OB_IPCCBufferAddrConfig:
 223              		@ args = 0, pretend = 0, frame = 0
 224              		@ frame_needed = 0, uses_anonymous_args = 0
 225              		@ link register save eliminated.
 226 0000 00F15F40 		add	r0, r0, #-553648128
 227 0004 00F57D00 		add	r0, r0, #16580608
 228 0008 0009     		lsrs	r0, r0, #4
 229 000a 014B     		ldr	r3, .L35
 230 000c D863     		str	r0, [r3, #60]
 231 000e 7047     		bx	lr
 232              	.L36:
 233              		.align	2
 234              	.L35:
 235 0010 00400058 		.word	1476411392
 237              		.section	.text.FLASH_OB_SecureConfig,"ax",%progbits
 238              		.align	1
 239              		.syntax unified
 240              		.thumb
 241              		.thumb_func
 243              	FLASH_OB_SecureConfig:
ARM GAS  C:\Users\Nathan\AppData\Local\Temp\ccvH3zRv.s 			page 5


 244              		@ args = 0, pretend = 0, frame = 0
 245              		@ frame_needed = 0, uses_anonymous_args = 0
 246              		@ link register save eliminated.
 247 0000 294B     		ldr	r3, .L45
 248 0002 D3F88020 		ldr	r2, [r3, #128]
 249 0006 D3F88430 		ldr	r3, [r3, #132]
 250 000a 0168     		ldr	r1, [r0]
 251 000c 11F4007F 		tst	r1, #512
 252 0010 26D0     		beq	.L38
 253 0012 22F0FF02 		bic	r2, r2, #255
 254 0016 016B     		ldr	r1, [r0, #48]
 255 0018 01F17841 		add	r1, r1, #-134217728
 256 001c 42EA1131 		orr	r1, r2, r1, lsr #12
 257 0020 23F07953 		bic	r3, r3, #1044381696
 258 0024 23F47013 		bic	r3, r3, #3932160
 259 0028 426B     		ldr	r2, [r0, #52]
 260 002a 02F15F42 		add	r2, r2, #-553648128
 261 002e 02F57D02 		add	r2, r2, #16580608
 262 0032 4FEA922C 		lsr	ip, r2, #10
 263 0036 826B     		ldr	r2, [r0, #56]
 264 0038 02F16042 		add	r2, r2, #-536870912
 265 003c A2F56032 		sub	r2, r2, #229376
 266 0040 920A     		lsrs	r2, r2, #10
 267 0042 5206     		lsls	r2, r2, #25
 268 0044 42EA8C42 		orr	r2, r2, ip, lsl #18
 269 0048 1343     		orrs	r3, r3, r2
 270 004a C26B     		ldr	r2, [r0, #60]
 271 004c B2F5807F 		cmp	r2, #256
 272 0050 1BD0     		beq	.L43
 273 0052 41F48072 		orr	r2, r1, #256
 274 0056 43F08143 		orr	r3, r3, #1082130432
 275              	.L40:
 276 005a 1349     		ldr	r1, .L45
 277 005c C1F88020 		str	r2, [r1, #128]
 278              	.L38:
 279 0060 0268     		ldr	r2, [r0]
 280 0062 12F4807F 		tst	r2, #256
 281 0066 0CD0     		beq	.L41
 282 0068 026C     		ldr	r2, [r0, #64]
 283 006a B2F1004F 		cmp	r2, #-2147483648
 284 006e 11D0     		beq	.L44
 285 0070 0E49     		ldr	r1, .L45+4
 286 0072 1940     		ands	r1, r1, r3
 287 0074 436C     		ldr	r3, [r0, #68]
 288 0076 03F16043 		add	r3, r3, #-536870912
 289 007a 42EA9302 		orr	r2, r2, r3, lsr #2
 290 007e 41EA0203 		orr	r3, r1, r2
 291              	.L41:
 292 0082 094A     		ldr	r2, .L45
 293 0084 C2F88430 		str	r3, [r2, #132]
 294 0088 7047     		bx	lr
 295              	.L43:
 296 008a 21F48072 		bic	r2, r1, #256
 297 008e 23F08143 		bic	r3, r3, #1082130432
 298 0092 E2E7     		b	.L40
 299              	.L44:
 300 0094 0549     		ldr	r1, .L45+4
ARM GAS  C:\Users\Nathan\AppData\Local\Temp\ccvH3zRv.s 			page 6


 301 0096 1940     		ands	r1, r1, r3
 302 0098 436C     		ldr	r3, [r0, #68]
 303 009a 03F17843 		add	r3, r3, #-134217728
 304 009e 42EA9302 		orr	r2, r2, r3, lsr #2
 305 00a2 41EA0203 		orr	r3, r1, r2
 306 00a6 ECE7     		b	.L41
 307              	.L46:
 308              		.align	2
 309              	.L45:
 310 00a8 00400058 		.word	1476411392
 311 00ac 0000FC7F 		.word	2147221504
 313              		.section	.text.FLASH_OB_GetWRP,"ax",%progbits
 314              		.align	1
 315              		.syntax unified
 316              		.thumb
 317              		.thumb_func
 319              	FLASH_OB_GetWRP:
 320              		@ args = 0, pretend = 0, frame = 0
 321              		@ frame_needed = 0, uses_anonymous_args = 0
 322              		@ link register save eliminated.
 323 0000 40B9     		cbnz	r0, .L48
 324 0002 0948     		ldr	r0, .L50
 325 0004 C36A     		ldr	r3, [r0, #44]
 326 0006 DBB2     		uxtb	r3, r3
 327 0008 0B60     		str	r3, [r1]
 328 000a C36A     		ldr	r3, [r0, #44]
 329 000c C3F30743 		ubfx	r3, r3, #16, #8
 330 0010 1360     		str	r3, [r2]
 331 0012 7047     		bx	lr
 332              	.L48:
 333 0014 0448     		ldr	r0, .L50
 334 0016 036B     		ldr	r3, [r0, #48]
 335 0018 DBB2     		uxtb	r3, r3
 336 001a 0B60     		str	r3, [r1]
 337 001c 036B     		ldr	r3, [r0, #48]
 338 001e C3F30743 		ubfx	r3, r3, #16, #8
 339 0022 1360     		str	r3, [r2]
 340 0024 7047     		bx	lr
 341              	.L51:
 342 0026 00BF     		.align	2
 343              	.L50:
 344 0028 00400058 		.word	1476411392
 346              		.section	.text.FLASH_OB_GetRDP,"ax",%progbits
 347              		.align	1
 348              		.syntax unified
 349              		.thumb
 350              		.thumb_func
 352              	FLASH_OB_GetRDP:
 353              		@ args = 0, pretend = 0, frame = 0
 354              		@ frame_needed = 0, uses_anonymous_args = 0
 355              		@ link register save eliminated.
 356 0000 044B     		ldr	r3, .L55
 357 0002 186A     		ldr	r0, [r3, #32]
 358 0004 C0B2     		uxtb	r0, r0
 359 0006 AA28     		cmp	r0, #170
 360 0008 02D0     		beq	.L52
 361 000a CC28     		cmp	r0, #204
ARM GAS  C:\Users\Nathan\AppData\Local\Temp\ccvH3zRv.s 			page 7


 362 000c 00D0     		beq	.L52
 363 000e BB20     		movs	r0, #187
 364              	.L52:
 365 0010 7047     		bx	lr
 366              	.L56:
 367 0012 00BF     		.align	2
 368              	.L55:
 369 0014 00400058 		.word	1476411392
 371              		.section	.text.FLASH_OB_GetUser,"ax",%progbits
 372              		.align	1
 373              		.syntax unified
 374              		.thumb
 375              		.thumb_func
 377              	FLASH_OB_GetUser:
 378              		@ args = 0, pretend = 0, frame = 0
 379              		@ frame_needed = 0, uses_anonymous_args = 0
 380              		@ link register save eliminated.
 381 0000 024B     		ldr	r3, .L58
 382 0002 1B6A     		ldr	r3, [r3, #32]
 383 0004 0248     		ldr	r0, .L58+4
 384 0006 1840     		ands	r0, r0, r3
 385 0008 7047     		bx	lr
 386              	.L59:
 387 000a 00BF     		.align	2
 388              	.L58:
 389 000c 00400058 		.word	1476411392
 390 0010 007E8FEF 		.word	-275808768
 392              		.section	.text.FLASH_OB_GetPCROP,"ax",%progbits
 393              		.align	1
 394              		.syntax unified
 395              		.thumb
 396              		.thumb_func
 398              	FLASH_OB_GetPCROP:
 399              		@ args = 4, pretend = 0, frame = 0
 400              		@ frame_needed = 0, uses_anonymous_args = 0
 401              		@ link register save eliminated.
 402 0000 70B4     		push	{r4, r5, r6}
 403 0002 104D     		ldr	r5, .L62
 404 0004 6E6B     		ldr	r6, [r5, #52]
 405 0006 104C     		ldr	r4, .L62+4
 406 0008 04EAC626 		and	r6, r4, r6, lsl #11
 407 000c 06F10066 		add	r6, r6, #134217728
 408 0010 1E60     		str	r6, [r3]
 409 0012 AB6B     		ldr	r3, [r5, #56]
 410 0014 04EAC323 		and	r3, r4, r3, lsl #11
 411 0018 03F10063 		add	r3, r3, #134217728
 412 001c 039E     		ldr	r6, [sp, #12]
 413 001e 3360     		str	r3, [r6]
 414 0020 6B6A     		ldr	r3, [r5, #36]
 415 0022 04EAC323 		and	r3, r4, r3, lsl #11
 416 0026 03F10063 		add	r3, r3, #134217728
 417 002a 0B60     		str	r3, [r1]
 418 002c AB6A     		ldr	r3, [r5, #40]
 419 002e 04EAC324 		and	r4, r4, r3, lsl #11
 420 0032 04F10064 		add	r4, r4, #134217728
 421 0036 1460     		str	r4, [r2]
 422 0038 AB6A     		ldr	r3, [r5, #40]
ARM GAS  C:\Users\Nathan\AppData\Local\Temp\ccvH3zRv.s 			page 8


 423 003a 03F00043 		and	r3, r3, #-2147483648
 424 003e 0360     		str	r3, [r0]
 425 0040 70BC     		pop	{r4, r5, r6}
 426 0042 7047     		bx	lr
 427              	.L63:
 428              		.align	2
 429              	.L62:
 430 0044 00400058 		.word	1476411392
 431 0048 00F80F00 		.word	1046528
 433              		.section	.text.FLASH_OB_GetIPCCBufferAddr,"ax",%progbits
 434              		.align	1
 435              		.syntax unified
 436              		.thumb
 437              		.thumb_func
 439              	FLASH_OB_GetIPCCBufferAddr:
 440              		@ args = 0, pretend = 0, frame = 0
 441              		@ frame_needed = 0, uses_anonymous_args = 0
 442              		@ link register save eliminated.
 443 0000 044B     		ldr	r3, .L65
 444 0002 DB6B     		ldr	r3, [r3, #60]
 445 0004 0448     		ldr	r0, .L65+4
 446 0006 00EA0310 		and	r0, r0, r3, lsl #4
 447 000a 00F10050 		add	r0, r0, #536870912
 448 000e 00F54030 		add	r0, r0, #196608
 449 0012 7047     		bx	lr
 450              	.L66:
 451              		.align	2
 452              	.L65:
 453 0014 00400058 		.word	1476411392
 454 0018 F0FF0300 		.word	262128
 456              		.section	.text.FLASH_OB_GetSecureMemoryConfig,"ax",%progbits
 457              		.align	1
 458              		.syntax unified
 459              		.thumb
 460              		.thumb_func
 462              	FLASH_OB_GetSecureMemoryConfig:
 463              		@ args = 0, pretend = 0, frame = 0
 464              		@ frame_needed = 0, uses_anonymous_args = 0
 465              		@ link register save eliminated.
 466 0000 70B4     		push	{r4, r5, r6}
 467 0002 114E     		ldr	r6, .L69
 468 0004 D6F88050 		ldr	r5, [r6, #128]
 469 0008 D6F88440 		ldr	r4, [r6, #132]
 470 000c EDB2     		uxtb	r5, r5
 471 000e 05F50045 		add	r5, r5, #32768
 472 0012 2D03     		lsls	r5, r5, #12
 473 0014 0560     		str	r5, [r0]
 474 0016 A00C     		lsrs	r0, r4, #18
 475 0018 8002     		lsls	r0, r0, #10
 476 001a 00F4F840 		and	r0, r0, #31744
 477 001e 00F10050 		add	r0, r0, #536870912
 478 0022 00F54030 		add	r0, r0, #196608
 479 0026 0860     		str	r0, [r1]
 480 0028 610E     		lsrs	r1, r4, #25
 481 002a 8902     		lsls	r1, r1, #10
 482 002c 01F4F841 		and	r1, r1, #31744
 483 0030 01F10051 		add	r1, r1, #536870912
ARM GAS  C:\Users\Nathan\AppData\Local\Temp\ccvH3zRv.s 			page 9


 484 0034 01F56031 		add	r1, r1, #229376
 485 0038 1160     		str	r1, [r2]
 486 003a 326A     		ldr	r2, [r6, #32]
 487 003c 02F48072 		and	r2, r2, #256
 488 0040 1A60     		str	r2, [r3]
 489 0042 70BC     		pop	{r4, r5, r6}
 490 0044 7047     		bx	lr
 491              	.L70:
 492 0046 00BF     		.align	2
 493              	.L69:
 494 0048 00400058 		.word	1476411392
 496              		.section	.text.FLASH_OB_GetC2BootResetConfig,"ax",%progbits
 497              		.align	1
 498              		.syntax unified
 499              		.thumb
 500              		.thumb_func
 502              	FLASH_OB_GetC2BootResetConfig:
 503              		@ args = 0, pretend = 0, frame = 0
 504              		@ frame_needed = 0, uses_anonymous_args = 0
 505              		@ link register save eliminated.
 506 0000 0D4B     		ldr	r3, .L75
 507 0002 D3F88430 		ldr	r3, [r3, #132]
 508 0006 03F00042 		and	r2, r3, #-2147483648
 509 000a 0A60     		str	r2, [r1]
 510 000c 002B     		cmp	r3, #0
 511 000e 09DB     		blt	.L74
 512 0010 094B     		ldr	r3, .L75
 513 0012 D3F88420 		ldr	r2, [r3, #132]
 514 0016 094B     		ldr	r3, .L75+4
 515 0018 03EA8203 		and	r3, r3, r2, lsl #2
 516 001c 03F10053 		add	r3, r3, #536870912
 517 0020 0360     		str	r3, [r0]
 518 0022 7047     		bx	lr
 519              	.L74:
 520 0024 044B     		ldr	r3, .L75
 521 0026 D3F88420 		ldr	r2, [r3, #132]
 522 002a 044B     		ldr	r3, .L75+4
 523 002c 03EA8203 		and	r3, r3, r2, lsl #2
 524 0030 03F10063 		add	r3, r3, #134217728
 525 0034 0360     		str	r3, [r0]
 526 0036 7047     		bx	lr
 527              	.L76:
 528              		.align	2
 529              	.L75:
 530 0038 00400058 		.word	1476411392
 531 003c FCFF0F00 		.word	1048572
 533              		.section	.text.FLASH_OB_ProceedWriteOperation,"ax",%progbits
 534              		.align	1
 535              		.syntax unified
 536              		.thumb
 537              		.thumb_func
 539              	FLASH_OB_ProceedWriteOperation:
 540              		@ args = 0, pretend = 0, frame = 0
 541              		@ frame_needed = 0, uses_anonymous_args = 0
 542 0000 08B5     		push	{r3, lr}
 543 0002 4FF47A70 		mov	r0, #1000
 544 0006 FFF7FEFF 		bl	FLASH_WaitForLastOperation
ARM GAS  C:\Users\Nathan\AppData\Local\Temp\ccvH3zRv.s 			page 10


 545 000a 00B1     		cbz	r0, .L80
 546              	.L78:
 547 000c 08BD     		pop	{r3, pc}
 548              	.L80:
 549 000e 054A     		ldr	r2, .L81
 550 0010 5369     		ldr	r3, [r2, #20]
 551 0012 43F40033 		orr	r3, r3, #131072
 552 0016 5361     		str	r3, [r2, #20]
 553 0018 4FF47A70 		mov	r0, #1000
 554 001c FFF7FEFF 		bl	FLASH_WaitForLastOperation
 555 0020 F4E7     		b	.L78
 556              	.L82:
 557 0022 00BF     		.align	2
 558              	.L81:
 559 0024 00400058 		.word	1476411392
 561              		.section	.text.HAL_FLASHEx_OBProgram,"ax",%progbits
 562              		.align	1
 563              		.global	HAL_FLASHEx_OBProgram
 564              		.syntax unified
 565              		.thumb
 566              		.thumb_func
 568              	HAL_FLASHEx_OBProgram:
 569              		@ args = 0, pretend = 0, frame = 0
 570              		@ frame_needed = 0, uses_anonymous_args = 0
 571 0000 324B     		ldr	r3, .L106
 572 0002 1B78     		ldrb	r3, [r3]	@ zero_extendqisi2
 573 0004 012B     		cmp	r3, #1
 574 0006 5ED0     		beq	.L93
 575 0008 10B5     		push	{r4, lr}
 576 000a 0446     		mov	r4, r0
 577 000c 2F4B     		ldr	r3, .L106
 578 000e 0122     		movs	r2, #1
 579 0010 1A70     		strb	r2, [r3]
 580 0012 0022     		movs	r2, #0
 581 0014 5A60     		str	r2, [r3, #4]
 582 0016 0368     		ldr	r3, [r0]
 583 0018 13F0010F 		tst	r3, #1
 584 001c 24D1     		bne	.L98
 585              	.L85:
 586 001e 2368     		ldr	r3, [r4]
 587 0020 03F00602 		and	r2, r3, #6
 588 0024 062A     		cmp	r2, #6
 589 0026 25D0     		beq	.L99
 590 0028 13F0020F 		tst	r3, #2
 591 002c 28D1     		bne	.L100
 592 002e 13F0040F 		tst	r3, #4
 593 0032 2ED1     		bne	.L101
 594              	.L87:
 595 0034 2368     		ldr	r3, [r4]
 596 0036 13F0080F 		tst	r3, #8
 597 003a 07D0     		beq	.L89
 598 003c E069     		ldr	r0, [r4, #28]
 599 003e 244B     		ldr	r3, .L106+4
 600 0040 1842     		tst	r0, r3
 601 0042 2ED1     		bne	.L102
 602              	.L90:
 603 0044 E369     		ldr	r3, [r4, #28]
ARM GAS  C:\Users\Nathan\AppData\Local\Temp\ccvH3zRv.s 			page 11


 604 0046 13F0020F 		tst	r3, #2
 605 004a 2FD1     		bne	.L103
 606              	.L89:
 607 004c 2368     		ldr	r3, [r4]
 608 004e 13F4407F 		tst	r3, #768
 609 0052 30D1     		bne	.L104
 610              	.L91:
 611 0054 2368     		ldr	r3, [r4]
 612 0056 13F0100F 		tst	r3, #16
 613 005a 30D1     		bne	.L105
 614              	.L92:
 615 005c FFF7FEFF 		bl	FLASH_OB_ProceedWriteOperation
 616 0060 1A4B     		ldr	r3, .L106
 617 0062 0022     		movs	r2, #0
 618 0064 1A70     		strb	r2, [r3]
 619 0066 10BD     		pop	{r4, pc}
 620              	.L98:
 621 0068 C268     		ldr	r2, [r0, #12]
 622 006a 8168     		ldr	r1, [r0, #8]
 623 006c 4068     		ldr	r0, [r0, #4]
 624 006e FFF7FEFF 		bl	FLASH_OB_WRPConfig
 625 0072 D4E7     		b	.L85
 626              	.L99:
 627 0074 2269     		ldr	r2, [r4, #16]
 628 0076 A169     		ldr	r1, [r4, #24]
 629 0078 6069     		ldr	r0, [r4, #20]
 630 007a FFF7FEFF 		bl	FLASH_OB_OptrConfig
 631 007e D9E7     		b	.L87
 632              	.L100:
 633 0080 FFF7FEFF 		bl	FLASH_OB_GetUser
 634 0084 20F46060 		bic	r0, r0, #3584
 635 0088 2269     		ldr	r2, [r4, #16]
 636 008a 0146     		mov	r1, r0
 637 008c FFF7FEFF 		bl	FLASH_OB_OptrConfig
 638 0090 D0E7     		b	.L87
 639              	.L101:
 640 0092 FFF7FEFF 		bl	FLASH_OB_GetRDP
 641 0096 0246     		mov	r2, r0
 642 0098 A169     		ldr	r1, [r4, #24]
 643 009a 6069     		ldr	r0, [r4, #20]
 644 009c FFF7FEFF 		bl	FLASH_OB_OptrConfig
 645 00a0 C8E7     		b	.L87
 646              	.L102:
 647 00a2 626A     		ldr	r2, [r4, #36]
 648 00a4 216A     		ldr	r1, [r4, #32]
 649 00a6 FFF7FEFF 		bl	FLASH_OB_PCROP1AConfig
 650 00aa CBE7     		b	.L90
 651              	.L103:
 652 00ac E16A     		ldr	r1, [r4, #44]
 653 00ae A06A     		ldr	r0, [r4, #40]
 654 00b0 FFF7FEFF 		bl	FLASH_OB_PCROP1BConfig
 655 00b4 CAE7     		b	.L89
 656              	.L104:
 657 00b6 2046     		mov	r0, r4
 658 00b8 FFF7FEFF 		bl	FLASH_OB_SecureConfig
 659 00bc CAE7     		b	.L91
 660              	.L105:
ARM GAS  C:\Users\Nathan\AppData\Local\Temp\ccvH3zRv.s 			page 12


 661 00be A06C     		ldr	r0, [r4, #72]
 662 00c0 FFF7FEFF 		bl	FLASH_OB_IPCCBufferAddrConfig
 663 00c4 CAE7     		b	.L92
 664              	.L93:
 665 00c6 0220     		movs	r0, #2
 666 00c8 7047     		bx	lr
 667              	.L107:
 668 00ca 00BF     		.align	2
 669              	.L106:
 670 00cc 00000000 		.word	pFlash
 671 00d0 01000080 		.word	-2147483647
 673              		.section	.text.HAL_FLASHEx_OBGetConfig,"ax",%progbits
 674              		.align	1
 675              		.global	HAL_FLASHEx_OBGetConfig
 676              		.syntax unified
 677              		.thumb
 678              		.thumb_func
 680              	HAL_FLASHEx_OBGetConfig:
 681              		@ args = 0, pretend = 0, frame = 0
 682              		@ frame_needed = 0, uses_anonymous_args = 0
 683 0000 10B5     		push	{r4, lr}
 684 0002 82B0     		sub	sp, sp, #8
 685 0004 0446     		mov	r4, r0
 686 0006 40F21F33 		movw	r3, #799
 687 000a 0360     		str	r3, [r0]
 688 000c 4068     		ldr	r0, [r0, #4]
 689 000e 0128     		cmp	r0, #1
 690 0010 2DD9     		bls	.L111
 691              	.L109:
 692 0012 FFF7FEFF 		bl	FLASH_OB_GetRDP
 693 0016 2061     		str	r0, [r4, #16]
 694 0018 FFF7FEFF 		bl	FLASH_OB_GetUser
 695 001c A061     		str	r0, [r4, #24]
 696 001e 174B     		ldr	r3, .L112
 697 0020 6361     		str	r3, [r4, #20]
 698 0022 04F12C03 		add	r3, r4, #44
 699 0026 0093     		str	r3, [sp]
 700 0028 04F12803 		add	r3, r4, #40
 701 002c 04F12402 		add	r2, r4, #36
 702 0030 04F12001 		add	r1, r4, #32
 703 0034 04F11C00 		add	r0, r4, #28
 704 0038 FFF7FEFF 		bl	FLASH_OB_GetPCROP
 705 003c E369     		ldr	r3, [r4, #28]
 706 003e 43F00303 		orr	r3, r3, #3
 707 0042 E361     		str	r3, [r4, #28]
 708 0044 FFF7FEFF 		bl	FLASH_OB_GetIPCCBufferAddr
 709 0048 A064     		str	r0, [r4, #72]
 710 004a 04F13C03 		add	r3, r4, #60
 711 004e 04F13802 		add	r2, r4, #56
 712 0052 04F13401 		add	r1, r4, #52
 713 0056 04F13000 		add	r0, r4, #48
 714 005a FFF7FEFF 		bl	FLASH_OB_GetSecureMemoryConfig
 715 005e 04F14001 		add	r1, r4, #64
 716 0062 04F14400 		add	r0, r4, #68
 717 0066 FFF7FEFF 		bl	FLASH_OB_GetC2BootResetConfig
 718 006a 02B0     		add	sp, sp, #8
 719              		@ sp needed
ARM GAS  C:\Users\Nathan\AppData\Local\Temp\ccvH3zRv.s 			page 13


 720 006c 10BD     		pop	{r4, pc}
 721              	.L111:
 722 006e 04F10C02 		add	r2, r4, #12
 723 0072 04F10801 		add	r1, r4, #8
 724 0076 FFF7FEFF 		bl	FLASH_OB_GetWRP
 725 007a CAE7     		b	.L109
 726              	.L113:
 727              		.align	2
 728              	.L112:
 729 007c 007E8FEF 		.word	-275808768
 731              		.section	.text.HAL_FLASHEx_FlashEmptyCheck,"ax",%progbits
 732              		.align	1
 733              		.global	HAL_FLASHEx_FlashEmptyCheck
 734              		.syntax unified
 735              		.thumb
 736              		.thumb_func
 738              	HAL_FLASHEx_FlashEmptyCheck:
 739              		@ args = 0, pretend = 0, frame = 0
 740              		@ frame_needed = 0, uses_anonymous_args = 0
 741              		@ link register save eliminated.
 742 0000 024B     		ldr	r3, .L115
 743 0002 1868     		ldr	r0, [r3]
 744 0004 00F48030 		and	r0, r0, #65536
 745 0008 7047     		bx	lr
 746              	.L116:
 747 000a 00BF     		.align	2
 748              	.L115:
 749 000c 00400058 		.word	1476411392
 751              		.section	.text.HAL_FLASHEx_ForceFlashEmpty,"ax",%progbits
 752              		.align	1
 753              		.global	HAL_FLASHEx_ForceFlashEmpty
 754              		.syntax unified
 755              		.thumb
 756              		.thumb_func
 758              	HAL_FLASHEx_ForceFlashEmpty:
 759              		@ args = 0, pretend = 0, frame = 0
 760              		@ frame_needed = 0, uses_anonymous_args = 0
 761              		@ link register save eliminated.
 762 0000 034A     		ldr	r2, .L118
 763 0002 1368     		ldr	r3, [r2]
 764 0004 23F48033 		bic	r3, r3, #65536
 765 0008 0343     		orrs	r3, r3, r0
 766 000a 1360     		str	r3, [r2]
 767 000c 7047     		bx	lr
 768              	.L119:
 769 000e 00BF     		.align	2
 770              	.L118:
 771 0010 00400058 		.word	1476411392
 773              		.section	.text.HAL_FLASHEx_SuspendOperation,"ax",%progbits
 774              		.align	1
 775              		.global	HAL_FLASHEx_SuspendOperation
 776              		.syntax unified
 777              		.thumb
 778              		.thumb_func
 780              	HAL_FLASHEx_SuspendOperation:
 781              		@ args = 0, pretend = 0, frame = 0
 782              		@ frame_needed = 0, uses_anonymous_args = 0
ARM GAS  C:\Users\Nathan\AppData\Local\Temp\ccvH3zRv.s 			page 14


 783              		@ link register save eliminated.
 784 0000 024A     		ldr	r2, .L121
 785 0002 1368     		ldr	r3, [r2]
 786 0004 43F40043 		orr	r3, r3, #32768
 787 0008 1360     		str	r3, [r2]
 788 000a 7047     		bx	lr
 789              	.L122:
 790              		.align	2
 791              	.L121:
 792 000c 00400058 		.word	1476411392
 794              		.section	.text.HAL_FLASHEx_AllowOperation,"ax",%progbits
 795              		.align	1
 796              		.global	HAL_FLASHEx_AllowOperation
 797              		.syntax unified
 798              		.thumb
 799              		.thumb_func
 801              	HAL_FLASHEx_AllowOperation:
 802              		@ args = 0, pretend = 0, frame = 0
 803              		@ frame_needed = 0, uses_anonymous_args = 0
 804              		@ link register save eliminated.
 805 0000 024A     		ldr	r2, .L124
 806 0002 1368     		ldr	r3, [r2]
 807 0004 23F40043 		bic	r3, r3, #32768
 808 0008 1360     		str	r3, [r2]
 809 000a 7047     		bx	lr
 810              	.L125:
 811              		.align	2
 812              	.L124:
 813 000c 00400058 		.word	1476411392
 815              		.section	.text.HAL_FLASHEx_IsOperationSuspended,"ax",%progbits
 816              		.align	1
 817              		.global	HAL_FLASHEx_IsOperationSuspended
 818              		.syntax unified
 819              		.thumb
 820              		.thumb_func
 822              	HAL_FLASHEx_IsOperationSuspended:
 823              		@ args = 0, pretend = 0, frame = 0
 824              		@ frame_needed = 0, uses_anonymous_args = 0
 825              		@ link register save eliminated.
 826 0000 034B     		ldr	r3, .L129
 827 0002 1869     		ldr	r0, [r3, #16]
 828 0004 10F40020 		ands	r0, r0, #524288
 829 0008 00D0     		beq	.L126
 830 000a 0120     		movs	r0, #1
 831              	.L126:
 832 000c 7047     		bx	lr
 833              	.L130:
 834 000e 00BF     		.align	2
 835              	.L129:
 836 0010 00400058 		.word	1476411392
 838              		.section	.text.FLASH_PageErase,"ax",%progbits
 839              		.align	1
 840              		.global	FLASH_PageErase
 841              		.syntax unified
 842              		.thumb
 843              		.thumb_func
 845              	FLASH_PageErase:
ARM GAS  C:\Users\Nathan\AppData\Local\Temp\ccvH3zRv.s 			page 15


 846              		@ args = 0, pretend = 0, frame = 0
 847              		@ frame_needed = 0, uses_anonymous_args = 0
 848              		@ link register save eliminated.
 849 0000 054A     		ldr	r2, .L132
 850 0002 5369     		ldr	r3, [r2, #20]
 851 0004 23F4FF63 		bic	r3, r3, #2040
 852 0008 43EAC000 		orr	r0, r3, r0, lsl #3
 853 000c 40F48030 		orr	r0, r0, #65536
 854 0010 40F00200 		orr	r0, r0, #2
 855 0014 5061     		str	r0, [r2, #20]
 856 0016 7047     		bx	lr
 857              	.L133:
 858              		.align	2
 859              	.L132:
 860 0018 00400058 		.word	1476411392
 862              		.section	.text.HAL_FLASHEx_Erase,"ax",%progbits
 863              		.align	1
 864              		.global	HAL_FLASHEx_Erase
 865              		.syntax unified
 866              		.thumb
 867              		.thumb_func
 869              	HAL_FLASHEx_Erase:
 870              		@ args = 0, pretend = 0, frame = 0
 871              		@ frame_needed = 0, uses_anonymous_args = 0
 872 0000 F8B5     		push	{r3, r4, r5, r6, r7, lr}
 873 0002 1B4B     		ldr	r3, .L145
 874 0004 1B78     		ldrb	r3, [r3]	@ zero_extendqisi2
 875 0006 012B     		cmp	r3, #1
 876 0008 2FD0     		beq	.L142
 877 000a 0446     		mov	r4, r0
 878 000c 0E46     		mov	r6, r1
 879 000e 184B     		ldr	r3, .L145
 880 0010 0122     		movs	r2, #1
 881 0012 1A70     		strb	r2, [r3]
 882 0014 0022     		movs	r2, #0
 883 0016 5A60     		str	r2, [r3, #4]
 884 0018 4FF47A70 		mov	r0, #1000
 885 001c FFF7FEFF 		bl	FLASH_WaitForLastOperation
 886 0020 0746     		mov	r7, r0
 887 0022 20B9     		cbnz	r0, .L136
 888 0024 2368     		ldr	r3, [r4]
 889 0026 022B     		cmp	r3, #2
 890 0028 06D0     		beq	.L144
 891              	.L137:
 892 002a FFF7FEFF 		bl	FLASH_FlushCaches
 893              	.L136:
 894 002e 104B     		ldr	r3, .L145
 895 0030 0022     		movs	r2, #0
 896 0032 1A70     		strb	r2, [r3]
 897              	.L135:
 898 0034 3846     		mov	r0, r7
 899 0036 F8BD     		pop	{r3, r4, r5, r6, r7, pc}
 900              	.L144:
 901 0038 4FF0FF33 		mov	r3, #-1
 902 003c 3360     		str	r3, [r6]
 903 003e 6568     		ldr	r5, [r4, #4]
 904 0040 00E0     		b	.L138
ARM GAS  C:\Users\Nathan\AppData\Local\Temp\ccvH3zRv.s 			page 16


 905              	.L139:
 906 0042 0135     		adds	r5, r5, #1
 907              	.L138:
 908 0044 6368     		ldr	r3, [r4, #4]
 909 0046 A268     		ldr	r2, [r4, #8]
 910 0048 1344     		add	r3, r3, r2
 911 004a AB42     		cmp	r3, r5
 912 004c 0AD9     		bls	.L140
 913 004e 2846     		mov	r0, r5
 914 0050 FFF7FEFF 		bl	FLASH_PageErase
 915 0054 4FF47A70 		mov	r0, #1000
 916 0058 FFF7FEFF 		bl	FLASH_WaitForLastOperation
 917 005c 0746     		mov	r7, r0
 918 005e 0028     		cmp	r0, #0
 919 0060 EFD0     		beq	.L139
 920 0062 3560     		str	r5, [r6]
 921              	.L140:
 922 0064 FFF7FEFF 		bl	FLASH_AcknowledgePageErase
 923 0068 DFE7     		b	.L137
 924              	.L142:
 925 006a 0227     		movs	r7, #2
 926 006c E2E7     		b	.L135
 927              	.L146:
 928 006e 00BF     		.align	2
 929              	.L145:
 930 0070 00000000 		.word	pFlash
 932              		.section	.text.HAL_FLASHEx_Erase_IT,"ax",%progbits
 933              		.align	1
 934              		.global	HAL_FLASHEx_Erase_IT
 935              		.syntax unified
 936              		.thumb
 937              		.thumb_func
 939              	HAL_FLASHEx_Erase_IT:
 940              		@ args = 0, pretend = 0, frame = 0
 941              		@ frame_needed = 0, uses_anonymous_args = 0
 942 0000 38B5     		push	{r3, r4, r5, lr}
 943 0002 144B     		ldr	r3, .L152
 944 0004 1B78     		ldrb	r3, [r3]	@ zero_extendqisi2
 945 0006 012B     		cmp	r3, #1
 946 0008 22D0     		beq	.L150
 947 000a 0446     		mov	r4, r0
 948 000c 114B     		ldr	r3, .L152
 949 000e 0122     		movs	r2, #1
 950 0010 1A70     		strb	r2, [r3]
 951 0012 0022     		movs	r2, #0
 952 0014 5A60     		str	r2, [r3, #4]
 953 0016 0268     		ldr	r2, [r0]
 954 0018 9A60     		str	r2, [r3, #8]
 955 001a 4FF47A70 		mov	r0, #1000
 956 001e FFF7FEFF 		bl	FLASH_WaitForLastOperation
 957 0022 0546     		mov	r5, r0
 958 0024 20B1     		cbz	r0, .L149
 959 0026 0B4B     		ldr	r3, .L152
 960 0028 0022     		movs	r2, #0
 961 002a 1A70     		strb	r2, [r3]
 962              	.L148:
 963 002c 2846     		mov	r0, r5
ARM GAS  C:\Users\Nathan\AppData\Local\Temp\ccvH3zRv.s 			page 17


 964 002e 38BD     		pop	{r3, r4, r5, pc}
 965              	.L149:
 966 0030 094A     		ldr	r2, .L152+4
 967 0032 5369     		ldr	r3, [r2, #20]
 968 0034 43F04073 		orr	r3, r3, #50331648
 969 0038 5361     		str	r3, [r2, #20]
 970 003a 2368     		ldr	r3, [r4]
 971 003c 022B     		cmp	r3, #2
 972 003e F5D1     		bne	.L148
 973 0040 A268     		ldr	r2, [r4, #8]
 974 0042 044B     		ldr	r3, .L152
 975 0044 5A61     		str	r2, [r3, #20]
 976 0046 6068     		ldr	r0, [r4, #4]
 977 0048 1861     		str	r0, [r3, #16]
 978 004a FFF7FEFF 		bl	FLASH_PageErase
 979 004e EDE7     		b	.L148
 980              	.L150:
 981 0050 0225     		movs	r5, #2
 982 0052 EBE7     		b	.L148
 983              	.L153:
 984              		.align	2
 985              	.L152:
 986 0054 00000000 		.word	pFlash
 987 0058 00400058 		.word	1476411392
 989              		.ident	"GCC: (Arm GNU Toolchain 13.3.Rel1 (Build arm-13.24)) 13.3.1 20240614"
ARM GAS  C:\Users\Nathan\AppData\Local\Temp\ccvH3zRv.s 			page 18

