ARM GAS  C:\Users\Nathan\AppData\Local\Temp\cciUEwnn.s 			page 1


   1              		.cpu cortex-m4
   2              		.arch armv7e-m
   3              		.fpu fpv4-sp-d16
   4              		.eabi_attribute 27, 1
   5              		.eabi_attribute 28, 1
   6              		.eabi_attribute 20, 1
   7              		.eabi_attribute 21, 1
   8              		.eabi_attribute 23, 3
   9              		.eabi_attribute 24, 1
  10              		.eabi_attribute 25, 1
  11              		.eabi_attribute 26, 1
  12              		.eabi_attribute 30, 1
  13              		.eabi_attribute 34, 1
  14              		.eabi_attribute 18, 4
  15              		.file	"stm32wbxx_ll_usb.c"
  16              		.text
  17              		.section	.text.USB_CoreInit,"ax",%progbits
  18              		.align	1
  19              		.global	USB_CoreInit
  20              		.syntax unified
  21              		.thumb
  22              		.thumb_func
  24              	USB_CoreInit:
  25              		@ args = 0, pretend = 0, frame = 8
  26              		@ frame_needed = 0, uses_anonymous_args = 0
  27              		@ link register save eliminated.
  28 0000 82B0     		sub	sp, sp, #8
  29 0002 02AB     		add	r3, sp, #8
  30 0004 03E90600 		stmdb	r3, {r1, r2}
  31 0008 0020     		movs	r0, #0
  32 000a 02B0     		add	sp, sp, #8
  33              		@ sp needed
  34 000c 7047     		bx	lr
  36              		.section	.text.USB_EnableGlobalInt,"ax",%progbits
  37              		.align	1
  38              		.global	USB_EnableGlobalInt
  39              		.syntax unified
  40              		.thumb
  41              		.thumb_func
  43              	USB_EnableGlobalInt:
  44              		@ args = 0, pretend = 0, frame = 0
  45              		@ frame_needed = 0, uses_anonymous_args = 0
  46              		@ link register save eliminated.
  47 0000 0346     		mov	r3, r0
  48 0002 0020     		movs	r0, #0
  49 0004 A3F84400 		strh	r0, [r3, #68]	@ movhi
  50 0008 4BF68072 		movw	r2, #49024
  51 000c A3F84020 		strh	r2, [r3, #64]	@ movhi
  52 0010 7047     		bx	lr
  54              		.section	.text.USB_DisableGlobalInt,"ax",%progbits
  55              		.align	1
  56              		.global	USB_DisableGlobalInt
  57              		.syntax unified
  58              		.thumb
  59              		.thumb_func
  61              	USB_DisableGlobalInt:
  62              		@ args = 0, pretend = 0, frame = 0
ARM GAS  C:\Users\Nathan\AppData\Local\Temp\cciUEwnn.s 			page 2


  63              		@ frame_needed = 0, uses_anonymous_args = 0
  64              		@ link register save eliminated.
  65 0000 B0F84030 		ldrh	r3, [r0, #64]
  66 0004 23F47E53 		bic	r3, r3, #16256
  67 0008 5B04     		lsls	r3, r3, #17
  68 000a 5B0C     		lsrs	r3, r3, #17
  69 000c A0F84030 		strh	r3, [r0, #64]	@ movhi
  70 0010 0020     		movs	r0, #0
  71 0012 7047     		bx	lr
  73              		.section	.text.USB_SetCurrentMode,"ax",%progbits
  74              		.align	1
  75              		.global	USB_SetCurrentMode
  76              		.syntax unified
  77              		.thumb
  78              		.thumb_func
  80              	USB_SetCurrentMode:
  81              		@ args = 0, pretend = 0, frame = 0
  82              		@ frame_needed = 0, uses_anonymous_args = 0
  83              		@ link register save eliminated.
  84 0000 0020     		movs	r0, #0
  85 0002 7047     		bx	lr
  87              		.section	.text.USB_DevInit,"ax",%progbits
  88              		.align	1
  89              		.global	USB_DevInit
  90              		.syntax unified
  91              		.thumb
  92              		.thumb_func
  94              	USB_DevInit:
  95              		@ args = 0, pretend = 0, frame = 8
  96              		@ frame_needed = 0, uses_anonymous_args = 0
  97              		@ link register save eliminated.
  98 0000 82B0     		sub	sp, sp, #8
  99 0002 0346     		mov	r3, r0
 100 0004 02A8     		add	r0, sp, #8
 101 0006 00E90600 		stmdb	r0, {r1, r2}
 102 000a 0122     		movs	r2, #1
 103 000c A3F84020 		strh	r2, [r3, #64]	@ movhi
 104 0010 0020     		movs	r0, #0
 105 0012 A3F84000 		strh	r0, [r3, #64]	@ movhi
 106 0016 A3F84400 		strh	r0, [r3, #68]	@ movhi
 107 001a A3F85000 		strh	r0, [r3, #80]	@ movhi
 108 001e 02B0     		add	sp, sp, #8
 109              		@ sp needed
 110 0020 7047     		bx	lr
 112              		.section	.text.USB_FlushTxFifo,"ax",%progbits
 113              		.align	1
 114              		.global	USB_FlushTxFifo
 115              		.syntax unified
 116              		.thumb
 117              		.thumb_func
 119              	USB_FlushTxFifo:
 120              		@ args = 0, pretend = 0, frame = 0
 121              		@ frame_needed = 0, uses_anonymous_args = 0
 122              		@ link register save eliminated.
 123 0000 0020     		movs	r0, #0
 124 0002 7047     		bx	lr
 126              		.section	.text.USB_FlushRxFifo,"ax",%progbits
ARM GAS  C:\Users\Nathan\AppData\Local\Temp\cciUEwnn.s 			page 3


 127              		.align	1
 128              		.global	USB_FlushRxFifo
 129              		.syntax unified
 130              		.thumb
 131              		.thumb_func
 133              	USB_FlushRxFifo:
 134              		@ args = 0, pretend = 0, frame = 0
 135              		@ frame_needed = 0, uses_anonymous_args = 0
 136              		@ link register save eliminated.
 137 0000 0020     		movs	r0, #0
 138 0002 7047     		bx	lr
 140              		.section	.text.USB_ActivateEndpoint,"ax",%progbits
 141              		.align	1
 142              		.global	USB_ActivateEndpoint
 143              		.syntax unified
 144              		.thumb
 145              		.thumb_func
 147              	USB_ActivateEndpoint:
 148              		@ args = 0, pretend = 0, frame = 0
 149              		@ frame_needed = 0, uses_anonymous_args = 0
 150 0000 10B5     		push	{r4, lr}
 151 0002 0346     		mov	r3, r0
 152 0004 91F800C0 		ldrb	ip, [r1]	@ zero_extendqisi2
 153 0008 30F82C20 		ldrh	r2, [r0, ip, lsl #2]
 154 000c 92B2     		uxth	r2, r2
 155 000e 22F4EC42 		bic	r2, r2, #30208
 156 0012 22F07002 		bic	r2, r2, #112
 157 0016 92B2     		uxth	r2, r2
 158 0018 C878     		ldrb	r0, [r1, #3]	@ zero_extendqisi2
 159 001a 0328     		cmp	r0, #3
 160 001c 61D8     		bhi	.L50
 161 001e DFE800F0 		tbb	[pc, r0]
 162              	.L13:
 163 0022 55       		.byte	(.L16-.L13)/2
 164 0023 5C       		.byte	(.L15-.L13)/2
 165 0024 02       		.byte	(.L14-.L13)/2
 166 0025 58       		.byte	(.L12-.L13)/2
 167              		.p2align 1
 168              	.L14:
 169 0026 0020     		movs	r0, #0
 170              	.L11:
 171 0028 48F2800E 		movw	lr, #32896
 172 002c 42EA0E02 		orr	r2, r2, lr
 173 0030 23F82C20 		strh	r2, [r3, ip, lsl #2]	@ movhi
 174 0034 91F800C0 		ldrb	ip, [r1]	@ zero_extendqisi2
 175 0038 33F82C20 		ldrh	r2, [r3, ip, lsl #2]
 176 003c 92B2     		uxth	r2, r2
 177 003e 22F4E042 		bic	r2, r2, #28672
 178 0042 22F07002 		bic	r2, r2, #112
 179 0046 4CEA0202 		orr	r2, ip, r2
 180 004a 42EA0E02 		orr	r2, r2, lr
 181 004e 23F82C20 		strh	r2, [r3, ip, lsl #2]	@ movhi
 182 0052 0A7B     		ldrb	r2, [r1, #12]	@ zero_extendqisi2
 183 0054 002A     		cmp	r2, #0
 184 0056 40F0DC80 		bne	.L17
 185 005a 4A78     		ldrb	r2, [r1, #1]	@ zero_extendqisi2
 186 005c 002A     		cmp	r2, #0
ARM GAS  C:\Users\Nathan\AppData\Local\Temp\cciUEwnn.s 			page 4


 187 005e 51D0     		beq	.L18
 188 0060 B3F85020 		ldrh	r2, [r3, #80]
 189 0064 13FA82F2 		uxtah	r2, r3, r2
 190 0068 0C78     		ldrb	r4, [r1]	@ zero_extendqisi2
 191 006a 02EBC402 		add	r2, r2, r4, lsl #3
 192 006e B1F806C0 		ldrh	ip, [r1, #6]
 193 0072 4FEA5C0C 		lsr	ip, ip, #1
 194 0076 4FEA4C0C 		lsl	ip, ip, #1
 195 007a A2F800C4 		strh	ip, [r2, #1024]	@ movhi
 196 007e 0C78     		ldrb	r4, [r1]	@ zero_extendqisi2
 197 0080 33F82420 		ldrh	r2, [r3, r4, lsl #2]
 198 0084 12F0400F 		tst	r2, #64
 199 0088 0CD0     		beq	.L19
 200 008a 33F82420 		ldrh	r2, [r3, r4, lsl #2]
 201 008e 92B2     		uxth	r2, r2
 202 0090 22F4E042 		bic	r2, r2, #28672
 203 0094 22F07002 		bic	r2, r2, #112
 204 0098 42F40042 		orr	r2, r2, #32768
 205 009c 42F0C002 		orr	r2, r2, #192
 206 00a0 23F82420 		strh	r2, [r3, r4, lsl #2]	@ movhi
 207              	.L19:
 208 00a4 CA78     		ldrb	r2, [r1, #3]	@ zero_extendqisi2
 209 00a6 012A     		cmp	r2, #1
 210 00a8 1DD0     		beq	.L20
 211 00aa 0978     		ldrb	r1, [r1]	@ zero_extendqisi2
 212 00ac 33F82120 		ldrh	r2, [r3, r1, lsl #2]
 213 00b0 92B2     		uxth	r2, r2
 214 00b2 22F4E042 		bic	r2, r2, #28672
 215 00b6 22F04002 		bic	r2, r2, #64
 216 00ba 82F02002 		eor	r2, r2, #32
 217 00be 42F40042 		orr	r2, r2, #32768
 218 00c2 42F08002 		orr	r2, r2, #128
 219 00c6 23F82120 		strh	r2, [r3, r1, lsl #2]	@ movhi
 220 00ca C3E1     		b	.L21
 221              	.L16:
 222 00cc 42F40072 		orr	r2, r2, #512
 223 00d0 AAE7     		b	.L11
 224              	.L12:
 225 00d2 42F4C062 		orr	r2, r2, #1536
 226 00d6 0020     		movs	r0, #0
 227 00d8 A6E7     		b	.L11
 228              	.L15:
 229 00da 42F48062 		orr	r2, r2, #1024
 230 00de 0020     		movs	r0, #0
 231 00e0 A2E7     		b	.L11
 232              	.L50:
 233 00e2 0120     		movs	r0, #1
 234 00e4 A0E7     		b	.L11
 235              	.L20:
 236 00e6 0978     		ldrb	r1, [r1]	@ zero_extendqisi2
 237 00e8 33F82120 		ldrh	r2, [r3, r1, lsl #2]
 238 00ec 92B2     		uxth	r2, r2
 239 00ee 22F4E042 		bic	r2, r2, #28672
 240 00f2 22F04002 		bic	r2, r2, #64
 241 00f6 42F40042 		orr	r2, r2, #32768
 242 00fa 42F08002 		orr	r2, r2, #128
 243 00fe 23F82120 		strh	r2, [r3, r1, lsl #2]	@ movhi
ARM GAS  C:\Users\Nathan\AppData\Local\Temp\cciUEwnn.s 			page 5


 244 0102 A7E1     		b	.L21
 245              	.L18:
 246 0104 B3F85020 		ldrh	r2, [r3, #80]
 247 0108 13FA82F2 		uxtah	r2, r3, r2
 248 010c 0C78     		ldrb	r4, [r1]	@ zero_extendqisi2
 249 010e 02EBC402 		add	r2, r2, r4, lsl #3
 250 0112 B1F806C0 		ldrh	ip, [r1, #6]
 251 0116 4FEA5C0C 		lsr	ip, ip, #1
 252 011a 4FEA4C0C 		lsl	ip, ip, #1
 253 011e A2F804C4 		strh	ip, [r2, #1028]	@ movhi
 254 0122 B3F85020 		ldrh	r2, [r3, #80]
 255 0126 13FA82F2 		uxtah	r2, r3, r2
 256 012a 0C78     		ldrb	r4, [r1]	@ zero_extendqisi2
 257 012c 02EBC402 		add	r2, r2, r4, lsl #3
 258 0130 B2F806C4 		ldrh	ip, [r2, #1030]
 259 0134 CCF3090C 		ubfx	ip, ip, #0, #10
 260 0138 A2F806C4 		strh	ip, [r2, #1030]	@ movhi
 261 013c 0C69     		ldr	r4, [r1, #16]
 262 013e 74BB     		cbnz	r4, .L22
 263 0140 B2F806C4 		ldrh	ip, [r2, #1030]
 264 0144 6FEA4C4C 		mvn	ip, ip, lsl #17
 265 0148 6FEA5C4C 		mvn	ip, ip, lsr #17
 266 014c 1FFA8CFC 		uxth	ip, ip
 267 0150 A2F806C4 		strh	ip, [r2, #1030]	@ movhi
 268              	.L23:
 269 0154 0C78     		ldrb	r4, [r1]	@ zero_extendqisi2
 270 0156 33F82420 		ldrh	r2, [r3, r4, lsl #2]
 271 015a 12F4804F 		tst	r2, #16384
 272 015e 0CD0     		beq	.L27
 273 0160 33F82420 		ldrh	r2, [r3, r4, lsl #2]
 274 0164 92B2     		uxth	r2, r2
 275 0166 22F4E042 		bic	r2, r2, #28672
 276 016a 22F07002 		bic	r2, r2, #112
 277 016e 42F44042 		orr	r2, r2, #49152
 278 0172 42F08002 		orr	r2, r2, #128
 279 0176 23F82420 		strh	r2, [r3, r4, lsl #2]	@ movhi
 280              	.L27:
 281 017a 0978     		ldrb	r1, [r1]	@ zero_extendqisi2
 282 017c C9BB     		cbnz	r1, .L28
 283 017e 33F82120 		ldrh	r2, [r3, r1, lsl #2]
 284 0182 92B2     		uxth	r2, r2
 285 0184 22F48042 		bic	r2, r2, #16384
 286 0188 22F07002 		bic	r2, r2, #112
 287 018c 82F44052 		eor	r2, r2, #12288
 288 0190 42F40042 		orr	r2, r2, #32768
 289 0194 42F08002 		orr	r2, r2, #128
 290 0198 23F82120 		strh	r2, [r3, r1, lsl #2]	@ movhi
 291 019c 5AE1     		b	.L21
 292              	.L22:
 293 019e 3E2C     		cmp	r4, #62
 294 01a0 12D8     		bhi	.L24
 295 01a2 4FEA540C 		lsr	ip, r4, #1
 296 01a6 14F0010F 		tst	r4, #1
 297 01aa 01D0     		beq	.L25
 298 01ac 0CF1010C 		add	ip, ip, #1
 299              	.L25:
 300 01b0 B2F80644 		ldrh	r4, [r2, #1030]
ARM GAS  C:\Users\Nathan\AppData\Local\Temp\cciUEwnn.s 			page 6


 301 01b4 A4B2     		uxth	r4, r4
 302 01b6 4FEA8C2C 		lsl	ip, ip, #10
 303 01ba 1FFA8CFC 		uxth	ip, ip
 304 01be 44EA0C04 		orr	r4, r4, ip
 305 01c2 A2F80644 		strh	r4, [r2, #1030]	@ movhi
 306 01c6 C5E7     		b	.L23
 307              	.L24:
 308 01c8 4FEA541C 		lsr	ip, r4, #5
 309 01cc 14F01F0F 		tst	r4, #31
 310 01d0 01D1     		bne	.L26
 311 01d2 0CF1FF3C 		add	ip, ip, #-1
 312              	.L26:
 313 01d6 B2F80644 		ldrh	r4, [r2, #1030]
 314 01da A4B2     		uxth	r4, r4
 315 01dc 4FEA8C2C 		lsl	ip, ip, #10
 316 01e0 1FFA8CFC 		uxth	ip, ip
 317 01e4 44EA0C04 		orr	r4, r4, ip
 318 01e8 44F40044 		orr	r4, r4, #32768
 319 01ec A2F80644 		strh	r4, [r2, #1030]	@ movhi
 320 01f0 B0E7     		b	.L23
 321              	.L28:
 322 01f2 33F82120 		ldrh	r2, [r3, r1, lsl #2]
 323 01f6 92B2     		uxth	r2, r2
 324 01f8 22F48042 		bic	r2, r2, #16384
 325 01fc 22F07002 		bic	r2, r2, #112
 326 0200 82F40052 		eor	r2, r2, #8192
 327 0204 42F40042 		orr	r2, r2, #32768
 328 0208 42F08002 		orr	r2, r2, #128
 329 020c 23F82120 		strh	r2, [r3, r1, lsl #2]	@ movhi
 330 0210 20E1     		b	.L21
 331              	.L17:
 332 0212 CA78     		ldrb	r2, [r1, #3]	@ zero_extendqisi2
 333 0214 022A     		cmp	r2, #2
 334 0216 74D0     		beq	.L52
 335 0218 91F800C0 		ldrb	ip, [r1]	@ zero_extendqisi2
 336 021c 33F82C20 		ldrh	r2, [r3, ip, lsl #2]
 337 0220 92B2     		uxth	r2, r2
 338 0222 22F4E242 		bic	r2, r2, #28928
 339 0226 22F07002 		bic	r2, r2, #112
 340 022a 42F40042 		orr	r2, r2, #32768
 341 022e 42F08002 		orr	r2, r2, #128
 342 0232 23F82C20 		strh	r2, [r3, ip, lsl #2]	@ movhi
 343              	.L30:
 344 0236 B3F85020 		ldrh	r2, [r3, #80]
 345 023a 13FA82F2 		uxtah	r2, r3, r2
 346 023e 91F800C0 		ldrb	ip, [r1]	@ zero_extendqisi2
 347 0242 02EBCC02 		add	r2, r2, ip, lsl #3
 348 0246 B1F808C0 		ldrh	ip, [r1, #8]
 349 024a 4FEA5C0C 		lsr	ip, ip, #1
 350 024e 4FEA4C0C 		lsl	ip, ip, #1
 351 0252 A2F800C4 		strh	ip, [r2, #1024]	@ movhi
 352 0256 B3F85020 		ldrh	r2, [r3, #80]
 353 025a 13FA82F2 		uxtah	r2, r3, r2
 354 025e 91F800C0 		ldrb	ip, [r1]	@ zero_extendqisi2
 355 0262 02EBCC02 		add	r2, r2, ip, lsl #3
 356 0266 B1F80AC0 		ldrh	ip, [r1, #10]
 357 026a 4FEA5C0C 		lsr	ip, ip, #1
ARM GAS  C:\Users\Nathan\AppData\Local\Temp\cciUEwnn.s 			page 7


 358 026e 4FEA4C0C 		lsl	ip, ip, #1
 359 0272 A2F804C4 		strh	ip, [r2, #1028]	@ movhi
 360 0276 4A78     		ldrb	r2, [r1, #1]	@ zero_extendqisi2
 361 0278 002A     		cmp	r2, #0
 362 027a 40F0F780 		bne	.L31
 363 027e 0C78     		ldrb	r4, [r1]	@ zero_extendqisi2
 364 0280 33F82420 		ldrh	r2, [r3, r4, lsl #2]
 365 0284 12F4804F 		tst	r2, #16384
 366 0288 0CD0     		beq	.L32
 367 028a 33F82420 		ldrh	r2, [r3, r4, lsl #2]
 368 028e 92B2     		uxth	r2, r2
 369 0290 22F4E042 		bic	r2, r2, #28672
 370 0294 22F07002 		bic	r2, r2, #112
 371 0298 42F44042 		orr	r2, r2, #49152
 372 029c 42F08002 		orr	r2, r2, #128
 373 02a0 23F82420 		strh	r2, [r3, r4, lsl #2]	@ movhi
 374              	.L32:
 375 02a4 0C78     		ldrb	r4, [r1]	@ zero_extendqisi2
 376 02a6 33F82420 		ldrh	r2, [r3, r4, lsl #2]
 377 02aa 12F0400F 		tst	r2, #64
 378 02ae 0CD0     		beq	.L33
 379 02b0 33F82420 		ldrh	r2, [r3, r4, lsl #2]
 380 02b4 92B2     		uxth	r2, r2
 381 02b6 22F4E042 		bic	r2, r2, #28672
 382 02ba 22F07002 		bic	r2, r2, #112
 383 02be 42F40042 		orr	r2, r2, #32768
 384 02c2 42F0C002 		orr	r2, r2, #192
 385 02c6 23F82420 		strh	r2, [r3, r4, lsl #2]	@ movhi
 386              	.L33:
 387 02ca 4A78     		ldrb	r2, [r1, #1]	@ zero_extendqisi2
 388 02cc 002A     		cmp	r2, #0
 389 02ce 51D1     		bne	.L34
 390 02d0 B3F85020 		ldrh	r2, [r3, #80]
 391 02d4 13FA82F2 		uxtah	r2, r3, r2
 392 02d8 0C78     		ldrb	r4, [r1]	@ zero_extendqisi2
 393 02da 02EBC402 		add	r2, r2, r4, lsl #3
 394 02de B2F80244 		ldrh	r4, [r2, #1026]
 395 02e2 C4F30904 		ubfx	r4, r4, #0, #10
 396 02e6 A2F80244 		strh	r4, [r2, #1026]	@ movhi
 397 02ea 0C69     		ldr	r4, [r1, #16]
 398 02ec C4B9     		cbnz	r4, .L35
 399 02ee B2F80244 		ldrh	r4, [r2, #1026]
 400 02f2 6FEA4444 		mvn	r4, r4, lsl #17
 401 02f6 6FEA5444 		mvn	r4, r4, lsr #17
 402 02fa A4B2     		uxth	r4, r4
 403 02fc A2F80244 		strh	r4, [r2, #1026]	@ movhi
 404 0300 3AE0     		b	.L36
 405              	.L52:
 406 0302 0C78     		ldrb	r4, [r1]	@ zero_extendqisi2
 407 0304 33F82420 		ldrh	r2, [r3, r4, lsl #2]
 408 0308 92B2     		uxth	r2, r2
 409 030a 22F4E042 		bic	r2, r2, #28672
 410 030e 22F07002 		bic	r2, r2, #112
 411 0312 42F40142 		orr	r2, r2, #33024
 412 0316 42F08002 		orr	r2, r2, #128
 413 031a 23F82420 		strh	r2, [r3, r4, lsl #2]	@ movhi
 414 031e 8AE7     		b	.L30
ARM GAS  C:\Users\Nathan\AppData\Local\Temp\cciUEwnn.s 			page 8


 415              	.L35:
 416 0320 3E2C     		cmp	r4, #62
 417 0322 12D8     		bhi	.L37
 418 0324 4FEA540C 		lsr	ip, r4, #1
 419 0328 14F0010F 		tst	r4, #1
 420 032c 01D0     		beq	.L38
 421 032e 0CF1010C 		add	ip, ip, #1
 422              	.L38:
 423 0332 B2F80244 		ldrh	r4, [r2, #1026]
 424 0336 A4B2     		uxth	r4, r4
 425 0338 4FEA8C2C 		lsl	ip, ip, #10
 426 033c 1FFA8CFC 		uxth	ip, ip
 427 0340 44EA0C04 		orr	r4, r4, ip
 428 0344 A2F80244 		strh	r4, [r2, #1026]	@ movhi
 429 0348 16E0     		b	.L36
 430              	.L37:
 431 034a 4FEA541C 		lsr	ip, r4, #5
 432 034e 14F01F0F 		tst	r4, #31
 433 0352 01D1     		bne	.L39
 434 0354 0CF1FF3C 		add	ip, ip, #-1
 435              	.L39:
 436 0358 B2F80244 		ldrh	r4, [r2, #1026]
 437 035c A4B2     		uxth	r4, r4
 438 035e 4FEA8C2C 		lsl	ip, ip, #10
 439 0362 1FFA8CFC 		uxth	ip, ip
 440 0366 44EA0C04 		orr	r4, r4, ip
 441 036a 44F40044 		orr	r4, r4, #32768
 442 036e A2F80244 		strh	r4, [r2, #1026]	@ movhi
 443 0372 01E0     		b	.L36
 444              	.L34:
 445 0374 012A     		cmp	r2, #1
 446 0376 1BD0     		beq	.L53
 447              	.L36:
 448 0378 4A78     		ldrb	r2, [r1, #1]	@ zero_extendqisi2
 449 037a 002A     		cmp	r2, #0
 450 037c 4DD1     		bne	.L40
 451 037e B3F85020 		ldrh	r2, [r3, #80]
 452 0382 13FA82F2 		uxtah	r2, r3, r2
 453 0386 0C78     		ldrb	r4, [r1]	@ zero_extendqisi2
 454 0388 02EBC402 		add	r2, r2, r4, lsl #3
 455 038c B2F80644 		ldrh	r4, [r2, #1030]
 456 0390 C4F30904 		ubfx	r4, r4, #0, #10
 457 0394 A2F80644 		strh	r4, [r2, #1030]	@ movhi
 458 0398 0C69     		ldr	r4, [r1, #16]
 459 039a A4B9     		cbnz	r4, .L41
 460 039c B2F80644 		ldrh	r4, [r2, #1030]
 461 03a0 6FEA4444 		mvn	r4, r4, lsl #17
 462 03a4 6FEA5444 		mvn	r4, r4, lsr #17
 463 03a8 A4B2     		uxth	r4, r4
 464 03aa A2F80644 		strh	r4, [r2, #1030]	@ movhi
 465 03ae 36E0     		b	.L42
 466              	.L53:
 467 03b0 B3F85020 		ldrh	r2, [r3, #80]
 468 03b4 13FA82F2 		uxtah	r2, r3, r2
 469 03b8 0C78     		ldrb	r4, [r1]	@ zero_extendqisi2
 470 03ba 02EBC402 		add	r2, r2, r4, lsl #3
 471 03be 0C8A     		ldrh	r4, [r1, #16]
ARM GAS  C:\Users\Nathan\AppData\Local\Temp\cciUEwnn.s 			page 9


 472 03c0 A2F80244 		strh	r4, [r2, #1026]	@ movhi
 473 03c4 D8E7     		b	.L36
 474              	.L41:
 475 03c6 3E2C     		cmp	r4, #62
 476 03c8 12D8     		bhi	.L43
 477 03ca 4FEA540C 		lsr	ip, r4, #1
 478 03ce 14F0010F 		tst	r4, #1
 479 03d2 01D0     		beq	.L44
 480 03d4 0CF1010C 		add	ip, ip, #1
 481              	.L44:
 482 03d8 B2F80644 		ldrh	r4, [r2, #1030]
 483 03dc A4B2     		uxth	r4, r4
 484 03de 4FEA8C2C 		lsl	ip, ip, #10
 485 03e2 1FFA8CFC 		uxth	ip, ip
 486 03e6 44EA0C04 		orr	r4, r4, ip
 487 03ea A2F80644 		strh	r4, [r2, #1030]	@ movhi
 488 03ee 16E0     		b	.L42
 489              	.L43:
 490 03f0 4FEA541C 		lsr	ip, r4, #5
 491 03f4 14F01F0F 		tst	r4, #31
 492 03f8 01D1     		bne	.L45
 493 03fa 0CF1FF3C 		add	ip, ip, #-1
 494              	.L45:
 495 03fe B2F80644 		ldrh	r4, [r2, #1030]
 496 0402 A4B2     		uxth	r4, r4
 497 0404 4FEA8C2C 		lsl	ip, ip, #10
 498 0408 1FFA8CFC 		uxth	ip, ip
 499 040c 44EA0C04 		orr	r4, r4, ip
 500 0410 44F40044 		orr	r4, r4, #32768
 501 0414 A2F80644 		strh	r4, [r2, #1030]	@ movhi
 502 0418 01E0     		b	.L42
 503              	.L40:
 504 041a 012A     		cmp	r2, #1
 505 041c 1BD0     		beq	.L54
 506              	.L42:
 507 041e 91F800C0 		ldrb	ip, [r1]	@ zero_extendqisi2
 508 0422 33F82C20 		ldrh	r2, [r3, ip, lsl #2]
 509 0426 92B2     		uxth	r2, r2
 510 0428 22F48042 		bic	r2, r2, #16384
 511 042c 22F07002 		bic	r2, r2, #112
 512 0430 82F44052 		eor	r2, r2, #12288
 513 0434 48F28004 		movw	r4, #32896
 514 0438 2243     		orrs	r2, r2, r4
 515 043a 23F82C20 		strh	r2, [r3, ip, lsl #2]	@ movhi
 516 043e 0978     		ldrb	r1, [r1]	@ zero_extendqisi2
 517 0440 33F82120 		ldrh	r2, [r3, r1, lsl #2]
 518 0444 92B2     		uxth	r2, r2
 519 0446 22F4E042 		bic	r2, r2, #28672
 520 044a 22F04002 		bic	r2, r2, #64
 521 044e 2243     		orrs	r2, r2, r4
 522 0450 23F82120 		strh	r2, [r3, r1, lsl #2]	@ movhi
 523              	.L21:
 524 0454 10BD     		pop	{r4, pc}
 525              	.L54:
 526 0456 B3F85020 		ldrh	r2, [r3, #80]
 527 045a 13FA82F2 		uxtah	r2, r3, r2
 528 045e 0C78     		ldrb	r4, [r1]	@ zero_extendqisi2
ARM GAS  C:\Users\Nathan\AppData\Local\Temp\cciUEwnn.s 			page 10


 529 0460 02EBC402 		add	r2, r2, r4, lsl #3
 530 0464 0C8A     		ldrh	r4, [r1, #16]
 531 0466 A2F80644 		strh	r4, [r2, #1030]	@ movhi
 532 046a D8E7     		b	.L42
 533              	.L31:
 534 046c 0C78     		ldrb	r4, [r1]	@ zero_extendqisi2
 535 046e 33F82420 		ldrh	r2, [r3, r4, lsl #2]
 536 0472 12F4804F 		tst	r2, #16384
 537 0476 0CD0     		beq	.L46
 538 0478 33F82420 		ldrh	r2, [r3, r4, lsl #2]
 539 047c 92B2     		uxth	r2, r2
 540 047e 22F4E042 		bic	r2, r2, #28672
 541 0482 22F07002 		bic	r2, r2, #112
 542 0486 42F44042 		orr	r2, r2, #49152
 543 048a 42F08002 		orr	r2, r2, #128
 544 048e 23F82420 		strh	r2, [r3, r4, lsl #2]	@ movhi
 545              	.L46:
 546 0492 0C78     		ldrb	r4, [r1]	@ zero_extendqisi2
 547 0494 33F82420 		ldrh	r2, [r3, r4, lsl #2]
 548 0498 12F0400F 		tst	r2, #64
 549 049c 0CD0     		beq	.L47
 550 049e 33F82420 		ldrh	r2, [r3, r4, lsl #2]
 551 04a2 92B2     		uxth	r2, r2
 552 04a4 22F4E042 		bic	r2, r2, #28672
 553 04a8 22F07002 		bic	r2, r2, #112
 554 04ac 42F40042 		orr	r2, r2, #32768
 555 04b0 42F0C002 		orr	r2, r2, #192
 556 04b4 23F82420 		strh	r2, [r3, r4, lsl #2]	@ movhi
 557              	.L47:
 558 04b8 CA78     		ldrb	r2, [r1, #3]	@ zero_extendqisi2
 559 04ba 012A     		cmp	r2, #1
 560 04bc 1ED0     		beq	.L48
 561 04be 0C78     		ldrb	r4, [r1]	@ zero_extendqisi2
 562 04c0 33F82420 		ldrh	r2, [r3, r4, lsl #2]
 563 04c4 92B2     		uxth	r2, r2
 564 04c6 22F4E042 		bic	r2, r2, #28672
 565 04ca 22F04002 		bic	r2, r2, #64
 566 04ce 82F02002 		eor	r2, r2, #32
 567 04d2 42F40042 		orr	r2, r2, #32768
 568 04d6 42F08002 		orr	r2, r2, #128
 569 04da 23F82420 		strh	r2, [r3, r4, lsl #2]	@ movhi
 570              	.L49:
 571 04de 0978     		ldrb	r1, [r1]	@ zero_extendqisi2
 572 04e0 33F82120 		ldrh	r2, [r3, r1, lsl #2]
 573 04e4 92B2     		uxth	r2, r2
 574 04e6 22F48042 		bic	r2, r2, #16384
 575 04ea 22F07002 		bic	r2, r2, #112
 576 04ee 42F40042 		orr	r2, r2, #32768
 577 04f2 42F08002 		orr	r2, r2, #128
 578 04f6 23F82120 		strh	r2, [r3, r1, lsl #2]	@ movhi
 579 04fa ABE7     		b	.L21
 580              	.L48:
 581 04fc 0C78     		ldrb	r4, [r1]	@ zero_extendqisi2
 582 04fe 33F82420 		ldrh	r2, [r3, r4, lsl #2]
 583 0502 92B2     		uxth	r2, r2
 584 0504 22F4E042 		bic	r2, r2, #28672
 585 0508 22F04002 		bic	r2, r2, #64
ARM GAS  C:\Users\Nathan\AppData\Local\Temp\cciUEwnn.s 			page 11


 586 050c 42F40042 		orr	r2, r2, #32768
 587 0510 42F08002 		orr	r2, r2, #128
 588 0514 23F82420 		strh	r2, [r3, r4, lsl #2]	@ movhi
 589 0518 E1E7     		b	.L49
 591              		.section	.text.USB_DeactivateEndpoint,"ax",%progbits
 592              		.align	1
 593              		.global	USB_DeactivateEndpoint
 594              		.syntax unified
 595              		.thumb
 596              		.thumb_func
 598              	USB_DeactivateEndpoint:
 599              		@ args = 0, pretend = 0, frame = 0
 600              		@ frame_needed = 0, uses_anonymous_args = 0
 601              		@ link register save eliminated.
 602 0000 0B7B     		ldrb	r3, [r1, #12]	@ zero_extendqisi2
 603 0002 002B     		cmp	r3, #0
 604 0004 46D1     		bne	.L56
 605 0006 4B78     		ldrb	r3, [r1, #1]	@ zero_extendqisi2
 606 0008 13B3     		cbz	r3, .L57
 607 000a 0A78     		ldrb	r2, [r1]	@ zero_extendqisi2
 608 000c 30F82230 		ldrh	r3, [r0, r2, lsl #2]
 609 0010 13F0400F 		tst	r3, #64
 610 0014 0CD0     		beq	.L58
 611 0016 30F82230 		ldrh	r3, [r0, r2, lsl #2]
 612 001a 9BB2     		uxth	r3, r3
 613 001c 23F4E043 		bic	r3, r3, #28672
 614 0020 23F07003 		bic	r3, r3, #112
 615 0024 43F40043 		orr	r3, r3, #32768
 616 0028 43F0C003 		orr	r3, r3, #192
 617 002c 20F82230 		strh	r3, [r0, r2, lsl #2]	@ movhi
 618              	.L58:
 619 0030 0A78     		ldrb	r2, [r1]	@ zero_extendqisi2
 620 0032 30F82230 		ldrh	r3, [r0, r2, lsl #2]
 621 0036 9BB2     		uxth	r3, r3
 622 0038 23F4E043 		bic	r3, r3, #28672
 623 003c 23F04003 		bic	r3, r3, #64
 624 0040 43F40043 		orr	r3, r3, #32768
 625 0044 43F08003 		orr	r3, r3, #128
 626 0048 20F82230 		strh	r3, [r0, r2, lsl #2]	@ movhi
 627              	.L59:
 628 004c 0020     		movs	r0, #0
 629 004e 7047     		bx	lr
 630              	.L57:
 631 0050 0A78     		ldrb	r2, [r1]	@ zero_extendqisi2
 632 0052 30F82230 		ldrh	r3, [r0, r2, lsl #2]
 633 0056 13F4804F 		tst	r3, #16384
 634 005a 0CD0     		beq	.L60
 635 005c 30F82230 		ldrh	r3, [r0, r2, lsl #2]
 636 0060 9BB2     		uxth	r3, r3
 637 0062 23F4E043 		bic	r3, r3, #28672
 638 0066 23F07003 		bic	r3, r3, #112
 639 006a 43F44043 		orr	r3, r3, #49152
 640 006e 43F08003 		orr	r3, r3, #128
 641 0072 20F82230 		strh	r3, [r0, r2, lsl #2]	@ movhi
 642              	.L60:
 643 0076 0A78     		ldrb	r2, [r1]	@ zero_extendqisi2
 644 0078 30F82230 		ldrh	r3, [r0, r2, lsl #2]
ARM GAS  C:\Users\Nathan\AppData\Local\Temp\cciUEwnn.s 			page 12


 645 007c 9BB2     		uxth	r3, r3
 646 007e 23F48043 		bic	r3, r3, #16384
 647 0082 23F07003 		bic	r3, r3, #112
 648 0086 43F40043 		orr	r3, r3, #32768
 649 008a 43F08003 		orr	r3, r3, #128
 650 008e 20F82230 		strh	r3, [r0, r2, lsl #2]	@ movhi
 651 0092 DBE7     		b	.L59
 652              	.L56:
 653 0094 4B78     		ldrb	r3, [r1, #1]	@ zero_extendqisi2
 654 0096 002B     		cmp	r3, #0
 655 0098 4ED1     		bne	.L61
 656 009a 0A78     		ldrb	r2, [r1]	@ zero_extendqisi2
 657 009c 30F82230 		ldrh	r3, [r0, r2, lsl #2]
 658 00a0 13F4804F 		tst	r3, #16384
 659 00a4 0CD0     		beq	.L62
 660 00a6 30F82230 		ldrh	r3, [r0, r2, lsl #2]
 661 00aa 9BB2     		uxth	r3, r3
 662 00ac 23F4E043 		bic	r3, r3, #28672
 663 00b0 23F07003 		bic	r3, r3, #112
 664 00b4 43F44043 		orr	r3, r3, #49152
 665 00b8 43F08003 		orr	r3, r3, #128
 666 00bc 20F82230 		strh	r3, [r0, r2, lsl #2]	@ movhi
 667              	.L62:
 668 00c0 0A78     		ldrb	r2, [r1]	@ zero_extendqisi2
 669 00c2 30F82230 		ldrh	r3, [r0, r2, lsl #2]
 670 00c6 13F0400F 		tst	r3, #64
 671 00ca 0CD0     		beq	.L63
 672 00cc 30F82230 		ldrh	r3, [r0, r2, lsl #2]
 673 00d0 9BB2     		uxth	r3, r3
 674 00d2 23F4E043 		bic	r3, r3, #28672
 675 00d6 23F07003 		bic	r3, r3, #112
 676 00da 43F40043 		orr	r3, r3, #32768
 677 00de 43F0C003 		orr	r3, r3, #192
 678 00e2 20F82230 		strh	r3, [r0, r2, lsl #2]	@ movhi
 679              	.L63:
 680 00e6 0A78     		ldrb	r2, [r1]	@ zero_extendqisi2
 681 00e8 30F82230 		ldrh	r3, [r0, r2, lsl #2]
 682 00ec 9BB2     		uxth	r3, r3
 683 00ee 23F4E043 		bic	r3, r3, #28672
 684 00f2 23F07003 		bic	r3, r3, #112
 685 00f6 43F40043 		orr	r3, r3, #32768
 686 00fa 43F0C003 		orr	r3, r3, #192
 687 00fe 20F82230 		strh	r3, [r0, r2, lsl #2]	@ movhi
 688 0102 0A78     		ldrb	r2, [r1]	@ zero_extendqisi2
 689 0104 30F82230 		ldrh	r3, [r0, r2, lsl #2]
 690 0108 9BB2     		uxth	r3, r3
 691 010a 23F48043 		bic	r3, r3, #16384
 692 010e 23F07003 		bic	r3, r3, #112
 693 0112 48F2800C 		movw	ip, #32896
 694 0116 43EA0C03 		orr	r3, r3, ip
 695 011a 20F82230 		strh	r3, [r0, r2, lsl #2]	@ movhi
 696 011e 0A78     		ldrb	r2, [r1]	@ zero_extendqisi2
 697 0120 30F82230 		ldrh	r3, [r0, r2, lsl #2]
 698 0124 9BB2     		uxth	r3, r3
 699 0126 23F4E043 		bic	r3, r3, #28672
 700 012a 23F04003 		bic	r3, r3, #64
 701 012e 43EA0C03 		orr	r3, r3, ip
ARM GAS  C:\Users\Nathan\AppData\Local\Temp\cciUEwnn.s 			page 13


 702 0132 20F82230 		strh	r3, [r0, r2, lsl #2]	@ movhi
 703 0136 89E7     		b	.L59
 704              	.L61:
 705 0138 0A78     		ldrb	r2, [r1]	@ zero_extendqisi2
 706 013a 30F82230 		ldrh	r3, [r0, r2, lsl #2]
 707 013e 13F4804F 		tst	r3, #16384
 708 0142 0CD0     		beq	.L64
 709 0144 30F82230 		ldrh	r3, [r0, r2, lsl #2]
 710 0148 9BB2     		uxth	r3, r3
 711 014a 23F4E043 		bic	r3, r3, #28672
 712 014e 23F07003 		bic	r3, r3, #112
 713 0152 43F44043 		orr	r3, r3, #49152
 714 0156 43F08003 		orr	r3, r3, #128
 715 015a 20F82230 		strh	r3, [r0, r2, lsl #2]	@ movhi
 716              	.L64:
 717 015e 0A78     		ldrb	r2, [r1]	@ zero_extendqisi2
 718 0160 30F82230 		ldrh	r3, [r0, r2, lsl #2]
 719 0164 13F0400F 		tst	r3, #64
 720 0168 0CD0     		beq	.L65
 721 016a 30F82230 		ldrh	r3, [r0, r2, lsl #2]
 722 016e 9BB2     		uxth	r3, r3
 723 0170 23F4E043 		bic	r3, r3, #28672
 724 0174 23F07003 		bic	r3, r3, #112
 725 0178 43F40043 		orr	r3, r3, #32768
 726 017c 43F0C003 		orr	r3, r3, #192
 727 0180 20F82230 		strh	r3, [r0, r2, lsl #2]	@ movhi
 728              	.L65:
 729 0184 0A78     		ldrb	r2, [r1]	@ zero_extendqisi2
 730 0186 30F82230 		ldrh	r3, [r0, r2, lsl #2]
 731 018a 9BB2     		uxth	r3, r3
 732 018c 23F4E043 		bic	r3, r3, #28672
 733 0190 23F07003 		bic	r3, r3, #112
 734 0194 43F44043 		orr	r3, r3, #49152
 735 0198 43F08003 		orr	r3, r3, #128
 736 019c 20F82230 		strh	r3, [r0, r2, lsl #2]	@ movhi
 737 01a0 0A78     		ldrb	r2, [r1]	@ zero_extendqisi2
 738 01a2 30F82230 		ldrh	r3, [r0, r2, lsl #2]
 739 01a6 9BB2     		uxth	r3, r3
 740 01a8 23F4E043 		bic	r3, r3, #28672
 741 01ac 23F04003 		bic	r3, r3, #64
 742 01b0 48F2800C 		movw	ip, #32896
 743 01b4 43EA0C03 		orr	r3, r3, ip
 744 01b8 20F82230 		strh	r3, [r0, r2, lsl #2]	@ movhi
 745 01bc 0A78     		ldrb	r2, [r1]	@ zero_extendqisi2
 746 01be 30F82230 		ldrh	r3, [r0, r2, lsl #2]
 747 01c2 9BB2     		uxth	r3, r3
 748 01c4 23F48043 		bic	r3, r3, #16384
 749 01c8 23F07003 		bic	r3, r3, #112
 750 01cc 43EA0C03 		orr	r3, r3, ip
 751 01d0 20F82230 		strh	r3, [r0, r2, lsl #2]	@ movhi
 752 01d4 3AE7     		b	.L59
 754              		.section	.text.USB_EPSetStall,"ax",%progbits
 755              		.align	1
 756              		.global	USB_EPSetStall
 757              		.syntax unified
 758              		.thumb
 759              		.thumb_func
ARM GAS  C:\Users\Nathan\AppData\Local\Temp\cciUEwnn.s 			page 14


 761              	USB_EPSetStall:
 762              		@ args = 0, pretend = 0, frame = 0
 763              		@ frame_needed = 0, uses_anonymous_args = 0
 764              		@ link register save eliminated.
 765 0000 4B78     		ldrb	r3, [r1, #1]	@ zero_extendqisi2
 766 0002 8BB1     		cbz	r3, .L67
 767 0004 0A78     		ldrb	r2, [r1]	@ zero_extendqisi2
 768 0006 30F82230 		ldrh	r3, [r0, r2, lsl #2]
 769 000a 9BB2     		uxth	r3, r3
 770 000c 23F4E043 		bic	r3, r3, #28672
 771 0010 23F04003 		bic	r3, r3, #64
 772 0014 83F01003 		eor	r3, r3, #16
 773 0018 43F40043 		orr	r3, r3, #32768
 774 001c 43F08003 		orr	r3, r3, #128
 775 0020 20F82230 		strh	r3, [r0, r2, lsl #2]	@ movhi
 776              	.L68:
 777 0024 0020     		movs	r0, #0
 778 0026 7047     		bx	lr
 779              	.L67:
 780 0028 0A78     		ldrb	r2, [r1]	@ zero_extendqisi2
 781 002a 30F82230 		ldrh	r3, [r0, r2, lsl #2]
 782 002e 9BB2     		uxth	r3, r3
 783 0030 23F48043 		bic	r3, r3, #16384
 784 0034 23F07003 		bic	r3, r3, #112
 785 0038 83F48053 		eor	r3, r3, #4096
 786 003c 43F40043 		orr	r3, r3, #32768
 787 0040 43F08003 		orr	r3, r3, #128
 788 0044 20F82230 		strh	r3, [r0, r2, lsl #2]	@ movhi
 789 0048 ECE7     		b	.L68
 791              		.section	.text.USB_EPClearStall,"ax",%progbits
 792              		.align	1
 793              		.global	USB_EPClearStall
 794              		.syntax unified
 795              		.thumb
 796              		.thumb_func
 798              	USB_EPClearStall:
 799              		@ args = 0, pretend = 0, frame = 0
 800              		@ frame_needed = 0, uses_anonymous_args = 0
 801              		@ link register save eliminated.
 802 0000 4B78     		ldrb	r3, [r1, #1]	@ zero_extendqisi2
 803 0002 33B3     		cbz	r3, .L70
 804 0004 0A78     		ldrb	r2, [r1]	@ zero_extendqisi2
 805 0006 30F82230 		ldrh	r3, [r0, r2, lsl #2]
 806 000a 13F0400F 		tst	r3, #64
 807 000e 0CD0     		beq	.L71
 808 0010 30F82230 		ldrh	r3, [r0, r2, lsl #2]
 809 0014 9BB2     		uxth	r3, r3
 810 0016 23F4E043 		bic	r3, r3, #28672
 811 001a 23F07003 		bic	r3, r3, #112
 812 001e 43F40043 		orr	r3, r3, #32768
 813 0022 43F0C003 		orr	r3, r3, #192
 814 0026 20F82230 		strh	r3, [r0, r2, lsl #2]	@ movhi
 815              	.L71:
 816 002a CB78     		ldrb	r3, [r1, #3]	@ zero_extendqisi2
 817 002c 012B     		cmp	r3, #1
 818 002e 33D0     		beq	.L72
 819 0030 0A78     		ldrb	r2, [r1]	@ zero_extendqisi2
ARM GAS  C:\Users\Nathan\AppData\Local\Temp\cciUEwnn.s 			page 15


 820 0032 30F82230 		ldrh	r3, [r0, r2, lsl #2]
 821 0036 9BB2     		uxth	r3, r3
 822 0038 23F4E043 		bic	r3, r3, #28672
 823 003c 23F04003 		bic	r3, r3, #64
 824 0040 83F02003 		eor	r3, r3, #32
 825 0044 43F40043 		orr	r3, r3, #32768
 826 0048 43F08003 		orr	r3, r3, #128
 827 004c 20F82230 		strh	r3, [r0, r2, lsl #2]	@ movhi
 828 0050 22E0     		b	.L72
 829              	.L70:
 830 0052 0A78     		ldrb	r2, [r1]	@ zero_extendqisi2
 831 0054 30F82230 		ldrh	r3, [r0, r2, lsl #2]
 832 0058 13F4804F 		tst	r3, #16384
 833 005c 0CD0     		beq	.L73
 834 005e 30F82230 		ldrh	r3, [r0, r2, lsl #2]
 835 0062 9BB2     		uxth	r3, r3
 836 0064 23F4E043 		bic	r3, r3, #28672
 837 0068 23F07003 		bic	r3, r3, #112
 838 006c 43F44043 		orr	r3, r3, #49152
 839 0070 43F08003 		orr	r3, r3, #128
 840 0074 20F82230 		strh	r3, [r0, r2, lsl #2]	@ movhi
 841              	.L73:
 842 0078 0A78     		ldrb	r2, [r1]	@ zero_extendqisi2
 843 007a 30F82230 		ldrh	r3, [r0, r2, lsl #2]
 844 007e 9BB2     		uxth	r3, r3
 845 0080 23F48043 		bic	r3, r3, #16384
 846 0084 23F07003 		bic	r3, r3, #112
 847 0088 83F44053 		eor	r3, r3, #12288
 848 008c 43F40043 		orr	r3, r3, #32768
 849 0090 43F08003 		orr	r3, r3, #128
 850 0094 20F82230 		strh	r3, [r0, r2, lsl #2]	@ movhi
 851              	.L72:
 852 0098 0020     		movs	r0, #0
 853 009a 7047     		bx	lr
 855              		.section	.text.USB_EPStopXfer,"ax",%progbits
 856              		.align	1
 857              		.global	USB_EPStopXfer
 858              		.syntax unified
 859              		.thumb
 860              		.thumb_func
 862              	USB_EPStopXfer:
 863              		@ args = 0, pretend = 0, frame = 0
 864              		@ frame_needed = 0, uses_anonymous_args = 0
 865              		@ link register save eliminated.
 866 0000 4B78     		ldrb	r3, [r1, #1]	@ zero_extendqisi2
 867 0002 012B     		cmp	r3, #1
 868 0004 16D0     		beq	.L79
 869 0006 0B7B     		ldrb	r3, [r1, #12]	@ zero_extendqisi2
 870 0008 93B9     		cbnz	r3, .L76
 871 000a CB78     		ldrb	r3, [r1, #3]	@ zero_extendqisi2
 872 000c 012B     		cmp	r3, #1
 873 000e 37D0     		beq	.L78
 874 0010 0A78     		ldrb	r2, [r1]	@ zero_extendqisi2
 875 0012 30F82230 		ldrh	r3, [r0, r2, lsl #2]
 876 0016 9BB2     		uxth	r3, r3
 877 0018 23F48043 		bic	r3, r3, #16384
 878 001c 23F07003 		bic	r3, r3, #112
ARM GAS  C:\Users\Nathan\AppData\Local\Temp\cciUEwnn.s 			page 16


 879 0020 83F40053 		eor	r3, r3, #8192
 880 0024 43F40043 		orr	r3, r3, #32768
 881 0028 43F08003 		orr	r3, r3, #128
 882 002c 20F82230 		strh	r3, [r0, r2, lsl #2]	@ movhi
 883              	.L76:
 884 0030 0020     		movs	r0, #0
 885 0032 7047     		bx	lr
 886              	.L79:
 887 0034 0B7B     		ldrb	r3, [r1, #12]	@ zero_extendqisi2
 888 0036 002B     		cmp	r3, #0
 889 0038 FAD1     		bne	.L76
 890 003a CB78     		ldrb	r3, [r1, #3]	@ zero_extendqisi2
 891 003c 012B     		cmp	r3, #1
 892 003e 10D0     		beq	.L77
 893 0040 0A78     		ldrb	r2, [r1]	@ zero_extendqisi2
 894 0042 30F82230 		ldrh	r3, [r0, r2, lsl #2]
 895 0046 9BB2     		uxth	r3, r3
 896 0048 23F4E043 		bic	r3, r3, #28672
 897 004c 23F04003 		bic	r3, r3, #64
 898 0050 83F02003 		eor	r3, r3, #32
 899 0054 43F40043 		orr	r3, r3, #32768
 900 0058 43F08003 		orr	r3, r3, #128
 901 005c 20F82230 		strh	r3, [r0, r2, lsl #2]	@ movhi
 902 0060 E6E7     		b	.L76
 903              	.L77:
 904 0062 0A78     		ldrb	r2, [r1]	@ zero_extendqisi2
 905 0064 30F82230 		ldrh	r3, [r0, r2, lsl #2]
 906 0068 9BB2     		uxth	r3, r3
 907 006a 23F4E043 		bic	r3, r3, #28672
 908 006e 23F04003 		bic	r3, r3, #64
 909 0072 43F40043 		orr	r3, r3, #32768
 910 0076 43F08003 		orr	r3, r3, #128
 911 007a 20F82230 		strh	r3, [r0, r2, lsl #2]	@ movhi
 912 007e D7E7     		b	.L76
 913              	.L78:
 914 0080 0A78     		ldrb	r2, [r1]	@ zero_extendqisi2
 915 0082 30F82230 		ldrh	r3, [r0, r2, lsl #2]
 916 0086 9BB2     		uxth	r3, r3
 917 0088 23F48043 		bic	r3, r3, #16384
 918 008c 23F07003 		bic	r3, r3, #112
 919 0090 43F40043 		orr	r3, r3, #32768
 920 0094 43F08003 		orr	r3, r3, #128
 921 0098 20F82230 		strh	r3, [r0, r2, lsl #2]	@ movhi
 922 009c C8E7     		b	.L76
 924              		.section	.text.USB_StopDevice,"ax",%progbits
 925              		.align	1
 926              		.global	USB_StopDevice
 927              		.syntax unified
 928              		.thumb
 929              		.thumb_func
 931              	USB_StopDevice:
 932              		@ args = 0, pretend = 0, frame = 0
 933              		@ frame_needed = 0, uses_anonymous_args = 0
 934              		@ link register save eliminated.
 935 0000 0346     		mov	r3, r0
 936 0002 0122     		movs	r2, #1
 937 0004 A0F84020 		strh	r2, [r0, #64]	@ movhi
ARM GAS  C:\Users\Nathan\AppData\Local\Temp\cciUEwnn.s 			page 17


 938 0008 0020     		movs	r0, #0
 939 000a A3F84400 		strh	r0, [r3, #68]	@ movhi
 940 000e 0322     		movs	r2, #3
 941 0010 A3F84020 		strh	r2, [r3, #64]	@ movhi
 942 0014 7047     		bx	lr
 944              		.section	.text.USB_SetDevAddress,"ax",%progbits
 945              		.align	1
 946              		.global	USB_SetDevAddress
 947              		.syntax unified
 948              		.thumb
 949              		.thumb_func
 951              	USB_SetDevAddress:
 952              		@ args = 0, pretend = 0, frame = 0
 953              		@ frame_needed = 0, uses_anonymous_args = 0
 954              		@ link register save eliminated.
 955 0000 11B9     		cbnz	r1, .L82
 956 0002 8023     		movs	r3, #128
 957 0004 A0F84C30 		strh	r3, [r0, #76]	@ movhi
 958              	.L82:
 959 0008 0020     		movs	r0, #0
 960 000a 7047     		bx	lr
 962              		.section	.text.USB_DevConnect,"ax",%progbits
 963              		.align	1
 964              		.global	USB_DevConnect
 965              		.syntax unified
 966              		.thumb
 967              		.thumb_func
 969              	USB_DevConnect:
 970              		@ args = 0, pretend = 0, frame = 0
 971              		@ frame_needed = 0, uses_anonymous_args = 0
 972              		@ link register save eliminated.
 973 0000 B0F85830 		ldrh	r3, [r0, #88]
 974 0004 6FEA4343 		mvn	r3, r3, lsl #17
 975 0008 6FEA5343 		mvn	r3, r3, lsr #17
 976 000c 9BB2     		uxth	r3, r3
 977 000e A0F85830 		strh	r3, [r0, #88]	@ movhi
 978 0012 0020     		movs	r0, #0
 979 0014 7047     		bx	lr
 981              		.section	.text.USB_DevDisconnect,"ax",%progbits
 982              		.align	1
 983              		.global	USB_DevDisconnect
 984              		.syntax unified
 985              		.thumb
 986              		.thumb_func
 988              	USB_DevDisconnect:
 989              		@ args = 0, pretend = 0, frame = 0
 990              		@ frame_needed = 0, uses_anonymous_args = 0
 991              		@ link register save eliminated.
 992 0000 B0F85830 		ldrh	r3, [r0, #88]
 993 0004 C3F30E03 		ubfx	r3, r3, #0, #15
 994 0008 A0F85830 		strh	r3, [r0, #88]	@ movhi
 995 000c 0020     		movs	r0, #0
 996 000e 7047     		bx	lr
 998              		.section	.text.USB_ReadInterrupts,"ax",%progbits
 999              		.align	1
 1000              		.global	USB_ReadInterrupts
 1001              		.syntax unified
ARM GAS  C:\Users\Nathan\AppData\Local\Temp\cciUEwnn.s 			page 18


 1002              		.thumb
 1003              		.thumb_func
 1005              	USB_ReadInterrupts:
 1006              		@ args = 0, pretend = 0, frame = 0
 1007              		@ frame_needed = 0, uses_anonymous_args = 0
 1008              		@ link register save eliminated.
 1009 0000 B0F84400 		ldrh	r0, [r0, #68]
 1010 0004 80B2     		uxth	r0, r0
 1011 0006 7047     		bx	lr
 1013              		.section	.text.USB_ActivateRemoteWakeup,"ax",%progbits
 1014              		.align	1
 1015              		.global	USB_ActivateRemoteWakeup
 1016              		.syntax unified
 1017              		.thumb
 1018              		.thumb_func
 1020              	USB_ActivateRemoteWakeup:
 1021              		@ args = 0, pretend = 0, frame = 0
 1022              		@ frame_needed = 0, uses_anonymous_args = 0
 1023              		@ link register save eliminated.
 1024 0000 B0F84030 		ldrh	r3, [r0, #64]
 1025 0004 9BB2     		uxth	r3, r3
 1026 0006 43F01003 		orr	r3, r3, #16
 1027 000a A0F84030 		strh	r3, [r0, #64]	@ movhi
 1028 000e 0020     		movs	r0, #0
 1029 0010 7047     		bx	lr
 1031              		.section	.text.USB_DeActivateRemoteWakeup,"ax",%progbits
 1032              		.align	1
 1033              		.global	USB_DeActivateRemoteWakeup
 1034              		.syntax unified
 1035              		.thumb
 1036              		.thumb_func
 1038              	USB_DeActivateRemoteWakeup:
 1039              		@ args = 0, pretend = 0, frame = 0
 1040              		@ frame_needed = 0, uses_anonymous_args = 0
 1041              		@ link register save eliminated.
 1042 0000 B0F84030 		ldrh	r3, [r0, #64]
 1043 0004 9BB2     		uxth	r3, r3
 1044 0006 23F01003 		bic	r3, r3, #16
 1045 000a 9BB2     		uxth	r3, r3
 1046 000c A0F84030 		strh	r3, [r0, #64]	@ movhi
 1047 0010 0020     		movs	r0, #0
 1048 0012 7047     		bx	lr
 1050              		.section	.text.USB_WritePMA,"ax",%progbits
 1051              		.align	1
 1052              		.global	USB_WritePMA
 1053              		.syntax unified
 1054              		.thumb
 1055              		.thumb_func
 1057              	USB_WritePMA:
 1058              		@ args = 0, pretend = 0, frame = 0
 1059              		@ frame_needed = 0, uses_anonymous_args = 0
 1060              		@ link register save eliminated.
 1061 0000 0133     		adds	r3, r3, #1
 1062 0002 5B08     		lsrs	r3, r3, #1
 1063 0004 0244     		add	r2, r2, r0
 1064 0006 02F58062 		add	r2, r2, #1024
 1065 000a 08E0     		b	.L89
ARM GAS  C:\Users\Nathan\AppData\Local\Temp\cciUEwnn.s 			page 19


 1066              	.L90:
 1067 000c 0878     		ldrb	r0, [r1]	@ zero_extendqisi2
 1068 000e 91F801C0 		ldrb	ip, [r1, #1]	@ zero_extendqisi2
 1069 0012 40EA0C20 		orr	r0, r0, ip, lsl #8
 1070 0016 22F8020B 		strh	r0, [r2], #2	@ movhi
 1071 001a 0231     		adds	r1, r1, #2
 1072 001c 013B     		subs	r3, r3, #1
 1073              	.L89:
 1074 001e 002B     		cmp	r3, #0
 1075 0020 F4D1     		bne	.L90
 1076 0022 7047     		bx	lr
 1078              		.section	.text.USB_EPStartXfer,"ax",%progbits
 1079              		.align	1
 1080              		.global	USB_EPStartXfer
 1081              		.syntax unified
 1082              		.thumb
 1083              		.thumb_func
 1085              	USB_EPStartXfer:
 1086              		@ args = 0, pretend = 0, frame = 0
 1087              		@ frame_needed = 0, uses_anonymous_args = 0
 1088 0000 70B5     		push	{r4, r5, r6, lr}
 1089 0002 0546     		mov	r5, r0
 1090 0004 0C46     		mov	r4, r1
 1091 0006 4B78     		ldrb	r3, [r1, #1]	@ zero_extendqisi2
 1092 0008 012B     		cmp	r3, #1
 1093 000a 1AD0     		beq	.L150
 1094 000c 0B7B     		ldrb	r3, [r1, #12]	@ zero_extendqisi2
 1095 000e 002B     		cmp	r3, #0
 1096 0010 40F09282 		bne	.L141
 1097 0014 8B69     		ldr	r3, [r1, #24]
 1098 0016 002B     		cmp	r3, #0
 1099 0018 40F06582 		bne	.L142
 1100 001c CB78     		ldrb	r3, [r1, #3]	@ zero_extendqisi2
 1101 001e 002B     		cmp	r3, #0
 1102 0020 40F06182 		bne	.L142
 1103 0024 0A78     		ldrb	r2, [r1]	@ zero_extendqisi2
 1104 0026 30F82230 		ldrh	r3, [r0, r2, lsl #2]
 1105 002a 9BB2     		uxth	r3, r3
 1106 002c 23F4E043 		bic	r3, r3, #28672
 1107 0030 23F07003 		bic	r3, r3, #112
 1108 0034 43F40143 		orr	r3, r3, #33024
 1109 0038 43F08003 		orr	r3, r3, #128
 1110 003c 20F82230 		strh	r3, [r0, r2, lsl #2]	@ movhi
 1111 0040 5FE2     		b	.L143
 1112              	.L150:
 1113 0042 8E69     		ldr	r6, [r1, #24]
 1114 0044 0A69     		ldr	r2, [r1, #16]
 1115 0046 9642     		cmp	r6, r2
 1116 0048 00D9     		bls	.L93
 1117 004a 1646     		mov	r6, r2
 1118              	.L93:
 1119 004c 217B     		ldrb	r1, [r4, #12]	@ zero_extendqisi2
 1120 004e 41B3     		cbz	r1, .L151
 1121 0050 E178     		ldrb	r1, [r4, #3]	@ zero_extendqisi2
 1122 0052 0229     		cmp	r1, #2
 1123 0054 47D0     		beq	.L152
 1124 0056 226A     		ldr	r2, [r4, #32]
ARM GAS  C:\Users\Nathan\AppData\Local\Temp\cciUEwnn.s 			page 20


 1125 0058 921B     		subs	r2, r2, r6
 1126 005a 2262     		str	r2, [r4, #32]
 1127 005c 2278     		ldrb	r2, [r4]	@ zero_extendqisi2
 1128 005e 35F82210 		ldrh	r1, [r5, r2, lsl #2]
 1129 0062 11F0400F 		tst	r1, #64
 1130 0066 00F0F681 		beq	.L127
 1131 006a 002B     		cmp	r3, #0
 1132 006c 40F0E381 		bne	.L128
 1133 0070 B5F85030 		ldrh	r3, [r5, #80]
 1134 0074 15FA83F3 		uxtah	r3, r5, r3
 1135 0078 03EBC202 		add	r2, r3, r2, lsl #3
 1136 007c B2F80634 		ldrh	r3, [r2, #1030]
 1137 0080 C3F30903 		ubfx	r3, r3, #0, #10
 1138 0084 A2F80634 		strh	r3, [r2, #1030]	@ movhi
 1139 0088 002E     		cmp	r6, #0
 1140 008a 40F0B481 		bne	.L129
 1141 008e B2F80634 		ldrh	r3, [r2, #1030]
 1142 0092 6FEA4343 		mvn	r3, r3, lsl #17
 1143 0096 6FEA5343 		mvn	r3, r3, lsr #17
 1144 009a 9BB2     		uxth	r3, r3
 1145 009c A2F80634 		strh	r3, [r2, #1030]	@ movhi
 1146 00a0 D2E1     		b	.L130
 1147              	.L151:
 1148 00a2 B6B2     		uxth	r6, r6
 1149 00a4 3346     		mov	r3, r6
 1150 00a6 E288     		ldrh	r2, [r4, #6]
 1151 00a8 6169     		ldr	r1, [r4, #20]
 1152 00aa 2846     		mov	r0, r5
 1153 00ac FFF7FEFF 		bl	USB_WritePMA
 1154 00b0 B5F85030 		ldrh	r3, [r5, #80]
 1155 00b4 15FA83F3 		uxtah	r3, r5, r3
 1156 00b8 2278     		ldrb	r2, [r4]	@ zero_extendqisi2
 1157 00ba 03EBC203 		add	r3, r3, r2, lsl #3
 1158 00be A3F80264 		strh	r6, [r3, #1026]	@ movhi
 1159              	.L95:
 1160 00c2 2278     		ldrb	r2, [r4]	@ zero_extendqisi2
 1161 00c4 35F82230 		ldrh	r3, [r5, r2, lsl #2]
 1162 00c8 9BB2     		uxth	r3, r3
 1163 00ca 23F4E043 		bic	r3, r3, #28672
 1164 00ce 23F04003 		bic	r3, r3, #64
 1165 00d2 83F03003 		eor	r3, r3, #48
 1166 00d6 43F40043 		orr	r3, r3, #32768
 1167 00da 43F08003 		orr	r3, r3, #128
 1168 00de 25F82230 		strh	r3, [r5, r2, lsl #2]	@ movhi
 1169 00e2 0020     		movs	r0, #0
 1170 00e4 24E2     		b	.L140
 1171              	.L152:
 1172 00e6 236A     		ldr	r3, [r4, #32]
 1173 00e8 9A42     		cmp	r2, r3
 1174 00ea 80F06681 		bcs	.L97
 1175 00ee 2278     		ldrb	r2, [r4]	@ zero_extendqisi2
 1176 00f0 35F82230 		ldrh	r3, [r5, r2, lsl #2]
 1177 00f4 9BB2     		uxth	r3, r3
 1178 00f6 23F4E043 		bic	r3, r3, #28672
 1179 00fa 23F07003 		bic	r3, r3, #112
 1180 00fe 43F40143 		orr	r3, r3, #33024
 1181 0102 43F08003 		orr	r3, r3, #128
ARM GAS  C:\Users\Nathan\AppData\Local\Temp\cciUEwnn.s 			page 21


 1182 0106 25F82230 		strh	r3, [r5, r2, lsl #2]	@ movhi
 1183 010a 236A     		ldr	r3, [r4, #32]
 1184 010c 9B1B     		subs	r3, r3, r6
 1185 010e 2362     		str	r3, [r4, #32]
 1186 0110 2378     		ldrb	r3, [r4]	@ zero_extendqisi2
 1187 0112 35F82320 		ldrh	r2, [r5, r3, lsl #2]
 1188 0116 12F0400F 		tst	r2, #64
 1189 011a 00F0A780 		beq	.L98
 1190 011e 6278     		ldrb	r2, [r4, #1]	@ zero_extendqisi2
 1191 0120 B2BB     		cbnz	r2, .L99
 1192 0122 B5F85020 		ldrh	r2, [r5, #80]
 1193 0126 15FA82F2 		uxtah	r2, r5, r2
 1194 012a 02EBC303 		add	r3, r2, r3, lsl #3
 1195 012e B3F80624 		ldrh	r2, [r3, #1030]
 1196 0132 C2F30902 		ubfx	r2, r2, #0, #10
 1197 0136 A3F80624 		strh	r2, [r3, #1030]	@ movhi
 1198 013a 4EB9     		cbnz	r6, .L100
 1199 013c B3F80624 		ldrh	r2, [r3, #1030]
 1200 0140 6FEA4242 		mvn	r2, r2, lsl #17
 1201 0144 6FEA5242 		mvn	r2, r2, lsr #17
 1202 0148 92B2     		uxth	r2, r2
 1203 014a A3F80624 		strh	r2, [r3, #1030]	@ movhi
 1204 014e 21E0     		b	.L101
 1205              	.L100:
 1206 0150 3E2E     		cmp	r6, #62
 1207 0152 0DD8     		bhi	.L102
 1208 0154 7208     		lsrs	r2, r6, #1
 1209 0156 16F0010F 		tst	r6, #1
 1210 015a 00D0     		beq	.L103
 1211 015c 0132     		adds	r2, r2, #1
 1212              	.L103:
 1213 015e B3F80614 		ldrh	r1, [r3, #1030]
 1214 0162 89B2     		uxth	r1, r1
 1215 0164 9202     		lsls	r2, r2, #10
 1216 0166 92B2     		uxth	r2, r2
 1217 0168 0A43     		orrs	r2, r2, r1
 1218 016a A3F80624 		strh	r2, [r3, #1030]	@ movhi
 1219 016e 11E0     		b	.L101
 1220              	.L102:
 1221 0170 7109     		lsrs	r1, r6, #5
 1222 0172 16F01F0F 		tst	r6, #31
 1223 0176 00D1     		bne	.L104
 1224 0178 0139     		subs	r1, r1, #1
 1225              	.L104:
 1226 017a B3F80624 		ldrh	r2, [r3, #1030]
 1227 017e 92B2     		uxth	r2, r2
 1228 0180 8902     		lsls	r1, r1, #10
 1229 0182 89B2     		uxth	r1, r1
 1230 0184 0A43     		orrs	r2, r2, r1
 1231 0186 42F40042 		orr	r2, r2, #32768
 1232 018a A3F80624 		strh	r2, [r3, #1030]	@ movhi
 1233 018e 01E0     		b	.L101
 1234              	.L99:
 1235 0190 012A     		cmp	r2, #1
 1236 0192 29D0     		beq	.L153
 1237              	.L101:
 1238 0194 B3B2     		uxth	r3, r6
ARM GAS  C:\Users\Nathan\AppData\Local\Temp\cciUEwnn.s 			page 22


 1239 0196 6289     		ldrh	r2, [r4, #10]
 1240 0198 6169     		ldr	r1, [r4, #20]
 1241 019a 2846     		mov	r0, r5
 1242 019c FFF7FEFF 		bl	USB_WritePMA
 1243 01a0 6369     		ldr	r3, [r4, #20]
 1244 01a2 3344     		add	r3, r3, r6
 1245 01a4 6361     		str	r3, [r4, #20]
 1246 01a6 236A     		ldr	r3, [r4, #32]
 1247 01a8 2269     		ldr	r2, [r4, #16]
 1248 01aa 9342     		cmp	r3, r2
 1249 01ac 26D9     		bls	.L105
 1250 01ae 9B1B     		subs	r3, r3, r6
 1251 01b0 2362     		str	r3, [r4, #32]
 1252              	.L106:
 1253 01b2 6378     		ldrb	r3, [r4, #1]	@ zero_extendqisi2
 1254 01b4 002B     		cmp	r3, #0
 1255 01b6 45D1     		bne	.L107
 1256 01b8 B5F85030 		ldrh	r3, [r5, #80]
 1257 01bc 15FA83F3 		uxtah	r3, r5, r3
 1258 01c0 2278     		ldrb	r2, [r4]	@ zero_extendqisi2
 1259 01c2 03EBC203 		add	r3, r3, r2, lsl #3
 1260 01c6 B3F80224 		ldrh	r2, [r3, #1026]
 1261 01ca C2F30902 		ubfx	r2, r2, #0, #10
 1262 01ce A3F80224 		strh	r2, [r3, #1026]	@ movhi
 1263 01d2 BEB9     		cbnz	r6, .L108
 1264 01d4 B3F80224 		ldrh	r2, [r3, #1026]
 1265 01d8 6FEA4242 		mvn	r2, r2, lsl #17
 1266 01dc 6FEA5242 		mvn	r2, r2, lsr #17
 1267 01e0 92B2     		uxth	r2, r2
 1268 01e2 A3F80224 		strh	r2, [r3, #1026]	@ movhi
 1269 01e6 2FE0     		b	.L109
 1270              	.L153:
 1271 01e8 B5F85020 		ldrh	r2, [r5, #80]
 1272 01ec 15FA82F2 		uxtah	r2, r5, r2
 1273 01f0 02EBC303 		add	r3, r2, r3, lsl #3
 1274 01f4 B2B2     		uxth	r2, r6
 1275 01f6 A3F80624 		strh	r2, [r3, #1030]	@ movhi
 1276 01fa CBE7     		b	.L101
 1277              	.L105:
 1278 01fc 0022     		movs	r2, #0
 1279 01fe 2262     		str	r2, [r4, #32]
 1280 0200 1E46     		mov	r6, r3
 1281 0202 D6E7     		b	.L106
 1282              	.L108:
 1283 0204 3E2E     		cmp	r6, #62
 1284 0206 0DD8     		bhi	.L110
 1285 0208 7208     		lsrs	r2, r6, #1
 1286 020a 16F0010F 		tst	r6, #1
 1287 020e 00D0     		beq	.L111
 1288 0210 0132     		adds	r2, r2, #1
 1289              	.L111:
 1290 0212 B3F80214 		ldrh	r1, [r3, #1026]
 1291 0216 89B2     		uxth	r1, r1
 1292 0218 9202     		lsls	r2, r2, #10
 1293 021a 92B2     		uxth	r2, r2
 1294 021c 0A43     		orrs	r2, r2, r1
 1295 021e A3F80224 		strh	r2, [r3, #1026]	@ movhi
ARM GAS  C:\Users\Nathan\AppData\Local\Temp\cciUEwnn.s 			page 23


 1296 0222 11E0     		b	.L109
 1297              	.L110:
 1298 0224 7109     		lsrs	r1, r6, #5
 1299 0226 16F01F0F 		tst	r6, #31
 1300 022a 00D1     		bne	.L112
 1301 022c 0139     		subs	r1, r1, #1
 1302              	.L112:
 1303 022e B3F80224 		ldrh	r2, [r3, #1026]
 1304 0232 92B2     		uxth	r2, r2
 1305 0234 8902     		lsls	r1, r1, #10
 1306 0236 89B2     		uxth	r1, r1
 1307 0238 0A43     		orrs	r2, r2, r1
 1308 023a 42F40042 		orr	r2, r2, #32768
 1309 023e A3F80224 		strh	r2, [r3, #1026]	@ movhi
 1310 0242 01E0     		b	.L109
 1311              	.L107:
 1312 0244 012B     		cmp	r3, #1
 1313 0246 06D0     		beq	.L154
 1314              	.L109:
 1315 0248 B3B2     		uxth	r3, r6
 1316 024a 2289     		ldrh	r2, [r4, #8]
 1317 024c 6169     		ldr	r1, [r4, #20]
 1318 024e 2846     		mov	r0, r5
 1319 0250 FFF7FEFF 		bl	USB_WritePMA
 1320 0254 35E7     		b	.L95
 1321              	.L154:
 1322 0256 B5F85030 		ldrh	r3, [r5, #80]
 1323 025a 15FA83F3 		uxtah	r3, r5, r3
 1324 025e 2278     		ldrb	r2, [r4]	@ zero_extendqisi2
 1325 0260 03EBC203 		add	r3, r3, r2, lsl #3
 1326 0264 B2B2     		uxth	r2, r6
 1327 0266 A3F80224 		strh	r2, [r3, #1026]	@ movhi
 1328 026a EDE7     		b	.L109
 1329              	.L98:
 1330 026c 6278     		ldrb	r2, [r4, #1]	@ zero_extendqisi2
 1331 026e B2BB     		cbnz	r2, .L113
 1332 0270 B5F85020 		ldrh	r2, [r5, #80]
 1333 0274 15FA82F2 		uxtah	r2, r5, r2
 1334 0278 02EBC303 		add	r3, r2, r3, lsl #3
 1335 027c B3F80224 		ldrh	r2, [r3, #1026]
 1336 0280 C2F30902 		ubfx	r2, r2, #0, #10
 1337 0284 A3F80224 		strh	r2, [r3, #1026]	@ movhi
 1338 0288 4EB9     		cbnz	r6, .L114
 1339 028a B3F80224 		ldrh	r2, [r3, #1026]
 1340 028e 6FEA4242 		mvn	r2, r2, lsl #17
 1341 0292 6FEA5242 		mvn	r2, r2, lsr #17
 1342 0296 92B2     		uxth	r2, r2
 1343 0298 A3F80224 		strh	r2, [r3, #1026]	@ movhi
 1344 029c 21E0     		b	.L115
 1345              	.L114:
 1346 029e 3E2E     		cmp	r6, #62
 1347 02a0 0DD8     		bhi	.L116
 1348 02a2 7208     		lsrs	r2, r6, #1
 1349 02a4 16F0010F 		tst	r6, #1
 1350 02a8 00D0     		beq	.L117
 1351 02aa 0132     		adds	r2, r2, #1
 1352              	.L117:
ARM GAS  C:\Users\Nathan\AppData\Local\Temp\cciUEwnn.s 			page 24


 1353 02ac B3F80214 		ldrh	r1, [r3, #1026]
 1354 02b0 89B2     		uxth	r1, r1
 1355 02b2 9202     		lsls	r2, r2, #10
 1356 02b4 92B2     		uxth	r2, r2
 1357 02b6 0A43     		orrs	r2, r2, r1
 1358 02b8 A3F80224 		strh	r2, [r3, #1026]	@ movhi
 1359 02bc 11E0     		b	.L115
 1360              	.L116:
 1361 02be 7109     		lsrs	r1, r6, #5
 1362 02c0 16F01F0F 		tst	r6, #31
 1363 02c4 00D1     		bne	.L118
 1364 02c6 0139     		subs	r1, r1, #1
 1365              	.L118:
 1366 02c8 B3F80224 		ldrh	r2, [r3, #1026]
 1367 02cc 92B2     		uxth	r2, r2
 1368 02ce 8902     		lsls	r1, r1, #10
 1369 02d0 89B2     		uxth	r1, r1
 1370 02d2 0A43     		orrs	r2, r2, r1
 1371 02d4 42F40042 		orr	r2, r2, #32768
 1372 02d8 A3F80224 		strh	r2, [r3, #1026]	@ movhi
 1373 02dc 01E0     		b	.L115
 1374              	.L113:
 1375 02de 012A     		cmp	r2, #1
 1376 02e0 29D0     		beq	.L155
 1377              	.L115:
 1378 02e2 B3B2     		uxth	r3, r6
 1379 02e4 2289     		ldrh	r2, [r4, #8]
 1380 02e6 6169     		ldr	r1, [r4, #20]
 1381 02e8 2846     		mov	r0, r5
 1382 02ea FFF7FEFF 		bl	USB_WritePMA
 1383 02ee 6369     		ldr	r3, [r4, #20]
 1384 02f0 3344     		add	r3, r3, r6
 1385 02f2 6361     		str	r3, [r4, #20]
 1386 02f4 236A     		ldr	r3, [r4, #32]
 1387 02f6 2269     		ldr	r2, [r4, #16]
 1388 02f8 9342     		cmp	r3, r2
 1389 02fa 26D9     		bls	.L119
 1390 02fc 9B1B     		subs	r3, r3, r6
 1391 02fe 2362     		str	r3, [r4, #32]
 1392              	.L120:
 1393 0300 6378     		ldrb	r3, [r4, #1]	@ zero_extendqisi2
 1394 0302 002B     		cmp	r3, #0
 1395 0304 45D1     		bne	.L121
 1396 0306 B5F85030 		ldrh	r3, [r5, #80]
 1397 030a 15FA83F3 		uxtah	r3, r5, r3
 1398 030e 2278     		ldrb	r2, [r4]	@ zero_extendqisi2
 1399 0310 03EBC203 		add	r3, r3, r2, lsl #3
 1400 0314 B3F80624 		ldrh	r2, [r3, #1030]
 1401 0318 C2F30902 		ubfx	r2, r2, #0, #10
 1402 031c A3F80624 		strh	r2, [r3, #1030]	@ movhi
 1403 0320 BEB9     		cbnz	r6, .L122
 1404 0322 B3F80624 		ldrh	r2, [r3, #1030]
 1405 0326 6FEA4242 		mvn	r2, r2, lsl #17
 1406 032a 6FEA5242 		mvn	r2, r2, lsr #17
 1407 032e 92B2     		uxth	r2, r2
 1408 0330 A3F80624 		strh	r2, [r3, #1030]	@ movhi
 1409 0334 2FE0     		b	.L123
ARM GAS  C:\Users\Nathan\AppData\Local\Temp\cciUEwnn.s 			page 25


 1410              	.L155:
 1411 0336 B5F85020 		ldrh	r2, [r5, #80]
 1412 033a 15FA82F2 		uxtah	r2, r5, r2
 1413 033e 02EBC303 		add	r3, r2, r3, lsl #3
 1414 0342 B2B2     		uxth	r2, r6
 1415 0344 A3F80224 		strh	r2, [r3, #1026]	@ movhi
 1416 0348 CBE7     		b	.L115
 1417              	.L119:
 1418 034a 0022     		movs	r2, #0
 1419 034c 2262     		str	r2, [r4, #32]
 1420 034e 1E46     		mov	r6, r3
 1421 0350 D6E7     		b	.L120
 1422              	.L122:
 1423 0352 3E2E     		cmp	r6, #62
 1424 0354 0DD8     		bhi	.L124
 1425 0356 7208     		lsrs	r2, r6, #1
 1426 0358 16F0010F 		tst	r6, #1
 1427 035c 00D0     		beq	.L125
 1428 035e 0132     		adds	r2, r2, #1
 1429              	.L125:
 1430 0360 B3F80614 		ldrh	r1, [r3, #1030]
 1431 0364 89B2     		uxth	r1, r1
 1432 0366 9202     		lsls	r2, r2, #10
 1433 0368 92B2     		uxth	r2, r2
 1434 036a 0A43     		orrs	r2, r2, r1
 1435 036c A3F80624 		strh	r2, [r3, #1030]	@ movhi
 1436 0370 11E0     		b	.L123
 1437              	.L124:
 1438 0372 7109     		lsrs	r1, r6, #5
 1439 0374 16F01F0F 		tst	r6, #31
 1440 0378 00D1     		bne	.L126
 1441 037a 0139     		subs	r1, r1, #1
 1442              	.L126:
 1443 037c B3F80624 		ldrh	r2, [r3, #1030]
 1444 0380 92B2     		uxth	r2, r2
 1445 0382 8902     		lsls	r1, r1, #10
 1446 0384 89B2     		uxth	r1, r1
 1447 0386 0A43     		orrs	r2, r2, r1
 1448 0388 42F40042 		orr	r2, r2, #32768
 1449 038c A3F80624 		strh	r2, [r3, #1030]	@ movhi
 1450 0390 01E0     		b	.L123
 1451              	.L121:
 1452 0392 012B     		cmp	r3, #1
 1453 0394 06D0     		beq	.L156
 1454              	.L123:
 1455 0396 B3B2     		uxth	r3, r6
 1456 0398 6289     		ldrh	r2, [r4, #10]
 1457 039a 6169     		ldr	r1, [r4, #20]
 1458 039c 2846     		mov	r0, r5
 1459 039e FFF7FEFF 		bl	USB_WritePMA
 1460 03a2 8EE6     		b	.L95
 1461              	.L156:
 1462 03a4 B5F85030 		ldrh	r3, [r5, #80]
 1463 03a8 15FA83F3 		uxtah	r3, r5, r3
 1464 03ac 2278     		ldrb	r2, [r4]	@ zero_extendqisi2
 1465 03ae 03EBC203 		add	r3, r3, r2, lsl #3
 1466 03b2 B2B2     		uxth	r2, r6
ARM GAS  C:\Users\Nathan\AppData\Local\Temp\cciUEwnn.s 			page 26


 1467 03b4 A3F80624 		strh	r2, [r3, #1030]	@ movhi
 1468 03b8 EDE7     		b	.L123
 1469              	.L97:
 1470 03ba 2178     		ldrb	r1, [r4]	@ zero_extendqisi2
 1471 03bc 35F82120 		ldrh	r2, [r5, r1, lsl #2]
 1472 03c0 92B2     		uxth	r2, r2
 1473 03c2 22F4E242 		bic	r2, r2, #28928
 1474 03c6 22F07002 		bic	r2, r2, #112
 1475 03ca 42F40042 		orr	r2, r2, #32768
 1476 03ce 42F08002 		orr	r2, r2, #128
 1477 03d2 25F82120 		strh	r2, [r5, r1, lsl #2]	@ movhi
 1478 03d6 B5F85020 		ldrh	r2, [r5, #80]
 1479 03da 15FA82F2 		uxtah	r2, r5, r2
 1480 03de 2178     		ldrb	r1, [r4]	@ zero_extendqisi2
 1481 03e0 02EBC102 		add	r2, r2, r1, lsl #3
 1482 03e4 9BB2     		uxth	r3, r3
 1483 03e6 A2F80234 		strh	r3, [r2, #1026]	@ movhi
 1484 03ea 2289     		ldrh	r2, [r4, #8]
 1485 03ec 6169     		ldr	r1, [r4, #20]
 1486 03ee 2846     		mov	r0, r5
 1487 03f0 FFF7FEFF 		bl	USB_WritePMA
 1488 03f4 65E6     		b	.L95
 1489              	.L129:
 1490 03f6 3E2E     		cmp	r6, #62
 1491 03f8 0DD8     		bhi	.L131
 1492 03fa 7308     		lsrs	r3, r6, #1
 1493 03fc 16F0010F 		tst	r6, #1
 1494 0400 00D0     		beq	.L132
 1495 0402 0133     		adds	r3, r3, #1
 1496              	.L132:
 1497 0404 B2F80614 		ldrh	r1, [r2, #1030]
 1498 0408 89B2     		uxth	r1, r1
 1499 040a 9B02     		lsls	r3, r3, #10
 1500 040c 9BB2     		uxth	r3, r3
 1501 040e 0B43     		orrs	r3, r3, r1
 1502 0410 A2F80634 		strh	r3, [r2, #1030]	@ movhi
 1503 0414 18E0     		b	.L130
 1504              	.L131:
 1505 0416 7109     		lsrs	r1, r6, #5
 1506 0418 16F01F0F 		tst	r6, #31
 1507 041c 00D1     		bne	.L133
 1508 041e 0139     		subs	r1, r1, #1
 1509              	.L133:
 1510 0420 B2F80634 		ldrh	r3, [r2, #1030]
 1511 0424 9BB2     		uxth	r3, r3
 1512 0426 8902     		lsls	r1, r1, #10
 1513 0428 89B2     		uxth	r1, r1
 1514 042a 0B43     		orrs	r3, r3, r1
 1515 042c 43F40043 		orr	r3, r3, #32768
 1516 0430 A2F80634 		strh	r3, [r2, #1030]	@ movhi
 1517 0434 08E0     		b	.L130
 1518              	.L128:
 1519 0436 B5F85030 		ldrh	r3, [r5, #80]
 1520 043a 15FA83F3 		uxtah	r3, r5, r3
 1521 043e 03EBC203 		add	r3, r3, r2, lsl #3
 1522 0442 B2B2     		uxth	r2, r6
 1523 0444 A3F80624 		strh	r2, [r3, #1030]	@ movhi
ARM GAS  C:\Users\Nathan\AppData\Local\Temp\cciUEwnn.s 			page 27


 1524              	.L130:
 1525 0448 B3B2     		uxth	r3, r6
 1526 044a 6289     		ldrh	r2, [r4, #10]
 1527 044c 6169     		ldr	r1, [r4, #20]
 1528 044e 2846     		mov	r0, r5
 1529 0450 FFF7FEFF 		bl	USB_WritePMA
 1530 0454 35E6     		b	.L95
 1531              	.L127:
 1532 0456 B3BB     		cbnz	r3, .L134
 1533 0458 B5F85030 		ldrh	r3, [r5, #80]
 1534 045c 15FA83F3 		uxtah	r3, r5, r3
 1535 0460 03EBC202 		add	r2, r3, r2, lsl #3
 1536 0464 B2F80234 		ldrh	r3, [r2, #1026]
 1537 0468 C3F30903 		ubfx	r3, r3, #0, #10
 1538 046c A2F80234 		strh	r3, [r2, #1026]	@ movhi
 1539 0470 4EB9     		cbnz	r6, .L135
 1540 0472 B2F80234 		ldrh	r3, [r2, #1026]
 1541 0476 6FEA4343 		mvn	r3, r3, lsl #17
 1542 047a 6FEA5343 		mvn	r3, r3, lsr #17
 1543 047e 9BB2     		uxth	r3, r3
 1544 0480 A2F80234 		strh	r3, [r2, #1026]	@ movhi
 1545 0484 28E0     		b	.L136
 1546              	.L135:
 1547 0486 3E2E     		cmp	r6, #62
 1548 0488 0DD8     		bhi	.L137
 1549 048a 7308     		lsrs	r3, r6, #1
 1550 048c 16F0010F 		tst	r6, #1
 1551 0490 00D0     		beq	.L138
 1552 0492 0133     		adds	r3, r3, #1
 1553              	.L138:
 1554 0494 B2F80214 		ldrh	r1, [r2, #1026]
 1555 0498 89B2     		uxth	r1, r1
 1556 049a 9B02     		lsls	r3, r3, #10
 1557 049c 9BB2     		uxth	r3, r3
 1558 049e 0B43     		orrs	r3, r3, r1
 1559 04a0 A2F80234 		strh	r3, [r2, #1026]	@ movhi
 1560 04a4 18E0     		b	.L136
 1561              	.L137:
 1562 04a6 7109     		lsrs	r1, r6, #5
 1563 04a8 16F01F0F 		tst	r6, #31
 1564 04ac 00D1     		bne	.L139
 1565 04ae 0139     		subs	r1, r1, #1
 1566              	.L139:
 1567 04b0 B2F80234 		ldrh	r3, [r2, #1026]
 1568 04b4 9BB2     		uxth	r3, r3
 1569 04b6 8902     		lsls	r1, r1, #10
 1570 04b8 89B2     		uxth	r1, r1
 1571 04ba 0B43     		orrs	r3, r3, r1
 1572 04bc 43F40043 		orr	r3, r3, #32768
 1573 04c0 A2F80234 		strh	r3, [r2, #1026]	@ movhi
 1574 04c4 08E0     		b	.L136
 1575              	.L134:
 1576 04c6 B5F85030 		ldrh	r3, [r5, #80]
 1577 04ca 15FA83F3 		uxtah	r3, r5, r3
 1578 04ce 03EBC203 		add	r3, r3, r2, lsl #3
 1579 04d2 B2B2     		uxth	r2, r6
 1580 04d4 A3F80224 		strh	r2, [r3, #1026]	@ movhi
ARM GAS  C:\Users\Nathan\AppData\Local\Temp\cciUEwnn.s 			page 28


 1581              	.L136:
 1582 04d8 B3B2     		uxth	r3, r6
 1583 04da 2289     		ldrh	r2, [r4, #8]
 1584 04dc 6169     		ldr	r1, [r4, #20]
 1585 04de 2846     		mov	r0, r5
 1586 04e0 FFF7FEFF 		bl	USB_WritePMA
 1587 04e4 EDE5     		b	.L95
 1588              	.L142:
 1589 04e6 2278     		ldrb	r2, [r4]	@ zero_extendqisi2
 1590 04e8 35F82230 		ldrh	r3, [r5, r2, lsl #2]
 1591 04ec 9BB2     		uxth	r3, r3
 1592 04ee 23F4E243 		bic	r3, r3, #28928
 1593 04f2 23F07003 		bic	r3, r3, #112
 1594 04f6 43F40043 		orr	r3, r3, #32768
 1595 04fa 43F08003 		orr	r3, r3, #128
 1596 04fe 25F82230 		strh	r3, [r5, r2, lsl #2]	@ movhi
 1597              	.L143:
 1598 0502 A369     		ldr	r3, [r4, #24]
 1599 0504 2269     		ldr	r2, [r4, #16]
 1600 0506 9342     		cmp	r3, r2
 1601 0508 13D9     		bls	.L144
 1602 050a 9B1A     		subs	r3, r3, r2
 1603 050c A361     		str	r3, [r4, #24]
 1604              	.L145:
 1605 050e 2278     		ldrb	r2, [r4]	@ zero_extendqisi2
 1606 0510 35F82230 		ldrh	r3, [r5, r2, lsl #2]
 1607 0514 9BB2     		uxth	r3, r3
 1608 0516 23F48043 		bic	r3, r3, #16384
 1609 051a 23F07003 		bic	r3, r3, #112
 1610 051e 83F44053 		eor	r3, r3, #12288
 1611 0522 43F40043 		orr	r3, r3, #32768
 1612 0526 43F08003 		orr	r3, r3, #128
 1613 052a 25F82230 		strh	r3, [r5, r2, lsl #2]	@ movhi
 1614 052e 0020     		movs	r0, #0
 1615              	.L140:
 1616 0530 70BD     		pop	{r4, r5, r6, pc}
 1617              	.L144:
 1618 0532 0023     		movs	r3, #0
 1619 0534 A361     		str	r3, [r4, #24]
 1620 0536 EAE7     		b	.L145
 1621              	.L141:
 1622 0538 CB78     		ldrb	r3, [r1, #3]	@ zero_extendqisi2
 1623 053a 022B     		cmp	r3, #2
 1624 053c 04D0     		beq	.L157
 1625 053e 012B     		cmp	r3, #1
 1626 0540 1ED1     		bne	.L148
 1627 0542 0023     		movs	r3, #0
 1628 0544 8B61     		str	r3, [r1, #24]
 1629 0546 E2E7     		b	.L145
 1630              	.L157:
 1631 0548 CB69     		ldr	r3, [r1, #28]
 1632 054a 002B     		cmp	r3, #0
 1633 054c DFD0     		beq	.L145
 1634 054e 0A78     		ldrb	r2, [r1]	@ zero_extendqisi2
 1635 0550 30F82210 		ldrh	r1, [r0, r2, lsl #2]
 1636 0554 44F24003 		movw	r3, #16448
 1637 0558 03EA0100 		and	r0, r3, r1
ARM GAS  C:\Users\Nathan\AppData\Local\Temp\cciUEwnn.s 			page 29


 1638 055c 8B43     		bics	r3, r3, r1
 1639 055e 01D0     		beq	.L147
 1640 0560 0028     		cmp	r0, #0
 1641 0562 D4D1     		bne	.L145
 1642              	.L147:
 1643 0564 35F82230 		ldrh	r3, [r5, r2, lsl #2]
 1644 0568 9BB2     		uxth	r3, r3
 1645 056a 23F4E043 		bic	r3, r3, #28672
 1646 056e 23F07003 		bic	r3, r3, #112
 1647 0572 43F40043 		orr	r3, r3, #32768
 1648 0576 43F0C003 		orr	r3, r3, #192
 1649 057a 25F82230 		strh	r3, [r5, r2, lsl #2]	@ movhi
 1650 057e C6E7     		b	.L145
 1651              	.L148:
 1652 0580 0120     		movs	r0, #1
 1653 0582 D5E7     		b	.L140
 1655              		.section	.text.USB_ReadPMA,"ax",%progbits
 1656              		.align	1
 1657              		.global	USB_ReadPMA
 1658              		.syntax unified
 1659              		.thumb
 1660              		.thumb_func
 1662              	USB_ReadPMA:
 1663              		@ args = 0, pretend = 0, frame = 0
 1664              		@ frame_needed = 0, uses_anonymous_args = 0
 1665              		@ link register save eliminated.
 1666 0000 10B4     		push	{r4}
 1667 0002 5C08     		lsrs	r4, r3, #1
 1668 0004 0244     		add	r2, r2, r0
 1669 0006 02F58062 		add	r2, r2, #1024
 1670 000a 07E0     		b	.L159
 1671              	.L160:
 1672 000c 32F8020B 		ldrh	r0, [r2], #2
 1673 0010 0870     		strb	r0, [r1]
 1674 0012 C0F30720 		ubfx	r0, r0, #8, #8
 1675 0016 4870     		strb	r0, [r1, #1]
 1676 0018 0231     		adds	r1, r1, #2
 1677 001a 013C     		subs	r4, r4, #1
 1678              	.L159:
 1679 001c 002C     		cmp	r4, #0
 1680 001e F5D1     		bne	.L160
 1681 0020 13F0010F 		tst	r3, #1
 1682 0024 01D0     		beq	.L158
 1683 0026 1388     		ldrh	r3, [r2]
 1684 0028 0B70     		strb	r3, [r1]
 1685              	.L158:
 1686 002a 5DF8044B 		ldr	r4, [sp], #4
 1687 002e 7047     		bx	lr
 1689              		.ident	"GCC: (Arm GNU Toolchain 13.3.Rel1 (Build arm-13.24)) 13.3.1 20240614"
ARM GAS  C:\Users\Nathan\AppData\Local\Temp\cciUEwnn.s 			page 30

