ARM GAS  C:\Users\Nathan\AppData\Local\Temp\ccReJxxq.s 			page 1


   1              		.cpu cortex-m4
   2              		.arch armv7e-m
   3              		.fpu fpv4-sp-d16
   4              		.eabi_attribute 27, 1
   5              		.eabi_attribute 28, 1
   6              		.eabi_attribute 20, 1
   7              		.eabi_attribute 21, 1
   8              		.eabi_attribute 23, 3
   9              		.eabi_attribute 24, 1
  10              		.eabi_attribute 25, 1
  11              		.eabi_attribute 26, 1
  12              		.eabi_attribute 30, 1
  13              		.eabi_attribute 34, 1
  14              		.eabi_attribute 18, 4
  15              		.file	"stm32wbxx_hal_flash.c"
  16              		.text
  17              		.section	.text.FLASH_Program_DoubleWord,"ax",%progbits
  18              		.align	1
  19              		.syntax unified
  20              		.thumb
  21              		.thumb_func
  23              	FLASH_Program_DoubleWord:
  24              		@ args = 0, pretend = 0, frame = 0
  25              		@ frame_needed = 0, uses_anonymous_args = 0
  26              		@ link register save eliminated.
  27 0000 10B4     		push	{r4}
  28 0002 064C     		ldr	r4, .L3
  29 0004 6169     		ldr	r1, [r4, #20]
  30 0006 41F00101 		orr	r1, r1, #1
  31 000a 6161     		str	r1, [r4, #20]
  32 000c 0260     		str	r2, [r0]
  33              		.syntax unified
  34              	@ 935 "Drivers/CMSIS/Include/cmsis_gcc.h" 1
  35 000e BFF36F8F 		isb 0xF
  36              	@ 0 "" 2
  37              		.thumb
  38              		.syntax unified
  39 0012 4360     		str	r3, [r0, #4]
  40 0014 5DF8044B 		ldr	r4, [sp], #4
  41 0018 7047     		bx	lr
  42              	.L4:
  43 001a 00BF     		.align	2
  44              	.L3:
  45 001c 00400058 		.word	1476411392
  47              		.section	.RamFunc,"ax",%progbits
  48              		.align	1
  49              		.syntax unified
  50              		.thumb
  51              		.thumb_func
  53              	FLASH_Program_Fast:
  54              		@ args = 0, pretend = 0, frame = 0
  55              		@ frame_needed = 0, uses_anonymous_args = 0
  56              		@ link register save eliminated.
  57 0000 0C4A     		ldr	r2, .L8
  58 0002 5369     		ldr	r3, [r2, #20]
  59 0004 43F48023 		orr	r3, r3, #262144
  60 0008 5361     		str	r3, [r2, #20]
ARM GAS  C:\Users\Nathan\AppData\Local\Temp\ccReJxxq.s 			page 2


  61              		.syntax unified
  62              	@ 453 "Drivers/CMSIS/Include/cmsis_gcc.h" 1
  63 000a EFF3108C 		MRS ip, primask
  64              	@ 0 "" 2
  65              	@ 209 "Drivers/CMSIS/Include/cmsis_gcc.h" 1
  66 000e 72B6     		cpsid i
  67              	@ 0 "" 2
  68              		.thumb
  69              		.syntax unified
  70 0010 8023     		movs	r3, #128
  71              	.L6:
  72 0012 51F8042B 		ldr	r2, [r1], #4
  73 0016 40F8042B 		str	r2, [r0], #4
  74 001a 013B     		subs	r3, r3, #1
  75 001c 13F0FF03 		ands	r3, r3, #255
  76 0020 F7D1     		bne	.L6
  77              	.L7:
  78 0022 044B     		ldr	r3, .L8
  79 0024 1B69     		ldr	r3, [r3, #16]
  80 0026 13F4803F 		tst	r3, #65536
  81 002a FAD1     		bne	.L7
  82              		.syntax unified
  83              	@ 481 "Drivers/CMSIS/Include/cmsis_gcc.h" 1
  84 002c 8CF31088 		MSR primask, ip
  85              	@ 0 "" 2
  86              		.thumb
  87              		.syntax unified
  88 0030 7047     		bx	lr
  89              	.L9:
  90 0032 00BF     		.align	2
  91              	.L8:
  92 0034 00400058 		.word	1476411392
  94              		.section	.text.HAL_FLASH_EndOfOperationCallback,"ax",%progbits
  95              		.align	1
  96              		.weak	HAL_FLASH_EndOfOperationCallback
  97              		.syntax unified
  98              		.thumb
  99              		.thumb_func
 101              	HAL_FLASH_EndOfOperationCallback:
 102              		@ args = 0, pretend = 0, frame = 0
 103              		@ frame_needed = 0, uses_anonymous_args = 0
 104              		@ link register save eliminated.
 105 0000 7047     		bx	lr
 107              		.section	.text.HAL_FLASH_OperationErrorCallback,"ax",%progbits
 108              		.align	1
 109              		.weak	HAL_FLASH_OperationErrorCallback
 110              		.syntax unified
 111              		.thumb
 112              		.thumb_func
 114              	HAL_FLASH_OperationErrorCallback:
 115              		@ args = 0, pretend = 0, frame = 0
 116              		@ frame_needed = 0, uses_anonymous_args = 0
 117              		@ link register save eliminated.
 118 0000 7047     		bx	lr
 120              		.section	.text.HAL_FLASH_IRQHandler,"ax",%progbits
 121              		.align	1
 122              		.global	HAL_FLASH_IRQHandler
ARM GAS  C:\Users\Nathan\AppData\Local\Temp\ccReJxxq.s 			page 3


 123              		.syntax unified
 124              		.thumb
 125              		.thumb_func
 127              	HAL_FLASH_IRQHandler:
 128              		@ args = 0, pretend = 0, frame = 0
 129              		@ frame_needed = 0, uses_anonymous_args = 0
 130 0000 10B5     		push	{r4, lr}
 131 0002 2B4A     		ldr	r2, .L26
 132 0004 1369     		ldr	r3, [r2, #16]
 133 0006 23F47053 		bic	r3, r3, #15360
 134 000a 23F00503 		bic	r3, r3, #5
 135 000e 1B04     		lsls	r3, r3, #16
 136 0010 1B0C     		lsrs	r3, r3, #16
 137 0012 5169     		ldr	r1, [r2, #20]
 138 0014 2748     		ldr	r0, .L26+4
 139 0016 8068     		ldr	r0, [r0, #8]
 140 0018 21EA0001 		bic	r1, r1, r0
 141 001c 5161     		str	r1, [r2, #20]
 142 001e 264A     		ldr	r2, .L26+8
 143 0020 0240     		ands	r2, r2, r0
 144 0022 002A     		cmp	r2, #0
 145 0024 2BD0     		beq	.L13
 146 0026 234A     		ldr	r2, .L26+4
 147 0028 D468     		ldr	r4, [r2, #12]
 148              	.L14:
 149 002a 53B1     		cbz	r3, .L15
 150 002c 2149     		ldr	r1, .L26+4
 151 002e 4A68     		ldr	r2, [r1, #4]
 152 0030 1A43     		orrs	r2, r2, r3
 153 0032 4A60     		str	r2, [r1, #4]
 154 0034 1E4A     		ldr	r2, .L26
 155 0036 1361     		str	r3, [r2, #16]
 156 0038 0022     		movs	r2, #0
 157 003a 8A60     		str	r2, [r1, #8]
 158 003c 2046     		mov	r0, r4
 159 003e FFF7FEFF 		bl	HAL_FLASH_OperationErrorCallback
 160              	.L15:
 161 0042 1B4B     		ldr	r3, .L26
 162 0044 1B69     		ldr	r3, [r3, #16]
 163 0046 13F0010F 		tst	r3, #1
 164 004a 0CD0     		beq	.L17
 165 004c 184B     		ldr	r3, .L26
 166 004e 0122     		movs	r2, #1
 167 0050 1A61     		str	r2, [r3, #16]
 168 0052 184B     		ldr	r3, .L26+4
 169 0054 9B68     		ldr	r3, [r3, #8]
 170 0056 022B     		cmp	r3, #2
 171 0058 1AD0     		beq	.L24
 172 005a 164B     		ldr	r3, .L26+4
 173 005c 0022     		movs	r2, #0
 174 005e 9A60     		str	r2, [r3, #8]
 175              	.L20:
 176 0060 2046     		mov	r0, r4
 177 0062 FFF7FEFF 		bl	HAL_FLASH_EndOfOperationCallback
 178              	.L17:
 179 0066 134B     		ldr	r3, .L26+4
 180 0068 9B68     		ldr	r3, [r3, #8]
ARM GAS  C:\Users\Nathan\AppData\Local\Temp\ccReJxxq.s 			page 4


 181 006a 3BB9     		cbnz	r3, .L12
 182 006c 104A     		ldr	r2, .L26
 183 006e 5369     		ldr	r3, [r2, #20]
 184 0070 23F04073 		bic	r3, r3, #50331648
 185 0074 5361     		str	r3, [r2, #20]
 186 0076 0F4B     		ldr	r3, .L26+4
 187 0078 0022     		movs	r2, #0
 188 007a 1A70     		strb	r2, [r3]
 189              	.L12:
 190 007c 10BD     		pop	{r4, pc}
 191              	.L13:
 192 007e 10F0020F 		tst	r0, #2
 193 0082 02D0     		beq	.L22
 194 0084 0B4A     		ldr	r2, .L26+4
 195 0086 1469     		ldr	r4, [r2, #16]
 196 0088 CFE7     		b	.L14
 197              	.L22:
 198 008a 4FF0FF34 		mov	r4, #-1
 199 008e CCE7     		b	.L14
 200              	.L24:
 201 0090 084A     		ldr	r2, .L26+4
 202 0092 5369     		ldr	r3, [r2, #20]
 203 0094 013B     		subs	r3, r3, #1
 204 0096 5361     		str	r3, [r2, #20]
 205 0098 1BB9     		cbnz	r3, .L25
 206 009a 064B     		ldr	r3, .L26+4
 207 009c 0022     		movs	r2, #0
 208 009e 9A60     		str	r2, [r3, #8]
 209 00a0 DEE7     		b	.L20
 210              	.L25:
 211 00a2 1069     		ldr	r0, [r2, #16]
 212 00a4 0130     		adds	r0, r0, #1
 213 00a6 1061     		str	r0, [r2, #16]
 214 00a8 FFF7FEFF 		bl	FLASH_PageErase
 215 00ac D8E7     		b	.L20
 216              	.L27:
 217 00ae 00BF     		.align	2
 218              	.L26:
 219 00b0 00400058 		.word	1476411392
 220 00b4 00000000 		.word	pFlash
 221 00b8 01000400 		.word	262145
 223              		.section	.text.HAL_FLASH_Unlock,"ax",%progbits
 224              		.align	1
 225              		.global	HAL_FLASH_Unlock
 226              		.syntax unified
 227              		.thumb
 228              		.thumb_func
 230              	HAL_FLASH_Unlock:
 231              		@ args = 0, pretend = 0, frame = 0
 232              		@ frame_needed = 0, uses_anonymous_args = 0
 233              		@ link register save eliminated.
 234 0000 094B     		ldr	r3, .L33
 235 0002 5B69     		ldr	r3, [r3, #20]
 236 0004 002B     		cmp	r3, #0
 237 0006 01DB     		blt	.L32
 238 0008 0020     		movs	r0, #0
 239 000a 7047     		bx	lr
ARM GAS  C:\Users\Nathan\AppData\Local\Temp\ccReJxxq.s 			page 5


 240              	.L32:
 241 000c 064B     		ldr	r3, .L33
 242 000e 074A     		ldr	r2, .L33+4
 243 0010 9A60     		str	r2, [r3, #8]
 244 0012 02F18832 		add	r2, r2, #-2004318072
 245 0016 9A60     		str	r2, [r3, #8]
 246 0018 5B69     		ldr	r3, [r3, #20]
 247 001a 002B     		cmp	r3, #0
 248 001c 01DB     		blt	.L31
 249 001e 0020     		movs	r0, #0
 250 0020 7047     		bx	lr
 251              	.L31:
 252 0022 0120     		movs	r0, #1
 253 0024 7047     		bx	lr
 254              	.L34:
 255 0026 00BF     		.align	2
 256              	.L33:
 257 0028 00400058 		.word	1476411392
 258 002c 23016745 		.word	1164378403
 260              		.section	.text.HAL_FLASH_Lock,"ax",%progbits
 261              		.align	1
 262              		.global	HAL_FLASH_Lock
 263              		.syntax unified
 264              		.thumb
 265              		.thumb_func
 267              	HAL_FLASH_Lock:
 268              		@ args = 0, pretend = 0, frame = 0
 269              		@ frame_needed = 0, uses_anonymous_args = 0
 270              		@ link register save eliminated.
 271 0000 054B     		ldr	r3, .L39
 272 0002 5A69     		ldr	r2, [r3, #20]
 273 0004 42F00042 		orr	r2, r2, #-2147483648
 274 0008 5A61     		str	r2, [r3, #20]
 275 000a 5B69     		ldr	r3, [r3, #20]
 276 000c 002B     		cmp	r3, #0
 277 000e 01DB     		blt	.L38
 278 0010 0120     		movs	r0, #1
 279 0012 7047     		bx	lr
 280              	.L38:
 281 0014 0020     		movs	r0, #0
 282 0016 7047     		bx	lr
 283              	.L40:
 284              		.align	2
 285              	.L39:
 286 0018 00400058 		.word	1476411392
 288              		.section	.text.HAL_FLASH_OB_Unlock,"ax",%progbits
 289              		.align	1
 290              		.global	HAL_FLASH_OB_Unlock
 291              		.syntax unified
 292              		.thumb
 293              		.thumb_func
 295              	HAL_FLASH_OB_Unlock:
 296              		@ args = 0, pretend = 0, frame = 0
 297              		@ frame_needed = 0, uses_anonymous_args = 0
 298              		@ link register save eliminated.
 299 0000 0A4B     		ldr	r3, .L45
 300 0002 5B69     		ldr	r3, [r3, #20]
ARM GAS  C:\Users\Nathan\AppData\Local\Temp\ccReJxxq.s 			page 6


 301 0004 13F0804F 		tst	r3, #1073741824
 302 0008 0BD0     		beq	.L43
 303 000a 084B     		ldr	r3, .L45
 304 000c 084A     		ldr	r2, .L45+4
 305 000e DA60     		str	r2, [r3, #12]
 306 0010 02F14432 		add	r2, r2, #1145324612
 307 0014 DA60     		str	r2, [r3, #12]
 308 0016 5B69     		ldr	r3, [r3, #20]
 309 0018 13F0804F 		tst	r3, #1073741824
 310 001c 03D0     		beq	.L44
 311 001e 0120     		movs	r0, #1
 312 0020 7047     		bx	lr
 313              	.L43:
 314 0022 0120     		movs	r0, #1
 315 0024 7047     		bx	lr
 316              	.L44:
 317 0026 0020     		movs	r0, #0
 318 0028 7047     		bx	lr
 319              	.L46:
 320 002a 00BF     		.align	2
 321              	.L45:
 322 002c 00400058 		.word	1476411392
 323 0030 3B2A1908 		.word	135866939
 325              		.section	.text.HAL_FLASH_OB_Lock,"ax",%progbits
 326              		.align	1
 327              		.global	HAL_FLASH_OB_Lock
 328              		.syntax unified
 329              		.thumb
 330              		.thumb_func
 332              	HAL_FLASH_OB_Lock:
 333              		@ args = 0, pretend = 0, frame = 0
 334              		@ frame_needed = 0, uses_anonymous_args = 0
 335              		@ link register save eliminated.
 336 0000 064B     		ldr	r3, .L50
 337 0002 5A69     		ldr	r2, [r3, #20]
 338 0004 42F08042 		orr	r2, r2, #1073741824
 339 0008 5A61     		str	r2, [r3, #20]
 340 000a 5B69     		ldr	r3, [r3, #20]
 341 000c 13F0804F 		tst	r3, #1073741824
 342 0010 01D0     		beq	.L49
 343 0012 0020     		movs	r0, #0
 344 0014 7047     		bx	lr
 345              	.L49:
 346 0016 0120     		movs	r0, #1
 347 0018 7047     		bx	lr
 348              	.L51:
 349 001a 00BF     		.align	2
 350              	.L50:
 351 001c 00400058 		.word	1476411392
 353              		.section	.text.HAL_FLASH_OB_Launch,"ax",%progbits
 354              		.align	1
 355              		.global	HAL_FLASH_OB_Launch
 356              		.syntax unified
 357              		.thumb
 358              		.thumb_func
 360              	HAL_FLASH_OB_Launch:
 361              		@ args = 0, pretend = 0, frame = 0
ARM GAS  C:\Users\Nathan\AppData\Local\Temp\ccReJxxq.s 			page 7


 362              		@ frame_needed = 0, uses_anonymous_args = 0
 363              		@ link register save eliminated.
 364 0000 034A     		ldr	r2, .L53
 365 0002 5369     		ldr	r3, [r2, #20]
 366 0004 43F00063 		orr	r3, r3, #134217728
 367 0008 5361     		str	r3, [r2, #20]
 368 000a 0120     		movs	r0, #1
 369 000c 7047     		bx	lr
 370              	.L54:
 371 000e 00BF     		.align	2
 372              	.L53:
 373 0010 00400058 		.word	1476411392
 375              		.section	.text.HAL_FLASH_GetError,"ax",%progbits
 376              		.align	1
 377              		.global	HAL_FLASH_GetError
 378              		.syntax unified
 379              		.thumb
 380              		.thumb_func
 382              	HAL_FLASH_GetError:
 383              		@ args = 0, pretend = 0, frame = 0
 384              		@ frame_needed = 0, uses_anonymous_args = 0
 385              		@ link register save eliminated.
 386 0000 014B     		ldr	r3, .L56
 387 0002 5868     		ldr	r0, [r3, #4]
 388 0004 7047     		bx	lr
 389              	.L57:
 390 0006 00BF     		.align	2
 391              	.L56:
 392 0008 00000000 		.word	pFlash
 394              		.section	.text.FLASH_WaitForLastOperation,"ax",%progbits
 395              		.align	1
 396              		.global	FLASH_WaitForLastOperation
 397              		.syntax unified
 398              		.thumb
 399              		.thumb_func
 401              	FLASH_WaitForLastOperation:
 402              		@ args = 0, pretend = 0, frame = 0
 403              		@ frame_needed = 0, uses_anonymous_args = 0
 404 0000 38B5     		push	{r3, r4, r5, lr}
 405 0002 0546     		mov	r5, r0
 406 0004 FFF7FEFF 		bl	HAL_GetTick
 407 0008 0446     		mov	r4, r0
 408              	.L59:
 409 000a 1E4B     		ldr	r3, .L74
 410 000c 1B69     		ldr	r3, [r3, #16]
 411 000e 13F4803F 		tst	r3, #65536
 412 0012 06D0     		beq	.L71
 413 0014 FFF7FEFF 		bl	HAL_GetTick
 414 0018 001B     		subs	r0, r0, r4
 415 001a A842     		cmp	r0, r5
 416 001c F5D3     		bcc	.L59
 417 001e 0320     		movs	r0, #3
 418              	.L60:
 419 0020 38BD     		pop	{r3, r4, r5, pc}
 420              	.L71:
 421 0022 184B     		ldr	r3, .L74
 422 0024 1B69     		ldr	r3, [r3, #16]
ARM GAS  C:\Users\Nathan\AppData\Local\Temp\ccReJxxq.s 			page 8


 423 0026 13F0010F 		tst	r3, #1
 424 002a 02D0     		beq	.L62
 425 002c 154A     		ldr	r2, .L74
 426 002e 0121     		movs	r1, #1
 427 0030 1161     		str	r1, [r2, #16]
 428              	.L62:
 429 0032 13F4004F 		tst	r3, #32768
 430 0036 15D1     		bne	.L63
 431 0038 4CF2FA31 		movw	r1, #50170
 432 003c 1940     		ands	r1, r1, r3
 433              	.L64:
 434 003e 4CF2FA32 		movw	r2, #50170
 435 0042 1340     		ands	r3, r3, r2
 436 0044 01D0     		beq	.L65
 437 0046 0F4A     		ldr	r2, .L74
 438 0048 1361     		str	r3, [r2, #16]
 439              	.L65:
 440 004a A9B9     		cbnz	r1, .L72
 441              	.L66:
 442 004c 0D4B     		ldr	r3, .L74
 443 004e 1B69     		ldr	r3, [r3, #16]
 444 0050 13F4802F 		tst	r3, #262144
 445 0054 14D0     		beq	.L73
 446 0056 FFF7FEFF 		bl	HAL_GetTick
 447 005a 001B     		subs	r0, r0, r4
 448 005c A842     		cmp	r0, r5
 449 005e F5D3     		bcc	.L66
 450 0060 0320     		movs	r0, #3
 451 0062 DDE7     		b	.L60
 452              	.L63:
 453 0064 074A     		ldr	r2, .L74
 454 0066 4FF40041 		mov	r1, #32768
 455 006a 1161     		str	r1, [r2, #16]
 456 006c 23F40043 		bic	r3, r3, #32768
 457 0070 4CF2FA31 		movw	r1, #50170
 458 0074 1940     		ands	r1, r1, r3
 459 0076 E2E7     		b	.L64
 460              	.L72:
 461 0078 034B     		ldr	r3, .L74+4
 462 007a 5960     		str	r1, [r3, #4]
 463 007c 0120     		movs	r0, #1
 464 007e CFE7     		b	.L60
 465              	.L73:
 466 0080 0020     		movs	r0, #0
 467 0082 CDE7     		b	.L60
 468              	.L75:
 469              		.align	2
 470              	.L74:
 471 0084 00400058 		.word	1476411392
 472 0088 00000000 		.word	pFlash
 474              		.section	.text.HAL_FLASH_Program,"ax",%progbits
 475              		.align	1
 476              		.global	HAL_FLASH_Program
 477              		.syntax unified
 478              		.thumb
 479              		.thumb_func
 481              	HAL_FLASH_Program:
ARM GAS  C:\Users\Nathan\AppData\Local\Temp\ccReJxxq.s 			page 9


 482              		@ args = 0, pretend = 0, frame = 0
 483              		@ frame_needed = 0, uses_anonymous_args = 0
 484 0000 F8B5     		push	{r3, r4, r5, r6, r7, lr}
 485 0002 1F46     		mov	r7, r3
 486 0004 154B     		ldr	r3, .L84
 487 0006 1B78     		ldrb	r3, [r3]	@ zero_extendqisi2
 488 0008 012B     		cmp	r3, #1
 489 000a 25D0     		beq	.L81
 490 000c 0446     		mov	r4, r0
 491 000e 0D46     		mov	r5, r1
 492 0010 1646     		mov	r6, r2
 493 0012 124B     		ldr	r3, .L84
 494 0014 0122     		movs	r2, #1
 495 0016 1A70     		strb	r2, [r3]
 496 0018 0022     		movs	r2, #0
 497 001a 5A60     		str	r2, [r3, #4]
 498 001c 4FF47A70 		mov	r0, #1000
 499 0020 FFF7FEFF 		bl	FLASH_WaitForLastOperation
 500 0024 70B9     		cbnz	r0, .L78
 501 0026 012C     		cmp	r4, #1
 502 0028 10D0     		beq	.L83
 503 002a 3146     		mov	r1, r6
 504 002c 2846     		mov	r0, r5
 505 002e FFF7FEFF 		bl	FLASH_Program_Fast
 506              	.L80:
 507 0032 4FF47A70 		mov	r0, #1000
 508 0036 FFF7FEFF 		bl	FLASH_WaitForLastOperation
 509 003a 094A     		ldr	r2, .L84+4
 510 003c 5369     		ldr	r3, [r2, #20]
 511 003e 23EA0403 		bic	r3, r3, r4
 512 0042 5361     		str	r3, [r2, #20]
 513              	.L78:
 514 0044 054B     		ldr	r3, .L84
 515 0046 0022     		movs	r2, #0
 516 0048 1A70     		strb	r2, [r3]
 517              	.L77:
 518 004a F8BD     		pop	{r3, r4, r5, r6, r7, pc}
 519              	.L83:
 520 004c 3246     		mov	r2, r6
 521 004e 3B46     		mov	r3, r7
 522 0050 2846     		mov	r0, r5
 523 0052 FFF7FEFF 		bl	FLASH_Program_DoubleWord
 524 0056 ECE7     		b	.L80
 525              	.L81:
 526 0058 0220     		movs	r0, #2
 527 005a F6E7     		b	.L77
 528              	.L85:
 529              		.align	2
 530              	.L84:
 531 005c 00000000 		.word	pFlash
 532 0060 00400058 		.word	1476411392
 534              		.section	.text.HAL_FLASH_Program_IT,"ax",%progbits
 535              		.align	1
 536              		.global	HAL_FLASH_Program_IT
 537              		.syntax unified
 538              		.thumb
 539              		.thumb_func
ARM GAS  C:\Users\Nathan\AppData\Local\Temp\ccReJxxq.s 			page 10


 541              	HAL_FLASH_Program_IT:
 542              		@ args = 0, pretend = 0, frame = 0
 543              		@ frame_needed = 0, uses_anonymous_args = 0
 544 0000 2DE9F041 		push	{r4, r5, r6, r7, r8, lr}
 545 0004 1646     		mov	r6, r2
 546 0006 184A     		ldr	r2, .L93
 547 0008 1278     		ldrb	r2, [r2]	@ zero_extendqisi2
 548 000a 012A     		cmp	r2, #1
 549 000c 28D0     		beq	.L90
 550 000e 0446     		mov	r4, r0
 551 0010 0D46     		mov	r5, r1
 552 0012 1F46     		mov	r7, r3
 553 0014 144A     		ldr	r2, .L93
 554 0016 0123     		movs	r3, #1
 555 0018 1370     		strb	r3, [r2]
 556 001a 0023     		movs	r3, #0
 557 001c 5360     		str	r3, [r2, #4]
 558 001e 4FF47A70 		mov	r0, #1000
 559 0022 FFF7FEFF 		bl	FLASH_WaitForLastOperation
 560 0026 8046     		mov	r8, r0
 561 0028 28B1     		cbz	r0, .L88
 562 002a 0F4B     		ldr	r3, .L93
 563 002c 0022     		movs	r2, #0
 564 002e 1A70     		strb	r2, [r3]
 565              	.L87:
 566 0030 4046     		mov	r0, r8
 567 0032 BDE8F081 		pop	{r4, r5, r6, r7, r8, pc}
 568              	.L88:
 569 0036 0C4B     		ldr	r3, .L93
 570 0038 9C60     		str	r4, [r3, #8]
 571 003a DD60     		str	r5, [r3, #12]
 572 003c 0B4A     		ldr	r2, .L93+4
 573 003e 5369     		ldr	r3, [r2, #20]
 574 0040 43F04073 		orr	r3, r3, #50331648
 575 0044 5361     		str	r3, [r2, #20]
 576 0046 012C     		cmp	r4, #1
 577 0048 04D0     		beq	.L92
 578 004a 3146     		mov	r1, r6
 579 004c 2846     		mov	r0, r5
 580 004e FFF7FEFF 		bl	FLASH_Program_Fast
 581 0052 EDE7     		b	.L87
 582              	.L92:
 583 0054 3246     		mov	r2, r6
 584 0056 3B46     		mov	r3, r7
 585 0058 2846     		mov	r0, r5
 586 005a FFF7FEFF 		bl	FLASH_Program_DoubleWord
 587 005e E7E7     		b	.L87
 588              	.L90:
 589 0060 4FF00208 		mov	r8, #2
 590 0064 E4E7     		b	.L87
 591              	.L94:
 592 0066 00BF     		.align	2
 593              	.L93:
 594 0068 00000000 		.word	pFlash
 595 006c 00400058 		.word	1476411392
 597              		.global	pFlash
 598              		.section	.bss.pFlash,"aw",%nobits
ARM GAS  C:\Users\Nathan\AppData\Local\Temp\ccReJxxq.s 			page 11


 599              		.align	2
 602              	pFlash:
 603 0000 00000000 		.space	24
 603      00000000 
 603      00000000 
 603      00000000 
 603      00000000 
 604              		.ident	"GCC: (Arm GNU Toolchain 13.3.Rel1 (Build arm-13.24)) 13.3.1 20240614"
ARM GAS  C:\Users\Nathan\AppData\Local\Temp\ccReJxxq.s 			page 12

