ARM GAS  C:\Users\Nathan\AppData\Local\Temp\ccj52w3j.s 			page 1


   1              		.cpu cortex-m4
   2              		.arch armv7e-m
   3              		.fpu fpv4-sp-d16
   4              		.eabi_attribute 27, 1
   5              		.eabi_attribute 28, 1
   6              		.eabi_attribute 20, 1
   7              		.eabi_attribute 21, 1
   8              		.eabi_attribute 23, 3
   9              		.eabi_attribute 24, 1
  10              		.eabi_attribute 25, 1
  11              		.eabi_attribute 26, 1
  12              		.eabi_attribute 30, 1
  13              		.eabi_attribute 34, 1
  14              		.eabi_attribute 18, 4
  15              		.file	"stm32wbxx_hal.c"
  16              		.text
  17              		.section	.text.HAL_MspInit,"ax",%progbits
  18              		.align	1
  19              		.weak	HAL_MspInit
  20              		.syntax unified
  21              		.thumb
  22              		.thumb_func
  24              	HAL_MspInit:
  25              		@ args = 0, pretend = 0, frame = 0
  26              		@ frame_needed = 0, uses_anonymous_args = 0
  27              		@ link register save eliminated.
  28 0000 7047     		bx	lr
  30              		.section	.text.HAL_MspDeInit,"ax",%progbits
  31              		.align	1
  32              		.weak	HAL_MspDeInit
  33              		.syntax unified
  34              		.thumb
  35              		.thumb_func
  37              	HAL_MspDeInit:
  38              		@ args = 0, pretend = 0, frame = 0
  39              		@ frame_needed = 0, uses_anonymous_args = 0
  40              		@ link register save eliminated.
  41 0000 7047     		bx	lr
  43              		.section	.text.HAL_DeInit,"ax",%progbits
  44              		.align	1
  45              		.global	HAL_DeInit
  46              		.syntax unified
  47              		.thumb
  48              		.thumb_func
  50              	HAL_DeInit:
  51              		@ args = 0, pretend = 0, frame = 0
  52              		@ frame_needed = 0, uses_anonymous_args = 0
  53 0000 10B5     		push	{r4, lr}
  54 0002 4FF0B043 		mov	r3, #1476395008
  55 0006 9A6B     		ldr	r2, [r3, #56]
  56 0008 4FF0FF32 		mov	r2, #-1
  57 000c 9A63     		str	r2, [r3, #56]
  58 000e D96B     		ldr	r1, [r3, #60]
  59 0010 DA63     		str	r2, [r3, #60]
  60 0012 996B     		ldr	r1, [r3, #56]
  61 0014 0024     		movs	r4, #0
  62 0016 9C63     		str	r4, [r3, #56]
ARM GAS  C:\Users\Nathan\AppData\Local\Temp\ccj52w3j.s 			page 2


  63 0018 D96B     		ldr	r1, [r3, #60]
  64 001a DC63     		str	r4, [r3, #60]
  65 001c 196C     		ldr	r1, [r3, #64]
  66 001e 1A64     		str	r2, [r3, #64]
  67 0020 196C     		ldr	r1, [r3, #64]
  68 0022 1C64     		str	r4, [r3, #64]
  69 0024 596C     		ldr	r1, [r3, #68]
  70 0026 5A64     		str	r2, [r3, #68]
  71 0028 596C     		ldr	r1, [r3, #68]
  72 002a 5C64     		str	r4, [r3, #68]
  73 002c 996A     		ldr	r1, [r3, #40]
  74 002e 9A62     		str	r2, [r3, #40]
  75 0030 996A     		ldr	r1, [r3, #40]
  76 0032 9C62     		str	r4, [r3, #40]
  77 0034 D96A     		ldr	r1, [r3, #44]
  78 0036 DA62     		str	r2, [r3, #44]
  79 0038 D96A     		ldr	r1, [r3, #44]
  80 003a DC62     		str	r4, [r3, #44]
  81 003c 196B     		ldr	r1, [r3, #48]
  82 003e 1A63     		str	r2, [r3, #48]
  83 0040 1A6B     		ldr	r2, [r3, #48]
  84 0042 1C63     		str	r4, [r3, #48]
  85 0044 FFF7FEFF 		bl	HAL_MspDeInit
  86 0048 2046     		mov	r0, r4
  87 004a 10BD     		pop	{r4, pc}
  89              		.section	.text.HAL_InitTick,"ax",%progbits
  90              		.align	1
  91              		.weak	HAL_InitTick
  92              		.syntax unified
  93              		.thumb
  94              		.thumb_func
  96              	HAL_InitTick:
  97              		@ args = 0, pretend = 0, frame = 0
  98              		@ frame_needed = 0, uses_anonymous_args = 0
  99 0000 114B     		ldr	r3, .L16
 100 0002 1B78     		ldrb	r3, [r3]	@ zero_extendqisi2
 101 0004 0BB9     		cbnz	r3, .L14
 102 0006 0120     		movs	r0, #1
 103 0008 7047     		bx	lr
 104              	.L14:
 105 000a 10B5     		push	{r4, lr}
 106 000c 0446     		mov	r4, r0
 107 000e FFF7FEFF 		bl	HAL_RCC_GetHCLKFreq
 108 0012 0D4B     		ldr	r3, .L16
 109 0014 1A78     		ldrb	r2, [r3]	@ zero_extendqisi2
 110 0016 4FF47A73 		mov	r3, #1000
 111 001a B3FBF2F3 		udiv	r3, r3, r2
 112 001e B0FBF3F0 		udiv	r0, r0, r3
 113 0022 FFF7FEFF 		bl	HAL_SYSTICK_Config
 114 0026 68B9     		cbnz	r0, .L8
 115 0028 0F2C     		cmp	r4, #15
 116 002a 01D9     		bls	.L15
 117 002c 0120     		movs	r0, #1
 118 002e 0AE0     		b	.L6
 119              	.L15:
 120 0030 0022     		movs	r2, #0
 121 0032 2146     		mov	r1, r4
ARM GAS  C:\Users\Nathan\AppData\Local\Temp\ccj52w3j.s 			page 3


 122 0034 4FF0FF30 		mov	r0, #-1
 123 0038 FFF7FEFF 		bl	HAL_NVIC_SetPriority
 124 003c 034B     		ldr	r3, .L16+4
 125 003e 1C60     		str	r4, [r3]
 126 0040 0020     		movs	r0, #0
 127 0042 00E0     		b	.L6
 128              	.L8:
 129 0044 0120     		movs	r0, #1
 130              	.L6:
 131 0046 10BD     		pop	{r4, pc}
 132              	.L17:
 133              		.align	2
 134              	.L16:
 135 0048 00000000 		.word	uwTickFreq
 136 004c 00000000 		.word	uwTickPrio
 138              		.section	.text.HAL_Init,"ax",%progbits
 139              		.align	1
 140              		.global	HAL_Init
 141              		.syntax unified
 142              		.thumb
 143              		.thumb_func
 145              	HAL_Init:
 146              		@ args = 0, pretend = 0, frame = 0
 147              		@ frame_needed = 0, uses_anonymous_args = 0
 148 0000 10B5     		push	{r4, lr}
 149 0002 094A     		ldr	r2, .L23
 150 0004 1368     		ldr	r3, [r2]
 151 0006 43F48073 		orr	r3, r3, #256
 152 000a 1360     		str	r3, [r2]
 153 000c 0320     		movs	r0, #3
 154 000e FFF7FEFF 		bl	HAL_NVIC_SetPriorityGrouping
 155 0012 0F20     		movs	r0, #15
 156 0014 FFF7FEFF 		bl	HAL_InitTick
 157 0018 10B1     		cbz	r0, .L22
 158 001a 0124     		movs	r4, #1
 159              	.L19:
 160 001c 2046     		mov	r0, r4
 161 001e 10BD     		pop	{r4, pc}
 162              	.L22:
 163 0020 0446     		mov	r4, r0
 164 0022 FFF7FEFF 		bl	HAL_MspInit
 165 0026 F9E7     		b	.L19
 166              	.L24:
 167              		.align	2
 168              	.L23:
 169 0028 00400058 		.word	1476411392
 171              		.section	.text.HAL_IncTick,"ax",%progbits
 172              		.align	1
 173              		.weak	HAL_IncTick
 174              		.syntax unified
 175              		.thumb
 176              		.thumb_func
 178              	HAL_IncTick:
 179              		@ args = 0, pretend = 0, frame = 0
 180              		@ frame_needed = 0, uses_anonymous_args = 0
 181              		@ link register save eliminated.
 182 0000 034B     		ldr	r3, .L26
ARM GAS  C:\Users\Nathan\AppData\Local\Temp\ccj52w3j.s 			page 4


 183 0002 1B78     		ldrb	r3, [r3]	@ zero_extendqisi2
 184 0004 034A     		ldr	r2, .L26+4
 185 0006 1168     		ldr	r1, [r2]
 186 0008 0B44     		add	r3, r3, r1
 187 000a 1360     		str	r3, [r2]
 188 000c 7047     		bx	lr
 189              	.L27:
 190 000e 00BF     		.align	2
 191              	.L26:
 192 0010 00000000 		.word	uwTickFreq
 193 0014 00000000 		.word	uwTick
 195              		.section	.text.HAL_GetTick,"ax",%progbits
 196              		.align	1
 197              		.weak	HAL_GetTick
 198              		.syntax unified
 199              		.thumb
 200              		.thumb_func
 202              	HAL_GetTick:
 203              		@ args = 0, pretend = 0, frame = 0
 204              		@ frame_needed = 0, uses_anonymous_args = 0
 205              		@ link register save eliminated.
 206 0000 014B     		ldr	r3, .L29
 207 0002 1868     		ldr	r0, [r3]
 208 0004 7047     		bx	lr
 209              	.L30:
 210 0006 00BF     		.align	2
 211              	.L29:
 212 0008 00000000 		.word	uwTick
 214              		.section	.text.HAL_GetTickPrio,"ax",%progbits
 215              		.align	1
 216              		.global	HAL_GetTickPrio
 217              		.syntax unified
 218              		.thumb
 219              		.thumb_func
 221              	HAL_GetTickPrio:
 222              		@ args = 0, pretend = 0, frame = 0
 223              		@ frame_needed = 0, uses_anonymous_args = 0
 224              		@ link register save eliminated.
 225 0000 014B     		ldr	r3, .L32
 226 0002 1868     		ldr	r0, [r3]
 227 0004 7047     		bx	lr
 228              	.L33:
 229 0006 00BF     		.align	2
 230              	.L32:
 231 0008 00000000 		.word	uwTickPrio
 233              		.section	.text.HAL_SetTickFreq,"ax",%progbits
 234              		.align	1
 235              		.global	HAL_SetTickFreq
 236              		.syntax unified
 237              		.thumb
 238              		.thumb_func
 240              	HAL_SetTickFreq:
 241              		@ args = 0, pretend = 0, frame = 0
 242              		@ frame_needed = 0, uses_anonymous_args = 0
 243 0000 10B5     		push	{r4, lr}
 244 0002 084B     		ldr	r3, .L39
 245 0004 1C78     		ldrb	r4, [r3]	@ zero_extendqisi2
ARM GAS  C:\Users\Nathan\AppData\Local\Temp\ccj52w3j.s 			page 5


 246 0006 8442     		cmp	r4, r0
 247 0008 01D1     		bne	.L38
 248 000a 0020     		movs	r0, #0
 249              	.L35:
 250 000c 10BD     		pop	{r4, pc}
 251              	.L38:
 252 000e 1870     		strb	r0, [r3]
 253 0010 054B     		ldr	r3, .L39+4
 254 0012 1868     		ldr	r0, [r3]
 255 0014 FFF7FEFF 		bl	HAL_InitTick
 256 0018 0028     		cmp	r0, #0
 257 001a F7D0     		beq	.L35
 258 001c 014B     		ldr	r3, .L39
 259 001e 1C70     		strb	r4, [r3]
 260 0020 F4E7     		b	.L35
 261              	.L40:
 262 0022 00BF     		.align	2
 263              	.L39:
 264 0024 00000000 		.word	uwTickFreq
 265 0028 00000000 		.word	uwTickPrio
 267              		.section	.text.HAL_GetTickFreq,"ax",%progbits
 268              		.align	1
 269              		.global	HAL_GetTickFreq
 270              		.syntax unified
 271              		.thumb
 272              		.thumb_func
 274              	HAL_GetTickFreq:
 275              		@ args = 0, pretend = 0, frame = 0
 276              		@ frame_needed = 0, uses_anonymous_args = 0
 277              		@ link register save eliminated.
 278 0000 014B     		ldr	r3, .L42
 279 0002 1878     		ldrb	r0, [r3]	@ zero_extendqisi2
 280 0004 7047     		bx	lr
 281              	.L43:
 282 0006 00BF     		.align	2
 283              	.L42:
 284 0008 00000000 		.word	uwTickFreq
 286              		.section	.text.HAL_Delay,"ax",%progbits
 287              		.align	1
 288              		.weak	HAL_Delay
 289              		.syntax unified
 290              		.thumb
 291              		.thumb_func
 293              	HAL_Delay:
 294              		@ args = 0, pretend = 0, frame = 0
 295              		@ frame_needed = 0, uses_anonymous_args = 0
 296 0000 38B5     		push	{r3, r4, r5, lr}
 297 0002 0446     		mov	r4, r0
 298 0004 FFF7FEFF 		bl	HAL_GetTick
 299 0008 0546     		mov	r5, r0
 300 000a B4F1FF3F 		cmp	r4, #-1
 301 000e 02D0     		beq	.L46
 302 0010 044B     		ldr	r3, .L48
 303 0012 1B78     		ldrb	r3, [r3]	@ zero_extendqisi2
 304 0014 1C44     		add	r4, r4, r3
 305              	.L46:
 306 0016 FFF7FEFF 		bl	HAL_GetTick
ARM GAS  C:\Users\Nathan\AppData\Local\Temp\ccj52w3j.s 			page 6


 307 001a 401B     		subs	r0, r0, r5
 308 001c A042     		cmp	r0, r4
 309 001e FAD3     		bcc	.L46
 310 0020 38BD     		pop	{r3, r4, r5, pc}
 311              	.L49:
 312 0022 00BF     		.align	2
 313              	.L48:
 314 0024 00000000 		.word	uwTickFreq
 316              		.section	.text.HAL_SuspendTick,"ax",%progbits
 317              		.align	1
 318              		.weak	HAL_SuspendTick
 319              		.syntax unified
 320              		.thumb
 321              		.thumb_func
 323              	HAL_SuspendTick:
 324              		@ args = 0, pretend = 0, frame = 0
 325              		@ frame_needed = 0, uses_anonymous_args = 0
 326              		@ link register save eliminated.
 327 0000 4FF0E022 		mov	r2, #-536813568
 328 0004 1369     		ldr	r3, [r2, #16]
 329 0006 23F00203 		bic	r3, r3, #2
 330 000a 1361     		str	r3, [r2, #16]
 331 000c 7047     		bx	lr
 333              		.section	.text.HAL_ResumeTick,"ax",%progbits
 334              		.align	1
 335              		.weak	HAL_ResumeTick
 336              		.syntax unified
 337              		.thumb
 338              		.thumb_func
 340              	HAL_ResumeTick:
 341              		@ args = 0, pretend = 0, frame = 0
 342              		@ frame_needed = 0, uses_anonymous_args = 0
 343              		@ link register save eliminated.
 344 0000 4FF0E022 		mov	r2, #-536813568
 345 0004 1369     		ldr	r3, [r2, #16]
 346 0006 43F00203 		orr	r3, r3, #2
 347 000a 1361     		str	r3, [r2, #16]
 348 000c 7047     		bx	lr
 350              		.section	.text.HAL_GetHalVersion,"ax",%progbits
 351              		.align	1
 352              		.global	HAL_GetHalVersion
 353              		.syntax unified
 354              		.thumb
 355              		.thumb_func
 357              	HAL_GetHalVersion:
 358              		@ args = 0, pretend = 0, frame = 0
 359              		@ frame_needed = 0, uses_anonymous_args = 0
 360              		@ link register save eliminated.
 361 0000 0048     		ldr	r0, .L53
 362 0002 7047     		bx	lr
 363              	.L54:
 364              		.align	2
 365              	.L53:
 366 0004 00050E01 		.word	17696000
 368              		.section	.text.HAL_GetREVID,"ax",%progbits
 369              		.align	1
 370              		.global	HAL_GetREVID
ARM GAS  C:\Users\Nathan\AppData\Local\Temp\ccj52w3j.s 			page 7


 371              		.syntax unified
 372              		.thumb
 373              		.thumb_func
 375              	HAL_GetREVID:
 376              		@ args = 0, pretend = 0, frame = 0
 377              		@ frame_needed = 0, uses_anonymous_args = 0
 378              		@ link register save eliminated.
 379 0000 014B     		ldr	r3, .L56
 380 0002 1868     		ldr	r0, [r3]
 381 0004 000C     		lsrs	r0, r0, #16
 382 0006 7047     		bx	lr
 383              	.L57:
 384              		.align	2
 385              	.L56:
 386 0008 002004E0 		.word	-536600576
 388              		.section	.text.HAL_GetDEVID,"ax",%progbits
 389              		.align	1
 390              		.global	HAL_GetDEVID
 391              		.syntax unified
 392              		.thumb
 393              		.thumb_func
 395              	HAL_GetDEVID:
 396              		@ args = 0, pretend = 0, frame = 0
 397              		@ frame_needed = 0, uses_anonymous_args = 0
 398              		@ link register save eliminated.
 399 0000 024B     		ldr	r3, .L59
 400 0002 1868     		ldr	r0, [r3]
 401 0004 C0F30B00 		ubfx	r0, r0, #0, #12
 402 0008 7047     		bx	lr
 403              	.L60:
 404 000a 00BF     		.align	2
 405              	.L59:
 406 000c 002004E0 		.word	-536600576
 408              		.section	.text.HAL_GetUIDw0,"ax",%progbits
 409              		.align	1
 410              		.global	HAL_GetUIDw0
 411              		.syntax unified
 412              		.thumb
 413              		.thumb_func
 415              	HAL_GetUIDw0:
 416              		@ args = 0, pretend = 0, frame = 0
 417              		@ frame_needed = 0, uses_anonymous_args = 0
 418              		@ link register save eliminated.
 419 0000 014B     		ldr	r3, .L62
 420 0002 D3F89005 		ldr	r0, [r3, #1424]
 421 0006 7047     		bx	lr
 422              	.L63:
 423              		.align	2
 424              	.L62:
 425 0008 0070FF1F 		.word	536834048
 427              		.section	.text.HAL_GetUIDw1,"ax",%progbits
 428              		.align	1
 429              		.global	HAL_GetUIDw1
 430              		.syntax unified
 431              		.thumb
 432              		.thumb_func
 434              	HAL_GetUIDw1:
ARM GAS  C:\Users\Nathan\AppData\Local\Temp\ccj52w3j.s 			page 8


 435              		@ args = 0, pretend = 0, frame = 0
 436              		@ frame_needed = 0, uses_anonymous_args = 0
 437              		@ link register save eliminated.
 438 0000 014B     		ldr	r3, .L65
 439 0002 D3F89405 		ldr	r0, [r3, #1428]
 440 0006 7047     		bx	lr
 441              	.L66:
 442              		.align	2
 443              	.L65:
 444 0008 0070FF1F 		.word	536834048
 446              		.section	.text.HAL_GetUIDw2,"ax",%progbits
 447              		.align	1
 448              		.global	HAL_GetUIDw2
 449              		.syntax unified
 450              		.thumb
 451              		.thumb_func
 453              	HAL_GetUIDw2:
 454              		@ args = 0, pretend = 0, frame = 0
 455              		@ frame_needed = 0, uses_anonymous_args = 0
 456              		@ link register save eliminated.
 457 0000 014B     		ldr	r3, .L68
 458 0002 D3F89805 		ldr	r0, [r3, #1432]
 459 0006 7047     		bx	lr
 460              	.L69:
 461              		.align	2
 462              	.L68:
 463 0008 0070FF1F 		.word	536834048
 465              		.section	.text.HAL_DBGMCU_EnableDBGSleepMode,"ax",%progbits
 466              		.align	1
 467              		.global	HAL_DBGMCU_EnableDBGSleepMode
 468              		.syntax unified
 469              		.thumb
 470              		.thumb_func
 472              	HAL_DBGMCU_EnableDBGSleepMode:
 473              		@ args = 0, pretend = 0, frame = 0
 474              		@ frame_needed = 0, uses_anonymous_args = 0
 475              		@ link register save eliminated.
 476 0000 024A     		ldr	r2, .L71
 477 0002 5368     		ldr	r3, [r2, #4]
 478 0004 43F00103 		orr	r3, r3, #1
 479 0008 5360     		str	r3, [r2, #4]
 480 000a 7047     		bx	lr
 481              	.L72:
 482              		.align	2
 483              	.L71:
 484 000c 002004E0 		.word	-536600576
 486              		.section	.text.HAL_DBGMCU_DisableDBGSleepMode,"ax",%progbits
 487              		.align	1
 488              		.global	HAL_DBGMCU_DisableDBGSleepMode
 489              		.syntax unified
 490              		.thumb
 491              		.thumb_func
 493              	HAL_DBGMCU_DisableDBGSleepMode:
 494              		@ args = 0, pretend = 0, frame = 0
 495              		@ frame_needed = 0, uses_anonymous_args = 0
 496              		@ link register save eliminated.
 497 0000 024A     		ldr	r2, .L74
ARM GAS  C:\Users\Nathan\AppData\Local\Temp\ccj52w3j.s 			page 9


 498 0002 5368     		ldr	r3, [r2, #4]
 499 0004 23F00103 		bic	r3, r3, #1
 500 0008 5360     		str	r3, [r2, #4]
 501 000a 7047     		bx	lr
 502              	.L75:
 503              		.align	2
 504              	.L74:
 505 000c 002004E0 		.word	-536600576
 507              		.section	.text.HAL_DBGMCU_EnableDBGStopMode,"ax",%progbits
 508              		.align	1
 509              		.global	HAL_DBGMCU_EnableDBGStopMode
 510              		.syntax unified
 511              		.thumb
 512              		.thumb_func
 514              	HAL_DBGMCU_EnableDBGStopMode:
 515              		@ args = 0, pretend = 0, frame = 0
 516              		@ frame_needed = 0, uses_anonymous_args = 0
 517              		@ link register save eliminated.
 518 0000 024A     		ldr	r2, .L77
 519 0002 5368     		ldr	r3, [r2, #4]
 520 0004 43F00203 		orr	r3, r3, #2
 521 0008 5360     		str	r3, [r2, #4]
 522 000a 7047     		bx	lr
 523              	.L78:
 524              		.align	2
 525              	.L77:
 526 000c 002004E0 		.word	-536600576
 528              		.section	.text.HAL_DBGMCU_DisableDBGStopMode,"ax",%progbits
 529              		.align	1
 530              		.global	HAL_DBGMCU_DisableDBGStopMode
 531              		.syntax unified
 532              		.thumb
 533              		.thumb_func
 535              	HAL_DBGMCU_DisableDBGStopMode:
 536              		@ args = 0, pretend = 0, frame = 0
 537              		@ frame_needed = 0, uses_anonymous_args = 0
 538              		@ link register save eliminated.
 539 0000 024A     		ldr	r2, .L80
 540 0002 5368     		ldr	r3, [r2, #4]
 541 0004 23F00203 		bic	r3, r3, #2
 542 0008 5360     		str	r3, [r2, #4]
 543 000a 7047     		bx	lr
 544              	.L81:
 545              		.align	2
 546              	.L80:
 547 000c 002004E0 		.word	-536600576
 549              		.section	.text.HAL_DBGMCU_EnableDBGStandbyMode,"ax",%progbits
 550              		.align	1
 551              		.global	HAL_DBGMCU_EnableDBGStandbyMode
 552              		.syntax unified
 553              		.thumb
 554              		.thumb_func
 556              	HAL_DBGMCU_EnableDBGStandbyMode:
 557              		@ args = 0, pretend = 0, frame = 0
 558              		@ frame_needed = 0, uses_anonymous_args = 0
 559              		@ link register save eliminated.
 560 0000 024A     		ldr	r2, .L83
ARM GAS  C:\Users\Nathan\AppData\Local\Temp\ccj52w3j.s 			page 10


 561 0002 5368     		ldr	r3, [r2, #4]
 562 0004 43F00403 		orr	r3, r3, #4
 563 0008 5360     		str	r3, [r2, #4]
 564 000a 7047     		bx	lr
 565              	.L84:
 566              		.align	2
 567              	.L83:
 568 000c 002004E0 		.word	-536600576
 570              		.section	.text.HAL_DBGMCU_DisableDBGStandbyMode,"ax",%progbits
 571              		.align	1
 572              		.global	HAL_DBGMCU_DisableDBGStandbyMode
 573              		.syntax unified
 574              		.thumb
 575              		.thumb_func
 577              	HAL_DBGMCU_DisableDBGStandbyMode:
 578              		@ args = 0, pretend = 0, frame = 0
 579              		@ frame_needed = 0, uses_anonymous_args = 0
 580              		@ link register save eliminated.
 581 0000 024A     		ldr	r2, .L86
 582 0002 5368     		ldr	r3, [r2, #4]
 583 0004 23F00403 		bic	r3, r3, #4
 584 0008 5360     		str	r3, [r2, #4]
 585 000a 7047     		bx	lr
 586              	.L87:
 587              		.align	2
 588              	.L86:
 589 000c 002004E0 		.word	-536600576
 591              		.section	.text.HAL_SYSCFG_SRAM2Erase,"ax",%progbits
 592              		.align	1
 593              		.global	HAL_SYSCFG_SRAM2Erase
 594              		.syntax unified
 595              		.thumb
 596              		.thumb_func
 598              	HAL_SYSCFG_SRAM2Erase:
 599              		@ args = 0, pretend = 0, frame = 0
 600              		@ frame_needed = 0, uses_anonymous_args = 0
 601              		@ link register save eliminated.
 602 0000 044B     		ldr	r3, .L89
 603 0002 CA22     		movs	r2, #202
 604 0004 5A62     		str	r2, [r3, #36]
 605 0006 5322     		movs	r2, #83
 606 0008 5A62     		str	r2, [r3, #36]
 607 000a 9A69     		ldr	r2, [r3, #24]
 608 000c 42F00102 		orr	r2, r2, #1
 609 0010 9A61     		str	r2, [r3, #24]
 610 0012 7047     		bx	lr
 611              	.L90:
 612              		.align	2
 613              	.L89:
 614 0014 00000140 		.word	1073807360
 616              		.section	.text.HAL_SYSCFG_DisableSRAMFetch,"ax",%progbits
 617              		.align	1
 618              		.global	HAL_SYSCFG_DisableSRAMFetch
 619              		.syntax unified
 620              		.thumb
 621              		.thumb_func
 623              	HAL_SYSCFG_DisableSRAMFetch:
ARM GAS  C:\Users\Nathan\AppData\Local\Temp\ccj52w3j.s 			page 11


 624              		@ args = 0, pretend = 0, frame = 0
 625              		@ frame_needed = 0, uses_anonymous_args = 0
 626              		@ link register save eliminated.
 627 0000 024A     		ldr	r2, .L92
 628 0002 9369     		ldr	r3, [r2, #24]
 629 0004 43F00043 		orr	r3, r3, #-2147483648
 630 0008 9361     		str	r3, [r2, #24]
 631 000a 7047     		bx	lr
 632              	.L93:
 633              		.align	2
 634              	.L92:
 635 000c 00000140 		.word	1073807360
 637              		.section	.text.HAL_SYSCFG_IsEnabledSRAMFetch,"ax",%progbits
 638              		.align	1
 639              		.global	HAL_SYSCFG_IsEnabledSRAMFetch
 640              		.syntax unified
 641              		.thumb
 642              		.thumb_func
 644              	HAL_SYSCFG_IsEnabledSRAMFetch:
 645              		@ args = 0, pretend = 0, frame = 0
 646              		@ frame_needed = 0, uses_anonymous_args = 0
 647              		@ link register save eliminated.
 648 0000 034B     		ldr	r3, .L97
 649 0002 9B69     		ldr	r3, [r3, #24]
 650 0004 002B     		cmp	r3, #0
 651 0006 01DB     		blt	.L96
 652 0008 0120     		movs	r0, #1
 653 000a 7047     		bx	lr
 654              	.L96:
 655 000c 0020     		movs	r0, #0
 656 000e 7047     		bx	lr
 657              	.L98:
 658              		.align	2
 659              	.L97:
 660 0010 00000140 		.word	1073807360
 662              		.section	.text.HAL_SYSCFG_VREFBUF_HighImpedanceConfig,"ax",%progbits
 663              		.align	1
 664              		.global	HAL_SYSCFG_VREFBUF_HighImpedanceConfig
 665              		.syntax unified
 666              		.thumb
 667              		.thumb_func
 669              	HAL_SYSCFG_VREFBUF_HighImpedanceConfig:
 670              		@ args = 0, pretend = 0, frame = 0
 671              		@ frame_needed = 0, uses_anonymous_args = 0
 672              		@ link register save eliminated.
 673 0000 034A     		ldr	r2, .L100
 674 0002 136B     		ldr	r3, [r2, #48]
 675 0004 23F00203 		bic	r3, r3, #2
 676 0008 0343     		orrs	r3, r3, r0
 677 000a 1363     		str	r3, [r2, #48]
 678 000c 7047     		bx	lr
 679              	.L101:
 680 000e 00BF     		.align	2
 681              	.L100:
 682 0010 00000140 		.word	1073807360
 684              		.section	.text.HAL_SYSCFG_VREFBUF_TrimmingConfig,"ax",%progbits
 685              		.align	1
ARM GAS  C:\Users\Nathan\AppData\Local\Temp\ccj52w3j.s 			page 12


 686              		.global	HAL_SYSCFG_VREFBUF_TrimmingConfig
 687              		.syntax unified
 688              		.thumb
 689              		.thumb_func
 691              	HAL_SYSCFG_VREFBUF_TrimmingConfig:
 692              		@ args = 0, pretend = 0, frame = 0
 693              		@ frame_needed = 0, uses_anonymous_args = 0
 694              		@ link register save eliminated.
 695 0000 014B     		ldr	r3, .L103
 696 0002 5863     		str	r0, [r3, #52]
 697 0004 7047     		bx	lr
 698              	.L104:
 699 0006 00BF     		.align	2
 700              	.L103:
 701 0008 00000140 		.word	1073807360
 703              		.section	.text.HAL_SYSCFG_VREFBUF_VoltageScalingConfig,"ax",%progbits
 704              		.align	1
 705              		.global	HAL_SYSCFG_VREFBUF_VoltageScalingConfig
 706              		.syntax unified
 707              		.thumb
 708              		.thumb_func
 710              	HAL_SYSCFG_VREFBUF_VoltageScalingConfig:
 711              		@ args = 0, pretend = 0, frame = 0
 712              		@ frame_needed = 0, uses_anonymous_args = 0
 713 0000 08B5     		push	{r3, lr}
 714 0002 0A4A     		ldr	r2, .L109
 715 0004 136B     		ldr	r3, [r2, #48]
 716 0006 23F00403 		bic	r3, r3, #4
 717 000a 0343     		orrs	r3, r3, r0
 718 000c 1363     		str	r3, [r2, #48]
 719 000e 38B9     		cbnz	r0, .L106
 720 0010 074B     		ldr	r3, .L109+4
 721 0012 93F8F000 		ldrb	r0, [r3, #240]	@ zero_extendqisi2
 722 0016 00F03F00 		and	r0, r0, #63
 723              	.L107:
 724 001a FFF7FEFF 		bl	HAL_SYSCFG_VREFBUF_TrimmingConfig
 725 001e 08BD     		pop	{r3, pc}
 726              	.L106:
 727 0020 034B     		ldr	r3, .L109+4
 728 0022 93F83000 		ldrb	r0, [r3, #48]	@ zero_extendqisi2
 729 0026 00F03F00 		and	r0, r0, #63
 730 002a F6E7     		b	.L107
 731              	.L110:
 732              		.align	2
 733              	.L109:
 734 002c 00000140 		.word	1073807360
 735 0030 0075FF1F 		.word	536835328
 737              		.section	.text.HAL_SYSCFG_EnableVREFBUF,"ax",%progbits
 738              		.align	1
 739              		.global	HAL_SYSCFG_EnableVREFBUF
 740              		.syntax unified
 741              		.thumb
 742              		.thumb_func
 744              	HAL_SYSCFG_EnableVREFBUF:
 745              		@ args = 0, pretend = 0, frame = 0
 746              		@ frame_needed = 0, uses_anonymous_args = 0
 747 0000 10B5     		push	{r4, lr}
ARM GAS  C:\Users\Nathan\AppData\Local\Temp\ccj52w3j.s 			page 13


 748 0002 0B4A     		ldr	r2, .L118
 749 0004 136B     		ldr	r3, [r2, #48]
 750 0006 43F00103 		orr	r3, r3, #1
 751 000a 1363     		str	r3, [r2, #48]
 752 000c FFF7FEFF 		bl	HAL_GetTick
 753 0010 0446     		mov	r4, r0
 754              	.L112:
 755 0012 074B     		ldr	r3, .L118
 756 0014 1B6B     		ldr	r3, [r3, #48]
 757 0016 13F0080F 		tst	r3, #8
 758 001a 06D1     		bne	.L117
 759 001c FFF7FEFF 		bl	HAL_GetTick
 760 0020 001B     		subs	r0, r0, r4
 761 0022 0A28     		cmp	r0, #10
 762 0024 F5D9     		bls	.L112
 763 0026 0320     		movs	r0, #3
 764 0028 00E0     		b	.L113
 765              	.L117:
 766 002a 0020     		movs	r0, #0
 767              	.L113:
 768 002c 10BD     		pop	{r4, pc}
 769              	.L119:
 770 002e 00BF     		.align	2
 771              	.L118:
 772 0030 00000140 		.word	1073807360
 774              		.section	.text.HAL_SYSCFG_DisableVREFBUF,"ax",%progbits
 775              		.align	1
 776              		.global	HAL_SYSCFG_DisableVREFBUF
 777              		.syntax unified
 778              		.thumb
 779              		.thumb_func
 781              	HAL_SYSCFG_DisableVREFBUF:
 782              		@ args = 0, pretend = 0, frame = 0
 783              		@ frame_needed = 0, uses_anonymous_args = 0
 784              		@ link register save eliminated.
 785 0000 024A     		ldr	r2, .L121
 786 0002 136B     		ldr	r3, [r2, #48]
 787 0004 23F00103 		bic	r3, r3, #1
 788 0008 1363     		str	r3, [r2, #48]
 789 000a 7047     		bx	lr
 790              	.L122:
 791              		.align	2
 792              	.L121:
 793 000c 00000140 		.word	1073807360
 795              		.section	.text.HAL_SYSCFG_EnableIOBooster,"ax",%progbits
 796              		.align	1
 797              		.global	HAL_SYSCFG_EnableIOBooster
 798              		.syntax unified
 799              		.thumb
 800              		.thumb_func
 802              	HAL_SYSCFG_EnableIOBooster:
 803              		@ args = 0, pretend = 0, frame = 0
 804              		@ frame_needed = 0, uses_anonymous_args = 0
 805              		@ link register save eliminated.
 806 0000 024A     		ldr	r2, .L124
 807 0002 5368     		ldr	r3, [r2, #4]
 808 0004 43F48073 		orr	r3, r3, #256
ARM GAS  C:\Users\Nathan\AppData\Local\Temp\ccj52w3j.s 			page 14


 809 0008 5360     		str	r3, [r2, #4]
 810 000a 7047     		bx	lr
 811              	.L125:
 812              		.align	2
 813              	.L124:
 814 000c 00000140 		.word	1073807360
 816              		.section	.text.HAL_SYSCFG_DisableIOBooster,"ax",%progbits
 817              		.align	1
 818              		.global	HAL_SYSCFG_DisableIOBooster
 819              		.syntax unified
 820              		.thumb
 821              		.thumb_func
 823              	HAL_SYSCFG_DisableIOBooster:
 824              		@ args = 0, pretend = 0, frame = 0
 825              		@ frame_needed = 0, uses_anonymous_args = 0
 826              		@ link register save eliminated.
 827 0000 024A     		ldr	r2, .L127
 828 0002 5368     		ldr	r3, [r2, #4]
 829 0004 23F48073 		bic	r3, r3, #256
 830 0008 5360     		str	r3, [r2, #4]
 831 000a 7047     		bx	lr
 832              	.L128:
 833              		.align	2
 834              	.L127:
 835 000c 00000140 		.word	1073807360
 837              		.section	.text.HAL_SYSCFG_EnableIOVdd,"ax",%progbits
 838              		.align	1
 839              		.global	HAL_SYSCFG_EnableIOVdd
 840              		.syntax unified
 841              		.thumb
 842              		.thumb_func
 844              	HAL_SYSCFG_EnableIOVdd:
 845              		@ args = 0, pretend = 0, frame = 0
 846              		@ frame_needed = 0, uses_anonymous_args = 0
 847              		@ link register save eliminated.
 848 0000 024A     		ldr	r2, .L130
 849 0002 5368     		ldr	r3, [r2, #4]
 850 0004 43F40073 		orr	r3, r3, #512
 851 0008 5360     		str	r3, [r2, #4]
 852 000a 7047     		bx	lr
 853              	.L131:
 854              		.align	2
 855              	.L130:
 856 000c 00000140 		.word	1073807360
 858              		.section	.text.HAL_SYSCFG_DisableIOVdd,"ax",%progbits
 859              		.align	1
 860              		.global	HAL_SYSCFG_DisableIOVdd
 861              		.syntax unified
 862              		.thumb
 863              		.thumb_func
 865              	HAL_SYSCFG_DisableIOVdd:
 866              		@ args = 0, pretend = 0, frame = 0
 867              		@ frame_needed = 0, uses_anonymous_args = 0
 868              		@ link register save eliminated.
 869 0000 024A     		ldr	r2, .L133
 870 0002 5368     		ldr	r3, [r2, #4]
 871 0004 23F40073 		bic	r3, r3, #512
ARM GAS  C:\Users\Nathan\AppData\Local\Temp\ccj52w3j.s 			page 15


 872 0008 5360     		str	r3, [r2, #4]
 873 000a 7047     		bx	lr
 874              	.L134:
 875              		.align	2
 876              	.L133:
 877 000c 00000140 		.word	1073807360
 879              		.section	.text.HAL_SYSCFG_EnableSecurityAccess,"ax",%progbits
 880              		.align	1
 881              		.global	HAL_SYSCFG_EnableSecurityAccess
 882              		.syntax unified
 883              		.thumb
 884              		.thumb_func
 886              	HAL_SYSCFG_EnableSecurityAccess:
 887              		@ args = 0, pretend = 0, frame = 0
 888              		@ frame_needed = 0, uses_anonymous_args = 0
 889              		@ link register save eliminated.
 890 0000 034B     		ldr	r3, .L136
 891 0002 D3F81021 		ldr	r2, [r3, #272]
 892 0006 1043     		orrs	r0, r0, r2
 893 0008 C3F81001 		str	r0, [r3, #272]
 894 000c 7047     		bx	lr
 895              	.L137:
 896 000e 00BF     		.align	2
 897              	.L136:
 898 0010 00000140 		.word	1073807360
 900              		.section	.text.HAL_SYSCFG_DisableSecurityAccess,"ax",%progbits
 901              		.align	1
 902              		.global	HAL_SYSCFG_DisableSecurityAccess
 903              		.syntax unified
 904              		.thumb
 905              		.thumb_func
 907              	HAL_SYSCFG_DisableSecurityAccess:
 908              		@ args = 0, pretend = 0, frame = 0
 909              		@ frame_needed = 0, uses_anonymous_args = 0
 910              		@ link register save eliminated.
 911 0000 034A     		ldr	r2, .L139
 912 0002 D2F81031 		ldr	r3, [r2, #272]
 913 0006 23EA0003 		bic	r3, r3, r0
 914 000a C2F81031 		str	r3, [r2, #272]
 915 000e 7047     		bx	lr
 916              	.L140:
 917              		.align	2
 918              	.L139:
 919 0010 00000140 		.word	1073807360
 921              		.section	.text.HAL_SYSCFG_IsEnabledSecurityAccess,"ax",%progbits
 922              		.align	1
 923              		.global	HAL_SYSCFG_IsEnabledSecurityAccess
 924              		.syntax unified
 925              		.thumb
 926              		.thumb_func
 928              	HAL_SYSCFG_IsEnabledSecurityAccess:
 929              		@ args = 0, pretend = 0, frame = 0
 930              		@ frame_needed = 0, uses_anonymous_args = 0
 931              		@ link register save eliminated.
 932 0000 044B     		ldr	r3, .L145
 933 0002 D3F81031 		ldr	r3, [r3, #272]
 934 0006 9843     		bics	r0, r0, r3
ARM GAS  C:\Users\Nathan\AppData\Local\Temp\ccj52w3j.s 			page 16


 935 0008 01D0     		beq	.L144
 936 000a 0020     		movs	r0, #0
 937 000c 7047     		bx	lr
 938              	.L144:
 939 000e 0120     		movs	r0, #1
 940 0010 7047     		bx	lr
 941              	.L146:
 942 0012 00BF     		.align	2
 943              	.L145:
 944 0014 00000140 		.word	1073807360
 946              		.global	uwTickFreq
 947              		.section	.data.uwTickFreq,"aw"
 950              	uwTickFreq:
 951 0000 01       		.byte	1
 952              		.global	uwTickPrio
 953              		.section	.data.uwTickPrio,"aw"
 954              		.align	2
 957              	uwTickPrio:
 958 0000 10000000 		.word	16
 959              		.global	uwTick
 960              		.section	.bss.uwTick,"aw",%nobits
 961              		.align	2
 964              	uwTick:
 965 0000 00000000 		.space	4
 966              		.ident	"GCC: (Arm GNU Toolchain 13.3.Rel1 (Build arm-13.24)) 13.3.1 20240614"
ARM GAS  C:\Users\Nathan\AppData\Local\Temp\ccj52w3j.s 			page 17

