ARM GAS  C:\Users\Nathan\AppData\Local\Temp\ccbzbPNP.s 			page 1


   1              		.cpu cortex-m4
   2              		.arch armv7e-m
   3              		.fpu fpv4-sp-d16
   4              		.eabi_attribute 27, 1
   5              		.eabi_attribute 28, 1
   6              		.eabi_attribute 20, 1
   7              		.eabi_attribute 21, 1
   8              		.eabi_attribute 23, 3
   9              		.eabi_attribute 24, 1
  10              		.eabi_attribute 25, 1
  11              		.eabi_attribute 26, 1
  12              		.eabi_attribute 30, 1
  13              		.eabi_attribute 34, 1
  14              		.eabi_attribute 18, 4
  15              		.file	"stm32wbxx_hal_ipcc.c"
  16              		.text
  17              		.section	.text.HAL_IPCC_RxCallback,"ax",%progbits
  18              		.align	1
  19              		.weak	HAL_IPCC_RxCallback
  20              		.syntax unified
  21              		.thumb
  22              		.thumb_func
  24              	HAL_IPCC_RxCallback:
  25              		@ args = 0, pretend = 0, frame = 0
  26              		@ frame_needed = 0, uses_anonymous_args = 0
  27              		@ link register save eliminated.
  28 0000 7047     		bx	lr
  30              		.section	.text.HAL_IPCC_TxCallback,"ax",%progbits
  31              		.align	1
  32              		.weak	HAL_IPCC_TxCallback
  33              		.syntax unified
  34              		.thumb
  35              		.thumb_func
  37              	HAL_IPCC_TxCallback:
  38              		@ args = 0, pretend = 0, frame = 0
  39              		@ frame_needed = 0, uses_anonymous_args = 0
  40              		@ link register save eliminated.
  41 0000 7047     		bx	lr
  43              		.section	.text.HAL_IPCC_MspInit,"ax",%progbits
  44              		.align	1
  45              		.weak	HAL_IPCC_MspInit
  46              		.syntax unified
  47              		.thumb
  48              		.thumb_func
  50              	HAL_IPCC_MspInit:
  51              		@ args = 0, pretend = 0, frame = 0
  52              		@ frame_needed = 0, uses_anonymous_args = 0
  53              		@ link register save eliminated.
  54 0000 7047     		bx	lr
  56              		.section	.text.HAL_IPCC_MspDeInit,"ax",%progbits
  57              		.align	1
  58              		.weak	HAL_IPCC_MspDeInit
  59              		.syntax unified
  60              		.thumb
  61              		.thumb_func
  63              	HAL_IPCC_MspDeInit:
  64              		@ args = 0, pretend = 0, frame = 0
ARM GAS  C:\Users\Nathan\AppData\Local\Temp\ccbzbPNP.s 			page 2


  65              		@ frame_needed = 0, uses_anonymous_args = 0
  66              		@ link register save eliminated.
  67 0000 7047     		bx	lr
  69              		.section	.text.HAL_IPCC_GetChannelStatus,"ax",%progbits
  70              		.align	1
  71              		.global	HAL_IPCC_GetChannelStatus
  72              		.syntax unified
  73              		.thumb
  74              		.thumb_func
  76              	HAL_IPCC_GetChannelStatus:
  77              		@ args = 0, pretend = 0, frame = 0
  78              		@ frame_needed = 0, uses_anonymous_args = 0
  79              		@ link register save eliminated.
  80 0000 52B9     		cbnz	r2, .L6
  81 0002 094B     		ldr	r3, .L8
  82 0004 D868     		ldr	r0, [r3, #12]
  83 0006 01F00F01 		and	r1, r1, #15
  84 000a 0123     		movs	r3, #1
  85 000c 8B40     		lsls	r3, r3, r1
  86 000e 1840     		ands	r0, r0, r3
  87              	.L7:
  88 0010 0038     		subs	r0, r0, #0
  89 0012 18BF     		it	ne
  90 0014 0120     		movne	r0, #1
  91 0016 7047     		bx	lr
  92              	.L6:
  93 0018 034B     		ldr	r3, .L8
  94 001a D869     		ldr	r0, [r3, #28]
  95 001c 01F00F01 		and	r1, r1, #15
  96 0020 0123     		movs	r3, #1
  97 0022 8B40     		lsls	r3, r3, r1
  98 0024 1840     		ands	r0, r0, r3
  99 0026 F3E7     		b	.L7
 100              	.L9:
 101              		.align	2
 102              	.L8:
 103 0028 000C0058 		.word	1476398080
 105              		.section	.text.HAL_IPCC_TX_IRQHandler,"ax",%progbits
 106              		.align	1
 107              		.global	HAL_IPCC_TX_IRQHandler
 108              		.syntax unified
 109              		.thumb
 110              		.thumb_func
 112              	HAL_IPCC_TX_IRQHandler:
 113              		@ args = 0, pretend = 0, frame = 0
 114              		@ frame_needed = 0, uses_anonymous_args = 0
 115 0000 F8B5     		push	{r3, r4, r5, r6, r7, lr}
 116 0002 0746     		mov	r7, r0
 117 0004 124B     		ldr	r3, .L18
 118 0006 5D68     		ldr	r5, [r3, #4]
 119 0008 ED43     		mvns	r5, r5
 120 000a 05F47C15 		and	r5, r5, #4128768
 121 000e DB68     		ldr	r3, [r3, #12]
 122 0010 25EA0345 		bic	r5, r5, r3, lsl #16
 123 0014 0026     		movs	r6, #0
 124 0016 06E0     		b	.L11
 125              	.L17:
ARM GAS  C:\Users\Nathan\AppData\Local\Temp\ccbzbPNP.s 			page 3


 126 0018 0022     		movs	r2, #0
 127 001a 3146     		mov	r1, r6
 128 001c 3846     		mov	r0, r7
 129 001e 9847     		blx	r3
 130              	.L13:
 131 0020 25EA0405 		bic	r5, r5, r4
 132              	.L12:
 133 0024 0136     		adds	r6, r6, #1
 134              	.L11:
 135 0026 8DB1     		cbz	r5, .L16
 136 0028 06F00F03 		and	r3, r6, #15
 137 002c 1033     		adds	r3, r3, #16
 138 002e 0124     		movs	r4, #1
 139 0030 9C40     		lsls	r4, r4, r3
 140 0032 2542     		tst	r5, r4
 141 0034 F6D0     		beq	.L12
 142 0036 064A     		ldr	r2, .L18
 143 0038 5368     		ldr	r3, [r2, #4]
 144 003a 2343     		orrs	r3, r3, r4
 145 003c 5360     		str	r3, [r2, #4]
 146 003e B31D     		adds	r3, r6, #6
 147 0040 07EB8303 		add	r3, r7, r3, lsl #2
 148 0044 5B68     		ldr	r3, [r3, #4]
 149 0046 002B     		cmp	r3, #0
 150 0048 E6D1     		bne	.L17
 151 004a E9E7     		b	.L13
 152              	.L16:
 153 004c F8BD     		pop	{r3, r4, r5, r6, r7, pc}
 154              	.L19:
 155 004e 00BF     		.align	2
 156              	.L18:
 157 0050 000C0058 		.word	1476398080
 159              		.section	.text.HAL_IPCC_RX_IRQHandler,"ax",%progbits
 160              		.align	1
 161              		.global	HAL_IPCC_RX_IRQHandler
 162              		.syntax unified
 163              		.thumb
 164              		.thumb_func
 166              	HAL_IPCC_RX_IRQHandler:
 167              		@ args = 0, pretend = 0, frame = 0
 168              		@ frame_needed = 0, uses_anonymous_args = 0
 169 0000 F8B5     		push	{r3, r4, r5, r6, r7, lr}
 170 0002 0746     		mov	r7, r0
 171 0004 104A     		ldr	r2, .L28
 172 0006 5368     		ldr	r3, [r2, #4]
 173 0008 DB43     		mvns	r3, r3
 174 000a 03F03F03 		and	r3, r3, #63
 175 000e D669     		ldr	r6, [r2, #28]
 176 0010 1E40     		ands	r6, r6, r3
 177 0012 0025     		movs	r5, #0
 178 0014 06E0     		b	.L21
 179              	.L27:
 180 0016 0122     		movs	r2, #1
 181 0018 2946     		mov	r1, r5
 182 001a 3846     		mov	r0, r7
 183 001c 9847     		blx	r3
 184              	.L23:
ARM GAS  C:\Users\Nathan\AppData\Local\Temp\ccbzbPNP.s 			page 4


 185 001e 26EA0406 		bic	r6, r6, r4
 186              	.L22:
 187 0022 0135     		adds	r5, r5, #1
 188              	.L21:
 189 0024 7EB1     		cbz	r6, .L26
 190 0026 05F00F03 		and	r3, r5, #15
 191 002a 0124     		movs	r4, #1
 192 002c 9C40     		lsls	r4, r4, r3
 193 002e 2642     		tst	r6, r4
 194 0030 F7D0     		beq	.L22
 195 0032 054A     		ldr	r2, .L28
 196 0034 5368     		ldr	r3, [r2, #4]
 197 0036 2343     		orrs	r3, r3, r4
 198 0038 5360     		str	r3, [r2, #4]
 199 003a 07EB8503 		add	r3, r7, r5, lsl #2
 200 003e 5B68     		ldr	r3, [r3, #4]
 201 0040 002B     		cmp	r3, #0
 202 0042 E8D1     		bne	.L27
 203 0044 EBE7     		b	.L23
 204              	.L26:
 205 0046 F8BD     		pop	{r3, r4, r5, r6, r7, pc}
 206              	.L29:
 207              		.align	2
 208              	.L28:
 209 0048 000C0058 		.word	1476398080
 211              		.section	.text.HAL_IPCC_GetState,"ax",%progbits
 212              		.align	1
 213              		.global	HAL_IPCC_GetState
 214              		.syntax unified
 215              		.thumb
 216              		.thumb_func
 218              	HAL_IPCC_GetState:
 219              		@ args = 0, pretend = 0, frame = 0
 220              		@ frame_needed = 0, uses_anonymous_args = 0
 221              		@ link register save eliminated.
 222 0000 90F83800 		ldrb	r0, [r0, #56]	@ zero_extendqisi2
 223 0004 7047     		bx	lr
 225              		.section	.text.IPCC_MaskInterrupt,"ax",%progbits
 226              		.align	1
 227              		.global	IPCC_MaskInterrupt
 228              		.syntax unified
 229              		.thumb
 230              		.thumb_func
 232              	IPCC_MaskInterrupt:
 233              		@ args = 0, pretend = 0, frame = 0
 234              		@ frame_needed = 0, uses_anonymous_args = 0
 235              		@ link register save eliminated.
 236 0000 49B9     		cbnz	r1, .L32
 237 0002 0949     		ldr	r1, .L34
 238 0004 4B68     		ldr	r3, [r1, #4]
 239 0006 00F00F00 		and	r0, r0, #15
 240 000a 4FF48032 		mov	r2, #65536
 241 000e 8240     		lsls	r2, r2, r0
 242 0010 1343     		orrs	r3, r3, r2
 243 0012 4B60     		str	r3, [r1, #4]
 244 0014 7047     		bx	lr
 245              	.L32:
ARM GAS  C:\Users\Nathan\AppData\Local\Temp\ccbzbPNP.s 			page 5


 246 0016 0449     		ldr	r1, .L34
 247 0018 4B68     		ldr	r3, [r1, #4]
 248 001a 00F00F00 		and	r0, r0, #15
 249 001e 0122     		movs	r2, #1
 250 0020 8240     		lsls	r2, r2, r0
 251 0022 1343     		orrs	r3, r3, r2
 252 0024 4B60     		str	r3, [r1, #4]
 253 0026 7047     		bx	lr
 254              	.L35:
 255              		.align	2
 256              	.L34:
 257 0028 000C0058 		.word	1476398080
 259              		.section	.text.HAL_IPCC_DeActivateNotification,"ax",%progbits
 260              		.align	1
 261              		.global	HAL_IPCC_DeActivateNotification
 262              		.syntax unified
 263              		.thumb
 264              		.thumb_func
 266              	HAL_IPCC_DeActivateNotification:
 267              		@ args = 0, pretend = 0, frame = 0
 268              		@ frame_needed = 0, uses_anonymous_args = 0
 269 0000 68B3     		cbz	r0, .L40
 270 0002 08B5     		push	{r3, lr}
 271 0004 8E46     		mov	lr, r1
 272 0006 8446     		mov	ip, r0
 273 0008 90F83830 		ldrb	r3, [r0, #56]	@ zero_extendqisi2
 274 000c DBB2     		uxtb	r3, r3
 275 000e 012B     		cmp	r3, #1
 276 0010 01D0     		beq	.L46
 277 0012 0120     		movs	r0, #1
 278              	.L37:
 279 0014 08BD     		pop	{r3, pc}
 280              	.L46:
 281 0016 A2B9     		cbnz	r2, .L38
 282 0018 8B1D     		adds	r3, r1, #6
 283 001a 00EB8303 		add	r3, r0, r3, lsl #2
 284 001e 1149     		ldr	r1, .L47
 285 0020 5960     		str	r1, [r3, #4]
 286 0022 436B     		ldr	r3, [r0, #52]
 287 0024 0EF00F00 		and	r0, lr, #15
 288 0028 4FF48031 		mov	r1, #65536
 289 002c 8140     		lsls	r1, r1, r0
 290 002e 23EA0103 		bic	r3, r3, r1
 291 0032 CCF83430 		str	r3, [ip, #52]
 292              	.L39:
 293 0036 1146     		mov	r1, r2
 294 0038 7046     		mov	r0, lr
 295 003a FFF7FEFF 		bl	IPCC_MaskInterrupt
 296 003e 0020     		movs	r0, #0
 297 0040 E8E7     		b	.L37
 298              	.L38:
 299 0042 00EB8103 		add	r3, r0, r1, lsl #2
 300 0046 0849     		ldr	r1, .L47+4
 301 0048 5960     		str	r1, [r3, #4]
 302 004a 436B     		ldr	r3, [r0, #52]
 303 004c 0EF00F00 		and	r0, lr, #15
 304 0050 0121     		movs	r1, #1
ARM GAS  C:\Users\Nathan\AppData\Local\Temp\ccbzbPNP.s 			page 6


 305 0052 8140     		lsls	r1, r1, r0
 306 0054 23EA0103 		bic	r3, r3, r1
 307 0058 CCF83430 		str	r3, [ip, #52]
 308 005c EBE7     		b	.L39
 309              	.L40:
 310 005e 0120     		movs	r0, #1
 311 0060 7047     		bx	lr
 312              	.L48:
 313 0062 00BF     		.align	2
 314              	.L47:
 315 0064 00000000 		.word	HAL_IPCC_TxCallback
 316 0068 00000000 		.word	HAL_IPCC_RxCallback
 318              		.section	.text.IPCC_UnmaskInterrupt,"ax",%progbits
 319              		.align	1
 320              		.global	IPCC_UnmaskInterrupt
 321              		.syntax unified
 322              		.thumb
 323              		.thumb_func
 325              	IPCC_UnmaskInterrupt:
 326              		@ args = 0, pretend = 0, frame = 0
 327              		@ frame_needed = 0, uses_anonymous_args = 0
 328              		@ link register save eliminated.
 329 0000 51B9     		cbnz	r1, .L50
 330 0002 0A49     		ldr	r1, .L52
 331 0004 4B68     		ldr	r3, [r1, #4]
 332 0006 00F00F00 		and	r0, r0, #15
 333 000a 4FF48032 		mov	r2, #65536
 334 000e 8240     		lsls	r2, r2, r0
 335 0010 23EA0203 		bic	r3, r3, r2
 336 0014 4B60     		str	r3, [r1, #4]
 337 0016 7047     		bx	lr
 338              	.L50:
 339 0018 0449     		ldr	r1, .L52
 340 001a 4B68     		ldr	r3, [r1, #4]
 341 001c 00F00F00 		and	r0, r0, #15
 342 0020 0122     		movs	r2, #1
 343 0022 8240     		lsls	r2, r2, r0
 344 0024 23EA0203 		bic	r3, r3, r2
 345 0028 4B60     		str	r3, [r1, #4]
 346 002a 7047     		bx	lr
 347              	.L53:
 348              		.align	2
 349              	.L52:
 350 002c 000C0058 		.word	1476398080
 352              		.section	.text.HAL_IPCC_ActivateNotification,"ax",%progbits
 353              		.align	1
 354              		.global	HAL_IPCC_ActivateNotification
 355              		.syntax unified
 356              		.thumb
 357              		.thumb_func
 359              	HAL_IPCC_ActivateNotification:
 360              		@ args = 0, pretend = 0, frame = 0
 361              		@ frame_needed = 0, uses_anonymous_args = 0
 362 0000 78B3     		cbz	r0, .L58
 363 0002 10B5     		push	{r4, lr}
 364 0004 0C46     		mov	r4, r1
 365 0006 8646     		mov	lr, r0
ARM GAS  C:\Users\Nathan\AppData\Local\Temp\ccbzbPNP.s 			page 7


 366 0008 90F838C0 		ldrb	ip, [r0, #56]	@ zero_extendqisi2
 367 000c 5FFA8CFC 		uxtb	ip, ip
 368 0010 BCF1010F 		cmp	ip, #1
 369 0014 01D0     		beq	.L65
 370 0016 0120     		movs	r0, #1
 371              	.L55:
 372 0018 10BD     		pop	{r4, pc}
 373              	.L65:
 374 001a 82B9     		cbnz	r2, .L56
 375 001c 0631     		adds	r1, r1, #6
 376 001e 00EB8101 		add	r1, r0, r1, lsl #2
 377 0022 4B60     		str	r3, [r1, #4]
 378 0024 436B     		ldr	r3, [r0, #52]
 379 0026 04F00F00 		and	r0, r4, #15
 380 002a 4FF48031 		mov	r1, #65536
 381 002e 8140     		lsls	r1, r1, r0
 382 0030 0B43     		orrs	r3, r3, r1
 383 0032 CEF83430 		str	r3, [lr, #52]
 384              	.L57:
 385 0036 012A     		cmp	r2, #1
 386 0038 0DD0     		beq	.L66
 387 003a 0020     		movs	r0, #0
 388 003c ECE7     		b	.L55
 389              	.L56:
 390 003e 00EB8101 		add	r1, r0, r1, lsl #2
 391 0042 4B60     		str	r3, [r1, #4]
 392 0044 436B     		ldr	r3, [r0, #52]
 393 0046 04F00F00 		and	r0, r4, #15
 394 004a 0121     		movs	r1, #1
 395 004c 8140     		lsls	r1, r1, r0
 396 004e 0B43     		orrs	r3, r3, r1
 397 0050 CEF83430 		str	r3, [lr, #52]
 398 0054 EFE7     		b	.L57
 399              	.L66:
 400 0056 1146     		mov	r1, r2
 401 0058 2046     		mov	r0, r4
 402 005a FFF7FEFF 		bl	IPCC_UnmaskInterrupt
 403 005e 0020     		movs	r0, #0
 404 0060 DAE7     		b	.L55
 405              	.L58:
 406 0062 0120     		movs	r0, #1
 407 0064 7047     		bx	lr
 409              		.section	.text.HAL_IPCC_NotifyCPU,"ax",%progbits
 410              		.align	1
 411              		.global	HAL_IPCC_NotifyCPU
 412              		.syntax unified
 413              		.thumb
 414              		.thumb_func
 416              	HAL_IPCC_NotifyCPU:
 417              		@ args = 0, pretend = 0, frame = 0
 418              		@ frame_needed = 0, uses_anonymous_args = 0
 419 0000 90F83830 		ldrb	r3, [r0, #56]	@ zero_extendqisi2
 420 0004 DBB2     		uxtb	r3, r3
 421 0006 012B     		cmp	r3, #1
 422 0008 01D0     		beq	.L77
 423 000a 0120     		movs	r0, #1
 424 000c 7047     		bx	lr
ARM GAS  C:\Users\Nathan\AppData\Local\Temp\ccbzbPNP.s 			page 8


 425              	.L77:
 426 000e 10B5     		push	{r4, lr}
 427 0010 8C46     		mov	ip, r1
 428 0012 0C4B     		ldr	r3, .L79
 429 0014 9968     		ldr	r1, [r3, #8]
 430 0016 62B9     		cbnz	r2, .L71
 431 0018 4FF48033 		mov	r3, #65536
 432              	.L69:
 433 001c 0CF00F04 		and	r4, ip, #15
 434 0020 A340     		lsls	r3, r3, r4
 435 0022 1943     		orrs	r1, r1, r3
 436 0024 074C     		ldr	r4, .L79
 437 0026 A160     		str	r1, [r4, #8]
 438 0028 416B     		ldr	r1, [r0, #52]
 439 002a 8B43     		bics	r3, r3, r1
 440 002c 03D0     		beq	.L78
 441 002e 0020     		movs	r0, #0
 442              	.L68:
 443 0030 10BD     		pop	{r4, pc}
 444              	.L71:
 445 0032 0123     		movs	r3, #1
 446 0034 F2E7     		b	.L69
 447              	.L78:
 448 0036 1146     		mov	r1, r2
 449 0038 6046     		mov	r0, ip
 450 003a FFF7FEFF 		bl	IPCC_UnmaskInterrupt
 451 003e 0020     		movs	r0, #0
 452 0040 F6E7     		b	.L68
 453              	.L80:
 454 0042 00BF     		.align	2
 455              	.L79:
 456 0044 000C0058 		.word	1476398080
 458              		.section	.text.IPCC_SetDefaultCallbacks,"ax",%progbits
 459              		.align	1
 460              		.global	IPCC_SetDefaultCallbacks
 461              		.syntax unified
 462              		.thumb
 463              		.thumb_func
 465              	IPCC_SetDefaultCallbacks:
 466              		@ args = 0, pretend = 0, frame = 0
 467              		@ frame_needed = 0, uses_anonymous_args = 0
 468              		@ link register save eliminated.
 469 0000 0023     		movs	r3, #0
 470 0002 09E0     		b	.L82
 471              	.L83:
 472 0004 00EB8302 		add	r2, r0, r3, lsl #2
 473 0008 0549     		ldr	r1, .L84
 474 000a 5160     		str	r1, [r2, #4]
 475 000c 9A1D     		adds	r2, r3, #6
 476 000e 00EB8202 		add	r2, r0, r2, lsl #2
 477 0012 0449     		ldr	r1, .L84+4
 478 0014 5160     		str	r1, [r2, #4]
 479 0016 0133     		adds	r3, r3, #1
 480              	.L82:
 481 0018 052B     		cmp	r3, #5
 482 001a F3D9     		bls	.L83
 483 001c 7047     		bx	lr
ARM GAS  C:\Users\Nathan\AppData\Local\Temp\ccbzbPNP.s 			page 9


 484              	.L85:
 485 001e 00BF     		.align	2
 486              	.L84:
 487 0020 00000000 		.word	HAL_IPCC_RxCallback
 488 0024 00000000 		.word	HAL_IPCC_TxCallback
 490              		.section	.text.IPCC_Reset_Register,"ax",%progbits
 491              		.align	1
 492              		.global	IPCC_Reset_Register
 493              		.syntax unified
 494              		.thumb
 495              		.thumb_func
 497              	IPCC_Reset_Register:
 498              		@ args = 0, pretend = 0, frame = 0
 499              		@ frame_needed = 0, uses_anonymous_args = 0
 500              		@ link register save eliminated.
 501 0000 0023     		movs	r3, #0
 502 0002 0360     		str	r3, [r0]
 503 0004 4FF03F13 		mov	r3, #4128831
 504 0008 4360     		str	r3, [r0, #4]
 505 000a 3F23     		movs	r3, #63
 506 000c 8360     		str	r3, [r0, #8]
 507 000e 7047     		bx	lr
 509              		.section	.text.HAL_IPCC_Init,"ax",%progbits
 510              		.align	1
 511              		.global	HAL_IPCC_Init
 512              		.syntax unified
 513              		.thumb
 514              		.thumb_func
 516              	HAL_IPCC_Init:
 517              		@ args = 0, pretend = 0, frame = 0
 518              		@ frame_needed = 0, uses_anonymous_args = 0
 519 0000 C0B1     		cbz	r0, .L90
 520 0002 38B5     		push	{r3, r4, r5, lr}
 521 0004 0446     		mov	r4, r0
 522 0006 90F83830 		ldrb	r3, [r0, #56]	@ zero_extendqisi2
 523 000a 83B1     		cbz	r3, .L95
 524              	.L89:
 525 000c 0A4D     		ldr	r5, .L96
 526 000e 2846     		mov	r0, r5
 527 0010 FFF7FEFF 		bl	IPCC_Reset_Register
 528 0014 2B68     		ldr	r3, [r5]
 529 0016 43F00113 		orr	r3, r3, #65537
 530 001a 2B60     		str	r3, [r5]
 531 001c 2046     		mov	r0, r4
 532 001e FFF7FEFF 		bl	IPCC_SetDefaultCallbacks
 533 0022 0020     		movs	r0, #0
 534 0024 6063     		str	r0, [r4, #52]
 535 0026 0123     		movs	r3, #1
 536 0028 84F83830 		strb	r3, [r4, #56]
 537 002c 38BD     		pop	{r3, r4, r5, pc}
 538              	.L95:
 539 002e FFF7FEFF 		bl	HAL_IPCC_MspInit
 540 0032 EBE7     		b	.L89
 541              	.L90:
 542 0034 0120     		movs	r0, #1
 543 0036 7047     		bx	lr
 544              	.L97:
ARM GAS  C:\Users\Nathan\AppData\Local\Temp\ccbzbPNP.s 			page 10


 545              		.align	2
 546              	.L96:
 547 0038 000C0058 		.word	1476398080
 549              		.section	.text.HAL_IPCC_DeInit,"ax",%progbits
 550              		.align	1
 551              		.global	HAL_IPCC_DeInit
 552              		.syntax unified
 553              		.thumb
 554              		.thumb_func
 556              	HAL_IPCC_DeInit:
 557              		@ args = 0, pretend = 0, frame = 0
 558              		@ frame_needed = 0, uses_anonymous_args = 0
 559 0000 98B1     		cbz	r0, .L100
 560 0002 38B5     		push	{r3, r4, r5, lr}
 561 0004 0546     		mov	r5, r0
 562 0006 0223     		movs	r3, #2
 563 0008 80F83830 		strb	r3, [r0, #56]
 564 000c 0848     		ldr	r0, .L105
 565 000e FFF7FEFF 		bl	IPCC_Reset_Register
 566 0012 2846     		mov	r0, r5
 567 0014 FFF7FEFF 		bl	IPCC_SetDefaultCallbacks
 568 0018 0024     		movs	r4, #0
 569 001a 6C63     		str	r4, [r5, #52]
 570 001c 2846     		mov	r0, r5
 571 001e FFF7FEFF 		bl	HAL_IPCC_MspDeInit
 572 0022 85F83840 		strb	r4, [r5, #56]
 573 0026 2046     		mov	r0, r4
 574 0028 38BD     		pop	{r3, r4, r5, pc}
 575              	.L100:
 576 002a 0120     		movs	r0, #1
 577 002c 7047     		bx	lr
 578              	.L106:
 579 002e 00BF     		.align	2
 580              	.L105:
 581 0030 000C0058 		.word	1476398080
 583              		.ident	"GCC: (Arm GNU Toolchain 13.3.Rel1 (Build arm-13.24)) 13.3.1 20240614"
ARM GAS  C:\Users\Nathan\AppData\Local\Temp\ccbzbPNP.s 			page 11

