ARM GAS  C:\Users\Nathan\AppData\Local\Temp\ccaAr3im.s 			page 1


   1              		.cpu cortex-m4
   2              		.arch armv7e-m
   3              		.fpu fpv4-sp-d16
   4              		.eabi_attribute 27, 1
   5              		.eabi_attribute 28, 1
   6              		.eabi_attribute 20, 1
   7              		.eabi_attribute 21, 1
   8              		.eabi_attribute 23, 3
   9              		.eabi_attribute 24, 1
  10              		.eabi_attribute 25, 1
  11              		.eabi_attribute 26, 1
  12              		.eabi_attribute 30, 1
  13              		.eabi_attribute 34, 1
  14              		.eabi_attribute 18, 4
  15              		.file	"stm_queue.c"
  16              		.text
  17              		.section	.text.CircularQueue_Init,"ax",%progbits
  18              		.align	1
  19              		.global	CircularQueue_Init
  20              		.syntax unified
  21              		.thumb
  22              		.thumb_func
  24              	CircularQueue_Init:
  25              		@ args = 4, pretend = 0, frame = 0
  26              		@ frame_needed = 0, uses_anonymous_args = 0
  27              		@ link register save eliminated.
  28 0000 9DF800C0 		ldrb	ip, [sp]	@ zero_extendqisi2
  29 0004 0160     		str	r1, [r0]
  30 0006 0021     		movs	r1, #0
  31 0008 C160     		str	r1, [r0, #12]
  32 000a 0161     		str	r1, [r0, #16]
  33 000c 4161     		str	r1, [r0, #20]
  34 000e 8161     		str	r1, [r0, #24]
  35 0010 4260     		str	r2, [r0, #4]
  36 0012 0381     		strh	r3, [r0, #8]	@ movhi
  37 0014 80F81CC0 		strb	ip, [r0, #28]
  38 0018 1CF0020F 		tst	ip, #2
  39 001c 02D0     		beq	.L3
  40 001e 1BB9     		cbnz	r3, .L4
  41 0020 0846     		mov	r0, r1
  42 0022 7047     		bx	lr
  43              	.L3:
  44 0024 0020     		movs	r0, #0
  45 0026 7047     		bx	lr
  46              	.L4:
  47 0028 4FF0FF30 		mov	r0, #-1
  48 002c 7047     		bx	lr
  50              		.section	.text.CircularQueue_Add,"ax",%progbits
  51              		.align	1
  52              		.global	CircularQueue_Add
  53              		.syntax unified
  54              		.thumb
  55              		.thumb_func
  57              	CircularQueue_Add:
  58              		@ args = 0, pretend = 0, frame = 16
  59              		@ frame_needed = 0, uses_anonymous_args = 0
  60 0000 2DE9F04F 		push	{r4, r5, r6, r7, r8, r9, r10, fp, lr}
ARM GAS  C:\Users\Nathan\AppData\Local\Temp\ccaAr3im.s 			page 2


  61 0004 85B0     		sub	sp, sp, #20
  62 0006 0446     		mov	r4, r0
  63 0008 0291     		str	r1, [sp, #8]
  64 000a 9A46     		mov	r10, r3
  65 000c 0689     		ldrh	r6, [r0, #8]
  66 000e C6B9     		cbnz	r6, .L29
  67 0010 4FF0020B 		mov	fp, #2
  68              	.L6:
  69 0014 6169     		ldr	r1, [r4, #20]
  70 0016 B9B1     		cbz	r1, .L30
  71 0018 16BB     		cbnz	r6, .L31
  72 001a 2568     		ldr	r5, [r4]
  73 001c 2369     		ldr	r3, [r4, #16]
  74 001e 15F80380 		ldrb	r8, [r5, r3]	@ zero_extendqisi2
  75 0022 581C     		adds	r0, r3, #1
  76 0024 6768     		ldr	r7, [r4, #4]
  77 0026 B842     		cmp	r0, r7
  78 0028 01D3     		bcc	.L8
  79 002a DB1B     		subs	r3, r3, r7
  80 002c 581C     		adds	r0, r3, #1
  81              	.L8:
  82 002e 2B5C     		ldrb	r3, [r5, r0]	@ zero_extendqisi2
  83 0030 08EB0328 		add	r8, r8, r3, lsl #8
  84 0034 1FFA88F8 		uxth	r8, r8
  85 0038 08F10208 		add	r8, r8, #2
  86 003c 1FFA88F8 		uxth	r8, r8
  87 0040 04E0     		b	.L7
  88              	.L29:
  89 0042 4FF0000B 		mov	fp, #0
  90 0046 E5E7     		b	.L6
  91              	.L30:
  92 0048 4FF00008 		mov	r8, #0
  93              	.L7:
  94 004c 06B9     		cbnz	r6, .L9
  95 004e 1646     		mov	r6, r2
  96              	.L9:
  97 0050 2269     		ldr	r2, [r4, #16]
  98 0052 E368     		ldr	r3, [r4, #12]
  99 0054 9A42     		cmp	r2, r3
 100 0056 05D3     		bcc	.L32
 101 0058 6368     		ldr	r3, [r4, #4]
 102 005a 4244     		add	r2, r2, r8
 103 005c 9B1A     		subs	r3, r3, r2
 104 005e 02E0     		b	.L10
 105              	.L31:
 106 0060 B046     		mov	r8, r6
 107 0062 F3E7     		b	.L7
 108              	.L32:
 109 0064 0023     		movs	r3, #0
 110              	.L10:
 111 0066 06EB0B02 		add	r2, r6, fp
 112 006a 0AFB02F0 		mul	r0, r10, r2
 113 006e 9842     		cmp	r0, r3
 114 0070 05D3     		bcc	.L33
 115 0072 B3FBF2F5 		udiv	r5, r3, r2
 116 0076 02FB1533 		mls	r3, r2, r5, r3
 117 007a DBB2     		uxtb	r3, r3
ARM GAS  C:\Users\Nathan\AppData\Local\Temp\ccaAr3im.s 			page 3


 118 007c 00E0     		b	.L11
 119              	.L33:
 120 007e 0023     		movs	r3, #0
 121              	.L11:
 122 0080 9B45     		cmp	fp, r3
 123 0082 05D2     		bcs	.L34
 124 0084 227F     		ldrb	r2, [r4, #28]	@ zero_extendqisi2
 125 0086 12F0010F 		tst	r2, #1
 126 008a 15D0     		beq	.L35
 127 008c 1A46     		mov	r2, r3
 128 008e 00E0     		b	.L12
 129              	.L34:
 130 0090 0022     		movs	r2, #0
 131              	.L12:
 132 0092 9B45     		cmp	fp, r3
 133 0094 04D2     		bcs	.L13
 134 0096 237F     		ldrb	r3, [r4, #28]	@ zero_extendqisi2
 135 0098 13F0020F 		tst	r3, #2
 136 009c 00D0     		beq	.L13
 137 009e 5A46     		mov	r2, fp
 138              	.L13:
 139 00a0 002E     		cmp	r6, #0
 140 00a2 00F0C580 		beq	.L36
 141 00a6 0144     		add	r1, r1, r0
 142 00a8 0A44     		add	r2, r2, r1
 143 00aa 6368     		ldr	r3, [r4, #4]
 144 00ac 9A42     		cmp	r2, r3
 145 00ae 05D8     		bhi	.L41
 146 00b0 0023     		movs	r3, #0
 147 00b2 0193     		str	r3, [sp, #4]
 148 00b4 1F46     		mov	r7, r3
 149 00b6 1DE0     		b	.L15
 150              	.L35:
 151 00b8 0022     		movs	r2, #0
 152 00ba EAE7     		b	.L12
 153              	.L41:
 154 00bc 0020     		movs	r0, #0
 155 00be B4E0     		b	.L5
 156              	.L20:
 157 00c0 2068     		ldr	r0, [r4]
 158 00c2 2A46     		mov	r2, r5
 159 00c4 0299     		ldr	r1, [sp, #8]
 160 00c6 07FB0911 		mla	r1, r7, r9, r1
 161 00ca 1844     		add	r0, r0, r3
 162 00cc FFF7FEFF 		bl	memcpy
 163 00d0 6369     		ldr	r3, [r4, #20]
 164 00d2 2B44     		add	r3, r3, r5
 165 00d4 6361     		str	r3, [r4, #20]
 166 00d6 0BEB0608 		add	r8, fp, r6
 167 00da 1FFA88F8 		uxth	r8, r8
 168 00de 0195     		str	r5, [sp, #4]
 169 00e0 A9EB0505 		sub	r5, r9, r5
 170 00e4 0023     		movs	r3, #0
 171              	.L22:
 172 00e6 002D     		cmp	r5, #0
 173 00e8 40F08680 		bne	.L42
 174              	.L26:
ARM GAS  C:\Users\Nathan\AppData\Local\Temp\ccaAr3im.s 			page 4


 175 00ec A369     		ldr	r3, [r4, #24]
 176 00ee 0133     		adds	r3, r3, #1
 177 00f0 A361     		str	r3, [r4, #24]
 178 00f2 0137     		adds	r7, r7, #1
 179              	.L15:
 180 00f4 5745     		cmp	r7, r10
 181 00f6 80F08F80 		bcs	.L43
 182 00fa 2369     		ldr	r3, [r4, #16]
 183 00fc 4344     		add	r3, r3, r8
 184 00fe 6268     		ldr	r2, [r4, #4]
 185 0100 9342     		cmp	r3, r2
 186 0102 00D3     		bcc	.L16
 187 0104 9B1A     		subs	r3, r3, r2
 188              	.L16:
 189 0106 2361     		str	r3, [r4, #16]
 190 0108 2289     		ldrh	r2, [r4, #8]
 191 010a 8AB9     		cbnz	r2, .L17
 192 010c 2168     		ldr	r1, [r4]
 193 010e 5A1C     		adds	r2, r3, #1
 194 0110 CE54     		strb	r6, [r1, r3]
 195 0112 6368     		ldr	r3, [r4, #4]
 196 0114 9342     		cmp	r3, r2
 197 0116 00D8     		bhi	.L18
 198 0118 D21A     		subs	r2, r2, r3
 199              	.L18:
 200 011a 310A     		lsrs	r1, r6, #8
 201 011c 2068     		ldr	r0, [r4]
 202 011e 531C     		adds	r3, r2, #1
 203 0120 8154     		strb	r1, [r0, r2]
 204 0122 6268     		ldr	r2, [r4, #4]
 205 0124 9A42     		cmp	r2, r3
 206 0126 00D8     		bhi	.L19
 207 0128 9B1A     		subs	r3, r3, r2
 208              	.L19:
 209 012a 6269     		ldr	r2, [r4, #20]
 210 012c 0232     		adds	r2, r2, #2
 211 012e 6261     		str	r2, [r4, #20]
 212              	.L17:
 213 0130 B146     		mov	r9, r6
 214 0132 6268     		ldr	r2, [r4, #4]
 215 0134 D21A     		subs	r2, r2, r3
 216 0136 3546     		mov	r5, r6
 217 0138 9642     		cmp	r6, r2
 218 013a 28BF     		it	cs
 219 013c 1546     		movcs	r5, r2
 220 013e 9642     		cmp	r6, r2
 221 0140 BED9     		bls	.L20
 222 0142 AE42     		cmp	r6, r5
 223 0144 02D9     		bls	.L21
 224 0146 227F     		ldrb	r2, [r4, #28]	@ zero_extendqisi2
 225 0148 002A     		cmp	r2, #0
 226 014a B9D0     		beq	.L20
 227              	.L21:
 228 014c 002D     		cmp	r5, #0
 229 014e CAD0     		beq	.L22
 230 0150 227F     		ldrb	r2, [r4, #28]	@ zero_extendqisi2
 231 0152 12F0010F 		tst	r2, #1
ARM GAS  C:\Users\Nathan\AppData\Local\Temp\ccaAr3im.s 			page 5


 232 0156 22D0     		beq	.L23
 233 0158 2289     		ldrh	r2, [r4, #8]
 234 015a 32B9     		cbnz	r2, .L24
 235 015c 2068     		ldr	r0, [r4]
 236 015e 991E     		subs	r1, r3, #2
 237 0160 FF22     		movs	r2, #255
 238 0162 4254     		strb	r2, [r0, r1]
 239 0164 2168     		ldr	r1, [r4]
 240 0166 013B     		subs	r3, r3, #1
 241 0168 CA54     		strb	r2, [r1, r3]
 242              	.L24:
 243 016a 6369     		ldr	r3, [r4, #20]
 244 016c 2B44     		add	r3, r3, r5
 245 016e 6361     		str	r3, [r4, #20]
 246 0170 2389     		ldrh	r3, [r4, #8]
 247 0172 002B     		cmp	r3, #0
 248 0174 3CD1     		bne	.L38
 249 0176 2368     		ldr	r3, [r4]
 250 0178 1E70     		strb	r6, [r3]
 251 017a 4FEA1923 		lsr	r3, r9, #8
 252 017e 2268     		ldr	r2, [r4]
 253 0180 5370     		strb	r3, [r2, #1]
 254 0182 6369     		ldr	r3, [r4, #20]
 255 0184 0233     		adds	r3, r3, #2
 256 0186 6361     		str	r3, [r4, #20]
 257 0188 4D46     		mov	r5, r9
 258 018a 0023     		movs	r3, #0
 259 018c 0193     		str	r3, [sp, #4]
 260 018e 0223     		movs	r3, #2
 261              	.L25:
 262 0190 1BFA85F8 		uxtah	r8, fp, r5
 263 0194 1FFA88F8 		uxth	r8, r8
 264 0198 0022     		movs	r2, #0
 265 019a 2261     		str	r2, [r4, #16]
 266 019c A3E7     		b	.L22
 267              	.L23:
 268 019e 12F0020F 		tst	r2, #2
 269 01a2 F5D0     		beq	.L25
 270 01a4 2289     		ldrh	r2, [r4, #8]
 271 01a6 002A     		cmp	r2, #0
 272 01a8 44D1     		bne	.L39
 273 01aa 2168     		ldr	r1, [r4]
 274 01ac 9A1E     		subs	r2, r3, #2
 275 01ae 8D54     		strb	r5, [r1, r2]
 276 01b0 280A     		lsrs	r0, r5, #8
 277 01b2 2168     		ldr	r1, [r4]
 278 01b4 5A1E     		subs	r2, r3, #1
 279 01b6 8854     		strb	r0, [r1, r2]
 280 01b8 2068     		ldr	r0, [r4]
 281 01ba 2A46     		mov	r2, r5
 282 01bc 0299     		ldr	r1, [sp, #8]
 283 01be 07FB0911 		mla	r1, r7, r9, r1
 284 01c2 1844     		add	r0, r0, r3
 285 01c4 FFF7FEFF 		bl	memcpy
 286 01c8 6369     		ldr	r3, [r4, #20]
 287 01ca 2B44     		add	r3, r3, r5
 288 01cc 6361     		str	r3, [r4, #20]
ARM GAS  C:\Users\Nathan\AppData\Local\Temp\ccaAr3im.s 			page 6


 289 01ce A9EB0502 		sub	r2, r9, r5
 290 01d2 A369     		ldr	r3, [r4, #24]
 291 01d4 0133     		adds	r3, r3, #1
 292 01d6 A361     		str	r3, [r4, #24]
 293 01d8 2368     		ldr	r3, [r4]
 294 01da 1A70     		strb	r2, [r3]
 295 01dc 110A     		lsrs	r1, r2, #8
 296 01de 2368     		ldr	r3, [r4]
 297 01e0 5970     		strb	r1, [r3, #1]
 298 01e2 6369     		ldr	r3, [r4, #20]
 299 01e4 0233     		adds	r3, r3, #2
 300 01e6 6361     		str	r3, [r4, #20]
 301 01e8 0195     		str	r5, [sp, #4]
 302 01ea 1546     		mov	r5, r2
 303 01ec 0223     		movs	r3, #2
 304 01ee CFE7     		b	.L25
 305              	.L38:
 306 01f0 4D46     		mov	r5, r9
 307 01f2 0023     		movs	r3, #0
 308 01f4 0193     		str	r3, [sp, #4]
 309 01f6 CBE7     		b	.L25
 310              	.L42:
 311 01f8 2068     		ldr	r0, [r4]
 312 01fa 0390     		str	r0, [sp, #12]
 313 01fc 019A     		ldr	r2, [sp, #4]
 314 01fe 07FB0921 		mla	r1, r7, r9, r2
 315 0202 2A46     		mov	r2, r5
 316 0204 0298     		ldr	r0, [sp, #8]
 317 0206 0144     		add	r1, r1, r0
 318 0208 0398     		ldr	r0, [sp, #12]
 319 020a 1844     		add	r0, r0, r3
 320 020c FFF7FEFF 		bl	memcpy
 321 0210 6369     		ldr	r3, [r4, #20]
 322 0212 2B44     		add	r3, r3, r5
 323 0214 6361     		str	r3, [r4, #20]
 324 0216 69E7     		b	.L26
 325              	.L43:
 326 0218 2068     		ldr	r0, [r4]
 327 021a 2369     		ldr	r3, [r4, #16]
 328 021c 9B44     		add	fp, fp, r3
 329 021e 6368     		ldr	r3, [r4, #4]
 330 0220 9B45     		cmp	fp, r3
 331 0222 01D3     		bcc	.L28
 332 0224 ABEB030B 		sub	fp, fp, r3
 333              	.L28:
 334 0228 5844     		add	r0, r0, fp
 335              	.L5:
 336 022a 05B0     		add	sp, sp, #20
 337              		@ sp needed
 338 022c BDE8F08F 		pop	{r4, r5, r6, r7, r8, r9, r10, fp, pc}
 339              	.L36:
 340 0230 0020     		movs	r0, #0
 341 0232 FAE7     		b	.L5
 342              	.L39:
 343 0234 0020     		movs	r0, #0
 344 0236 F8E7     		b	.L5
 346              		.section	.text.CircularQueue_Remove_Copy,"ax",%progbits
ARM GAS  C:\Users\Nathan\AppData\Local\Temp\ccaAr3im.s 			page 7


 347              		.align	1
 348              		.global	CircularQueue_Remove_Copy
 349              		.syntax unified
 350              		.thumb
 351              		.thumb_func
 353              	CircularQueue_Remove_Copy:
 354              		@ args = 0, pretend = 0, frame = 0
 355              		@ frame_needed = 0, uses_anonymous_args = 0
 356              		@ link register save eliminated.
 357 0000 0020     		movs	r0, #0
 358 0002 7047     		bx	lr
 360              		.section	.text.CircularQueue_Remove,"ax",%progbits
 361              		.align	1
 362              		.global	CircularQueue_Remove
 363              		.syntax unified
 364              		.thumb
 365              		.thumb_func
 367              	CircularQueue_Remove:
 368              		@ args = 0, pretend = 0, frame = 0
 369              		@ frame_needed = 0, uses_anonymous_args = 0
 370 0000 F0B5     		push	{r4, r5, r6, r7, lr}
 371 0002 0346     		mov	r3, r0
 372 0004 0089     		ldrh	r0, [r0, #8]
 373 0006 A8B9     		cbnz	r0, .L58
 374 0008 4FF0020C 		mov	ip, #2
 375              	.L46:
 376 000c 5D69     		ldr	r5, [r3, #20]
 377 000e 002D     		cmp	r5, #0
 378 0010 5DD0     		beq	.L59
 379 0012 90B9     		cbnz	r0, .L60
 380 0014 1F68     		ldr	r7, [r3]
 381 0016 DC68     		ldr	r4, [r3, #12]
 382 0018 3A5D     		ldrb	r2, [r7, r4]	@ zero_extendqisi2
 383 001a 661C     		adds	r6, r4, #1
 384 001c D3F804E0 		ldr	lr, [r3, #4]
 385 0020 7645     		cmp	r6, lr
 386 0022 02D3     		bcc	.L49
 387 0024 A4EB0E04 		sub	r4, r4, lr
 388 0028 661C     		adds	r6, r4, #1
 389              	.L49:
 390 002a BC5D     		ldrb	r4, [r7, r6]	@ zero_extendqisi2
 391 002c 02EB0422 		add	r2, r2, r4, lsl #8
 392 0030 92B2     		uxth	r2, r2
 393 0032 03E0     		b	.L48
 394              	.L58:
 395 0034 4FF0000C 		mov	ip, #0
 396 0038 E8E7     		b	.L46
 397              	.L60:
 398 003a 0246     		mov	r2, r0
 399              	.L48:
 400 003c 1C7F     		ldrb	r4, [r3, #28]	@ zero_extendqisi2
 401 003e 04F00304 		and	r4, r4, #3
 402 0042 012C     		cmp	r4, #1
 403 0044 1BD0     		beq	.L64
 404              	.L50:
 405 0046 1868     		ldr	r0, [r3]
 406 0048 DD68     		ldr	r5, [r3, #12]
ARM GAS  C:\Users\Nathan\AppData\Local\Temp\ccaAr3im.s 			page 8


 407 004a E646     		mov	lr, ip
 408 004c 05EB0C04 		add	r4, r5, ip
 409 0050 5E68     		ldr	r6, [r3, #4]
 410 0052 B442     		cmp	r4, r6
 411 0054 00D3     		bcc	.L54
 412 0056 A41B     		subs	r4, r4, r6
 413              	.L54:
 414 0058 2044     		add	r0, r0, r4
 415 005a 5C69     		ldr	r4, [r3, #20]
 416 005c 9444     		add	ip, ip, r2
 417 005e A4EB0C04 		sub	r4, r4, ip
 418 0062 5C61     		str	r4, [r3, #20]
 419 0064 2CB1     		cbz	r4, .L55
 420 0066 1544     		add	r5, r5, r2
 421 0068 7544     		add	r5, r5, lr
 422 006a AE42     		cmp	r6, r5
 423 006c 00D8     		bhi	.L56
 424 006e AD1B     		subs	r5, r5, r6
 425              	.L56:
 426 0070 DD60     		str	r5, [r3, #12]
 427              	.L55:
 428 0072 9C69     		ldr	r4, [r3, #24]
 429 0074 013C     		subs	r4, r4, #1
 430 0076 9C61     		str	r4, [r3, #24]
 431              	.L47:
 432 0078 01B1     		cbz	r1, .L45
 433 007a 0A80     		strh	r2, [r1]	@ movhi
 434              	.L45:
 435 007c F0BD     		pop	{r4, r5, r6, r7, pc}
 436              	.L64:
 437 007e 4FF6FF74 		movw	r4, #65535
 438 0082 A242     		cmp	r2, r4
 439 0084 0AD0     		beq	.L65
 440              	.L51:
 441 0086 DC68     		ldr	r4, [r3, #12]
 442 0088 1E69     		ldr	r6, [r3, #16]
 443 008a B442     		cmp	r4, r6
 444 008c DBD9     		bls	.L50
 445 008e 0028     		cmp	r0, #0
 446 0090 D9D0     		beq	.L50
 447 0092 5E68     		ldr	r6, [r3, #4]
 448 0094 361B     		subs	r6, r6, r4
 449 0096 8642     		cmp	r6, r0
 450 0098 D5D2     		bcs	.L50
 451 009a 01E0     		b	.L52
 452              	.L65:
 453 009c 0028     		cmp	r0, #0
 454 009e F2D1     		bne	.L51
 455              	.L52:
 456 00a0 DA68     		ldr	r2, [r3, #12]
 457 00a2 5C68     		ldr	r4, [r3, #4]
 458 00a4 121B     		subs	r2, r2, r4
 459 00a6 2A44     		add	r2, r2, r5
 460 00a8 5A61     		str	r2, [r3, #20]
 461 00aa 0022     		movs	r2, #0
 462 00ac DA60     		str	r2, [r3, #12]
 463 00ae 60B9     		cbnz	r0, .L61
ARM GAS  C:\Users\Nathan\AppData\Local\Temp\ccaAr3im.s 			page 9


 464 00b0 1868     		ldr	r0, [r3]
 465 00b2 0278     		ldrb	r2, [r0]	@ zero_extendqisi2
 466 00b4 012C     		cmp	r4, #1
 467 00b6 05D9     		bls	.L66
 468 00b8 0124     		movs	r4, #1
 469              	.L53:
 470 00ba 005D     		ldrb	r0, [r0, r4]	@ zero_extendqisi2
 471 00bc 02EB0022 		add	r2, r2, r0, lsl #8
 472 00c0 92B2     		uxth	r2, r2
 473 00c2 C0E7     		b	.L50
 474              	.L66:
 475 00c4 C4F10104 		rsb	r4, r4, #1
 476 00c8 F7E7     		b	.L53
 477              	.L61:
 478 00ca 0246     		mov	r2, r0
 479 00cc BBE7     		b	.L50
 480              	.L59:
 481 00ce 0022     		movs	r2, #0
 482 00d0 1046     		mov	r0, r2
 483 00d2 D1E7     		b	.L47
 485              		.section	.text.CircularQueue_Sense_Copy,"ax",%progbits
 486              		.align	1
 487              		.global	CircularQueue_Sense_Copy
 488              		.syntax unified
 489              		.thumb
 490              		.thumb_func
 492              	CircularQueue_Sense_Copy:
 493              		@ args = 0, pretend = 0, frame = 0
 494              		@ frame_needed = 0, uses_anonymous_args = 0
 495              		@ link register save eliminated.
 496 0000 0020     		movs	r0, #0
 497 0002 7047     		bx	lr
 499              		.section	.text.CircularQueue_Sense,"ax",%progbits
 500              		.align	1
 501              		.global	CircularQueue_Sense
 502              		.syntax unified
 503              		.thumb
 504              		.thumb_func
 506              	CircularQueue_Sense:
 507              		@ args = 0, pretend = 0, frame = 0
 508              		@ frame_needed = 0, uses_anonymous_args = 0
 509              		@ link register save eliminated.
 510 0000 F0B4     		push	{r4, r5, r6, r7}
 511 0002 0589     		ldrh	r5, [r0, #8]
 512 0004 ADB9     		cbnz	r5, .L79
 513 0006 0223     		movs	r3, #2
 514              	.L69:
 515 0008 4269     		ldr	r2, [r0, #20]
 516 000a 002A     		cmp	r2, #0
 517 000c 47D0     		beq	.L80
 518 000e C668     		ldr	r6, [r0, #12]
 519 0010 8DB9     		cbnz	r5, .L81
 520 0012 D0F800C0 		ldr	ip, [r0]
 521 0016 1CF80620 		ldrb	r2, [ip, r6]	@ zero_extendqisi2
 522 001a 741C     		adds	r4, r6, #1
 523 001c 4768     		ldr	r7, [r0, #4]
 524 001e BC42     		cmp	r4, r7
ARM GAS  C:\Users\Nathan\AppData\Local\Temp\ccaAr3im.s 			page 10


 525 0020 01D3     		bcc	.L72
 526 0022 F71B     		subs	r7, r6, r7
 527 0024 7C1C     		adds	r4, r7, #1
 528              	.L72:
 529 0026 1CF80440 		ldrb	r4, [ip, r4]	@ zero_extendqisi2
 530 002a 02EB0422 		add	r2, r2, r4, lsl #8
 531 002e 92B2     		uxth	r2, r2
 532 0030 02E0     		b	.L71
 533              	.L79:
 534 0032 0023     		movs	r3, #0
 535 0034 E8E7     		b	.L69
 536              	.L81:
 537 0036 2A46     		mov	r2, r5
 538              	.L71:
 539 0038 047F     		ldrb	r4, [r0, #28]	@ zero_extendqisi2
 540 003a 04F00304 		and	r4, r4, #3
 541 003e 012C     		cmp	r4, #1
 542 0040 0AD0     		beq	.L85
 543              	.L73:
 544 0042 0468     		ldr	r4, [r0]
 545 0044 3344     		add	r3, r3, r6
 546 0046 4068     		ldr	r0, [r0, #4]
 547 0048 8342     		cmp	r3, r0
 548 004a 00D3     		bcc	.L77
 549 004c 1B1A     		subs	r3, r3, r0
 550              	.L77:
 551 004e E018     		adds	r0, r4, r3
 552              	.L70:
 553 0050 01B1     		cbz	r1, .L68
 554 0052 0A80     		strh	r2, [r1]	@ movhi
 555              	.L68:
 556 0054 F0BC     		pop	{r4, r5, r6, r7}
 557 0056 7047     		bx	lr
 558              	.L85:
 559 0058 4FF6FF74 		movw	r4, #65535
 560 005c A242     		cmp	r2, r4
 561 005e 09D0     		beq	.L86
 562              	.L74:
 563 0060 0469     		ldr	r4, [r0, #16]
 564 0062 B442     		cmp	r4, r6
 565 0064 EDD2     		bcs	.L73
 566 0066 002D     		cmp	r5, #0
 567 0068 EBD0     		beq	.L73
 568 006a 4468     		ldr	r4, [r0, #4]
 569 006c A41B     		subs	r4, r4, r6
 570 006e AC42     		cmp	r4, r5
 571 0070 E7D2     		bcs	.L73
 572 0072 01E0     		b	.L75
 573              	.L86:
 574 0074 002D     		cmp	r5, #0
 575 0076 F3D1     		bne	.L74
 576              	.L75:
 577 0078 75B9     		cbnz	r5, .L82
 578 007a 0568     		ldr	r5, [r0]
 579 007c 2A78     		ldrb	r2, [r5]	@ zero_extendqisi2
 580 007e 4468     		ldr	r4, [r0, #4]
 581 0080 012C     		cmp	r4, #1
ARM GAS  C:\Users\Nathan\AppData\Local\Temp\ccaAr3im.s 			page 11


 582 0082 06D9     		bls	.L87
 583 0084 0124     		movs	r4, #1
 584              	.L76:
 585 0086 2C5D     		ldrb	r4, [r5, r4]	@ zero_extendqisi2
 586 0088 02EB0422 		add	r2, r2, r4, lsl #8
 587 008c 92B2     		uxth	r2, r2
 588 008e 0026     		movs	r6, #0
 589 0090 D7E7     		b	.L73
 590              	.L87:
 591 0092 C4F10104 		rsb	r4, r4, #1
 592 0096 F6E7     		b	.L76
 593              	.L82:
 594 0098 2A46     		mov	r2, r5
 595 009a 0026     		movs	r6, #0
 596 009c D1E7     		b	.L73
 597              	.L80:
 598 009e 0022     		movs	r2, #0
 599 00a0 1046     		mov	r0, r2
 600 00a2 D5E7     		b	.L70
 602              		.section	.text.CircularQueue_Empty,"ax",%progbits
 603              		.align	1
 604              		.global	CircularQueue_Empty
 605              		.syntax unified
 606              		.thumb
 607              		.thumb_func
 609              	CircularQueue_Empty:
 610              		@ args = 0, pretend = 0, frame = 0
 611              		@ frame_needed = 0, uses_anonymous_args = 0
 612              		@ link register save eliminated.
 613 0000 4369     		ldr	r3, [r0, #20]
 614 0002 0BB1     		cbz	r3, .L90
 615 0004 0020     		movs	r0, #0
 616 0006 7047     		bx	lr
 617              	.L90:
 618 0008 0120     		movs	r0, #1
 619 000a 7047     		bx	lr
 621              		.section	.text.CircularQueue_NbElement,"ax",%progbits
 622              		.align	1
 623              		.global	CircularQueue_NbElement
 624              		.syntax unified
 625              		.thumb
 626              		.thumb_func
 628              	CircularQueue_NbElement:
 629              		@ args = 0, pretend = 0, frame = 0
 630              		@ frame_needed = 0, uses_anonymous_args = 0
 631              		@ link register save eliminated.
 632 0000 8069     		ldr	r0, [r0, #24]
 633 0002 7047     		bx	lr
 635              		.ident	"GCC: (Arm GNU Toolchain 13.3.Rel1 (Build arm-13.24)) 13.3.1 20240614"
ARM GAS  C:\Users\Nathan\AppData\Local\Temp\ccaAr3im.s 			page 12

