ARM GAS  C:\Users\Nathan\AppData\Local\Temp\ccYRF31q.s 			page 1


   1              		.cpu cortex-m4
   2              		.arch armv7e-m
   3              		.fpu fpv4-sp-d16
   4              		.eabi_attribute 27, 1
   5              		.eabi_attribute 28, 1
   6              		.eabi_attribute 20, 1
   7              		.eabi_attribute 21, 1
   8              		.eabi_attribute 23, 3
   9              		.eabi_attribute 24, 1
  10              		.eabi_attribute 25, 1
  11              		.eabi_attribute 26, 1
  12              		.eabi_attribute 30, 1
  13              		.eabi_attribute 34, 1
  14              		.eabi_attribute 18, 4
  15              		.file	"tl_mbox.c"
  16              		.text
  17              		.section	.text.SendFreeBuf,"ax",%progbits
  18              		.align	1
  19              		.syntax unified
  20              		.thumb
  21              		.thumb_func
  23              	SendFreeBuf:
  24              		@ args = 0, pretend = 0, frame = 8
  25              		@ frame_needed = 0, uses_anonymous_args = 0
  26 0000 00B5     		push	{lr}
  27 0002 83B0     		sub	sp, sp, #12
  28 0004 09E0     		b	.L2
  29              	.L3:
  30 0006 01A9     		add	r1, sp, #4
  31 0008 0848     		ldr	r0, .L5
  32 000a FFF7FEFF 		bl	LST_remove_head
  33 000e 084B     		ldr	r3, .L5+4
  34 0010 1B69     		ldr	r3, [r3, #16]
  35 0012 0199     		ldr	r1, [sp, #4]
  36 0014 1869     		ldr	r0, [r3, #16]
  37 0016 FFF7FEFF 		bl	LST_insert_tail
  38              	.L2:
  39 001a 0448     		ldr	r0, .L5
  40 001c FFF7FEFF 		bl	LST_is_empty
  41 0020 0028     		cmp	r0, #0
  42 0022 F0D0     		beq	.L3
  43 0024 03B0     		add	sp, sp, #12
  44              		@ sp needed
  45 0026 5DF804FB 		ldr	pc, [sp], #4
  46              	.L6:
  47 002a 00BF     		.align	2
  48              	.L5:
  49 002c 00000000 		.word	LocalFreeBufQueue
  50 0030 00000000 		.word	TL_RefTable
  52              		.section	.text.TL_Enable,"ax",%progbits
  53              		.align	1
  54              		.global	TL_Enable
  55              		.syntax unified
  56              		.thumb
  57              		.thumb_func
  59              	TL_Enable:
  60              		@ args = 0, pretend = 0, frame = 0
ARM GAS  C:\Users\Nathan\AppData\Local\Temp\ccYRF31q.s 			page 2


  61              		@ frame_needed = 0, uses_anonymous_args = 0
  62 0000 08B5     		push	{r3, lr}
  63 0002 FFF7FEFF 		bl	HW_IPCC_Enable
  64 0006 08BD     		pop	{r3, pc}
  66              		.section	.text.TL_Init,"ax",%progbits
  67              		.align	1
  68              		.global	TL_Init
  69              		.syntax unified
  70              		.thumb
  71              		.thumb_func
  73              	TL_Init:
  74              		@ args = 0, pretend = 0, frame = 0
  75              		@ frame_needed = 0, uses_anonymous_args = 0
  76 0000 08B5     		push	{r3, lr}
  77 0002 0C4B     		ldr	r3, .L11
  78 0004 0C4A     		ldr	r2, .L11+4
  79 0006 1A60     		str	r2, [r3]
  80 0008 0C4A     		ldr	r2, .L11+8
  81 000a 5A60     		str	r2, [r3, #4]
  82 000c 0C4A     		ldr	r2, .L11+12
  83 000e 9A60     		str	r2, [r3, #8]
  84 0010 0C4A     		ldr	r2, .L11+16
  85 0012 1A62     		str	r2, [r3, #32]
  86 0014 0C4A     		ldr	r2, .L11+20
  87 0016 5A62     		str	r2, [r3, #36]
  88 0018 0C4A     		ldr	r2, .L11+24
  89 001a DA60     		str	r2, [r3, #12]
  90 001c 0C4A     		ldr	r2, .L11+28
  91 001e 1A61     		str	r2, [r3, #16]
  92 0020 0C4A     		ldr	r2, .L11+32
  93 0022 5A61     		str	r2, [r3, #20]
  94 0024 0C4A     		ldr	r2, .L11+36
  95 0026 9A61     		str	r2, [r3, #24]
  96 0028 0C4A     		ldr	r2, .L11+40
  97 002a DA61     		str	r2, [r3, #28]
  98 002c FFF7FEFF 		bl	HW_IPCC_Init
  99 0030 08BD     		pop	{r3, pc}
 100              	.L12:
 101 0032 00BF     		.align	2
 102              	.L11:
 103 0034 00000000 		.word	TL_RefTable
 104 0038 90000000 		.word	TL_DeviceInfoTable
 105 003c 80000000 		.word	TL_BleTable
 106 0040 70000000 		.word	TL_ThreadTable
 107 0044 68000000 		.word	TL_LldTestsTable
 108 0048 60000000 		.word	TL_BleLldTable
 109 004c 58000000 		.word	TL_SysTable
 110 0050 3C000000 		.word	TL_MemManagerTable
 111 0054 38000000 		.word	TL_TracesTable
 112 0058 2C000000 		.word	TL_Mac_802_15_4_Table
 113 005c 20000000 		.word	TL_Zigbee_Table
 115              		.section	.text.TL_BLE_Init,"ax",%progbits
 116              		.align	1
 117              		.global	TL_BLE_Init
 118              		.syntax unified
 119              		.thumb
 120              		.thumb_func
ARM GAS  C:\Users\Nathan\AppData\Local\Temp\ccYRF31q.s 			page 3


 122              	TL_BLE_Init:
 123              		@ args = 0, pretend = 0, frame = 0
 124              		@ frame_needed = 0, uses_anonymous_args = 0
 125 0000 38B5     		push	{r3, r4, r5, lr}
 126 0002 0446     		mov	r4, r0
 127 0004 0B4D     		ldr	r5, .L15
 128 0006 2846     		mov	r0, r5
 129 0008 FFF7FEFF 		bl	LST_init_head
 130 000c 0A4B     		ldr	r3, .L15+4
 131 000e 5B68     		ldr	r3, [r3, #4]
 132 0010 A268     		ldr	r2, [r4, #8]
 133 0012 1A60     		str	r2, [r3]
 134 0014 E268     		ldr	r2, [r4, #12]
 135 0016 DA60     		str	r2, [r3, #12]
 136 0018 084A     		ldr	r2, .L15+8
 137 001a 5A60     		str	r2, [r3, #4]
 138 001c 9D60     		str	r5, [r3, #8]
 139 001e FFF7FEFF 		bl	HW_IPCC_BLE_Init
 140 0022 2268     		ldr	r2, [r4]
 141 0024 064B     		ldr	r3, .L15+12
 142 0026 1A60     		str	r2, [r3]
 143 0028 6268     		ldr	r2, [r4, #4]
 144 002a 064B     		ldr	r3, .L15+16
 145 002c 1A60     		str	r2, [r3]
 146 002e 0020     		movs	r0, #0
 147 0030 38BD     		pop	{r3, r4, r5, pc}
 148              	.L16:
 149 0032 00BF     		.align	2
 150              	.L15:
 151 0034 08000000 		.word	EvtQueue
 152 0038 00000000 		.word	TL_RefTable
 153 003c 00000000 		.word	CsBuffer
 154 0040 00000000 		.word	BLE_IoBusEvtCallBackFunction
 155 0044 00000000 		.word	BLE_IoBusAclDataTxAck
 157              		.section	.text.TL_BLE_SendCmd,"ax",%progbits
 158              		.align	1
 159              		.global	TL_BLE_SendCmd
 160              		.syntax unified
 161              		.thumb
 162              		.thumb_func
 164              	TL_BLE_SendCmd:
 165              		@ args = 0, pretend = 0, frame = 0
 166              		@ frame_needed = 0, uses_anonymous_args = 0
 167 0000 08B5     		push	{r3, lr}
 168 0002 054B     		ldr	r3, .L19
 169 0004 5A68     		ldr	r2, [r3, #4]
 170 0006 1268     		ldr	r2, [r2]
 171 0008 0121     		movs	r1, #1
 172 000a 1172     		strb	r1, [r2, #8]
 173 000c 5B68     		ldr	r3, [r3, #4]
 174 000e FFF7FEFF 		bl	HW_IPCC_BLE_SendCmd
 175 0012 0020     		movs	r0, #0
 176 0014 08BD     		pop	{r3, pc}
 177              	.L20:
 178 0016 00BF     		.align	2
 179              	.L19:
 180 0018 00000000 		.word	TL_RefTable
ARM GAS  C:\Users\Nathan\AppData\Local\Temp\ccYRF31q.s 			page 4


 182              		.section	.text.HW_IPCC_BLE_RxEvtNot,"ax",%progbits
 183              		.align	1
 184              		.global	HW_IPCC_BLE_RxEvtNot
 185              		.syntax unified
 186              		.thumb
 187              		.thumb_func
 189              	HW_IPCC_BLE_RxEvtNot:
 190              		@ args = 0, pretend = 0, frame = 8
 191              		@ frame_needed = 0, uses_anonymous_args = 0
 192 0000 00B5     		push	{lr}
 193 0002 83B0     		sub	sp, sp, #12
 194 0004 07E0     		b	.L22
 195              	.L23:
 196 0006 01A9     		add	r1, sp, #4
 197 0008 0748     		ldr	r0, .L25
 198 000a FFF7FEFF 		bl	LST_remove_head
 199 000e 074B     		ldr	r3, .L25+4
 200 0010 1B68     		ldr	r3, [r3]
 201 0012 0198     		ldr	r0, [sp, #4]
 202 0014 9847     		blx	r3
 203              	.L22:
 204 0016 0448     		ldr	r0, .L25
 205 0018 FFF7FEFF 		bl	LST_is_empty
 206 001c 0028     		cmp	r0, #0
 207 001e F2D0     		beq	.L23
 208 0020 03B0     		add	sp, sp, #12
 209              		@ sp needed
 210 0022 5DF804FB 		ldr	pc, [sp], #4
 211              	.L26:
 212 0026 00BF     		.align	2
 213              	.L25:
 214 0028 08000000 		.word	EvtQueue
 215 002c 00000000 		.word	BLE_IoBusEvtCallBackFunction
 217              		.section	.text.TL_BLE_SendAclData,"ax",%progbits
 218              		.align	1
 219              		.global	TL_BLE_SendAclData
 220              		.syntax unified
 221              		.thumb
 222              		.thumb_func
 224              	TL_BLE_SendAclData:
 225              		@ args = 0, pretend = 0, frame = 0
 226              		@ frame_needed = 0, uses_anonymous_args = 0
 227 0000 08B5     		push	{r3, lr}
 228 0002 044B     		ldr	r3, .L29
 229 0004 5B68     		ldr	r3, [r3, #4]
 230 0006 DB68     		ldr	r3, [r3, #12]
 231 0008 0222     		movs	r2, #2
 232 000a 1A72     		strb	r2, [r3, #8]
 233 000c FFF7FEFF 		bl	HW_IPCC_BLE_SendAclData
 234 0010 0020     		movs	r0, #0
 235 0012 08BD     		pop	{r3, pc}
 236              	.L30:
 237              		.align	2
 238              	.L29:
 239 0014 00000000 		.word	TL_RefTable
 241              		.section	.text.HW_IPCC_BLE_AclDataAckNot,"ax",%progbits
 242              		.align	1
ARM GAS  C:\Users\Nathan\AppData\Local\Temp\ccYRF31q.s 			page 5


 243              		.global	HW_IPCC_BLE_AclDataAckNot
 244              		.syntax unified
 245              		.thumb
 246              		.thumb_func
 248              	HW_IPCC_BLE_AclDataAckNot:
 249              		@ args = 0, pretend = 0, frame = 0
 250              		@ frame_needed = 0, uses_anonymous_args = 0
 251 0000 08B5     		push	{r3, lr}
 252 0002 024B     		ldr	r3, .L33
 253 0004 1B68     		ldr	r3, [r3]
 254 0006 9847     		blx	r3
 255 0008 08BD     		pop	{r3, pc}
 256              	.L34:
 257 000a 00BF     		.align	2
 258              	.L33:
 259 000c 00000000 		.word	BLE_IoBusAclDataTxAck
 261              		.section	.text.TL_SYS_Init,"ax",%progbits
 262              		.align	1
 263              		.global	TL_SYS_Init
 264              		.syntax unified
 265              		.thumb
 266              		.thumb_func
 268              	TL_SYS_Init:
 269              		@ args = 0, pretend = 0, frame = 0
 270              		@ frame_needed = 0, uses_anonymous_args = 0
 271 0000 38B5     		push	{r3, r4, r5, lr}
 272 0002 0446     		mov	r4, r0
 273 0004 094D     		ldr	r5, .L37
 274 0006 2846     		mov	r0, r5
 275 0008 FFF7FEFF 		bl	LST_init_head
 276 000c 084B     		ldr	r3, .L37+4
 277 000e DB68     		ldr	r3, [r3, #12]
 278 0010 A268     		ldr	r2, [r4, #8]
 279 0012 1A60     		str	r2, [r3]
 280 0014 5D60     		str	r5, [r3, #4]
 281 0016 FFF7FEFF 		bl	HW_IPCC_SYS_Init
 282 001a 2268     		ldr	r2, [r4]
 283 001c 054B     		ldr	r3, .L37+8
 284 001e 1A60     		str	r2, [r3]
 285 0020 6268     		ldr	r2, [r4, #4]
 286 0022 054B     		ldr	r3, .L37+12
 287 0024 1A60     		str	r2, [r3]
 288 0026 0020     		movs	r0, #0
 289 0028 38BD     		pop	{r3, r4, r5, pc}
 290              	.L38:
 291 002a 00BF     		.align	2
 292              	.L37:
 293 002c 00000000 		.word	SystemEvtQueue
 294 0030 00000000 		.word	TL_RefTable
 295 0034 00000000 		.word	SYS_CMD_IoBusCallBackFunction
 296 0038 00000000 		.word	SYS_EVT_IoBusCallBackFunction
 298              		.section	.text.TL_SYS_SendCmd,"ax",%progbits
 299              		.align	1
 300              		.global	TL_SYS_SendCmd
 301              		.syntax unified
 302              		.thumb
 303              		.thumb_func
ARM GAS  C:\Users\Nathan\AppData\Local\Temp\ccYRF31q.s 			page 6


 305              	TL_SYS_SendCmd:
 306              		@ args = 0, pretend = 0, frame = 0
 307              		@ frame_needed = 0, uses_anonymous_args = 0
 308 0000 08B5     		push	{r3, lr}
 309 0002 054B     		ldr	r3, .L41
 310 0004 DA68     		ldr	r2, [r3, #12]
 311 0006 1268     		ldr	r2, [r2]
 312 0008 1021     		movs	r1, #16
 313 000a 1172     		strb	r1, [r2, #8]
 314 000c DB68     		ldr	r3, [r3, #12]
 315 000e FFF7FEFF 		bl	HW_IPCC_SYS_SendCmd
 316 0012 0020     		movs	r0, #0
 317 0014 08BD     		pop	{r3, pc}
 318              	.L42:
 319 0016 00BF     		.align	2
 320              	.L41:
 321 0018 00000000 		.word	TL_RefTable
 323              		.section	.text.HW_IPCC_SYS_CmdEvtNot,"ax",%progbits
 324              		.align	1
 325              		.global	HW_IPCC_SYS_CmdEvtNot
 326              		.syntax unified
 327              		.thumb
 328              		.thumb_func
 330              	HW_IPCC_SYS_CmdEvtNot:
 331              		@ args = 0, pretend = 0, frame = 0
 332              		@ frame_needed = 0, uses_anonymous_args = 0
 333 0000 08B5     		push	{r3, lr}
 334 0002 044B     		ldr	r3, .L45
 335 0004 DA68     		ldr	r2, [r3, #12]
 336 0006 DA68     		ldr	r2, [r3, #12]
 337 0008 034B     		ldr	r3, .L45+4
 338 000a 1B68     		ldr	r3, [r3]
 339 000c 1068     		ldr	r0, [r2]
 340 000e 9847     		blx	r3
 341 0010 08BD     		pop	{r3, pc}
 342              	.L46:
 343 0012 00BF     		.align	2
 344              	.L45:
 345 0014 00000000 		.word	TL_RefTable
 346 0018 00000000 		.word	SYS_CMD_IoBusCallBackFunction
 348              		.section	.text.HW_IPCC_SYS_EvtNot,"ax",%progbits
 349              		.align	1
 350              		.global	HW_IPCC_SYS_EvtNot
 351              		.syntax unified
 352              		.thumb
 353              		.thumb_func
 355              	HW_IPCC_SYS_EvtNot:
 356              		@ args = 0, pretend = 0, frame = 8
 357              		@ frame_needed = 0, uses_anonymous_args = 0
 358 0000 00B5     		push	{lr}
 359 0002 83B0     		sub	sp, sp, #12
 360 0004 07E0     		b	.L48
 361              	.L49:
 362 0006 01A9     		add	r1, sp, #4
 363 0008 0748     		ldr	r0, .L51
 364 000a FFF7FEFF 		bl	LST_remove_head
 365 000e 074B     		ldr	r3, .L51+4
ARM GAS  C:\Users\Nathan\AppData\Local\Temp\ccYRF31q.s 			page 7


 366 0010 1B68     		ldr	r3, [r3]
 367 0012 0198     		ldr	r0, [sp, #4]
 368 0014 9847     		blx	r3
 369              	.L48:
 370 0016 0448     		ldr	r0, .L51
 371 0018 FFF7FEFF 		bl	LST_is_empty
 372 001c 0028     		cmp	r0, #0
 373 001e F2D0     		beq	.L49
 374 0020 03B0     		add	sp, sp, #12
 375              		@ sp needed
 376 0022 5DF804FB 		ldr	pc, [sp], #4
 377              	.L52:
 378 0026 00BF     		.align	2
 379              	.L51:
 380 0028 00000000 		.word	SystemEvtQueue
 381 002c 00000000 		.word	SYS_EVT_IoBusCallBackFunction
 383              		.section	.text.TL_MM_Init,"ax",%progbits
 384              		.align	1
 385              		.global	TL_MM_Init
 386              		.syntax unified
 387              		.thumb
 388              		.thumb_func
 390              	TL_MM_Init:
 391              		@ args = 0, pretend = 0, frame = 0
 392              		@ frame_needed = 0, uses_anonymous_args = 0
 393 0000 38B5     		push	{r3, r4, r5, lr}
 394 0002 0446     		mov	r4, r0
 395 0004 0C4D     		ldr	r5, .L55
 396 0006 2846     		mov	r0, r5
 397 0008 FFF7FEFF 		bl	LST_init_head
 398 000c 0B48     		ldr	r0, .L55+4
 399 000e FFF7FEFF 		bl	LST_init_head
 400 0012 0B4B     		ldr	r3, .L55+8
 401 0014 1B69     		ldr	r3, [r3, #16]
 402 0016 0B4A     		ldr	r2, .L55+12
 403 0018 1360     		str	r3, [r2]
 404 001a A268     		ldr	r2, [r4, #8]
 405 001c 9A60     		str	r2, [r3, #8]
 406 001e E268     		ldr	r2, [r4, #12]
 407 0020 DA60     		str	r2, [r3, #12]
 408 0022 1D61     		str	r5, [r3, #16]
 409 0024 2268     		ldr	r2, [r4]
 410 0026 1A60     		str	r2, [r3]
 411 0028 6268     		ldr	r2, [r4, #4]
 412 002a 5A60     		str	r2, [r3, #4]
 413 002c 2269     		ldr	r2, [r4, #16]
 414 002e 5A61     		str	r2, [r3, #20]
 415 0030 6269     		ldr	r2, [r4, #20]
 416 0032 9A61     		str	r2, [r3, #24]
 417 0034 38BD     		pop	{r3, r4, r5, pc}
 418              	.L56:
 419 0036 00BF     		.align	2
 420              	.L55:
 421 0038 18000000 		.word	FreeBufQueue
 422 003c 00000000 		.word	LocalFreeBufQueue
 423 0040 00000000 		.word	TL_RefTable
 424 0044 00000000 		.word	p_mem_manager_table.0
ARM GAS  C:\Users\Nathan\AppData\Local\Temp\ccYRF31q.s 			page 8


 426              		.section	.text.TL_MM_EvtDone,"ax",%progbits
 427              		.align	1
 428              		.global	TL_MM_EvtDone
 429              		.syntax unified
 430              		.thumb
 431              		.thumb_func
 433              	TL_MM_EvtDone:
 434              		@ args = 0, pretend = 0, frame = 0
 435              		@ frame_needed = 0, uses_anonymous_args = 0
 436 0000 08B5     		push	{r3, lr}
 437 0002 0146     		mov	r1, r0
 438 0004 0348     		ldr	r0, .L59
 439 0006 FFF7FEFF 		bl	LST_insert_tail
 440 000a 0348     		ldr	r0, .L59+4
 441 000c FFF7FEFF 		bl	HW_IPCC_MM_SendFreeBuf
 442 0010 08BD     		pop	{r3, pc}
 443              	.L60:
 444 0012 00BF     		.align	2
 445              	.L59:
 446 0014 00000000 		.word	LocalFreeBufQueue
 447 0018 00000000 		.word	SendFreeBuf
 449              		.section	.text.TL_TRACES_Init,"ax",%progbits
 450              		.align	1
 451              		.global	TL_TRACES_Init
 452              		.syntax unified
 453              		.thumb
 454              		.thumb_func
 456              	TL_TRACES_Init:
 457              		@ args = 0, pretend = 0, frame = 0
 458              		@ frame_needed = 0, uses_anonymous_args = 0
 459 0000 10B5     		push	{r4, lr}
 460 0002 054C     		ldr	r4, .L63
 461 0004 2046     		mov	r0, r4
 462 0006 FFF7FEFF 		bl	LST_init_head
 463 000a 044B     		ldr	r3, .L63+4
 464 000c 5B69     		ldr	r3, [r3, #20]
 465 000e 1C60     		str	r4, [r3]
 466 0010 FFF7FEFF 		bl	HW_IPCC_TRACES_Init
 467 0014 10BD     		pop	{r4, pc}
 468              	.L64:
 469 0016 00BF     		.align	2
 470              	.L63:
 471 0018 10000000 		.word	TracesEvtQueue
 472 001c 00000000 		.word	TL_RefTable
 474              		.section	.text.TL_TRACES_EvtReceived,"ax",%progbits
 475              		.align	1
 476              		.weak	TL_TRACES_EvtReceived
 477              		.syntax unified
 478              		.thumb
 479              		.thumb_func
 481              	TL_TRACES_EvtReceived:
 482              		@ args = 0, pretend = 0, frame = 0
 483              		@ frame_needed = 0, uses_anonymous_args = 0
 484              		@ link register save eliminated.
 485 0000 7047     		bx	lr
 487              		.section	.text.HW_IPCC_TRACES_EvtNot,"ax",%progbits
 488              		.align	1
ARM GAS  C:\Users\Nathan\AppData\Local\Temp\ccYRF31q.s 			page 9


 489              		.global	HW_IPCC_TRACES_EvtNot
 490              		.syntax unified
 491              		.thumb
 492              		.thumb_func
 494              	HW_IPCC_TRACES_EvtNot:
 495              		@ args = 0, pretend = 0, frame = 8
 496              		@ frame_needed = 0, uses_anonymous_args = 0
 497 0000 00B5     		push	{lr}
 498 0002 83B0     		sub	sp, sp, #12
 499 0004 06E0     		b	.L67
 500              	.L68:
 501 0006 01A9     		add	r1, sp, #4
 502 0008 0648     		ldr	r0, .L70
 503 000a FFF7FEFF 		bl	LST_remove_head
 504 000e 0198     		ldr	r0, [sp, #4]
 505 0010 FFF7FEFF 		bl	TL_TRACES_EvtReceived
 506              	.L67:
 507 0014 0348     		ldr	r0, .L70
 508 0016 FFF7FEFF 		bl	LST_is_empty
 509 001a 0028     		cmp	r0, #0
 510 001c F3D0     		beq	.L68
 511 001e 03B0     		add	sp, sp, #12
 512              		@ sp needed
 513 0020 5DF804FB 		ldr	pc, [sp], #4
 514              	.L71:
 515              		.align	2
 516              	.L70:
 517 0024 10000000 		.word	TracesEvtQueue
 519              		.section	.bss.p_mem_manager_table.0,"aw",%nobits
 520              		.align	2
 523              	p_mem_manager_table.0:
 524 0000 00000000 		.space	4
 525              		.section	.bss.SYS_EVT_IoBusCallBackFunction,"aw",%nobits
 526              		.align	2
 529              	SYS_EVT_IoBusCallBackFunction:
 530 0000 00000000 		.space	4
 531              		.section	.bss.SYS_CMD_IoBusCallBackFunction,"aw",%nobits
 532              		.align	2
 535              	SYS_CMD_IoBusCallBackFunction:
 536 0000 00000000 		.space	4
 537              		.section	.bss.BLE_IoBusAclDataTxAck,"aw",%nobits
 538              		.align	2
 541              	BLE_IoBusAclDataTxAck:
 542 0000 00000000 		.space	4
 543              		.section	.bss.BLE_IoBusEvtCallBackFunction,"aw",%nobits
 544              		.align	2
 547              	BLE_IoBusEvtCallBackFunction:
 548 0000 00000000 		.space	4
 549              		.section	.bss.LocalFreeBufQueue,"aw",%nobits
 550              		.align	2
 553              	LocalFreeBufQueue:
 554 0000 00000000 		.space	8
 554      00000000 
 555              		.section	MB_MEM1,"aw"
 556              		.align	2
 559              	SystemEvtQueue:
 560 0000 00000000 		.space	8
ARM GAS  C:\Users\Nathan\AppData\Local\Temp\ccYRF31q.s 			page 10


 560      00000000 
 561              		.align	2
 564              	EvtQueue:
 565 0008 00000000 		.space	8
 565      00000000 
 566              		.section	MB_MEM2,"aw"
 567              		.align	2
 570              	CsBuffer:
 571 0000 00000000 		.space	15
 571      00000000 
 571      00000000 
 571      000000
 572              		.section	MB_MEM1
 573              		.align	2
 576              	TracesEvtQueue:
 577 0010 00000000 		.space	8
 577      00000000 
 578              		.align	2
 581              	FreeBufQueue:
 582 0018 00000000 		.space	8
 582      00000000 
 583              		.align	2
 586              	TL_Zigbee_Table:
 587 0020 00000000 		.space	12
 587      00000000 
 587      00000000 
 588              		.align	2
 591              	TL_Mac_802_15_4_Table:
 592 002c 00000000 		.space	12
 592      00000000 
 592      00000000 
 593              		.align	2
 596              	TL_TracesTable:
 597 0038 00000000 		.space	4
 598              		.align	2
 601              	TL_MemManagerTable:
 602 003c 00000000 		.space	28
 602      00000000 
 602      00000000 
 602      00000000 
 602      00000000 
 603              		.align	2
 606              	TL_SysTable:
 607 0058 00000000 		.space	8
 607      00000000 
 608              		.align	2
 611              	TL_BleLldTable:
 612 0060 00000000 		.space	8
 612      00000000 
 613              		.align	2
 616              	TL_LldTestsTable:
 617 0068 00000000 		.space	8
 617      00000000 
 618              		.align	2
 621              	TL_ThreadTable:
 622 0070 00000000 		.space	16
 622      00000000 
ARM GAS  C:\Users\Nathan\AppData\Local\Temp\ccYRF31q.s 			page 11


 622      00000000 
 622      00000000 
 623              		.align	2
 626              	TL_BleTable:
 627 0080 00000000 		.space	16
 627      00000000 
 627      00000000 
 627      00000000 
 628              		.align	2
 631              	TL_DeviceInfoTable:
 632 0090 00000000 		.space	32
 632      00000000 
 632      00000000 
 632      00000000 
 632      00000000 
 633              		.section	MAPPING_TABLE,"aw"
 634              		.align	2
 637              	TL_RefTable:
 638 0000 00000000 		.space	40
 638      00000000 
 638      00000000 
 638      00000000 
 638      00000000 
 639              		.ident	"GCC: (Arm GNU Toolchain 13.3.Rel1 (Build arm-13.24)) 13.3.1 20240614"
ARM GAS  C:\Users\Nathan\AppData\Local\Temp\ccYRF31q.s 			page 12

