ARM GAS  C:\Users\Nathan\AppData\Local\Temp\ccmkOw3U.s 			page 1


   1              		.cpu cortex-m4
   2              		.arch armv7e-m
   3              		.fpu fpv4-sp-d16
   4              		.eabi_attribute 27, 1
   5              		.eabi_attribute 28, 1
   6              		.eabi_attribute 20, 1
   7              		.eabi_attribute 21, 1
   8              		.eabi_attribute 23, 3
   9              		.eabi_attribute 24, 1
  10              		.eabi_attribute 25, 1
  11              		.eabi_attribute 26, 1
  12              		.eabi_attribute 30, 1
  13              		.eabi_attribute 34, 1
  14              		.eabi_attribute 18, 4
  15              		.file	"usbd_desc.c"
  16              		.text
  17              		.section	.text.USBD_HID_DeviceDescriptor,"ax",%progbits
  18              		.align	1
  19              		.global	USBD_HID_DeviceDescriptor
  20              		.syntax unified
  21              		.thumb
  22              		.thumb_func
  24              	USBD_HID_DeviceDescriptor:
  25              		@ args = 0, pretend = 0, frame = 0
  26              		@ frame_needed = 0, uses_anonymous_args = 0
  27              		@ link register save eliminated.
  28 0000 1223     		movs	r3, #18
  29 0002 0B80     		strh	r3, [r1]	@ movhi
  30 0004 0048     		ldr	r0, .L2
  31 0006 7047     		bx	lr
  32              	.L3:
  33              		.align	2
  34              	.L2:
  35 0008 00000000 		.word	USBD_HID_DeviceDesc
  37              		.section	.text.USBD_HID_LangIDStrDescriptor,"ax",%progbits
  38              		.align	1
  39              		.global	USBD_HID_LangIDStrDescriptor
  40              		.syntax unified
  41              		.thumb
  42              		.thumb_func
  44              	USBD_HID_LangIDStrDescriptor:
  45              		@ args = 0, pretend = 0, frame = 0
  46              		@ frame_needed = 0, uses_anonymous_args = 0
  47              		@ link register save eliminated.
  48 0000 0423     		movs	r3, #4
  49 0002 0B80     		strh	r3, [r1]	@ movhi
  50 0004 0048     		ldr	r0, .L5
  51 0006 7047     		bx	lr
  52              	.L6:
  53              		.align	2
  54              	.L5:
  55 0008 00000000 		.word	USBD_LangIDDesc
  57              		.section	.text.IntToUnicode,"ax",%progbits
  58              		.align	1
  59              		.syntax unified
  60              		.thumb
  61              		.thumb_func
ARM GAS  C:\Users\Nathan\AppData\Local\Temp\ccmkOw3U.s 			page 2


  63              	IntToUnicode:
  64              		@ args = 0, pretend = 0, frame = 0
  65              		@ frame_needed = 0, uses_anonymous_args = 0
  66 0000 0023     		movs	r3, #0
  67 0002 9342     		cmp	r3, r2
  68 0004 1ED2     		bcs	.L15
  69 0006 00B5     		push	{lr}
  70 0008 10E0     		b	.L11
  71              	.L9:
  72 000a 0CF1370C 		add	ip, ip, #55
  73 000e 01F813C0 		strb	ip, [r1, r3, lsl #1]
  74              	.L10:
  75 0012 0001     		lsls	r0, r0, #4
  76 0014 4FEA430C 		lsl	ip, r3, #1
  77 0018 0CF1010C 		add	ip, ip, #1
  78 001c 4FF0000E 		mov	lr, #0
  79 0020 01F80CE0 		strb	lr, [r1, ip]
  80 0024 0133     		adds	r3, r3, #1
  81 0026 DBB2     		uxtb	r3, r3
  82 0028 9342     		cmp	r3, r2
  83 002a 09D2     		bcs	.L16
  84              	.L11:
  85 002c 4FEA107C 		lsr	ip, r0, #28
  86 0030 B0F1204F 		cmp	r0, #-1610612736
  87 0034 E9D2     		bcs	.L9
  88 0036 0CF1300C 		add	ip, ip, #48
  89 003a 01F813C0 		strb	ip, [r1, r3, lsl #1]
  90 003e E8E7     		b	.L10
  91              	.L16:
  92 0040 5DF804FB 		ldr	pc, [sp], #4
  93              	.L15:
  94 0044 7047     		bx	lr
  96              		.section	.text.Get_SerialNum,"ax",%progbits
  97              		.align	1
  98              		.syntax unified
  99              		.thumb
 100              		.thumb_func
 102              	Get_SerialNum:
 103              		@ args = 0, pretend = 0, frame = 0
 104              		@ frame_needed = 0, uses_anonymous_args = 0
 105 0000 38B5     		push	{r3, r4, r5, lr}
 106 0002 0B4B     		ldr	r3, .L21
 107 0004 D3F89005 		ldr	r0, [r3, #1424]
 108 0008 D3F89445 		ldr	r4, [r3, #1428]
 109 000c D3F89835 		ldr	r3, [r3, #1432]
 110 0010 C018     		adds	r0, r0, r3
 111 0012 00D1     		bne	.L20
 112              	.L17:
 113 0014 38BD     		pop	{r3, r4, r5, pc}
 114              	.L20:
 115 0016 074D     		ldr	r5, .L21+4
 116 0018 0822     		movs	r2, #8
 117 001a 2946     		mov	r1, r5
 118 001c FFF7FEFF 		bl	IntToUnicode
 119 0020 0422     		movs	r2, #4
 120 0022 05F11001 		add	r1, r5, #16
 121 0026 2046     		mov	r0, r4
ARM GAS  C:\Users\Nathan\AppData\Local\Temp\ccmkOw3U.s 			page 3


 122 0028 FFF7FEFF 		bl	IntToUnicode
 123 002c F2E7     		b	.L17
 124              	.L22:
 125 002e 00BF     		.align	2
 126              	.L21:
 127 0030 0070FF1F 		.word	536834048
 128 0034 02000000 		.word	USBD_StringSerial+2
 130              		.section	.text.USBD_HID_SerialStrDescriptor,"ax",%progbits
 131              		.align	1
 132              		.global	USBD_HID_SerialStrDescriptor
 133              		.syntax unified
 134              		.thumb
 135              		.thumb_func
 137              	USBD_HID_SerialStrDescriptor:
 138              		@ args = 0, pretend = 0, frame = 0
 139              		@ frame_needed = 0, uses_anonymous_args = 0
 140 0000 08B5     		push	{r3, lr}
 141 0002 1A23     		movs	r3, #26
 142 0004 0B80     		strh	r3, [r1]	@ movhi
 143 0006 FFF7FEFF 		bl	Get_SerialNum
 144 000a 0148     		ldr	r0, .L25
 145 000c 08BD     		pop	{r3, pc}
 146              	.L26:
 147 000e 00BF     		.align	2
 148              	.L25:
 149 0010 00000000 		.word	USBD_StringSerial
 151              		.section	.rodata.USBD_HID_ProductStrDescriptor.str1.4,"aMS",%progbits,1
 152              		.align	2
 153              	.LC0:
 154 0000 53544D33 		.ascii	"STM32 Human interface\000"
 154      32204875 
 154      6D616E20 
 154      696E7465 
 154      72666163 
 155              		.section	.text.USBD_HID_ProductStrDescriptor,"ax",%progbits
 156              		.align	1
 157              		.global	USBD_HID_ProductStrDescriptor
 158              		.syntax unified
 159              		.thumb
 160              		.thumb_func
 162              	USBD_HID_ProductStrDescriptor:
 163              		@ args = 0, pretend = 0, frame = 0
 164              		@ frame_needed = 0, uses_anonymous_args = 0
 165 0000 08B5     		push	{r3, lr}
 166 0002 0A46     		mov	r2, r1
 167 0004 28B9     		cbnz	r0, .L28
 168 0006 0549     		ldr	r1, .L31
 169 0008 0548     		ldr	r0, .L31+4
 170 000a FFF7FEFF 		bl	USBD_GetString
 171              	.L29:
 172 000e 0348     		ldr	r0, .L31
 173 0010 08BD     		pop	{r3, pc}
 174              	.L28:
 175 0012 0249     		ldr	r1, .L31
 176 0014 0248     		ldr	r0, .L31+4
 177 0016 FFF7FEFF 		bl	USBD_GetString
 178 001a F8E7     		b	.L29
ARM GAS  C:\Users\Nathan\AppData\Local\Temp\ccmkOw3U.s 			page 4


 179              	.L32:
 180              		.align	2
 181              	.L31:
 182 001c 00000000 		.word	USBD_StrDesc
 183 0020 00000000 		.word	.LC0
 185              		.section	.rodata.USBD_HID_ManufacturerStrDescriptor.str1.4,"aMS",%progbits,1
 186              		.align	2
 187              	.LC1:
 188 0000 53544D69 		.ascii	"STMicroelectronics\000"
 188      63726F65 
 188      6C656374 
 188      726F6E69 
 188      637300
 189              		.section	.text.USBD_HID_ManufacturerStrDescriptor,"ax",%progbits
 190              		.align	1
 191              		.global	USBD_HID_ManufacturerStrDescriptor
 192              		.syntax unified
 193              		.thumb
 194              		.thumb_func
 196              	USBD_HID_ManufacturerStrDescriptor:
 197              		@ args = 0, pretend = 0, frame = 0
 198              		@ frame_needed = 0, uses_anonymous_args = 0
 199 0000 10B5     		push	{r4, lr}
 200 0002 0A46     		mov	r2, r1
 201 0004 034C     		ldr	r4, .L35
 202 0006 2146     		mov	r1, r4
 203 0008 0348     		ldr	r0, .L35+4
 204 000a FFF7FEFF 		bl	USBD_GetString
 205 000e 2046     		mov	r0, r4
 206 0010 10BD     		pop	{r4, pc}
 207              	.L36:
 208 0012 00BF     		.align	2
 209              	.L35:
 210 0014 00000000 		.word	USBD_StrDesc
 211 0018 00000000 		.word	.LC1
 213              		.section	.rodata.USBD_HID_ConfigStrDescriptor.str1.4,"aMS",%progbits,1
 214              		.align	2
 215              	.LC2:
 216 0000 48494420 		.ascii	"HID Config\000"
 216      436F6E66 
 216      696700
 217              		.section	.text.USBD_HID_ConfigStrDescriptor,"ax",%progbits
 218              		.align	1
 219              		.global	USBD_HID_ConfigStrDescriptor
 220              		.syntax unified
 221              		.thumb
 222              		.thumb_func
 224              	USBD_HID_ConfigStrDescriptor:
 225              		@ args = 0, pretend = 0, frame = 0
 226              		@ frame_needed = 0, uses_anonymous_args = 0
 227 0000 08B5     		push	{r3, lr}
 228 0002 0A46     		mov	r2, r1
 229 0004 28B9     		cbnz	r0, .L38
 230 0006 0549     		ldr	r1, .L41
 231 0008 0548     		ldr	r0, .L41+4
 232 000a FFF7FEFF 		bl	USBD_GetString
 233              	.L39:
ARM GAS  C:\Users\Nathan\AppData\Local\Temp\ccmkOw3U.s 			page 5


 234 000e 0348     		ldr	r0, .L41
 235 0010 08BD     		pop	{r3, pc}
 236              	.L38:
 237 0012 0249     		ldr	r1, .L41
 238 0014 0248     		ldr	r0, .L41+4
 239 0016 FFF7FEFF 		bl	USBD_GetString
 240 001a F8E7     		b	.L39
 241              	.L42:
 242              		.align	2
 243              	.L41:
 244 001c 00000000 		.word	USBD_StrDesc
 245 0020 00000000 		.word	.LC2
 247              		.section	.rodata.USBD_HID_InterfaceStrDescriptor.str1.4,"aMS",%progbits,1
 248              		.align	2
 249              	.LC3:
 250 0000 48494420 		.ascii	"HID Interface\000"
 250      496E7465 
 250      72666163 
 250      6500
 251              		.section	.text.USBD_HID_InterfaceStrDescriptor,"ax",%progbits
 252              		.align	1
 253              		.global	USBD_HID_InterfaceStrDescriptor
 254              		.syntax unified
 255              		.thumb
 256              		.thumb_func
 258              	USBD_HID_InterfaceStrDescriptor:
 259              		@ args = 0, pretend = 0, frame = 0
 260              		@ frame_needed = 0, uses_anonymous_args = 0
 261 0000 08B5     		push	{r3, lr}
 262 0002 0A46     		mov	r2, r1
 263 0004 28B9     		cbnz	r0, .L44
 264 0006 0549     		ldr	r1, .L47
 265 0008 0548     		ldr	r0, .L47+4
 266 000a FFF7FEFF 		bl	USBD_GetString
 267              	.L45:
 268 000e 0348     		ldr	r0, .L47
 269 0010 08BD     		pop	{r3, pc}
 270              	.L44:
 271 0012 0249     		ldr	r1, .L47
 272 0014 0248     		ldr	r0, .L47+4
 273 0016 FFF7FEFF 		bl	USBD_GetString
 274 001a F8E7     		b	.L45
 275              	.L48:
 276              		.align	2
 277              	.L47:
 278 001c 00000000 		.word	USBD_StrDesc
 279 0020 00000000 		.word	.LC3
 281              		.global	USBD_StringSerial
 282              		.section	.data.USBD_StringSerial,"aw"
 283              		.align	2
 286              	USBD_StringSerial:
 287 0000 1A0300   		.ascii	"\032\003\000"
 288 0003 00000000 		.space	23
 288      00000000 
 288      00000000 
 288      00000000 
 288      00000000 
ARM GAS  C:\Users\Nathan\AppData\Local\Temp\ccmkOw3U.s 			page 6


 289              		.global	USBD_StrDesc
 290              		.section	.bss.USBD_StrDesc,"aw",%nobits
 291              		.align	2
 294              	USBD_StrDesc:
 295 0000 00000000 		.space	512
 295      00000000 
 295      00000000 
 295      00000000 
 295      00000000 
 296              		.global	USBD_LangIDDesc
 297              		.section	.data.USBD_LangIDDesc,"aw"
 298              		.align	2
 301              	USBD_LangIDDesc:
 302 0000 04030904 		.ascii	"\004\003\011\004"
 303              		.global	USBD_HID_DeviceDesc
 304              		.section	.data.USBD_HID_DeviceDesc,"aw"
 305              		.align	2
 308              	USBD_HID_DeviceDesc:
 309 0000 12010002 		.ascii	"\022\001\000\002\000\000\000@\203\004+W\000\002\001"
 309      00000040 
 309      83042B57 
 309      000201
 310 000f 020301   		.ascii	"\002\003\001"
 311              		.global	HID_Desc
 312              		.section	.data.HID_Desc,"aw"
 313              		.align	2
 316              	HID_Desc:
 317 0000 00000000 		.word	USBD_HID_DeviceDescriptor
 318 0004 00000000 		.word	USBD_HID_LangIDStrDescriptor
 319 0008 00000000 		.word	USBD_HID_ManufacturerStrDescriptor
 320 000c 00000000 		.word	USBD_HID_ProductStrDescriptor
 321 0010 00000000 		.word	USBD_HID_SerialStrDescriptor
 322 0014 00000000 		.word	USBD_HID_ConfigStrDescriptor
 323 0018 00000000 		.word	USBD_HID_InterfaceStrDescriptor
 324 001c 00000000 		.space	4
 325              		.ident	"GCC: (Arm GNU Toolchain 13.3.Rel1 (Build arm-13.24)) 13.3.1 20240614"
ARM GAS  C:\Users\Nathan\AppData\Local\Temp\ccmkOw3U.s 			page 7

